 homing_ldm_slrt

 Timestamp is 619fae6c (Thu Nov 25 16:40:28 2021)

 Preferred load address is 10000000

 Start         Length     Name                   Class
 0001:00000000 0006e146H .text$mn                CODE
 0001:0006e146 00001085H .text$x                 CODE
 0002:00000000 00000104H .CRT$XCA                DATA
 0002:00000104 00000104H .CRT$XCZ                DATA
 0002:00000208 00000104H .CRT$XIA                DATA
 0002:0000030c 00000110H .CRT$XIC                DATA
 0002:0000041c 00000104H .CRT$XIZ                DATA
 0002:00000520 00000104H .CRT$XPA                DATA
 0002:00000624 0000010cH .CRT$XPX                DATA
 0002:00000730 00000104H .CRT$XPXA               DATA
 0002:00000834 00000104H .CRT$XPZ                DATA
 0002:00000938 00000104H .CRT$XTA                DATA
 0002:00000a3c 00000104H .CRT$XTZ                DATA
 0002:00000b40 0000eeecH .rdata                  DATA
 0002:0000fa2c 00000444H .rdata$r                DATA
 0002:0000fe70 00000128H .rdata$sxdata           DATA
 0002:0000ff98 00000220H .rdata$zzzdbg           DATA
 0002:000101b8 00000104H .rtc$IAA                DATA
 0002:000102bc 00000104H .rtc$IZZ                DATA
 0002:000103c0 00000104H .rtc$TAA                DATA
 0002:000104c4 00000104H .rtc$TZZ                DATA
 0002:000105c8 00000ce8H .xdata$x                DATA
 0002:000112b0 000001e4H .edata                  DATA
 0003:00000000 00001e14H .data                   DATA
 0003:00001e14 0000024cH .data$r                 DATA
 0003:00002060 00016a4cH .bss                    DATA
 0004:00000000 000001b4H .idata$5                DATA
 0004:000001b4 00000014H .idata$2                DATA
 0004:000001c8 00000014H .idata$3                DATA
 0004:000001dc 000001b4H .idata$4                DATA
 0004:00000390 000007a2H .idata$6                DATA
 0005:00000000 00000104H .00cfg                  DATA

  Address         Publics by Value              Rva+Base       Lib:Object

 0000:00000000       ___guard_longjmp_count     00000000     <absolute>
 0000:00000000       ___guard_fids_table        00000000     <absolute>
 0000:00000000       ___enclave_config          00000000     <absolute>
 0000:00000000       ___hybrid_auxiliary_iat    00000000     <absolute>
 0000:00000000       ___hybrid_code_map         00000000     <absolute>
 0000:00000000       ___dynamic_value_reloc_table 00000000     <absolute>
 0000:00000000       ___guard_iat_table         00000000     <absolute>
 0000:00000000       ___guard_iat_count         00000000     <absolute>
 0000:00000000       ___volatile_metadata       00000000     <absolute>
 0000:00000000       ___hybrid_code_map_count   00000000     <absolute>
 0000:00000000       ___guard_fids_count        00000000     <absolute>
 0000:00000000       __except_list              00000000     <absolute>
 0000:00000000       ___guard_longjmp_table     00000000     <absolute>
 0000:00000008       ___safe_se_handler_count   00000008     <absolute>
 0000:00000100       ___guard_flags             00000100     <absolute>
 0000:00000000       ___ImageBase               10000000     <linker-defined>
 0001:000066a0       _MdlInitialize             100076a0 f   homing_ldm.obj
 0001:000066b0       _MdlInitializeSampleTimes  100076b0 f   homing_ldm.obj
 0001:000066c0       _MdlInitializeSizes        100076c0 f   homing_ldm.obj
 0001:000066d0       _MdlOutputs                100076d0 f   homing_ldm.obj
 0001:000066e0       _MdlStart                  100076e0 f   homing_ldm.obj
 0001:000068c0       _MdlTerminate              100078c0 f   homing_ldm.obj
 0001:00006970       _MdlUpdate                 10007970 f   homing_ldm.obj
 0001:00006ad0       _homing_ldm                10007ad0 f   homing_ldm.obj
 0001:00009280       _rt_mxCreateCharMatrixFromStrings 1000a280 f   rt_matrx.obj
 0001:000093e0       _rt_mxCreateDoubleMatrix   1000a3e0 f   rt_matrx.obj
 0001:00009440       _rt_mxCreateNumericArray   1000a440 f   rt_matrx.obj
 0001:000094b0       _rt_mxCreateString         1000a4b0 f   rt_matrx.obj
 0001:00009540       _rt_mxDuplicateArray       1000a540 f   rt_matrx.obj
 0001:000095a0       _rt_mxGetDimensions        1000a5a0 f   rt_matrx.obj
 0001:000095e0       _rt_mxGetEps               1000a5e0 f   rt_matrx.obj
 0001:000095f0       _rt_mxGetString            1000a5f0 f   rt_matrx.obj
 0001:00009670       _rtPrintfNoOp              1000a670 f   rt_printf.obj
 0001:00009680       _homing_ldm_GetCAPIStaticMap 1000a680 f   homing_ldm_capi.obj
 0001:00009690       _homing_ldm_InitializeDataMapInfo 1000a690 f   homing_ldm_capi.obj
 0001:00009720       _rtGetInf                  1000a720 f   rtGetInf.obj
 0001:00009750       _rtGetInfF                 1000a750 f   rtGetInf.obj
 0001:00009770       _rtGetMinusInf             1000a770 f   rtGetInf.obj
 0001:000097a0       _rtGetMinusInfF            1000a7a0 f   rtGetInf.obj
 0001:000097c0       _rtGetNaN                  1000a7c0 f   rtGetNaN.obj
 0001:000097f0       _rtGetNaNF                 1000a7f0 f   rtGetNaN.obj
 0001:00009810       _rtIsInf                   1000a810 f   rt_nonfinite.obj
 0001:00009850       _rtIsInfF                  1000a850 f   rt_nonfinite.obj
 0001:00009890       _rtIsNaN                   1000a890 f   rt_nonfinite.obj
 0001:000098a0       _rtIsNaNF                  1000a8a0 f   rt_nonfinite.obj
 0001:000098b0       _rt_InitInfAndNaN          1000a8b0 f   rt_nonfinite.obj
 0001:00009910       _rt_CleanUpForStateLogWithMMI 1000a910 f   rt_logging_mmi.obj
 0001:00009a20       _rt_FillStateSigInfoFromMMI 1000aa20 f   rt_logging_mmi.obj
 0001:00009dc0       _rtwCAPI_CountSysRan       1000adc0 f   rtw_modelmap_utils.obj
 0001:00009e60       _rtwCAPI_EncodePath        1000ae60 f   rtw_modelmap_utils.obj
 0001:00009f70       _rtwCAPI_FillSysRan        1000af70 f   rtw_modelmap_utils.obj
 0001:0000a060       _rtwCAPI_FreeFullPaths     1000b060 f   rtw_modelmap_utils.obj
 0001:0000a0f0       _rtwCAPI_GetFullStateBlockPath 1000b0f0 f   rtw_modelmap_utils.obj
 0001:0000a280       _rtwCAPI_GetNumContStateRecords 1000b280 f   rtw_modelmap_utils.obj
 0001:0000a340       _rtwCAPI_GetNumSigLogRecords 1000b340 f   rtw_modelmap_utils.obj
 0001:0000a390       _rtwCAPI_GetNumSigLogRecordsForRTWLogging 1000b390 f   rtw_modelmap_utils.obj
 0001:0000a430       _rtwCAPI_GetNumStateRecords 1000b430 f   rtw_modelmap_utils.obj
 0001:0000a480       _rtwCAPI_GetNumStateRecordsForRTWLogging 1000b480 f   rtw_modelmap_utils.obj
 0001:0000a520       _rtwCAPI_GetSigAddrFromMap 1000b520 f   rtw_modelmap_utils.obj
 0001:0000a5e0       _rtwCAPI_GetSigLogRecordInfo 1000b5e0 f   rtw_modelmap_utils.obj
 0001:0000aa10       _rtwCAPI_GetStateRecordInfo 1000ba10 f   rtw_modelmap_utils.obj
 0001:0000aed0       _rtwCAPI_GetStateWidth     1000bed0 f   rtw_modelmap_utils.obj
 0001:0000af30       _rtwCAPI_HasStates         1000bf30 f   rtw_modelmap_utils.obj
 0001:0000af90       _rtwCAPI_UpdateFullPaths   1000bf90 f   rtw_modelmap_utils.obj
 0001:0000b170       ___local_stdio_printf_options 1000c170 f i rt_logging.obj
 0001:0000b180       __vfprintf_l               1000c180 f i rt_logging.obj
 0001:0000b1b0       __vsnprintf_l              1000c1b0 f i rt_logging.obj
 0001:0000b1f0       __vsprintf_l               1000c1f0 f i rt_logging.obj
 0001:0000b230       _fprintf                   1000c230 f i rt_logging.obj
 0001:0000b730       _printf                    1000c730 f i rt_logging.obj
 0001:0000b770       _rt_CreateLogVar           1000c770 f   rt_logging.obj
 0001:0000b800       _rt_CreateLogVarWithConvert 1000c800 f   rt_logging.obj
 0001:0000c130       _rt_CreateStructLogVar     1000d130 f   rt_logging.obj
 0001:0000ceb0       _rt_GetMxIdFromDTypeId     1000deb0 f   rt_logging.obj
 0001:0000cee0       _rt_GetMxIdFromDTypeIdForRSim 1000dee0 f   rt_logging.obj
 0001:0000fa70       _rt_StartDataLogging       10010a70 f   rt_logging.obj
 0001:0000ff30       _rt_StartDataLoggingWithStartTime 10010f30 f   rt_logging.obj
 0001:000103a0       _rt_StopDataLogging        100113a0 f   rt_logging.obj
 0001:000103c0       _rt_StopDataLoggingImpl    100113c0 f   rt_logging.obj
 0001:000107e0       _rt_UpdateLogVar           100117e0 f   rt_logging.obj
 0001:00011970       _rt_UpdateStructLogVar     10012970 f   rt_logging.obj
 0001:00011a00       _rt_UpdateTXXFYLogVars     10012a00 f   rt_logging.obj
 0001:00011d30       _rt_UpdateTXYLogVars       10012d30 f   rt_logging.obj
 0001:00011f70       _sprintf                   10012f70 f i rt_logging.obj
 0001:00011fb0       _DllMain@12                10012fb0 f   xpctarget.obj
 0001:00011fc0       _SLRTSetErrorStatus        10012fc0 f   xpctarget.obj
 0001:00011fe0       _changeStepSize            10012fe0 f   xpctarget.obj
 0001:00012050       _getDLMVersion             10013050 f   xpctarget.obj
 0001:00012060       _getRefMdlPath             10013060 f   xpctarget.obj
 0001:000120e0       _getRefMdlSignalNumber     100130e0 f   xpctarget.obj
 0001:00012190       _getrlmdlinfo              10013190 f   xpctarget.obj
 0001:00012370       _homing_ldm_ChangeStepSize 10013370 f   xpctarget.obj
 0001:000123e0       _updateDiscreteEvents      100133e0 f   xpctarget.obj
 0001:000123f0       _getNumRef                 100133f0 f   appmappingData.obj
 0001:00012400       _vprintf                   10013400 f i legacy_stdio.obj
 0001:00012440       _danipcim                  10013440 f   danipcim.obj
 0001:00012c00       _dinipcim                  10013c00 f   dinipcim.obj
 0001:00012fc0       _donipcim                  10013fc0 f   donipcim.obj
 0001:000134d0       _encnipcim                 100144d0 f   encnipcim.obj
 0001:00013b90       _niMIdentify               10014b90 f   xpcionim.obj
 0001:00013d00       _niM_AISetup               10014d00 f   xpcionim.obj
 0001:00014110       _niM_AO_Setup              10015110 f   xpcionim.obj
 0001:000142a0       _niM_Cont_Pulse_Train_Generation 100152a0 f   xpcionim.obj
 0001:000143e0       _niM_Counter_Reset_All     100153e0 f   xpcionim.obj
 0001:00014490       _niM_CtrArm                10015490 f   xpcionim.obj
 0001:000144b0       _niM_CtrDisarm             100154b0 f   xpcionim.obj
 0001:000144d0       _niM_CtrReadArm            100154d0 f   xpcionim.obj
 0001:000144f0       _niM_CtrReadDisarm         100154f0 f   xpcionim.obj
 0001:00014510       _niM_PeriodConfigure       10015510 f   xpcionim.obj
 0001:00014690       _niM_Private_Data          10015690 f   xpcionim.obj
 0001:00014c70       _niM_SetPFIFilter          10015c70 f   xpcionim.obj
 0001:00014cf0       _niM_SetPFI_DO             10015cf0 f   xpcionim.obj
 0001:00014d30       _niM_SetPFI_Select         10015d30 f   xpcionim.obj
 0001:00014db0       _niM_aiConfigureChannel    10015db0 f   xpcionim.obj
 0001:00014e20       _niM_aiGetScalingCoefficients 10015e20 f   xpcionim.obj
 0001:00014ff0       _niM_aiPolynomialScaler    10015ff0 f   xpcionim.obj
 0001:00015120       _niM_analogTriggerReset    10016120 f   xpcionim.obj
 0001:00015170       _niM_aoConfigureDAC        10016170 f   xpcionim.obj
 0001:000151c0       _niM_aoGetScalingCoefficients 100161c0 f   xpcionim.obj
 0001:00015270       _niM_aoLinearScaler        10016270 f   xpcionim.obj
 0001:000152a0       _niM_configureTimebase     100162a0 f   xpcionim.obj
 0001:000152c0       _niM_eepromReadMSeries     100162c0 f   xpcionim.obj
 0001:00015390       _niM_pllReset              10016390 f   xpcionim.obj
 0001:000153c0       _niM_resetCtr              100163c0 f   xpcionim.obj
 0001:000153e0       _niM_whichBank             100163e0 f   xpcionim.obj
 0001:00015420       _niMconfig                 10016420 f   xpcionim.obj
 0001:000154c0       _GetPCIDeviceFull          100164c0 f   xpcruntime:xpcimports.obj
 0001:00015500       _ShowPCIDevice             10016500 f   xpcruntime:xpcimports.obj
 0001:00015ce0       _xpcGetPciConfigAtSlot     10016ce0 f   xpcruntime:xpcimports.obj
 0001:00015ff0       _xpcInitProcs              10016ff0 f   xpcruntime:xpcimports.obj
 0001:00017350       _xpceuploadevent           10018350 f   xpcruntime:xpcimports.obj
 0001:00017360       __ftoui3                   10018360 f   LIBCMT:ftol3.obj
 0001:0001736f       __ftoul3                   1001836f f   LIBCMT:ftol3.obj
 0001:0001737e       __ftol3                    1001837e f   LIBCMT:ftol3.obj
 0001:0001738b       __ftol3_NaN                1001838b f   LIBCMT:ftol3.obj
 0001:000173a3       __ftol3_work               100183a3 f   LIBCMT:ftol3.obj
 0001:00017429       __ftol3_common             10018429 f   LIBCMT:ftol3.obj
 0001:000174eb       __ftol3_arg_error          100184eb f   LIBCMT:ftol3.obj
 0001:000174fd       __ftol3_except             100184fd f   LIBCMT:ftol3.obj
 0001:00017541       __dtoui3                   10018541 f   LIBCMT:ftol3.obj
 0001:00017550       __dtoul3                   10018550 f   LIBCMT:ftol3.obj
 0001:0001755f       __dtol3                    1001855f f   LIBCMT:ftol3.obj
 0001:0001756c       __dtol3_NaN                1001856c f   LIBCMT:ftol3.obj
 0001:00017589       __dtol3_work               10018589 f   LIBCMT:ftol3.obj
 0001:00017670       __ultod3                   10018670 f   LIBCMT:ftol3.obj
 0001:000176b0       __ltod3                    100186b0 f   LIBCMT:ftol3.obj
 0001:000177b4       ___raise_securityfailure   100187b4 f   LIBCMT:gs_report.obj
 0001:000177e6       ___report_gsfailure        100187e6 f   LIBCMT:gs_report.obj
 0001:0001791d       ___report_rangecheckfailure 1001891d f   LIBCMT:gs_report.obj
 0001:0001792c       ___report_securityfailure  1001892c f   LIBCMT:gs_report.obj
 0001:00017a2d       ___report_securityfailureEx 10018a2d f   LIBCMT:gs_report.obj
 0001:00017b86       @__security_check_cookie@4 10018b86 f   LIBCMT:secchk.obj
 0001:00017b9b       ___isa_available_init      10018b9b f   LIBCMT:cpu_disp.obj
 0001:0001817c       __CRT_INIT@12              1001917c f   LIBCMT:dll_dllmain.obj
 0001:00018187       __DllMainCRTStartup@12     10019187 f   LIBCMT:dll_dllmain.obj
 0001:00018212       ___security_init_cookie    10019212 f   LIBCMT:gs_support.obj
 0001:0001826f       ?__scrt_initialize_type_info@@YAXXZ 1001926f f   LIBCMT:tncleanup.obj
 0001:0001827e       ?__scrt_uninitialize_type_info@@YAXXZ 1001927e f   LIBCMT:tncleanup.obj
 0001:0001828d       ___local_stdio_scanf_options 1001928d f i LIBCMT:default_local_stdio_options.obj
 0001:00018293       ___scrt_initialize_default_local_stdio_options 10019293 f   LIBCMT:default_local_stdio_options.obj
 0001:000182b7       ??$__crt_fast_decode_pointer@PAP6AXXZ@@YAPAP6AXXZQAP6AXXZ@Z 100192b7 f i LIBCMT:utility.obj
 0001:000182d0       ??$__crt_fast_encode_pointer@PAP6AXXZ@@YAPAP6AXXZQAP6AXXZ@Z 100192d0 f i LIBCMT:utility.obj
 0001:000182f4       ?__crt_rotate_pointer_value@@YAIIH@Z 100192f4 f i LIBCMT:utility.obj
 0001:00018304       ?configure_argv@__scrt_narrow_argv_policy@@SAHXZ 10019304 f i LIBCMT:utility.obj
 0001:00018369       ?initialize_environment@__scrt_narrow_environment_policy@@SAHXZ 10019369 f i LIBCMT:utility.obj
 0001:000183af       _NtCurrentTeb              100193af f i LIBCMT:utility.obj
 0001:000183b6       ___scrt_acquire_startup_lock 100193b6 f   LIBCMT:utility.obj
 0001:000183f4       ___scrt_dllmain_after_initialize_c 100193f4 f   LIBCMT:utility.obj
 0001:00018429       ___scrt_dllmain_before_initialize_c 10019429 f   LIBCMT:utility.obj
 0001:0001843a       ___scrt_dllmain_crt_thread_attach 1001943a f   LIBCMT:utility.obj
 0001:00018460       ___scrt_dllmain_crt_thread_detach 10019460 f   LIBCMT:utility.obj
 0001:00018470       ___scrt_dllmain_exception_filter 10019470 f   LIBCMT:utility.obj
 0001:000184b1       ___scrt_dllmain_uninitialize_c 100194b1 f   LIBCMT:utility.obj
 0001:000184dc       ___scrt_dllmain_uninitialize_critical 100194dc f   LIBCMT:utility.obj
 0001:000184ec       ___scrt_initialize_crt     100194ec f   LIBCMT:utility.obj
 0001:00018533       ___scrt_initialize_onexit_tables 10019533 f   LIBCMT:utility.obj
 0001:00018601       ___scrt_is_nonwritable_in_current_image 10019601 f   LIBCMT:utility.obj
 0001:000186ba       ___scrt_release_startup_lock 100196ba f   LIBCMT:utility.obj
 0001:000186de       ___scrt_uninitialize_crt   100196de f   LIBCMT:utility.obj
 0001:00018710       __onexit                   10019710 f   LIBCMT:utility.obj
 0001:00018759       _at_quick_exit             10019759 f   LIBCMT:utility.obj
 0001:00018796       _atexit                    10019796 f   LIBCMT:utility.obj
 0001:000187b0       ___scrt_get_dyn_tls_init_callback 100197b0 f   LIBCMT:dyn_tls_init.obj
 0001:000187b6       ___scrt_fastfail           100197b6 f   LIBCMT:utility_desktop.obj
 0001:00018916       ___scrt_get_show_window_mode 10019916 f   LIBCMT:utility_desktop.obj
 0001:00018953       ___scrt_initialize_mta     10019953 f   LIBCMT:utility_desktop.obj
 0001:00018958       ___scrt_initialize_winrt   10019958 f   LIBCMT:utility_desktop.obj
 0001:0001895b       ___scrt_is_managed_app     1001995b f   LIBCMT:utility_desktop.obj
 0001:000189ae       ___scrt_set_unhandled_exception_filter 100199ae f   LIBCMT:utility_desktop.obj
 0001:000189bd       ___scrt_exe_initialize_mta 100199bd f   LIBCMT:utility_desktop.obj
 0001:000189bd       ___scrt_stub_for_initialize_mta 100199bd f   LIBCMT:utility_desktop.obj
 0001:000189c0       ___scrt_unhandled_exception_filter@4 100199c0 f   LIBCMT:utility_desktop.obj
 0001:00018a11       __crt_debugger_hook        10019a11 f   LIBCMT:utility_desktop.obj
 0001:00018a1b       __RTC_Initialize           10019a1b f   LIBCMT:initsect.obj
 0001:00018a52       __RTC_Terminate            10019a52 f   LIBCMT:initsect.obj
 0001:00018a90       __SEH_prolog4              10019a90 f   LIBCMT:sehprolg4.obj
 0001:00018ad6       __SEH_epilog4              10019ad6 f   LIBCMT:sehprolg4.obj
 0001:00018b01       @_guard_check_icall_nop@4  10019b01 f i LIBCMT:guard_support.obj
 0001:00018b02       _ReadNoFence               10019b02 f i LIBCMT:guard_support.obj
 0001:00018b0e       _ReadPointerNoFence        10019b0e f i LIBCMT:guard_support.obj
 0001:00018b1a       __guard_icall_checks_enforced 10019b1a f i LIBCMT:guard_support.obj
 0001:00018b30       __get_startup_argv_mode    10019b30 f   LIBCMT:argv_mode.obj
 0001:00018b34       ___scrt_is_ucrt_dll_in_use 10019b34 f   LIBCMT:ucrt_detection.obj
 0001:00018b43       _GetModuleHandleA@4        10019b43 f   kernel32:KERNEL32.dll
 0001:00018b49       _GetProcAddress@8          10019b49 f   kernel32:KERNEL32.dll
 0001:00018b4f       _UnhandledExceptionFilter@4 10019b4f f   kernel32:KERNEL32.dll
 0001:00018b55       _SetUnhandledExceptionFilter@4 10019b55 f   kernel32:KERNEL32.dll
 0001:00018b5b       _GetCurrentProcess@0       10019b5b f   kernel32:KERNEL32.dll
 0001:00018b61       _TerminateProcess@8        10019b61 f   kernel32:KERNEL32.dll
 0001:00018b67       _IsProcessorFeaturePresent@4 10019b67 f   kernel32:KERNEL32.dll
 0001:00018b6d       _QueryPerformanceCounter@4 10019b6d f   kernel32:KERNEL32.dll
 0001:00018b73       _GetCurrentProcessId@0     10019b73 f   kernel32:KERNEL32.dll
 0001:00018b79       _GetCurrentThreadId@0      10019b79 f   kernel32:KERNEL32.dll
 0001:00018b7f       _GetSystemTimeAsFileTime@4 10019b7f f   kernel32:KERNEL32.dll
 0001:00018b85       _InitializeSListHead@4     10019b85 f   kernel32:KERNEL32.dll
 0001:00018b8b       _IsDebuggerPresent@0       10019b8b f   kernel32:KERNEL32.dll
 0001:00018b91       _GetStartupInfoW@4         10019b91 f   kernel32:KERNEL32.dll
 0001:00018b97       _GetModuleHandleW@4        10019b97 f   kernel32:KERNEL32.dll
 0001:00018ba0       _memset                    10019ba0 f   libvcruntime:memset.obj
 0001:00018d50       _memcpy                    10019d50 f   libvcruntime:memcpy.obj
 0001:00019430       _strchr                    1001a430 f   libvcruntime:strchr.obj
 0001:0001949e       ___from_strstr_to_strchr   1001a49e     libvcruntime:strchr.obj
 0001:000195b0       _memmove                   1001a5b0 f   libvcruntime:memmove.obj
 0001:00019cd0       __except_handler4          1001acd0 f   libvcruntime:chandler4.obj
 0001:00019e8c       ??$?RD@__crt_internal_free_policy@@QBEXQBD@Z 1001ae8c f i libvcruntime:std_type_info.obj
 0001:00019ea0       ??$?RX@__crt_internal_free_policy@@QBEXQBX@Z 1001aea0 f i libvcruntime:std_type_info.obj
 0001:00019eb4       ??$__crt_interlocked_compare_exchange_pointer@$$CBDPAD$$T@@YAPBDPDSBDQAD$$T@Z 1001aeb4 f i libvcruntime:std_type_info.obj
 0001:00019eca       ??$__crt_interlocked_read_pointer@$$CBD@@YAPBDPDSBD@Z 1001aeca f i libvcruntime:std_type_info.obj
 0001:00019ed6       ??0?$__crt_unique_heap_ptr@DU__crt_internal_free_policy@@@@QAE@QAD@Z 1001aed6 f i libvcruntime:std_type_info.obj
 0001:00019ee7       ??0?$__crt_unique_heap_ptr@XU__crt_internal_free_policy@@@@QAE@QAX@Z 1001aee7 f i libvcruntime:std_type_info.obj
 0001:00019ef8       ??1?$__crt_unique_heap_ptr@DU__crt_internal_free_policy@@@@QAE@XZ 1001aef8 f i libvcruntime:std_type_info.obj
 0001:00019f0c       ??1?$__crt_unique_heap_ptr@XU__crt_internal_free_policy@@@@QAE@XZ 1001af0c f i libvcruntime:std_type_info.obj
 0001:00019f2c       ??B?$__crt_unique_heap_ptr@DU__crt_internal_free_policy@@@@QBE_NXZ 1001af2c f i libvcruntime:std_type_info.obj
 0001:00019f33       ??B?$__crt_unique_heap_ptr@XU__crt_internal_free_policy@@@@QBE_NXZ 1001af33 f i libvcruntime:std_type_info.obj
 0001:00019f62       ?__crt_interlocked_read_32@@YAHPDH@Z 1001af62 f i libvcruntime:std_type_info.obj
 0001:00019f6e       ?detach@?$__crt_unique_heap_ptr@XU__crt_internal_free_policy@@@@QAEPAXXZ 1001af6e f i libvcruntime:std_type_info.obj
 0001:00019f74       ?get@?$__crt_unique_heap_ptr@DU__crt_internal_free_policy@@@@QBEPADXZ 1001af74 f i libvcruntime:std_type_info.obj
 0001:00019f77       ?get@?$__crt_unique_heap_ptr@XU__crt_internal_free_policy@@@@QBEPAXXZ 1001af77 f i libvcruntime:std_type_info.obj
 0001:00019f7a       ?is_valid@?$__crt_unique_heap_ptr@DU__crt_internal_free_policy@@@@QBE_NXZ 1001af7a f i libvcruntime:std_type_info.obj
 0001:00019f81       ?is_valid@?$__crt_unique_heap_ptr@XU__crt_internal_free_policy@@@@QBE_NXZ 1001af81 f i libvcruntime:std_type_info.obj
 0001:00019f88       ?release@?$__crt_unique_heap_ptr@DU__crt_internal_free_policy@@@@QAEXXZ 1001af88 f i libvcruntime:std_type_info.obj
 0001:00019f9c       ?release@?$__crt_unique_heap_ptr@XU__crt_internal_free_policy@@@@QAEXXZ 1001af9c f i libvcruntime:std_type_info.obj
 0001:00019fb0       ___std_type_info_compare   1001afb0 f   libvcruntime:std_type_info.obj
 0001:00019ffb       ___std_type_info_destroy_list 1001affb f   libvcruntime:std_type_info.obj
 0001:0001a026       ___std_type_info_hash      1001b026 f   libvcruntime:std_type_info.obj
 0001:0001a055       ___std_type_info_name      1001b055 f   libvcruntime:std_type_info.obj
 0001:0001a148       ___vcrt_initialize         1001b148 f   libvcruntime:initialization.obj
 0001:0001a17b       ___vcrt_thread_attach      1001b17b f   libvcruntime:initialization.obj
 0001:0001a188       ___vcrt_thread_detach      1001b188 f   libvcruntime:initialization.obj
 0001:0001a195       ___vcrt_uninitialize       1001b195 f   libvcruntime:initialization.obj
 0001:0001a1bb       ___vcrt_uninitialize_critical 1001b1bb f   libvcruntime:initialization.obj
 0001:0001a1d0       __local_unwind4            1001b1d0 f   libvcruntime:exsup4.obj
 0001:0001a2a8       __seh_longjmp_unwind4@4    1001b2a8 f   libvcruntime:exsup4.obj
 0001:0001a2d0       @_EH4_CallFilterFunc@8     1001b2d0 f   libvcruntime:exsup4.obj
 0001:0001a2e8       @_EH4_TransferToHandler@8  1001b2e8 f   libvcruntime:exsup4.obj
 0001:0001a304       @_EH4_GlobalUnwind2@8      1001b304 f   libvcruntime:exsup4.obj
 0001:0001a320       @_EH4_LocalUnwind@16       1001b320 f   libvcruntime:exsup4.obj
 0001:0001a39d       ___except_validate_context_record 1001b39d f   libvcruntime:jbcxrval.obj
 0001:0001a3d9       ___except_validate_jump_buffer 1001b3d9 f   libvcruntime:jbcxrval.obj
 0001:0001a411       ___except_validate_jump_buffer_common 1001b411 f i libvcruntime:jbcxrval.obj
 0001:0001a458       ??0Block@_HeapManager@@QAE@XZ 1001b458 f i libvcruntime:undname.obj
 0001:0001a45e       ??0DName@@QAE@AAPBDD@Z     1001b45e f   libvcruntime:undname.obj
 0001:0001a53c       ??0DName@@QAE@ABV0@@Z      1001b53c f i libvcruntime:undname.obj
 0001:0001a557       ??0DName@@QAE@D@Z          1001b557 f   libvcruntime:undname.obj
 0001:0001a585       ??0DName@@QAE@PAV0@@Z      1001b585 f   libvcruntime:undname.obj
 0001:0001a5df       ??0DName@@QAE@PBD@Z        1001b5df f   libvcruntime:undname.obj
 0001:0001a61e       ??0DName@@QAE@W4DNameStatus@@@Z 1001b61e f   libvcruntime:undname.obj
 0001:0001a66e       ??0DName@@QAE@XZ           1001b66e f i libvcruntime:undname.obj
 0001:0001a67a       ??0DName@@QAE@_J@Z         1001b67a f   libvcruntime:undname.obj
 0001:0001a729       ??0DName@@QAE@_K@Z         1001b729 f   libvcruntime:undname.obj
 0001:0001a7a8       ??0DNameNode@@IAE@XZ       1001b7a8 f i libvcruntime:undname.obj
 0001:0001a7b3       ??0Replicator@@QAE@XZ      1001b7b3 f i libvcruntime:undname.obj
 0001:0001a7c4       ??0UnDecorator@@QAE@PBDP6APADJ@ZK@Z 1001b7c4 f i libvcruntime:undname.obj
 0001:0001a823       ??0charNode@@QAE@D@Z       1001b823 f i libvcruntime:undname.obj
 0001:0001a83d       ??0pDNameNode@@QAE@PAVDName@@@Z 1001b83d f   libvcruntime:undname.obj
 0001:0001a86f       ??0pairNode@@QAE@PBVDNameNode@@0@Z 1001b86f f i libvcruntime:undname.obj
 0001:0001a895       ??0pcharNode@@QAE@PBDH@Z   1001b895 f   libvcruntime:undname.obj
 0001:0001a90b       ??2@YAPAXIAAV_HeapManager@@H@Z 1001b90b f i libvcruntime:undname.obj
 0001:0001a925       ??4DName@@QAEAAV0@ABV0@@Z  1001b925 f   libvcruntime:undname.obj
 0001:0001a940       ??4DName@@QAEAAV0@D@Z      1001b940 f i libvcruntime:undname.obj
 0001:0001a96e       ??4DName@@QAEAAV0@PAV0@@Z  1001b96e f   libvcruntime:undname.obj
 0001:0001a9c0       ??4DName@@QAEAAV0@PBD@Z    1001b9c0 f   libvcruntime:undname.obj
 0001:0001a9f5       ??4DName@@QAEAAV0@W4DNameStatus@@@Z 1001b9f5 f   libvcruntime:undname.obj
 0001:0001aa33       ??AReplicator@@QBE?AVDName@@H@Z 1001ba33 f   libvcruntime:undname.obj
 0001:0001aa8a       ??H@YA?AVDName@@DABV0@@Z   1001ba8a f i libvcruntime:undname.obj
 0001:0001aab4       ??H@YA?AVDName@@PBDABV0@@Z 1001bab4 f i libvcruntime:undname.obj
 0001:0001aade       ??H@YA?AVDName@@W4DNameStatus@@ABV0@@Z 1001bade f i libvcruntime:undname.obj
 0001:0001ab08       ??HDName@@QBE?AV0@ABV0@@Z  1001bb08 f   libvcruntime:undname.obj
 0001:0001ab32       ??HDName@@QBE?AV0@D@Z      1001bb32 f   libvcruntime:undname.obj
 0001:0001ab5c       ??HDName@@QBE?AV0@PAV0@@Z  1001bb5c f   libvcruntime:undname.obj
 0001:0001ab86       ??HDName@@QBE?AV0@PBD@Z    1001bb86 f   libvcruntime:undname.obj
 0001:0001abb0       ??HDName@@QBE?AV0@W4DNameStatus@@@Z 1001bbb0 f   libvcruntime:undname.obj
 0001:0001abda       ??YDName@@QAEAAV0@ABV0@@Z  1001bbda f   libvcruntime:undname.obj
 0001:0001ac2b       ??YDName@@QAEAAV0@D@Z      1001bc2b f   libvcruntime:undname.obj
 0001:0001ac8f       ??YDName@@QAEAAV0@PAV0@@Z  1001bc8f f   libvcruntime:undname.obj
 0001:0001ad0d       ??YDName@@QAEAAV0@PBD@Z    1001bd0d f   libvcruntime:undname.obj
 0001:0001ad86       ??YDName@@QAEAAV0@W4DNameStatus@@@Z 1001bd86 f   libvcruntime:undname.obj
 0001:0001add6       ??YReplicator@@QAEAAV0@ABVDName@@@Z 1001bdd6 f   libvcruntime:undname.obj
 0001:0001ae32       ??_5DName@@QAEAAV0@ABV0@@Z 1001be32 f   libvcruntime:undname.obj
 0001:0001ae55       ?Constructor@_HeapManager@@QAEXP6APAXI@ZP6AXPAX@Z@Z 1001be55 f i libvcruntime:undname.obj
 0001:0001ae79       ?Destructor@_HeapManager@@QAEXXZ 1001be79 f i libvcruntime:undname.obj
 0001:0001aebf       ?UScore@UnDecorator@@SAPBDW4Tokens@@@Z 1001bebf f   libvcruntime:undname.obj
 0001:0001aee5       ?append@DName@@AAEXPBVDNameNode@@@Z 1001bee5 f   libvcruntime:undname.obj
 0001:0001af3c       ?composeDeclaration@UnDecorator@@CA?AVDName@@ABV2@@Z 1001bf3c f i libvcruntime:undname.obj
 0001:0001bf50       ?doAccessSpecifiers@UnDecorator@@SAHXZ 1001cf50 f i libvcruntime:undname.obj
 0001:0001bf61       ?doAllocationLanguage@UnDecorator@@SAHXZ 1001cf61 f i libvcruntime:undname.obj
 0001:0001bf72       ?doAllocationModel@UnDecorator@@SAHXZ 1001cf72 f i libvcruntime:undname.obj
 0001:0001bf83       ?doEcsu@UnDecorator@@SAHXZ 1001cf83 f i libvcruntime:undname.obj
 0001:0001bf94       ?doEllipsis@UnDecorator@@SAHXZ 1001cf94 f i libvcruntime:undname.obj
 0001:0001bfa5       ?doFunctionReturns@UnDecorator@@SAHXZ 1001cfa5 f i libvcruntime:undname.obj
 0001:0001bfb6       ?doMSKeywords@UnDecorator@@SAHXZ 1001cfb6 f i libvcruntime:undname.obj
 0001:0001bfc6       ?doMemberTypes@UnDecorator@@SAHXZ 1001cfc6 f i libvcruntime:undname.obj
 0001:0001bfd7       ?doNameOnly@UnDecorator@@SAHXZ 1001cfd7 f i libvcruntime:undname.obj
 0001:0001bfe4       ?doNoIdentCharCheck@UnDecorator@@SAHXZ 1001cfe4 f i libvcruntime:undname.obj
 0001:0001bff1       ?doPchar@DName@@AAEXPBDH@Z 1001cff1 f   libvcruntime:undname.obj
 0001:0001c098       ?doPtr64@UnDecorator@@SAHXZ 1001d098 f i libvcruntime:undname.obj
 0001:0001c0a9       ?doRestrictionSpec@UnDecorator@@SAHXZ 1001d0a9 f i libvcruntime:undname.obj
 0001:0001c0ba       ?doThisTypes@UnDecorator@@SAHXZ 1001d0ba f i libvcruntime:undname.obj
 0001:0001c0d0       ?doThrowTypes@UnDecorator@@SAHXZ 1001d0d0 f i libvcruntime:undname.obj
 0001:0001c0e1       ?doTypeOnly@UnDecorator@@SAHXZ 1001d0e1 f i libvcruntime:undname.obj
 0001:0001c0ee       ?doUnderScore@UnDecorator@@SAHXZ 1001d0ee f i libvcruntime:undname.obj
 0001:0001c0fb       ?getArgumentList@UnDecorator@@CA?AVDName@@XZ 1001d0fb f   libvcruntime:undname.obj
 0001:0001c22e       ?getArgumentTypes@UnDecorator@@CA?AVDName@@XZ 1001d22e f   libvcruntime:undname.obj
 0001:0001c32a       ?getArrayType@UnDecorator@@CA?AVDName@@ABV2@@Z 1001d32a f i libvcruntime:undname.obj
 0001:0001c547       ?getBasedType@UnDecorator@@CA?AVDName@@XZ 1001d547 f   libvcruntime:undname.obj
 0001:0001c605       ?getBasicDataType@UnDecorator@@CA?AVDName@@ABV2@@Z 1001d605 f   libvcruntime:undname.obj
 0001:0001cadb       ?getCHPEName@UnDecorator@@QAEPADPADH@Z 1001dadb f i libvcruntime:undname.obj
 0001:0001cbf1       ?getCallIndex@UnDecorator@@CA?AVDName@@XZ 1001dbf1 f i libvcruntime:undname.obj
 0001:0001cc0a       ?getCallingConvention@UnDecorator@@CA?AVDName@@XZ 1001dc0a f   libvcruntime:undname.obj
 0001:0001cd11       ?getDataIndirectType@UnDecorator@@CA?AVDName@@ABV2@PBD0H@Z 1001dd11 f   libvcruntime:undname.obj
 0001:0001d475       ?getDataIndirectType@UnDecorator@@CA?AVDName@@XZ 1001e475 f i libvcruntime:undname.obj
 0001:0001d4b3       ?getDataType@UnDecorator@@CA?AVDName@@PAV2@@Z 1001e4b3 f   libvcruntime:undname.obj
 0001:0001d5a9       ?getDecoratedName@UnDecorator@@CA?AVDName@@XZ 1001e5a9 f   libvcruntime:undname.obj
 0001:0001d87b       ?getDimension@UnDecorator@@CA?AVDName@@_N@Z 1001e87b f   libvcruntime:undname.obj
 0001:0001d9e1       ?getDispatchTarget@UnDecorator@@CA?AVDName@@XZ 1001e9e1 f   libvcruntime:undname.obj
 0001:0001da4a       ?getDisplacement@UnDecorator@@CA?AVDName@@XZ 1001ea4a f i libvcruntime:undname.obj
 0001:0001da63       ?getECSUDataType@UnDecorator@@CA?AVDName@@XZ 1001ea63 f   libvcruntime:undname.obj
 0001:0001dbc1       ?getECSUName@UnDecorator@@CA?AVDName@@XZ 1001ebc1 f i libvcruntime:undname.obj
 0001:0001dbd6       ?getEnumType@UnDecorator@@CA?AVDName@@XZ 1001ebd6 f i libvcruntime:undname.obj
 0001:0001dd02       ?getExtendedDataIndirectType@UnDecorator@@CA?AVDName@@AAPBDAA_NH@Z 1001ed02 f   libvcruntime:undname.obj
 0001:0001df26       ?getExternalDataType@UnDecorator@@CA?AVDName@@ABV2@@Z 1001ef26 f i libvcruntime:undname.obj
 0001:0001dfa6       ?getFunctionIndirectType@UnDecorator@@CA?AVDName@@ABV2@@Z 1001efa6 f   libvcruntime:undname.obj
 0001:0001e474       ?getGuardNumber@UnDecorator@@CA?AVDName@@XZ 1001f474 f i libvcruntime:undname.obj
 0001:0001e48d       ?getLastChar@DName@@QBEDXZ 1001f48d f i libvcruntime:undname.obj
 0001:0001e4b5       ?getLastChar@DNameStatusNode@@UBEDXZ 1001f4b5 f i libvcruntime:undname.obj
 0001:0001e4c4       ?getLastChar@charNode@@UBEDXZ 1001f4c4 f i libvcruntime:undname.obj
 0001:0001e4c8       ?getLastChar@pDNameNode@@UBEDXZ 1001f4c8 f i libvcruntime:undname.obj
 0001:0001e4d9       ?getLastChar@pairNode@@UBEDXZ 1001f4d9 f i libvcruntime:undname.obj
 0001:0001e51b       ?getLastChar@pcharNode@@UBEDXZ 1001f51b f i libvcruntime:undname.obj
 0001:0001e531       ?getLexicalFrame@UnDecorator@@CA?AVDName@@XZ 1001f531 f i libvcruntime:undname.obj
 0001:0001e57f       ?getMemory@_HeapManager@@QAEPAXIH@Z 1001f57f f   libvcruntime:undname.obj
 0001:0001e627       ?getNoexcept@UnDecorator@@CA?AVDName@@XZ 1001f627 f   libvcruntime:undname.obj
 0001:0001e67d       ?getNumberOfDimensions@UnDecorator@@CAHXZ 1001f67d f   libvcruntime:undname.obj
 0001:0001e6f6       ?getOperatorName@UnDecorator@@CA?AVDName@@_NPA_N@Z 1001f6f6 f i libvcruntime:undname.obj
 0001:0001eee4       ?getPointerType@UnDecorator@@CA?AVDName@@ABV2@0@Z 1001fee4 f i libvcruntime:undname.obj
 0001:0001ef09       ?getPointerTypeArray@UnDecorator@@CA?AVDName@@ABV2@0@Z 1001ff09 f i libvcruntime:undname.obj
 0001:0001ef2e       ?getPrimaryDataType@UnDecorator@@CA?AVDName@@ABV2@@Z 1001ff2e f   libvcruntime:undname.obj
 0001:0001f18b       ?getPtrRefDataType@UnDecorator@@CA?AVDName@@ABV2@H@Z 1002018b f   libvcruntime:undname.obj
 0001:0001f2fe       ?getPtrRefType@UnDecorator@@CA?AVDName@@ABV2@0PBD@Z 100202fe f   libvcruntime:undname.obj
 0001:0001f436       ?getReferenceType@UnDecorator@@CA?AVDName@@ABV2@0PBD@Z 10020436 f i libvcruntime:undname.obj
 0001:0001f459       ?getRestrictionSpec@UnDecorator@@CA?AVDName@@XZ 10020459 f   libvcruntime:undname.obj
 0001:0001f590       ?getReturnType@UnDecorator@@CA?AVDName@@PAV2@@Z 10020590 f   libvcruntime:undname.obj
 0001:0001f5ca       ?getScope@UnDecorator@@CA?AVDName@@XZ 100205ca f   libvcruntime:undname.obj
 0001:0001fa43       ?getScopedName@UnDecorator@@CA?AVDName@@XZ 10020a43 f   libvcruntime:undname.obj
 0001:0001fb4c       ?getSignedDimension@UnDecorator@@CA?AVDName@@XZ 10020b4c f   libvcruntime:undname.obj
 0001:0001fbb1       ?getStorageConvention@UnDecorator@@CA?AVDName@@XZ 10020bb1 f i libvcruntime:undname.obj
 0001:0001fbc6       ?getString@DName@@QBEPADPAD0@Z 10020bc6 f i libvcruntime:undname.obj
 0001:0001fbfe       ?getString@DName@@QBEPADPADH@Z 10020bfe f i libvcruntime:undname.obj
 0001:0001fc69       ?getString@DNameStatusNode@@UBEPADPAD0@Z 10020c69 f i libvcruntime:undname.obj
 0001:0001fc99       ?getString@charNode@@UBEPADPAD0@Z 10020c99 f i libvcruntime:undname.obj
 0001:0001fcb3       ?getString@pDNameNode@@UBEPADPAD0@Z 10020cb3 f i libvcruntime:undname.obj
 0001:0001fccf       ?getString@pairNode@@UBEPADPAD0@Z 10020ccf f i libvcruntime:undname.obj
 0001:0001fd26       ?getString@pcharNode@@UBEPADPAD0@Z 10020d26 f i libvcruntime:undname.obj
 0001:0001fd47       ?getStringEncoding@UnDecorator@@CA?AVDName@@PBDH@Z 10020d47 f   libvcruntime:undname.obj
 0001:0001fe23       ?getStringHelper@@YAPADPADPBD1H@Z 10020e23 f i libvcruntime:undname.obj
 0001:0001fe67       ?getSymbolName@UnDecorator@@CA?AVDName@@XZ 10020e67 f i libvcruntime:undname.obj
 0001:0001fec1       ?getTemplateArgumentList@UnDecorator@@CA?AVDName@@XZ 10020ec1 f   libvcruntime:undname.obj
 0001:00020205       ?getTemplateConstant@UnDecorator@@CA?AVDName@@XZ 10021205 f   libvcruntime:undname.obj
 0001:00020603       ?getTemplateName@UnDecorator@@CA?AVDName@@_N@Z 10021603 f   libvcruntime:undname.obj
 0001:000207bd       ?getThisType@UnDecorator@@CA?AVDName@@XZ 100217bd f i libvcruntime:undname.obj
 0001:000207fc       ?getThrowTypes@UnDecorator@@CA?AVDName@@XZ 100217fc f   libvcruntime:undname.obj
 0001:00020827       ?getTypeEncoding@UnDecorator@@CAHXZ 10021827 f i libvcruntime:undname.obj
 0001:00020c19       ?getUndecoratedName@UnDecorator@@QAEPADPADH@Z 10021c19 f i libvcruntime:undname.obj
 0001:00020d0e       ?getVCallThunkType@UnDecorator@@CA?AVDName@@XZ 10021d0e f i libvcruntime:undname.obj
 0001:00020d66       ?getVbTableType@UnDecorator@@CA?AVDName@@ABV2@@Z 10021d66 f i libvcruntime:undname.obj
 0001:00020d80       ?getVdispMapType@UnDecorator@@CA?AVDName@@ABV2@@Z 10021d80 f i libvcruntime:undname.obj
 0001:00020de9       ?getVfTableType@UnDecorator@@CA?AVDName@@ABV2@@Z 10021de9 f i libvcruntime:undname.obj
 0001:00020fa4       ?getZName@UnDecorator@@CA?AVDName@@_N0@Z 10021fa4 f   libvcruntime:undname.obj
 0001:00021222       ?haveTemplateParameters@UnDecorator@@SAHXZ 10022222 f i libvcruntime:undname.obj
 0001:0002122f       ?isArray@DName@@QBEHXZ     1002222f f i libvcruntime:undname.obj
 0001:0002123b       ?isComArray@DName@@QBEHXZ  1002223b f i libvcruntime:undname.obj
 0001:00021247       ?isEmpty@DName@@QBEHXZ     10022247 f i libvcruntime:undname.obj
 0001:00021251       ?isFull@Replicator@@QBEHXZ 10022251 f i libvcruntime:undname.obj
 0001:0002125c       ?isNoTE@DName@@QBEHXZ      1002225c f i libvcruntime:undname.obj
 0001:00021268       ?isPinPtr@DName@@QBEHXZ    10022268 f i libvcruntime:undname.obj
 0001:00021274       ?isPtrRef@DName@@QBEHXZ    10022274 f i libvcruntime:undname.obj
 0001:00021280       ?isUDC@DName@@QBEHXZ       10022280 f i libvcruntime:undname.obj
 0001:00021295       ?isUDTThunk@DName@@QBEHXZ  10022295 f i libvcruntime:undname.obj
 0001:000212aa       ?isVCallThunk@DName@@QBEHXZ 100222aa f i libvcruntime:undname.obj
 0001:000212b6       ?isValid@DName@@QBEHXZ     100222b6 f i libvcruntime:undname.obj
 0001:000212c2       ?length@DName@@QBEHXZ      100222c2 f i libvcruntime:undname.obj
 0001:000212e8       ?length@DNameStatusNode@@UBEHXZ 100222e8 f i libvcruntime:undname.obj
 0001:000212ec       ?length@charNode@@UBEHXZ   100222ec f i libvcruntime:undname.obj
 0001:000212f0       ?length@pDNameNode@@UBEHXZ 100222f0 f i libvcruntime:undname.obj
 0001:00021301       ?length@pairNode@@UBEHXZ   10022301 f i libvcruntime:undname.obj
 0001:00021358       ?length@pcharNode@@UBEHXZ  10022358 f i libvcruntime:undname.obj
 0001:0002135c       ?make@DNameStatusNode@@SAPBV1@W4DNameStatus@@@Z 1002235c f i libvcruntime:undname.obj
 0001:0002137f       ?parseDecoratedName@UnDecorator@@CA?AVDName@@XZ 1002237f f   libvcruntime:undname.obj
 0001:000214a8       ?setIsArray@DName@@QAEXXZ  100224a8 f i libvcruntime:undname.obj
 0001:000214b2       ?setIsComArray@DName@@QAEXXZ 100224b2 f i libvcruntime:undname.obj
 0001:000214bc       ?setIsNoTE@DName@@QAEXXZ   100224bc f i libvcruntime:undname.obj
 0001:000214c6       ?setIsPinPtr@DName@@QAEXXZ 100224c6 f i libvcruntime:undname.obj
 0001:000214d0       ?setIsUDC@DName@@QAEXXZ    100224d0 f i libvcruntime:undname.obj
 0001:000214e0       ?setIsVCallThunk@DName@@QAEXXZ 100224e0 f i libvcruntime:undname.obj
 0001:000214ea       ?setPtrRef@DName@@QAEAAV1@XZ 100224ea f i libvcruntime:undname.obj
 0001:000214f6       ?status@DName@@QBE?AW4DNameStatus@@XZ 100224f6 f i libvcruntime:undname.obj
 0001:0002157b       ___unDName                 1002257b f   libvcruntime:undname.obj
 0001:000215a6       ___unDNameEx               100225a6 f   libvcruntime:undname.obj
 0001:0002166c       __vsprintf_s_l             1002266c f i libvcruntime:undname.obj
 0001:000216a4       _sprintf_s                 100226a4 f i libvcruntime:undname.obj
 0001:000216c7       _unDNameGenerateCHPE       100226c7 f   libvcruntime:undname.obj
 0001:0002173a       ??$?RU__vcrt_ptd@@@__crt_internal_free_policy@@QBEXQBU__vcrt_ptd@@@Z 1002273a f i libvcruntime:per_thread_data.obj
 0001:0002174e       ??0?$__crt_unique_heap_ptr@U__vcrt_ptd@@U__crt_internal_free_policy@@@@QAE@QAU__vcrt_ptd@@@Z 1002274e f i libvcruntime:per_thread_data.obj
 0001:00021771       ??1?$__crt_unique_heap_ptr@U__vcrt_ptd@@U__crt_internal_free_policy@@@@QAE@XZ 10022771 f i libvcruntime:per_thread_data.obj
 0001:00021790       ??B?$__crt_unique_heap_ptr@U__vcrt_ptd@@U__crt_internal_free_policy@@@@QBE_NXZ 10022790 f i libvcruntime:per_thread_data.obj
 0001:00021797       ?detach@?$__crt_unique_heap_ptr@U__vcrt_ptd@@U__crt_internal_free_policy@@@@QAEPAU__vcrt_ptd@@XZ 10022797 f i libvcruntime:per_thread_data.obj
 0001:0002179d       ?get@?$__crt_unique_heap_ptr@U__vcrt_ptd@@U__crt_internal_free_policy@@@@QBEPAU__vcrt_ptd@@XZ 1002279d f i libvcruntime:per_thread_data.obj
 0001:000217a0       ?is_valid@?$__crt_unique_heap_ptr@U__vcrt_ptd@@U__crt_internal_free_policy@@@@QBE_NXZ 100227a0 f i libvcruntime:per_thread_data.obj
 0001:000217a7       ?release@?$__crt_unique_heap_ptr@U__vcrt_ptd@@U__crt_internal_free_policy@@@@QAEXXZ 100227a7 f i libvcruntime:per_thread_data.obj
 0001:000217db       ___vcrt_freefls@4          100227db f   libvcruntime:per_thread_data.obj
 0001:000217fe       ___vcrt_freeptd            100227fe f   libvcruntime:per_thread_data.obj
 0001:00021841       ___vcrt_getptd             10022841 f   libvcruntime:per_thread_data.obj
 0001:00021852       ___vcrt_getptd_noexit      10022852 f   libvcruntime:per_thread_data.obj
 0001:00021908       ___vcrt_getptd_noinit      10022908 f   libvcruntime:per_thread_data.obj
 0001:0002194c       ___vcrt_initialize_ptd     1002294c f   libvcruntime:per_thread_data.obj
 0001:0002198b       ___vcrt_uninitialize_ptd   1002298b f   libvcruntime:per_thread_data.obj
 0001:000219ac       ___vcrt_initialize_locks   100229ac f   libvcruntime:locks.obj
 0001:000219f7       ___vcrt_lock               100229f7 f   libvcruntime:locks.obj
 0001:00021a11       ___vcrt_uninitialize_locks 10022a11 f   libvcruntime:locks.obj
 0001:00021a4b       ___vcrt_unlock             10022a4b f   libvcruntime:locks.obj
 0001:00021a65       ??$?BX@__crt_fast_encoded_nullptr_t@@QBEPAXXZ 10022a65 f i libvcruntime:winapi_downlevel.obj
 0001:00021a6b       ??$__crt_fast_decode_pointer@PAX@@YAPAXQAX@Z 10022a6b f i libvcruntime:winapi_downlevel.obj
 0001:00021a84       ??$__crt_fast_encode_pointer@PAX@@YAPAXQAX@Z 10022a84 f i libvcruntime:winapi_downlevel.obj
 0001:00021aa8       ??$__crt_interlocked_exchange_pointer@UHINSTANCE__@@PAU1@@@YAPAUHINSTANCE__@@PDSAU0@QAU0@@Z 10022aa8 f i libvcruntime:winapi_downlevel.obj
 0001:00021ab8       ??$__crt_interlocked_exchange_pointer@UHINSTANCE__@@PAX@@YAPAUHINSTANCE__@@PDSAU0@QAX@Z 10022ab8 f i libvcruntime:winapi_downlevel.obj
 0001:00021ac8       ??$__crt_interlocked_exchange_pointer@XPAX@@YAPAXPDSAXQAX@Z 10022ac8 f i libvcruntime:winapi_downlevel.obj
 0001:00021ad8       ??$__crt_interlocked_read_pointer@UHINSTANCE__@@@@YAPAUHINSTANCE__@@PDSAU0@@Z 10022ad8 f i libvcruntime:winapi_downlevel.obj
 0001:00021ae4       ??$__crt_interlocked_read_pointer@X@@YAPAXPDSAX@Z 10022ae4 f i libvcruntime:winapi_downlevel.obj
 0001:00021af0       ?__crt_fast_encode_pointer@@YA?AU__crt_fast_encoded_nullptr_t@@$$T@Z 10022af0 f i libvcruntime:winapi_downlevel.obj
 0001:00021e23       ___vcrt_FlsAlloc           10022e23 f   libvcruntime:winapi_downlevel.obj
 0001:00021e6c       ___vcrt_FlsFree            10022e6c f   libvcruntime:winapi_downlevel.obj
 0001:00021eb5       ___vcrt_FlsGetValue        10022eb5 f   libvcruntime:winapi_downlevel.obj
 0001:00021efe       ___vcrt_FlsSetValue        10022efe f   libvcruntime:winapi_downlevel.obj
 0001:00021f4b       ___vcrt_InitializeCriticalSectionEx 10022f4b f   libvcruntime:winapi_downlevel.obj
 0001:00021fa3       ___vcrt_initialize_winapi_thunks 10022fa3 f   libvcruntime:winapi_downlevel.obj
 0001:00021fd6       ___vcrt_uninitialize_winapi_thunks 10022fd6 f   libvcruntime:winapi_downlevel.obj
 0001:00022014       ??$?B$$A6AXXZ@__crt_fast_encoded_nullptr_t@@QBEP6AXXZXZ 10023014 f i libvcruntime:purevirt_data.obj
 0001:0002201a       ??$__crt_fast_encode_pointer@P6AXXZ@@YAP6AXXZQ6AXXZ@Z 1002301a f i libvcruntime:purevirt_data.obj
 0001:0002203e       ___vcrt_initialize_pure_virtual_call_handler 1002303e f   libvcruntime:purevirt_data.obj
 0001:00022050       __global_unwind2           10023050 f   libvcruntime:exsup.obj
 0001:000220b6       __local_unwind2            100230b6 f   libvcruntime:exsup.obj
 0001:0002213a       __abnormal_termination     1002313a f   libvcruntime:exsup.obj
 0001:00022160       __NLG_Notify1              10023160 f   libvcruntime:exsup.obj
 0001:0002216c       __NLG_Notify               1002316c f   libvcruntime:exsup.obj
 0001:00022183       __NLG_Dispatch2            10023183     libvcruntime:exsup.obj
 0001:00022183       __NLG_Dispatch             10023183     libvcruntime:exsup.obj
 0001:0002218b       __NLG_Call                 1002318b f   libvcruntime:exsup.obj
 0001:0002218d       __NLG_Return2              1002318d     libvcruntime:exsup.obj
 0001:000221dd       ??$__crt_fast_decode_pointer@P6AXXZ@@YAP6AXXZQ6AXXZ@Z 100231dd f i libvcruntime:purevirt.obj
 0001:000221f6       ??$__crt_interlocked_exchange_pointer@$$A6AXXZP6AXXZ@@YAP6AXXZPDS6AXXZQ6AXXZ@Z 100231f6 f i libvcruntime:purevirt.obj
 0001:00022206       ??$__crt_interlocked_read_pointer@$$A6AXXZ@@YAP6AXXZPDS6AXXZ@Z 10023206 f i libvcruntime:purevirt.obj
 0001:00022212       __get_purecall_handler     10023212 f   libvcruntime:purevirt.obj
 0001:0002222c       __purecall                 1002322c f   libvcruntime:purevirt.obj
 0001:0002224f       __set_purecall_handler     1002324f f   libvcruntime:purevirt.obj
 0001:0002227d       ??$?0AAViterator@TryBlockMap@__FrameHandler3@@AAV012@$0A@@?$pair@Viterator@TryBlockMap@__FrameHandler3@@V123@@std@@QAE@AAViterator@TryBlockMap@__FrameHandler3@@0@Z 1002327d f i libvcruntime:trnsctrl.obj
 0001:000222aa       ??$forward@AAViterator@TryBlockMap@__FrameHandler3@@@std@@YAAAViterator@TryBlockMap@__FrameHandler3@@AAV123@@Z 100232aa f i libvcruntime:trnsctrl.obj
 0001:000222b4       ??0iterator@TryBlockMap@__FrameHandler3@@QAE@AAV12@I@Z 100232b4 f i libvcruntime:trnsctrl.obj
 0001:000222cd       ?GetRangeOfTrysToCheck@__FrameHandler3@@SA?AU?$pair@Viterator@TryBlockMap@__FrameHandler3@@V123@@std@@AAVTryBlockMap@1@HH@Z 100232cd f   libvcruntime:trnsctrl.obj
 0001:0002236f       ?_CallCatchBlock2@@YAPAXPAUEHRegistrationNode@@PBU_s_FuncInfo@@PAXHK@Z 1002336f f   libvcruntime:trnsctrl.obj
 0001:000223e4       ?_CallSETranslator@@YAHPAUEHExceptionRecord@@PAUEHRegistrationNode@@PAX2PBU_s_FuncInfo@@H1@Z 100233e4 f   libvcruntime:trnsctrl.obj
 0001:000224f5       ?_JumpToContinuation@@YGXPAXPAUEHRegistrationNode@@@Z 100234f5 f   libvcruntime:trnsctrl.obj
 0001:00022531       ?_UnwindNestedFrames@@YGXPAUEHRegistrationNode@@PAUEHExceptionRecord@@@Z 10023531 f   libvcruntime:trnsctrl.obj
 0001:00022598       ?getFuncInfo@TryBlockMap@__FrameHandler3@@QAEPBU_s_FuncInfo@@XZ 10023598 f i libvcruntime:trnsctrl.obj
 0001:0002259b       __CatchGuardHandler        1002359b f   libvcruntime:trnsctrl.obj
 0001:000225d8       __CreateFrameInfo          100235d8 f   libvcruntime:trnsctrl.obj
 0001:00022605       __FindAndUnlinkFrame       10023605 f   libvcruntime:trnsctrl.obj
 0001:0002265b       __TranslatorGuardHandler   1002365b f   libvcruntime:trnsctrl.obj
 0001:0002271f       ___CxxFrameHandler         1002371f f   libvcruntime:trnsctrl.obj
 0001:00022762       ___CxxFrameHandler2        10023762 f   libvcruntime:trnsctrl.obj
 0001:000227a5       ___CxxFrameHandler3        100237a5 f   libvcruntime:trnsctrl.obj
 0001:000227e8       ___CxxLongjmpUnwind@4      100237e8 f   libvcruntime:trnsctrl.obj
 0001:000230c9       ??$TypeMatchHelper@V__FrameHandler3@@@@YAHPBU_s_HandlerType@@PBU_s_CatchableType@@PBU_s_ThrowInfo@@@Z 100240c9 f i libvcruntime:frame.obj
 0001:0002317a       ??$__InternalCxxFrameHandler@V__FrameHandler3@@@@YA?AW4_EXCEPTION_DISPOSITION@@PAUEHExceptionRecord@@PAUEHRegistrationNode@@PAU_CONTEXT@@PAXPBU_s_FuncInfo@@H1E@Z 1002417a f i libvcruntime:frame.obj
 0001:000232bc       ??0HandlerMap@__FrameHandler3@@QAE@PBU_s_TryBlockMapEntry@@PAX@Z 100242bc f i libvcruntime:frame.obj
 0001:000232d8       ??0TryBlockMap@__FrameHandler3@@QAE@PBU_s_FuncInfo@@PAX@Z 100242d8 f i libvcruntime:frame.obj
 0001:000232f1       ??0bad_exception@std@@QAE@ABV01@@Z 100242f1 f i libvcruntime:frame.obj
 0001:00023312       ??0bad_exception@std@@QAE@XZ 10024312 f i libvcruntime:frame.obj
 0001:00023330       ??0exception@std@@QAE@ABV01@@Z 10024330 f i libvcruntime:frame.obj
 0001:00023367       ??0exception@std@@QAE@QBDH@Z 10024367 f i libvcruntime:frame.obj
 0001:0002338b       ??0iterator@HandlerMap@__FrameHandler3@@QAE@AAV12@I@Z 1002438b f i libvcruntime:frame.obj
 0001:000233a4       ??1bad_exception@std@@UAE@XZ 100243a4 f i libvcruntime:frame.obj
 0001:000233b9       ??1exception@std@@UAE@XZ   100243b9 f i libvcruntime:frame.obj
 0001:000233ce       ??8iterator@HandlerMap@__FrameHandler3@@QBE_NABV012@@Z 100243ce f i libvcruntime:frame.obj
 0001:000233e5       ??8type_info@@QBE_NABV0@@Z 100243e5 f i libvcruntime:frame.obj
 0001:0002340b       ??9iterator@HandlerMap@__FrameHandler3@@QBE_NABV012@@Z 1002440b f i libvcruntime:frame.obj
 0001:00023422       ??Diterator@HandlerMap@__FrameHandler3@@QAEPBU_s_HandlerType@@XZ 10024422 f i libvcruntime:frame.obj
 0001:00023431       ??Diterator@TryBlockMap@__FrameHandler3@@QAEPBU_s_TryBlockMapEntry@@XZ 10024431 f i libvcruntime:frame.obj
 0001:00023440       ??Eiterator@HandlerMap@__FrameHandler3@@QAEAAV012@XZ 10024440 f i libvcruntime:frame.obj
 0001:00023446       ??Eiterator@TryBlockMap@__FrameHandler3@@QAEAAV012@XZ 10024446 f i libvcruntime:frame.obj
 0001:0002344c       ??Miterator@TryBlockMap@__FrameHandler3@@QBE_NABV012@@Z 1002444c f i libvcruntime:frame.obj
 0001:00023463       ??_Ebad_exception@std@@UAEPAXI@Z 10024463 f i libvcruntime:frame.obj
 0001:00023463       ??_Gbad_exception@std@@UAEPAXI@Z 10024463 f i libvcruntime:frame.obj
 0001:0002349b       ??_Eexception@std@@UAEPAXI@Z 1002449b f i libvcruntime:frame.obj
 0001:0002349b       ??_Gexception@std@@UAEPAXI@Z 1002449b f i libvcruntime:frame.obj
 0001:000234d3       ?BuildCatchObject@__FrameHandler3@@SAXPAUEHExceptionRecord@@PAXPBU_s_HandlerType@@PBU_s_CatchableType@@@Z 100244d3 f   libvcruntime:frame.obj
 0001:000234d8       ?BuildCatchObjectHelper@__FrameHandler3@@SAHPAUEHExceptionRecord@@PAXPBU_s_HandlerType@@PBU_s_CatchableType@@@Z 100244d8 f   libvcruntime:frame.obj
 0001:000237bc       ?FrameUnwindToEmptyState@__FrameHandler3@@SAXPAUEHRegistrationNode@@PAXPBU_s_FuncInfo@@@Z 100247bc f   libvcruntime:frame.obj
 0001:000237da       ?FrameUnwindToState@__FrameHandler3@@SAXPAUEHRegistrationNode@@PAXPBU_s_FuncInfo@@H@Z 100247da f   libvcruntime:frame.obj
 0001:000238fc       ?GetMaxState@__FrameHandler3@@SAHPAXPBU_s_FuncInfo@@@Z 100248fc f i libvcruntime:frame.obj
 0001:00023a10       ?TypeMatch@__FrameHandler3@@SAHPBU_s_HandlerType@@PBU_s_CatchableType@@PBU_s_ThrowInfo@@@Z 10024a10 f   libvcruntime:frame.obj
 0001:00023a1b       ?_CallMemberFunction1@@YGXQAX00@Z 10024a1b f i libvcruntime:frame.obj
 0001:00023a2f       ?_CallMemberFunction2@@YGXQAX00H@Z 10024a2f f i libvcruntime:frame.obj
 0001:00023a46       ?_ValidateExecute@@YA_NP6GHXZ@Z 10024a46 f i libvcruntime:frame.obj
 0001:00023a55       ?_ValidateRead@@YA_NPBXI@Z 10024a55 f i libvcruntime:frame.obj
 0001:00023a64       ?_ValidateWrite@@YA_NPAXI@Z 10024a64 f i libvcruntime:frame.obj
 0001:00023a73       ?begin@HandlerMap@__FrameHandler3@@QAE?AViterator@12@XZ 10024a73 f i libvcruntime:frame.obj
 0001:00023a87       ?end@HandlerMap@__FrameHandler3@@QAE?AViterator@12@XZ 10024a87 f i libvcruntime:frame.obj
 0001:00023a9c       ?getESTypes@__FrameHandler3@@SAPBU_s_ESTypeList@@PBU_s_FuncInfo@@@Z 10024a9c f i libvcruntime:frame.obj
 0001:00023aa9       ?getLastEntry@HandlerMap@__FrameHandler3@@QAEPBU_s_HandlerType@@XZ 10024aa9 f i libvcruntime:frame.obj
 0001:00023aba       ?getMagicNum@__FrameHandler3@@SAIPBU_s_FuncInfo@@@Z 10024aba f i libvcruntime:frame.obj
 0001:00023acc       ?getNumTryBlocks@TryBlockMap@__FrameHandler3@@QAEIXZ 10024acc f i libvcruntime:frame.obj
 0001:00023ad2       ?isEHs@__FrameHandler3@@SA_NPBU_s_FuncInfo@@@Z 10024ad2 f i libvcruntime:frame.obj
 0001:00023ae2       ?isNoExcept@__FrameHandler3@@SA_NPBU_s_FuncInfo@@@Z 10024ae2 f i libvcruntime:frame.obj
 0001:00023af6       ?what@exception@std@@UBEPBDXZ 10024af6 f i libvcruntime:frame.obj
 0001:00023b06       ___BuildCatchObject        10024b06 f   libvcruntime:frame.obj
 0001:00023b0b       ___BuildCatchObjectHelper  10024b0b f   libvcruntime:frame.obj
 0001:00023b16       ___TypeMatch               10024b16 f   libvcruntime:frame.obj
 0001:00023b21       ___vcrt_EncodePointer      10024b21 f i libvcruntime:frame.obj
 0001:00023b40       __CallSettingFrame@12      10024b40 f   libvcruntime:lowhelpr.obj
 0001:00023b67       __NLG_Return               10024b67     libvcruntime:lowhelpr.obj
 0001:00023bb8       __get_unexpected           10024bb8 f   libvcruntime:unexpected.obj
 0001:00023bce       _set_unexpected            10024bce f   libvcruntime:unexpected.obj
 0001:00023bf3       _unexpected                10024bf3 f   libvcruntime:unexpected.obj
 0001:00023c17       ?GetCurrentState@__FrameHandler3@@SAHPAUEHRegistrationNode@@PAXPBU_s_FuncInfo@@@Z 10024c17 f   libvcruntime:ehstate.obj
 0001:00023c3b       ?SetState@__FrameHandler3@@SAXPAUEHRegistrationNode@@PBU_s_FuncInfo@@H@Z 10024c3b f   libvcruntime:ehstate.obj
 0001:00023c4c       ___DestructExceptionObject 10024c4c f   libvcruntime:ehhelpers.obj
 0001:00023d14       ?_CallMemberFunction0@@YGXQAX0@Z 10024d14 f i libvcruntime:ehhelpers.obj
 0001:00023d24       ?raw_name@type_info@@QBEPBDXZ 10024d24 f i libvcruntime:ehhelpers.obj
 0001:00023d28       __IsExceptionObjectToBeDestroyed 10024d28 f   libvcruntime:ehhelpers.obj
 0001:00023d57       __SetWinRTOutOfMemoryExceptionCallback 10024d57 f   libvcruntime:ehhelpers.obj
 0001:00023d67       ___AdjustPointer           10024d67 f   libvcruntime:ehhelpers.obj
 0001:00023d95       ___FrameUnwindFilter       10024d95 f   libvcruntime:ehhelpers.obj
 0001:00023deb       ___GetPlatformExceptionInfo 10024deb f   libvcruntime:ehhelpers.obj
 0001:00023e4a       ___current_exception       10024e4a f   libvcruntime:ehhelpers.obj
 0001:00023e55       ___current_exception_context 10024e55 f   libvcruntime:ehhelpers.obj
 0001:00023e60       ___processing_throw        10024e60 f   libvcruntime:ehhelpers.obj
 0001:00023e6b       ___std_terminate           10024e6b f   libvcruntime:ehhelpers.obj
 0001:00023e70       __is_exception_typeof      10024e70 f   libvcruntime:ehhelpers.obj
 0001:00023f3d       ??$?RD@__crt_public_free_policy@@QBEXQBD@Z 10024f3d f i libvcruntime:std_exception.obj
 0001:00023f51       ??0?$__crt_unique_heap_ptr@DU__crt_public_free_policy@@@@QAE@QAD@Z 10024f51 f i libvcruntime:std_exception.obj
 0001:00023f62       ??1?$__crt_unique_heap_ptr@DU__crt_public_free_policy@@@@QAE@XZ 10024f62 f i libvcruntime:std_exception.obj
 0001:00023f76       ??B?$__crt_unique_heap_ptr@DU__crt_public_free_policy@@@@QBE_NXZ 10024f76 f i libvcruntime:std_exception.obj
 0001:00023f7d       ?detach@?$__crt_unique_heap_ptr@DU__crt_public_free_policy@@@@QAEPADXZ 10024f7d f i libvcruntime:std_exception.obj
 0001:00023f83       ?get@?$__crt_unique_heap_ptr@DU__crt_public_free_policy@@@@QBEPADXZ 10024f83 f i libvcruntime:std_exception.obj
 0001:00023f86       ?is_valid@?$__crt_unique_heap_ptr@DU__crt_public_free_policy@@@@QBE_NXZ 10024f86 f i libvcruntime:std_exception.obj
 0001:00023f8d       ?release@?$__crt_unique_heap_ptr@DU__crt_public_free_policy@@@@QAEXXZ 10024f8d f i libvcruntime:std_exception.obj
 0001:00023fa1       ___std_exception_copy      10024fa1 f   libvcruntime:std_exception.obj
 0001:0002401c       ___std_exception_destroy   1002501c f   libvcruntime:std_exception.obj
 0001:00024042       __CxxThrowException@8      10025042 f   libvcruntime:throw.obj
 0001:000240ca       _malloc                    100250ca f   libucrt:malloc.obj
 0001:000240d7       _calloc                    100250d7 f   libucrt:calloc.obj
 0001:000240e4       _free                      100250e4 f   libucrt:free.obj
 0001:00024108       ??$__crt_interlocked_read@J@@YAJPDJ@Z 10025108 f i libucrt:assert.obj
 0001:00024117       ??$__vcrt_va_start_verify_argument_type@QBD@@YAXXZ 10025117 f i libucrt:assert.obj
 0001:00024118       ??$__vcrt_va_start_verify_argument_type@QB_W@@YAXXZ 10025118 f i libucrt:assert.obj
 0001:000250ba       ??$ftprintf@PAU_iobuf@@PBDABQBDABQBDABI@?$__crt_char_traits@D@@SAH$$QAPAU_iobuf@@$$QAPBDABQBD2ABI@Z 100260ba f i libucrt:assert.obj
 0001:000250ec       ??$ftprintf@PAU_iobuf@@PB_WABQB_WABQB_WABI@?$__crt_char_traits@_W@@SAH$$QAPAU_iobuf@@$$QAPB_WABQB_W2ABI@Z 100260ec f i libucrt:assert.obj
 0001:0002511e       ??$get_module_file_name@AAPAUHINSTANCE__@@AAY0BAF@DK@?$__crt_char_traits@D@@SAKAAPAUHINSTANCE__@@AAY0BAF@D$$QAK@Z 1002611e f i libucrt:assert.obj
 0001:00025141       ??$get_module_file_name@AAPAUHINSTANCE__@@AAY0BAF@_WK@?$__crt_char_traits@_W@@SAKAAPAUHINSTANCE__@@AAY0BAF@_W$$QAK@Z 10026141 f i libucrt:assert.obj
 0001:00025161       ??$itot_s@ABIPADIH@?$__crt_char_traits@D@@SAHABI$$QAPAD$$QAI$$QAH@Z 10026161 f i libucrt:assert.obj
 0001:0002518c       ??$itot_s@ABIPA_WIH@?$__crt_char_traits@_W@@SAHABI$$QAPA_W$$QAI$$QAH@Z 1002618c f i libucrt:assert.obj
 0001:000251b7       ??$show_message_box@AAY0CEA@DPBDJ@?$__crt_char_traits@D@@SAHAAY0CEA@D$$QAPBD$$QAJ@Z 100261b7 f i libucrt:assert.obj
 0001:000251da       ??$show_message_box@AAY0CEA@_WPB_WJ@?$__crt_char_traits@_W@@SAHAAY0CEA@_W$$QAPB_W$$QAJ@Z 100261da f i libucrt:assert.obj
 0001:000251fd       ??$tcscat_s@ABQADABIAAPAD@?$__crt_char_traits@D@@SAHABQADABIAAPAD@Z 100261fd f i libucrt:assert.obj
 0001:00025222       ??$tcscat_s@ABQADABIABQBD@?$__crt_char_traits@D@@SAHABQADABIABQBD@Z 10026222 f i libucrt:assert.obj
 0001:00025247       ??$tcscat_s@ABQADABIPBD@?$__crt_char_traits@D@@SAHABQADABI$$QAPBD@Z 10026247 f i libucrt:assert.obj
 0001:0002526c       ??$tcscat_s@ABQA_WABIAAPA_W@?$__crt_char_traits@_W@@SAHABQA_WABIAAPA_W@Z 1002626c f i libucrt:assert.obj
 0001:00025291       ??$tcscat_s@ABQA_WABIABQB_W@?$__crt_char_traits@_W@@SAHABQA_WABIABQB_W@Z 10026291 f i libucrt:assert.obj
 0001:000252b6       ??$tcscat_s@ABQA_WABIPB_W@?$__crt_char_traits@_W@@SAHABQA_WABI$$QAPB_W@Z 100262b6 f i libucrt:assert.obj
 0001:000252db       ??$tcscpy_s@AAY0BAF@DIPBD@?$__crt_char_traits@D@@SAHAAY0BAF@D$$QAI$$QAPBD@Z 100262db f i libucrt:assert.obj
 0001:000252fe       ??$tcscpy_s@AAY0BAF@_WIPB_W@?$__crt_char_traits@_W@@SAHAAY0BAF@_W$$QAI$$QAPB_W@Z 100262fe f i libucrt:assert.obj
 0001:00025321       ??$tcscpy_s@ABQADABIPBD@?$__crt_char_traits@D@@SAHABQADABI$$QAPBD@Z 10026321 f i libucrt:assert.obj
 0001:00025346       ??$tcscpy_s@ABQA_WABIPB_W@?$__crt_char_traits@_W@@SAHABQA_WABI$$QAPB_W@Z 10026346 f i libucrt:assert.obj
 0001:0002536b       ??$tcslen@AAY0BAF@D@?$__crt_char_traits@D@@SAIAAY0BAF@D@Z 1002636b f i libucrt:assert.obj
 0001:00025386       ??$tcslen@AAY0BAF@_W@?$__crt_char_traits@_W@@SAIAAY0BAF@_W@Z 10026386 f i libucrt:assert.obj
 0001:000253a9       ??$tcslen@ABQAD@?$__crt_char_traits@D@@SAIABQAD@Z 100263a9 f i libucrt:assert.obj
 0001:000253c7       ??$tcslen@ABQA_W@?$__crt_char_traits@_W@@SAIABQA_W@Z 100263c7 f i libucrt:assert.obj
 0001:000253ec       ??$tcslen@ABQBD@?$__crt_char_traits@D@@SAIABQBD@Z 100263ec f i libucrt:assert.obj
 0001:0002540a       ??$tcslen@ABQB_W@?$__crt_char_traits@_W@@SAIABQB_W@Z 1002640a f i libucrt:assert.obj
 0001:0002542f       ??$tcsncat_s@ABQADABIAAPBDI@?$__crt_char_traits@D@@SAHABQADABIAAPBD$$QAI@Z 1002642f f i libucrt:assert.obj
 0001:0002545a       ??$tcsncat_s@ABQADABIABQBDABI@?$__crt_char_traits@D@@SAHABQADABIABQBD1@Z 1002645a f i libucrt:assert.obj
 0001:00025485       ??$tcsncat_s@ABQADABIPBDI@?$__crt_char_traits@D@@SAHABQADABI$$QAPBD$$QAI@Z 10026485 f i libucrt:assert.obj
 0001:000254b0       ??$tcsncat_s@ABQA_WABIAAPB_WI@?$__crt_char_traits@_W@@SAHABQA_WABIAAPB_W$$QAI@Z 100264b0 f i libucrt:assert.obj
 0001:000254db       ??$tcsncat_s@ABQA_WABIABQB_WABI@?$__crt_char_traits@_W@@SAHABQA_WABIABQB_W1@Z 100264db f i libucrt:assert.obj
 0001:00025506       ??$tcsncat_s@ABQA_WABIPB_WI@?$__crt_char_traits@_W@@SAHABQA_WABI$$QAPB_W$$QAI@Z 10026506 f i libucrt:assert.obj
 0001:00025531       ??0__crt_stdio_stream@@QAE@QAU_iobuf@@@Z 10026531 f i libucrt:assert.obj
 0001:00025677       ?get_flags@__crt_stdio_stream@@QBEJXZ 10026677 f i libucrt:assert.obj
 0001:000256c5       ?has_any_buffer@__crt_stdio_stream@@QBE_NXZ 100266c5 f i libucrt:assert.obj
 0001:000256d6       ?has_any_of@__crt_stdio_stream@@QBE_NJ@Z 100266d6 f i libucrt:assert.obj
 0001:000256ef       __assert                   100266ef f   libucrt:assert.obj
 0001:00025749       __invoke_watson_if_error   10026749 f i libucrt:assert.obj
 0001:00025773       __vfwprintf_l              10026773 f i libucrt:assert.obj
 0001:000257a1       __vswprintf_c_l            100267a1 f i libucrt:assert.obj
 0001:000257db       __wassert                  100267db f   libucrt:assert.obj
 0001:00025835       _fwprintf                  10026835 f i libucrt:assert.obj
 0001:000258f7       _swprintf                  100268f7 f i libucrt:assert.obj
 0001:0002591c       _realloc                   1002691c f   libucrt:realloc.obj
 0001:00025929       ??$?B$$A6GXPAXK0@Z@__crt_fast_encoded_nullptr_t@@QBEP6GXPAXK0@ZXZ 10026929 f i libucrt:exit.obj
 0001:000259cc       ??$__crt_fast_decode_pointer@P6GXPAXK0@Z@@YAP6GXPAXK0@ZQ6GX0K0@Z@Z 100269cc f i libucrt:exit.obj
 0001:000259e7       ??$__crt_fast_encode_pointer@P6GXPAXK0@Z@@YAP6GXPAXK0@ZQ6GX0K0@Z@Z 100269e7 f i libucrt:exit.obj
 0001:00025a0d       ??$__crt_get_proc_address@P6GXI@Z@@YAP6GXI@ZQAUHINSTANCE__@@QBD@Z 10026a0d f i libucrt:exit.obj
 0001:00025a73       ??0?$__crt_unique_handle_t@U__crt_hmodule_traits@@@@QAE@QAUHINSTANCE__@@@Z 10026a73 f i libucrt:exit.obj
 0001:00025a87       ??1?$__crt_unique_handle_t@U__crt_hmodule_traits@@@@QAE@XZ 10026a87 f i libucrt:exit.obj
 0001:00025bcc       ?__acrt_select_exit_lock@@YA?AW4__acrt_lock_id@@XZ 10026bcc f i libucrt:exit.obj
 0001:00025be7       ?close@?$__crt_unique_handle_t@U__crt_hmodule_traits@@@@QAEXXZ 10026be7 f i libucrt:exit.obj
 0001:00025c03       ?close@__crt_hmodule_traits@@SA_NPAUHINSTANCE__@@@Z 10026c03 f i libucrt:exit.obj
 0001:00025cee       ?get@?$__crt_unique_handle_t@U__crt_hmodule_traits@@@@QBEPAUHINSTANCE__@@XZ 10026cee f i libucrt:exit.obj
 0001:00025cf1       ?get_address_of@?$__crt_unique_handle_t@U__crt_hmodule_traits@@@@QAEPAPAUHINSTANCE__@@XZ 10026cf1 f i libucrt:exit.obj
 0001:00025cf4       ?get_invalid_value@__crt_hmodule_traits@@SAPAUHINSTANCE__@@XZ 10026cf4 f i libucrt:exit.obj
 0001:00025df5       __Exit                     10026df5 f   libucrt:exit.obj
 0001:00025e10       ___acrt_initialize_thread_local_exit_callback 10026e10 f   libucrt:exit.obj
 0001:00025e22       __c_exit                   10026e22 f   libucrt:exit.obj
 0001:00025e34       __cexit                    10026e34 f   libucrt:exit.obj
 0001:00025e46       __exit                     10026e46 f   libucrt:exit.obj
 0001:00025e61       __is_c_termination_complete 10026e61 f   libucrt:exit.obj
 0001:00025e67       __register_thread_local_exe_atexit_callback 10026e67 f   libucrt:exit.obj
 0001:00025ead       _exit                      10026ead f   libucrt:exit.obj
 0001:00025ec8       _quick_exit                10026ec8 f   libucrt:exit.obj
 0001:00025ef0       _strncat                   10026ef0 f   libucrt:strncat.obj
 0001:00026080       _strncpy                   10027080 f   libucrt:strncpy.obj
 0001:000261ed       ??$?RPAU__crt_stdio_stream_data@@@__crt_internal_free_policy@@QBEXQBQAU__crt_stdio_stream_data@@@Z 100271ed f i libucrt:_file.obj
 0001:00026203       ??0?$__crt_unique_heap_ptr@PAU__crt_stdio_stream_data@@U__crt_internal_free_policy@@@@QAE@QAPAU__crt_stdio_stream_data@@@Z 10027203 f i libucrt:_file.obj
 0001:00026217       ??1?$__crt_unique_heap_ptr@PAU__crt_stdio_stream_data@@U__crt_internal_free_policy@@@@QAE@XZ 10027217 f i libucrt:_file.obj
 0001:0002622d       ??C__crt_stdio_stream@@QBEPAU__crt_stdio_stream_data@@XZ 1002722d f i libucrt:_file.obj
 0001:00026230       ?detach@?$__crt_unique_heap_ptr@PAU__crt_stdio_stream_data@@U__crt_internal_free_policy@@@@QAEPAPAU__crt_stdio_stream_data@@XZ 10027230 f i libucrt:_file.obj
 0001:00026236       ?release@?$__crt_unique_heap_ptr@PAU__crt_stdio_stream_data@@U__crt_internal_free_policy@@@@QAEXXZ 10027236 f i libucrt:_file.obj
 0001:0002624c       ___acrt_initialize_stdio   1002724c f   libucrt:_file.obj
 0001:00026346       ___acrt_iob_func           10027346 f   libucrt:_file.obj
 0001:0002635a       ___acrt_uninitialize_stdio 1002735a f   libucrt:_file.obj
 0001:000263b9       __get_stream_buffer_pointers 100273b9 f   libucrt:_file.obj
 0001:00026410       __lock_file                10027410 f   libucrt:_file.obj
 0001:00026429       __unlock_file              10027429 f   libucrt:_file.obj
 0001:00026442       ?is_in_use@__crt_stdio_stream@@QBE_NXZ 10027442 f i libucrt:fclose.obj
 0001:0002644f       ?is_string_backed@__crt_stdio_stream@@QBE_NXZ 1002744f f i libucrt:fclose.obj
 0001:0002645c       ?public_stream@__crt_stdio_stream@@QBEPAU_iobuf@@XZ 1002745c f i libucrt:fclose.obj
 0001:0002645f       ?valid@__crt_stdio_stream@@QBE_NXZ 1002745f f i libucrt:fclose.obj
 0001:00026466       __fclose_nolock            10027466 f   libucrt:fclose.obj
 0001:000264f9       _fclose                    100274f9 f   libucrt:fclose.obj
 0001:000267ef       ??$open_file@ABQBDABQBDABHPAU_iobuf@@@?$__crt_char_traits@D@@SAPAU_iobuf@@ABQBD0ABH$$QAPAU1@@Z 100277ef f i libucrt:fopen.obj
 0001:0002681a       ??$open_file@ABQB_WABQB_WABHPAU_iobuf@@@?$__crt_char_traits@_W@@SAPAU_iobuf@@ABQB_W0ABH$$QAPAU1@@Z 1002781a f i libucrt:fopen.obj
 0001:00026845       ?unlock@__crt_stdio_stream@@QBEXXZ 10027845 f i libucrt:fopen.obj
 0001:00026850       __fsopen                   10027850 f   libucrt:fopen.obj
 0001:0002685d       __wfopen                   1002785d f   libucrt:fopen.obj
 0001:00026879       __wfopen_s                 10027879 f   libucrt:fopen.obj
 0001:000268d1       __wfsopen                  100278d1 f   libucrt:fopen.obj
 0001:000268de       _fopen                     100278de f   libucrt:fopen.obj
 0001:000268fa       _fopen_s                   100278fa f   libucrt:fopen.obj
 0001:00026952       ?__acrt_stdio_reset_buffer@@YAXV__crt_stdio_stream@@@Z 10027952 f i libucrt:fread.obj
 0001:0002696d       ?set_flags@__crt_stdio_stream@@QBE_NJ@Z 1002796d f i libucrt:fread.obj
 0001:0002699a       __fread_nolock             1002799a f   libucrt:fread.obj
 0001:000269be       __fread_nolock_s           100279be f   libucrt:fread.obj
 0001:00026c0d       _fread                     10027c0d f   libucrt:fread.obj
 0001:00026c31       _fread_s                   10027c31 f   libucrt:fread.obj
 0001:00026e76       ??0__acrt_stdio_temporary_buffering_guard@@QAE@QAU_iobuf@@@Z 10027e76 f i libucrt:fwrite.obj
 0001:00026e9b       ??1__acrt_stdio_temporary_buffering_guard@@QAE@XZ 10027e9b f i libucrt:fwrite.obj
 0001:00026f19       ?has_big_buffer@__crt_stdio_stream@@QBE_NXZ 10027f19 f i libucrt:fwrite.obj
 0001:00026f26       __fwrite_nolock            10027f26 f   libucrt:fwrite.obj
 0001:000270ff       _fwrite                    100280ff f   libucrt:fwrite.obj
 0001:00027222       ??$__acrt_mbs_to_wcs_cp@U__crt_win32_buffer_internal_dynamic_resizing@@@@YAHQBDAAV?$__crt_win32_buffer@_WU__crt_win32_buffer_internal_dynamic_resizing@@@@I@Z 10028222 f i libucrt:unlink.obj
 0001:00027248       ??0?$__crt_win32_buffer@_WU__crt_win32_buffer_internal_dynamic_resizing@@@@QAE@XZ 10028248 f i libucrt:unlink.obj
 0001:00027263       ??0_LocaleUpdate@@QAE@QAU__crt_locale_pointers@@@Z 10028263 f i libucrt:unlink.obj
 0001:00027306       ??1?$__crt_win32_buffer@_WU__crt_win32_buffer_internal_dynamic_resizing@@@@QAE@XZ 10028306 f i libucrt:unlink.obj
 0001:0002730b       ??1_LocaleUpdate@@QAE@XZ   1002830b f i libucrt:unlink.obj
 0001:00027348       ?GetLocaleT@_LocaleUpdate@@QAEPAU__crt_locale_pointers@@XZ 10028348 f i libucrt:unlink.obj
 0001:0002734c       ?__acrt_get_utf8_acp_compatibility_codepage@@YAIXZ 1002834c f i libucrt:unlink.obj
 0001:0002739d       ?_deallocate@?$__crt_win32_buffer@_WU__crt_win32_buffer_internal_dynamic_resizing@@@@AAEXXZ 1002839d f i libucrt:unlink.obj
 0001:000273bd       ?allocate@?$__crt_win32_buffer@_WU__crt_win32_buffer_internal_dynamic_resizing@@@@QAEHI@Z 100283bd f i libucrt:unlink.obj
 0001:0002740b       ?allocate@__crt_win32_buffer_internal_dynamic_resizing@@SAHQAPAXIABV__crt_win32_buffer_empty_debug_info@@@Z 1002840b f i libucrt:unlink.obj
 0001:00027431       ?capacity@?$__crt_win32_buffer@_WU__crt_win32_buffer_internal_dynamic_resizing@@@@QBEIXZ 10028431 f i libucrt:unlink.obj
 0001:00027435       ?data@?$__crt_win32_buffer@_WU__crt_win32_buffer_internal_dynamic_resizing@@@@QAEPA_WXZ 10028435 f i libucrt:unlink.obj
 0001:00027439       ?deallocate@__crt_win32_buffer_internal_dynamic_resizing@@SAXQAXABV__crt_win32_buffer_empty_debug_info@@@Z 10028439 f i libucrt:unlink.obj
 0001:0002744d       ?debug_info@?$__crt_win32_buffer@_WU__crt_win32_buffer_internal_dynamic_resizing@@@@QBEABV__crt_win32_buffer_empty_debug_info@@XZ 1002844d f i libucrt:unlink.obj
 0001:00027450       ?size@?$__crt_win32_buffer@_WU__crt_win32_buffer_internal_dynamic_resizing@@@@QAEXI@Z 10028450 f i libucrt:unlink.obj
 0001:00027462       ___acrt_locale_changed     10028462 f i libucrt:unlink.obj
 0001:0002746f       __unlink                   1002846f f   libucrt:unlink.obj
 0001:0002747c       _remove                    1002847c f   libucrt:unlink.obj
 0001:00027503       ?has_all_of@__crt_stdio_stream@@QBE_NJ@Z 10028503 f i libucrt:rewind.obj
 0001:0002751f       ?unset_flags@__crt_stdio_stream@@QBE_NJ@Z 1002851f f i libucrt:rewind.obj
 0001:00027552       _rewind                    10028552 f   libucrt:rewind.obj
 0001:00027644       ??$?0ABV?$stream_output_adapter@D@__crt_stdio_output@@AB_KABQBDABQAU__crt_locale_pointers@@ABQAD@?$format_validation_base@DV?$stream_output_adapter@D@__crt_stdio_output@@@__crt_stdio_output@@IAE@ABV?$stream_output_adapter@D@1@AB_KABQBDABQAU__crt_locale_pointers@@ABQAD@Z 10028644 f i libucrt:output.obj
 0001:0002766f       ??$?0ABV?$stream_output_adapter@D@__crt_stdio_output@@AB_KABQBDABQAU__crt_locale_pointers@@ABQAD@?$positional_parameter_base@DV?$stream_output_adapter@D@__crt_stdio_output@@@__crt_stdio_output@@IAE@ABV?$stream_output_adapter@D@1@AB_KABQBDABQAU__crt_locale_pointers@@ABQAD@Z 1002866f f i libucrt:output.obj
 0001:000276c9       ??$?0ABV?$stream_output_adapter@D@__crt_stdio_output@@AB_KABQBDABQAU__crt_locale_pointers@@ABQAD@?$standard_base@DV?$stream_output_adapter@D@__crt_stdio_output@@@__crt_stdio_output@@IAE@ABV?$stream_output_adapter@D@1@AB_KABQBDABQAU__crt_locale_pointers@@ABQAD@Z 100286c9 f i libucrt:output.obj
 0001:0002770b       ??$?0ABV?$stream_output_adapter@_W@__crt_stdio_output@@AB_KABQB_WABQAU__crt_locale_pointers@@ABQAD@?$format_validation_base@_WV?$stream_output_adapter@_W@__crt_stdio_output@@@__crt_stdio_output@@IAE@ABV?$stream_output_adapter@_W@1@AB_KABQB_WABQAU__crt_locale_pointers@@ABQAD@Z 1002870b f i libucrt:output.obj
 0001:00027736       ??$?0ABV?$stream_output_adapter@_W@__crt_stdio_output@@AB_KABQB_WABQAU__crt_locale_pointers@@ABQAD@?$positional_parameter_base@_WV?$stream_output_adapter@_W@__crt_stdio_output@@@__crt_stdio_output@@IAE@ABV?$stream_output_adapter@_W@1@AB_KABQB_WABQAU__crt_locale_pointers@@ABQAD@Z 10028736 f i libucrt:output.obj
 0001:00027790       ??$?0ABV?$stream_output_adapter@_W@__crt_stdio_output@@AB_KABQB_WABQAU__crt_locale_pointers@@ABQAD@?$standard_base@_WV?$stream_output_adapter@_W@__crt_stdio_output@@@__crt_stdio_output@@IAE@ABV?$stream_output_adapter@_W@1@AB_KABQB_WABQAU__crt_locale_pointers@@ABQAD@Z 10028790 f i libucrt:output.obj
 0001:000277d2       ??$?0ABV?$string_output_adapter@D@__crt_stdio_output@@AB_KABQBDABQAU__crt_locale_pointers@@ABQAD@?$format_validation_base@DV?$string_output_adapter@D@__crt_stdio_output@@@__crt_stdio_output@@IAE@ABV?$string_output_adapter@D@1@AB_KABQBDABQAU__crt_locale_pointers@@ABQAD@Z 100287d2 f i libucrt:output.obj
 0001:000277fd       ??$?0ABV?$string_output_adapter@D@__crt_stdio_output@@AB_KABQBDABQAU__crt_locale_pointers@@ABQAD@?$positional_parameter_base@DV?$string_output_adapter@D@__crt_stdio_output@@@__crt_stdio_output@@IAE@ABV?$string_output_adapter@D@1@AB_KABQBDABQAU__crt_locale_pointers@@ABQAD@Z 100287fd f i libucrt:output.obj
 0001:00027857       ??$?0ABV?$string_output_adapter@D@__crt_stdio_output@@AB_KABQBDABQAU__crt_locale_pointers@@ABQAD@?$standard_base@DV?$string_output_adapter@D@__crt_stdio_output@@@__crt_stdio_output@@IAE@ABV?$string_output_adapter@D@1@AB_KABQBDABQAU__crt_locale_pointers@@ABQAD@Z 10028857 f i libucrt:output.obj
 0001:00027899       ??$?0ABV?$string_output_adapter@_W@__crt_stdio_output@@AB_KABQB_WABQAU__crt_locale_pointers@@ABQAD@?$format_validation_base@_WV?$string_output_adapter@_W@__crt_stdio_output@@@__crt_stdio_output@@IAE@ABV?$string_output_adapter@_W@1@AB_KABQB_WABQAU__crt_locale_pointers@@ABQAD@Z 10028899 f i libucrt:output.obj
 0001:000278c4       ??$?0ABV?$string_output_adapter@_W@__crt_stdio_output@@AB_KABQB_WABQAU__crt_locale_pointers@@ABQAD@?$positional_parameter_base@_WV?$string_output_adapter@_W@__crt_stdio_output@@@__crt_stdio_output@@IAE@ABV?$string_output_adapter@_W@1@AB_KABQB_WABQAU__crt_locale_pointers@@ABQAD@Z 100288c4 f i libucrt:output.obj
 0001:0002791e       ??$?0ABV?$string_output_adapter@_W@__crt_stdio_output@@AB_KABQB_WABQAU__crt_locale_pointers@@ABQAD@?$standard_base@_WV?$string_output_adapter@_W@__crt_stdio_output@@@__crt_stdio_output@@IAE@ABV?$string_output_adapter@_W@1@AB_KABQB_WABQAU__crt_locale_pointers@@ABQAD@Z 1002891e f i libucrt:output.obj
 0001:00028f44       ??$count@D@formatting_buffer@__crt_stdio_output@@QBEIXZ 10029f44 f i libucrt:output.obj
 0001:00028f62       ??$count@_W@formatting_buffer@__crt_stdio_output@@QBEIXZ 10029f62 f i libucrt:output.obj
 0001:00028f81       ??$data@D@formatting_buffer@__crt_stdio_output@@QAEPADXZ 10029f81 f i libucrt:output.obj
 0001:00028f91       ??$data@_W@formatting_buffer@__crt_stdio_output@@QAEPA_WXZ 10029f91 f i libucrt:output.obj
 0001:00028fa1       ??$ensure_buffer_is_big_enough@D@formatting_buffer@__crt_stdio_output@@QAE_NI@Z 10029fa1 f i libucrt:output.obj
 0001:0002903f       ??$ensure_buffer_is_big_enough@_W@formatting_buffer@__crt_stdio_output@@QAE_NI@Z 1002a03f f i libucrt:output.obj
 0001:000290df       ??$extract_argument_from_va_list@C_J@?$positional_parameter_base@DV?$stream_output_adapter@D@__crt_stdio_output@@@__crt_stdio_output@@IAE_NAA_J@Z 1002a0df f i libucrt:output.obj
 0001:00029176       ??$extract_argument_from_va_list@C_J@?$positional_parameter_base@DV?$string_output_adapter@D@__crt_stdio_output@@@__crt_stdio_output@@IAE_NAA_J@Z 1002a176 f i libucrt:output.obj
 0001:0002920d       ??$extract_argument_from_va_list@C_J@?$positional_parameter_base@_WV?$stream_output_adapter@_W@__crt_stdio_output@@@__crt_stdio_output@@IAE_NAA_J@Z 1002a20d f i libucrt:output.obj
 0001:000292a4       ??$extract_argument_from_va_list@C_J@?$positional_parameter_base@_WV?$string_output_adapter@_W@__crt_stdio_output@@@__crt_stdio_output@@IAE_NAA_J@Z 1002a2a4 f i libucrt:output.obj
 0001:0002933b       ??$extract_argument_from_va_list@C_J@?$standard_base@DV?$stream_output_adapter@D@__crt_stdio_output@@@__crt_stdio_output@@IAE_NAA_J@Z 1002a33b f i libucrt:output.obj
 0001:00029361       ??$extract_argument_from_va_list@C_J@?$standard_base@DV?$string_output_adapter@D@__crt_stdio_output@@@__crt_stdio_output@@IAE_NAA_J@Z 1002a361 f i libucrt:output.obj
 0001:00029387       ??$extract_argument_from_va_list@C_J@?$standard_base@_WV?$stream_output_adapter@_W@__crt_stdio_output@@@__crt_stdio_output@@IAE_NAA_J@Z 1002a387 f i libucrt:output.obj
 0001:000293ad       ??$extract_argument_from_va_list@C_J@?$standard_base@_WV?$string_output_adapter@_W@__crt_stdio_output@@@__crt_stdio_output@@IAE_NAA_J@Z 1002a3ad f i libucrt:output.obj
 0001:000293d3       ??$extract_argument_from_va_list@E_J@?$positional_parameter_base@DV?$stream_output_adapter@D@__crt_stdio_output@@@__crt_stdio_output@@IAE_NAA_J@Z 1002a3d3 f i libucrt:output.obj
 0001:0002946a       ??$extract_argument_from_va_list@E_J@?$positional_parameter_base@DV?$string_output_adapter@D@__crt_stdio_output@@@__crt_stdio_output@@IAE_NAA_J@Z 1002a46a f i libucrt:output.obj
 0001:00029501       ??$extract_argument_from_va_list@E_J@?$positional_parameter_base@_WV?$stream_output_adapter@_W@__crt_stdio_output@@@__crt_stdio_output@@IAE_NAA_J@Z 1002a501 f i libucrt:output.obj
 0001:00029598       ??$extract_argument_from_va_list@E_J@?$positional_parameter_base@_WV?$string_output_adapter@_W@__crt_stdio_output@@@__crt_stdio_output@@IAE_NAA_J@Z 1002a598 f i libucrt:output.obj
 0001:0002962f       ??$extract_argument_from_va_list@E_J@?$standard_base@DV?$stream_output_adapter@D@__crt_stdio_output@@@__crt_stdio_output@@IAE_NAA_J@Z 1002a62f f i libucrt:output.obj
 0001:00029655       ??$extract_argument_from_va_list@E_J@?$standard_base@DV?$string_output_adapter@D@__crt_stdio_output@@@__crt_stdio_output@@IAE_NAA_J@Z 1002a655 f i libucrt:output.obj
 0001:0002967b       ??$extract_argument_from_va_list@E_J@?$standard_base@_WV?$stream_output_adapter@_W@__crt_stdio_output@@@__crt_stdio_output@@IAE_NAA_J@Z 1002a67b f i libucrt:output.obj
 0001:000296a1       ??$extract_argument_from_va_list@E_J@?$standard_base@_WV?$string_output_adapter@_W@__crt_stdio_output@@@__crt_stdio_output@@IAE_NAA_J@Z 1002a6a1 f i libucrt:output.obj
 0001:000296c7       ??$extract_argument_from_va_list@F_J@?$positional_parameter_base@DV?$stream_output_adapter@D@__crt_stdio_output@@@__crt_stdio_output@@IAE_NAA_J@Z 1002a6c7 f i libucrt:output.obj
 0001:0002975e       ??$extract_argument_from_va_list@F_J@?$positional_parameter_base@DV?$string_output_adapter@D@__crt_stdio_output@@@__crt_stdio_output@@IAE_NAA_J@Z 1002a75e f i libucrt:output.obj
 0001:000297f5       ??$extract_argument_from_va_list@F_J@?$positional_parameter_base@_WV?$stream_output_adapter@_W@__crt_stdio_output@@@__crt_stdio_output@@IAE_NAA_J@Z 1002a7f5 f i libucrt:output.obj
 0001:0002988c       ??$extract_argument_from_va_list@F_J@?$positional_parameter_base@_WV?$string_output_adapter@_W@__crt_stdio_output@@@__crt_stdio_output@@IAE_NAA_J@Z 1002a88c f i libucrt:output.obj
 0001:00029923       ??$extract_argument_from_va_list@F_J@?$standard_base@DV?$stream_output_adapter@D@__crt_stdio_output@@@__crt_stdio_output@@IAE_NAA_J@Z 1002a923 f i libucrt:output.obj
 0001:00029949       ??$extract_argument_from_va_list@F_J@?$standard_base@DV?$string_output_adapter@D@__crt_stdio_output@@@__crt_stdio_output@@IAE_NAA_J@Z 1002a949 f i libucrt:output.obj
 0001:0002996f       ??$extract_argument_from_va_list@F_J@?$standard_base@_WV?$stream_output_adapter@_W@__crt_stdio_output@@@__crt_stdio_output@@IAE_NAA_J@Z 1002a96f f i libucrt:output.obj
 0001:00029995       ??$extract_argument_from_va_list@F_J@?$standard_base@_WV?$string_output_adapter@_W@__crt_stdio_output@@@__crt_stdio_output@@IAE_NAA_J@Z 1002a995 f i libucrt:output.obj
 0001:000299bb       ??$extract_argument_from_va_list@GD@?$positional_parameter_base@DV?$stream_output_adapter@D@__crt_stdio_output@@@__crt_stdio_output@@IAE_NAAD@Z 1002a9bb f i libucrt:output.obj
 0001:00029a51       ??$extract_argument_from_va_list@GD@?$positional_parameter_base@DV?$string_output_adapter@D@__crt_stdio_output@@@__crt_stdio_output@@IAE_NAAD@Z 1002aa51 f i libucrt:output.obj
 0001:00029ae7       ??$extract_argument_from_va_list@GD@?$standard_base@DV?$stream_output_adapter@D@__crt_stdio_output@@@__crt_stdio_output@@IAE_NAAD@Z 1002aae7 f i libucrt:output.obj
 0001:00029b07       ??$extract_argument_from_va_list@GD@?$standard_base@DV?$string_output_adapter@D@__crt_stdio_output@@@__crt_stdio_output@@IAE_NAAD@Z 1002ab07 f i libucrt:output.obj
 0001:00029b27       ??$extract_argument_from_va_list@G_J@?$positional_parameter_base@DV?$stream_output_adapter@D@__crt_stdio_output@@@__crt_stdio_output@@IAE_NAA_J@Z 1002ab27 f i libucrt:output.obj
 0001:00029bbe       ??$extract_argument_from_va_list@G_J@?$positional_parameter_base@DV?$string_output_adapter@D@__crt_stdio_output@@@__crt_stdio_output@@IAE_NAA_J@Z 1002abbe f i libucrt:output.obj
 0001:00029c55       ??$extract_argument_from_va_list@G_J@?$positional_parameter_base@_WV?$stream_output_adapter@_W@__crt_stdio_output@@@__crt_stdio_output@@IAE_NAA_J@Z 1002ac55 f i libucrt:output.obj
 0001:00029cec       ??$extract_argument_from_va_list@G_J@?$positional_parameter_base@_WV?$string_output_adapter@_W@__crt_stdio_output@@@__crt_stdio_output@@IAE_NAA_J@Z 1002acec f i libucrt:output.obj
 0001:00029d83       ??$extract_argument_from_va_list@G_J@?$standard_base@DV?$stream_output_adapter@D@__crt_stdio_output@@@__crt_stdio_output@@IAE_NAA_J@Z 1002ad83 f i libucrt:output.obj
 0001:00029da9       ??$extract_argument_from_va_list@G_J@?$standard_base@DV?$string_output_adapter@D@__crt_stdio_output@@@__crt_stdio_output@@IAE_NAA_J@Z 1002ada9 f i libucrt:output.obj
 0001:00029dcf       ??$extract_argument_from_va_list@G_J@?$standard_base@_WV?$stream_output_adapter@_W@__crt_stdio_output@@@__crt_stdio_output@@IAE_NAA_J@Z 1002adcf f i libucrt:output.obj
 0001:00029df5       ??$extract_argument_from_va_list@G_J@?$standard_base@_WV?$string_output_adapter@_W@__crt_stdio_output@@@__crt_stdio_output@@IAE_NAA_J@Z 1002adf5 f i libucrt:output.obj
 0001:00029e1b       ??$extract_argument_from_va_list@H_J@?$positional_parameter_base@DV?$stream_output_adapter@D@__crt_stdio_output@@@__crt_stdio_output@@IAE_NAA_J@Z 1002ae1b f i libucrt:output.obj
 0001:00029eaf       ??$extract_argument_from_va_list@H_J@?$positional_parameter_base@DV?$string_output_adapter@D@__crt_stdio_output@@@__crt_stdio_output@@IAE_NAA_J@Z 1002aeaf f i libucrt:output.obj
 0001:00029f43       ??$extract_argument_from_va_list@H_J@?$positional_parameter_base@_WV?$stream_output_adapter@_W@__crt_stdio_output@@@__crt_stdio_output@@IAE_NAA_J@Z 1002af43 f i libucrt:output.obj
 0001:00029fd7       ??$extract_argument_from_va_list@H_J@?$positional_parameter_base@_WV?$string_output_adapter@_W@__crt_stdio_output@@@__crt_stdio_output@@IAE_NAA_J@Z 1002afd7 f i libucrt:output.obj
 0001:0002a06b       ??$extract_argument_from_va_list@H_J@?$standard_base@DV?$stream_output_adapter@D@__crt_stdio_output@@@__crt_stdio_output@@IAE_NAA_J@Z 1002b06b f i libucrt:output.obj
 0001:0002a090       ??$extract_argument_from_va_list@H_J@?$standard_base@DV?$string_output_adapter@D@__crt_stdio_output@@@__crt_stdio_output@@IAE_NAA_J@Z 1002b090 f i libucrt:output.obj
 0001:0002a0b5       ??$extract_argument_from_va_list@H_J@?$standard_base@_WV?$stream_output_adapter@_W@__crt_stdio_output@@@__crt_stdio_output@@IAE_NAA_J@Z 1002b0b5 f i libucrt:output.obj
 0001:0002a0da       ??$extract_argument_from_va_list@H_J@?$standard_base@_WV?$string_output_adapter@_W@__crt_stdio_output@@@__crt_stdio_output@@IAE_NAA_J@Z 1002b0da f i libucrt:output.obj
 0001:0002a0ff       ??$extract_argument_from_va_list@I_J@?$positional_parameter_base@DV?$stream_output_adapter@D@__crt_stdio_output@@@__crt_stdio_output@@IAE_NAA_J@Z 1002b0ff f i libucrt:output.obj
 0001:0002a19f       ??$extract_argument_from_va_list@I_J@?$positional_parameter_base@DV?$string_output_adapter@D@__crt_stdio_output@@@__crt_stdio_output@@IAE_NAA_J@Z 1002b19f f i libucrt:output.obj
 0001:0002a23f       ??$extract_argument_from_va_list@I_J@?$positional_parameter_base@_WV?$stream_output_adapter@_W@__crt_stdio_output@@@__crt_stdio_output@@IAE_NAA_J@Z 1002b23f f i libucrt:output.obj
 0001:0002a2df       ??$extract_argument_from_va_list@I_J@?$positional_parameter_base@_WV?$string_output_adapter@_W@__crt_stdio_output@@@__crt_stdio_output@@IAE_NAA_J@Z 1002b2df f i libucrt:output.obj
 0001:0002a37f       ??$extract_argument_from_va_list@I_J@?$standard_base@DV?$stream_output_adapter@D@__crt_stdio_output@@@__crt_stdio_output@@IAE_NAA_J@Z 1002b37f f i libucrt:output.obj
 0001:0002a3a4       ??$extract_argument_from_va_list@I_J@?$standard_base@DV?$string_output_adapter@D@__crt_stdio_output@@@__crt_stdio_output@@IAE_NAA_J@Z 1002b3a4 f i libucrt:output.obj
 0001:0002a3c9       ??$extract_argument_from_va_list@I_J@?$standard_base@_WV?$stream_output_adapter@_W@__crt_stdio_output@@@__crt_stdio_output@@IAE_NAA_J@Z 1002b3c9 f i libucrt:output.obj
 0001:0002a3ee       ??$extract_argument_from_va_list@I_J@?$standard_base@_WV?$string_output_adapter@_W@__crt_stdio_output@@@__crt_stdio_output@@IAE_NAA_J@Z 1002b3ee f i libucrt:output.obj
 0001:0002a413       ??$extract_argument_from_va_list@PADPAD@?$positional_parameter_base@DV?$stream_output_adapter@D@__crt_stdio_output@@@__crt_stdio_output@@IAE_NAAPAD@Z 1002b413 f i libucrt:output.obj
 0001:0002a4a9       ??$extract_argument_from_va_list@PADPAD@?$positional_parameter_base@DV?$string_output_adapter@D@__crt_stdio_output@@@__crt_stdio_output@@IAE_NAAPAD@Z 1002b4a9 f i libucrt:output.obj
 0001:0002a53f       ??$extract_argument_from_va_list@PADPAD@?$positional_parameter_base@_WV?$stream_output_adapter@_W@__crt_stdio_output@@@__crt_stdio_output@@IAE_NAAPAD@Z 1002b53f f i libucrt:output.obj
 0001:0002a5d5       ??$extract_argument_from_va_list@PADPAD@?$positional_parameter_base@_WV?$string_output_adapter@_W@__crt_stdio_output@@@__crt_stdio_output@@IAE_NAAPAD@Z 1002b5d5 f i libucrt:output.obj
 0001:0002a66b       ??$extract_argument_from_va_list@PADPAD@?$standard_base@DV?$stream_output_adapter@D@__crt_stdio_output@@@__crt_stdio_output@@IAE_NAAPAD@Z 1002b66b f i libucrt:output.obj
 0001:0002a68b       ??$extract_argument_from_va_list@PADPAD@?$standard_base@DV?$string_output_adapter@D@__crt_stdio_output@@@__crt_stdio_output@@IAE_NAAPAD@Z 1002b68b f i libucrt:output.obj
 0001:0002a6ab       ??$extract_argument_from_va_list@PADPAD@?$standard_base@_WV?$stream_output_adapter@_W@__crt_stdio_output@@@__crt_stdio_output@@IAE_NAAPAD@Z 1002b6ab f i libucrt:output.obj
 0001:0002a6cb       ??$extract_argument_from_va_list@PADPAD@?$standard_base@_WV?$string_output_adapter@_W@__crt_stdio_output@@@__crt_stdio_output@@IAE_NAAPAD@Z 1002b6cb f i libucrt:output.obj
 0001:0002aac3       ??$extract_argument_from_va_list@PAXPAX@?$positional_parameter_base@DV?$stream_output_adapter@D@__crt_stdio_output@@@__crt_stdio_output@@IAE_NAAPAX@Z 1002bac3 f i libucrt:output.obj
 0001:0002ab59       ??$extract_argument_from_va_list@PAXPAX@?$positional_parameter_base@DV?$string_output_adapter@D@__crt_stdio_output@@@__crt_stdio_output@@IAE_NAAPAX@Z 1002bb59 f i libucrt:output.obj
 0001:0002abef       ??$extract_argument_from_va_list@PAXPAX@?$positional_parameter_base@_WV?$stream_output_adapter@_W@__crt_stdio_output@@@__crt_stdio_output@@IAE_NAAPAX@Z 1002bbef f i libucrt:output.obj
 0001:0002ac85       ??$extract_argument_from_va_list@PAXPAX@?$positional_parameter_base@_WV?$string_output_adapter@_W@__crt_stdio_output@@@__crt_stdio_output@@IAE_NAAPAX@Z 1002bc85 f i libucrt:output.obj
 0001:0002ad1b       ??$extract_argument_from_va_list@PAXPAX@?$standard_base@DV?$stream_output_adapter@D@__crt_stdio_output@@@__crt_stdio_output@@IAE_NAAPAX@Z 1002bd1b f i libucrt:output.obj
 0001:0002ad3b       ??$extract_argument_from_va_list@PAXPAX@?$standard_base@DV?$string_output_adapter@D@__crt_stdio_output@@@__crt_stdio_output@@IAE_NAAPAX@Z 1002bd3b f i libucrt:output.obj
 0001:0002ad5b       ??$extract_argument_from_va_list@PAXPAX@?$standard_base@_WV?$stream_output_adapter@_W@__crt_stdio_output@@@__crt_stdio_output@@IAE_NAAPAX@Z 1002bd5b f i libucrt:output.obj
 0001:0002ad7b       ??$extract_argument_from_va_list@PAXPAX@?$standard_base@_WV?$string_output_adapter@_W@__crt_stdio_output@@@__crt_stdio_output@@IAE_NAAPAX@Z 1002bd7b f i libucrt:output.obj
 0001:0002ad9b       ??$extract_argument_from_va_list@U_CRT_DOUBLE@@U1@@?$positional_parameter_base@DV?$stream_output_adapter@D@__crt_stdio_output@@@__crt_stdio_output@@IAE_NAAU_CRT_DOUBLE@@@Z 1002bd9b f i libucrt:output.obj
 0001:0002ae42       ??$extract_argument_from_va_list@U_CRT_DOUBLE@@U1@@?$positional_parameter_base@DV?$string_output_adapter@D@__crt_stdio_output@@@__crt_stdio_output@@IAE_NAAU_CRT_DOUBLE@@@Z 1002be42 f i libucrt:output.obj
 0001:0002aee9       ??$extract_argument_from_va_list@U_CRT_DOUBLE@@U1@@?$positional_parameter_base@_WV?$stream_output_adapter@_W@__crt_stdio_output@@@__crt_stdio_output@@IAE_NAAU_CRT_DOUBLE@@@Z 1002bee9 f i libucrt:output.obj
 0001:0002af90       ??$extract_argument_from_va_list@U_CRT_DOUBLE@@U1@@?$positional_parameter_base@_WV?$string_output_adapter@_W@__crt_stdio_output@@@__crt_stdio_output@@IAE_NAAU_CRT_DOUBLE@@@Z 1002bf90 f i libucrt:output.obj
 0001:0002b037       ??$extract_argument_from_va_list@U_CRT_DOUBLE@@U1@@?$standard_base@DV?$stream_output_adapter@D@__crt_stdio_output@@@__crt_stdio_output@@IAE_NAAU_CRT_DOUBLE@@@Z 1002c037 f i libucrt:output.obj
 0001:0002b05f       ??$extract_argument_from_va_list@U_CRT_DOUBLE@@U1@@?$standard_base@DV?$string_output_adapter@D@__crt_stdio_output@@@__crt_stdio_output@@IAE_NAAU_CRT_DOUBLE@@@Z 1002c05f f i libucrt:output.obj
 0001:0002b087       ??$extract_argument_from_va_list@U_CRT_DOUBLE@@U1@@?$standard_base@_WV?$stream_output_adapter@_W@__crt_stdio_output@@@__crt_stdio_output@@IAE_NAAU_CRT_DOUBLE@@@Z 1002c087 f i libucrt:output.obj
 0001:0002b0af       ??$extract_argument_from_va_list@U_CRT_DOUBLE@@U1@@?$standard_base@_WV?$string_output_adapter@_W@__crt_stdio_output@@@__crt_stdio_output@@IAE_NAAU_CRT_DOUBLE@@@Z 1002c0af f i libucrt:output.obj
 0001:0002b0d7       ??$extract_argument_from_va_list@_J_J@?$positional_parameter_base@DV?$stream_output_adapter@D@__crt_stdio_output@@@__crt_stdio_output@@IAE_NAA_J@Z 1002c0d7 f i libucrt:output.obj
 0001:0002b17e       ??$extract_argument_from_va_list@_J_J@?$positional_parameter_base@DV?$string_output_adapter@D@__crt_stdio_output@@@__crt_stdio_output@@IAE_NAA_J@Z 1002c17e f i libucrt:output.obj
 0001:0002b225       ??$extract_argument_from_va_list@_J_J@?$positional_parameter_base@_WV?$stream_output_adapter@_W@__crt_stdio_output@@@__crt_stdio_output@@IAE_NAA_J@Z 1002c225 f i libucrt:output.obj
 0001:0002b2cc       ??$extract_argument_from_va_list@_J_J@?$positional_parameter_base@_WV?$string_output_adapter@_W@__crt_stdio_output@@@__crt_stdio_output@@IAE_NAA_J@Z 1002c2cc f i libucrt:output.obj
 0001:0002b373       ??$extract_argument_from_va_list@_J_J@?$standard_base@DV?$stream_output_adapter@D@__crt_stdio_output@@@__crt_stdio_output@@IAE_NAA_J@Z 1002c373 f i libucrt:output.obj
 0001:0002b39b       ??$extract_argument_from_va_list@_J_J@?$standard_base@DV?$string_output_adapter@D@__crt_stdio_output@@@__crt_stdio_output@@IAE_NAA_J@Z 1002c39b f i libucrt:output.obj
 0001:0002b3c3       ??$extract_argument_from_va_list@_J_J@?$standard_base@_WV?$stream_output_adapter@_W@__crt_stdio_output@@@__crt_stdio_output@@IAE_NAA_J@Z 1002c3c3 f i libucrt:output.obj
 0001:0002b3eb       ??$extract_argument_from_va_list@_J_J@?$standard_base@_WV?$string_output_adapter@_W@__crt_stdio_output@@@__crt_stdio_output@@IAE_NAA_J@Z 1002c3eb f i libucrt:output.obj
 0001:0002b413       ??$extract_argument_from_va_list@_K_J@?$positional_parameter_base@DV?$stream_output_adapter@D@__crt_stdio_output@@@__crt_stdio_output@@IAE_NAA_J@Z 1002c413 f i libucrt:output.obj
 0001:0002b4ba       ??$extract_argument_from_va_list@_K_J@?$positional_parameter_base@DV?$string_output_adapter@D@__crt_stdio_output@@@__crt_stdio_output@@IAE_NAA_J@Z 1002c4ba f i libucrt:output.obj
 0001:0002b561       ??$extract_argument_from_va_list@_K_J@?$positional_parameter_base@_WV?$stream_output_adapter@_W@__crt_stdio_output@@@__crt_stdio_output@@IAE_NAA_J@Z 1002c561 f i libucrt:output.obj
 0001:0002b608       ??$extract_argument_from_va_list@_K_J@?$positional_parameter_base@_WV?$string_output_adapter@_W@__crt_stdio_output@@@__crt_stdio_output@@IAE_NAA_J@Z 1002c608 f i libucrt:output.obj
 0001:0002b6af       ??$extract_argument_from_va_list@_K_J@?$standard_base@DV?$stream_output_adapter@D@__crt_stdio_output@@@__crt_stdio_output@@IAE_NAA_J@Z 1002c6af f i libucrt:output.obj
 0001:0002b6d7       ??$extract_argument_from_va_list@_K_J@?$standard_base@DV?$string_output_adapter@D@__crt_stdio_output@@@__crt_stdio_output@@IAE_NAA_J@Z 1002c6d7 f i libucrt:output.obj
 0001:0002b6ff       ??$extract_argument_from_va_list@_K_J@?$standard_base@_WV?$stream_output_adapter@_W@__crt_stdio_output@@@__crt_stdio_output@@IAE_NAA_J@Z 1002c6ff f i libucrt:output.obj
 0001:0002b727       ??$extract_argument_from_va_list@_K_J@?$standard_base@_WV?$string_output_adapter@_W@__crt_stdio_output@@@__crt_stdio_output@@IAE_NAA_J@Z 1002c727 f i libucrt:output.obj
 0001:0002b74f       ??$extract_argument_from_va_list@_W_W@?$positional_parameter_base@DV?$stream_output_adapter@D@__crt_stdio_output@@@__crt_stdio_output@@IAE_NAA_W@Z 1002c74f f i libucrt:output.obj
 0001:0002b7ea       ??$extract_argument_from_va_list@_W_W@?$positional_parameter_base@DV?$string_output_adapter@D@__crt_stdio_output@@@__crt_stdio_output@@IAE_NAA_W@Z 1002c7ea f i libucrt:output.obj
 0001:0002b885       ??$extract_argument_from_va_list@_W_W@?$positional_parameter_base@_WV?$stream_output_adapter@_W@__crt_stdio_output@@@__crt_stdio_output@@IAE_NAA_W@Z 1002c885 f i libucrt:output.obj
 0001:0002b920       ??$extract_argument_from_va_list@_W_W@?$positional_parameter_base@_WV?$string_output_adapter@_W@__crt_stdio_output@@@__crt_stdio_output@@IAE_NAA_W@Z 1002c920 f i libucrt:output.obj
 0001:0002b9bb       ??$extract_argument_from_va_list@_W_W@?$standard_base@DV?$stream_output_adapter@D@__crt_stdio_output@@@__crt_stdio_output@@IAE_NAA_W@Z 1002c9bb f i libucrt:output.obj
 0001:0002b9de       ??$extract_argument_from_va_list@_W_W@?$standard_base@DV?$string_output_adapter@D@__crt_stdio_output@@@__crt_stdio_output@@IAE_NAA_W@Z 1002c9de f i libucrt:output.obj
 0001:0002ba01       ??$extract_argument_from_va_list@_W_W@?$standard_base@_WV?$stream_output_adapter@_W@__crt_stdio_output@@@__crt_stdio_output@@IAE_NAA_W@Z 1002ca01 f i libucrt:output.obj
 0001:0002ba24       ??$extract_argument_from_va_list@_W_W@?$standard_base@_WV?$string_output_adapter@_W@__crt_stdio_output@@@__crt_stdio_output@@IAE_NAA_W@Z 1002ca24 f i libucrt:output.obj
 0001:0002ba47       ??$get_parameter_type@D@?$positional_parameter_base@DV?$stream_output_adapter@D@__crt_stdio_output@@@__crt_stdio_output@@CA?AW4parameter_type@01@PAD@Z 1002ca47 f i libucrt:output.obj
 0001:0002ba4b       ??$get_parameter_type@D@?$positional_parameter_base@DV?$string_output_adapter@D@__crt_stdio_output@@@__crt_stdio_output@@CA?AW4parameter_type@01@PAD@Z 1002ca4b f i libucrt:output.obj
 0001:0002ba4f       ??$get_parameter_type@D@?$positional_parameter_base@_WV?$stream_output_adapter@_W@__crt_stdio_output@@@__crt_stdio_output@@CA?AW4parameter_type@01@PAD@Z 1002ca4f f i libucrt:output.obj
 0001:0002ba53       ??$get_parameter_type@D@?$positional_parameter_base@_WV?$string_output_adapter@_W@__crt_stdio_output@@@__crt_stdio_output@@CA?AW4parameter_type@01@PAD@Z 1002ca53 f i libucrt:output.obj
 0001:0002ba67       ??$get_parameter_type@X@?$positional_parameter_base@DV?$stream_output_adapter@D@__crt_stdio_output@@@__crt_stdio_output@@CA?AW4parameter_type@01@PAX@Z 1002ca67 f i libucrt:output.obj
 0001:0002ba6b       ??$get_parameter_type@X@?$positional_parameter_base@DV?$string_output_adapter@D@__crt_stdio_output@@@__crt_stdio_output@@CA?AW4parameter_type@01@PAX@Z 1002ca6b f i libucrt:output.obj
 0001:0002ba6f       ??$get_parameter_type@X@?$positional_parameter_base@_WV?$stream_output_adapter@_W@__crt_stdio_output@@@__crt_stdio_output@@CA?AW4parameter_type@01@PAX@Z 1002ca6f f i libucrt:output.obj
 0001:0002ba73       ??$get_parameter_type@X@?$positional_parameter_base@_WV?$string_output_adapter@_W@__crt_stdio_output@@@__crt_stdio_output@@CA?AW4parameter_type@01@PAX@Z 1002ca73 f i libucrt:output.obj
 0001:0002ba77       ??$is_character_specifier@D@?$positional_parameter_base@DV?$stream_output_adapter@D@__crt_stdio_output@@@__crt_stdio_output@@CA_ND@Z 1002ca77 f i libucrt:output.obj
 0001:0002ba95       ??$is_character_specifier@D@?$positional_parameter_base@DV?$string_output_adapter@D@__crt_stdio_output@@@__crt_stdio_output@@CA_ND@Z 1002ca95 f i libucrt:output.obj
 0001:0002bab3       ??$is_character_specifier@_W@?$positional_parameter_base@_WV?$stream_output_adapter@_W@__crt_stdio_output@@@__crt_stdio_output@@CA_N_W@Z 1002cab3 f i libucrt:output.obj
 0001:0002bad4       ??$is_character_specifier@_W@?$positional_parameter_base@_WV?$string_output_adapter@_W@__crt_stdio_output@@@__crt_stdio_output@@CA_N_W@Z 1002cad4 f i libucrt:output.obj
 0001:0002baf5       ??$is_integral_specifier@D@?$positional_parameter_base@DV?$stream_output_adapter@D@__crt_stdio_output@@@__crt_stdio_output@@CA_ND@Z 1002caf5 f i libucrt:output.obj
 0001:0002bb2c       ??$is_integral_specifier@D@?$positional_parameter_base@DV?$string_output_adapter@D@__crt_stdio_output@@@__crt_stdio_output@@CA_ND@Z 1002cb2c f i libucrt:output.obj
 0001:0002bb63       ??$is_integral_specifier@_W@?$positional_parameter_base@_WV?$stream_output_adapter@_W@__crt_stdio_output@@@__crt_stdio_output@@CA_N_W@Z 1002cb63 f i libucrt:output.obj
 0001:0002bbac       ??$is_integral_specifier@_W@?$positional_parameter_base@_WV?$string_output_adapter@_W@__crt_stdio_output@@@__crt_stdio_output@@CA_N_W@Z 1002cbac f i libucrt:output.obj
 0001:0002bbf5       ??$is_pointer_specifier@D@?$positional_parameter_base@DV?$stream_output_adapter@D@__crt_stdio_output@@@__crt_stdio_output@@CA_ND@Z 1002cbf5 f i libucrt:output.obj
 0001:0002bc06       ??$is_pointer_specifier@D@?$positional_parameter_base@DV?$string_output_adapter@D@__crt_stdio_output@@@__crt_stdio_output@@CA_ND@Z 1002cc06 f i libucrt:output.obj
 0001:0002bc17       ??$is_pointer_specifier@_W@?$positional_parameter_base@_WV?$stream_output_adapter@_W@__crt_stdio_output@@@__crt_stdio_output@@CA_N_W@Z 1002cc17 f i libucrt:output.obj
 0001:0002bc29       ??$is_pointer_specifier@_W@?$positional_parameter_base@_WV?$string_output_adapter@_W@__crt_stdio_output@@@__crt_stdio_output@@CA_N_W@Z 1002cc29 f i libucrt:output.obj
 0001:0002bc3b       ??$is_string_specifier@D@?$positional_parameter_base@DV?$stream_output_adapter@D@__crt_stdio_output@@@__crt_stdio_output@@CA_ND@Z 1002cc3b f i libucrt:output.obj
 0001:0002bc59       ??$is_string_specifier@D@?$positional_parameter_base@DV?$string_output_adapter@D@__crt_stdio_output@@@__crt_stdio_output@@CA_ND@Z 1002cc59 f i libucrt:output.obj
 0001:0002bc77       ??$is_string_specifier@_W@?$positional_parameter_base@_WV?$stream_output_adapter@_W@__crt_stdio_output@@@__crt_stdio_output@@CA_N_W@Z 1002cc77 f i libucrt:output.obj
 0001:0002bc98       ??$is_string_specifier@_W@?$positional_parameter_base@_WV?$string_output_adapter@_W@__crt_stdio_output@@@__crt_stdio_output@@CA_N_W@Z 1002cc98 f i libucrt:output.obj
 0001:0002bcb9       ??$is_wide_character_specifier@D@__crt_stdio_output@@YA_N_KDW4length_modifier@0@@Z 1002ccb9 f i libucrt:output.obj
 0001:0002bcf6       ??$is_wide_character_specifier@_W@__crt_stdio_output@@YA_N_K_WW4length_modifier@0@@Z 1002ccf6 f i libucrt:output.obj
 0001:0002bd57       ??$peek_va_arg@C@__crt_stdio_output@@YACPAD@Z 1002cd57 f i libucrt:output.obj
 0001:0002bd66       ??$peek_va_arg@E@__crt_stdio_output@@YAEPAD@Z 1002cd66 f i libucrt:output.obj
 0001:0002bd75       ??$peek_va_arg@F@__crt_stdio_output@@YAFPAD@Z 1002cd75 f i libucrt:output.obj
 0001:0002bd85       ??$peek_va_arg@G@__crt_stdio_output@@YAGPAD@Z 1002cd85 f i libucrt:output.obj
 0001:0002bd95       ??$peek_va_arg@H@__crt_stdio_output@@YAHPAD@Z 1002cd95 f i libucrt:output.obj
 0001:0002bda4       ??$peek_va_arg@I@__crt_stdio_output@@YAIPAD@Z 1002cda4 f i libucrt:output.obj
 0001:0002bdb3       ??$peek_va_arg@PAD@__crt_stdio_output@@YAPADPAD@Z 1002cdb3 f i libucrt:output.obj
 0001:0002bdfe       ??$peek_va_arg@PAX@__crt_stdio_output@@YAPAXPAD@Z 1002cdfe f i libucrt:output.obj
 0001:0002be0d       ??$peek_va_arg@U_CRT_DOUBLE@@@__crt_stdio_output@@YA?AU_CRT_DOUBLE@@PAD@Z 1002ce0d f i libucrt:output.obj
 0001:0002be1f       ??$peek_va_arg@_J@__crt_stdio_output@@YA_JPAD@Z 1002ce1f f i libucrt:output.obj
 0001:0002be31       ??$peek_va_arg@_K@__crt_stdio_output@@YA_KPAD@Z 1002ce31 f i libucrt:output.obj
 0001:0002be43       ??$peek_va_arg@_W@__crt_stdio_output@@YA_WPAD@Z 1002ce43 f i libucrt:output.obj
 0001:0002be53       ??$puttc_nolock@ABDPAU_iobuf@@@?$__crt_char_traits@D@@SAHABD$$QAPAU_iobuf@@@Z 1002ce53 f i libucrt:output.obj
 0001:0002be73       ??$puttc_nolock@AB_WPAU_iobuf@@@?$__crt_char_traits@_W@@SAGAB_W$$QAPAU_iobuf@@@Z 1002ce73 f i libucrt:output.obj
 0001:0002be93       ??$read_va_arg@C@__crt_stdio_output@@YACAAPAD@Z 1002ce93 f i libucrt:output.obj
 0001:0002bea9       ??$read_va_arg@E@__crt_stdio_output@@YAEAAPAD@Z 1002cea9 f i libucrt:output.obj
 0001:0002bebf       ??$read_va_arg@F@__crt_stdio_output@@YAFAAPAD@Z 1002cebf f i libucrt:output.obj
 0001:0002bed6       ??$read_va_arg@G@__crt_stdio_output@@YAGAAPAD@Z 1002ced6 f i libucrt:output.obj
 0001:0002beed       ??$read_va_arg@H@__crt_stdio_output@@YAHAAPAD@Z 1002ceed f i libucrt:output.obj
 0001:0002bf03       ??$read_va_arg@I@__crt_stdio_output@@YAIAAPAD@Z 1002cf03 f i libucrt:output.obj
 0001:0002bf19       ??$read_va_arg@PAD@__crt_stdio_output@@YAPADAAPAD@Z 1002cf19 f i libucrt:output.obj
 0001:0002c037       ??$read_va_arg@PAX@__crt_stdio_output@@YAPAXAAPAD@Z 1002d037 f i libucrt:output.obj
 0001:0002c04d       ??$read_va_arg@U_CRT_DOUBLE@@@__crt_stdio_output@@YA?AU_CRT_DOUBLE@@AAPAD@Z 1002d04d f i libucrt:output.obj
 0001:0002c068       ??$read_va_arg@_J@__crt_stdio_output@@YA_JAAPAD@Z 1002d068 f i libucrt:output.obj
 0001:0002c082       ??$read_va_arg@_K@__crt_stdio_output@@YA_KAAPAD@Z 1002d082 f i libucrt:output.obj
 0001:0002c09c       ??$read_va_arg@_W@__crt_stdio_output@@YA_WAAPAD@Z 1002d09c f i libucrt:output.obj
 0001:0002c0b3       ??$scratch_count@D@formatting_buffer@__crt_stdio_output@@QBEIXZ 1002d0b3 f i libucrt:output.obj
 0001:0002c0b8       ??$scratch_data@D@formatting_buffer@__crt_stdio_output@@QAEPADXZ 1002d0b8 f i libucrt:output.obj
 0001:0002c0dd       ??$tcstol@AAPBDPAPADH@?$__crt_char_traits@D@@SAJAAPBD$$QAPAPAD$$QAH@Z 1002d0dd f i libucrt:output.obj
 0001:0002c102       ??$tcstol@AAPB_WPAPA_WH@?$__crt_char_traits@_W@@SAJAAPB_W$$QAPAPA_W$$QAH@Z 1002d102 f i libucrt:output.obj
 0001:0002c127       ??$tcstol@PBDPAPADH@?$__crt_char_traits@D@@SAJ$$QAPBD$$QAPAPAD$$QAH@Z 1002d127 f i libucrt:output.obj
 0001:0002c14c       ??$tcstol@PB_WPAPA_WH@?$__crt_char_traits@_W@@SAJ$$QAPB_W$$QAPAPA_W$$QAH@Z 1002d14c f i libucrt:output.obj
 0001:0002c171       ??$type_case_integer_parse_into_buffer@I@?$output_processor@DV?$stream_output_adapter@D@__crt_stdio_output@@V?$format_validation_base@DV?$stream_output_adapter@D@__crt_stdio_output@@@2@@__crt_stdio_output@@AAEXII_N@Z 1002d171 f i libucrt:output.obj
 0001:0002c200       ??$type_case_integer_parse_into_buffer@I@?$output_processor@DV?$stream_output_adapter@D@__crt_stdio_output@@V?$positional_parameter_base@DV?$stream_output_adapter@D@__crt_stdio_output@@@2@@__crt_stdio_output@@AAEXII_N@Z 1002d200 f i libucrt:output.obj
 0001:0002c28f       ??$type_case_integer_parse_into_buffer@I@?$output_processor@DV?$stream_output_adapter@D@__crt_stdio_output@@V?$standard_base@DV?$stream_output_adapter@D@__crt_stdio_output@@@2@@__crt_stdio_output@@AAEXII_N@Z 1002d28f f i libucrt:output.obj
 0001:0002c31e       ??$type_case_integer_parse_into_buffer@I@?$output_processor@DV?$string_output_adapter@D@__crt_stdio_output@@V?$format_validation_base@DV?$string_output_adapter@D@__crt_stdio_output@@@2@@__crt_stdio_output@@AAEXII_N@Z 1002d31e f i libucrt:output.obj
 0001:0002c3ad       ??$type_case_integer_parse_into_buffer@I@?$output_processor@DV?$string_output_adapter@D@__crt_stdio_output@@V?$positional_parameter_base@DV?$string_output_adapter@D@__crt_stdio_output@@@2@@__crt_stdio_output@@AAEXII_N@Z 1002d3ad f i libucrt:output.obj
 0001:0002c43c       ??$type_case_integer_parse_into_buffer@I@?$output_processor@DV?$string_output_adapter@D@__crt_stdio_output@@V?$standard_base@DV?$string_output_adapter@D@__crt_stdio_output@@@2@@__crt_stdio_output@@AAEXII_N@Z 1002d43c f i libucrt:output.obj
 0001:0002c4cb       ??$type_case_integer_parse_into_buffer@I@?$output_processor@_WV?$stream_output_adapter@_W@__crt_stdio_output@@V?$format_validation_base@_WV?$stream_output_adapter@_W@__crt_stdio_output@@@2@@__crt_stdio_output@@AAEXII_N@Z 1002d4cb f i libucrt:output.obj
 0001:0002c56b       ??$type_case_integer_parse_into_buffer@I@?$output_processor@_WV?$stream_output_adapter@_W@__crt_stdio_output@@V?$positional_parameter_base@_WV?$stream_output_adapter@_W@__crt_stdio_output@@@2@@__crt_stdio_output@@AAEXII_N@Z 1002d56b f i libucrt:output.obj
 0001:0002c60b       ??$type_case_integer_parse_into_buffer@I@?$output_processor@_WV?$stream_output_adapter@_W@__crt_stdio_output@@V?$standard_base@_WV?$stream_output_adapter@_W@__crt_stdio_output@@@2@@__crt_stdio_output@@AAEXII_N@Z 1002d60b f i libucrt:output.obj
 0001:0002c6ab       ??$type_case_integer_parse_into_buffer@I@?$output_processor@_WV?$string_output_adapter@_W@__crt_stdio_output@@V?$format_validation_base@_WV?$string_output_adapter@_W@__crt_stdio_output@@@2@@__crt_stdio_output@@AAEXII_N@Z 1002d6ab f i libucrt:output.obj
 0001:0002c74b       ??$type_case_integer_parse_into_buffer@I@?$output_processor@_WV?$string_output_adapter@_W@__crt_stdio_output@@V?$positional_parameter_base@_WV?$string_output_adapter@_W@__crt_stdio_output@@@2@@__crt_stdio_output@@AAEXII_N@Z 1002d74b f i libucrt:output.obj
 0001:0002c7eb       ??$type_case_integer_parse_into_buffer@I@?$output_processor@_WV?$string_output_adapter@_W@__crt_stdio_output@@V?$standard_base@_WV?$string_output_adapter@_W@__crt_stdio_output@@@2@@__crt_stdio_output@@AAEXII_N@Z 1002d7eb f i libucrt:output.obj
 0001:0002c88b       ??$type_case_integer_parse_into_buffer@_K@?$output_processor@DV?$stream_output_adapter@D@__crt_stdio_output@@V?$format_validation_base@DV?$stream_output_adapter@D@__crt_stdio_output@@@2@@__crt_stdio_output@@AAEX_KI_N@Z 1002d88b f i libucrt:output.obj
 0001:0002c93d       ??$type_case_integer_parse_into_buffer@_K@?$output_processor@DV?$stream_output_adapter@D@__crt_stdio_output@@V?$positional_parameter_base@DV?$stream_output_adapter@D@__crt_stdio_output@@@2@@__crt_stdio_output@@AAEX_KI_N@Z 1002d93d f i libucrt:output.obj
 0001:0002c9ef       ??$type_case_integer_parse_into_buffer@_K@?$output_processor@DV?$stream_output_adapter@D@__crt_stdio_output@@V?$standard_base@DV?$stream_output_adapter@D@__crt_stdio_output@@@2@@__crt_stdio_output@@AAEX_KI_N@Z 1002d9ef f i libucrt:output.obj
 0001:0002caa1       ??$type_case_integer_parse_into_buffer@_K@?$output_processor@DV?$string_output_adapter@D@__crt_stdio_output@@V?$format_validation_base@DV?$string_output_adapter@D@__crt_stdio_output@@@2@@__crt_stdio_output@@AAEX_KI_N@Z 1002daa1 f i libucrt:output.obj
 0001:0002cb53       ??$type_case_integer_parse_into_buffer@_K@?$output_processor@DV?$string_output_adapter@D@__crt_stdio_output@@V?$positional_parameter_base@DV?$string_output_adapter@D@__crt_stdio_output@@@2@@__crt_stdio_output@@AAEX_KI_N@Z 1002db53 f i libucrt:output.obj
 0001:0002cc05       ??$type_case_integer_parse_into_buffer@_K@?$output_processor@DV?$string_output_adapter@D@__crt_stdio_output@@V?$standard_base@DV?$string_output_adapter@D@__crt_stdio_output@@@2@@__crt_stdio_output@@AAEX_KI_N@Z 1002dc05 f i libucrt:output.obj
 0001:0002ccb7       ??$type_case_integer_parse_into_buffer@_K@?$output_processor@_WV?$stream_output_adapter@_W@__crt_stdio_output@@V?$format_validation_base@_WV?$stream_output_adapter@_W@__crt_stdio_output@@@2@@__crt_stdio_output@@AAEX_KI_N@Z 1002dcb7 f i libucrt:output.obj
 0001:0002cd7a       ??$type_case_integer_parse_into_buffer@_K@?$output_processor@_WV?$stream_output_adapter@_W@__crt_stdio_output@@V?$positional_parameter_base@_WV?$stream_output_adapter@_W@__crt_stdio_output@@@2@@__crt_stdio_output@@AAEX_KI_N@Z 1002dd7a f i libucrt:output.obj
 0001:0002ce3d       ??$type_case_integer_parse_into_buffer@_K@?$output_processor@_WV?$stream_output_adapter@_W@__crt_stdio_output@@V?$standard_base@_WV?$stream_output_adapter@_W@__crt_stdio_output@@@2@@__crt_stdio_output@@AAEX_KI_N@Z 1002de3d f i libucrt:output.obj
 0001:0002cf00       ??$type_case_integer_parse_into_buffer@_K@?$output_processor@_WV?$string_output_adapter@_W@__crt_stdio_output@@V?$format_validation_base@_WV?$string_output_adapter@_W@__crt_stdio_output@@@2@@__crt_stdio_output@@AAEX_KI_N@Z 1002df00 f i libucrt:output.obj
 0001:0002cfc3       ??$type_case_integer_parse_into_buffer@_K@?$output_processor@_WV?$string_output_adapter@_W@__crt_stdio_output@@V?$positional_parameter_base@_WV?$string_output_adapter@_W@__crt_stdio_output@@@2@@__crt_stdio_output@@AAEX_KI_N@Z 1002dfc3 f i libucrt:output.obj
 0001:0002d086       ??$type_case_integer_parse_into_buffer@_K@?$output_processor@_WV?$string_output_adapter@_W@__crt_stdio_output@@V?$standard_base@_WV?$string_output_adapter@_W@__crt_stdio_output@@@2@@__crt_stdio_output@@AAEX_KI_N@Z 1002e086 f i libucrt:output.obj
 0001:0002d149       ??$write_multiple_characters@V?$stream_output_adapter@D@__crt_stdio_output@@D@__crt_stdio_output@@YAXABV?$stream_output_adapter@D@0@DHQAH@Z 1002e149 f i libucrt:output.obj
 0001:0002d192       ??$write_multiple_characters@V?$stream_output_adapter@_W@__crt_stdio_output@@D@__crt_stdio_output@@YAXABV?$stream_output_adapter@_W@0@DHQAH@Z 1002e192 f i libucrt:output.obj
 0001:0002d1e2       ??$write_multiple_characters@V?$string_output_adapter@D@__crt_stdio_output@@D@__crt_stdio_output@@YAXABV?$string_output_adapter@D@0@DHQAH@Z 1002e1e2 f i libucrt:output.obj
 0001:0002d219       ??$write_multiple_characters@V?$string_output_adapter@_W@__crt_stdio_output@@D@__crt_stdio_output@@YAXABV?$string_output_adapter@_W@0@DHQAH@Z 1002e219 f i libucrt:output.obj
 0001:0002d48a       ??0?$common_data@D@__crt_stdio_output@@IAE@XZ 1002e48a f i libucrt:output.obj
 0001:0002d4e2       ??0?$common_data@_W@__crt_stdio_output@@IAE@XZ 1002e4e2 f i libucrt:output.obj
 0001:0002d541       ??0?$output_adapter_data@DV?$stream_output_adapter@D@__crt_stdio_output@@@__crt_stdio_output@@IAE@ABV?$stream_output_adapter@D@1@_KQBDQAU__crt_locale_pointers@@QAD@Z 1002e541 f i libucrt:output.obj
 0001:0002d58c       ??0?$output_adapter_data@DV?$string_output_adapter@D@__crt_stdio_output@@@__crt_stdio_output@@IAE@ABV?$string_output_adapter@D@1@_KQBDQAU__crt_locale_pointers@@QAD@Z 1002e58c f i libucrt:output.obj
 0001:0002d5d7       ??0?$output_adapter_data@_WV?$stream_output_adapter@_W@__crt_stdio_output@@@__crt_stdio_output@@IAE@ABV?$stream_output_adapter@_W@1@_KQB_WQAU__crt_locale_pointers@@QAD@Z 1002e5d7 f i libucrt:output.obj
 0001:0002d622       ??0?$output_adapter_data@_WV?$string_output_adapter@_W@__crt_stdio_output@@@__crt_stdio_output@@IAE@ABV?$string_output_adapter@_W@1@_KQB_WQAU__crt_locale_pointers@@QAD@Z 1002e622 f i libucrt:output.obj
 0001:0002d66d       ??0?$output_processor@DV?$stream_output_adapter@D@__crt_stdio_output@@V?$format_validation_base@DV?$stream_output_adapter@D@__crt_stdio_output@@@2@@__crt_stdio_output@@QAE@ABV?$stream_output_adapter@D@1@_KQBDQAU__crt_locale_pointers@@QAD@Z 1002e66d f i libucrt:output.obj
 0001:0002d6a5       ??0?$output_processor@DV?$stream_output_adapter@D@__crt_stdio_output@@V?$positional_parameter_base@DV?$stream_output_adapter@D@__crt_stdio_output@@@2@@__crt_stdio_output@@QAE@ABV?$stream_output_adapter@D@1@_KQBDQAU__crt_locale_pointers@@QAD@Z 1002e6a5 f i libucrt:output.obj
 0001:0002d6d5       ??0?$output_processor@DV?$stream_output_adapter@D@__crt_stdio_output@@V?$standard_base@DV?$stream_output_adapter@D@__crt_stdio_output@@@2@@__crt_stdio_output@@QAE@ABV?$stream_output_adapter@D@1@_KQBDQAU__crt_locale_pointers@@QAD@Z 1002e6d5 f i libucrt:output.obj
 0001:0002d70d       ??0?$output_processor@DV?$string_output_adapter@D@__crt_stdio_output@@V?$format_validation_base@DV?$string_output_adapter@D@__crt_stdio_output@@@2@@__crt_stdio_output@@QAE@ABV?$string_output_adapter@D@1@_KQBDQAU__crt_locale_pointers@@QAD@Z 1002e70d f i libucrt:output.obj
 0001:0002d745       ??0?$output_processor@DV?$string_output_adapter@D@__crt_stdio_output@@V?$positional_parameter_base@DV?$string_output_adapter@D@__crt_stdio_output@@@2@@__crt_stdio_output@@QAE@ABV?$string_output_adapter@D@1@_KQBDQAU__crt_locale_pointers@@QAD@Z 1002e745 f i libucrt:output.obj
 0001:0002d775       ??0?$output_processor@DV?$string_output_adapter@D@__crt_stdio_output@@V?$standard_base@DV?$string_output_adapter@D@__crt_stdio_output@@@2@@__crt_stdio_output@@QAE@ABV?$string_output_adapter@D@1@_KQBDQAU__crt_locale_pointers@@QAD@Z 1002e775 f i libucrt:output.obj
 0001:0002d7ad       ??0?$output_processor@_WV?$stream_output_adapter@_W@__crt_stdio_output@@V?$format_validation_base@_WV?$stream_output_adapter@_W@__crt_stdio_output@@@2@@__crt_stdio_output@@QAE@ABV?$stream_output_adapter@_W@1@_KQB_WQAU__crt_locale_pointers@@QAD@Z 1002e7ad f i libucrt:output.obj
 0001:0002d7e5       ??0?$output_processor@_WV?$stream_output_adapter@_W@__crt_stdio_output@@V?$positional_parameter_base@_WV?$stream_output_adapter@_W@__crt_stdio_output@@@2@@__crt_stdio_output@@QAE@ABV?$stream_output_adapter@_W@1@_KQB_WQAU__crt_locale_pointers@@QAD@Z 1002e7e5 f i libucrt:output.obj
 0001:0002d815       ??0?$output_processor@_WV?$stream_output_adapter@_W@__crt_stdio_output@@V?$standard_base@_WV?$stream_output_adapter@_W@__crt_stdio_output@@@2@@__crt_stdio_output@@QAE@ABV?$stream_output_adapter@_W@1@_KQB_WQAU__crt_locale_pointers@@QAD@Z 1002e815 f i libucrt:output.obj
 0001:0002d84d       ??0?$output_processor@_WV?$string_output_adapter@_W@__crt_stdio_output@@V?$format_validation_base@_WV?$string_output_adapter@_W@__crt_stdio_output@@@2@@__crt_stdio_output@@QAE@ABV?$string_output_adapter@_W@1@_KQB_WQAU__crt_locale_pointers@@QAD@Z 1002e84d f i libucrt:output.obj
 0001:0002d885       ??0?$output_processor@_WV?$string_output_adapter@_W@__crt_stdio_output@@V?$positional_parameter_base@_WV?$string_output_adapter@_W@__crt_stdio_output@@@2@@__crt_stdio_output@@QAE@ABV?$string_output_adapter@_W@1@_KQB_WQAU__crt_locale_pointers@@QAD@Z 1002e885 f i libucrt:output.obj
 0001:0002d8b5       ??0?$output_processor@_WV?$string_output_adapter@_W@__crt_stdio_output@@V?$standard_base@_WV?$string_output_adapter@_W@__crt_stdio_output@@@2@@__crt_stdio_output@@QAE@ABV?$string_output_adapter@_W@1@_KQB_WQAU__crt_locale_pointers@@QAD@Z 1002e8b5 f i libucrt:output.obj
 0001:0002d8ed       ??0?$stream_output_adapter@D@__crt_stdio_output@@QAE@QAU_iobuf@@@Z 1002e8ed f i libucrt:output.obj
 0001:0002d901       ??0?$stream_output_adapter@_W@__crt_stdio_output@@QAE@QAU_iobuf@@@Z 1002e901 f i libucrt:output.obj
 0001:0002d915       ??0?$string_output_adapter@D@__crt_stdio_output@@QAE@QAU?$string_output_adapter_context@D@1@@Z 1002e915 f i libucrt:output.obj
 0001:0002d929       ??0?$string_output_adapter@_W@__crt_stdio_output@@QAE@QAU?$string_output_adapter_context@_W@1@@Z 1002e929 f i libucrt:output.obj
 0001:0002d93d       ??0__crt_deferred_errno_cache@@QAE@XZ 1002e93d f i libucrt:output.obj
 0001:0002d943       ??0__crt_errno_guard@@QAE@QAH@Z 1002e943 f i libucrt:output.obj
 0001:0002d961       ??0formatting_buffer@__crt_stdio_output@@QAE@XZ 1002e961 f i libucrt:output.obj
 0001:0002d976       ??1?$common_data@D@__crt_stdio_output@@QAE@XZ 1002e976 f i libucrt:output.obj
 0001:0002d980       ??1?$common_data@_W@__crt_stdio_output@@QAE@XZ 1002e980 f i libucrt:output.obj
 0001:0002d98a       ??1?$format_validation_base@DV?$stream_output_adapter@D@__crt_stdio_output@@@__crt_stdio_output@@QAE@XZ 1002e98a f i libucrt:output.obj
 0001:0002d994       ??1?$format_validation_base@DV?$string_output_adapter@D@__crt_stdio_output@@@__crt_stdio_output@@QAE@XZ 1002e994 f i libucrt:output.obj
 0001:0002d99e       ??1?$format_validation_base@_WV?$stream_output_adapter@_W@__crt_stdio_output@@@__crt_stdio_output@@QAE@XZ 1002e99e f i libucrt:output.obj
 0001:0002d9a8       ??1?$format_validation_base@_WV?$string_output_adapter@_W@__crt_stdio_output@@@__crt_stdio_output@@QAE@XZ 1002e9a8 f i libucrt:output.obj
 0001:0002d9b2       ??1?$output_adapter_data@DV?$stream_output_adapter@D@__crt_stdio_output@@@__crt_stdio_output@@QAE@XZ 1002e9b2 f i libucrt:output.obj
 0001:0002d9bc       ??1?$output_adapter_data@DV?$string_output_adapter@D@__crt_stdio_output@@@__crt_stdio_output@@QAE@XZ 1002e9bc f i libucrt:output.obj
 0001:0002d9c6       ??1?$output_adapter_data@_WV?$stream_output_adapter@_W@__crt_stdio_output@@@__crt_stdio_output@@QAE@XZ 1002e9c6 f i libucrt:output.obj
 0001:0002d9d0       ??1?$output_adapter_data@_WV?$string_output_adapter@_W@__crt_stdio_output@@@__crt_stdio_output@@QAE@XZ 1002e9d0 f i libucrt:output.obj
 0001:0002d9da       ??1?$output_processor@DV?$stream_output_adapter@D@__crt_stdio_output@@V?$format_validation_base@DV?$stream_output_adapter@D@__crt_stdio_output@@@2@@__crt_stdio_output@@QAE@XZ 1002e9da f i libucrt:output.obj
 0001:0002d9e4       ??1?$output_processor@DV?$stream_output_adapter@D@__crt_stdio_output@@V?$positional_parameter_base@DV?$stream_output_adapter@D@__crt_stdio_output@@@2@@__crt_stdio_output@@QAE@XZ 1002e9e4 f i libucrt:output.obj
 0001:0002d9ee       ??1?$output_processor@DV?$stream_output_adapter@D@__crt_stdio_output@@V?$standard_base@DV?$stream_output_adapter@D@__crt_stdio_output@@@2@@__crt_stdio_output@@QAE@XZ 1002e9ee f i libucrt:output.obj
 0001:0002d9f8       ??1?$output_processor@DV?$string_output_adapter@D@__crt_stdio_output@@V?$format_validation_base@DV?$string_output_adapter@D@__crt_stdio_output@@@2@@__crt_stdio_output@@QAE@XZ 1002e9f8 f i libucrt:output.obj
 0001:0002da02       ??1?$output_processor@DV?$string_output_adapter@D@__crt_stdio_output@@V?$positional_parameter_base@DV?$string_output_adapter@D@__crt_stdio_output@@@2@@__crt_stdio_output@@QAE@XZ 1002ea02 f i libucrt:output.obj
 0001:0002da0c       ??1?$output_processor@DV?$string_output_adapter@D@__crt_stdio_output@@V?$standard_base@DV?$string_output_adapter@D@__crt_stdio_output@@@2@@__crt_stdio_output@@QAE@XZ 1002ea0c f i libucrt:output.obj
 0001:0002da16       ??1?$output_processor@_WV?$stream_output_adapter@_W@__crt_stdio_output@@V?$format_validation_base@_WV?$stream_output_adapter@_W@__crt_stdio_output@@@2@@__crt_stdio_output@@QAE@XZ 1002ea16 f i libucrt:output.obj
 0001:0002da20       ??1?$output_processor@_WV?$stream_output_adapter@_W@__crt_stdio_output@@V?$positional_parameter_base@_WV?$stream_output_adapter@_W@__crt_stdio_output@@@2@@__crt_stdio_output@@QAE@XZ 1002ea20 f i libucrt:output.obj
 0001:0002da2a       ??1?$output_processor@_WV?$stream_output_adapter@_W@__crt_stdio_output@@V?$standard_base@_WV?$stream_output_adapter@_W@__crt_stdio_output@@@2@@__crt_stdio_output@@QAE@XZ 1002ea2a f i libucrt:output.obj
 0001:0002da34       ??1?$output_processor@_WV?$string_output_adapter@_W@__crt_stdio_output@@V?$format_validation_base@_WV?$string_output_adapter@_W@__crt_stdio_output@@@2@@__crt_stdio_output@@QAE@XZ 1002ea34 f i libucrt:output.obj
 0001:0002da3e       ??1?$output_processor@_WV?$string_output_adapter@_W@__crt_stdio_output@@V?$positional_parameter_base@_WV?$string_output_adapter@_W@__crt_stdio_output@@@2@@__crt_stdio_output@@QAE@XZ 1002ea3e f i libucrt:output.obj
 0001:0002da48       ??1?$output_processor@_WV?$string_output_adapter@_W@__crt_stdio_output@@V?$standard_base@_WV?$string_output_adapter@_W@__crt_stdio_output@@@2@@__crt_stdio_output@@QAE@XZ 1002ea48 f i libucrt:output.obj
 0001:0002da52       ??1?$positional_parameter_base@DV?$stream_output_adapter@D@__crt_stdio_output@@@__crt_stdio_output@@QAE@XZ 1002ea52 f i libucrt:output.obj
 0001:0002da5c       ??1?$positional_parameter_base@DV?$string_output_adapter@D@__crt_stdio_output@@@__crt_stdio_output@@QAE@XZ 1002ea5c f i libucrt:output.obj
 0001:0002da66       ??1?$positional_parameter_base@_WV?$stream_output_adapter@_W@__crt_stdio_output@@@__crt_stdio_output@@QAE@XZ 1002ea66 f i libucrt:output.obj
 0001:0002da70       ??1?$positional_parameter_base@_WV?$string_output_adapter@_W@__crt_stdio_output@@@__crt_stdio_output@@QAE@XZ 1002ea70 f i libucrt:output.obj
 0001:0002da7a       ??1?$standard_base@DV?$stream_output_adapter@D@__crt_stdio_output@@@__crt_stdio_output@@QAE@XZ 1002ea7a f i libucrt:output.obj
 0001:0002da84       ??1?$standard_base@DV?$string_output_adapter@D@__crt_stdio_output@@@__crt_stdio_output@@QAE@XZ 1002ea84 f i libucrt:output.obj
 0001:0002da8e       ??1?$standard_base@_WV?$stream_output_adapter@_W@__crt_stdio_output@@@__crt_stdio_output@@QAE@XZ 1002ea8e f i libucrt:output.obj
 0001:0002da98       ??1?$standard_base@_WV?$string_output_adapter@_W@__crt_stdio_output@@@__crt_stdio_output@@QAE@XZ 1002ea98 f i libucrt:output.obj
 0001:0002daa2       ??1__crt_errno_guard@@QAE@XZ 1002eaa2 f i libucrt:output.obj
 0001:0002dab7       ??1formatting_buffer@__crt_stdio_output@@QAE@XZ 1002eab7 f i libucrt:output.obj
 0001:0002dad7       ??4?$__crt_unique_heap_ptr@DU__crt_internal_free_policy@@@@QAEAAV0@$$QAV0@@Z 1002ead7 f i libucrt:output.obj
 0001:0002e1b2       ?adjust_hexit@?$output_processor@DV?$stream_output_adapter@D@__crt_stdio_output@@V?$format_validation_base@DV?$stream_output_adapter@D@__crt_stdio_output@@@2@@__crt_stdio_output@@CADH_N@Z 1002f1b2 f i libucrt:output.obj
 0001:0002e1cb       ?adjust_hexit@?$output_processor@DV?$stream_output_adapter@D@__crt_stdio_output@@V?$positional_parameter_base@DV?$stream_output_adapter@D@__crt_stdio_output@@@2@@__crt_stdio_output@@CADH_N@Z 1002f1cb f i libucrt:output.obj
 0001:0002e1e4       ?adjust_hexit@?$output_processor@DV?$stream_output_adapter@D@__crt_stdio_output@@V?$standard_base@DV?$stream_output_adapter@D@__crt_stdio_output@@@2@@__crt_stdio_output@@CADH_N@Z 1002f1e4 f i libucrt:output.obj
 0001:0002e1fd       ?adjust_hexit@?$output_processor@DV?$string_output_adapter@D@__crt_stdio_output@@V?$format_validation_base@DV?$string_output_adapter@D@__crt_stdio_output@@@2@@__crt_stdio_output@@CADH_N@Z 1002f1fd f i libucrt:output.obj
 0001:0002e216       ?adjust_hexit@?$output_processor@DV?$string_output_adapter@D@__crt_stdio_output@@V?$positional_parameter_base@DV?$string_output_adapter@D@__crt_stdio_output@@@2@@__crt_stdio_output@@CADH_N@Z 1002f216 f i libucrt:output.obj
 0001:0002e22f       ?adjust_hexit@?$output_processor@DV?$string_output_adapter@D@__crt_stdio_output@@V?$standard_base@DV?$string_output_adapter@D@__crt_stdio_output@@@2@@__crt_stdio_output@@CADH_N@Z 1002f22f f i libucrt:output.obj
 0001:0002e248       ?adjust_hexit@?$output_processor@_WV?$stream_output_adapter@_W@__crt_stdio_output@@V?$format_validation_base@_WV?$stream_output_adapter@_W@__crt_stdio_output@@@2@@__crt_stdio_output@@CADH_N@Z 1002f248 f i libucrt:output.obj
 0001:0002e261       ?adjust_hexit@?$output_processor@_WV?$stream_output_adapter@_W@__crt_stdio_output@@V?$positional_parameter_base@_WV?$stream_output_adapter@_W@__crt_stdio_output@@@2@@__crt_stdio_output@@CADH_N@Z 1002f261 f i libucrt:output.obj
 0001:0002e27a       ?adjust_hexit@?$output_processor@_WV?$stream_output_adapter@_W@__crt_stdio_output@@V?$standard_base@_WV?$stream_output_adapter@_W@__crt_stdio_output@@@2@@__crt_stdio_output@@CADH_N@Z 1002f27a f i libucrt:output.obj
 0001:0002e293       ?adjust_hexit@?$output_processor@_WV?$string_output_adapter@_W@__crt_stdio_output@@V?$format_validation_base@_WV?$string_output_adapter@_W@__crt_stdio_output@@@2@@__crt_stdio_output@@CADH_N@Z 1002f293 f i libucrt:output.obj
 0001:0002e2ac       ?adjust_hexit@?$output_processor@_WV?$string_output_adapter@_W@__crt_stdio_output@@V?$positional_parameter_base@_WV?$string_output_adapter@_W@__crt_stdio_output@@@2@@__crt_stdio_output@@CADH_N@Z 1002f2ac f i libucrt:output.obj
 0001:0002e2c5       ?adjust_hexit@?$output_processor@_WV?$string_output_adapter@_W@__crt_stdio_output@@V?$standard_base@_WV?$string_output_adapter@_W@__crt_stdio_output@@@2@@__crt_stdio_output@@CADH_N@Z 1002f2c5 f i libucrt:output.obj
 0001:0002e2de       ?advance_to_next_pass@?$positional_parameter_base@DV?$stream_output_adapter@D@__crt_stdio_output@@@__crt_stdio_output@@IAE_NXZ 1002f2de f i libucrt:output.obj
 0001:0002e33d       ?advance_to_next_pass@?$positional_parameter_base@DV?$string_output_adapter@D@__crt_stdio_output@@@__crt_stdio_output@@IAE_NXZ 1002f33d f i libucrt:output.obj
 0001:0002e39c       ?advance_to_next_pass@?$positional_parameter_base@_WV?$stream_output_adapter@_W@__crt_stdio_output@@@__crt_stdio_output@@IAE_NXZ 1002f39c f i libucrt:output.obj
 0001:0002e3fb       ?advance_to_next_pass@?$positional_parameter_base@_WV?$string_output_adapter@_W@__crt_stdio_output@@@__crt_stdio_output@@IAE_NXZ 1002f3fb f i libucrt:output.obj
 0001:0002e45a       ?advance_to_next_pass@?$standard_base@DV?$stream_output_adapter@D@__crt_stdio_output@@@__crt_stdio_output@@IAE_NXZ 1002f45a f i libucrt:output.obj
 0001:0002e46f       ?advance_to_next_pass@?$standard_base@DV?$string_output_adapter@D@__crt_stdio_output@@@__crt_stdio_output@@IAE_NXZ 1002f46f f i libucrt:output.obj
 0001:0002e484       ?advance_to_next_pass@?$standard_base@_WV?$stream_output_adapter@_W@__crt_stdio_output@@@__crt_stdio_output@@IAE_NXZ 1002f484 f i libucrt:output.obj
 0001:0002e499       ?advance_to_next_pass@?$standard_base@_WV?$string_output_adapter@_W@__crt_stdio_output@@@__crt_stdio_output@@IAE_NXZ 1002f499 f i libucrt:output.obj
 0001:0002e4ae       ?crop_zeroes@__crt_stdio_output@@YAXPADQAU__crt_locale_pointers@@@Z 1002f4ae f i libucrt:output.obj
 0001:0002e526       ?find_next_state@?$output_processor@DV?$stream_output_adapter@D@__crt_stdio_output@@V?$format_validation_base@DV?$stream_output_adapter@D@__crt_stdio_output@@@2@@__crt_stdio_output@@ABE?AW4state@2@DW432@@Z 1002f526 f i libucrt:output.obj
 0001:0002e578       ?find_next_state@?$output_processor@DV?$stream_output_adapter@D@__crt_stdio_output@@V?$positional_parameter_base@DV?$stream_output_adapter@D@__crt_stdio_output@@@2@@__crt_stdio_output@@ABE?AW4state@2@DW432@@Z 1002f578 f i libucrt:output.obj
 0001:0002e5ca       ?find_next_state@?$output_processor@DV?$stream_output_adapter@D@__crt_stdio_output@@V?$standard_base@DV?$stream_output_adapter@D@__crt_stdio_output@@@2@@__crt_stdio_output@@ABE?AW4state@2@DW432@@Z 1002f5ca f i libucrt:output.obj
 0001:0002e618       ?find_next_state@?$output_processor@DV?$string_output_adapter@D@__crt_stdio_output@@V?$format_validation_base@DV?$string_output_adapter@D@__crt_stdio_output@@@2@@__crt_stdio_output@@ABE?AW4state@2@DW432@@Z 1002f618 f i libucrt:output.obj
 0001:0002e66a       ?find_next_state@?$output_processor@DV?$string_output_adapter@D@__crt_stdio_output@@V?$positional_parameter_base@DV?$string_output_adapter@D@__crt_stdio_output@@@2@@__crt_stdio_output@@ABE?AW4state@2@DW432@@Z 1002f66a f i libucrt:output.obj
 0001:0002e6bc       ?find_next_state@?$output_processor@DV?$string_output_adapter@D@__crt_stdio_output@@V?$standard_base@DV?$string_output_adapter@D@__crt_stdio_output@@@2@@__crt_stdio_output@@ABE?AW4state@2@DW432@@Z 1002f6bc f i libucrt:output.obj
 0001:0002e70a       ?find_next_state@?$output_processor@_WV?$stream_output_adapter@_W@__crt_stdio_output@@V?$format_validation_base@_WV?$stream_output_adapter@_W@__crt_stdio_output@@@2@@__crt_stdio_output@@ABE?AW4state@2@_WW432@@Z 1002f70a f i libucrt:output.obj
 0001:0002e75f       ?find_next_state@?$output_processor@_WV?$stream_output_adapter@_W@__crt_stdio_output@@V?$positional_parameter_base@_WV?$stream_output_adapter@_W@__crt_stdio_output@@@2@@__crt_stdio_output@@ABE?AW4state@2@_WW432@@Z 1002f75f f i libucrt:output.obj
 0001:0002e7b4       ?find_next_state@?$output_processor@_WV?$stream_output_adapter@_W@__crt_stdio_output@@V?$standard_base@_WV?$stream_output_adapter@_W@__crt_stdio_output@@@2@@__crt_stdio_output@@ABE?AW4state@2@_WW432@@Z 1002f7b4 f i libucrt:output.obj
 0001:0002e805       ?find_next_state@?$output_processor@_WV?$string_output_adapter@_W@__crt_stdio_output@@V?$format_validation_base@_WV?$string_output_adapter@_W@__crt_stdio_output@@@2@@__crt_stdio_output@@ABE?AW4state@2@_WW432@@Z 1002f805 f i libucrt:output.obj
 0001:0002e85a       ?find_next_state@?$output_processor@_WV?$string_output_adapter@_W@__crt_stdio_output@@V?$positional_parameter_base@_WV?$string_output_adapter@_W@__crt_stdio_output@@@2@@__crt_stdio_output@@ABE?AW4state@2@_WW432@@Z 1002f85a f i libucrt:output.obj
 0001:0002e8af       ?find_next_state@?$output_processor@_WV?$string_output_adapter@_W@__crt_stdio_output@@V?$standard_base@_WV?$string_output_adapter@_W@__crt_stdio_output@@@2@@__crt_stdio_output@@ABE?AW4state@2@_WW432@@Z 1002f8af f i libucrt:output.obj
 0001:0002e900       ?force_decimal_point@__crt_stdio_output@@YAXPADQAU__crt_locale_pointers@@@Z 1002f900 f i libucrt:output.obj
 0001:0002e973       ?get@__crt_deferred_errno_cache@@QAEAAHXZ 1002f973 f i libucrt:output.obj
 0001:0002e98c       ?get_parameter_type@?$positional_parameter_base@DV?$stream_output_adapter@D@__crt_stdio_output@@@__crt_stdio_output@@CA?AW4parameter_type@12@F@Z 1002f98c f i libucrt:output.obj
 0001:0002e990       ?get_parameter_type@?$positional_parameter_base@DV?$stream_output_adapter@D@__crt_stdio_output@@@__crt_stdio_output@@CA?AW4parameter_type@12@G@Z 1002f990 f i libucrt:output.obj
 0001:0002e994       ?get_parameter_type@?$positional_parameter_base@DV?$stream_output_adapter@D@__crt_stdio_output@@@__crt_stdio_output@@CA?AW4parameter_type@12@H@Z 1002f994 f i libucrt:output.obj
 0001:0002e998       ?get_parameter_type@?$positional_parameter_base@DV?$stream_output_adapter@D@__crt_stdio_output@@@__crt_stdio_output@@CA?AW4parameter_type@12@I@Z 1002f998 f i libucrt:output.obj
 0001:0002e99c       ?get_parameter_type@?$positional_parameter_base@DV?$stream_output_adapter@D@__crt_stdio_output@@@__crt_stdio_output@@CA?AW4parameter_type@12@U_CRT_DOUBLE@@@Z 1002f99c f i libucrt:output.obj
 0001:0002e9a0       ?get_parameter_type@?$positional_parameter_base@DV?$stream_output_adapter@D@__crt_stdio_output@@@__crt_stdio_output@@CA?AW4parameter_type@12@_J@Z 1002f9a0 f i libucrt:output.obj
 0001:0002e9a4       ?get_parameter_type@?$positional_parameter_base@DV?$stream_output_adapter@D@__crt_stdio_output@@@__crt_stdio_output@@CA?AW4parameter_type@12@_K@Z 1002f9a4 f i libucrt:output.obj
 0001:0002e9a8       ?get_parameter_type@?$positional_parameter_base@DV?$stream_output_adapter@D@__crt_stdio_output@@@__crt_stdio_output@@CA?AW4parameter_type@12@_W@Z 1002f9a8 f i libucrt:output.obj
 0001:0002e9ac       ?get_parameter_type@?$positional_parameter_base@DV?$string_output_adapter@D@__crt_stdio_output@@@__crt_stdio_output@@CA?AW4parameter_type@12@F@Z 1002f9ac f i libucrt:output.obj
 0001:0002e9b0       ?get_parameter_type@?$positional_parameter_base@DV?$string_output_adapter@D@__crt_stdio_output@@@__crt_stdio_output@@CA?AW4parameter_type@12@G@Z 1002f9b0 f i libucrt:output.obj
 0001:0002e9b4       ?get_parameter_type@?$positional_parameter_base@DV?$string_output_adapter@D@__crt_stdio_output@@@__crt_stdio_output@@CA?AW4parameter_type@12@H@Z 1002f9b4 f i libucrt:output.obj
 0001:0002e9b8       ?get_parameter_type@?$positional_parameter_base@DV?$string_output_adapter@D@__crt_stdio_output@@@__crt_stdio_output@@CA?AW4parameter_type@12@I@Z 1002f9b8 f i libucrt:output.obj
 0001:0002e9bc       ?get_parameter_type@?$positional_parameter_base@DV?$string_output_adapter@D@__crt_stdio_output@@@__crt_stdio_output@@CA?AW4parameter_type@12@U_CRT_DOUBLE@@@Z 1002f9bc f i libucrt:output.obj
 0001:0002e9c0       ?get_parameter_type@?$positional_parameter_base@DV?$string_output_adapter@D@__crt_stdio_output@@@__crt_stdio_output@@CA?AW4parameter_type@12@_J@Z 1002f9c0 f i libucrt:output.obj
 0001:0002e9c4       ?get_parameter_type@?$positional_parameter_base@DV?$string_output_adapter@D@__crt_stdio_output@@@__crt_stdio_output@@CA?AW4parameter_type@12@_K@Z 1002f9c4 f i libucrt:output.obj
 0001:0002e9c8       ?get_parameter_type@?$positional_parameter_base@DV?$string_output_adapter@D@__crt_stdio_output@@@__crt_stdio_output@@CA?AW4parameter_type@12@_W@Z 1002f9c8 f i libucrt:output.obj
 0001:0002e9cc       ?get_parameter_type@?$positional_parameter_base@_WV?$stream_output_adapter@_W@__crt_stdio_output@@@__crt_stdio_output@@CA?AW4parameter_type@12@F@Z 1002f9cc f i libucrt:output.obj
 0001:0002e9d0       ?get_parameter_type@?$positional_parameter_base@_WV?$stream_output_adapter@_W@__crt_stdio_output@@@__crt_stdio_output@@CA?AW4parameter_type@12@G@Z 1002f9d0 f i libucrt:output.obj
 0001:0002e9d4       ?get_parameter_type@?$positional_parameter_base@_WV?$stream_output_adapter@_W@__crt_stdio_output@@@__crt_stdio_output@@CA?AW4parameter_type@12@H@Z 1002f9d4 f i libucrt:output.obj
 0001:0002e9d8       ?get_parameter_type@?$positional_parameter_base@_WV?$stream_output_adapter@_W@__crt_stdio_output@@@__crt_stdio_output@@CA?AW4parameter_type@12@I@Z 1002f9d8 f i libucrt:output.obj
 0001:0002e9dc       ?get_parameter_type@?$positional_parameter_base@_WV?$stream_output_adapter@_W@__crt_stdio_output@@@__crt_stdio_output@@CA?AW4parameter_type@12@U_CRT_DOUBLE@@@Z 1002f9dc f i libucrt:output.obj
 0001:0002e9e0       ?get_parameter_type@?$positional_parameter_base@_WV?$stream_output_adapter@_W@__crt_stdio_output@@@__crt_stdio_output@@CA?AW4parameter_type@12@_J@Z 1002f9e0 f i libucrt:output.obj
 0001:0002e9e4       ?get_parameter_type@?$positional_parameter_base@_WV?$stream_output_adapter@_W@__crt_stdio_output@@@__crt_stdio_output@@CA?AW4parameter_type@12@_K@Z 1002f9e4 f i libucrt:output.obj
 0001:0002e9e8       ?get_parameter_type@?$positional_parameter_base@_WV?$stream_output_adapter@_W@__crt_stdio_output@@@__crt_stdio_output@@CA?AW4parameter_type@12@_W@Z 1002f9e8 f i libucrt:output.obj
 0001:0002e9ec       ?get_parameter_type@?$positional_parameter_base@_WV?$string_output_adapter@_W@__crt_stdio_output@@@__crt_stdio_output@@CA?AW4parameter_type@12@F@Z 1002f9ec f i libucrt:output.obj
 0001:0002e9f0       ?get_parameter_type@?$positional_parameter_base@_WV?$string_output_adapter@_W@__crt_stdio_output@@@__crt_stdio_output@@CA?AW4parameter_type@12@G@Z 1002f9f0 f i libucrt:output.obj
 0001:0002e9f4       ?get_parameter_type@?$positional_parameter_base@_WV?$string_output_adapter@_W@__crt_stdio_output@@@__crt_stdio_output@@CA?AW4parameter_type@12@H@Z 1002f9f4 f i libucrt:output.obj
 0001:0002e9f8       ?get_parameter_type@?$positional_parameter_base@_WV?$string_output_adapter@_W@__crt_stdio_output@@@__crt_stdio_output@@CA?AW4parameter_type@12@I@Z 1002f9f8 f i libucrt:output.obj
 0001:0002e9fc       ?get_parameter_type@?$positional_parameter_base@_WV?$string_output_adapter@_W@__crt_stdio_output@@@__crt_stdio_output@@CA?AW4parameter_type@12@U_CRT_DOUBLE@@@Z 1002f9fc f i libucrt:output.obj
 0001:0002ea00       ?get_parameter_type@?$positional_parameter_base@_WV?$string_output_adapter@_W@__crt_stdio_output@@@__crt_stdio_output@@CA?AW4parameter_type@12@_J@Z 1002fa00 f i libucrt:output.obj
 0001:0002ea04       ?get_parameter_type@?$positional_parameter_base@_WV?$string_output_adapter@_W@__crt_stdio_output@@@__crt_stdio_output@@CA?AW4parameter_type@12@_K@Z 1002fa04 f i libucrt:output.obj
 0001:0002ea08       ?get_parameter_type@?$positional_parameter_base@_WV?$string_output_adapter@_W@__crt_stdio_output@@@__crt_stdio_output@@CA?AW4parameter_type@12@_W@Z 1002fa08 f i libucrt:output.obj
 0001:0002ea0c       ?has_flag@?$output_processor@DV?$stream_output_adapter@D@__crt_stdio_output@@V?$format_validation_base@DV?$stream_output_adapter@D@__crt_stdio_output@@@2@@__crt_stdio_output@@ABE_NI@Z 1002fa0c f i libucrt:output.obj
 0001:0002ea22       ?has_flag@?$output_processor@DV?$stream_output_adapter@D@__crt_stdio_output@@V?$positional_parameter_base@DV?$stream_output_adapter@D@__crt_stdio_output@@@2@@__crt_stdio_output@@ABE_NI@Z 1002fa22 f i libucrt:output.obj
 0001:0002ea38       ?has_flag@?$output_processor@DV?$stream_output_adapter@D@__crt_stdio_output@@V?$standard_base@DV?$stream_output_adapter@D@__crt_stdio_output@@@2@@__crt_stdio_output@@ABE_NI@Z 1002fa38 f i libucrt:output.obj
 0001:0002ea4e       ?has_flag@?$output_processor@DV?$string_output_adapter@D@__crt_stdio_output@@V?$format_validation_base@DV?$string_output_adapter@D@__crt_stdio_output@@@2@@__crt_stdio_output@@ABE_NI@Z 1002fa4e f i libucrt:output.obj
 0001:0002ea64       ?has_flag@?$output_processor@DV?$string_output_adapter@D@__crt_stdio_output@@V?$positional_parameter_base@DV?$string_output_adapter@D@__crt_stdio_output@@@2@@__crt_stdio_output@@ABE_NI@Z 1002fa64 f i libucrt:output.obj
 0001:0002ea7a       ?has_flag@?$output_processor@DV?$string_output_adapter@D@__crt_stdio_output@@V?$standard_base@DV?$string_output_adapter@D@__crt_stdio_output@@@2@@__crt_stdio_output@@ABE_NI@Z 1002fa7a f i libucrt:output.obj
 0001:0002ea90       ?has_flag@?$output_processor@_WV?$stream_output_adapter@_W@__crt_stdio_output@@V?$format_validation_base@_WV?$stream_output_adapter@_W@__crt_stdio_output@@@2@@__crt_stdio_output@@ABE_NI@Z 1002fa90 f i libucrt:output.obj
 0001:0002eaa6       ?has_flag@?$output_processor@_WV?$stream_output_adapter@_W@__crt_stdio_output@@V?$positional_parameter_base@_WV?$stream_output_adapter@_W@__crt_stdio_output@@@2@@__crt_stdio_output@@ABE_NI@Z 1002faa6 f i libucrt:output.obj
 0001:0002eabc       ?has_flag@?$output_processor@_WV?$stream_output_adapter@_W@__crt_stdio_output@@V?$standard_base@_WV?$stream_output_adapter@_W@__crt_stdio_output@@@2@@__crt_stdio_output@@ABE_NI@Z 1002fabc f i libucrt:output.obj
 0001:0002ead2       ?has_flag@?$output_processor@_WV?$string_output_adapter@_W@__crt_stdio_output@@V?$format_validation_base@_WV?$string_output_adapter@_W@__crt_stdio_output@@@2@@__crt_stdio_output@@ABE_NI@Z 1002fad2 f i libucrt:output.obj
 0001:0002eae8       ?has_flag@?$output_processor@_WV?$string_output_adapter@_W@__crt_stdio_output@@V?$positional_parameter_base@_WV?$string_output_adapter@_W@__crt_stdio_output@@@2@@__crt_stdio_output@@ABE_NI@Z 1002fae8 f i libucrt:output.obj
 0001:0002eafe       ?has_flag@?$output_processor@_WV?$string_output_adapter@_W@__crt_stdio_output@@V?$standard_base@_WV?$string_output_adapter@_W@__crt_stdio_output@@@2@@__crt_stdio_output@@ABE_NI@Z 1002fafe f i libucrt:output.obj
 0001:0002eb14       ?is_positional_parameter_reappearance_consistent@?$positional_parameter_base@DV?$stream_output_adapter@D@__crt_stdio_output@@@__crt_stdio_output@@AAE_NABUparameter_data@12@W4parameter_type@12@DW4length_modifier@2@@Z 1002fb14 f i libucrt:output.obj
 0001:0002ec74       ?is_positional_parameter_reappearance_consistent@?$positional_parameter_base@DV?$string_output_adapter@D@__crt_stdio_output@@@__crt_stdio_output@@AAE_NABUparameter_data@12@W4parameter_type@12@DW4length_modifier@2@@Z 1002fc74 f i libucrt:output.obj
 0001:0002edd4       ?is_positional_parameter_reappearance_consistent@?$positional_parameter_base@_WV?$stream_output_adapter@_W@__crt_stdio_output@@@__crt_stdio_output@@AAE_NABUparameter_data@12@W4parameter_type@12@_WW4length_modifier@2@@Z 1002fdd4 f i libucrt:output.obj
 0001:0002ef33       ?is_positional_parameter_reappearance_consistent@?$positional_parameter_base@_WV?$string_output_adapter@_W@__crt_stdio_output@@@__crt_stdio_output@@AAE_NABUparameter_data@12@W4parameter_type@12@_WW4length_modifier@2@@Z 1002ff33 f i libucrt:output.obj
 0001:0002f092       ?narrow_null_string@?$output_processor@DV?$stream_output_adapter@D@__crt_stdio_output@@V?$format_validation_base@DV?$stream_output_adapter@D@__crt_stdio_output@@@2@@__crt_stdio_output@@CAPADXZ 10030092 f i libucrt:output.obj
 0001:0002f098       ?narrow_null_string@?$output_processor@DV?$stream_output_adapter@D@__crt_stdio_output@@V?$positional_parameter_base@DV?$stream_output_adapter@D@__crt_stdio_output@@@2@@__crt_stdio_output@@CAPADXZ 10030098 f i libucrt:output.obj
 0001:0002f09e       ?narrow_null_string@?$output_processor@DV?$stream_output_adapter@D@__crt_stdio_output@@V?$standard_base@DV?$stream_output_adapter@D@__crt_stdio_output@@@2@@__crt_stdio_output@@CAPADXZ 1003009e f i libucrt:output.obj
 0001:0002f0a4       ?narrow_null_string@?$output_processor@DV?$string_output_adapter@D@__crt_stdio_output@@V?$format_validation_base@DV?$string_output_adapter@D@__crt_stdio_output@@@2@@__crt_stdio_output@@CAPADXZ 100300a4 f i libucrt:output.obj
 0001:0002f0aa       ?narrow_null_string@?$output_processor@DV?$string_output_adapter@D@__crt_stdio_output@@V?$positional_parameter_base@DV?$string_output_adapter@D@__crt_stdio_output@@@2@@__crt_stdio_output@@CAPADXZ 100300aa f i libucrt:output.obj
 0001:0002f0b0       ?narrow_null_string@?$output_processor@DV?$string_output_adapter@D@__crt_stdio_output@@V?$standard_base@DV?$string_output_adapter@D@__crt_stdio_output@@@2@@__crt_stdio_output@@CAPADXZ 100300b0 f i libucrt:output.obj
 0001:0002f0b6       ?narrow_null_string@?$output_processor@_WV?$stream_output_adapter@_W@__crt_stdio_output@@V?$format_validation_base@_WV?$stream_output_adapter@_W@__crt_stdio_output@@@2@@__crt_stdio_output@@CAPADXZ 100300b6 f i libucrt:output.obj
 0001:0002f0bc       ?narrow_null_string@?$output_processor@_WV?$stream_output_adapter@_W@__crt_stdio_output@@V?$positional_parameter_base@_WV?$stream_output_adapter@_W@__crt_stdio_output@@@2@@__crt_stdio_output@@CAPADXZ 100300bc f i libucrt:output.obj
 0001:0002f0c2       ?narrow_null_string@?$output_processor@_WV?$stream_output_adapter@_W@__crt_stdio_output@@V?$standard_base@_WV?$stream_output_adapter@_W@__crt_stdio_output@@@2@@__crt_stdio_output@@CAPADXZ 100300c2 f i libucrt:output.obj
 0001:0002f0c8       ?narrow_null_string@?$output_processor@_WV?$string_output_adapter@_W@__crt_stdio_output@@V?$format_validation_base@_WV?$string_output_adapter@_W@__crt_stdio_output@@@2@@__crt_stdio_output@@CAPADXZ 100300c8 f i libucrt:output.obj
 0001:0002f0ce       ?narrow_null_string@?$output_processor@_WV?$string_output_adapter@_W@__crt_stdio_output@@V?$positional_parameter_base@_WV?$string_output_adapter@_W@__crt_stdio_output@@@2@@__crt_stdio_output@@CAPADXZ 100300ce f i libucrt:output.obj
 0001:0002f0d4       ?narrow_null_string@?$output_processor@_WV?$string_output_adapter@_W@__crt_stdio_output@@V?$standard_base@_WV?$string_output_adapter@_W@__crt_stdio_output@@@2@@__crt_stdio_output@@CAPADXZ 100300d4 f i libucrt:output.obj
 0001:0002f0da       ?parse_int_from_format_string@?$output_processor@DV?$stream_output_adapter@D@__crt_stdio_output@@V?$format_validation_base@DV?$stream_output_adapter@D@__crt_stdio_output@@@2@@__crt_stdio_output@@AAE_NQAH@Z 100300da f i libucrt:output.obj
 0001:0002f16d       ?parse_int_from_format_string@?$output_processor@DV?$stream_output_adapter@D@__crt_stdio_output@@V?$positional_parameter_base@DV?$stream_output_adapter@D@__crt_stdio_output@@@2@@__crt_stdio_output@@AAE_NQAH@Z 1003016d f i libucrt:output.obj
 0001:0002f200       ?parse_int_from_format_string@?$output_processor@DV?$stream_output_adapter@D@__crt_stdio_output@@V?$standard_base@DV?$stream_output_adapter@D@__crt_stdio_output@@@2@@__crt_stdio_output@@AAE_NQAH@Z 10030200 f i libucrt:output.obj
 0001:0002f293       ?parse_int_from_format_string@?$output_processor@DV?$string_output_adapter@D@__crt_stdio_output@@V?$format_validation_base@DV?$string_output_adapter@D@__crt_stdio_output@@@2@@__crt_stdio_output@@AAE_NQAH@Z 10030293 f i libucrt:output.obj
 0001:0002f326       ?parse_int_from_format_string@?$output_processor@DV?$string_output_adapter@D@__crt_stdio_output@@V?$positional_parameter_base@DV?$string_output_adapter@D@__crt_stdio_output@@@2@@__crt_stdio_output@@AAE_NQAH@Z 10030326 f i libucrt:output.obj
 0001:0002f3b9       ?parse_int_from_format_string@?$output_processor@DV?$string_output_adapter@D@__crt_stdio_output@@V?$standard_base@DV?$string_output_adapter@D@__crt_stdio_output@@@2@@__crt_stdio_output@@AAE_NQAH@Z 100303b9 f i libucrt:output.obj
 0001:0002f44c       ?parse_int_from_format_string@?$output_processor@_WV?$stream_output_adapter@_W@__crt_stdio_output@@V?$format_validation_base@_WV?$stream_output_adapter@_W@__crt_stdio_output@@@2@@__crt_stdio_output@@AAE_NQAH@Z 1003044c f i libucrt:output.obj
 0001:0002f4e2       ?parse_int_from_format_string@?$output_processor@_WV?$stream_output_adapter@_W@__crt_stdio_output@@V?$positional_parameter_base@_WV?$stream_output_adapter@_W@__crt_stdio_output@@@2@@__crt_stdio_output@@AAE_NQAH@Z 100304e2 f i libucrt:output.obj
 0001:0002f578       ?parse_int_from_format_string@?$output_processor@_WV?$stream_output_adapter@_W@__crt_stdio_output@@V?$standard_base@_WV?$stream_output_adapter@_W@__crt_stdio_output@@@2@@__crt_stdio_output@@AAE_NQAH@Z 10030578 f i libucrt:output.obj
 0001:0002f60e       ?parse_int_from_format_string@?$output_processor@_WV?$string_output_adapter@_W@__crt_stdio_output@@V?$format_validation_base@_WV?$string_output_adapter@_W@__crt_stdio_output@@@2@@__crt_stdio_output@@AAE_NQAH@Z 1003060e f i libucrt:output.obj
 0001:0002f6a4       ?parse_int_from_format_string@?$output_processor@_WV?$string_output_adapter@_W@__crt_stdio_output@@V?$positional_parameter_base@_WV?$string_output_adapter@_W@__crt_stdio_output@@@2@@__crt_stdio_output@@AAE_NQAH@Z 100306a4 f i libucrt:output.obj
 0001:0002f73a       ?parse_int_from_format_string@?$output_processor@_WV?$string_output_adapter@_W@__crt_stdio_output@@V?$standard_base@_WV?$string_output_adapter@_W@__crt_stdio_output@@@2@@__crt_stdio_output@@AAE_NQAH@Z 1003073a f i libucrt:output.obj
 0001:0002f7d0       ?process@?$output_processor@DV?$stream_output_adapter@D@__crt_stdio_output@@V?$format_validation_base@DV?$stream_output_adapter@D@__crt_stdio_output@@@2@@__crt_stdio_output@@QAEHXZ 100307d0 f i libucrt:output.obj
 0001:0002f942       ?process@?$output_processor@DV?$stream_output_adapter@D@__crt_stdio_output@@V?$positional_parameter_base@DV?$stream_output_adapter@D@__crt_stdio_output@@@2@@__crt_stdio_output@@QAEHXZ 10030942 f i libucrt:output.obj
 0001:0002faf5       ?process@?$output_processor@DV?$stream_output_adapter@D@__crt_stdio_output@@V?$standard_base@DV?$stream_output_adapter@D@__crt_stdio_output@@@2@@__crt_stdio_output@@QAEHXZ 10030af5 f i libucrt:output.obj
 0001:0002fc58       ?process@?$output_processor@DV?$string_output_adapter@D@__crt_stdio_output@@V?$format_validation_base@DV?$string_output_adapter@D@__crt_stdio_output@@@2@@__crt_stdio_output@@QAEHXZ 10030c58 f i libucrt:output.obj
 0001:0002fdca       ?process@?$output_processor@DV?$string_output_adapter@D@__crt_stdio_output@@V?$positional_parameter_base@DV?$string_output_adapter@D@__crt_stdio_output@@@2@@__crt_stdio_output@@QAEHXZ 10030dca f i libucrt:output.obj
 0001:0002ff7d       ?process@?$output_processor@DV?$string_output_adapter@D@__crt_stdio_output@@V?$standard_base@DV?$string_output_adapter@D@__crt_stdio_output@@@2@@__crt_stdio_output@@QAEHXZ 10030f7d f i libucrt:output.obj
 0001:000300e0       ?process@?$output_processor@_WV?$stream_output_adapter@_W@__crt_stdio_output@@V?$format_validation_base@_WV?$stream_output_adapter@_W@__crt_stdio_output@@@2@@__crt_stdio_output@@QAEHXZ 100310e0 f i libucrt:output.obj
 0001:0003025c       ?process@?$output_processor@_WV?$stream_output_adapter@_W@__crt_stdio_output@@V?$positional_parameter_base@_WV?$stream_output_adapter@_W@__crt_stdio_output@@@2@@__crt_stdio_output@@QAEHXZ 1003125c f i libucrt:output.obj
 0001:00030414       ?process@?$output_processor@_WV?$stream_output_adapter@_W@__crt_stdio_output@@V?$standard_base@_WV?$stream_output_adapter@_W@__crt_stdio_output@@@2@@__crt_stdio_output@@QAEHXZ 10031414 f i libucrt:output.obj
 0001:0003057c       ?process@?$output_processor@_WV?$string_output_adapter@_W@__crt_stdio_output@@V?$format_validation_base@_WV?$string_output_adapter@_W@__crt_stdio_output@@@2@@__crt_stdio_output@@QAEHXZ 1003157c f i libucrt:output.obj
 0001:000306f8       ?process@?$output_processor@_WV?$string_output_adapter@_W@__crt_stdio_output@@V?$positional_parameter_base@_WV?$string_output_adapter@_W@__crt_stdio_output@@@2@@__crt_stdio_output@@QAEHXZ 100316f8 f i libucrt:output.obj
 0001:000308b0       ?process@?$output_processor@_WV?$string_output_adapter@_W@__crt_stdio_output@@V?$standard_base@_WV?$string_output_adapter@_W@__crt_stdio_output@@@2@@__crt_stdio_output@@QAEHXZ 100318b0 f i libucrt:output.obj
 0001:00030a18       ?set_flag@?$output_processor@DV?$stream_output_adapter@D@__crt_stdio_output@@V?$format_validation_base@DV?$stream_output_adapter@D@__crt_stdio_output@@@2@@__crt_stdio_output@@AAEXI@Z 10031a18 f i libucrt:output.obj
 0001:00030a2a       ?set_flag@?$output_processor@DV?$stream_output_adapter@D@__crt_stdio_output@@V?$positional_parameter_base@DV?$stream_output_adapter@D@__crt_stdio_output@@@2@@__crt_stdio_output@@AAEXI@Z 10031a2a f i libucrt:output.obj
 0001:00030a3c       ?set_flag@?$output_processor@DV?$stream_output_adapter@D@__crt_stdio_output@@V?$standard_base@DV?$stream_output_adapter@D@__crt_stdio_output@@@2@@__crt_stdio_output@@AAEXI@Z 10031a3c f i libucrt:output.obj
 0001:00030a4e       ?set_flag@?$output_processor@DV?$string_output_adapter@D@__crt_stdio_output@@V?$format_validation_base@DV?$string_output_adapter@D@__crt_stdio_output@@@2@@__crt_stdio_output@@AAEXI@Z 10031a4e f i libucrt:output.obj
 0001:00030a60       ?set_flag@?$output_processor@DV?$string_output_adapter@D@__crt_stdio_output@@V?$positional_parameter_base@DV?$string_output_adapter@D@__crt_stdio_output@@@2@@__crt_stdio_output@@AAEXI@Z 10031a60 f i libucrt:output.obj
 0001:00030a72       ?set_flag@?$output_processor@DV?$string_output_adapter@D@__crt_stdio_output@@V?$standard_base@DV?$string_output_adapter@D@__crt_stdio_output@@@2@@__crt_stdio_output@@AAEXI@Z 10031a72 f i libucrt:output.obj
 0001:00030a84       ?set_flag@?$output_processor@_WV?$stream_output_adapter@_W@__crt_stdio_output@@V?$format_validation_base@_WV?$stream_output_adapter@_W@__crt_stdio_output@@@2@@__crt_stdio_output@@AAEXI@Z 10031a84 f i libucrt:output.obj
 0001:00030a96       ?set_flag@?$output_processor@_WV?$stream_output_adapter@_W@__crt_stdio_output@@V?$positional_parameter_base@_WV?$stream_output_adapter@_W@__crt_stdio_output@@@2@@__crt_stdio_output@@AAEXI@Z 10031a96 f i libucrt:output.obj
 0001:00030aa8       ?set_flag@?$output_processor@_WV?$stream_output_adapter@_W@__crt_stdio_output@@V?$standard_base@_WV?$stream_output_adapter@_W@__crt_stdio_output@@@2@@__crt_stdio_output@@AAEXI@Z 10031aa8 f i libucrt:output.obj
 0001:00030aba       ?set_flag@?$output_processor@_WV?$string_output_adapter@_W@__crt_stdio_output@@V?$format_validation_base@_WV?$string_output_adapter@_W@__crt_stdio_output@@@2@@__crt_stdio_output@@AAEXI@Z 10031aba f i libucrt:output.obj
 0001:00030acc       ?set_flag@?$output_processor@_WV?$string_output_adapter@_W@__crt_stdio_output@@V?$positional_parameter_base@_WV?$string_output_adapter@_W@__crt_stdio_output@@@2@@__crt_stdio_output@@AAEXI@Z 10031acc f i libucrt:output.obj
 0001:00030ade       ?set_flag@?$output_processor@_WV?$string_output_adapter@_W@__crt_stdio_output@@V?$standard_base@_WV?$string_output_adapter@_W@__crt_stdio_output@@@2@@__crt_stdio_output@@AAEXI@Z 10031ade f i libucrt:output.obj
 0001:00030af0       ?should_format@?$positional_parameter_base@DV?$stream_output_adapter@D@__crt_stdio_output@@@__crt_stdio_output@@IAE_NXZ 10031af0 f i libucrt:output.obj
 0001:00030b0b       ?should_format@?$positional_parameter_base@DV?$string_output_adapter@D@__crt_stdio_output@@@__crt_stdio_output@@IAE_NXZ 10031b0b f i libucrt:output.obj
 0001:00030b26       ?should_format@?$positional_parameter_base@_WV?$stream_output_adapter@_W@__crt_stdio_output@@@__crt_stdio_output@@IAE_NXZ 10031b26 f i libucrt:output.obj
 0001:00030b41       ?should_format@?$positional_parameter_base@_WV?$string_output_adapter@_W@__crt_stdio_output@@@__crt_stdio_output@@IAE_NXZ 10031b41 f i libucrt:output.obj
 0001:00030b5c       ?should_format@?$standard_base@DV?$stream_output_adapter@D@__crt_stdio_output@@@__crt_stdio_output@@IAE_NXZ 10031b5c f i libucrt:output.obj
 0001:00030b5f       ?should_format@?$standard_base@DV?$string_output_adapter@D@__crt_stdio_output@@@__crt_stdio_output@@IAE_NXZ 10031b5f f i libucrt:output.obj
 0001:00030b62       ?should_format@?$standard_base@_WV?$stream_output_adapter@_W@__crt_stdio_output@@@__crt_stdio_output@@IAE_NXZ 10031b62 f i libucrt:output.obj
 0001:00030b65       ?should_format@?$standard_base@_WV?$string_output_adapter@_W@__crt_stdio_output@@@__crt_stdio_output@@IAE_NXZ 10031b65 f i libucrt:output.obj
 0001:00030b68       ?should_skip_normal_state_processing@?$positional_parameter_base@DV?$stream_output_adapter@D@__crt_stdio_output@@@__crt_stdio_output@@IAE_NXZ 10031b68 f i libucrt:output.obj
 0001:00030b9a       ?should_skip_normal_state_processing@?$positional_parameter_base@DV?$string_output_adapter@D@__crt_stdio_output@@@__crt_stdio_output@@IAE_NXZ 10031b9a f i libucrt:output.obj
 0001:00030bcc       ?should_skip_normal_state_processing@?$positional_parameter_base@_WV?$stream_output_adapter@_W@__crt_stdio_output@@@__crt_stdio_output@@IAE_NXZ 10031bcc f i libucrt:output.obj
 0001:00030bfe       ?should_skip_normal_state_processing@?$positional_parameter_base@_WV?$string_output_adapter@_W@__crt_stdio_output@@@__crt_stdio_output@@IAE_NXZ 10031bfe f i libucrt:output.obj
 0001:00030c30       ?should_skip_normal_state_processing@?$standard_base@DV?$stream_output_adapter@D@__crt_stdio_output@@@__crt_stdio_output@@IAE_NXZ 10031c30 f i libucrt:output.obj
 0001:00030c33       ?should_skip_normal_state_processing@?$standard_base@DV?$string_output_adapter@D@__crt_stdio_output@@@__crt_stdio_output@@IAE_NXZ 10031c33 f i libucrt:output.obj
 0001:00030c36       ?should_skip_normal_state_processing@?$standard_base@_WV?$stream_output_adapter@_W@__crt_stdio_output@@@__crt_stdio_output@@IAE_NXZ 10031c36 f i libucrt:output.obj
 0001:00030c39       ?should_skip_normal_state_processing@?$standard_base@_WV?$string_output_adapter@_W@__crt_stdio_output@@@__crt_stdio_output@@IAE_NXZ 10031c39 f i libucrt:output.obj
 0001:00030c3c       ?should_skip_type_state_output@?$positional_parameter_base@DV?$stream_output_adapter@D@__crt_stdio_output@@@__crt_stdio_output@@IBE_NXZ 10031c3c f i libucrt:output.obj
 0001:00030c58       ?should_skip_type_state_output@?$positional_parameter_base@DV?$string_output_adapter@D@__crt_stdio_output@@@__crt_stdio_output@@IBE_NXZ 10031c58 f i libucrt:output.obj
 0001:00030c74       ?should_skip_type_state_output@?$positional_parameter_base@_WV?$stream_output_adapter@_W@__crt_stdio_output@@@__crt_stdio_output@@IBE_NXZ 10031c74 f i libucrt:output.obj
 0001:00030c90       ?should_skip_type_state_output@?$positional_parameter_base@_WV?$string_output_adapter@_W@__crt_stdio_output@@@__crt_stdio_output@@IBE_NXZ 10031c90 f i libucrt:output.obj
 0001:00030cac       ?should_skip_type_state_output@?$standard_base@DV?$stream_output_adapter@D@__crt_stdio_output@@@__crt_stdio_output@@IBE_NXZ 10031cac f i libucrt:output.obj
 0001:00030caf       ?should_skip_type_state_output@?$standard_base@DV?$string_output_adapter@D@__crt_stdio_output@@@__crt_stdio_output@@IBE_NXZ 10031caf f i libucrt:output.obj
 0001:00030cb2       ?should_skip_type_state_output@?$standard_base@_WV?$stream_output_adapter@_W@__crt_stdio_output@@@__crt_stdio_output@@IBE_NXZ 10031cb2 f i libucrt:output.obj
 0001:00030cb5       ?should_skip_type_state_output@?$standard_base@_WV?$string_output_adapter@_W@__crt_stdio_output@@@__crt_stdio_output@@IBE_NXZ 10031cb5 f i libucrt:output.obj
 0001:00030cb8       ?state_case_dot@?$output_processor@DV?$stream_output_adapter@D@__crt_stdio_output@@V?$format_validation_base@DV?$stream_output_adapter@D@__crt_stdio_output@@@2@@__crt_stdio_output@@AAE_NXZ 10031cb8 f i libucrt:output.obj
 0001:00030cbf       ?state_case_dot@?$output_processor@DV?$stream_output_adapter@D@__crt_stdio_output@@V?$positional_parameter_base@DV?$stream_output_adapter@D@__crt_stdio_output@@@2@@__crt_stdio_output@@AAE_NXZ 10031cbf f i libucrt:output.obj
 0001:00030cc6       ?state_case_dot@?$output_processor@DV?$stream_output_adapter@D@__crt_stdio_output@@V?$standard_base@DV?$stream_output_adapter@D@__crt_stdio_output@@@2@@__crt_stdio_output@@AAE_NXZ 10031cc6 f i libucrt:output.obj
 0001:00030ccd       ?state_case_dot@?$output_processor@DV?$string_output_adapter@D@__crt_stdio_output@@V?$format_validation_base@DV?$string_output_adapter@D@__crt_stdio_output@@@2@@__crt_stdio_output@@AAE_NXZ 10031ccd f i libucrt:output.obj
 0001:00030cd4       ?state_case_dot@?$output_processor@DV?$string_output_adapter@D@__crt_stdio_output@@V?$positional_parameter_base@DV?$string_output_adapter@D@__crt_stdio_output@@@2@@__crt_stdio_output@@AAE_NXZ 10031cd4 f i libucrt:output.obj
 0001:00030cdb       ?state_case_dot@?$output_processor@DV?$string_output_adapter@D@__crt_stdio_output@@V?$standard_base@DV?$string_output_adapter@D@__crt_stdio_output@@@2@@__crt_stdio_output@@AAE_NXZ 10031cdb f i libucrt:output.obj
 0001:00030ce2       ?state_case_dot@?$output_processor@_WV?$stream_output_adapter@_W@__crt_stdio_output@@V?$format_validation_base@_WV?$stream_output_adapter@_W@__crt_stdio_output@@@2@@__crt_stdio_output@@AAE_NXZ 10031ce2 f i libucrt:output.obj
 0001:00030ce9       ?state_case_dot@?$output_processor@_WV?$stream_output_adapter@_W@__crt_stdio_output@@V?$positional_parameter_base@_WV?$stream_output_adapter@_W@__crt_stdio_output@@@2@@__crt_stdio_output@@AAE_NXZ 10031ce9 f i libucrt:output.obj
 0001:00030cf0       ?state_case_dot@?$output_processor@_WV?$stream_output_adapter@_W@__crt_stdio_output@@V?$standard_base@_WV?$stream_output_adapter@_W@__crt_stdio_output@@@2@@__crt_stdio_output@@AAE_NXZ 10031cf0 f i libucrt:output.obj
 0001:00030cf7       ?state_case_dot@?$output_processor@_WV?$string_output_adapter@_W@__crt_stdio_output@@V?$format_validation_base@_WV?$string_output_adapter@_W@__crt_stdio_output@@@2@@__crt_stdio_output@@AAE_NXZ 10031cf7 f i libucrt:output.obj
 0001:00030cfe       ?state_case_dot@?$output_processor@_WV?$string_output_adapter@_W@__crt_stdio_output@@V?$positional_parameter_base@_WV?$string_output_adapter@_W@__crt_stdio_output@@@2@@__crt_stdio_output@@AAE_NXZ 10031cfe f i libucrt:output.obj
 0001:00030d05       ?state_case_dot@?$output_processor@_WV?$string_output_adapter@_W@__crt_stdio_output@@V?$standard_base@_WV?$string_output_adapter@_W@__crt_stdio_output@@@2@@__crt_stdio_output@@AAE_NXZ 10031d05 f i libucrt:output.obj
 0001:00030d0c       ?state_case_flag@?$output_processor@DV?$stream_output_adapter@D@__crt_stdio_output@@V?$format_validation_base@DV?$stream_output_adapter@D@__crt_stdio_output@@@2@@__crt_stdio_output@@AAE_NXZ 10031d0c f i libucrt:output.obj
 0001:00030d58       ?state_case_flag@?$output_processor@DV?$stream_output_adapter@D@__crt_stdio_output@@V?$positional_parameter_base@DV?$stream_output_adapter@D@__crt_stdio_output@@@2@@__crt_stdio_output@@AAE_NXZ 10031d58 f i libucrt:output.obj
 0001:00030da4       ?state_case_flag@?$output_processor@DV?$stream_output_adapter@D@__crt_stdio_output@@V?$standard_base@DV?$stream_output_adapter@D@__crt_stdio_output@@@2@@__crt_stdio_output@@AAE_NXZ 10031da4 f i libucrt:output.obj
 0001:00030df0       ?state_case_flag@?$output_processor@DV?$string_output_adapter@D@__crt_stdio_output@@V?$format_validation_base@DV?$string_output_adapter@D@__crt_stdio_output@@@2@@__crt_stdio_output@@AAE_NXZ 10031df0 f i libucrt:output.obj
 0001:00030e3c       ?state_case_flag@?$output_processor@DV?$string_output_adapter@D@__crt_stdio_output@@V?$positional_parameter_base@DV?$string_output_adapter@D@__crt_stdio_output@@@2@@__crt_stdio_output@@AAE_NXZ 10031e3c f i libucrt:output.obj
 0001:00030e88       ?state_case_flag@?$output_processor@DV?$string_output_adapter@D@__crt_stdio_output@@V?$standard_base@DV?$string_output_adapter@D@__crt_stdio_output@@@2@@__crt_stdio_output@@AAE_NXZ 10031e88 f i libucrt:output.obj
 0001:00030ed4       ?state_case_flag@?$output_processor@_WV?$stream_output_adapter@_W@__crt_stdio_output@@V?$format_validation_base@_WV?$stream_output_adapter@_W@__crt_stdio_output@@@2@@__crt_stdio_output@@AAE_NXZ 10031ed4 f i libucrt:output.obj
 0001:00030f20       ?state_case_flag@?$output_processor@_WV?$stream_output_adapter@_W@__crt_stdio_output@@V?$positional_parameter_base@_WV?$stream_output_adapter@_W@__crt_stdio_output@@@2@@__crt_stdio_output@@AAE_NXZ 10031f20 f i libucrt:output.obj
 0001:00030f6c       ?state_case_flag@?$output_processor@_WV?$stream_output_adapter@_W@__crt_stdio_output@@V?$standard_base@_WV?$stream_output_adapter@_W@__crt_stdio_output@@@2@@__crt_stdio_output@@AAE_NXZ 10031f6c f i libucrt:output.obj
 0001:00030fb8       ?state_case_flag@?$output_processor@_WV?$string_output_adapter@_W@__crt_stdio_output@@V?$format_validation_base@_WV?$string_output_adapter@_W@__crt_stdio_output@@@2@@__crt_stdio_output@@AAE_NXZ 10031fb8 f i libucrt:output.obj
 0001:00031004       ?state_case_flag@?$output_processor@_WV?$string_output_adapter@_W@__crt_stdio_output@@V?$positional_parameter_base@_WV?$string_output_adapter@_W@__crt_stdio_output@@@2@@__crt_stdio_output@@AAE_NXZ 10032004 f i libucrt:output.obj
 0001:00031050       ?state_case_flag@?$output_processor@_WV?$string_output_adapter@_W@__crt_stdio_output@@V?$standard_base@_WV?$string_output_adapter@_W@__crt_stdio_output@@@2@@__crt_stdio_output@@AAE_NXZ 10032050 f i libucrt:output.obj
 0001:0003109c       ?state_case_normal@?$output_processor@DV?$stream_output_adapter@D@__crt_stdio_output@@V?$format_validation_base@DV?$stream_output_adapter@D@__crt_stdio_output@@@2@@__crt_stdio_output@@AAE_NXZ 1003209c f i libucrt:output.obj
 0001:000310c2       ?state_case_normal@?$output_processor@DV?$stream_output_adapter@D@__crt_stdio_output@@V?$positional_parameter_base@DV?$stream_output_adapter@D@__crt_stdio_output@@@2@@__crt_stdio_output@@AAE_NXZ 100320c2 f i libucrt:output.obj
 0001:000310ff       ?state_case_normal@?$output_processor@DV?$stream_output_adapter@D@__crt_stdio_output@@V?$standard_base@DV?$stream_output_adapter@D@__crt_stdio_output@@@2@@__crt_stdio_output@@AAE_NXZ 100320ff f i libucrt:output.obj
 0001:00031125       ?state_case_normal@?$output_processor@DV?$string_output_adapter@D@__crt_stdio_output@@V?$format_validation_base@DV?$string_output_adapter@D@__crt_stdio_output@@@2@@__crt_stdio_output@@AAE_NXZ 10032125 f i libucrt:output.obj
 0001:0003114b       ?state_case_normal@?$output_processor@DV?$string_output_adapter@D@__crt_stdio_output@@V?$positional_parameter_base@DV?$string_output_adapter@D@__crt_stdio_output@@@2@@__crt_stdio_output@@AAE_NXZ 1003214b f i libucrt:output.obj
 0001:00031188       ?state_case_normal@?$output_processor@DV?$string_output_adapter@D@__crt_stdio_output@@V?$standard_base@DV?$string_output_adapter@D@__crt_stdio_output@@@2@@__crt_stdio_output@@AAE_NXZ 10032188 f i libucrt:output.obj
 0001:000311ae       ?state_case_normal@?$output_processor@_WV?$stream_output_adapter@_W@__crt_stdio_output@@V?$format_validation_base@_WV?$stream_output_adapter@_W@__crt_stdio_output@@@2@@__crt_stdio_output@@AAE_NXZ 100321ae f i libucrt:output.obj
 0001:000311d4       ?state_case_normal@?$output_processor@_WV?$stream_output_adapter@_W@__crt_stdio_output@@V?$positional_parameter_base@_WV?$stream_output_adapter@_W@__crt_stdio_output@@@2@@__crt_stdio_output@@AAE_NXZ 100321d4 f i libucrt:output.obj
 0001:00031211       ?state_case_normal@?$output_processor@_WV?$stream_output_adapter@_W@__crt_stdio_output@@V?$standard_base@_WV?$stream_output_adapter@_W@__crt_stdio_output@@@2@@__crt_stdio_output@@AAE_NXZ 10032211 f i libucrt:output.obj
 0001:00031237       ?state_case_normal@?$output_processor@_WV?$string_output_adapter@_W@__crt_stdio_output@@V?$format_validation_base@_WV?$string_output_adapter@_W@__crt_stdio_output@@@2@@__crt_stdio_output@@AAE_NXZ 10032237 f i libucrt:output.obj
 0001:0003125d       ?state_case_normal@?$output_processor@_WV?$string_output_adapter@_W@__crt_stdio_output@@V?$positional_parameter_base@_WV?$string_output_adapter@_W@__crt_stdio_output@@@2@@__crt_stdio_output@@AAE_NXZ 1003225d f i libucrt:output.obj
 0001:0003129a       ?state_case_normal@?$output_processor@_WV?$string_output_adapter@_W@__crt_stdio_output@@V?$standard_base@_WV?$string_output_adapter@_W@__crt_stdio_output@@@2@@__crt_stdio_output@@AAE_NXZ 1003229a f i libucrt:output.obj
 0001:000312c0       ?state_case_normal_common@?$output_processor@DV?$stream_output_adapter@D@__crt_stdio_output@@V?$format_validation_base@DV?$stream_output_adapter@D@__crt_stdio_output@@@2@@__crt_stdio_output@@AAE_NXZ 100322c0 f i libucrt:output.obj
 0001:0003130b       ?state_case_normal_common@?$output_processor@DV?$stream_output_adapter@D@__crt_stdio_output@@V?$positional_parameter_base@DV?$stream_output_adapter@D@__crt_stdio_output@@@2@@__crt_stdio_output@@AAE_NXZ 1003230b f i libucrt:output.obj
 0001:00031356       ?state_case_normal_common@?$output_processor@DV?$stream_output_adapter@D@__crt_stdio_output@@V?$standard_base@DV?$stream_output_adapter@D@__crt_stdio_output@@@2@@__crt_stdio_output@@AAE_NXZ 10032356 f i libucrt:output.obj
 0001:000313a1       ?state_case_normal_common@?$output_processor@DV?$string_output_adapter@D@__crt_stdio_output@@V?$format_validation_base@DV?$string_output_adapter@D@__crt_stdio_output@@@2@@__crt_stdio_output@@AAE_NXZ 100323a1 f i libucrt:output.obj
 0001:000313d5       ?state_case_normal_common@?$output_processor@DV?$string_output_adapter@D@__crt_stdio_output@@V?$positional_parameter_base@DV?$string_output_adapter@D@__crt_stdio_output@@@2@@__crt_stdio_output@@AAE_NXZ 100323d5 f i libucrt:output.obj
 0001:00031409       ?state_case_normal_common@?$output_processor@DV?$string_output_adapter@D@__crt_stdio_output@@V?$standard_base@DV?$string_output_adapter@D@__crt_stdio_output@@@2@@__crt_stdio_output@@AAE_NXZ 10032409 f i libucrt:output.obj
 0001:0003143d       ?state_case_normal_common@?$output_processor@_WV?$stream_output_adapter@_W@__crt_stdio_output@@V?$format_validation_base@_WV?$stream_output_adapter@_W@__crt_stdio_output@@@2@@__crt_stdio_output@@AAE_NXZ 1003243d f i libucrt:output.obj
 0001:00031471       ?state_case_normal_common@?$output_processor@_WV?$stream_output_adapter@_W@__crt_stdio_output@@V?$positional_parameter_base@_WV?$stream_output_adapter@_W@__crt_stdio_output@@@2@@__crt_stdio_output@@AAE_NXZ 10032471 f i libucrt:output.obj
 0001:000314a5       ?state_case_normal_common@?$output_processor@_WV?$stream_output_adapter@_W@__crt_stdio_output@@V?$standard_base@_WV?$stream_output_adapter@_W@__crt_stdio_output@@@2@@__crt_stdio_output@@AAE_NXZ 100324a5 f i libucrt:output.obj
 0001:000314d9       ?state_case_normal_common@?$output_processor@_WV?$string_output_adapter@_W@__crt_stdio_output@@V?$format_validation_base@_WV?$string_output_adapter@_W@__crt_stdio_output@@@2@@__crt_stdio_output@@AAE_NXZ 100324d9 f i libucrt:output.obj
 0001:000314fa       ?state_case_normal_common@?$output_processor@_WV?$string_output_adapter@_W@__crt_stdio_output@@V?$positional_parameter_base@_WV?$string_output_adapter@_W@__crt_stdio_output@@@2@@__crt_stdio_output@@AAE_NXZ 100324fa f i libucrt:output.obj
 0001:0003151b       ?state_case_normal_common@?$output_processor@_WV?$string_output_adapter@_W@__crt_stdio_output@@V?$standard_base@_WV?$string_output_adapter@_W@__crt_stdio_output@@@2@@__crt_stdio_output@@AAE_NXZ 1003251b f i libucrt:output.obj
 0001:0003153c       ?state_case_normal_tchar@?$output_processor@DV?$stream_output_adapter@D@__crt_stdio_output@@V?$format_validation_base@DV?$stream_output_adapter@D@__crt_stdio_output@@@2@@__crt_stdio_output@@AAE_ND@Z 1003253c f i libucrt:output.obj
 0001:000315b6       ?state_case_normal_tchar@?$output_processor@DV?$stream_output_adapter@D@__crt_stdio_output@@V?$positional_parameter_base@DV?$stream_output_adapter@D@__crt_stdio_output@@@2@@__crt_stdio_output@@AAE_ND@Z 100325b6 f i libucrt:output.obj
 0001:00031630       ?state_case_normal_tchar@?$output_processor@DV?$stream_output_adapter@D@__crt_stdio_output@@V?$standard_base@DV?$stream_output_adapter@D@__crt_stdio_output@@@2@@__crt_stdio_output@@AAE_ND@Z 10032630 f i libucrt:output.obj
 0001:000316aa       ?state_case_normal_tchar@?$output_processor@DV?$string_output_adapter@D@__crt_stdio_output@@V?$format_validation_base@DV?$string_output_adapter@D@__crt_stdio_output@@@2@@__crt_stdio_output@@AAE_ND@Z 100326aa f i libucrt:output.obj
 0001:00031719       ?state_case_normal_tchar@?$output_processor@DV?$string_output_adapter@D@__crt_stdio_output@@V?$positional_parameter_base@DV?$string_output_adapter@D@__crt_stdio_output@@@2@@__crt_stdio_output@@AAE_ND@Z 10032719 f i libucrt:output.obj
 0001:00031788       ?state_case_normal_tchar@?$output_processor@DV?$string_output_adapter@D@__crt_stdio_output@@V?$standard_base@DV?$string_output_adapter@D@__crt_stdio_output@@@2@@__crt_stdio_output@@AAE_ND@Z 10032788 f i libucrt:output.obj
 0001:000317f7       ?state_case_normal_tchar@?$output_processor@_WV?$stream_output_adapter@_W@__crt_stdio_output@@V?$format_validation_base@_WV?$stream_output_adapter@_W@__crt_stdio_output@@@2@@__crt_stdio_output@@AAE_N_W@Z 100327f7 f i libucrt:output.obj
 0001:00031802       ?state_case_normal_tchar@?$output_processor@_WV?$stream_output_adapter@_W@__crt_stdio_output@@V?$positional_parameter_base@_WV?$stream_output_adapter@_W@__crt_stdio_output@@@2@@__crt_stdio_output@@AAE_N_W@Z 10032802 f i libucrt:output.obj
 0001:0003180d       ?state_case_normal_tchar@?$output_processor@_WV?$stream_output_adapter@_W@__crt_stdio_output@@V?$standard_base@_WV?$stream_output_adapter@_W@__crt_stdio_output@@@2@@__crt_stdio_output@@AAE_N_W@Z 1003280d f i libucrt:output.obj
 0001:00031818       ?state_case_normal_tchar@?$output_processor@_WV?$string_output_adapter@_W@__crt_stdio_output@@V?$format_validation_base@_WV?$string_output_adapter@_W@__crt_stdio_output@@@2@@__crt_stdio_output@@AAE_N_W@Z 10032818 f i libucrt:output.obj
 0001:00031823       ?state_case_normal_tchar@?$output_processor@_WV?$string_output_adapter@_W@__crt_stdio_output@@V?$positional_parameter_base@_WV?$string_output_adapter@_W@__crt_stdio_output@@@2@@__crt_stdio_output@@AAE_N_W@Z 10032823 f i libucrt:output.obj
 0001:0003182e       ?state_case_normal_tchar@?$output_processor@_WV?$string_output_adapter@_W@__crt_stdio_output@@V?$standard_base@_WV?$string_output_adapter@_W@__crt_stdio_output@@@2@@__crt_stdio_output@@AAE_N_W@Z 1003282e f i libucrt:output.obj
 0001:00031839       ?state_case_percent@?$output_processor@DV?$stream_output_adapter@D@__crt_stdio_output@@V?$format_validation_base@DV?$stream_output_adapter@D@__crt_stdio_output@@@2@@__crt_stdio_output@@AAE_NXZ 10032839 f i libucrt:output.obj
 0001:00031857       ?state_case_percent@?$output_processor@DV?$stream_output_adapter@D@__crt_stdio_output@@V?$positional_parameter_base@DV?$stream_output_adapter@D@__crt_stdio_output@@@2@@__crt_stdio_output@@AAE_NXZ 10032857 f i libucrt:output.obj
 0001:00031875       ?state_case_percent@?$output_processor@DV?$stream_output_adapter@D@__crt_stdio_output@@V?$standard_base@DV?$stream_output_adapter@D@__crt_stdio_output@@@2@@__crt_stdio_output@@AAE_NXZ 10032875 f i libucrt:output.obj
 0001:00031893       ?state_case_percent@?$output_processor@DV?$string_output_adapter@D@__crt_stdio_output@@V?$format_validation_base@DV?$string_output_adapter@D@__crt_stdio_output@@@2@@__crt_stdio_output@@AAE_NXZ 10032893 f i libucrt:output.obj
 0001:000318b1       ?state_case_percent@?$output_processor@DV?$string_output_adapter@D@__crt_stdio_output@@V?$positional_parameter_base@DV?$string_output_adapter@D@__crt_stdio_output@@@2@@__crt_stdio_output@@AAE_NXZ 100328b1 f i libucrt:output.obj
 0001:000318cf       ?state_case_percent@?$output_processor@DV?$string_output_adapter@D@__crt_stdio_output@@V?$standard_base@DV?$string_output_adapter@D@__crt_stdio_output@@@2@@__crt_stdio_output@@AAE_NXZ 100328cf f i libucrt:output.obj
 0001:000318ed       ?state_case_percent@?$output_processor@_WV?$stream_output_adapter@_W@__crt_stdio_output@@V?$format_validation_base@_WV?$stream_output_adapter@_W@__crt_stdio_output@@@2@@__crt_stdio_output@@AAE_NXZ 100328ed f i libucrt:output.obj
 0001:0003190b       ?state_case_percent@?$output_processor@_WV?$stream_output_adapter@_W@__crt_stdio_output@@V?$positional_parameter_base@_WV?$stream_output_adapter@_W@__crt_stdio_output@@@2@@__crt_stdio_output@@AAE_NXZ 1003290b f i libucrt:output.obj
 0001:00031929       ?state_case_percent@?$output_processor@_WV?$stream_output_adapter@_W@__crt_stdio_output@@V?$standard_base@_WV?$stream_output_adapter@_W@__crt_stdio_output@@@2@@__crt_stdio_output@@AAE_NXZ 10032929 f i libucrt:output.obj
 0001:00031947       ?state_case_percent@?$output_processor@_WV?$string_output_adapter@_W@__crt_stdio_output@@V?$format_validation_base@_WV?$string_output_adapter@_W@__crt_stdio_output@@@2@@__crt_stdio_output@@AAE_NXZ 10032947 f i libucrt:output.obj
 0001:00031965       ?state_case_percent@?$output_processor@_WV?$string_output_adapter@_W@__crt_stdio_output@@V?$positional_parameter_base@_WV?$string_output_adapter@_W@__crt_stdio_output@@@2@@__crt_stdio_output@@AAE_NXZ 10032965 f i libucrt:output.obj
 0001:00031983       ?state_case_percent@?$output_processor@_WV?$string_output_adapter@_W@__crt_stdio_output@@V?$standard_base@_WV?$string_output_adapter@_W@__crt_stdio_output@@@2@@__crt_stdio_output@@AAE_NXZ 10032983 f i libucrt:output.obj
 0001:000319a1       ?state_case_precision@?$output_processor@DV?$stream_output_adapter@D@__crt_stdio_output@@V?$format_validation_base@DV?$stream_output_adapter@D@__crt_stdio_output@@@2@@__crt_stdio_output@@AAE_NXZ 100329a1 f i libucrt:output.obj
 0001:000319d0       ?state_case_precision@?$output_processor@DV?$stream_output_adapter@D@__crt_stdio_output@@V?$positional_parameter_base@DV?$stream_output_adapter@D@__crt_stdio_output@@@2@@__crt_stdio_output@@AAE_NXZ 100329d0 f i libucrt:output.obj
 0001:00031a18       ?state_case_precision@?$output_processor@DV?$stream_output_adapter@D@__crt_stdio_output@@V?$standard_base@DV?$stream_output_adapter@D@__crt_stdio_output@@@2@@__crt_stdio_output@@AAE_NXZ 10032a18 f i libucrt:output.obj
 0001:00031a47       ?state_case_precision@?$output_processor@DV?$string_output_adapter@D@__crt_stdio_output@@V?$format_validation_base@DV?$string_output_adapter@D@__crt_stdio_output@@@2@@__crt_stdio_output@@AAE_NXZ 10032a47 f i libucrt:output.obj
 0001:00031a76       ?state_case_precision@?$output_processor@DV?$string_output_adapter@D@__crt_stdio_output@@V?$positional_parameter_base@DV?$string_output_adapter@D@__crt_stdio_output@@@2@@__crt_stdio_output@@AAE_NXZ 10032a76 f i libucrt:output.obj
 0001:00031abe       ?state_case_precision@?$output_processor@DV?$string_output_adapter@D@__crt_stdio_output@@V?$standard_base@DV?$string_output_adapter@D@__crt_stdio_output@@@2@@__crt_stdio_output@@AAE_NXZ 10032abe f i libucrt:output.obj
 0001:00031aed       ?state_case_precision@?$output_processor@_WV?$stream_output_adapter@_W@__crt_stdio_output@@V?$format_validation_base@_WV?$stream_output_adapter@_W@__crt_stdio_output@@@2@@__crt_stdio_output@@AAE_NXZ 10032aed f i libucrt:output.obj
 0001:00031b1d       ?state_case_precision@?$output_processor@_WV?$stream_output_adapter@_W@__crt_stdio_output@@V?$positional_parameter_base@_WV?$stream_output_adapter@_W@__crt_stdio_output@@@2@@__crt_stdio_output@@AAE_NXZ 10032b1d f i libucrt:output.obj
 0001:00031b66       ?state_case_precision@?$output_processor@_WV?$stream_output_adapter@_W@__crt_stdio_output@@V?$standard_base@_WV?$stream_output_adapter@_W@__crt_stdio_output@@@2@@__crt_stdio_output@@AAE_NXZ 10032b66 f i libucrt:output.obj
 0001:00031b96       ?state_case_precision@?$output_processor@_WV?$string_output_adapter@_W@__crt_stdio_output@@V?$format_validation_base@_WV?$string_output_adapter@_W@__crt_stdio_output@@@2@@__crt_stdio_output@@AAE_NXZ 10032b96 f i libucrt:output.obj
 0001:00031bc6       ?state_case_precision@?$output_processor@_WV?$string_output_adapter@_W@__crt_stdio_output@@V?$positional_parameter_base@_WV?$string_output_adapter@_W@__crt_stdio_output@@@2@@__crt_stdio_output@@AAE_NXZ 10032bc6 f i libucrt:output.obj
 0001:00031c0f       ?state_case_precision@?$output_processor@_WV?$string_output_adapter@_W@__crt_stdio_output@@V?$standard_base@_WV?$string_output_adapter@_W@__crt_stdio_output@@@2@@__crt_stdio_output@@AAE_NXZ 10032c0f f i libucrt:output.obj
 0001:00031c3f       ?state_case_size@?$output_processor@DV?$stream_output_adapter@D@__crt_stdio_output@@V?$format_validation_base@DV?$stream_output_adapter@D@__crt_stdio_output@@@2@@__crt_stdio_output@@AAE_NXZ 10032c3f f i libucrt:output.obj
 0001:00031def       ?state_case_size@?$output_processor@DV?$stream_output_adapter@D@__crt_stdio_output@@V?$positional_parameter_base@DV?$stream_output_adapter@D@__crt_stdio_output@@@2@@__crt_stdio_output@@AAE_NXZ 10032def f i libucrt:output.obj
 0001:00031f9f       ?state_case_size@?$output_processor@DV?$stream_output_adapter@D@__crt_stdio_output@@V?$standard_base@DV?$stream_output_adapter@D@__crt_stdio_output@@@2@@__crt_stdio_output@@AAE_NXZ 10032f9f f i libucrt:output.obj
 0001:0003214f       ?state_case_size@?$output_processor@DV?$string_output_adapter@D@__crt_stdio_output@@V?$format_validation_base@DV?$string_output_adapter@D@__crt_stdio_output@@@2@@__crt_stdio_output@@AAE_NXZ 1003314f f i libucrt:output.obj
 0001:000322ff       ?state_case_size@?$output_processor@DV?$string_output_adapter@D@__crt_stdio_output@@V?$positional_parameter_base@DV?$string_output_adapter@D@__crt_stdio_output@@@2@@__crt_stdio_output@@AAE_NXZ 100332ff f i libucrt:output.obj
 0001:000324af       ?state_case_size@?$output_processor@DV?$string_output_adapter@D@__crt_stdio_output@@V?$standard_base@DV?$string_output_adapter@D@__crt_stdio_output@@@2@@__crt_stdio_output@@AAE_NXZ 100334af f i libucrt:output.obj
 0001:0003265f       ?state_case_size@?$output_processor@_WV?$stream_output_adapter@_W@__crt_stdio_output@@V?$format_validation_base@_WV?$stream_output_adapter@_W@__crt_stdio_output@@@2@@__crt_stdio_output@@AAE_NXZ 1003365f f i libucrt:output.obj
 0001:00032827       ?state_case_size@?$output_processor@_WV?$stream_output_adapter@_W@__crt_stdio_output@@V?$positional_parameter_base@_WV?$stream_output_adapter@_W@__crt_stdio_output@@@2@@__crt_stdio_output@@AAE_NXZ 10033827 f i libucrt:output.obj
 0001:000329ef       ?state_case_size@?$output_processor@_WV?$stream_output_adapter@_W@__crt_stdio_output@@V?$standard_base@_WV?$stream_output_adapter@_W@__crt_stdio_output@@@2@@__crt_stdio_output@@AAE_NXZ 100339ef f i libucrt:output.obj
 0001:00032bb7       ?state_case_size@?$output_processor@_WV?$string_output_adapter@_W@__crt_stdio_output@@V?$format_validation_base@_WV?$string_output_adapter@_W@__crt_stdio_output@@@2@@__crt_stdio_output@@AAE_NXZ 10033bb7 f i libucrt:output.obj
 0001:00032d7f       ?state_case_size@?$output_processor@_WV?$string_output_adapter@_W@__crt_stdio_output@@V?$positional_parameter_base@_WV?$string_output_adapter@_W@__crt_stdio_output@@@2@@__crt_stdio_output@@AAE_NXZ 10033d7f f i libucrt:output.obj
 0001:00032f47       ?state_case_size@?$output_processor@_WV?$string_output_adapter@_W@__crt_stdio_output@@V?$standard_base@_WV?$string_output_adapter@_W@__crt_stdio_output@@@2@@__crt_stdio_output@@AAE_NXZ 10033f47 f i libucrt:output.obj
 0001:0003310f       ?state_case_type@?$output_processor@DV?$stream_output_adapter@D@__crt_stdio_output@@V?$format_validation_base@DV?$stream_output_adapter@D@__crt_stdio_output@@@2@@__crt_stdio_output@@AAE_NXZ 1003410f f i libucrt:output.obj
 0001:000333c2       ?state_case_type@?$output_processor@DV?$stream_output_adapter@D@__crt_stdio_output@@V?$positional_parameter_base@DV?$stream_output_adapter@D@__crt_stdio_output@@@2@@__crt_stdio_output@@AAE_NXZ 100343c2 f i libucrt:output.obj
 0001:00033683       ?state_case_type@?$output_processor@DV?$stream_output_adapter@D@__crt_stdio_output@@V?$standard_base@DV?$stream_output_adapter@D@__crt_stdio_output@@@2@@__crt_stdio_output@@AAE_NXZ 10034683 f i libucrt:output.obj
 0001:00033936       ?state_case_type@?$output_processor@DV?$string_output_adapter@D@__crt_stdio_output@@V?$format_validation_base@DV?$string_output_adapter@D@__crt_stdio_output@@@2@@__crt_stdio_output@@AAE_NXZ 10034936 f i libucrt:output.obj
 0001:00033be9       ?state_case_type@?$output_processor@DV?$string_output_adapter@D@__crt_stdio_output@@V?$positional_parameter_base@DV?$string_output_adapter@D@__crt_stdio_output@@@2@@__crt_stdio_output@@AAE_NXZ 10034be9 f i libucrt:output.obj
 0001:00033eaa       ?state_case_type@?$output_processor@DV?$string_output_adapter@D@__crt_stdio_output@@V?$standard_base@DV?$string_output_adapter@D@__crt_stdio_output@@@2@@__crt_stdio_output@@AAE_NXZ 10034eaa f i libucrt:output.obj
 0001:0003415d       ?state_case_type@?$output_processor@_WV?$stream_output_adapter@_W@__crt_stdio_output@@V?$format_validation_base@_WV?$stream_output_adapter@_W@__crt_stdio_output@@@2@@__crt_stdio_output@@AAE_NXZ 1003515d f i libucrt:output.obj
 0001:0003445d       ?state_case_type@?$output_processor@_WV?$stream_output_adapter@_W@__crt_stdio_output@@V?$positional_parameter_base@_WV?$stream_output_adapter@_W@__crt_stdio_output@@@2@@__crt_stdio_output@@AAE_NXZ 1003545d f i libucrt:output.obj
 0001:00034770       ?state_case_type@?$output_processor@_WV?$stream_output_adapter@_W@__crt_stdio_output@@V?$standard_base@_WV?$stream_output_adapter@_W@__crt_stdio_output@@@2@@__crt_stdio_output@@AAE_NXZ 10035770 f i libucrt:output.obj
 0001:00034a70       ?state_case_type@?$output_processor@_WV?$string_output_adapter@_W@__crt_stdio_output@@V?$format_validation_base@_WV?$string_output_adapter@_W@__crt_stdio_output@@@2@@__crt_stdio_output@@AAE_NXZ 10035a70 f i libucrt:output.obj
 0001:00034d70       ?state_case_type@?$output_processor@_WV?$string_output_adapter@_W@__crt_stdio_output@@V?$positional_parameter_base@_WV?$string_output_adapter@_W@__crt_stdio_output@@@2@@__crt_stdio_output@@AAE_NXZ 10035d70 f i libucrt:output.obj
 0001:00035083       ?state_case_type@?$output_processor@_WV?$string_output_adapter@_W@__crt_stdio_output@@V?$standard_base@_WV?$string_output_adapter@_W@__crt_stdio_output@@@2@@__crt_stdio_output@@AAE_NXZ 10036083 f i libucrt:output.obj
 0001:00035383       ?state_case_width@?$output_processor@DV?$stream_output_adapter@D@__crt_stdio_output@@V?$format_validation_base@DV?$stream_output_adapter@D@__crt_stdio_output@@@2@@__crt_stdio_output@@AAE_NXZ 10036383 f i libucrt:output.obj
 0001:000353b8       ?state_case_width@?$output_processor@DV?$stream_output_adapter@D@__crt_stdio_output@@V?$positional_parameter_base@DV?$stream_output_adapter@D@__crt_stdio_output@@@2@@__crt_stdio_output@@AAE_NXZ 100363b8 f i libucrt:output.obj
 0001:00035408       ?state_case_width@?$output_processor@DV?$stream_output_adapter@D@__crt_stdio_output@@V?$standard_base@DV?$stream_output_adapter@D@__crt_stdio_output@@@2@@__crt_stdio_output@@AAE_NXZ 10036408 f i libucrt:output.obj
 0001:0003543d       ?state_case_width@?$output_processor@DV?$string_output_adapter@D@__crt_stdio_output@@V?$format_validation_base@DV?$string_output_adapter@D@__crt_stdio_output@@@2@@__crt_stdio_output@@AAE_NXZ 1003643d f i libucrt:output.obj
 0001:00035472       ?state_case_width@?$output_processor@DV?$string_output_adapter@D@__crt_stdio_output@@V?$positional_parameter_base@DV?$string_output_adapter@D@__crt_stdio_output@@@2@@__crt_stdio_output@@AAE_NXZ 10036472 f i libucrt:output.obj
 0001:000354c2       ?state_case_width@?$output_processor@DV?$string_output_adapter@D@__crt_stdio_output@@V?$standard_base@DV?$string_output_adapter@D@__crt_stdio_output@@@2@@__crt_stdio_output@@AAE_NXZ 100364c2 f i libucrt:output.obj
 0001:000354f7       ?state_case_width@?$output_processor@_WV?$stream_output_adapter@_W@__crt_stdio_output@@V?$format_validation_base@_WV?$stream_output_adapter@_W@__crt_stdio_output@@@2@@__crt_stdio_output@@AAE_NXZ 100364f7 f i libucrt:output.obj
 0001:0003552e       ?state_case_width@?$output_processor@_WV?$stream_output_adapter@_W@__crt_stdio_output@@V?$positional_parameter_base@_WV?$stream_output_adapter@_W@__crt_stdio_output@@@2@@__crt_stdio_output@@AAE_NXZ 1003652e f i libucrt:output.obj
 0001:0003557f       ?state_case_width@?$output_processor@_WV?$stream_output_adapter@_W@__crt_stdio_output@@V?$standard_base@_WV?$stream_output_adapter@_W@__crt_stdio_output@@@2@@__crt_stdio_output@@AAE_NXZ 1003657f f i libucrt:output.obj
 0001:000355b6       ?state_case_width@?$output_processor@_WV?$string_output_adapter@_W@__crt_stdio_output@@V?$format_validation_base@_WV?$string_output_adapter@_W@__crt_stdio_output@@@2@@__crt_stdio_output@@AAE_NXZ 100365b6 f i libucrt:output.obj
 0001:000355ed       ?state_case_width@?$output_processor@_WV?$string_output_adapter@_W@__crt_stdio_output@@V?$positional_parameter_base@_WV?$string_output_adapter@_W@__crt_stdio_output@@@2@@__crt_stdio_output@@AAE_NXZ 100365ed f i libucrt:output.obj
 0001:0003563e       ?state_case_width@?$output_processor@_WV?$string_output_adapter@_W@__crt_stdio_output@@V?$standard_base@_WV?$string_output_adapter@_W@__crt_stdio_output@@@2@@__crt_stdio_output@@AAE_NXZ 1003663e f i libucrt:output.obj
 0001:00035675       ?state_count@?$format_validation_base@DV?$stream_output_adapter@D@__crt_stdio_output@@@__crt_stdio_output@@KAIXZ 10036675 f i libucrt:output.obj
 0001:00035679       ?state_count@?$format_validation_base@DV?$string_output_adapter@D@__crt_stdio_output@@@__crt_stdio_output@@KAIXZ 10036679 f i libucrt:output.obj
 0001:0003567d       ?state_count@?$format_validation_base@_WV?$stream_output_adapter@_W@__crt_stdio_output@@@__crt_stdio_output@@KAIXZ 1003667d f i libucrt:output.obj
 0001:00035681       ?state_count@?$format_validation_base@_WV?$string_output_adapter@_W@__crt_stdio_output@@@__crt_stdio_output@@KAIXZ 10036681 f i libucrt:output.obj
 0001:00035685       ?state_count@?$standard_base@DV?$stream_output_adapter@D@__crt_stdio_output@@@__crt_stdio_output@@KAIXZ 10036685 f i libucrt:output.obj
 0001:00035689       ?state_count@?$standard_base@DV?$string_output_adapter@D@__crt_stdio_output@@@__crt_stdio_output@@KAIXZ 10036689 f i libucrt:output.obj
 0001:0003568d       ?state_count@?$standard_base@_WV?$stream_output_adapter@_W@__crt_stdio_output@@@__crt_stdio_output@@KAIXZ 1003668d f i libucrt:output.obj
 0001:00035691       ?state_count@?$standard_base@_WV?$string_output_adapter@_W@__crt_stdio_output@@@__crt_stdio_output@@KAIXZ 10036691 f i libucrt:output.obj
 0001:00035695       ?state_transition_table@?$format_validation_base@DV?$stream_output_adapter@D@__crt_stdio_output@@@__crt_stdio_output@@KAPBEXZ 10036695 f i libucrt:output.obj
 0001:0003569b       ?state_transition_table@?$format_validation_base@DV?$string_output_adapter@D@__crt_stdio_output@@@__crt_stdio_output@@KAPBEXZ 1003669b f i libucrt:output.obj
 0001:000356a1       ?state_transition_table@?$format_validation_base@_WV?$stream_output_adapter@_W@__crt_stdio_output@@@__crt_stdio_output@@KAPBEXZ 100366a1 f i libucrt:output.obj
 0001:000356a7       ?state_transition_table@?$format_validation_base@_WV?$string_output_adapter@_W@__crt_stdio_output@@@__crt_stdio_output@@KAPBEXZ 100366a7 f i libucrt:output.obj
 0001:000356ad       ?state_transition_table@?$standard_base@DV?$stream_output_adapter@D@__crt_stdio_output@@@__crt_stdio_output@@KAPBEXZ 100366ad f i libucrt:output.obj
 0001:000356b3       ?state_transition_table@?$standard_base@DV?$string_output_adapter@D@__crt_stdio_output@@@__crt_stdio_output@@KAPBEXZ 100366b3 f i libucrt:output.obj
 0001:000356b9       ?state_transition_table@?$standard_base@_WV?$stream_output_adapter@_W@__crt_stdio_output@@@__crt_stdio_output@@KAPBEXZ 100366b9 f i libucrt:output.obj
 0001:000356bf       ?state_transition_table@?$standard_base@_WV?$string_output_adapter@_W@__crt_stdio_output@@@__crt_stdio_output@@KAPBEXZ 100366bf f i libucrt:output.obj
 0001:000356c5       ?tchar_string@?$common_data@D@__crt_stdio_output@@IAEAAPADD@Z 100366c5 f i libucrt:output.obj
 0001:000356cb       ?tchar_string@?$common_data@D@__crt_stdio_output@@IAEAAPADXZ 100366cb f i libucrt:output.obj
 0001:000356cf       ?tchar_string@?$common_data@_W@__crt_stdio_output@@IAEAAPA_WXZ 100366cf f i libucrt:output.obj
 0001:000356d3       ?tchar_string@?$common_data@_W@__crt_stdio_output@@IAEAAPA_W_W@Z 100366d3 f i libucrt:output.obj
 0001:000356d9       ?to_integer_size@__crt_stdio_output@@YAIW4length_modifier@1@@Z 100366d9 f i libucrt:output.obj
 0001:0003574c       ?type_case_X@?$output_processor@DV?$stream_output_adapter@D@__crt_stdio_output@@V?$format_validation_base@DV?$stream_output_adapter@D@__crt_stdio_output@@@2@@__crt_stdio_output@@AAE_NXZ 1003674c f i libucrt:output.obj
 0001:00035758       ?type_case_X@?$output_processor@DV?$stream_output_adapter@D@__crt_stdio_output@@V?$positional_parameter_base@DV?$stream_output_adapter@D@__crt_stdio_output@@@2@@__crt_stdio_output@@AAE_NXZ 10036758 f i libucrt:output.obj
 0001:00035764       ?type_case_X@?$output_processor@DV?$stream_output_adapter@D@__crt_stdio_output@@V?$standard_base@DV?$stream_output_adapter@D@__crt_stdio_output@@@2@@__crt_stdio_output@@AAE_NXZ 10036764 f i libucrt:output.obj
 0001:00035770       ?type_case_X@?$output_processor@DV?$string_output_adapter@D@__crt_stdio_output@@V?$format_validation_base@DV?$string_output_adapter@D@__crt_stdio_output@@@2@@__crt_stdio_output@@AAE_NXZ 10036770 f i libucrt:output.obj
 0001:0003577c       ?type_case_X@?$output_processor@DV?$string_output_adapter@D@__crt_stdio_output@@V?$positional_parameter_base@DV?$string_output_adapter@D@__crt_stdio_output@@@2@@__crt_stdio_output@@AAE_NXZ 1003677c f i libucrt:output.obj
 0001:00035788       ?type_case_X@?$output_processor@DV?$string_output_adapter@D@__crt_stdio_output@@V?$standard_base@DV?$string_output_adapter@D@__crt_stdio_output@@@2@@__crt_stdio_output@@AAE_NXZ 10036788 f i libucrt:output.obj
 0001:00035794       ?type_case_X@?$output_processor@_WV?$stream_output_adapter@_W@__crt_stdio_output@@V?$format_validation_base@_WV?$stream_output_adapter@_W@__crt_stdio_output@@@2@@__crt_stdio_output@@AAE_NXZ 10036794 f i libucrt:output.obj
 0001:000357a0       ?type_case_X@?$output_processor@_WV?$stream_output_adapter@_W@__crt_stdio_output@@V?$positional_parameter_base@_WV?$stream_output_adapter@_W@__crt_stdio_output@@@2@@__crt_stdio_output@@AAE_NXZ 100367a0 f i libucrt:output.obj
 0001:000357ac       ?type_case_X@?$output_processor@_WV?$stream_output_adapter@_W@__crt_stdio_output@@V?$standard_base@_WV?$stream_output_adapter@_W@__crt_stdio_output@@@2@@__crt_stdio_output@@AAE_NXZ 100367ac f i libucrt:output.obj
 0001:000357b8       ?type_case_X@?$output_processor@_WV?$string_output_adapter@_W@__crt_stdio_output@@V?$format_validation_base@_WV?$string_output_adapter@_W@__crt_stdio_output@@@2@@__crt_stdio_output@@AAE_NXZ 100367b8 f i libucrt:output.obj
 0001:000357c4       ?type_case_X@?$output_processor@_WV?$string_output_adapter@_W@__crt_stdio_output@@V?$positional_parameter_base@_WV?$string_output_adapter@_W@__crt_stdio_output@@@2@@__crt_stdio_output@@AAE_NXZ 100367c4 f i libucrt:output.obj
 0001:000357d0       ?type_case_X@?$output_processor@_WV?$string_output_adapter@_W@__crt_stdio_output@@V?$standard_base@_WV?$string_output_adapter@_W@__crt_stdio_output@@@2@@__crt_stdio_output@@AAE_NXZ 100367d0 f i libucrt:output.obj
 0001:000357dc       ?type_case_Z@?$output_processor@DV?$stream_output_adapter@D@__crt_stdio_output@@V?$format_validation_base@DV?$stream_output_adapter@D@__crt_stdio_output@@@2@@__crt_stdio_output@@AAE_NXZ 100367dc f i libucrt:output.obj
 0001:00035855       ?type_case_Z@?$output_processor@DV?$stream_output_adapter@D@__crt_stdio_output@@V?$positional_parameter_base@DV?$stream_output_adapter@D@__crt_stdio_output@@@2@@__crt_stdio_output@@AAE_NXZ 10036855 f i libucrt:output.obj
 0001:0003596b       ?type_case_Z@?$output_processor@DV?$stream_output_adapter@D@__crt_stdio_output@@V?$standard_base@DV?$stream_output_adapter@D@__crt_stdio_output@@@2@@__crt_stdio_output@@AAE_NXZ 1003696b f i libucrt:output.obj
 0001:000359e4       ?type_case_Z@?$output_processor@DV?$string_output_adapter@D@__crt_stdio_output@@V?$format_validation_base@DV?$string_output_adapter@D@__crt_stdio_output@@@2@@__crt_stdio_output@@AAE_NXZ 100369e4 f i libucrt:output.obj
 0001:00035a5d       ?type_case_Z@?$output_processor@DV?$string_output_adapter@D@__crt_stdio_output@@V?$positional_parameter_base@DV?$string_output_adapter@D@__crt_stdio_output@@@2@@__crt_stdio_output@@AAE_NXZ 10036a5d f i libucrt:output.obj
 0001:00035b73       ?type_case_Z@?$output_processor@DV?$string_output_adapter@D@__crt_stdio_output@@V?$standard_base@DV?$string_output_adapter@D@__crt_stdio_output@@@2@@__crt_stdio_output@@AAE_NXZ 10036b73 f i libucrt:output.obj
 0001:00035bec       ?type_case_Z@?$output_processor@_WV?$stream_output_adapter@_W@__crt_stdio_output@@V?$format_validation_base@_WV?$stream_output_adapter@_W@__crt_stdio_output@@@2@@__crt_stdio_output@@AAE_NXZ 10036bec f i libucrt:output.obj
 0001:00035c65       ?type_case_Z@?$output_processor@_WV?$stream_output_adapter@_W@__crt_stdio_output@@V?$positional_parameter_base@_WV?$stream_output_adapter@_W@__crt_stdio_output@@@2@@__crt_stdio_output@@AAE_NXZ 10036c65 f i libucrt:output.obj
 0001:00035d7b       ?type_case_Z@?$output_processor@_WV?$stream_output_adapter@_W@__crt_stdio_output@@V?$standard_base@_WV?$stream_output_adapter@_W@__crt_stdio_output@@@2@@__crt_stdio_output@@AAE_NXZ 10036d7b f i libucrt:output.obj
 0001:00035df4       ?type_case_Z@?$output_processor@_WV?$string_output_adapter@_W@__crt_stdio_output@@V?$format_validation_base@_WV?$string_output_adapter@_W@__crt_stdio_output@@@2@@__crt_stdio_output@@AAE_NXZ 10036df4 f i libucrt:output.obj
 0001:00035e6d       ?type_case_Z@?$output_processor@_WV?$string_output_adapter@_W@__crt_stdio_output@@V?$positional_parameter_base@_WV?$string_output_adapter@_W@__crt_stdio_output@@@2@@__crt_stdio_output@@AAE_NXZ 10036e6d f i libucrt:output.obj
 0001:00035f83       ?type_case_Z@?$output_processor@_WV?$string_output_adapter@_W@__crt_stdio_output@@V?$standard_base@_WV?$string_output_adapter@_W@__crt_stdio_output@@@2@@__crt_stdio_output@@AAE_NXZ 10036f83 f i libucrt:output.obj
 0001:00035ffc       ?type_case_a@?$output_processor@DV?$stream_output_adapter@D@__crt_stdio_output@@V?$format_validation_base@DV?$stream_output_adapter@D@__crt_stdio_output@@@2@@__crt_stdio_output@@AAE_NXZ 10036ffc f i libucrt:output.obj
 0001:000361ab       ?type_case_a@?$output_processor@DV?$stream_output_adapter@D@__crt_stdio_output@@V?$positional_parameter_base@DV?$stream_output_adapter@D@__crt_stdio_output@@@2@@__crt_stdio_output@@AAE_NXZ 100371ab f i libucrt:output.obj
 0001:00036381       ?type_case_a@?$output_processor@DV?$stream_output_adapter@D@__crt_stdio_output@@V?$standard_base@DV?$stream_output_adapter@D@__crt_stdio_output@@@2@@__crt_stdio_output@@AAE_NXZ 10037381 f i libucrt:output.obj
 0001:00036530       ?type_case_a@?$output_processor@DV?$string_output_adapter@D@__crt_stdio_output@@V?$format_validation_base@DV?$string_output_adapter@D@__crt_stdio_output@@@2@@__crt_stdio_output@@AAE_NXZ 10037530 f i libucrt:output.obj
 0001:000366df       ?type_case_a@?$output_processor@DV?$string_output_adapter@D@__crt_stdio_output@@V?$positional_parameter_base@DV?$string_output_adapter@D@__crt_stdio_output@@@2@@__crt_stdio_output@@AAE_NXZ 100376df f i libucrt:output.obj
 0001:000368b5       ?type_case_a@?$output_processor@DV?$string_output_adapter@D@__crt_stdio_output@@V?$standard_base@DV?$string_output_adapter@D@__crt_stdio_output@@@2@@__crt_stdio_output@@AAE_NXZ 100378b5 f i libucrt:output.obj
 0001:00036a64       ?type_case_a@?$output_processor@_WV?$stream_output_adapter@_W@__crt_stdio_output@@V?$format_validation_base@_WV?$stream_output_adapter@_W@__crt_stdio_output@@@2@@__crt_stdio_output@@AAE_NXZ 10037a64 f i libucrt:output.obj
 0001:00036c2e       ?type_case_a@?$output_processor@_WV?$stream_output_adapter@_W@__crt_stdio_output@@V?$positional_parameter_base@_WV?$stream_output_adapter@_W@__crt_stdio_output@@@2@@__crt_stdio_output@@AAE_NXZ 10037c2e f i libucrt:output.obj
 0001:00036e1f       ?type_case_a@?$output_processor@_WV?$stream_output_adapter@_W@__crt_stdio_output@@V?$standard_base@_WV?$stream_output_adapter@_W@__crt_stdio_output@@@2@@__crt_stdio_output@@AAE_NXZ 10037e1f f i libucrt:output.obj
 0001:00036fe9       ?type_case_a@?$output_processor@_WV?$string_output_adapter@_W@__crt_stdio_output@@V?$format_validation_base@_WV?$string_output_adapter@_W@__crt_stdio_output@@@2@@__crt_stdio_output@@AAE_NXZ 10037fe9 f i libucrt:output.obj
 0001:000371b3       ?type_case_a@?$output_processor@_WV?$string_output_adapter@_W@__crt_stdio_output@@V?$positional_parameter_base@_WV?$string_output_adapter@_W@__crt_stdio_output@@@2@@__crt_stdio_output@@AAE_NXZ 100381b3 f i libucrt:output.obj
 0001:000373a4       ?type_case_a@?$output_processor@_WV?$string_output_adapter@_W@__crt_stdio_output@@V?$standard_base@_WV?$string_output_adapter@_W@__crt_stdio_output@@@2@@__crt_stdio_output@@AAE_NXZ 100383a4 f i libucrt:output.obj
 0001:0003756e       ?type_case_c@?$output_processor@DV?$stream_output_adapter@D@__crt_stdio_output@@V?$format_validation_base@DV?$stream_output_adapter@D@__crt_stdio_output@@@2@@__crt_stdio_output@@AAE_NXZ 1003856e f i libucrt:output.obj
 0001:00037578       ?type_case_c@?$output_processor@DV?$stream_output_adapter@D@__crt_stdio_output@@V?$positional_parameter_base@DV?$stream_output_adapter@D@__crt_stdio_output@@@2@@__crt_stdio_output@@AAE_NXZ 10038578 f i libucrt:output.obj
 0001:00037582       ?type_case_c@?$output_processor@DV?$stream_output_adapter@D@__crt_stdio_output@@V?$standard_base@DV?$stream_output_adapter@D@__crt_stdio_output@@@2@@__crt_stdio_output@@AAE_NXZ 10038582 f i libucrt:output.obj
 0001:0003758c       ?type_case_c@?$output_processor@DV?$string_output_adapter@D@__crt_stdio_output@@V?$format_validation_base@DV?$string_output_adapter@D@__crt_stdio_output@@@2@@__crt_stdio_output@@AAE_NXZ 1003858c f i libucrt:output.obj
 0001:00037596       ?type_case_c@?$output_processor@DV?$string_output_adapter@D@__crt_stdio_output@@V?$positional_parameter_base@DV?$string_output_adapter@D@__crt_stdio_output@@@2@@__crt_stdio_output@@AAE_NXZ 10038596 f i libucrt:output.obj
 0001:000375a0       ?type_case_c@?$output_processor@DV?$string_output_adapter@D@__crt_stdio_output@@V?$standard_base@DV?$string_output_adapter@D@__crt_stdio_output@@@2@@__crt_stdio_output@@AAE_NXZ 100385a0 f i libucrt:output.obj
 0001:000375aa       ?type_case_c@?$output_processor@_WV?$stream_output_adapter@_W@__crt_stdio_output@@V?$format_validation_base@_WV?$stream_output_adapter@_W@__crt_stdio_output@@@2@@__crt_stdio_output@@AAE_NXZ 100385aa f i libucrt:output.obj
 0001:000375b4       ?type_case_c@?$output_processor@_WV?$stream_output_adapter@_W@__crt_stdio_output@@V?$positional_parameter_base@_WV?$stream_output_adapter@_W@__crt_stdio_output@@@2@@__crt_stdio_output@@AAE_NXZ 100385b4 f i libucrt:output.obj
 0001:000375be       ?type_case_c@?$output_processor@_WV?$stream_output_adapter@_W@__crt_stdio_output@@V?$standard_base@_WV?$stream_output_adapter@_W@__crt_stdio_output@@@2@@__crt_stdio_output@@AAE_NXZ 100385be f i libucrt:output.obj
 0001:000375c8       ?type_case_c@?$output_processor@_WV?$string_output_adapter@_W@__crt_stdio_output@@V?$format_validation_base@_WV?$string_output_adapter@_W@__crt_stdio_output@@@2@@__crt_stdio_output@@AAE_NXZ 100385c8 f i libucrt:output.obj
 0001:000375d2       ?type_case_c@?$output_processor@_WV?$string_output_adapter@_W@__crt_stdio_output@@V?$positional_parameter_base@_WV?$string_output_adapter@_W@__crt_stdio_output@@@2@@__crt_stdio_output@@AAE_NXZ 100385d2 f i libucrt:output.obj
 0001:000375dc       ?type_case_c@?$output_processor@_WV?$string_output_adapter@_W@__crt_stdio_output@@V?$standard_base@_WV?$string_output_adapter@_W@__crt_stdio_output@@@2@@__crt_stdio_output@@AAE_NXZ 100385dc f i libucrt:output.obj
 0001:000375e6       ?type_case_c_tchar@?$output_processor@DV?$stream_output_adapter@D@__crt_stdio_output@@V?$format_validation_base@DV?$stream_output_adapter@D@__crt_stdio_output@@@2@@__crt_stdio_output@@AAE_ND@Z 100385e6 f i libucrt:output.obj
 0001:0003769a       ?type_case_c_tchar@?$output_processor@DV?$stream_output_adapter@D@__crt_stdio_output@@V?$positional_parameter_base@DV?$stream_output_adapter@D@__crt_stdio_output@@@2@@__crt_stdio_output@@AAE_ND@Z 1003869a f i libucrt:output.obj
 0001:0003778a       ?type_case_c_tchar@?$output_processor@DV?$stream_output_adapter@D@__crt_stdio_output@@V?$standard_base@DV?$stream_output_adapter@D@__crt_stdio_output@@@2@@__crt_stdio_output@@AAE_ND@Z 1003878a f i libucrt:output.obj
 0001:0003783e       ?type_case_c_tchar@?$output_processor@DV?$string_output_adapter@D@__crt_stdio_output@@V?$format_validation_base@DV?$string_output_adapter@D@__crt_stdio_output@@@2@@__crt_stdio_output@@AAE_ND@Z 1003883e f i libucrt:output.obj
 0001:000378f2       ?type_case_c_tchar@?$output_processor@DV?$string_output_adapter@D@__crt_stdio_output@@V?$positional_parameter_base@DV?$string_output_adapter@D@__crt_stdio_output@@@2@@__crt_stdio_output@@AAE_ND@Z 100388f2 f i libucrt:output.obj
 0001:000379e2       ?type_case_c_tchar@?$output_processor@DV?$string_output_adapter@D@__crt_stdio_output@@V?$standard_base@DV?$string_output_adapter@D@__crt_stdio_output@@@2@@__crt_stdio_output@@AAE_ND@Z 100389e2 f i libucrt:output.obj
 0001:00037a96       ?type_case_c_tchar@?$output_processor@_WV?$stream_output_adapter@_W@__crt_stdio_output@@V?$format_validation_base@_WV?$stream_output_adapter@_W@__crt_stdio_output@@@2@@__crt_stdio_output@@AAE_N_W@Z 10038a96 f i libucrt:output.obj
 0001:00037b54       ?type_case_c_tchar@?$output_processor@_WV?$stream_output_adapter@_W@__crt_stdio_output@@V?$positional_parameter_base@_WV?$stream_output_adapter@_W@__crt_stdio_output@@@2@@__crt_stdio_output@@AAE_N_W@Z 10038b54 f i libucrt:output.obj
 0001:00037c2e       ?type_case_c_tchar@?$output_processor@_WV?$stream_output_adapter@_W@__crt_stdio_output@@V?$standard_base@_WV?$stream_output_adapter@_W@__crt_stdio_output@@@2@@__crt_stdio_output@@AAE_N_W@Z 10038c2e f i libucrt:output.obj
 0001:00037cec       ?type_case_c_tchar@?$output_processor@_WV?$string_output_adapter@_W@__crt_stdio_output@@V?$format_validation_base@_WV?$string_output_adapter@_W@__crt_stdio_output@@@2@@__crt_stdio_output@@AAE_N_W@Z 10038cec f i libucrt:output.obj
 0001:00037daa       ?type_case_c_tchar@?$output_processor@_WV?$string_output_adapter@_W@__crt_stdio_output@@V?$positional_parameter_base@_WV?$string_output_adapter@_W@__crt_stdio_output@@@2@@__crt_stdio_output@@AAE_N_W@Z 10038daa f i libucrt:output.obj
 0001:00037e84       ?type_case_c_tchar@?$output_processor@_WV?$string_output_adapter@_W@__crt_stdio_output@@V?$standard_base@_WV?$string_output_adapter@_W@__crt_stdio_output@@@2@@__crt_stdio_output@@AAE_N_W@Z 10038e84 f i libucrt:output.obj
 0001:00037f42       ?type_case_d@?$output_processor@DV?$stream_output_adapter@D@__crt_stdio_output@@V?$format_validation_base@DV?$stream_output_adapter@D@__crt_stdio_output@@@2@@__crt_stdio_output@@AAE_NXZ 10038f42 f i libucrt:output.obj
 0001:00037f53       ?type_case_d@?$output_processor@DV?$stream_output_adapter@D@__crt_stdio_output@@V?$positional_parameter_base@DV?$stream_output_adapter@D@__crt_stdio_output@@@2@@__crt_stdio_output@@AAE_NXZ 10038f53 f i libucrt:output.obj
 0001:00037f64       ?type_case_d@?$output_processor@DV?$stream_output_adapter@D@__crt_stdio_output@@V?$standard_base@DV?$stream_output_adapter@D@__crt_stdio_output@@@2@@__crt_stdio_output@@AAE_NXZ 10038f64 f i libucrt:output.obj
 0001:00037f75       ?type_case_d@?$output_processor@DV?$string_output_adapter@D@__crt_stdio_output@@V?$format_validation_base@DV?$string_output_adapter@D@__crt_stdio_output@@@2@@__crt_stdio_output@@AAE_NXZ 10038f75 f i libucrt:output.obj
 0001:00037f86       ?type_case_d@?$output_processor@DV?$string_output_adapter@D@__crt_stdio_output@@V?$positional_parameter_base@DV?$string_output_adapter@D@__crt_stdio_output@@@2@@__crt_stdio_output@@AAE_NXZ 10038f86 f i libucrt:output.obj
 0001:00037f97       ?type_case_d@?$output_processor@DV?$string_output_adapter@D@__crt_stdio_output@@V?$standard_base@DV?$string_output_adapter@D@__crt_stdio_output@@@2@@__crt_stdio_output@@AAE_NXZ 10038f97 f i libucrt:output.obj
 0001:00037fa8       ?type_case_d@?$output_processor@_WV?$stream_output_adapter@_W@__crt_stdio_output@@V?$format_validation_base@_WV?$stream_output_adapter@_W@__crt_stdio_output@@@2@@__crt_stdio_output@@AAE_NXZ 10038fa8 f i libucrt:output.obj
 0001:00037fb9       ?type_case_d@?$output_processor@_WV?$stream_output_adapter@_W@__crt_stdio_output@@V?$positional_parameter_base@_WV?$stream_output_adapter@_W@__crt_stdio_output@@@2@@__crt_stdio_output@@AAE_NXZ 10038fb9 f i libucrt:output.obj
 0001:00037fca       ?type_case_d@?$output_processor@_WV?$stream_output_adapter@_W@__crt_stdio_output@@V?$standard_base@_WV?$stream_output_adapter@_W@__crt_stdio_output@@@2@@__crt_stdio_output@@AAE_NXZ 10038fca f i libucrt:output.obj
 0001:00037fdb       ?type_case_d@?$output_processor@_WV?$string_output_adapter@_W@__crt_stdio_output@@V?$format_validation_base@_WV?$string_output_adapter@_W@__crt_stdio_output@@@2@@__crt_stdio_output@@AAE_NXZ 10038fdb f i libucrt:output.obj
 0001:00037fec       ?type_case_d@?$output_processor@_WV?$string_output_adapter@_W@__crt_stdio_output@@V?$positional_parameter_base@_WV?$string_output_adapter@_W@__crt_stdio_output@@@2@@__crt_stdio_output@@AAE_NXZ 10038fec f i libucrt:output.obj
 0001:00037ffd       ?type_case_d@?$output_processor@_WV?$string_output_adapter@_W@__crt_stdio_output@@V?$standard_base@_WV?$string_output_adapter@_W@__crt_stdio_output@@@2@@__crt_stdio_output@@AAE_NXZ 10038ffd f i libucrt:output.obj
 0001:0003800e       ?type_case_integer@?$output_processor@DV?$stream_output_adapter@D@__crt_stdio_output@@V?$format_validation_base@DV?$stream_output_adapter@D@__crt_stdio_output@@@2@@__crt_stdio_output@@AAE_NI_N@Z 1003900e f i libucrt:output.obj
 0001:000381b5       ?type_case_integer@?$output_processor@DV?$stream_output_adapter@D@__crt_stdio_output@@V?$positional_parameter_base@DV?$stream_output_adapter@D@__crt_stdio_output@@@2@@__crt_stdio_output@@AAE_NI_N@Z 100391b5 f i libucrt:output.obj
 0001:00038398       ?type_case_integer@?$output_processor@DV?$stream_output_adapter@D@__crt_stdio_output@@V?$standard_base@DV?$stream_output_adapter@D@__crt_stdio_output@@@2@@__crt_stdio_output@@AAE_NI_N@Z 10039398 f i libucrt:output.obj
 0001:0003853f       ?type_case_integer@?$output_processor@DV?$string_output_adapter@D@__crt_stdio_output@@V?$format_validation_base@DV?$string_output_adapter@D@__crt_stdio_output@@@2@@__crt_stdio_output@@AAE_NI_N@Z 1003953f f i libucrt:output.obj
 0001:000386e6       ?type_case_integer@?$output_processor@DV?$string_output_adapter@D@__crt_stdio_output@@V?$positional_parameter_base@DV?$string_output_adapter@D@__crt_stdio_output@@@2@@__crt_stdio_output@@AAE_NI_N@Z 100396e6 f i libucrt:output.obj
 0001:000388c9       ?type_case_integer@?$output_processor@DV?$string_output_adapter@D@__crt_stdio_output@@V?$standard_base@DV?$string_output_adapter@D@__crt_stdio_output@@@2@@__crt_stdio_output@@AAE_NI_N@Z 100398c9 f i libucrt:output.obj
 0001:00038a70       ?type_case_integer@?$output_processor@_WV?$stream_output_adapter@_W@__crt_stdio_output@@V?$format_validation_base@_WV?$stream_output_adapter@_W@__crt_stdio_output@@@2@@__crt_stdio_output@@AAE_NI_N@Z 10039a70 f i libucrt:output.obj
 0001:00038c1c       ?type_case_integer@?$output_processor@_WV?$stream_output_adapter@_W@__crt_stdio_output@@V?$positional_parameter_base@_WV?$stream_output_adapter@_W@__crt_stdio_output@@@2@@__crt_stdio_output@@AAE_NI_N@Z 10039c1c f i libucrt:output.obj
 0001:00038e04       ?type_case_integer@?$output_processor@_WV?$stream_output_adapter@_W@__crt_stdio_output@@V?$standard_base@_WV?$stream_output_adapter@_W@__crt_stdio_output@@@2@@__crt_stdio_output@@AAE_NI_N@Z 10039e04 f i libucrt:output.obj
 0001:00038fb0       ?type_case_integer@?$output_processor@_WV?$string_output_adapter@_W@__crt_stdio_output@@V?$format_validation_base@_WV?$string_output_adapter@_W@__crt_stdio_output@@@2@@__crt_stdio_output@@AAE_NI_N@Z 10039fb0 f i libucrt:output.obj
 0001:0003915c       ?type_case_integer@?$output_processor@_WV?$string_output_adapter@_W@__crt_stdio_output@@V?$positional_parameter_base@_WV?$string_output_adapter@_W@__crt_stdio_output@@@2@@__crt_stdio_output@@AAE_NI_N@Z 1003a15c f i libucrt:output.obj
 0001:00039344       ?type_case_integer@?$output_processor@_WV?$string_output_adapter@_W@__crt_stdio_output@@V?$standard_base@_WV?$string_output_adapter@_W@__crt_stdio_output@@@2@@__crt_stdio_output@@AAE_NI_N@Z 1003a344 f i libucrt:output.obj
 0001:000394f0       ?type_case_n@?$output_processor@DV?$stream_output_adapter@D@__crt_stdio_output@@V?$format_validation_base@DV?$stream_output_adapter@D@__crt_stdio_output@@@2@@__crt_stdio_output@@AAE_NXZ 1003a4f0 f i libucrt:output.obj
 0001:00039581       ?type_case_n@?$output_processor@DV?$stream_output_adapter@D@__crt_stdio_output@@V?$positional_parameter_base@DV?$stream_output_adapter@D@__crt_stdio_output@@@2@@__crt_stdio_output@@AAE_NXZ 1003a581 f i libucrt:output.obj
 0001:00039640       ?type_case_n@?$output_processor@DV?$stream_output_adapter@D@__crt_stdio_output@@V?$standard_base@DV?$stream_output_adapter@D@__crt_stdio_output@@@2@@__crt_stdio_output@@AAE_NXZ 1003a640 f i libucrt:output.obj
 0001:000396d1       ?type_case_n@?$output_processor@DV?$string_output_adapter@D@__crt_stdio_output@@V?$format_validation_base@DV?$string_output_adapter@D@__crt_stdio_output@@@2@@__crt_stdio_output@@AAE_NXZ 1003a6d1 f i libucrt:output.obj
 0001:00039762       ?type_case_n@?$output_processor@DV?$string_output_adapter@D@__crt_stdio_output@@V?$positional_parameter_base@DV?$string_output_adapter@D@__crt_stdio_output@@@2@@__crt_stdio_output@@AAE_NXZ 1003a762 f i libucrt:output.obj
 0001:00039821       ?type_case_n@?$output_processor@DV?$string_output_adapter@D@__crt_stdio_output@@V?$standard_base@DV?$string_output_adapter@D@__crt_stdio_output@@@2@@__crt_stdio_output@@AAE_NXZ 1003a821 f i libucrt:output.obj
 0001:000398b2       ?type_case_n@?$output_processor@_WV?$stream_output_adapter@_W@__crt_stdio_output@@V?$format_validation_base@_WV?$stream_output_adapter@_W@__crt_stdio_output@@@2@@__crt_stdio_output@@AAE_NXZ 1003a8b2 f i libucrt:output.obj
 0001:00039943       ?type_case_n@?$output_processor@_WV?$stream_output_adapter@_W@__crt_stdio_output@@V?$positional_parameter_base@_WV?$stream_output_adapter@_W@__crt_stdio_output@@@2@@__crt_stdio_output@@AAE_NXZ 1003a943 f i libucrt:output.obj
 0001:00039a02       ?type_case_n@?$output_processor@_WV?$stream_output_adapter@_W@__crt_stdio_output@@V?$standard_base@_WV?$stream_output_adapter@_W@__crt_stdio_output@@@2@@__crt_stdio_output@@AAE_NXZ 1003aa02 f i libucrt:output.obj
 0001:00039a93       ?type_case_n@?$output_processor@_WV?$string_output_adapter@_W@__crt_stdio_output@@V?$format_validation_base@_WV?$string_output_adapter@_W@__crt_stdio_output@@@2@@__crt_stdio_output@@AAE_NXZ 1003aa93 f i libucrt:output.obj
 0001:00039b24       ?type_case_n@?$output_processor@_WV?$string_output_adapter@_W@__crt_stdio_output@@V?$positional_parameter_base@_WV?$string_output_adapter@_W@__crt_stdio_output@@@2@@__crt_stdio_output@@AAE_NXZ 1003ab24 f i libucrt:output.obj
 0001:00039be3       ?type_case_n@?$output_processor@_WV?$string_output_adapter@_W@__crt_stdio_output@@V?$standard_base@_WV?$string_output_adapter@_W@__crt_stdio_output@@@2@@__crt_stdio_output@@AAE_NXZ 1003abe3 f i libucrt:output.obj
 0001:00039c74       ?type_case_o@?$output_processor@DV?$stream_output_adapter@D@__crt_stdio_output@@V?$format_validation_base@DV?$stream_output_adapter@D@__crt_stdio_output@@@2@@__crt_stdio_output@@AAE_NXZ 1003ac74 f i libucrt:output.obj
 0001:00039c9a       ?type_case_o@?$output_processor@DV?$stream_output_adapter@D@__crt_stdio_output@@V?$positional_parameter_base@DV?$stream_output_adapter@D@__crt_stdio_output@@@2@@__crt_stdio_output@@AAE_NXZ 1003ac9a f i libucrt:output.obj
 0001:00039cc0       ?type_case_o@?$output_processor@DV?$stream_output_adapter@D@__crt_stdio_output@@V?$standard_base@DV?$stream_output_adapter@D@__crt_stdio_output@@@2@@__crt_stdio_output@@AAE_NXZ 1003acc0 f i libucrt:output.obj
 0001:00039ce6       ?type_case_o@?$output_processor@DV?$string_output_adapter@D@__crt_stdio_output@@V?$format_validation_base@DV?$string_output_adapter@D@__crt_stdio_output@@@2@@__crt_stdio_output@@AAE_NXZ 1003ace6 f i libucrt:output.obj
 0001:00039d0c       ?type_case_o@?$output_processor@DV?$string_output_adapter@D@__crt_stdio_output@@V?$positional_parameter_base@DV?$string_output_adapter@D@__crt_stdio_output@@@2@@__crt_stdio_output@@AAE_NXZ 1003ad0c f i libucrt:output.obj
 0001:00039d32       ?type_case_o@?$output_processor@DV?$string_output_adapter@D@__crt_stdio_output@@V?$standard_base@DV?$string_output_adapter@D@__crt_stdio_output@@@2@@__crt_stdio_output@@AAE_NXZ 1003ad32 f i libucrt:output.obj
 0001:00039d58       ?type_case_o@?$output_processor@_WV?$stream_output_adapter@_W@__crt_stdio_output@@V?$format_validation_base@_WV?$stream_output_adapter@_W@__crt_stdio_output@@@2@@__crt_stdio_output@@AAE_NXZ 1003ad58 f i libucrt:output.obj
 0001:00039d7e       ?type_case_o@?$output_processor@_WV?$stream_output_adapter@_W@__crt_stdio_output@@V?$positional_parameter_base@_WV?$stream_output_adapter@_W@__crt_stdio_output@@@2@@__crt_stdio_output@@AAE_NXZ 1003ad7e f i libucrt:output.obj
 0001:00039da4       ?type_case_o@?$output_processor@_WV?$stream_output_adapter@_W@__crt_stdio_output@@V?$standard_base@_WV?$stream_output_adapter@_W@__crt_stdio_output@@@2@@__crt_stdio_output@@AAE_NXZ 1003ada4 f i libucrt:output.obj
 0001:00039dca       ?type_case_o@?$output_processor@_WV?$string_output_adapter@_W@__crt_stdio_output@@V?$format_validation_base@_WV?$string_output_adapter@_W@__crt_stdio_output@@@2@@__crt_stdio_output@@AAE_NXZ 1003adca f i libucrt:output.obj
 0001:00039df0       ?type_case_o@?$output_processor@_WV?$string_output_adapter@_W@__crt_stdio_output@@V?$positional_parameter_base@_WV?$string_output_adapter@_W@__crt_stdio_output@@@2@@__crt_stdio_output@@AAE_NXZ 1003adf0 f i libucrt:output.obj
 0001:00039e16       ?type_case_o@?$output_processor@_WV?$string_output_adapter@_W@__crt_stdio_output@@V?$standard_base@_WV?$string_output_adapter@_W@__crt_stdio_output@@@2@@__crt_stdio_output@@AAE_NXZ 1003ae16 f i libucrt:output.obj
 0001:00039e3c       ?type_case_p@?$output_processor@DV?$stream_output_adapter@D@__crt_stdio_output@@V?$format_validation_base@DV?$stream_output_adapter@D@__crt_stdio_output@@@2@@__crt_stdio_output@@AAE_NXZ 1003ae3c f i libucrt:output.obj
 0001:00039e5a       ?type_case_p@?$output_processor@DV?$stream_output_adapter@D@__crt_stdio_output@@V?$positional_parameter_base@DV?$stream_output_adapter@D@__crt_stdio_output@@@2@@__crt_stdio_output@@AAE_NXZ 1003ae5a f i libucrt:output.obj
 0001:00039e78       ?type_case_p@?$output_processor@DV?$stream_output_adapter@D@__crt_stdio_output@@V?$standard_base@DV?$stream_output_adapter@D@__crt_stdio_output@@@2@@__crt_stdio_output@@AAE_NXZ 1003ae78 f i libucrt:output.obj
 0001:00039e96       ?type_case_p@?$output_processor@DV?$string_output_adapter@D@__crt_stdio_output@@V?$format_validation_base@DV?$string_output_adapter@D@__crt_stdio_output@@@2@@__crt_stdio_output@@AAE_NXZ 1003ae96 f i libucrt:output.obj
 0001:00039eb4       ?type_case_p@?$output_processor@DV?$string_output_adapter@D@__crt_stdio_output@@V?$positional_parameter_base@DV?$string_output_adapter@D@__crt_stdio_output@@@2@@__crt_stdio_output@@AAE_NXZ 1003aeb4 f i libucrt:output.obj
 0001:00039ed2       ?type_case_p@?$output_processor@DV?$string_output_adapter@D@__crt_stdio_output@@V?$standard_base@DV?$string_output_adapter@D@__crt_stdio_output@@@2@@__crt_stdio_output@@AAE_NXZ 1003aed2 f i libucrt:output.obj
 0001:00039ef0       ?type_case_p@?$output_processor@_WV?$stream_output_adapter@_W@__crt_stdio_output@@V?$format_validation_base@_WV?$stream_output_adapter@_W@__crt_stdio_output@@@2@@__crt_stdio_output@@AAE_NXZ 1003aef0 f i libucrt:output.obj
 0001:00039f0e       ?type_case_p@?$output_processor@_WV?$stream_output_adapter@_W@__crt_stdio_output@@V?$positional_parameter_base@_WV?$stream_output_adapter@_W@__crt_stdio_output@@@2@@__crt_stdio_output@@AAE_NXZ 1003af0e f i libucrt:output.obj
 0001:00039f2c       ?type_case_p@?$output_processor@_WV?$stream_output_adapter@_W@__crt_stdio_output@@V?$standard_base@_WV?$stream_output_adapter@_W@__crt_stdio_output@@@2@@__crt_stdio_output@@AAE_NXZ 1003af2c f i libucrt:output.obj
 0001:00039f4a       ?type_case_p@?$output_processor@_WV?$string_output_adapter@_W@__crt_stdio_output@@V?$format_validation_base@_WV?$string_output_adapter@_W@__crt_stdio_output@@@2@@__crt_stdio_output@@AAE_NXZ 1003af4a f i libucrt:output.obj
 0001:00039f68       ?type_case_p@?$output_processor@_WV?$string_output_adapter@_W@__crt_stdio_output@@V?$positional_parameter_base@_WV?$string_output_adapter@_W@__crt_stdio_output@@@2@@__crt_stdio_output@@AAE_NXZ 1003af68 f i libucrt:output.obj
 0001:00039f86       ?type_case_p@?$output_processor@_WV?$string_output_adapter@_W@__crt_stdio_output@@V?$standard_base@_WV?$string_output_adapter@_W@__crt_stdio_output@@@2@@__crt_stdio_output@@AAE_NXZ 1003af86 f i libucrt:output.obj
 0001:00039fa4       ?type_case_s@?$output_processor@DV?$stream_output_adapter@D@__crt_stdio_output@@V?$format_validation_base@DV?$stream_output_adapter@D@__crt_stdio_output@@@2@@__crt_stdio_output@@AAE_NXZ 1003afa4 f i libucrt:output.obj
 0001:0003a031       ?type_case_s@?$output_processor@DV?$stream_output_adapter@D@__crt_stdio_output@@V?$positional_parameter_base@DV?$stream_output_adapter@D@__crt_stdio_output@@@2@@__crt_stdio_output@@AAE_NXZ 1003b031 f i libucrt:output.obj
 0001:0003a0ce       ?type_case_s@?$output_processor@DV?$stream_output_adapter@D@__crt_stdio_output@@V?$standard_base@DV?$stream_output_adapter@D@__crt_stdio_output@@@2@@__crt_stdio_output@@AAE_NXZ 1003b0ce f i libucrt:output.obj
 0001:0003a15b       ?type_case_s@?$output_processor@DV?$string_output_adapter@D@__crt_stdio_output@@V?$format_validation_base@DV?$string_output_adapter@D@__crt_stdio_output@@@2@@__crt_stdio_output@@AAE_NXZ 1003b15b f i libucrt:output.obj
 0001:0003a1e8       ?type_case_s@?$output_processor@DV?$string_output_adapter@D@__crt_stdio_output@@V?$positional_parameter_base@DV?$string_output_adapter@D@__crt_stdio_output@@@2@@__crt_stdio_output@@AAE_NXZ 1003b1e8 f i libucrt:output.obj
 0001:0003a285       ?type_case_s@?$output_processor@DV?$string_output_adapter@D@__crt_stdio_output@@V?$standard_base@DV?$string_output_adapter@D@__crt_stdio_output@@@2@@__crt_stdio_output@@AAE_NXZ 1003b285 f i libucrt:output.obj
 0001:0003a312       ?type_case_s@?$output_processor@_WV?$stream_output_adapter@_W@__crt_stdio_output@@V?$format_validation_base@_WV?$stream_output_adapter@_W@__crt_stdio_output@@@2@@__crt_stdio_output@@AAE_NXZ 1003b312 f i libucrt:output.obj
 0001:0003a3a1       ?type_case_s@?$output_processor@_WV?$stream_output_adapter@_W@__crt_stdio_output@@V?$positional_parameter_base@_WV?$stream_output_adapter@_W@__crt_stdio_output@@@2@@__crt_stdio_output@@AAE_NXZ 1003b3a1 f i libucrt:output.obj
 0001:0003a441       ?type_case_s@?$output_processor@_WV?$stream_output_adapter@_W@__crt_stdio_output@@V?$standard_base@_WV?$stream_output_adapter@_W@__crt_stdio_output@@@2@@__crt_stdio_output@@AAE_NXZ 1003b441 f i libucrt:output.obj
 0001:0003a4d0       ?type_case_s@?$output_processor@_WV?$string_output_adapter@_W@__crt_stdio_output@@V?$format_validation_base@_WV?$string_output_adapter@_W@__crt_stdio_output@@@2@@__crt_stdio_output@@AAE_NXZ 1003b4d0 f i libucrt:output.obj
 0001:0003a55f       ?type_case_s@?$output_processor@_WV?$string_output_adapter@_W@__crt_stdio_output@@V?$positional_parameter_base@_WV?$string_output_adapter@_W@__crt_stdio_output@@@2@@__crt_stdio_output@@AAE_NXZ 1003b55f f i libucrt:output.obj
 0001:0003a5ff       ?type_case_s@?$output_processor@_WV?$string_output_adapter@_W@__crt_stdio_output@@V?$standard_base@_WV?$string_output_adapter@_W@__crt_stdio_output@@@2@@__crt_stdio_output@@AAE_NXZ 1003b5ff f i libucrt:output.obj
 0001:0003a68e       ?type_case_s_compute_narrow_string_length@?$output_processor@DV?$stream_output_adapter@D@__crt_stdio_output@@V?$format_validation_base@DV?$stream_output_adapter@D@__crt_stdio_output@@@2@@__crt_stdio_output@@ABEHHD@Z 1003b68e f i libucrt:output.obj
 0001:0003a6a9       ?type_case_s_compute_narrow_string_length@?$output_processor@DV?$stream_output_adapter@D@__crt_stdio_output@@V?$positional_parameter_base@DV?$stream_output_adapter@D@__crt_stdio_output@@@2@@__crt_stdio_output@@ABEHHD@Z 1003b6a9 f i libucrt:output.obj
 0001:0003a6c4       ?type_case_s_compute_narrow_string_length@?$output_processor@DV?$stream_output_adapter@D@__crt_stdio_output@@V?$standard_base@DV?$stream_output_adapter@D@__crt_stdio_output@@@2@@__crt_stdio_output@@ABEHHD@Z 1003b6c4 f i libucrt:output.obj
 0001:0003a6df       ?type_case_s_compute_narrow_string_length@?$output_processor@DV?$string_output_adapter@D@__crt_stdio_output@@V?$format_validation_base@DV?$string_output_adapter@D@__crt_stdio_output@@@2@@__crt_stdio_output@@ABEHHD@Z 1003b6df f i libucrt:output.obj
 0001:0003a6fa       ?type_case_s_compute_narrow_string_length@?$output_processor@DV?$string_output_adapter@D@__crt_stdio_output@@V?$positional_parameter_base@DV?$string_output_adapter@D@__crt_stdio_output@@@2@@__crt_stdio_output@@ABEHHD@Z 1003b6fa f i libucrt:output.obj
 0001:0003a715       ?type_case_s_compute_narrow_string_length@?$output_processor@DV?$string_output_adapter@D@__crt_stdio_output@@V?$standard_base@DV?$string_output_adapter@D@__crt_stdio_output@@@2@@__crt_stdio_output@@ABEHHD@Z 1003b715 f i libucrt:output.obj
 0001:0003a730       ?type_case_s_compute_narrow_string_length@?$output_processor@_WV?$stream_output_adapter@_W@__crt_stdio_output@@V?$format_validation_base@_WV?$stream_output_adapter@_W@__crt_stdio_output@@@2@@__crt_stdio_output@@ABEHH_W@Z 1003b730 f i libucrt:output.obj
 0001:0003a77c       ?type_case_s_compute_narrow_string_length@?$output_processor@_WV?$stream_output_adapter@_W@__crt_stdio_output@@V?$positional_parameter_base@_WV?$stream_output_adapter@_W@__crt_stdio_output@@@2@@__crt_stdio_output@@ABEHH_W@Z 1003b77c f i libucrt:output.obj
 0001:0003a7c8       ?type_case_s_compute_narrow_string_length@?$output_processor@_WV?$stream_output_adapter@_W@__crt_stdio_output@@V?$standard_base@_WV?$stream_output_adapter@_W@__crt_stdio_output@@@2@@__crt_stdio_output@@ABEHH_W@Z 1003b7c8 f i libucrt:output.obj
 0001:0003a814       ?type_case_s_compute_narrow_string_length@?$output_processor@_WV?$string_output_adapter@_W@__crt_stdio_output@@V?$format_validation_base@_WV?$string_output_adapter@_W@__crt_stdio_output@@@2@@__crt_stdio_output@@ABEHH_W@Z 1003b814 f i libucrt:output.obj
 0001:0003a860       ?type_case_s_compute_narrow_string_length@?$output_processor@_WV?$string_output_adapter@_W@__crt_stdio_output@@V?$positional_parameter_base@_WV?$string_output_adapter@_W@__crt_stdio_output@@@2@@__crt_stdio_output@@ABEHH_W@Z 1003b860 f i libucrt:output.obj
 0001:0003a8ac       ?type_case_s_compute_narrow_string_length@?$output_processor@_WV?$string_output_adapter@_W@__crt_stdio_output@@V?$standard_base@_WV?$string_output_adapter@_W@__crt_stdio_output@@@2@@__crt_stdio_output@@ABEHH_W@Z 1003b8ac f i libucrt:output.obj
 0001:0003a8f8       ?type_case_u@?$output_processor@DV?$stream_output_adapter@D@__crt_stdio_output@@V?$format_validation_base@DV?$stream_output_adapter@D@__crt_stdio_output@@@2@@__crt_stdio_output@@AAE_NXZ 1003b8f8 f i libucrt:output.obj
 0001:0003a904       ?type_case_u@?$output_processor@DV?$stream_output_adapter@D@__crt_stdio_output@@V?$positional_parameter_base@DV?$stream_output_adapter@D@__crt_stdio_output@@@2@@__crt_stdio_output@@AAE_NXZ 1003b904 f i libucrt:output.obj
 0001:0003a910       ?type_case_u@?$output_processor@DV?$stream_output_adapter@D@__crt_stdio_output@@V?$standard_base@DV?$stream_output_adapter@D@__crt_stdio_output@@@2@@__crt_stdio_output@@AAE_NXZ 1003b910 f i libucrt:output.obj
 0001:0003a91c       ?type_case_u@?$output_processor@DV?$string_output_adapter@D@__crt_stdio_output@@V?$format_validation_base@DV?$string_output_adapter@D@__crt_stdio_output@@@2@@__crt_stdio_output@@AAE_NXZ 1003b91c f i libucrt:output.obj
 0001:0003a928       ?type_case_u@?$output_processor@DV?$string_output_adapter@D@__crt_stdio_output@@V?$positional_parameter_base@DV?$string_output_adapter@D@__crt_stdio_output@@@2@@__crt_stdio_output@@AAE_NXZ 1003b928 f i libucrt:output.obj
 0001:0003a934       ?type_case_u@?$output_processor@DV?$string_output_adapter@D@__crt_stdio_output@@V?$standard_base@DV?$string_output_adapter@D@__crt_stdio_output@@@2@@__crt_stdio_output@@AAE_NXZ 1003b934 f i libucrt:output.obj
 0001:0003a940       ?type_case_u@?$output_processor@_WV?$stream_output_adapter@_W@__crt_stdio_output@@V?$format_validation_base@_WV?$stream_output_adapter@_W@__crt_stdio_output@@@2@@__crt_stdio_output@@AAE_NXZ 1003b940 f i libucrt:output.obj
 0001:0003a94c       ?type_case_u@?$output_processor@_WV?$stream_output_adapter@_W@__crt_stdio_output@@V?$positional_parameter_base@_WV?$stream_output_adapter@_W@__crt_stdio_output@@@2@@__crt_stdio_output@@AAE_NXZ 1003b94c f i libucrt:output.obj
 0001:0003a958       ?type_case_u@?$output_processor@_WV?$stream_output_adapter@_W@__crt_stdio_output@@V?$standard_base@_WV?$stream_output_adapter@_W@__crt_stdio_output@@@2@@__crt_stdio_output@@AAE_NXZ 1003b958 f i libucrt:output.obj
 0001:0003a964       ?type_case_u@?$output_processor@_WV?$string_output_adapter@_W@__crt_stdio_output@@V?$format_validation_base@_WV?$string_output_adapter@_W@__crt_stdio_output@@@2@@__crt_stdio_output@@AAE_NXZ 1003b964 f i libucrt:output.obj
 0001:0003a970       ?type_case_u@?$output_processor@_WV?$string_output_adapter@_W@__crt_stdio_output@@V?$positional_parameter_base@_WV?$string_output_adapter@_W@__crt_stdio_output@@@2@@__crt_stdio_output@@AAE_NXZ 1003b970 f i libucrt:output.obj
 0001:0003a97c       ?type_case_u@?$output_processor@_WV?$string_output_adapter@_W@__crt_stdio_output@@V?$standard_base@_WV?$string_output_adapter@_W@__crt_stdio_output@@@2@@__crt_stdio_output@@AAE_NXZ 1003b97c f i libucrt:output.obj
 0001:0003a988       ?type_case_x@?$output_processor@DV?$stream_output_adapter@D@__crt_stdio_output@@V?$format_validation_base@DV?$stream_output_adapter@D@__crt_stdio_output@@@2@@__crt_stdio_output@@AAE_NXZ 1003b988 f i libucrt:output.obj
 0001:0003a994       ?type_case_x@?$output_processor@DV?$stream_output_adapter@D@__crt_stdio_output@@V?$positional_parameter_base@DV?$stream_output_adapter@D@__crt_stdio_output@@@2@@__crt_stdio_output@@AAE_NXZ 1003b994 f i libucrt:output.obj
 0001:0003a9a0       ?type_case_x@?$output_processor@DV?$stream_output_adapter@D@__crt_stdio_output@@V?$standard_base@DV?$stream_output_adapter@D@__crt_stdio_output@@@2@@__crt_stdio_output@@AAE_NXZ 1003b9a0 f i libucrt:output.obj
 0001:0003a9ac       ?type_case_x@?$output_processor@DV?$string_output_adapter@D@__crt_stdio_output@@V?$format_validation_base@DV?$string_output_adapter@D@__crt_stdio_output@@@2@@__crt_stdio_output@@AAE_NXZ 1003b9ac f i libucrt:output.obj
 0001:0003a9b8       ?type_case_x@?$output_processor@DV?$string_output_adapter@D@__crt_stdio_output@@V?$positional_parameter_base@DV?$string_output_adapter@D@__crt_stdio_output@@@2@@__crt_stdio_output@@AAE_NXZ 1003b9b8 f i libucrt:output.obj
 0001:0003a9c4       ?type_case_x@?$output_processor@DV?$string_output_adapter@D@__crt_stdio_output@@V?$standard_base@DV?$string_output_adapter@D@__crt_stdio_output@@@2@@__crt_stdio_output@@AAE_NXZ 1003b9c4 f i libucrt:output.obj
 0001:0003a9d0       ?type_case_x@?$output_processor@_WV?$stream_output_adapter@_W@__crt_stdio_output@@V?$format_validation_base@_WV?$stream_output_adapter@_W@__crt_stdio_output@@@2@@__crt_stdio_output@@AAE_NXZ 1003b9d0 f i libucrt:output.obj
 0001:0003a9dc       ?type_case_x@?$output_processor@_WV?$stream_output_adapter@_W@__crt_stdio_output@@V?$positional_parameter_base@_WV?$stream_output_adapter@_W@__crt_stdio_output@@@2@@__crt_stdio_output@@AAE_NXZ 1003b9dc f i libucrt:output.obj
 0001:0003a9e8       ?type_case_x@?$output_processor@_WV?$stream_output_adapter@_W@__crt_stdio_output@@V?$standard_base@_WV?$stream_output_adapter@_W@__crt_stdio_output@@@2@@__crt_stdio_output@@AAE_NXZ 1003b9e8 f i libucrt:output.obj
 0001:0003a9f4       ?type_case_x@?$output_processor@_WV?$string_output_adapter@_W@__crt_stdio_output@@V?$format_validation_base@_WV?$string_output_adapter@_W@__crt_stdio_output@@@2@@__crt_stdio_output@@AAE_NXZ 1003b9f4 f i libucrt:output.obj
 0001:0003aa00       ?type_case_x@?$output_processor@_WV?$string_output_adapter@_W@__crt_stdio_output@@V?$positional_parameter_base@_WV?$string_output_adapter@_W@__crt_stdio_output@@@2@@__crt_stdio_output@@AAE_NXZ 1003ba00 f i libucrt:output.obj
 0001:0003aa0c       ?type_case_x@?$output_processor@_WV?$string_output_adapter@_W@__crt_stdio_output@@V?$standard_base@_WV?$string_output_adapter@_W@__crt_stdio_output@@@2@@__crt_stdio_output@@AAE_NXZ 1003ba0c f i libucrt:output.obj
 0001:0003aa18       ?unset_flag@?$output_processor@DV?$stream_output_adapter@D@__crt_stdio_output@@V?$format_validation_base@DV?$stream_output_adapter@D@__crt_stdio_output@@@2@@__crt_stdio_output@@AAEXI@Z 1003ba18 f i libucrt:output.obj
 0001:0003aa2d       ?unset_flag@?$output_processor@DV?$stream_output_adapter@D@__crt_stdio_output@@V?$positional_parameter_base@DV?$stream_output_adapter@D@__crt_stdio_output@@@2@@__crt_stdio_output@@AAEXI@Z 1003ba2d f i libucrt:output.obj
 0001:0003aa42       ?unset_flag@?$output_processor@DV?$stream_output_adapter@D@__crt_stdio_output@@V?$standard_base@DV?$stream_output_adapter@D@__crt_stdio_output@@@2@@__crt_stdio_output@@AAEXI@Z 1003ba42 f i libucrt:output.obj
 0001:0003aa57       ?unset_flag@?$output_processor@DV?$string_output_adapter@D@__crt_stdio_output@@V?$format_validation_base@DV?$string_output_adapter@D@__crt_stdio_output@@@2@@__crt_stdio_output@@AAEXI@Z 1003ba57 f i libucrt:output.obj
 0001:0003aa6c       ?unset_flag@?$output_processor@DV?$string_output_adapter@D@__crt_stdio_output@@V?$positional_parameter_base@DV?$string_output_adapter@D@__crt_stdio_output@@@2@@__crt_stdio_output@@AAEXI@Z 1003ba6c f i libucrt:output.obj
 0001:0003aa81       ?unset_flag@?$output_processor@DV?$string_output_adapter@D@__crt_stdio_output@@V?$standard_base@DV?$string_output_adapter@D@__crt_stdio_output@@@2@@__crt_stdio_output@@AAEXI@Z 1003ba81 f i libucrt:output.obj
 0001:0003aa96       ?unset_flag@?$output_processor@_WV?$stream_output_adapter@_W@__crt_stdio_output@@V?$format_validation_base@_WV?$stream_output_adapter@_W@__crt_stdio_output@@@2@@__crt_stdio_output@@AAEXI@Z 1003ba96 f i libucrt:output.obj
 0001:0003aaab       ?unset_flag@?$output_processor@_WV?$stream_output_adapter@_W@__crt_stdio_output@@V?$positional_parameter_base@_WV?$stream_output_adapter@_W@__crt_stdio_output@@@2@@__crt_stdio_output@@AAEXI@Z 1003baab f i libucrt:output.obj
 0001:0003aac0       ?unset_flag@?$output_processor@_WV?$stream_output_adapter@_W@__crt_stdio_output@@V?$standard_base@_WV?$stream_output_adapter@_W@__crt_stdio_output@@@2@@__crt_stdio_output@@AAEXI@Z 1003bac0 f i libucrt:output.obj
 0001:0003aad5       ?unset_flag@?$output_processor@_WV?$string_output_adapter@_W@__crt_stdio_output@@V?$format_validation_base@_WV?$string_output_adapter@_W@__crt_stdio_output@@@2@@__crt_stdio_output@@AAEXI@Z 1003bad5 f i libucrt:output.obj
 0001:0003aaea       ?unset_flag@?$output_processor@_WV?$string_output_adapter@_W@__crt_stdio_output@@V?$positional_parameter_base@_WV?$string_output_adapter@_W@__crt_stdio_output@@@2@@__crt_stdio_output@@AAEXI@Z 1003baea f i libucrt:output.obj
 0001:0003aaff       ?unset_flag@?$output_processor@_WV?$string_output_adapter@_W@__crt_stdio_output@@V?$standard_base@_WV?$string_output_adapter@_W@__crt_stdio_output@@@2@@__crt_stdio_output@@AAEXI@Z 1003baff f i libucrt:output.obj
 0001:0003ab14       ?update_field_width@?$positional_parameter_base@DV?$stream_output_adapter@D@__crt_stdio_output@@@__crt_stdio_output@@IAE_NXZ 1003bb14 f i libucrt:output.obj
 0001:0003abf7       ?update_field_width@?$positional_parameter_base@DV?$string_output_adapter@D@__crt_stdio_output@@@__crt_stdio_output@@IAE_NXZ 1003bbf7 f i libucrt:output.obj
 0001:0003acda       ?update_field_width@?$positional_parameter_base@_WV?$stream_output_adapter@_W@__crt_stdio_output@@@__crt_stdio_output@@IAE_NXZ 1003bcda f i libucrt:output.obj
 0001:0003adbe       ?update_field_width@?$positional_parameter_base@_WV?$string_output_adapter@_W@__crt_stdio_output@@@__crt_stdio_output@@IAE_NXZ 1003bdbe f i libucrt:output.obj
 0001:0003aea2       ?update_field_width@?$standard_base@DV?$stream_output_adapter@D@__crt_stdio_output@@@__crt_stdio_output@@IAE_NXZ 1003bea2 f i libucrt:output.obj
 0001:0003aeb6       ?update_field_width@?$standard_base@DV?$string_output_adapter@D@__crt_stdio_output@@@__crt_stdio_output@@IAE_NXZ 1003beb6 f i libucrt:output.obj
 0001:0003aeca       ?update_field_width@?$standard_base@_WV?$stream_output_adapter@_W@__crt_stdio_output@@@__crt_stdio_output@@IAE_NXZ 1003beca f i libucrt:output.obj
 0001:0003aede       ?update_field_width@?$standard_base@_WV?$string_output_adapter@_W@__crt_stdio_output@@@__crt_stdio_output@@IAE_NXZ 1003bede f i libucrt:output.obj
 0001:0003aef2       ?update_precision@?$positional_parameter_base@DV?$stream_output_adapter@D@__crt_stdio_output@@@__crt_stdio_output@@IAE_NXZ 1003bef2 f i libucrt:output.obj
 0001:0003afd5       ?update_precision@?$positional_parameter_base@DV?$string_output_adapter@D@__crt_stdio_output@@@__crt_stdio_output@@IAE_NXZ 1003bfd5 f i libucrt:output.obj
 0001:0003b0b8       ?update_precision@?$positional_parameter_base@_WV?$stream_output_adapter@_W@__crt_stdio_output@@@__crt_stdio_output@@IAE_NXZ 1003c0b8 f i libucrt:output.obj
 0001:0003b19c       ?update_precision@?$positional_parameter_base@_WV?$string_output_adapter@_W@__crt_stdio_output@@@__crt_stdio_output@@IAE_NXZ 1003c19c f i libucrt:output.obj
 0001:0003b280       ?update_precision@?$standard_base@DV?$stream_output_adapter@D@__crt_stdio_output@@@__crt_stdio_output@@IAE_NXZ 1003c280 f i libucrt:output.obj
 0001:0003b294       ?update_precision@?$standard_base@DV?$string_output_adapter@D@__crt_stdio_output@@@__crt_stdio_output@@IAE_NXZ 1003c294 f i libucrt:output.obj
 0001:0003b2a8       ?update_precision@?$standard_base@_WV?$stream_output_adapter@_W@__crt_stdio_output@@@__crt_stdio_output@@IAE_NXZ 1003c2a8 f i libucrt:output.obj
 0001:0003b2bc       ?update_precision@?$standard_base@_WV?$string_output_adapter@_W@__crt_stdio_output@@@__crt_stdio_output@@IAE_NXZ 1003c2bc f i libucrt:output.obj
 0001:0003b2d0       ?validate@?$stream_output_adapter@D@__crt_stdio_output@@QBE_NXZ 1003c2d0 f i libucrt:output.obj
 0001:0003b2f9       ?validate@?$stream_output_adapter@_W@__crt_stdio_output@@QBE_NXZ 1003c2f9 f i libucrt:output.obj
 0001:0003b31a       ?validate@?$string_output_adapter@D@__crt_stdio_output@@QBE_NXZ 1003c31a f i libucrt:output.obj
 0001:0003b33b       ?validate@?$string_output_adapter@_W@__crt_stdio_output@@QBE_NXZ 1003c33b f i libucrt:output.obj
 0001:0003b35c       ?validate_and_store_parameter_data@?$positional_parameter_base@DV?$stream_output_adapter@D@__crt_stdio_output@@@__crt_stdio_output@@AAE_NAAUparameter_data@12@W4parameter_type@12@DW4length_modifier@2@@Z 1003c35c f i libucrt:output.obj
 0001:0003b3b9       ?validate_and_store_parameter_data@?$positional_parameter_base@DV?$string_output_adapter@D@__crt_stdio_output@@@__crt_stdio_output@@AAE_NAAUparameter_data@12@W4parameter_type@12@DW4length_modifier@2@@Z 1003c3b9 f i libucrt:output.obj
 0001:0003b416       ?validate_and_store_parameter_data@?$positional_parameter_base@_WV?$stream_output_adapter@_W@__crt_stdio_output@@@__crt_stdio_output@@AAE_NAAUparameter_data@12@W4parameter_type@12@_WW4length_modifier@2@@Z 1003c416 f i libucrt:output.obj
 0001:0003b476       ?validate_and_store_parameter_data@?$positional_parameter_base@_WV?$string_output_adapter@_W@__crt_stdio_output@@@__crt_stdio_output@@AAE_NAAUparameter_data@12@W4parameter_type@12@_WW4length_modifier@2@@Z 1003c476 f i libucrt:output.obj
 0001:0003b4d6       ?validate_and_update_state_at_beginning_of_format_character@?$positional_parameter_base@DV?$stream_output_adapter@D@__crt_stdio_output@@@__crt_stdio_output@@IAE_NXZ 1003c4d6 f i libucrt:output.obj
 0001:0003b60e       ?validate_and_update_state_at_beginning_of_format_character@?$positional_parameter_base@DV?$string_output_adapter@D@__crt_stdio_output@@@__crt_stdio_output@@IAE_NXZ 1003c60e f i libucrt:output.obj
 0001:0003b746       ?validate_and_update_state_at_beginning_of_format_character@?$positional_parameter_base@_WV?$stream_output_adapter@_W@__crt_stdio_output@@@__crt_stdio_output@@IAE_NXZ 1003c746 f i libucrt:output.obj
 0001:0003b889       ?validate_and_update_state_at_beginning_of_format_character@?$positional_parameter_base@_WV?$string_output_adapter@_W@__crt_stdio_output@@@__crt_stdio_output@@IAE_NXZ 1003c889 f i libucrt:output.obj
 0001:0003b9cc       ?validate_and_update_state_at_beginning_of_format_character@?$standard_base@DV?$stream_output_adapter@D@__crt_stdio_output@@@__crt_stdio_output@@IAE_NXZ 1003c9cc f i libucrt:output.obj
 0001:0003b9cf       ?validate_and_update_state_at_beginning_of_format_character@?$standard_base@DV?$string_output_adapter@D@__crt_stdio_output@@@__crt_stdio_output@@IAE_NXZ 1003c9cf f i libucrt:output.obj
 0001:0003b9d2       ?validate_and_update_state_at_beginning_of_format_character@?$standard_base@_WV?$stream_output_adapter@_W@__crt_stdio_output@@@__crt_stdio_output@@IAE_NXZ 1003c9d2 f i libucrt:output.obj
 0001:0003b9d5       ?validate_and_update_state_at_beginning_of_format_character@?$standard_base@_WV?$string_output_adapter@_W@__crt_stdio_output@@@__crt_stdio_output@@IAE_NXZ 1003c9d5 f i libucrt:output.obj
 0001:0003b9d8       ?validate_and_update_state_at_end_of_format_string@?$format_validation_base@DV?$stream_output_adapter@D@__crt_stdio_output@@@__crt_stdio_output@@IBE_NXZ 1003c9d8 f i libucrt:output.obj
 0001:0003ba02       ?validate_and_update_state_at_end_of_format_string@?$format_validation_base@DV?$string_output_adapter@D@__crt_stdio_output@@@__crt_stdio_output@@IBE_NXZ 1003ca02 f i libucrt:output.obj
 0001:0003ba2c       ?validate_and_update_state_at_end_of_format_string@?$format_validation_base@_WV?$stream_output_adapter@_W@__crt_stdio_output@@@__crt_stdio_output@@IBE_NXZ 1003ca2c f i libucrt:output.obj
 0001:0003ba56       ?validate_and_update_state_at_end_of_format_string@?$format_validation_base@_WV?$string_output_adapter@_W@__crt_stdio_output@@@__crt_stdio_output@@IBE_NXZ 1003ca56 f i libucrt:output.obj
 0001:0003ba80       ?validate_and_update_state_at_end_of_format_string@?$positional_parameter_base@DV?$stream_output_adapter@D@__crt_stdio_output@@@__crt_stdio_output@@IAE_NXZ 1003ca80 f i libucrt:output.obj
 0001:0003bb26       ?validate_and_update_state_at_end_of_format_string@?$positional_parameter_base@DV?$string_output_adapter@D@__crt_stdio_output@@@__crt_stdio_output@@IAE_NXZ 1003cb26 f i libucrt:output.obj
 0001:0003bbcc       ?validate_and_update_state_at_end_of_format_string@?$positional_parameter_base@_WV?$stream_output_adapter@_W@__crt_stdio_output@@@__crt_stdio_output@@IAE_NXZ 1003cbcc f i libucrt:output.obj
 0001:0003bc72       ?validate_and_update_state_at_end_of_format_string@?$positional_parameter_base@_WV?$string_output_adapter@_W@__crt_stdio_output@@@__crt_stdio_output@@IAE_NXZ 1003cc72 f i libucrt:output.obj
 0001:0003bd18       ?validate_and_update_state_at_end_of_format_string@?$standard_base@DV?$stream_output_adapter@D@__crt_stdio_output@@@__crt_stdio_output@@IBE_NXZ 1003cd18 f i libucrt:output.obj
 0001:0003bd1b       ?validate_and_update_state_at_end_of_format_string@?$standard_base@DV?$string_output_adapter@D@__crt_stdio_output@@@__crt_stdio_output@@IBE_NXZ 1003cd1b f i libucrt:output.obj
 0001:0003bd1e       ?validate_and_update_state_at_end_of_format_string@?$standard_base@_WV?$stream_output_adapter@_W@__crt_stdio_output@@@__crt_stdio_output@@IBE_NXZ 1003cd1e f i libucrt:output.obj
 0001:0003bd21       ?validate_and_update_state_at_end_of_format_string@?$standard_base@_WV?$string_output_adapter@_W@__crt_stdio_output@@@__crt_stdio_output@@IBE_NXZ 1003cd21 f i libucrt:output.obj
 0001:0003bd24       ?validate_state_for_type_case_a@?$positional_parameter_base@DV?$stream_output_adapter@D@__crt_stdio_output@@@__crt_stdio_output@@IAE_NXZ 1003cd24 f i libucrt:output.obj
 0001:0003bd86       ?validate_state_for_type_case_a@?$positional_parameter_base@DV?$string_output_adapter@D@__crt_stdio_output@@@__crt_stdio_output@@IAE_NXZ 1003cd86 f i libucrt:output.obj
 0001:0003bde8       ?validate_state_for_type_case_a@?$positional_parameter_base@_WV?$stream_output_adapter@_W@__crt_stdio_output@@@__crt_stdio_output@@IAE_NXZ 1003cde8 f i libucrt:output.obj
 0001:0003be4a       ?validate_state_for_type_case_a@?$positional_parameter_base@_WV?$string_output_adapter@_W@__crt_stdio_output@@@__crt_stdio_output@@IAE_NXZ 1003ce4a f i libucrt:output.obj
 0001:0003beac       ?validate_state_for_type_case_a@?$standard_base@DV?$stream_output_adapter@D@__crt_stdio_output@@@__crt_stdio_output@@IBE_NXZ 1003ceac f i libucrt:output.obj
 0001:0003beaf       ?validate_state_for_type_case_a@?$standard_base@DV?$string_output_adapter@D@__crt_stdio_output@@@__crt_stdio_output@@IBE_NXZ 1003ceaf f i libucrt:output.obj
 0001:0003beb2       ?validate_state_for_type_case_a@?$standard_base@_WV?$stream_output_adapter@_W@__crt_stdio_output@@@__crt_stdio_output@@IBE_NXZ 1003ceb2 f i libucrt:output.obj
 0001:0003beb5       ?validate_state_for_type_case_a@?$standard_base@_WV?$string_output_adapter@_W@__crt_stdio_output@@@__crt_stdio_output@@IBE_NXZ 1003ceb5 f i libucrt:output.obj
 0001:0003beb8       ?validate_stream_is_ansi_if_required@?$__acrt_stdio_char_traits@D@@SA_NQAU_iobuf@@@Z 1003ceb8 f i libucrt:output.obj
 0001:0003bf5f       ?validate_stream_is_ansi_if_required@?$__acrt_stdio_char_traits@_W@@SA_NQAU_iobuf@@@Z 1003cf5f f i libucrt:output.obj
 0001:0003bf62       ?wide_null_string@?$output_processor@DV?$stream_output_adapter@D@__crt_stdio_output@@V?$format_validation_base@DV?$stream_output_adapter@D@__crt_stdio_output@@@2@@__crt_stdio_output@@CAPA_WXZ 1003cf62 f i libucrt:output.obj
 0001:0003bf68       ?wide_null_string@?$output_processor@DV?$stream_output_adapter@D@__crt_stdio_output@@V?$positional_parameter_base@DV?$stream_output_adapter@D@__crt_stdio_output@@@2@@__crt_stdio_output@@CAPA_WXZ 1003cf68 f i libucrt:output.obj
 0001:0003bf6e       ?wide_null_string@?$output_processor@DV?$stream_output_adapter@D@__crt_stdio_output@@V?$standard_base@DV?$stream_output_adapter@D@__crt_stdio_output@@@2@@__crt_stdio_output@@CAPA_WXZ 1003cf6e f i libucrt:output.obj
 0001:0003bf74       ?wide_null_string@?$output_processor@DV?$string_output_adapter@D@__crt_stdio_output@@V?$format_validation_base@DV?$string_output_adapter@D@__crt_stdio_output@@@2@@__crt_stdio_output@@CAPA_WXZ 1003cf74 f i libucrt:output.obj
 0001:0003bf7a       ?wide_null_string@?$output_processor@DV?$string_output_adapter@D@__crt_stdio_output@@V?$positional_parameter_base@DV?$string_output_adapter@D@__crt_stdio_output@@@2@@__crt_stdio_output@@CAPA_WXZ 1003cf7a f i libucrt:output.obj
 0001:0003bf80       ?wide_null_string@?$output_processor@DV?$string_output_adapter@D@__crt_stdio_output@@V?$standard_base@DV?$string_output_adapter@D@__crt_stdio_output@@@2@@__crt_stdio_output@@CAPA_WXZ 1003cf80 f i libucrt:output.obj
 0001:0003bf86       ?wide_null_string@?$output_processor@_WV?$stream_output_adapter@_W@__crt_stdio_output@@V?$format_validation_base@_WV?$stream_output_adapter@_W@__crt_stdio_output@@@2@@__crt_stdio_output@@CAPA_WXZ 1003cf86 f i libucrt:output.obj
 0001:0003bf8c       ?wide_null_string@?$output_processor@_WV?$stream_output_adapter@_W@__crt_stdio_output@@V?$positional_parameter_base@_WV?$stream_output_adapter@_W@__crt_stdio_output@@@2@@__crt_stdio_output@@CAPA_WXZ 1003cf8c f i libucrt:output.obj
 0001:0003bf92       ?wide_null_string@?$output_processor@_WV?$stream_output_adapter@_W@__crt_stdio_output@@V?$standard_base@_WV?$stream_output_adapter@_W@__crt_stdio_output@@@2@@__crt_stdio_output@@CAPA_WXZ 1003cf92 f i libucrt:output.obj
 0001:0003bf98       ?wide_null_string@?$output_processor@_WV?$string_output_adapter@_W@__crt_stdio_output@@V?$format_validation_base@_WV?$string_output_adapter@_W@__crt_stdio_output@@@2@@__crt_stdio_output@@CAPA_WXZ 1003cf98 f i libucrt:output.obj
 0001:0003bf9e       ?wide_null_string@?$output_processor@_WV?$string_output_adapter@_W@__crt_stdio_output@@V?$positional_parameter_base@_WV?$string_output_adapter@_W@__crt_stdio_output@@@2@@__crt_stdio_output@@CAPA_WXZ 1003cf9e f i libucrt:output.obj
 0001:0003bfa4       ?wide_null_string@?$output_processor@_WV?$string_output_adapter@_W@__crt_stdio_output@@V?$standard_base@_WV?$string_output_adapter@_W@__crt_stdio_output@@@2@@__crt_stdio_output@@CAPA_WXZ 1003cfa4 f i libucrt:output.obj
 0001:0003bfaa       ?write_character@?$output_adapter_common@DV?$stream_output_adapter@D@__crt_stdio_output@@@__crt_stdio_output@@QBEXDQAH@Z 1003cfaa f i libucrt:output.obj
 0001:0003bfd0       ?write_character@?$output_adapter_common@_WV?$stream_output_adapter@_W@__crt_stdio_output@@@__crt_stdio_output@@QBEX_WQAH@Z 1003cfd0 f i libucrt:output.obj
 0001:0003bff6       ?write_character@?$string_output_adapter@D@__crt_stdio_output@@QBE_NDQAH@Z 1003cff6 f i libucrt:output.obj
 0001:0003c048       ?write_character@?$string_output_adapter@_W@__crt_stdio_output@@QBE_N_WQAH@Z 1003d048 f i libucrt:output.obj
 0001:0003c09e       ?write_character_without_count_update@?$stream_output_adapter@D@__crt_stdio_output@@QBE_ND@Z 1003d09e f i libucrt:output.obj
 0001:0003c0e0       ?write_character_without_count_update@?$stream_output_adapter@_W@__crt_stdio_output@@QBE_N_W@Z 1003d0e0 f i libucrt:output.obj
 0001:0003c126       ?write_stored_string_tchar@?$output_processor@DV?$stream_output_adapter@D@__crt_stdio_output@@V?$format_validation_base@DV?$stream_output_adapter@D@__crt_stdio_output@@@2@@__crt_stdio_output@@AAE_ND@Z 1003d126 f i libucrt:output.obj
 0001:0003c1f9       ?write_stored_string_tchar@?$output_processor@DV?$stream_output_adapter@D@__crt_stdio_output@@V?$positional_parameter_base@DV?$stream_output_adapter@D@__crt_stdio_output@@@2@@__crt_stdio_output@@AAE_ND@Z 1003d1f9 f i libucrt:output.obj
 0001:0003c2cc       ?write_stored_string_tchar@?$output_processor@DV?$stream_output_adapter@D@__crt_stdio_output@@V?$standard_base@DV?$stream_output_adapter@D@__crt_stdio_output@@@2@@__crt_stdio_output@@AAE_ND@Z 1003d2cc f i libucrt:output.obj
 0001:0003c39f       ?write_stored_string_tchar@?$output_processor@DV?$string_output_adapter@D@__crt_stdio_output@@V?$format_validation_base@DV?$string_output_adapter@D@__crt_stdio_output@@@2@@__crt_stdio_output@@AAE_ND@Z 1003d39f f i libucrt:output.obj
 0001:0003c472       ?write_stored_string_tchar@?$output_processor@DV?$string_output_adapter@D@__crt_stdio_output@@V?$positional_parameter_base@DV?$string_output_adapter@D@__crt_stdio_output@@@2@@__crt_stdio_output@@AAE_ND@Z 1003d472 f i libucrt:output.obj
 0001:0003c545       ?write_stored_string_tchar@?$output_processor@DV?$string_output_adapter@D@__crt_stdio_output@@V?$standard_base@DV?$string_output_adapter@D@__crt_stdio_output@@@2@@__crt_stdio_output@@AAE_ND@Z 1003d545 f i libucrt:output.obj
 0001:0003c618       ?write_stored_string_tchar@?$output_processor@_WV?$stream_output_adapter@_W@__crt_stdio_output@@V?$format_validation_base@_WV?$stream_output_adapter@_W@__crt_stdio_output@@@2@@__crt_stdio_output@@AAE_N_W@Z 1003d618 f i libucrt:output.obj
 0001:0003c6d2       ?write_stored_string_tchar@?$output_processor@_WV?$stream_output_adapter@_W@__crt_stdio_output@@V?$positional_parameter_base@_WV?$stream_output_adapter@_W@__crt_stdio_output@@@2@@__crt_stdio_output@@AAE_N_W@Z 1003d6d2 f i libucrt:output.obj
 0001:0003c78c       ?write_stored_string_tchar@?$output_processor@_WV?$stream_output_adapter@_W@__crt_stdio_output@@V?$standard_base@_WV?$stream_output_adapter@_W@__crt_stdio_output@@@2@@__crt_stdio_output@@AAE_N_W@Z 1003d78c f i libucrt:output.obj
 0001:0003c846       ?write_stored_string_tchar@?$output_processor@_WV?$string_output_adapter@_W@__crt_stdio_output@@V?$format_validation_base@_WV?$string_output_adapter@_W@__crt_stdio_output@@@2@@__crt_stdio_output@@AAE_N_W@Z 1003d846 f i libucrt:output.obj
 0001:0003c900       ?write_stored_string_tchar@?$output_processor@_WV?$string_output_adapter@_W@__crt_stdio_output@@V?$positional_parameter_base@_WV?$string_output_adapter@_W@__crt_stdio_output@@@2@@__crt_stdio_output@@AAE_N_W@Z 1003d900 f i libucrt:output.obj
 0001:0003c9ba       ?write_stored_string_tchar@?$output_processor@_WV?$string_output_adapter@_W@__crt_stdio_output@@V?$standard_base@_WV?$string_output_adapter@_W@__crt_stdio_output@@@2@@__crt_stdio_output@@AAE_N_W@Z 1003d9ba f i libucrt:output.obj
 0001:0003ca74       ?write_string@?$stream_output_adapter@D@__crt_stdio_output@@QBEXQBDHQAHAAV__crt_deferred_errno_cache@@@Z 1003da74 f i libucrt:output.obj
 0001:0003caa9       ?write_string@?$stream_output_adapter@_W@__crt_stdio_output@@QBEXQB_WHQAHAAV__crt_deferred_errno_cache@@@Z 1003daa9 f i libucrt:output.obj
 0001:0003cade       ?write_string@?$string_output_adapter@D@__crt_stdio_output@@QBEXQBDHQAHAAV__crt_deferred_errno_cache@@@Z 1003dade f i libucrt:output.obj
 0001:0003cb5e       ?write_string@?$string_output_adapter@_W@__crt_stdio_output@@QBEXQB_WHQAHAAV__crt_deferred_errno_cache@@@Z 1003db5e f i libucrt:output.obj
 0001:0003cbed       ?write_string_impl@?$output_adapter_common@DV?$stream_output_adapter@D@__crt_stdio_output@@@__crt_stdio_output@@IBEXQBDHQAHAAV__crt_deferred_errno_cache@@@Z 1003dbed f i libucrt:output.obj
 0001:0003ccb5       ?write_string_impl@?$output_adapter_common@_WV?$stream_output_adapter@_W@__crt_stdio_output@@@__crt_stdio_output@@IBEXQB_WHQAHAAV__crt_deferred_errno_cache@@@Z 1003dcb5 f i libucrt:output.obj
 0001:0003cd80       ___acrt_isleadbyte_l_noupdate 1003dd80 f i libucrt:output.obj
 0001:0003cda1       ___stdio_common_vfprintf   1003dda1 f   libucrt:output.obj
 0001:0003ce47       ___stdio_common_vfprintf_p 1003de47 f   libucrt:output.obj
 0001:0003ceed       ___stdio_common_vfprintf_s 1003deed f   libucrt:output.obj
 0001:0003cf93       ___stdio_common_vfwprintf  1003df93 f   libucrt:output.obj
 0001:0003d039       ___stdio_common_vfwprintf_p 1003e039 f   libucrt:output.obj
 0001:0003d0df       ___stdio_common_vfwprintf_s 1003e0df f   libucrt:output.obj
 0001:0003d185       ___stdio_common_vsnprintf_s 1003e185 f   libucrt:output.obj
 0001:0003d1b5       ___stdio_common_vsnwprintf_s 1003e1b5 f   libucrt:output.obj
 0001:0003d1e5       ___stdio_common_vsprintf   1003e1e5 f   libucrt:output.obj
 0001:0003d212       ___stdio_common_vsprintf_p 1003e212 f   libucrt:output.obj
 0001:0003d23f       ___stdio_common_vsprintf_s 1003e23f f   libucrt:output.obj
 0001:0003d26c       ___stdio_common_vswprintf  1003e26c f   libucrt:output.obj
 0001:0003d299       ___stdio_common_vswprintf_p 1003e299 f   libucrt:output.obj
 0001:0003d2c6       ___stdio_common_vswprintf_s 1003e2c6 f   libucrt:output.obj
 0001:0003d2f3       _ldexp                     1003e2f3 f   libucrt:ldexp.obj
 0001:0003d56c       __errcode                  1003e56c f   libucrt:fpexcept.obj
 0001:0003d5ad       __except1                  1003e5ad f   libucrt:fpexcept.obj
 0001:0003d6ae       __except2                  1003e6ae f   libucrt:fpexcept.obj
 0001:0003d7f7       __handle_exc               1003e7f7 f   libucrt:fpexcept.obj
 0001:0003da5f       __handle_qnan2             1003ea5f f   libucrt:fpexcept.obj
 0001:0003da6f       __raise_exc                1003ea6f f   libucrt:fpexcept.obj
 0001:0003da9a       __raise_exc_ex             1003ea9a f   libucrt:fpexcept.obj
 0001:0003de4d       __raise_excf               1003ee4d f   libucrt:fpexcept.obj
 0001:0003de78       __set_errno_from_matherr   1003ee78 f   libucrt:fpexcept.obj
 0001:0003deb2       __umatherr                 1003eeb2 f   libucrt:fpexcept.obj
 0001:0003df7c       __initterm                 1003ef7c f   libucrt:initterm.obj
 0001:0003dfef       __initterm_e               1003efef f   libucrt:initterm.obj
 0001:0003e072       __seh_filter_dll           1003f072 f   libucrt:exception_filter.obj
 0001:0003e09a       __seh_filter_exe           1003f09a f   libucrt:exception_filter.obj
 0001:0003e259       ??$?RE@__crt_internal_free_policy@@QBEXQBE@Z 1003f259 f i libucrt:argv_parsing.obj
 0001:0003e26f       ??$?RPAD@__crt_internal_free_policy@@QBEXQBQAD@Z 1003f26f f i libucrt:argv_parsing.obj
 0001:0003e285       ??$?RPA_W@__crt_internal_free_policy@@QBEXQBQA_W@Z 1003f285 f i libucrt:argv_parsing.obj
 0001:0003e59e       ??$get_module_file_name@$$TAAY0BAF@DH@?$__crt_char_traits@D@@SAK$$QA$$TAAY0BAF@D$$QAH@Z 1003f59e f i libucrt:argv_parsing.obj
 0001:0003e5c1       ??$get_module_file_name@$$TAAY0BAF@_WH@?$__crt_char_traits@_W@@SAK$$QA$$TAAY0BAF@_W$$QAH@Z 1003f5c1 f i libucrt:argv_parsing.obj
 0001:0003e9b4       ??$set_program_name@PAD@?$__crt_char_traits@D@@SAX$$QAPAD@Z 1003f9b4 f i libucrt:argv_parsing.obj
 0001:0003e9c9       ??$set_program_name@PA_W@?$__crt_char_traits@_W@@SAX$$QAPA_W@Z 1003f9c9 f i libucrt:argv_parsing.obj
 0001:0003ea06       ??0?$__crt_unique_heap_ptr@EU__crt_internal_free_policy@@@@QAE@QAE@Z 1003fa06 f i libucrt:argv_parsing.obj
 0001:0003ea1a       ??0?$__crt_unique_heap_ptr@PADU__crt_internal_free_policy@@@@QAE@QAPAD@Z 1003fa1a f i libucrt:argv_parsing.obj
 0001:0003ea2e       ??0?$__crt_unique_heap_ptr@PA_WU__crt_internal_free_policy@@@@QAE@QAPA_W@Z 1003fa2e f i libucrt:argv_parsing.obj
 0001:0003ea42       ??1?$__crt_unique_heap_ptr@EU__crt_internal_free_policy@@@@QAE@XZ 1003fa42 f i libucrt:argv_parsing.obj
 0001:0003ea58       ??1?$__crt_unique_heap_ptr@PADU__crt_internal_free_policy@@@@QAE@XZ 1003fa58 f i libucrt:argv_parsing.obj
 0001:0003ea6e       ??1?$__crt_unique_heap_ptr@PA_WU__crt_internal_free_policy@@@@QAE@XZ 1003fa6e f i libucrt:argv_parsing.obj
 0001:0003ea84       ??B?$__crt_unique_heap_ptr@EU__crt_internal_free_policy@@@@QBE_NXZ 1003fa84 f i libucrt:argv_parsing.obj
 0001:0003eac1       ?detach@?$__crt_unique_heap_ptr@EU__crt_internal_free_policy@@@@QAEPAEXZ 1003fac1 f i libucrt:argv_parsing.obj
 0001:0003eac7       ?detach@?$__crt_unique_heap_ptr@PADU__crt_internal_free_policy@@@@QAEPAPADXZ 1003fac7 f i libucrt:argv_parsing.obj
 0001:0003eacd       ?detach@?$__crt_unique_heap_ptr@PA_WU__crt_internal_free_policy@@@@QAEPAPA_WXZ 1003facd f i libucrt:argv_parsing.obj
 0001:0003eaf3       ?get@?$__crt_unique_heap_ptr@EU__crt_internal_free_policy@@@@QBEPAEXZ 1003faf3 f i libucrt:argv_parsing.obj
 0001:0003eaf6       ?get@?$__crt_unique_heap_ptr@PADU__crt_internal_free_policy@@@@QBEPAPADXZ 1003faf6 f i libucrt:argv_parsing.obj
 0001:0003eaf9       ?get@?$__crt_unique_heap_ptr@PA_WU__crt_internal_free_policy@@@@QBEPAPA_WXZ 1003faf9 f i libucrt:argv_parsing.obj
 0001:0003eafc       ?get_address_of@?$__crt_unique_heap_ptr@PADU__crt_internal_free_policy@@@@QAEPAPAPADXZ 1003fafc f i libucrt:argv_parsing.obj
 0001:0003eaff       ?get_address_of@?$__crt_unique_heap_ptr@PA_WU__crt_internal_free_policy@@@@QAEPAPAPA_WXZ 1003faff f i libucrt:argv_parsing.obj
 0001:0003eb1a       ?is_valid@?$__crt_unique_heap_ptr@EU__crt_internal_free_policy@@@@QBE_NXZ 1003fb1a f i libucrt:argv_parsing.obj
 0001:0003eb21       ?release@?$__crt_unique_heap_ptr@EU__crt_internal_free_policy@@@@QAEXXZ 1003fb21 f i libucrt:argv_parsing.obj
 0001:0003eb37       ?release@?$__crt_unique_heap_ptr@PADU__crt_internal_free_policy@@@@QAEXXZ 1003fb37 f i libucrt:argv_parsing.obj
 0001:0003eb4d       ?release@?$__crt_unique_heap_ptr@PA_WU__crt_internal_free_policy@@@@QAEXXZ 1003fb4d f i libucrt:argv_parsing.obj
 0001:0003eb82       ___acrt_allocate_buffer_for_argv 1003fb82 f   libucrt:argv_parsing.obj
 0001:0003ebe4       __configure_narrow_argv    1003fbe4 f   libucrt:argv_parsing.obj
 0001:0003ebf1       __configure_wide_argv      1003fbf1 f   libucrt:argv_parsing.obj
 0001:0003ebfe       __set_pgmptr               1003fbfe f i libucrt:argv_parsing.obj
 0001:0003ec10       __set_wpgmptr              1003fc10 f i libucrt:argv_parsing.obj
 0001:0003ec22       ??$?R_W@__crt_internal_free_policy@@QBEXQB_W@Z 1003fc22 f i libucrt:environment_initialization.obj
 0001:0003f108       ??$get_environment_from_os@$$V@?$__crt_char_traits@D@@SAPADXZ 10040108 f i libucrt:environment_initialization.obj
 0001:0003f10d       ??$get_environment_from_os@$$V@?$__crt_char_traits@_W@@SAPA_WXZ 1004010d f i libucrt:environment_initialization.obj
 0001:0003f25e       ??$set_variable_in_environment_nolock@PADH@?$__crt_char_traits@D@@SAH$$QAPAD$$QAH@Z 1004025e f i libucrt:environment_initialization.obj
 0001:0003f27c       ??$set_variable_in_environment_nolock@PA_WH@?$__crt_char_traits@_W@@SAH$$QAPA_W$$QAH@Z 1004027c f i libucrt:environment_initialization.obj
 0001:0003f29a       ??$tcscpy_s@PADABIAAPAD@?$__crt_char_traits@D@@SAH$$QAPADABIAAPAD@Z 1004029a f i libucrt:environment_initialization.obj
 0001:0003f2bf       ??$tcscpy_s@PA_WABIAAPA_W@?$__crt_char_traits@_W@@SAH$$QAPA_WABIAAPA_W@Z 100402bf f i libucrt:environment_initialization.obj
 0001:0003f2e4       ??$tcslen@AAPAD@?$__crt_char_traits@D@@SAIAAPAD@Z 100402e4 f i libucrt:environment_initialization.obj
 0001:0003f302       ??$tcslen@AAPA_W@?$__crt_char_traits@_W@@SAIAAPA_W@Z 10040302 f i libucrt:environment_initialization.obj
 0001:0003f327       ??$uninitialize@A6AXAAPAPAD@Z@?$dual_state_global@PAPAD@__crt_state_management@@QAEXA6AXAAPAPAD@Z@Z 10040327 f i libucrt:environment_initialization.obj
 0001:0003f377       ??$uninitialize@A6AXAAPAPA_W@Z@?$dual_state_global@PAPA_W@__crt_state_management@@QAEXA6AXAAPAPA_W@Z@Z 10040377 f i libucrt:environment_initialization.obj
 0001:0003f409       ??0?$__crt_unique_heap_ptr@_WU__crt_internal_free_policy@@@@QAE@QA_W@Z 10040409 f i libucrt:environment_initialization.obj
 0001:0003f41d       ??1?$__crt_unique_heap_ptr@_WU__crt_internal_free_policy@@@@QAE@XZ 1004041d f i libucrt:environment_initialization.obj
 0001:0003f433       ??B?$__crt_unique_heap_ptr@PADU__crt_internal_free_policy@@@@QBE_NXZ 10040433 f i libucrt:environment_initialization.obj
 0001:0003f43a       ??B?$__crt_unique_heap_ptr@PA_WU__crt_internal_free_policy@@@@QBE_NXZ 1004043a f i libucrt:environment_initialization.obj
 0001:0003f441       ??B?$__crt_unique_heap_ptr@_WU__crt_internal_free_policy@@@@QBE_NXZ 10040441 f i libucrt:environment_initialization.obj
 0001:0003f448       ?__crt_compute_required_transform_buffer_count@@YAIIQBD@Z 10040448 f i libucrt:environment_initialization.obj
 0001:0003f46b       ?__crt_compute_required_transform_buffer_count@@YAIIQB_W@Z 1004046b f i libucrt:environment_initialization.obj
 0001:0003f490       ?__crt_transform_string@@YAIIQBDQA_WI@Z 10040490 f i libucrt:environment_initialization.obj
 0001:0003f4b6       ?__crt_transform_string@@YAIIQB_WQADI@Z 100404b6 f i libucrt:environment_initialization.obj
 0001:0003f4e0       ?detach@?$__crt_unique_heap_ptr@DU__crt_internal_free_policy@@@@QAEPADXZ 100404e0 f i libucrt:environment_initialization.obj
 0001:0003f4e6       ?detach@?$__crt_unique_heap_ptr@_WU__crt_internal_free_policy@@@@QAEPA_WXZ 100404e6 f i libucrt:environment_initialization.obj
 0001:0003f4ec       ?get@?$__crt_unique_heap_ptr@_WU__crt_internal_free_policy@@@@QBEPA_WXZ 100404ec f i libucrt:environment_initialization.obj
 0001:0003f4ef       ?get_current_state_index@__crt_state_management@@YAIXZ 100404ef f i libucrt:environment_initialization.obj
 0001:0003f516       ?initialize@?$dual_state_global@PAPAD@__crt_state_management@@QAEXQAPAD@Z 10040516 f i libucrt:environment_initialization.obj
 0001:0003f545       ?initialize@?$dual_state_global@PAPA_W@__crt_state_management@@QAEXQAPA_W@Z 10040545 f i libucrt:environment_initialization.obj
 0001:0003f574       ?is_valid@?$__crt_unique_heap_ptr@PADU__crt_internal_free_policy@@@@QBE_NXZ 10040574 f i libucrt:environment_initialization.obj
 0001:0003f57b       ?is_valid@?$__crt_unique_heap_ptr@PA_WU__crt_internal_free_policy@@@@QBE_NXZ 1004057b f i libucrt:environment_initialization.obj
 0001:0003f582       ?is_valid@?$__crt_unique_heap_ptr@_WU__crt_internal_free_policy@@@@QBE_NXZ 10040582 f i libucrt:environment_initialization.obj
 0001:0003f58f       ?release@?$__crt_unique_heap_ptr@_WU__crt_internal_free_policy@@@@QAEXXZ 1004058f f i libucrt:environment_initialization.obj
 0001:0003f5a5       ?value@?$dual_state_global@PAPAD@__crt_state_management@@QAEAAPAPADXZ 100405a5 f i libucrt:environment_initialization.obj
 0001:0003f5a8       ?value@?$dual_state_global@PAPA_W@__crt_state_management@@QAEAAPAPA_WXZ 100405a8 f i libucrt:environment_initialization.obj
 0001:0003f5ab       ___dcrt_get_or_create_narrow_environment_nolock 100405ab f   libucrt:environment_initialization.obj
 0001:0003f5b0       ___dcrt_get_or_create_wide_environment_nolock 100405b0 f   libucrt:environment_initialization.obj
 0001:0003f5b5       ___dcrt_uninitialize_environments_nolock 100405b5 f   libucrt:environment_initialization.obj
 0001:0003f5f9       ___p__environ              100405f9 f   libucrt:environment_initialization.obj
 0001:0003f5ff       ___p__wenviron             100405ff f   libucrt:environment_initialization.obj
 0001:0003f605       __get_initial_narrow_environment 10040605 f   libucrt:environment_initialization.obj
 0001:0003f61e       __get_initial_wide_environment 1004061e f   libucrt:environment_initialization.obj
 0001:0003f637       __initialize_narrow_environment 10040637 f   libucrt:environment_initialization.obj
 0001:0003f63c       __initialize_wide_environment 1004063c f   libucrt:environment_initialization.obj
 0001:0003f641       ??$?BP6AXXZ@__crt_fast_encoded_nullptr_t@@QBEPAP6AXXZXZ 10040641 f i libucrt:onexit.obj
 0001:0003f65f       ??$?RP6AXXZ@__crt_internal_free_policy@@QBEXQBQ6AXXZ@Z 1004065f f i libucrt:onexit.obj
 0001:0003f7a3       ??$__crt_fast_encode_pointer@P6AHXZ@@YAP6AHXZQ6AHXZ@Z 100407a3 f i libucrt:onexit.obj
 0001:0003f850       ??0?$__crt_unique_heap_ptr@P6AXXZU__crt_internal_free_policy@@@@QAE@QAP6AXXZ@Z 10040850 f i libucrt:onexit.obj
 0001:0003f864       ??1?$__crt_unique_heap_ptr@P6AXXZU__crt_internal_free_policy@@@@QAE@XZ 10040864 f i libucrt:onexit.obj
 0001:0003f87a       ??1scoped_global_state_reset@__crt_state_management@@QAE@XZ 1004087a f i libucrt:onexit.obj
 0001:0003fba5       ?detach@?$__crt_unique_heap_ptr@P6AXXZU__crt_internal_free_policy@@@@QAEPAP6AXXZXZ 10040ba5 f i libucrt:onexit.obj
 0001:0003fbab       ?release@?$__crt_unique_heap_ptr@P6AXXZU__crt_internal_free_policy@@@@QAEXXZ 10040bab f i libucrt:onexit.obj
 0001:0003fbc1       __crt_at_quick_exit        10040bc1 f   libucrt:onexit.obj
 0001:0003fbdc       __crt_atexit               10040bdc f   libucrt:onexit.obj
 0001:0003fbf7       __execute_onexit_table     10040bf7 f   libucrt:onexit.obj
 0001:0003fc31       __initialize_onexit_table  10040c31 f   libucrt:onexit.obj
 0001:0003fc7d       __register_onexit_function 10040c7d f   libucrt:onexit.obj
 0001:0003fe48       ?__acrt_stdio_is_initialized@@YA_NXZ 10040e48 f i libucrt:initialization.obj
 0001:0003fe55       ?initialize@?$dual_state_global@PAU__crt_locale_data@@@__crt_state_management@@QAEXQAU__crt_locale_data@@@Z 10040e55 f i libucrt:initialization.obj
 0001:0003fe84       ___acrt_initialize         10040e84 f   libucrt:initialization.obj
 0001:0003fe9a       ___acrt_thread_attach      10040e9a f   libucrt:initialization.obj
 0001:0003fea7       ___acrt_thread_detach      10040ea7 f   libucrt:initialization.obj
 0001:0003feb1       ___acrt_uninitialize       10040eb1 f   libucrt:initialization.obj
 0001:0003feed       ___acrt_uninitialize_critical 10040eed f   libucrt:initialization.obj
 0001:0003ff1e       __get_terminate            10040f1e f   libucrt:terminate.obj
 0001:0003ff34       _set_terminate             10040f34 f   libucrt:terminate.obj
 0001:0003ff5c       _terminate                 10040f5c f   libucrt:terminate.obj
 0001:00040017       _strcpy_s                  10041017 f   libucrt:strcpy_s.obj
 0001:00040087       ??$is_overflow_condition@K@__crt_strtox@@YA_NIK@Z 10041087 f i libucrt:atox.obj
 0001:000400c4       ??$is_overflow_condition@_K@__crt_strtox@@YA_NI_K@Z 100410c4 f i libucrt:atox.obj
 0001:00040115       ??$make_c_string_character_source@D$$T@__crt_strtox@@YA?AV?$c_string_character_source@D@0@QBD$$T@Z 10041115 f i libucrt:atox.obj
 0001:00040136       ??$make_c_string_character_source@_W$$T@__crt_strtox@@YA?AV?$c_string_character_source@_W@0@QB_W$$T@Z 10041136 f i libucrt:atox.obj
 0001:00040157       ??$parse_integer@KV?$c_string_character_source@D@__crt_strtox@@@__crt_strtox@@YAKQAU__crt_locale_pointers@@V?$c_string_character_source@D@0@H_N@Z 10041157 f i libucrt:atox.obj
 0001:0004040a       ??$parse_integer@KV?$c_string_character_source@_W@__crt_strtox@@@__crt_strtox@@YAKQAU__crt_locale_pointers@@V?$c_string_character_source@_W@0@H_N@Z 1004140a f i libucrt:atox.obj
 0001:00040bdb       ??$parse_integer@_KV?$c_string_character_source@D@__crt_strtox@@@__crt_strtox@@YA_KQAU__crt_locale_pointers@@V?$c_string_character_source@D@0@H_N@Z 10041bdb f i libucrt:atox.obj
 0001:00040f2b       ??$parse_integer@_KV?$c_string_character_source@_W@__crt_strtox@@@__crt_strtox@@YA_KQAU__crt_locale_pointers@@V?$c_string_character_source@_W@0@H_N@Z 10041f2b f i libucrt:atox.obj
 0001:000417f8       ??$parse_integer_from_string@JD$$T@__crt_strtox@@YAJQBD$$THQAU__crt_locale_pointers@@@Z 100427f8 f i libucrt:atox.obj
 0001:00041830       ??$parse_integer_from_string@J_W$$T@__crt_strtox@@YAJQB_W$$THQAU__crt_locale_pointers@@@Z 10042830 f i libucrt:atox.obj
 0001:00041868       ??$parse_integer_from_string@_JD$$T@__crt_strtox@@YA_JQBD$$THQAU__crt_locale_pointers@@@Z 10042868 f i libucrt:atox.obj
 0001:000418a0       ??$parse_integer_from_string@_J_W$$T@__crt_strtox@@YA_JQB_W$$THQAU__crt_locale_pointers@@@Z 100428a0 f i libucrt:atox.obj
 0001:000418d8       ??0?$c_string_character_source@D@__crt_strtox@@QAE@QBDQAPBD@Z 100428d8 f i libucrt:atox.obj
 0001:000418fb       ??0?$c_string_character_source@_W@__crt_strtox@@QAE@QB_WQAPB_W@Z 100428fb f i libucrt:atox.obj
 0001:0004191e       ??1?$c_string_character_source@D@__crt_strtox@@QAE@XZ 1004291e f i libucrt:atox.obj
 0001:0004192d       ??1?$c_string_character_source@_W@__crt_strtox@@QAE@XZ 1004292d f i libucrt:atox.obj
 0001:0004193c       ?get@?$c_string_character_source@D@__crt_strtox@@QAEDXZ 1004293c f i libucrt:atox.obj
 0001:00041946       ?get@?$c_string_character_source@_W@__crt_strtox@@QAE_WXZ 10042946 f i libucrt:atox.obj
 0001:00041953       ?is_space@__crt_strtox@@YA_NDQAU__crt_locale_pointers@@@Z 10042953 f i libucrt:atox.obj
 0001:00041978       ?is_space@__crt_strtox@@YA_N_WPAU__crt_locale_pointers@@@Z 10042978 f i libucrt:atox.obj
 0001:00041996       ?maximum_signed_value@__crt_strtox@@YAJK@Z 10042996 f i libucrt:atox.obj
 0001:0004199c       ?maximum_signed_value@__crt_strtox@@YA_J_K@Z 1004299c f i libucrt:atox.obj
 0001:000419a7       ?minimum_signed_value@__crt_strtox@@YAJK@Z 100429a7 f i libucrt:atox.obj
 0001:000419ad       ?minimum_signed_value@__crt_strtox@@YA_J_K@Z 100429ad f i libucrt:atox.obj
 0001:000419b7       ?parse_digit@__crt_strtox@@YAID@Z 100429b7 f i libucrt:atox.obj
 0001:000419ff       ?parse_digit@__crt_strtox@@YAI_W@Z 100429ff f i libucrt:atox.obj
 0001:00041c70       ?restore_state@?$c_string_character_source@D@__crt_strtox@@QAE_NQBD@Z 10042c70 f i libucrt:atox.obj
 0001:00041c84       ?restore_state@?$c_string_character_source@_W@__crt_strtox@@QAE_NQB_W@Z 10042c84 f i libucrt:atox.obj
 0001:00041c98       ?save_state@?$c_string_character_source@D@__crt_strtox@@QBEPBDXZ 10042c98 f i libucrt:atox.obj
 0001:00041c9b       ?save_state@?$c_string_character_source@_W@__crt_strtox@@QBEPB_WXZ 10042c9b f i libucrt:atox.obj
 0001:00041c9e       ?unget@?$c_string_character_source@D@__crt_strtox@@QAEXD@Z 10042c9e f i libucrt:atox.obj
 0001:00041cd1       ?unget@?$c_string_character_source@_W@__crt_strtox@@QAEX_W@Z 10042cd1 f i libucrt:atox.obj
 0001:00041d0a       ?validate@?$c_string_character_source@D@__crt_strtox@@QBE_NXZ 10042d0a f i libucrt:atox.obj
 0001:00041d2b       ?validate@?$c_string_character_source@_W@__crt_strtox@@QBE_NXZ 10042d2b f i libucrt:atox.obj
 0001:00041d4c       ?wide_character_to_digit@__crt_strtox@@YAH_W@Z 10042d4c f i libucrt:atox.obj
 0001:00041f55       ___acrt_get_locale_data_prefix 10042f55 f i libucrt:atox.obj
 0001:00041f64       __atoi64                   10042f64 f   libucrt:atox.obj
 0001:00041f92       __atoi64_l                 10042f92 f   libucrt:atox.obj
 0001:00041fc1       __atoi_l                   10042fc1 f   libucrt:atox.obj
 0001:00041ff0       __atol_l                   10042ff0 f   libucrt:atox.obj
 0001:0004201f       __atoll_l                  1004301f f   libucrt:atox.obj
 0001:0004204e       __chvalidchk_l             1004304e f i libucrt:atox.obj
 0001:0004207d       __ischartype_l             1004307d f i libucrt:atox.obj
 0001:000420bc       __wtoi                     100430bc f   libucrt:atox.obj
 0001:000420ea       __wtoi64                   100430ea f   libucrt:atox.obj
 0001:00042118       __wtoi64_l                 10043118 f   libucrt:atox.obj
 0001:00042147       __wtoi_l                   10043147 f   libucrt:atox.obj
 0001:00042176       __wtol                     10043176 f   libucrt:atox.obj
 0001:000421a4       __wtol_l                   100431a4 f   libucrt:atox.obj
 0001:000421d3       __wtoll                    100431d3 f   libucrt:atox.obj
 0001:00042201       __wtoll_l                  10043201 f   libucrt:atox.obj
 0001:00042230       _atoi                      10043230 f   libucrt:atox.obj
 0001:0004225e       _atol                      1004325e f   libucrt:atox.obj
 0001:0004228c       _atoll                     1004328c f   libucrt:atox.obj
 0001:000422c0       _strncmp                   100432c0 f   libucrt:strncmp.obj
 0001:00042356       __set_abort_behavior       10043356 f   libucrt:abort.obj
 0001:0004237f       _abort                     1004337f f   libucrt:abort.obj
 0001:000423d4       _wcsncmp                   100433d4 f   libucrt:wcsncmp.obj
 0001:0004241c       __malloc_base              1004341c f   libucrt:malloc_base.obj
 0001:0004247d       __calloc_base              1004347d f   libucrt:calloc_base.obj
 0001:000424f7       __free_base                100434f7 f   libucrt:free_base.obj
 0001:0004253f       ??$__crt_fast_decode_pointer@P6AXPB_W00II@Z@@YAP6AXPB_W00II@ZQ6AX000II@Z@Z 1004353f f i libucrt:invalid_parameter.obj
 0001:0004255a       ??$__crt_fast_encode_pointer@P6AXPB_W00II@Z@@YAP6AXPB_W00II@ZQ6AX000II@Z@Z 1004355a f i libucrt:invalid_parameter.obj
 0001:00042580       ??$initialize_from_array@$$BY00Q6AXPB_W00II@Z@?$dual_state_global@P6AXPB_W00II@Z@__crt_state_management@@QAAXAAY00Q6AXPB_W00II@Z@Z 10043580 f i libucrt:invalid_parameter.obj
 0001:00042595       ?dangerous_get_state_array@?$dual_state_global@P6AXPB_W00II@Z@__crt_state_management@@QAEPAP6AXPB_W00II@ZXZ 10043595 f i libucrt:invalid_parameter.obj
 0001:00042598       ?value@?$dual_state_global@P6AXPB_W00II@Z@__crt_state_management@@QAEAAP6AXPB_W00II@ZXZ 10043598 f i libucrt:invalid_parameter.obj
 0001:0004259b       ___acrt_call_reportfault   1004359b f   libucrt:invalid_parameter.obj
 0001:00042724       ___acrt_initialize_invalid_parameter_handler 10043724 f   libucrt:invalid_parameter.obj
 0001:00042736       __get_invalid_parameter_handler 10043736 f   libucrt:invalid_parameter.obj
 0001:0004274d       __get_thread_local_invalid_parameter_handler 1004374d f   libucrt:invalid_parameter.obj
 0001:00042762       __invalid_parameter        10043762 f   libucrt:invalid_parameter.obj
 0001:000427fb       __invalid_parameter_noinfo 100437fb f   libucrt:invalid_parameter.obj
 0001:0004280f       __invalid_parameter_noinfo_noreturn 1004380f f   libucrt:invalid_parameter.obj
 0001:00042833       __invoke_watson            10043833 f   libucrt:invalid_parameter.obj
 0001:00042874       __set_invalid_parameter_handler 10043874 f   libucrt:invalid_parameter.obj
 0001:000428b0       __set_thread_local_invalid_parameter_handler 100438b0 f   libucrt:invalid_parameter.obj
 0001:0004299b       ___acrt_report_runtime_error 1004399b f   libucrt:report_runtime_error.obj
 0001:00042af5       __query_app_type           10043af5 f   libucrt:report_runtime_error.obj
 0001:00042afb       __set_app_type             10043afb f   libucrt:report_runtime_error.obj
 0001:00042b0d       ___acrt_errno_from_os_error 10043b0d f   libucrt:errno.obj
 0001:00042b60       ___acrt_errno_map_os_error 10043b60 f   libucrt:errno.obj
 0001:00042b8b       ___doserrno                10043b8b f   libucrt:errno.obj
 0001:00042ba2       __errno                    10043ba2 f   libucrt:errno.obj
 0001:00042bb9       __get_doserrno             10043bb9 f   libucrt:errno.obj
 0001:00042be7       __get_errno                10043be7 f   libucrt:errno.obj
 0001:00042c15       __set_doserrno             10043c15 f   libucrt:errno.obj
 0001:00042c3e       __set_errno                10043c3e f   libucrt:errno.obj
 0001:0004326c       __i64toa                   1004426c f   libucrt:xtoa.obj
 0001:000432bf       __i64toa_s                 100442bf f   libucrt:xtoa.obj
 0001:00043310       __i64tow                   10044310 f   libucrt:xtoa.obj
 0001:00043363       __i64tow_s                 10044363 f   libucrt:xtoa.obj
 0001:000433b4       __itoa                     100443b4 f   libucrt:xtoa.obj
 0001:000433f8       __itoa_s                   100443f8 f   libucrt:xtoa.obj
 0001:0004343a       __itow                     1004443a f   libucrt:xtoa.obj
 0001:0004347e       __itow_s                   1004447e f   libucrt:xtoa.obj
 0001:000434c0       __ltoa                     100444c0 f   libucrt:xtoa.obj
 0001:00043504       __ltoa_s                   10044504 f   libucrt:xtoa.obj
 0001:00043546       __ltow                     10044546 f   libucrt:xtoa.obj
 0001:0004358a       __ltow_s                   1004458a f   libucrt:xtoa.obj
 0001:000435cc       __ui64toa                  100445cc f   libucrt:xtoa.obj
 0001:000435f6       __ui64toa_s                100445f6 f   libucrt:xtoa.obj
 0001:0004361e       __ui64tow                  1004461e f   libucrt:xtoa.obj
 0001:00043648       __ui64tow_s                10044648 f   libucrt:xtoa.obj
 0001:00043670       __ultoa                    10044670 f   libucrt:xtoa.obj
 0001:00043696       __ultoa_s                  10044696 f   libucrt:xtoa.obj
 0001:000436ba       __ultow                    100446ba f   libucrt:xtoa.obj
 0001:000436e0       __ultow_s                  100446e0 f   libucrt:xtoa.obj
 0001:00043704       __set_error_mode           10044704 f   libucrt:set_error_mode.obj
 0001:000437e0       _wcscat_s                  100447e0 f   libucrt:wcscat_s.obj
 0001:000438ea       _wcscpy_s                  100448ea f   libucrt:wcscpy_s.obj
 0001:00043a8a       _wcsncat_s                 10044a8a f   libucrt:wcsncat_s.obj
 0001:00043b1a       _strcat_s                  10044b1a f   libucrt:strcat_s.obj
 0001:00043ca1       _strncat_s                 10044ca1 f   libucrt:strncat_s.obj
 0001:00043cae       ___acrt_GetModuleFileNameA 10044cae f   libucrt:getmodulefilenamea.obj
 0001:00043e66       ??$message_box@$$TABQBDABQBDK@?$__crt_char_traits@D@@SAH$$QA$$TABQBD1$$QAK@Z 10044e66 f i libucrt:crtmbox.obj
 0001:00043e8e       ??$message_box@$$TABQB_WABQB_WK@?$__crt_char_traits@_W@@SAH$$QA$$TABQB_W1$$QAK@Z 10044e8e f i libucrt:crtmbox.obj
 0001:00043eb6       ??$message_box@PAUHWND__@@ABQBDABQBDABI@?$__crt_char_traits@D@@SAH$$QAPAUHWND__@@ABQBD1ABI@Z 10044eb6 f i libucrt:crtmbox.obj
 0001:00043ede       ??$message_box@PAUHWND__@@ABQB_WABQB_WABI@?$__crt_char_traits@_W@@SAH$$QAPAUHWND__@@ABQB_W1ABI@Z 10044ede f i libucrt:crtmbox.obj
 0001:00043f06       ??$output_debug_string@ABQBD@?$__crt_char_traits@D@@SAXABQBD@Z 10044f06 f i libucrt:crtmbox.obj
 0001:00043f1b       ??$output_debug_string@ABQB_W@?$__crt_char_traits@_W@@SAXABQB_W@Z 10044f1b f i libucrt:crtmbox.obj
 0001:00043f31       ___acrt_show_narrow_message_box 10044f31 f   libucrt:crtmbox.obj
 0001:00043f3e       ___acrt_show_wide_message_box 10044f3e f   libucrt:crtmbox.obj
 0001:0004429c       ??0__crt_stdio_stream@@QAE@QAU__crt_stdio_stream_data@@@Z 1004529c f i libucrt:fflush.obj
 0001:00044505       ___acrt_stdio_flush_nolock 10045505 f   libucrt:fflush.obj
 0001:00044580       __fflush_nolock            10045580 f   libucrt:fflush.obj
 0001:000445d8       __flushall                 100455d8 f   libucrt:fflush.obj
 0001:000445e3       _fflush                    100455e3 f   libucrt:fflush.obj
 0001:0004484e       _setvbuf                   1004584e f   libucrt:setvbuf.obj
 0001:000448f3       ??$?B$$A6AXH@Z@__crt_fast_encoded_nullptr_t@@QBEP6AXH@ZXZ 100458f3 f i libucrt:signal.obj
 0001:000449b3       ??$__crt_fast_decode_pointer@P6AXH@Z@@YAP6AXH@ZQ6AXH@Z@Z 100459b3 f i libucrt:signal.obj
 0001:000449ce       ??$__crt_fast_encode_pointer@P6AXH@Z@@YAP6AXH@ZQ6AXH@Z@Z 100459ce f i libucrt:signal.obj
 0001:00044b78       ?initialize@?$dual_state_global@P6AXH@Z@__crt_state_management@@QAEXQ6AXH@Z@Z 10045b78 f i libucrt:signal.obj
 0001:00044c56       ?value@?$dual_state_global@P6AXH@Z@__crt_state_management@@QAEAAP6AXH@ZXZ 10045c56 f i libucrt:signal.obj
 0001:00044c59       ___acrt_get_sigabrt_handler 10045c59 f   libucrt:signal.obj
 0001:00044c8c       ___acrt_initialize_signal_handlers 10045c8c f   libucrt:signal.obj
 0001:00044cb1       ___fpecode                 10045cb1 f   libucrt:signal.obj
 0001:00044cbc       ___pxcptinfoptrs           10045cbc f   libucrt:signal.obj
 0001:00044cc7       _raise                     10045cc7 f   libucrt:signal.obj
 0001:00044f49       _signal                    10045f49 f   libucrt:signal.obj
 0001:00045166       __realloc_base             10046166 f   libucrt:realloc_base.obj
 0001:000451e9       ___acrt_initialize_locks   100461e9 f   libucrt:locks.obj
 0001:0004523a       ___acrt_lock               1004623a f   libucrt:locks.obj
 0001:00045256       ___acrt_uninitialize_locks 10046256 f   libucrt:locks.obj
 0001:00045293       ___acrt_unlock             10046293 f   libucrt:locks.obj
 0001:000452af       __lock_locales             100462af f   libucrt:locks.obj
 0001:000452c0       __unlock_locales           100462c0 f   libucrt:locks.obj
 0001:000454de       ___acrt_get_begin_thread_init_policy 100464de f   libucrt:win_policies.obj
 0001:00045534       ___acrt_get_developer_information_policy 10046534 f   libucrt:win_policies.obj
 0001:0004558a       ___acrt_get_process_end_policy 1004658a f   libucrt:win_policies.obj
 0001:000455c9       ___acrt_get_windowing_model_policy 100465c9 f   libucrt:win_policies.obj
 0001:0004564d       ??$?B$$A6GHPA_WKJ@Z@__crt_fast_encoded_nullptr_t@@QBEP6GHPA_WKJ@ZXZ 1004664d f i libucrt:winapi_thunks.obj
 0001:00045747       ??$__crt_fast_decode_pointer@P6GHPA_WKJ@Z@@YAP6GHPA_WKJ@ZQ6GH0KJ@Z@Z 10046747 f i libucrt:winapi_thunks.obj
 0001:00045762       ??$__crt_fast_encode_pointer@P6GHPA_WKJ@Z@@YAP6GHPA_WKJ@ZQ6GH0KJ@Z@Z 10046762 f i libucrt:winapi_thunks.obj
 0001:00045fc1       _GetCurrentThreadEffectiveToken 10046fc1 f i libucrt:winapi_thunks.obj
 0001:00045fc5       ___acrt_AppPolicyGetProcessTerminationMethodInternal@4 10046fc5 f   libucrt:winapi_thunks.obj
 0001:00046031       ___acrt_AppPolicyGetShowDeveloperDiagnosticInternal@4 10047031 f   libucrt:winapi_thunks.obj
 0001:0004609d       ___acrt_AppPolicyGetThreadInitializationTypeInternal@4 1004709d f   libucrt:winapi_thunks.obj
 0001:00046109       ___acrt_AppPolicyGetWindowingModelInternal@4 10047109 f   libucrt:winapi_thunks.obj
 0001:00046175       ___acrt_AreFileApisANSI@0  10047175 f   libucrt:winapi_thunks.obj
 0001:000461bd       ___acrt_CompareStringEx@36 100471bd f   libucrt:winapi_thunks.obj
 0001:0004624e       ___acrt_EnumSystemLocalesEx@16 1004724e f   libucrt:winapi_thunks.obj
 0001:000462d2       ___acrt_FlsAlloc@4         100472d2 f   libucrt:winapi_thunks.obj
 0001:0004633d       ___acrt_FlsFree@4          1004733d f   libucrt:winapi_thunks.obj
 0001:000463a8       ___acrt_FlsGetValue@4      100473a8 f   libucrt:winapi_thunks.obj
 0001:00046413       ___acrt_FlsSetValue@8      10047413 f   libucrt:winapi_thunks.obj
 0001:00046482       ___acrt_GetDateFormatEx@28 10047482 f   libucrt:winapi_thunks.obj
 0001:0004650b       ___acrt_GetEnabledXStateFeatures@0 1004750b f   libucrt:winapi_thunks.obj
 0001:0004656d       ___acrt_GetLocaleInfoEx@16 1004756d f   libucrt:winapi_thunks.obj
 0001:000465d8       ___acrt_GetSystemTimePreciseAsFileTime@4 100475d8 f   libucrt:winapi_thunks.obj
 0001:00046643       ___acrt_GetTimeFormatEx@24 10047643 f   libucrt:winapi_thunks.obj
 0001:000466b6       ___acrt_GetUserDefaultLocaleName@8 100476b6 f   libucrt:winapi_thunks.obj
 0001:0004671d       ___acrt_GetXStateFeaturesMask@8 1004771d f   libucrt:winapi_thunks.obj
 0001:00046789       ___acrt_InitializeCriticalSectionEx@12 10047789 f   libucrt:winapi_thunks.obj
 0001:00046803       ___acrt_IsValidLocaleName@4 10047803 f   libucrt:winapi_thunks.obj
 0001:00046865       ___acrt_LCIDToLocaleName@16 10047865 f   libucrt:winapi_thunks.obj
 0001:000468d0       ___acrt_LCMapStringEx@36   100478d0 f   libucrt:winapi_thunks.obj
 0001:00046961       ___acrt_LocaleNameToLCID@8 10047961 f   libucrt:winapi_thunks.obj
 0001:000469bb       ___acrt_LocateXStateFeature@12 100479bb f   libucrt:winapi_thunks.obj
 0001:00046a12       ___acrt_MessageBoxA@16     10047a12 f   libucrt:winapi_thunks.obj
 0001:00046a6d       ___acrt_MessageBoxW@16     10047a6d f   libucrt:winapi_thunks.obj
 0001:00046ac8       ___acrt_RoInitialize@4     10047ac8 f   libucrt:winapi_thunks.obj
 0001:00046b2e       ___acrt_RoUninitialize@0   10047b2e f   libucrt:winapi_thunks.obj
 0001:00046b89       ___acrt_RtlGenRandom@8     10047b89 f   libucrt:winapi_thunks.obj
 0001:00046bf5       ___acrt_SetThreadStackGuarantee@4 10047bf5 f   libucrt:winapi_thunks.obj
 0001:00046c5b       ___acrt_can_show_message_box 10047c5b f   libucrt:winapi_thunks.obj
 0001:00046c8b       ___acrt_can_use_vista_locale_apis 10047c8b f   libucrt:winapi_thunks.obj
 0001:00046c98       ___acrt_can_use_xstate_apis 10047c98 f   libucrt:winapi_thunks.obj
 0001:00046ca5       ___acrt_eagerly_load_locale_apis 10047ca5 f   libucrt:winapi_thunks.obj
 0001:00046ce9       ___acrt_get_parent_window  10047ce9 f   libucrt:winapi_thunks.obj
 0001:00046d87       ___acrt_initialize_winapi_thunks 10047d87 f   libucrt:winapi_thunks.obj
 0001:00046dd2       ___acrt_is_interactive     10047dd2 f   libucrt:winapi_thunks.obj
 0001:00046ea1       ___acrt_uninitialize_winapi_thunks 10047ea1 f   libucrt:winapi_thunks.obj
 0001:00046ee4       __fcloseall                10047ee4 f   libucrt:closeall.obj
 0001:00046fac       ?has_crt_buffer@__crt_stdio_stream@@QBE_NXZ 10047fac f i libucrt:_freebuf.obj
 0001:00046fb9       ___acrt_stdio_free_buffer_nolock 10047fb9 f   libucrt:_freebuf.obj
 0001:000471f7       ___acrt_initialize_lowio   100481f7 f   libucrt:ioinit.obj
 0001:00047262       ___acrt_uninitialize_lowio 10048262 f   libucrt:ioinit.obj
 0001:0004748e       __close                    1004848e f   libucrt:close.obj
 0001:00047540       __close_nolock             10048540 f   libucrt:close.obj
 0001:00047603       ?lowio_handle@__crt_stdio_stream@@QBEHXZ 10048603 f i libucrt:fileno.obj
 0001:00047609       __fileno                   10048609 f   libucrt:fileno.obj
 0001:00047638       ??$?RU__crt_stdio_stream_data@@@__crt_internal_free_policy@@QBEXQBU__crt_stdio_stream_data@@@Z 10048638 f i libucrt:stream.obj
 0001:0004764e       ??0?$__crt_unique_heap_ptr@U__crt_stdio_stream_data@@U__crt_internal_free_policy@@@@QAE@QAU__crt_stdio_stream_data@@@Z 1004864e f i libucrt:stream.obj
 0001:00047662       ??0__crt_stdio_stream@@QAE@XZ 10048662 f i libucrt:stream.obj
 0001:00047668       ??1?$__crt_unique_heap_ptr@U__crt_stdio_stream_data@@U__crt_internal_free_policy@@@@QAE@XZ 10048668 f i libucrt:stream.obj
 0001:0004767e       ?__acrt_stdio_allocate_stream@@YA?AV__crt_stdio_stream@@XZ 1004867e f   libucrt:stream.obj
 0001:000476f4       ?__acrt_stdio_free_stream@@YAXV__crt_stdio_stream@@@Z 100486f4 f   libucrt:stream.obj
 0001:0004773d       ?deallocate@__crt_stdio_stream@@QAEXXZ 1004873d f i libucrt:stream.obj
 0001:00047749       ?detach@?$__crt_unique_heap_ptr@U__crt_stdio_stream_data@@U__crt_internal_free_policy@@@@QAEPAU__crt_stdio_stream_data@@XZ 10048749 f i libucrt:stream.obj
 0001:00047842       ?lock@__crt_stdio_stream@@QBEXXZ 10048842 f i libucrt:stream.obj
 0001:0004784d       ?release@?$__crt_unique_heap_ptr@U__crt_stdio_stream_data@@U__crt_internal_free_policy@@@@QAEXXZ 1004884d f i libucrt:stream.obj
 0001:00047863       ?try_allocate@__crt_stdio_stream@@QAE_NXZ 10048863 f i libucrt:stream.obj
 0001:0004788b       ??$__acrt_stdio_parse_mode@D@@YA?AU__acrt_stdio_stream_mode@@QBD@Z 1004888b f i libucrt:openfile.obj
 0001:00047b45       ??$__acrt_stdio_parse_mode@_W@@YA?AU__acrt_stdio_stream_mode@@QB_W@Z 10048b45 f i libucrt:openfile.obj
 0001:00047f9a       ??$tcsncmp@AAPBDAAY02$$CBDI@?$__crt_char_traits@D@@SAHAAPBDAAY02$$CBD$$QAI@Z 10048f9a f i libucrt:openfile.obj
 0001:00047fbd       ??$tcsncmp@AAPB_WAAY02$$CB_WI@?$__crt_char_traits@_W@@SAHAAPB_WAAY02$$CB_W$$QAI@Z 10048fbd f i libucrt:openfile.obj
 0001:00047fe0       ??$tcsnicmp@AAPBDAAY04$$CBDI@?$__crt_char_traits@D@@SAHAAPBDAAY04$$CBD$$QAI@Z 10048fe0 f i libucrt:openfile.obj
 0001:00048003       ??$tcsnicmp@AAPBDAAY06$$CBDI@?$__crt_char_traits@D@@SAHAAPBDAAY06$$CBD$$QAI@Z 10049003 f i libucrt:openfile.obj
 0001:00048026       ??$tcsnicmp@AAPBDAAY07$$CBDI@?$__crt_char_traits@D@@SAHAAPBDAAY07$$CBD$$QAI@Z 10049026 f i libucrt:openfile.obj
 0001:00048049       ??$tcsnicmp@AAPB_WAAY04$$CB_WI@?$__crt_char_traits@_W@@SAHAAPB_WAAY04$$CB_W$$QAI@Z 10049049 f i libucrt:openfile.obj
 0001:0004806c       ??$tcsnicmp@AAPB_WAAY06$$CB_WI@?$__crt_char_traits@_W@@SAHAAPB_WAAY06$$CB_W$$QAI@Z 1004906c f i libucrt:openfile.obj
 0001:0004808f       ??$tcsnicmp@AAPB_WAAY07$$CB_WI@?$__crt_char_traits@_W@@SAHAAPB_WAAY07$$CB_W$$QAI@Z 1004908f f i libucrt:openfile.obj
 0001:000480b2       ??$tsopen_s@PAHABQBDABHABHH@?$__crt_char_traits@D@@SAH$$QAPAHABQBDABH2$$QAH@Z 100490b2 f i libucrt:openfile.obj
 0001:000480e4       ??$tsopen_s@PAHABQB_WABHABHH@?$__crt_char_traits@_W@@SAH$$QAPAHABQB_WABH2$$QAH@Z 100490e4 f i libucrt:openfile.obj
 0001:00048116       ?__acrt_stdio_parse_mode_D@@YA_NAAU__acrt_stdio_stream_mode@@@Z 10049116 f i libucrt:openfile.obj
 0001:00048137       ?__acrt_stdio_parse_mode_N@@YA_NAAU__acrt_stdio_stream_mode@@@Z 10049137 f i libucrt:openfile.obj
 0001:0004814d       ?__acrt_stdio_parse_mode_R@@YA_NAAU__acrt_stdio_stream_mode@@AA_N@Z 1004914d f i libucrt:openfile.obj
 0001:00048172       ?__acrt_stdio_parse_mode_S@@YA_NAAU__acrt_stdio_stream_mode@@AA_N@Z 10049172 f i libucrt:openfile.obj
 0001:00048197       ?__acrt_stdio_parse_mode_T@@YA_NAAU__acrt_stdio_stream_mode@@@Z 10049197 f i libucrt:openfile.obj
 0001:000481bd       ?__acrt_stdio_parse_mode_b@@YA_NAAU__acrt_stdio_stream_mode@@@Z 100491bd f i libucrt:openfile.obj
 0001:000481e5       ?__acrt_stdio_parse_mode_c@@YA_NAAU__acrt_stdio_stream_mode@@AA_N@Z 100491e5 f i libucrt:openfile.obj
 0001:0004820f       ?__acrt_stdio_parse_mode_n@@YA_NAAU__acrt_stdio_stream_mode@@AA_N@Z 1004920f f i libucrt:openfile.obj
 0001:00048239       ?__acrt_stdio_parse_mode_plus@@YA_NAAU__acrt_stdio_stream_mode@@AA_N@Z 10049239 f i libucrt:openfile.obj
 0001:0004827b       ?__acrt_stdio_parse_mode_t@@YA_NAAU__acrt_stdio_stream_mode@@@Z 1004927b f i libucrt:openfile.obj
 0001:000482a3       ?__acrt_stdio_parse_mode_x@@YA_NAAU__acrt_stdio_stream_mode@@@Z 100492a3 f i libucrt:openfile.obj
 0001:000482cb       __openfile                 100492cb f   libucrt:openfile.obj
 0001:000482d8       __wopenfile                100492d8 f   libucrt:openfile.obj
 0001:000489ab       __read                     100499ab f   libucrt:read.obj
 0001:00048af7       __read_nolock              10049af7 f   libucrt:read.obj
 0001:00048f95       __utf8_no_of_trailbytes    10049f95 f i libucrt:read.obj
 0001:000494b4       ___acrt_stdio_refill_and_read_narrow_nolock 1004a4b4 f   libucrt:_filbuf.obj
 0001:000494c1       ___acrt_stdio_refill_and_read_wide_nolock 1004a4c1 f   libucrt:_filbuf.obj
 0001:00049c43       __write                    1004ac43 f   libucrt:write.obj
 0001:00049d65       __write_nolock             1004ad65 f   libucrt:write.obj
 0001:0004a4a7       ___acrt_stdio_flush_and_write_narrow_nolock 1004b4a7 f   libucrt:_flsbuf.obj
 0001:0004a4b4       ___acrt_stdio_flush_and_write_wide_nolock 1004b4b4 f   libucrt:_flsbuf.obj
 0001:0004a4c1       ?has_temporary_buffer@__crt_stdio_stream@@QBE_NXZ 1004b4c1 f i libucrt:_sftbuf.obj
 0001:0004a4ce       ___acrt_stdio_begin_temporary_buffering_nolock 1004b4ce f   libucrt:_sftbuf.obj
 0001:0004a5b0       ___acrt_stdio_end_temporary_buffering_nolock 1004b5b0 f   libucrt:_sftbuf.obj
 0001:0004a679       ___acrt_MultiByteToWideChar 1004b679 f   libucrt:multibytetowidechar.obj
 0001:0004a714       ??$?RU__acrt_ptd@@@__crt_internal_free_policy@@QBEXQBU__acrt_ptd@@@Z 1004b714 f i libucrt:per_thread_data.obj
 0001:0004aa8d       ??0?$__crt_unique_heap_ptr@U__acrt_ptd@@U__crt_internal_free_policy@@@@QAE@QAU__acrt_ptd@@@Z 1004ba8d f i libucrt:per_thread_data.obj
 0001:0004aaa1       ??0__crt_scoped_get_last_error_reset@@QAE@XZ 1004baa1 f i libucrt:per_thread_data.obj
 0001:0004aab6       ??1?$__crt_unique_heap_ptr@U__acrt_ptd@@U__crt_internal_free_policy@@@@QAE@XZ 1004bab6 f i libucrt:per_thread_data.obj
 0001:0004aacc       ??1__crt_scoped_get_last_error_reset@@QAE@XZ 1004bacc f i libucrt:per_thread_data.obj
 0001:0004aad7       ??B?$__crt_unique_heap_ptr@U__acrt_ptd@@U__crt_internal_free_policy@@@@QBE_NXZ 1004bad7 f i libucrt:per_thread_data.obj
 0001:0004ac74       ?dangerous_get_state_array@?$dual_state_global@PAU__crt_locale_data@@@__crt_state_management@@QAEPAPAU__crt_locale_data@@XZ 1004bc74 f i libucrt:per_thread_data.obj
 0001:0004ada7       ?detach@?$__crt_unique_heap_ptr@U__acrt_ptd@@U__crt_internal_free_policy@@@@QAEPAU__acrt_ptd@@XZ 1004bda7 f i libucrt:per_thread_data.obj
 0001:0004adad       ?get@?$__crt_unique_heap_ptr@U__acrt_ptd@@U__crt_internal_free_policy@@@@QBEPAU__acrt_ptd@@XZ 1004bdad f i libucrt:per_thread_data.obj
 0001:0004adb0       ?get_current_state_index@__crt_state_management@@YAIABV__crt_scoped_get_last_error_reset@@@Z 1004bdb0 f i libucrt:per_thread_data.obj
 0001:0004af36       ?is_valid@?$__crt_unique_heap_ptr@U__acrt_ptd@@U__crt_internal_free_policy@@@@QBE_NXZ 1004bf36 f i libucrt:per_thread_data.obj
 0001:0004af3d       ?release@?$__crt_unique_heap_ptr@U__acrt_ptd@@U__crt_internal_free_policy@@@@QAEXXZ 1004bf3d f i libucrt:per_thread_data.obj
 0001:0004afc9       ?value@?$dual_state_global@PAU__crt_locale_data@@@__crt_state_management@@QAEAAPAU__crt_locale_data@@XZ 1004bfc9 f i libucrt:per_thread_data.obj
 0001:0004afcc       ___acrt_freeptd            1004bfcc f   libucrt:per_thread_data.obj
 0001:0004b003       ___acrt_getptd             1004c003 f   libucrt:per_thread_data.obj
 0001:0004b0e7       ___acrt_getptd_head        1004c0e7 f   libucrt:per_thread_data.obj
 0001:0004b1a7       ___acrt_getptd_noexit      1004c1a7 f   libucrt:per_thread_data.obj
 0001:0004b27f       ___acrt_initialize_ptd     1004c27f f   libucrt:per_thread_data.obj
 0001:0004b2b6       ___acrt_uninitialize_ptd   1004c2b6 f   libucrt:per_thread_data.obj
 0001:0004b2d6       ___threadhandle            1004c2d6 f   libucrt:per_thread_data.obj
 0001:0004b2dc       ___threadid                1004c2dc f   libucrt:per_thread_data.obj
 0001:0004b2e2       ?value@?$dual_state_global@PAU__crt_multibyte_data@@@__crt_state_management@@QAEAAPAU__crt_multibyte_data@@XZ 1004c2e2 f i libucrt:locale_update.obj
 0001:0004b2e5       ___acrt_update_locale_info 1004c2e5 f   libucrt:locale_update.obj
 0001:0004b31d       ___acrt_update_multibyte_info 1004c31d f   libucrt:locale_update.obj
 0001:0004b355       __wremove                  1004c355 f   libucrt:wunlink.obj
 0001:0004b387       __wunlink                  1004c387 f   libucrt:wunlink.obj
 0001:0004b397       ??$?RU__crt_locale_data@@@__crt_internal_free_policy@@QBEXQBU__crt_locale_data@@@Z 1004c397 f i libucrt:wsetlocale.obj
 0001:0004b3ad       ??$?RU__crt_locale_pointers@@@__crt_internal_free_policy@@QBEXQBU__crt_locale_pointers@@@Z 1004c3ad f i libucrt:wsetlocale.obj
 0001:0004b3c3       ??$?RU__crt_multibyte_data@@@__crt_internal_free_policy@@QBEXQBU__crt_multibyte_data@@@Z 1004c3c3 f i libucrt:wsetlocale.obj
 0001:0004b693       ??$__vcrt_va_start_verify_argument_type@H@@YAXXZ 1004c693 f i libucrt:wsetlocale.obj
 0001:0004b81e       ??0?$__crt_unique_heap_ptr@U__crt_locale_data@@U__crt_internal_free_policy@@@@QAE@QAU__crt_locale_data@@@Z 1004c81e f i libucrt:wsetlocale.obj
 0001:0004b832       ??0?$__crt_unique_heap_ptr@U__crt_locale_pointers@@U__crt_internal_free_policy@@@@QAE@QAU__crt_locale_pointers@@@Z 1004c832 f i libucrt:wsetlocale.obj
 0001:0004b846       ??0?$__crt_unique_heap_ptr@U__crt_multibyte_data@@U__crt_internal_free_policy@@@@QAE@QAU__crt_multibyte_data@@@Z 1004c846 f i libucrt:wsetlocale.obj
 0001:0004b85a       ??1?$__crt_unique_heap_ptr@U__crt_locale_data@@U__crt_internal_free_policy@@@@QAE@XZ 1004c85a f i libucrt:wsetlocale.obj
 0001:0004b870       ??1?$__crt_unique_heap_ptr@U__crt_locale_pointers@@U__crt_internal_free_policy@@@@QAE@XZ 1004c870 f i libucrt:wsetlocale.obj
 0001:0004b886       ??1?$__crt_unique_heap_ptr@U__crt_multibyte_data@@U__crt_internal_free_policy@@@@QAE@XZ 1004c886 f i libucrt:wsetlocale.obj
 0001:0004b89c       ??B?$__crt_unique_heap_ptr@U__crt_locale_data@@U__crt_internal_free_policy@@@@QBE_NXZ 1004c89c f i libucrt:wsetlocale.obj
 0001:0004b8a3       ??B?$__crt_unique_heap_ptr@U__crt_locale_pointers@@U__crt_internal_free_policy@@@@QBE_NXZ 1004c8a3 f i libucrt:wsetlocale.obj
 0001:0004b8aa       ??B?$__crt_unique_heap_ptr@U__crt_multibyte_data@@U__crt_internal_free_policy@@@@QBE_NXZ 1004c8aa f i libucrt:wsetlocale.obj
 0001:0004bb4c       ?detach@?$__crt_unique_heap_ptr@U__crt_locale_data@@U__crt_internal_free_policy@@@@QAEPAU__crt_locale_data@@XZ 1004cb4c f i libucrt:wsetlocale.obj
 0001:0004bb52       ?detach@?$__crt_unique_heap_ptr@U__crt_locale_pointers@@U__crt_internal_free_policy@@@@QAEPAU__crt_locale_pointers@@XZ 1004cb52 f i libucrt:wsetlocale.obj
 0001:0004bb58       ?detach@?$__crt_unique_heap_ptr@U__crt_multibyte_data@@U__crt_internal_free_policy@@@@QAEPAU__crt_multibyte_data@@XZ 1004cb58 f i libucrt:wsetlocale.obj
 0001:0004bb5e       ?get@?$__crt_unique_heap_ptr@U__crt_locale_data@@U__crt_internal_free_policy@@@@QBEPAU__crt_locale_data@@XZ 1004cb5e f i libucrt:wsetlocale.obj
 0001:0004bb61       ?get@?$__crt_unique_heap_ptr@U__crt_locale_pointers@@U__crt_internal_free_policy@@@@QBEPAU__crt_locale_pointers@@XZ 1004cb61 f i libucrt:wsetlocale.obj
 0001:0004bb64       ?get@?$__crt_unique_heap_ptr@U__crt_multibyte_data@@U__crt_internal_free_policy@@@@QBEPAU__crt_multibyte_data@@XZ 1004cb64 f i libucrt:wsetlocale.obj
 0001:0004bb67       ?is_valid@?$__crt_unique_heap_ptr@U__crt_locale_data@@U__crt_internal_free_policy@@@@QBE_NXZ 1004cb67 f i libucrt:wsetlocale.obj
 0001:0004bb6e       ?is_valid@?$__crt_unique_heap_ptr@U__crt_locale_pointers@@U__crt_internal_free_policy@@@@QBE_NXZ 1004cb6e f i libucrt:wsetlocale.obj
 0001:0004bb75       ?is_valid@?$__crt_unique_heap_ptr@U__crt_multibyte_data@@U__crt_internal_free_policy@@@@QBE_NXZ 1004cb75 f i libucrt:wsetlocale.obj
 0001:0004bb7c       ?release@?$__crt_unique_heap_ptr@U__crt_locale_data@@U__crt_internal_free_policy@@@@QAEXXZ 1004cb7c f i libucrt:wsetlocale.obj
 0001:0004bb92       ?release@?$__crt_unique_heap_ptr@U__crt_locale_pointers@@U__crt_internal_free_policy@@@@QAEXXZ 1004cb92 f i libucrt:wsetlocale.obj
 0001:0004bba8       ?release@?$__crt_unique_heap_ptr@U__crt_multibyte_data@@U__crt_internal_free_policy@@@@QAEXXZ 1004cba8 f i libucrt:wsetlocale.obj
 0001:0004bbbe       ___acrt_copy_locale_name   1004cbbe f   libucrt:wsetlocale.obj
 0001:0004bc3d       ___acrt_set_locale_changed 1004cc3d f   libucrt:wsetlocale.obj
 0001:0004bc4a       ___acrt_uninitialize_locale 1004cc4a f   libucrt:wsetlocale.obj
 0001:0004bc7d       ___lc_lctowcs              1004cc7d f   libucrt:wsetlocale.obj
 0001:0004bd09       ___lc_wcstolc              1004cd09 f   libucrt:wsetlocale.obj
 0001:0004bea9       __configthreadlocale       1004cea9 f   libucrt:wsetlocale.obj
 0001:0004bf5d       __create_locale            1004cf5d f   libucrt:wsetlocale.obj
 0001:0004bfdc       __expandlocale             1004cfdc f   libucrt:wsetlocale.obj
 0001:0004c4b0       __free_locale              1004d4b0 f   libucrt:wsetlocale.obj
 0001:0004c596       __get_current_locale       1004d596 f   libucrt:wsetlocale.obj
 0001:0004c65a       __wcreate_locale           1004d65a f   libucrt:wsetlocale.obj
 0001:0004c7a5       __wcscats                  1004d7a5 f   libucrt:wsetlocale.obj
 0001:0004c7f6       __wsetlocale               1004d7f6 f   libucrt:wsetlocale.obj
 0001:0004d32d       ___p___mb_cur_max          1004e32d f   libucrt:nlsdata.obj
 0001:0004d7bd       __lseek                    1004e7bd f   libucrt:lseek.obj
 0001:0004d7ca       __lseek_nolock             1004e7ca f   libucrt:lseek.obj
 0001:0004d7d7       __lseeki64                 1004e7d7 f   libucrt:lseek.obj
 0001:0004d7f8       __lseeki64_nolock          1004e7f8 f   libucrt:lseek.obj
 0001:0004d835       ___isascii                 1004e835 f i libucrt:_ctype.obj
 0001:0004d84b       ___iscsym                  1004e84b f i libucrt:_ctype.obj
 0001:0004d875       ___iscsymf                 1004e875 f i libucrt:_ctype.obj
 0001:0004d89b       ___toascii                 1004e89b f i libucrt:_ctype.obj
 0001:0004d8ab       __isalnum_l                1004e8ab f i libucrt:_ctype.obj
 0001:0004d8f4       __isalpha_l                1004e8f4 f i libucrt:_ctype.obj
 0001:0004d93d       __isblank_l                1004e93d f i libucrt:_ctype.obj
 0001:0004d990       __iscntrl_l                1004e990 f i libucrt:_ctype.obj
 0001:0004d9d6       __iscsym_l                 1004e9d6 f i libucrt:_ctype.obj
 0001:0004da01       __iscsymf_l                1004ea01 f i libucrt:_ctype.obj
 0001:0004da2c       __isdigit_l                1004ea2c f i libucrt:_ctype.obj
 0001:0004da72       __isgraph_l                1004ea72 f i libucrt:_ctype.obj
 0001:0004dabb       __islower_l                1004eabb f i libucrt:_ctype.obj
 0001:0004db01       __isprint_l                1004eb01 f i libucrt:_ctype.obj
 0001:0004db4a       __ispunct_l                1004eb4a f i libucrt:_ctype.obj
 0001:0004db90       __isspace_l                1004eb90 f i libucrt:_ctype.obj
 0001:0004dbd6       __isupper_l                1004ebd6 f i libucrt:_ctype.obj
 0001:0004dc1c       __isxdigit_l               1004ec1c f i libucrt:_ctype.obj
 0001:0004dc65       _isalnum                   1004ec65 f i libucrt:_ctype.obj
 0001:0004dca1       _isalpha                   1004eca1 f i libucrt:_ctype.obj
 0001:0004dcdd       _isblank                   1004ecdd f i libucrt:_ctype.obj
 0001:0004dd25       _iscntrl                   1004ed25 f i libucrt:_ctype.obj
 0001:0004dd5e       _isdigit                   1004ed5e f i libucrt:_ctype.obj
 0001:0004dd97       _isgraph                   1004ed97 f i libucrt:_ctype.obj
 0001:0004ddd3       _islower                   1004edd3 f i libucrt:_ctype.obj
 0001:0004de0c       _isprint                   1004ee0c f i libucrt:_ctype.obj
 0001:0004de48       _ispunct                   1004ee48 f i libucrt:_ctype.obj
 0001:0004de81       _isspace                   1004ee81 f i libucrt:_ctype.obj
 0001:0004deba       _isupper                   1004eeba f i libucrt:_ctype.obj
 0001:0004def3       _isxdigit                  1004eef3 f i libucrt:_ctype.obj
 0001:0004e2eb       __tolower                  1004f2eb f   libucrt:tolower_toupper.obj
 0001:0004e2fb       __tolower_l                1004f2fb f   libucrt:tolower_toupper.obj
 0001:0004e31b       __toupper                  1004f31b f   libucrt:tolower_toupper.obj
 0001:0004e32b       __toupper_l                1004f32b f   libucrt:tolower_toupper.obj
 0001:0004e34b       _tolower                   1004f34b f   libucrt:tolower_toupper.obj
 0001:0004e387       _toupper                   1004f387 f   libucrt:tolower_toupper.obj
 0001:0004e3c3       ??$make_c_string_character_source@DPAPAD@__crt_strtox@@YA?AV?$c_string_character_source@D@0@QBDQAPAD@Z 1004f3c3 f i libucrt:strtox.obj
 0001:0004e3e4       ??$make_c_string_character_source@_WPAPA_W@__crt_strtox@@YA?AV?$c_string_character_source@_W@0@QB_WQAPA_W@Z 1004f3e4 f i libucrt:strtox.obj
 0001:0004e405       ??$parse_integer_from_string@JDPAPAD@__crt_strtox@@YAJQBDQAPADHQAU__crt_locale_pointers@@@Z 1004f405 f i libucrt:strtox.obj
 0001:0004e43d       ??$parse_integer_from_string@J_WPAPA_W@__crt_strtox@@YAJQB_WQAPA_WHQAU__crt_locale_pointers@@@Z 1004f43d f i libucrt:strtox.obj
 0001:0004e475       ??$parse_integer_from_string@KDPAPAD@__crt_strtox@@YAKQBDQAPADHQAU__crt_locale_pointers@@@Z 1004f475 f i libucrt:strtox.obj
 0001:0004e4ad       ??$parse_integer_from_string@K_WPAPA_W@__crt_strtox@@YAKQB_WQAPA_WHQAU__crt_locale_pointers@@@Z 1004f4ad f i libucrt:strtox.obj
 0001:0004e4e5       ??$parse_integer_from_string@_JDPAPAD@__crt_strtox@@YA_JQBDQAPADHQAU__crt_locale_pointers@@@Z 1004f4e5 f i libucrt:strtox.obj
 0001:0004e51d       ??$parse_integer_from_string@_J_WPAPA_W@__crt_strtox@@YA_JQB_WQAPA_WHQAU__crt_locale_pointers@@@Z 1004f51d f i libucrt:strtox.obj
 0001:0004e555       ??$parse_integer_from_string@_KDPAPAD@__crt_strtox@@YA_KQBDQAPADHQAU__crt_locale_pointers@@@Z 1004f555 f i libucrt:strtox.obj
 0001:0004e58d       ??$parse_integer_from_string@_K_WPAPA_W@__crt_strtox@@YA_KQB_WQAPA_WHQAU__crt_locale_pointers@@@Z 1004f58d f i libucrt:strtox.obj
 0001:0004e5c5       __strtoi64                 1004f5c5 f   libucrt:strtox.obj
 0001:0004e5fc       __strtoi64_l               1004f5fc f   libucrt:strtox.obj
 0001:0004e634       __strtoimax_l              1004f634 f   libucrt:strtox.obj
 0001:0004e66c       __strtol_l                 1004f66c f   libucrt:strtox.obj
 0001:0004e6a4       __strtoll_l                1004f6a4 f   libucrt:strtox.obj
 0001:0004e6dc       __strtoui64                1004f6dc f   libucrt:strtox.obj
 0001:0004e713       __strtoui64_l              1004f713 f   libucrt:strtox.obj
 0001:0004e74b       __strtoul_l                1004f74b f   libucrt:strtox.obj
 0001:0004e783       __strtoull_l               1004f783 f   libucrt:strtox.obj
 0001:0004e7bb       __strtoumax_l              1004f7bb f   libucrt:strtox.obj
 0001:0004e7f3       __wcstoi64                 1004f7f3 f   libucrt:strtox.obj
 0001:0004e82a       __wcstoi64_l               1004f82a f   libucrt:strtox.obj
 0001:0004e862       __wcstoimax_l              1004f862 f   libucrt:strtox.obj
 0001:0004e89a       __wcstol_l                 1004f89a f   libucrt:strtox.obj
 0001:0004e8d2       __wcstoll_l                1004f8d2 f   libucrt:strtox.obj
 0001:0004e90a       __wcstoui64                1004f90a f   libucrt:strtox.obj
 0001:0004e941       __wcstoui64_l              1004f941 f   libucrt:strtox.obj
 0001:0004e979       __wcstoul_l                1004f979 f   libucrt:strtox.obj
 0001:0004e9b1       __wcstoull_l               1004f9b1 f   libucrt:strtox.obj
 0001:0004e9e9       __wcstoumax_l              1004f9e9 f   libucrt:strtox.obj
 0001:0004ea21       _strtoimax                 1004fa21 f   libucrt:strtox.obj
 0001:0004ea58       _strtol                    1004fa58 f   libucrt:strtox.obj
 0001:0004ea8f       _strtoll                   1004fa8f f   libucrt:strtox.obj
 0001:0004eac6       _strtoul                   1004fac6 f   libucrt:strtox.obj
 0001:0004eafd       _strtoull                  1004fafd f   libucrt:strtox.obj
 0001:0004eb34       _strtoumax                 1004fb34 f   libucrt:strtox.obj
 0001:0004eb6b       _wcstoimax                 1004fb6b f   libucrt:strtox.obj
 0001:0004eba2       _wcstol                    1004fba2 f   libucrt:strtox.obj
 0001:0004ebd9       _wcstoll                   1004fbd9 f   libucrt:strtox.obj
 0001:0004ec10       _wcstoul                   1004fc10 f   libucrt:strtox.obj
 0001:0004ec47       _wcstoull                  1004fc47 f   libucrt:strtox.obj
 0001:0004ec7e       _wcstoumax                 1004fc7e f   libucrt:strtox.obj
 0001:0004ecb5       __mbtowc_l                 1004fcb5 f   libucrt:mbtowc.obj
 0001:0004ee4a       _mbtowc                    1004fe4a f   libucrt:mbtowc.obj
 0001:0004ee6a       __wctomb_l                 1004fe6a f   libucrt:wctomb.obj
 0001:0004eed1       __wctomb_s_l               1004fed1 f   libucrt:wctomb.obj
 0001:0004f03c       _wctomb                    1005003c f   libucrt:wctomb.obj
 0001:0004f07d       _wctomb_s                  1005007d f   libucrt:wctomb.obj
 0001:0004fa9a       ??1?$__crt_simd_cleanup_guard@$00@@QAE@XZ 10050a9a f i libucrt:strnlen.obj
 0001:0004fa9e       ??1?$__crt_simd_cleanup_guard@$0A@@@QAE@XZ 10050a9e f i libucrt:strnlen.obj
 0001:0004fa9f       ?compare_equals@?$__crt_simd_traits@$00E@@SA?AT__m256i@@T2@0@Z 10050a9f f i libucrt:strnlen.obj
 0001:0004faa4       ?compare_equals@?$__crt_simd_traits@$00G@@SA?AT__m256i@@T2@0@Z 10050aa4 f i libucrt:strnlen.obj
 0001:0004faa9       ?compare_equals@?$__crt_simd_traits@$0A@E@@SA?AT__m128i@@T2@0@Z 10050aa9 f i libucrt:strnlen.obj
 0001:0004faae       ?compare_equals@?$__crt_simd_traits@$0A@G@@SA?AT__m128i@@T2@0@Z 10050aae f i libucrt:strnlen.obj
 0001:0004fab3       ?compute_byte_mask@?$__crt_simd_pack_traits@$00@@SAHT__m256i@@@Z 10050ab3 f i libucrt:strnlen.obj
 0001:0004fab8       ?compute_byte_mask@?$__crt_simd_pack_traits@$0A@@@SAHT__m128i@@@Z 10050ab8 f i libucrt:strnlen.obj
 0001:0004fabd       ?get_zero_pack@?$__crt_simd_pack_traits@$00@@SA?AT__m256i@@XZ 10050abd f i libucrt:strnlen.obj
 0001:0004fac2       ?get_zero_pack@?$__crt_simd_pack_traits@$0A@@@SA?AT__m128i@@XZ 10050ac2 f i libucrt:strnlen.obj
 0001:0004fac6       _strnlen                   10050ac6 f   libucrt:strnlen.obj
 0001:0004fc30       _wcslen                    10050c30 f   libucrt:strnlen.obj
 0001:0004fda2       _wcsnlen                   10050da2 f   libucrt:strnlen.obj
 0001:0004ffbe       ?__acrt_fp_classify@@YA?AW4__acrt_fp_class@@ABN@Z 10050fbe f i libucrt:cvt.obj
 0001:00050038       ?__acrt_fp_is_negative@@YA_NABN@Z 10051038 f i libucrt:cvt.obj
 0001:00050abd       ?strrchr@@YAPADQADH@Z      10051abd f i libucrt:cvt.obj
 0001:00050aca       ___acrt_fp_format          10051aca f   libucrt:cvt.obj
 0001:00050c92       __fputwc_nolock            10051c92 f   libucrt:fputwc.obj
 0001:00050e06       __fputwchar                10051e06 f   libucrt:fputwc.obj
 0001:00050e26       __putwc_nolock             10051e26 f   libucrt:fputwc.obj
 0001:00050e33       _fputwc                    10051e33 f   libucrt:fputwc.obj
 0001:00050ec4       _putwc                     10051ec4 f   libucrt:fputwc.obj
 0001:00050ed1       _putwchar                  10051ed1 f   libucrt:fputwc.obj
 0001:00050ede       __fputc_nolock             10051ede f   libucrt:fputc.obj
 0001:00050f11       __fputchar                 10051f11 f   libucrt:fputc.obj
 0001:00050f31       __putc_nolock              10051f31 f   libucrt:fputc.obj
 0001:00050f3e       _fputc                     10051f3e f   libucrt:fputc.obj
 0001:0005107c       _putc                      1005207c f   libucrt:fputc.obj
 0001:00051089       _putchar                   10052089 f   libucrt:fputc.obj
 0001:00051096       __get_printf_count_output  10052096 f   libucrt:printf_count_output.obj
 0001:000510b0       __set_printf_count_output  100520b0 f   libucrt:printf_count_output.obj
 0001:000510e4       __chgsign                  100520e4 f   libucrt:ieeemisc.obj
 0001:0005111e       __chgsignf                 1005211e f   libucrt:ieeemisc.obj
 0001:00051149       __copysign                 10052149 f   libucrt:ieeemisc.obj
 0001:0005117d       __copysignf                1005217d f   libucrt:ieeemisc.obj
 0001:000511a2       __finite                   100521a2 f   libucrt:ieeemisc.obj
 0001:000511c2       __fpclass                  100521c2 f   libucrt:ieeemisc.obj
 0001:0005128f       __isnan                    1005228f f   libucrt:ieeemisc.obj
 0001:000512d2       __logb                     100522d2 f   libucrt:ieeemisc.obj
 0001:000513d7       __nextafter                100523d7 f   libucrt:ieeemisc.obj
 0001:000513fd       __scalb                    100523fd f   libucrt:ieeemisc.obj
 0001:0005141d       __add_exp                  1005241d f   libucrt:util.obj
 0001:00051457       __decomp                   10052457 f   libucrt:util.obj
 0001:0005156c       __get_exp                  1005256c f   libucrt:util.obj
 0001:0005158a       __set_bexp                 1005258a f   libucrt:util.obj
 0001:000515bd       __set_exp                  100525bd f   libucrt:util.obj
 0001:000515f7       __sptype                   100525f7 f   libucrt:util.obj
 0001:0005166c       ___clrfp_sse2              1005266c f   libucrt:fpctrl.obj
 0001:00051695       ___ctrlfp_sse2             10052695 f   libucrt:fpctrl.obj
 0001:000516de       ___fclrf_sse2              100526de f   libucrt:fpctrl.obj
 0001:00051704       ___get_fpsr_sse2           10052704 f   libucrt:fpctrl.obj
 0001:00051729       ___set_fpsr_sse2           10052729 f   libucrt:fpctrl.obj
 0001:000517bc       ___set_statfp_sse2         100527bc f   libucrt:fpctrl.obj
 0001:000517dd       ___statfp_sse2             100527dd f   libucrt:fpctrl.obj
 0001:000517f7       __clrfp                    100527f7 f   libucrt:fpctrl.obj
 0001:0005180e       __ctrlfp                   1005280e f   libucrt:fpctrl.obj
 0001:00051845       __set_statfp               10052845 f   libucrt:fpctrl.obj
 0001:000518b6       __statfp                   100528b6 f   libucrt:fpctrl.obj
 0001:000518cc       ??$__crt_fast_decode_pointer@P6AHPAU_exception@@@Z@@YAP6AHPAU_exception@@@ZQ6AH0@Z@Z 100528cc f i libucrt:matherr.obj
 0001:000518e7       ??$__crt_fast_encode_pointer@P6AHPAU_exception@@@Z@@YAP6AHPAU_exception@@@ZQ6AH0@Z@Z 100528e7 f i libucrt:matherr.obj
 0001:0005190d       ?initialize@?$dual_state_global@P6AHPAU_exception@@@Z@__crt_state_management@@QAEXQ6AHPAU_exception@@@Z@Z 1005290d f i libucrt:matherr.obj
 0001:0005193c       ?value@?$dual_state_global@P6AHPAU_exception@@@Z@__crt_state_management@@QAEAAP6AHPAU_exception@@@ZXZ 1005293c f i libucrt:matherr.obj
 0001:0005193f       ___acrt_has_user_matherr   1005293f f   libucrt:matherr.obj
 0001:0005195d       ___acrt_initialize_user_matherr 1005295d f   libucrt:matherr.obj
 0001:0005196f       ___acrt_invoke_user_matherr 1005296f f   libucrt:matherr.obj
 0001:000519ca       ___setusermatherr          100529ca f   libucrt:matherr.obj
 0001:000524d5       ??$find_first_file_ex@ABQADW4_FINDEX_INFO_LEVELS@@PAU_WIN32_FIND_DATAA@@W4_FINDEX_SEARCH_OPS@@$$TH@?$__crt_char_traits@D@@SAPAXABQAD$$QAW4_FINDEX_INFO_LEVELS@@$$QAPAU_WIN32_FIND_DATAA@@$$QAW4_FINDEX_SEARCH_OPS@@$$QA$$T$$QAH@Z 100534d5 f i libucrt:argv_wildcards.obj
 0001:0005250d       ??$find_first_file_ex@ABQA_WW4_FINDEX_INFO_LEVELS@@PAU_WIN32_FIND_DATAW@@W4_FINDEX_SEARCH_OPS@@$$TH@?$__crt_char_traits@_W@@SAPAXABQA_W$$QAW4_FINDEX_INFO_LEVELS@@$$QAPAU_WIN32_FIND_DATAW@@$$QAW4_FINDEX_SEARCH_OPS@@$$QA$$T$$QAH@Z 1005350d f i libucrt:argv_wildcards.obj
 0001:00052542       ??$find_next_file@PAXPAU_WIN32_FIND_DATAA@@@?$__crt_char_traits@D@@SAH$$QAPAX$$QAPAU_WIN32_FIND_DATAA@@@Z 10053542 f i libucrt:argv_wildcards.obj
 0001:00052560       ??$find_next_file@PAXPAU_WIN32_FIND_DATAW@@@?$__crt_char_traits@_W@@SAH$$QAPAX$$QAPAU_WIN32_FIND_DATAW@@@Z 10053560 f i libucrt:argv_wildcards.obj
 0001:0005257c       ??$tcsncpy_s@AAPADIAAPADABI@?$__crt_char_traits@D@@SAHAAPAD$$QAI0ABI@Z 1005357c f i libucrt:argv_wildcards.obj
 0001:000525a7       ??$tcsncpy_s@AAPA_WIAAPA_WABI@?$__crt_char_traits@_W@@SAHAAPA_W$$QAI0ABI@Z 100535a7 f i libucrt:argv_wildcards.obj
 0001:000525d2       ??$tcsncpy_s@PADABIABQBDABI@?$__crt_char_traits@D@@SAH$$QAPADABIABQBD1@Z 100535d2 f i libucrt:argv_wildcards.obj
 0001:000525fd       ??$tcsncpy_s@PADIABQBDABI@?$__crt_char_traits@D@@SAH$$QAPAD$$QAIABQBDABI@Z 100535fd f i libucrt:argv_wildcards.obj
 0001:00052628       ??$tcsncpy_s@PA_WABIABQB_WABI@?$__crt_char_traits@_W@@SAH$$QAPA_WABIABQB_W1@Z 10053628 f i libucrt:argv_wildcards.obj
 0001:00052653       ??$tcsncpy_s@PA_WIABQB_WABI@?$__crt_char_traits@_W@@SAH$$QAPA_W$$QAIABQB_WABI@Z 10053653 f i libucrt:argv_wildcards.obj
 0001:0005267e       ??$tcspbrk@AAPADAAY02$$CBD@?$__crt_char_traits@D@@SAPADAAPADAAY02$$CBD@Z 1005367e f i libucrt:argv_wildcards.obj
 0001:00052699       ??$tcspbrk@AAPA_WAAY02$$CB_W@?$__crt_char_traits@_W@@SAPA_WAAPA_WAAY02$$CB_W@Z 10053699 f i libucrt:argv_wildcards.obj
 0001:000526b4       ??0?$__crt_unique_handle_t@U__crt_findfile_traits@@@@QAE@QAX@Z 100536b4 f i libucrt:argv_wildcards.obj
 0001:000526e8       ??1?$__crt_unique_handle_t@U__crt_findfile_traits@@@@QAE@XZ 100536e8 f i libucrt:argv_wildcards.obj
 0001:00052892       ?close@?$__crt_unique_handle_t@U__crt_findfile_traits@@@@QAEXXZ 10053892 f i libucrt:argv_wildcards.obj
 0001:000528ae       ?close@__crt_findfile_traits@@SA_NPAX@Z 100538ae f i libucrt:argv_wildcards.obj
 0001:00052a20       ?get@?$__crt_unique_handle_t@U__crt_findfile_traits@@@@QBEPAXXZ 10053a20 f i libucrt:argv_wildcards.obj
 0001:00052a23       ?get_invalid_value@__crt_findfile_traits@@SAPAXXZ 10053a23 f i libucrt:argv_wildcards.obj
 0001:00052a5a       ?strpbrk@@YAPADQADQBD@Z    10053a5a f i libucrt:argv_wildcards.obj
 0001:00052a67       ?wcspbrk@@YAPA_WPA_WPB_W@Z 10053a67 f i libucrt:argv_wildcards.obj
 0001:00052a74       ___acrt_expand_narrow_argv_wildcards 10053a74 f   libucrt:argv_wildcards.obj
 0001:00052a81       ___acrt_expand_wide_argv_wildcards 10053a81 f   libucrt:argv_wildcards.obj
 0001:00052b13       ??$initialize_from_array@$$BY10BAA@E@?$dual_state_global@PAE@__crt_state_management@@QAAXAAY10BAA@E@Z 10053b13 f i libucrt:mbctype.obj
 0001:00052b25       ??$initialize_from_array@$$BY10BAB@E@?$dual_state_global@PAE@__crt_state_management@@QAAXAAY10BAB@E@Z 10053b25 f i libucrt:mbctype.obj
 0001:00052c84       ?dangerous_get_state_array@?$dual_state_global@PAE@__crt_state_management@@QAEPAPAEXZ 10053c84 f i libucrt:mbctype.obj
 0001:00052c87       ?dangerous_get_state_array@?$dual_state_global@PAU__crt_multibyte_data@@@__crt_state_management@@QAEPAPAU__crt_multibyte_data@@XZ 10053c87 f i libucrt:mbctype.obj
 0001:00052d19       ?initialize@?$dual_state_global@PAU__crt_multibyte_data@@@__crt_state_management@@QAEXQAU__crt_multibyte_data@@@Z 10053d19 f i libucrt:mbctype.obj
 0001:00053208       ?value@?$dual_state_global@PAE@__crt_state_management@@QAEAAPAEXZ 10054208 f i libucrt:mbctype.obj
 0001:0005320b       ___acrt_initialize_multibyte 1005420b f   libucrt:mbctype.obj
 0001:00053265       ___acrt_update_thread_multibyte_data 10054265 f   libucrt:mbctype.obj
 0001:0005327c       ___p__mbcasemap            1005427c f   libucrt:mbctype.obj
 0001:00053282       ___p__mbctype              10054282 f   libucrt:mbctype.obj
 0001:00053288       __getmbcp                  10054288 f   libucrt:mbctype.obj
 0001:000532cb       __setmbcp                  100542cb f   libucrt:mbctype.obj
 0001:000532f1       __setmbcp_nolock           100542f1 f   libucrt:mbctype.obj
 0001:0005367a       __ismbbalnum               1005467a f   libucrt:ismbbyte.obj
 0001:0005369b       __ismbbalnum_l             1005469b f   libucrt:ismbbyte.obj
 0001:000536be       __ismbbalpha               100546be f   libucrt:ismbbyte.obj
 0001:000536df       __ismbbalpha_l             100546df f   libucrt:ismbbyte.obj
 0001:00053702       __ismbbblank               10054702 f   libucrt:ismbbyte.obj
 0001:0005372d       __ismbbblank_l             1005472d f   libucrt:ismbbyte.obj
 0001:0005375a       __ismbbgraph               1005475a f   libucrt:ismbbyte.obj
 0001:0005377b       __ismbbgraph_l             1005477b f   libucrt:ismbbyte.obj
 0001:0005379e       __ismbbkalnum              1005479e f   libucrt:ismbbyte.obj
 0001:000537bc       __ismbbkalnum_l            100547bc f   libucrt:ismbbyte.obj
 0001:000537db       __ismbbkana                100547db f   libucrt:ismbbyte.obj
 0001:000537f2       __ismbbkana_l              100547f2 f   libucrt:ismbbyte.obj
 0001:00053857       __ismbbkprint              10054857 f   libucrt:ismbbyte.obj
 0001:00053875       __ismbbkprint_l            10054875 f   libucrt:ismbbyte.obj
 0001:00053894       __ismbbkpunct              10054894 f   libucrt:ismbbyte.obj
 0001:000538b2       __ismbbkpunct_l            100548b2 f   libucrt:ismbbyte.obj
 0001:000538d1       __ismbblead                100548d1 f   libucrt:ismbbyte.obj
 0001:000538ef       __ismbblead_l              100548ef f   libucrt:ismbbyte.obj
 0001:0005390e       __ismbbprint               1005490e f   libucrt:ismbbyte.obj
 0001:0005392f       __ismbbprint_l             1005492f f   libucrt:ismbbyte.obj
 0001:00053952       __ismbbpunct               10054952 f   libucrt:ismbbyte.obj
 0001:00053970       __ismbbpunct_l             10054970 f   libucrt:ismbbyte.obj
 0001:0005398f       __ismbbtrail               1005498f f   libucrt:ismbbyte.obj
 0001:000539ad       __ismbbtrail_l             100549ad f   libucrt:ismbbyte.obj
 0001:000539cc       ___acrt_initialize_command_line 100549cc f   libucrt:argv_data.obj
 0001:000539eb       ___acrt_uninitialize_command_line 100549eb f   libucrt:argv_data.obj
 0001:000539ee       ___p___argc                100549ee f   libucrt:argv_data.obj
 0001:000539f4       ___p___argv                100549f4 f   libucrt:argv_data.obj
 0001:000539fa       ___p___wargv               100549fa f   libucrt:argv_data.obj
 0001:00053a00       ___p__acmdln               10054a00 f   libucrt:argv_data.obj
 0001:00053a06       ___p__pgmptr               10054a06 f   libucrt:argv_data.obj
 0001:00053a0c       ___p__wcmdln               10054a0c f   libucrt:argv_data.obj
 0001:00053a12       ___p__wpgmptr              10054a12 f   libucrt:argv_data.obj
 0001:00053a18       __get_pgmptr               10054a18 f   libucrt:argv_data.obj
 0001:00053a55       __get_wpgmptr              10054a55 f   libucrt:argv_data.obj
 0001:00053b10       ___acrt_WideCharToMultiByte 10054b10 f   libucrt:widechartomultibyte.obj
 0001:00053ca2       ___dcrt_get_narrow_environment_from_os 10054ca2 f   libucrt:get_environment_from_os.obj
 0001:00053d49       ___dcrt_get_wide_environment_from_os 10054d49 f   libucrt:get_environment_from_os.obj
 0001:0005464d       ??$get_or_create_environment_nolock@$$V@?$__crt_char_traits@D@@SAPAPADXZ 1005564d f i libucrt:setenv.obj
 0001:00054652       ??$get_or_create_environment_nolock@$$V@?$__crt_char_traits@_W@@SAPAPA_WXZ 10055652 f i libucrt:setenv.obj
 0001:00054657       ??$set_environment_variable@ABQADQAD@?$__crt_char_traits@D@@SAHABQAD$$QBQAD@Z 10055657 f i libucrt:setenv.obj
 0001:00054675       ??$set_environment_variable@ABQA_WQA_W@?$__crt_char_traits@_W@@SAHABQA_W$$QBQA_W@Z 10055675 f i libucrt:setenv.obj
 0001:00054691       ??$tcschr@ABQADD@?$__crt_char_traits@D@@SAPADABQAD$$QAD@Z 10055691 f i libucrt:setenv.obj
 0001:000546b1       ??$tcschr@ABQA_WD@?$__crt_char_traits@_W@@SAPA_WABQA_W$$QAD@Z 100556b1 f i libucrt:setenv.obj
 0001:000546d6       ??$tcscpy_s@AAPADABIAAPAD@?$__crt_char_traits@D@@SAHAAPADABI0@Z 100556d6 f i libucrt:setenv.obj
 0001:000546fb       ??$tcscpy_s@AAPA_WABIAAPA_W@?$__crt_char_traits@_W@@SAHAAPA_WABI0@Z 100556fb f i libucrt:setenv.obj
 0001:00054720       ??$tcscpy_s@ABQADABIABQAD@?$__crt_char_traits@D@@SAHABQADABI0@Z 10055720 f i libucrt:setenv.obj
 0001:00054745       ??$tcscpy_s@ABQA_WABIABQA_W@?$__crt_char_traits@_W@@SAHABQA_WABI0@Z 10055745 f i libucrt:setenv.obj
 0001:0005476a       ??$tcsnicoll@ABQBDAAPADABI@?$__crt_char_traits@D@@SAHABQBDAAPADABI@Z 1005576a f i libucrt:setenv.obj
 0001:0005478f       ??$tcsnicoll@ABQB_WAAPA_WABI@?$__crt_char_traits@_W@@SAHABQB_WAAPA_WABI@Z 1005578f f i libucrt:setenv.obj
 0001:000547d8       ?strchr@@YAPADQADH@Z       100557d8 f i libucrt:setenv.obj
 0001:000547e5       ?wcschr@@YAPA_WPA_W_W@Z    100557e5 f i libucrt:setenv.obj
 0001:000547f2       ___dcrt_set_variable_in_narrow_environment_nolock 100557f2 f   libucrt:setenv.obj
 0001:000547ff       ___dcrt_set_variable_in_wide_environment_nolock 100557ff f   libucrt:setenv.obj
 0001:0005480c       __recalloc                 1005580c f   libucrt:recalloc.obj
 0001:00054819       __recalloc_base            10055819 f   libucrt:recalloc.obj
 0001:000548a1       ___acrt_getheap            100558a1 f   libucrt:heap_handle.obj
 0001:000548a7       ___acrt_initialize_heap    100558a7 f   libucrt:heap_handle.obj
 0001:000548bc       ___acrt_uninitialize_heap  100558bc f   libucrt:heap_handle.obj
 0001:000548c8       __get_heap_handle          100558c8 f   libucrt:heap_handle.obj
 0001:000548ce       ___acrt_execute_initializers 100558ce f   libucrt:shared_initialization.obj
 0001:00054971       ___acrt_execute_uninitializers 10055971 f   libucrt:shared_initialization.obj
 0001:000549cb       ??$?B$$A6AHI@Z@__crt_fast_encoded_nullptr_t@@QBEP6AHI@ZXZ 100559cb f i libucrt:new_handler.obj
 0001:000549e9       ??$__crt_fast_decode_pointer@P6AHI@Z@@YAP6AHI@ZQ6AHI@Z@Z 100559e9 f i libucrt:new_handler.obj
 0001:00054a04       ??$__crt_fast_encode_pointer@P6AHI@Z@@YAP6AHI@ZQ6AHI@Z@Z 10055a04 f i libucrt:new_handler.obj
 0001:00054a2a       ?_set_new_handler@@YAP6AHI@ZH@Z 10055a2a f   libucrt:new_handler.obj
 0001:00054a50       ?initialize@?$dual_state_global@P6AHI@Z@__crt_state_management@@QAEXQ6AHI@Z@Z 10055a50 f i libucrt:new_handler.obj
 0001:00054a7f       ?value@?$dual_state_global@P6AHI@Z@__crt_state_management@@QAEAAP6AHI@ZXZ 10055a7f f i libucrt:new_handler.obj
 0001:00054a82       ___acrt_initialize_new_handler 10055a82 f   libucrt:new_handler.obj
 0001:00054a94       __callnewh                 10055a94 f   libucrt:new_handler.obj
 0001:00054ae9       __query_new_handler        10055ae9 f   libucrt:new_handler.obj
 0001:00054b4f       __set_new_handler          10055b4f f   libucrt:new_handler.obj
 0001:00054bc7       ___pctype_func             10055bc7 f   libucrt:ctype.obj
 0001:00054bf6       ___pwctype_func            10055bf6 f   libucrt:ctype.obj
 0001:00054bfc       __iswctype_l               10055bfc f   libucrt:iswctype.obj
 0001:00054c15       _iswctype                  10055c15 f   libucrt:iswctype.obj
 0001:00054c9a       __isctype                  10055c9a f   libucrt:isctype.obj
 0001:00054cd8       __isctype_l                10055cd8 f   libucrt:isctype.obj
 0001:00054de6       ?value@?$dual_state_global@J@__crt_state_management@@QAEAAJXZ 10055de6 f i libucrt:new_mode.obj
 0001:00054de9       __query_new_mode           10055de9 f   libucrt:new_mode.obj
 0001:00054def       __set_new_mode             10055def f   libucrt:new_mode.obj
 0001:00054f28       _wcsncpy_s                 10055f28 f   libucrt:wcsncpy_s.obj
 0001:00055143       __mbstowcs_l               10056143 f   libucrt:mbstowcs.obj
 0001:00055150       __mbstowcs_s_l             10056150 f   libucrt:mbstowcs.obj
 0001:0005526a       _mbstowcs                  1005626a f   libucrt:mbstowcs.obj
 0001:0005529e       _mbstowcs_s                1005629e f   libucrt:mbstowcs.obj
 0001:000552c6       ___acrt_OutputDebugStringA@4 100562c6 f   libucrt:outputdebugstringa.obj
 0001:00055503       __commit                   10056503 f   libucrt:commit.obj
 0001:0005574d       ___acrt_DownlevelLCIDToLocaleName 1005674d f   libucrt:lcidtoname_downlevel.obj
 0001:00055821       ___acrt_DownlevelLocaleNameToLCID 10056821 f   libucrt:lcidtoname_downlevel.obj
 0001:00055858       ??$?RU__crt_lowio_handle_data@@@__crt_internal_free_policy@@QBEXQBU__crt_lowio_handle_data@@@Z 10056858 f i libucrt:osfinfo.obj
 0001:0005586e       ??0?$__crt_unique_heap_ptr@U__crt_lowio_handle_data@@U__crt_internal_free_policy@@@@QAE@QAU__crt_lowio_handle_data@@@Z 1005686e f i libucrt:osfinfo.obj
 0001:00055882       ??1?$__crt_unique_heap_ptr@U__crt_lowio_handle_data@@U__crt_internal_free_policy@@@@QAE@XZ 10056882 f i libucrt:osfinfo.obj
 0001:00055898       ??B?$__crt_unique_heap_ptr@U__crt_lowio_handle_data@@U__crt_internal_free_policy@@@@QBE_NXZ 10056898 f i libucrt:osfinfo.obj
 0001:0005589f       ?detach@?$__crt_unique_heap_ptr@U__crt_lowio_handle_data@@U__crt_internal_free_policy@@@@QAEPAU__crt_lowio_handle_data@@XZ 1005689f f i libucrt:osfinfo.obj
 0001:000558a5       ?get@?$__crt_unique_heap_ptr@U__crt_lowio_handle_data@@U__crt_internal_free_policy@@@@QBEPAU__crt_lowio_handle_data@@XZ 100568a5 f i libucrt:osfinfo.obj
 0001:000558a8       ?is_valid@?$__crt_unique_heap_ptr@U__crt_lowio_handle_data@@U__crt_internal_free_policy@@@@QBE_NXZ 100568a8 f i libucrt:osfinfo.obj
 0001:000558af       ?release@?$__crt_unique_heap_ptr@U__crt_lowio_handle_data@@U__crt_internal_free_policy@@@@QAEXXZ 100568af f i libucrt:osfinfo.obj
 0001:000558c5       ___acrt_lowio_create_handle_array 100568c5 f   libucrt:osfinfo.obj
 0001:0005595d       ___acrt_lowio_destroy_handle_array 1005695d f   libucrt:osfinfo.obj
 0001:0005599f       ___acrt_lowio_ensure_fh_exists 1005699f f   libucrt:osfinfo.obj
 0001:00055a58       ___acrt_lowio_lock_fh      10056a58 f   libucrt:osfinfo.obj
 0001:00055a83       ___acrt_lowio_set_os_handle 10056a83 f   libucrt:osfinfo.obj
 0001:00055b3c       ___acrt_lowio_unlock_fh    10056b3c f   libucrt:osfinfo.obj
 0001:00055b67       __alloc_osfhnd             10056b67 f   libucrt:osfinfo.obj
 0001:00055cb2       __free_osfhnd              10056cb2 f   libucrt:osfinfo.obj
 0001:00055d67       __get_osfhandle            10056d67 f   libucrt:osfinfo.obj
 0001:00055deb       __open_osfhandle           10056deb f   libucrt:osfinfo.obj
 0001:00055f3a       __wcsnicmp                 10056f3a f   libucrt:wcsnicmp.obj
 0001:00056017       __wcsnicmp_l               10057017 f   libucrt:wcsnicmp.obj
 0001:00056153       __strnicmp                 10057153 f   libucrt:strnicmp.obj
 0001:000561db       __strnicmp_l               100571db f   libucrt:strnicmp.obj
 0001:00056364       ??$__vcrt_va_start_verify_argument_type@$$CBH@@YAXXZ 10057364 f i libucrt:open.obj
 0001:000566d5       ??$tsopen_nolock@PAHABQAHABQBDABHABHABHABH@?$__crt_char_traits@D@@SAH$$QAPAHABQAHABQBDABH333@Z 100576d5 f i libucrt:open.obj
 0001:00056713       ??$tsopen_nolock@PAHABQAHABQB_WABHABHABHABH@?$__crt_char_traits@_W@@SAH$$QAPAHABQAHABQB_WABH333@Z 10057713 f i libucrt:open.obj
 0001:00056751       ??$tsopen_nolock@PAHPAHABQBDABHHABHH@?$__crt_char_traits@D@@SAH$$QAPAH0ABQBDABH$$QAH23@Z 10057751 f i libucrt:open.obj
 0001:0005678f       ??$tsopen_nolock@PAHPAHABQB_WABHHABHH@?$__crt_char_traits@_W@@SAH$$QAPAH0ABQB_WABH$$QAH23@Z 1005778f f i libucrt:open.obj
 0001:00056f81       __open                     10057f81 f   libucrt:open.obj
 0001:00056f9f       __sopen                    10057f9f f   libucrt:open.obj
 0001:00056fe1       __sopen_dispatch           10057fe1 f   libucrt:open.obj
 0001:00056fee       __sopen_nolock             10057fee f   libucrt:open.obj
 0001:0005707a       __sopen_s                  1005807a f   libucrt:open.obj
 0001:000570a2       __wopen                    100580a2 f   libucrt:open.obj
 0001:000570c0       __wsopen                   100580c0 f   libucrt:open.obj
 0001:00057102       __wsopen_dispatch          10058102 f   libucrt:open.obj
 0001:0005710f       __wsopen_nolock            1005810f f   libucrt:open.obj
 0001:00057506       __wsopen_s                 10058506 f   libucrt:open.obj
 0001:0005752e       ___p__commode              1005852e f   libucrt:ncommode.obj
 0001:00057534       __isatty                   10058534 f   libucrt:isatty.obj
 0001:0005759f       ___acrt_stdio_allocate_buffer_nolock 1005859f f   libucrt:_getbuf.obj
 0001:0005771b       __putwch                   1005871b f   libucrt:putwch.obj
 0001:00057755       __putwch_nolock            10058755 f   libucrt:putwch.obj
 0001:00057796       ___acrt_add_locale_ref     10058796 f   libucrt:locale_refcounting.obj
 0001:00057832       ___acrt_free_locale        10058832 f   libucrt:locale_refcounting.obj
 0001:000579ce       ___acrt_locale_add_lc_time_reference 100589ce f   libucrt:locale_refcounting.obj
 0001:00057a01       ___acrt_locale_free_lc_time_if_unreferenced 10058a01 f   libucrt:locale_refcounting.obj
 0001:00057a3d       ___acrt_locale_release_lc_time_reference 10058a3d f   libucrt:locale_refcounting.obj
 0001:00057a70       ___acrt_release_locale_ref 10058a70 f   libucrt:locale_refcounting.obj
 0001:00057b11       ___acrt_update_thread_locale_data 10058b11 f   libucrt:locale_refcounting.obj
 0001:00057ba5       __updatetlocinfoEx_nolock  10058ba5 f   libucrt:locale_refcounting.obj
 0001:00057c09       ??$?RG@__crt_internal_free_policy@@QBEXQBG@Z 10058c09 f i libucrt:initctype.obj
 0001:00057c1f       ??$?RJ@__crt_internal_free_policy@@QBEXQBJ@Z 10058c1f f i libucrt:initctype.obj
 0001:00057c35       ??0?$__crt_unique_heap_ptr@GU__crt_internal_free_policy@@@@QAE@QAG@Z 10058c35 f i libucrt:initctype.obj
 0001:00057c49       ??0?$__crt_unique_heap_ptr@JU__crt_internal_free_policy@@@@QAE@QAJ@Z 10058c49 f i libucrt:initctype.obj
 0001:00057c5d       ??1?$__crt_unique_heap_ptr@GU__crt_internal_free_policy@@@@QAE@XZ 10058c5d f i libucrt:initctype.obj
 0001:00057c73       ??1?$__crt_unique_heap_ptr@JU__crt_internal_free_policy@@@@QAE@XZ 10058c73 f i libucrt:initctype.obj
 0001:00057c89       ?detach@?$__crt_unique_heap_ptr@GU__crt_internal_free_policy@@@@QAEPAGXZ 10058c89 f i libucrt:initctype.obj
 0001:00057c8f       ?detach@?$__crt_unique_heap_ptr@JU__crt_internal_free_policy@@@@QAEPAJXZ 10058c8f f i libucrt:initctype.obj
 0001:00057c95       ?release@?$__crt_unique_heap_ptr@GU__crt_internal_free_policy@@@@QAEXXZ 10058c95 f i libucrt:initctype.obj
 0001:00057cab       ?release@?$__crt_unique_heap_ptr@JU__crt_internal_free_policy@@@@QAEXXZ 10058cab f i libucrt:initctype.obj
 0001:00057cc1       ____lc_codepage_func       10058cc1 f   libucrt:initctype.obj
 0001:00057cf1       ____lc_collate_cp_func     10058cf1 f   libucrt:initctype.obj
 0001:00057d21       ____lc_locale_name_func    10058d21 f   libucrt:initctype.obj
 0001:00057d54       ____mb_cur_max_func        10058d54 f   libucrt:initctype.obj
 0001:00057d84       ____mb_cur_max_l_func      10058d84 f   libucrt:initctype.obj
 0001:00057da3       ___acrt_locale_initialize_ctype 10058da3 f   libucrt:initctype.obj
 0001:000582e4       ??$?RUlconv@@@__crt_internal_free_policy@@QBEXQBUlconv@@@Z 100592e4 f i libucrt:initmon.obj
 0001:000582fa       ??0?$__crt_unique_heap_ptr@Ulconv@@U__crt_internal_free_policy@@@@QAE@QAUlconv@@@Z 100592fa f i libucrt:initmon.obj
 0001:0005830e       ??1?$__crt_unique_heap_ptr@Ulconv@@U__crt_internal_free_policy@@@@QAE@XZ 1005930e f i libucrt:initmon.obj
 0001:00058324       ?detach@?$__crt_unique_heap_ptr@Ulconv@@U__crt_internal_free_policy@@@@QAEPAUlconv@@XZ 10059324 f i libucrt:initmon.obj
 0001:0005832a       ?release@?$__crt_unique_heap_ptr@Ulconv@@U__crt_internal_free_policy@@@@QAEXXZ 1005932a f i libucrt:initmon.obj
 0001:00058340       ___acrt_locale_free_monetary 10059340 f   libucrt:initmon.obj
 0001:0005847d       ___acrt_locale_initialize_monetary 1005947d f   libucrt:initmon.obj
 0001:0005896a       ___acrt_locale_free_numeric 1005996a f   libucrt:initnum.obj
 0001:000589ed       ___acrt_locale_initialize_numeric 100599ed f   libucrt:initnum.obj
 0001:00058cc8       ??$?RU__crt_lc_time_data@@@__crt_internal_free_policy@@QBEXQBU__crt_lc_time_data@@@Z 10059cc8 f i libucrt:inittime.obj
 0001:00058d68       ??0?$__crt_unique_heap_ptr@U__crt_lc_time_data@@U__crt_internal_free_policy@@@@QAE@QAU__crt_lc_time_data@@@Z 10059d68 f i libucrt:inittime.obj
 0001:00058d7c       ??1?$__crt_unique_heap_ptr@U__crt_lc_time_data@@U__crt_internal_free_policy@@@@QAE@XZ 10059d7c f i libucrt:inittime.obj
 0001:00058d92       ??B?$__crt_unique_heap_ptr@U__crt_lc_time_data@@U__crt_internal_free_policy@@@@QBE_NXZ 10059d92 f i libucrt:inittime.obj
 0001:00058d99       ?detach@?$__crt_unique_heap_ptr@U__crt_lc_time_data@@U__crt_internal_free_policy@@@@QAEPAU__crt_lc_time_data@@XZ 10059d99 f i libucrt:inittime.obj
 0001:00058de5       ?get@?$__crt_unique_heap_ptr@U__crt_lc_time_data@@U__crt_internal_free_policy@@@@QBEPAU__crt_lc_time_data@@XZ 10059de5 f i libucrt:inittime.obj
 0001:0005917e       ?is_valid@?$__crt_unique_heap_ptr@U__crt_lc_time_data@@U__crt_internal_free_policy@@@@QBE_NXZ 1005a17e f i libucrt:inittime.obj
 0001:00059185       ?release@?$__crt_unique_heap_ptr@U__crt_lc_time_data@@U__crt_internal_free_policy@@@@QAEXXZ 1005a185 f i libucrt:inittime.obj
 0001:0005919b       ___acrt_locale_free_time   1005a19b f   libucrt:inittime.obj
 0001:000592b8       ___acrt_locale_initialize_time 1005a2b8 f   libucrt:inittime.obj
 0001:00059351       _wcscspn                   1005a351 f   libucrt:wcscspn.obj
 0001:000593c2       _wcspbrk                   1005a3c2 f   libucrt:wcspbrk.obj
 0001:00059423       __wcsicmp                  1005a423 f   libucrt:wcsicmp.obj
 0001:000594d4       __wcsicmp_l                1005a4d4 f   libucrt:wcsicmp.obj
 0001:000595e8       ??0?$__crt_scoped_stack_ptr@_W@@QAE@U?$__crt_scoped_stack_ptr_tag@_W@@@Z 1005a5e8 f i libucrt:getstringtypea.obj
 0001:000595fc       ??0?$__crt_scoped_stack_ptr_tag@_W@@QAE@QA_W@Z 1005a5fc f i libucrt:getstringtypea.obj
 0001:00059610       ??1?$__crt_scoped_stack_ptr@_W@@QAE@XZ 1005a610 f i libucrt:getstringtypea.obj
 0001:0005961b       ?get@?$__crt_scoped_stack_ptr@_W@@QBEPA_WXZ 1005a61b f i libucrt:getstringtypea.obj
 0001:0005961e       __MallocaComputeSize       1005a61e f i libucrt:getstringtypea.obj
 0001:00059635       __MarkAllocaS              1005a635 f i libucrt:getstringtypea.obj
 0001:00059650       ___acrt_GetStringTypeA     1005a650 f   libucrt:getstringtypea.obj
 0001:00059796       __freea_crt                1005a796 f i libucrt:getstringtypea.obj
 0001:0005a0ed       ___acrt_get_qualified_locale 1005b0ed f   libucrt:get_qualified_locale.obj
 0001:0005acdb       ___acrt_get_qualified_locale_downlevel 1005bcdb f   libucrt:getqloc_downlevel.obj
 0001:0005af4f       _localeconv                1005bf4f f   libucrt:localeconv.obj
 0001:0005af83       ___iswcsym                 1005bf83 f i libucrt:_wctype.obj
 0001:0005afb2       ___iswcsymf                1005bfb2 f i libucrt:_wctype.obj
 0001:0005afe1       __isleadbyte_l             1005bfe1 f i libucrt:_wctype.obj
 0001:0005b028       __iswalnum_l               1005c028 f i libucrt:_wctype.obj
 0001:0005b043       __iswalpha_l               1005c043 f i libucrt:_wctype.obj
 0001:0005b05e       __iswblank_l               1005c05e f i libucrt:_wctype.obj
 0001:0005b082       __iswcntrl_l               1005c082 f i libucrt:_wctype.obj
 0001:0005b099       __iswcsym_l                1005c099 f i libucrt:_wctype.obj
 0001:0005b0c8       __iswcsymf_l               1005c0c8 f i libucrt:_wctype.obj
 0001:0005b0f7       __iswdigit_l               1005c0f7 f i libucrt:_wctype.obj
 0001:0005b10e       __iswgraph_l               1005c10e f i libucrt:_wctype.obj
 0001:0005b129       __iswlower_l               1005c129 f i libucrt:_wctype.obj
 0001:0005b140       __iswprint_l               1005c140 f i libucrt:_wctype.obj
 0001:0005b15b       __iswpunct_l               1005c15b f i libucrt:_wctype.obj
 0001:0005b172       __iswspace_l               1005c172 f i libucrt:_wctype.obj
 0001:0005b189       __iswupper_l               1005c189 f i libucrt:_wctype.obj
 0001:0005b1a0       __iswxdigit_l              1005c1a0 f i libucrt:_wctype.obj
 0001:0005b1bb       _isleadbyte                1005c1bb f i libucrt:_wctype.obj
 0001:0005b1d2       _iswalnum                  1005c1d2 f i libucrt:_wctype.obj
 0001:0005b1ed       _iswalpha                  1005c1ed f i libucrt:_wctype.obj
 0001:0005b208       _iswascii                  1005c208 f i libucrt:_wctype.obj
 0001:0005b221       _iswblank                  1005c221 f i libucrt:_wctype.obj
 0001:0005b245       _iswcntrl                  1005c245 f i libucrt:_wctype.obj
 0001:0005b25c       _iswdigit                  1005c25c f i libucrt:_wctype.obj
 0001:0005b273       _iswgraph                  1005c273 f i libucrt:_wctype.obj
 0001:0005b28e       _iswlower                  1005c28e f i libucrt:_wctype.obj
 0001:0005b2a5       _iswprint                  1005c2a5 f i libucrt:_wctype.obj
 0001:0005b2c0       _iswpunct                  1005c2c0 f i libucrt:_wctype.obj
 0001:0005b2d7       _iswspace                  1005c2d7 f i libucrt:_wctype.obj
 0001:0005b2ee       _iswupper                  1005c2ee f i libucrt:_wctype.obj
 0001:0005b305       _iswxdigit                 1005c305 f i libucrt:_wctype.obj
 0001:0005b320       ??B?$__crt_scoped_stack_ptr@_W@@QBE_NXZ 1005c320 f i libucrt:lcmapstringa.obj
 0001:0005b58e       ___acrt_LCMapStringA       1005c58e f   libucrt:lcmapstringa.obj
 0001:0005b622       ?__mbrtowc_utf8@__crt_mbstring@@YAIPA_WPBDIPAU_Mbstatet@@@Z 1005c622 f   libucrt:mbrtowc.obj
 0001:0005b674       ?__mbsrtowcs_utf8@__crt_mbstring@@YAIPA_WPAPBDIPAU_Mbstatet@@@Z 1005c674 f   libucrt:mbrtowc.obj
 0001:0005bb91       _btowc                     1005cb91 f   libucrt:mbrtowc.obj
 0001:0005bc01       _mbrlen                    1005cc01 f   libucrt:mbrtowc.obj
 0001:0005bc42       _mbrtowc                   1005cc42 f   libucrt:mbrtowc.obj
 0001:0005bca9       _mbsrtowcs                 1005cca9 f   libucrt:mbrtowc.obj
 0001:0005bcb6       _mbsrtowcs_s               1005ccb6 f   libucrt:mbrtowc.obj
 0001:0005bd81       ___acrt_fp_strflt_to_string 1005cd81 f   libucrt:_fptostr.obj
 0001:0005d6a0       ??0big_integer@__crt_strtox@@QAE@ABU01@@Z 1005e6a0 f i libucrt:cfout.obj
 0001:0005d6e0       ??0big_integer@__crt_strtox@@QAE@XZ 1005e6e0 f i libucrt:cfout.obj
 0001:0005d740       ??4big_integer@__crt_strtox@@QAEAAU01@ABU01@@Z 1005e740 f i libucrt:cfout.obj
 0001:0005d780       ??8__crt_strtox@@YA_NABUbig_integer@0@0@Z 1005e780 f i libucrt:cfout.obj
 0001:0005d7d0       ??9__crt_strtox@@YA_NABUbig_integer@0@0@Z 1005e7d0 f i libucrt:cfout.obj
 0001:0005d820       ?add_carry@__crt_strtox@@YAIAAIII@Z 1005e820 f i libucrt:cfout.obj
 0001:0005d850       ?add_multiply_carry@__crt_strtox@@YAIAAIIII@Z 1005e850 f i libucrt:cfout.obj
 0001:0005d880       ?bit_scan_reverse@__crt_strtox@@YAII@Z 1005e880 f i libucrt:cfout.obj
 0001:0005d8b0       ?count_sequential_high_zeroes@__crt_strtox@@YAII@Z 1005e8b0 f i libucrt:cfout.obj
 0001:0005d8e0       ?divide@__crt_strtox@@YA_KAAUbig_integer@1@ABU21@@Z 1005e8e0 f i libucrt:cfout.obj
 0001:0005de90       ?is_zero@__crt_strtox@@YA_NABUbig_integer@1@@Z 1005ee90 f i libucrt:cfout.obj
 0001:0005deb0       ?make_big_integer@__crt_strtox@@YA?AUbig_integer@1@_K@Z 1005eeb0 f i libucrt:cfout.obj
 0001:0005dee0       ?make_big_integer_power_of_two@__crt_strtox@@YA?AUbig_integer@1@I@Z 1005eee0 f i libucrt:cfout.obj
 0001:0005df40       ?multiply@__crt_strtox@@YA_NAAUbig_integer@1@ABU21@@Z 1005ef40 f i libucrt:cfout.obj
 0001:0005e350       ?multiply@__crt_strtox@@YA_NAAUbig_integer@1@I@Z 1005f350 f i libucrt:cfout.obj
 0001:0005e450       ?multiply_64_32@__crt_strtox@@YA_K_KI@Z 1005f450 f i libucrt:cfout.obj
 0001:0005e470       ?multiply_by_power_of_ten@__crt_strtox@@YA_NAAUbig_integer@1@I@Z 1005f470 f i libucrt:cfout.obj
 0001:0005eae0       ?multiply_core@__crt_strtox@@YAIQAIII@Z 1005fae0 f i libucrt:cfout.obj
 0001:0005eb30       ?shift_left@__crt_strtox@@YA_NAAUbig_integer@1@I@Z 1005fb30 f i libucrt:cfout.obj
 0001:0005ecdb       ___acrt_fltout             1005fcdb f   libucrt:cfout.obj
 0001:000605c6       _nextafter                 100615c6 f   libucrt:nextafter.obj
 0001:00060700       _qsort                     10061700 f   libucrt:qsort.obj
 0001:00060d31       _strncpy_s                 10061d31 f   libucrt:strncpy_s.obj
 0001:00060d40       _strpbrk                   10061d40 f   libucrt:strpbrk.obj
 0001:00060d90       ??$__acrt_convert_wcs_mbs@D_W$$A6AIPA_WPBDIPAU__crt_locale_pointers@@@ZU__crt_win32_buffer_internal_dynamic_resizing@@@@YAHQBDAAV?$__crt_win32_buffer@_WU__crt_win32_buffer_internal_dynamic_resizing@@@@A6AIPA_WPBDIPAU__crt_locale_pointers@@@Z4@Z 10061d90 f i libucrt:findfirstfileexa.obj
 0001:00060e59       ??$__acrt_mbs_to_wcs@U__crt_win32_buffer_internal_dynamic_resizing@@@@YAHQBDAAV?$__crt_win32_buffer@_WU__crt_win32_buffer_internal_dynamic_resizing@@@@PAU__crt_locale_pointers@@@Z 10061e59 f i libucrt:findfirstfileexa.obj
 0001:00060e7d       ?set_to_nullptr@?$__crt_win32_buffer@_WU__crt_win32_buffer_internal_dynamic_resizing@@@@QAEXXZ 10061e7d f i libucrt:findfirstfileexa.obj
 0001:00060e99       ___acrt_FindFirstFileExA   10061e99 f   libucrt:findfirstfileexa.obj
 0001:00060f18       ??$?0$0BAE@@?$__crt_win32_buffer@DU__crt_win32_buffer_no_resizing@@@@QAE@AAY0BAE@D@Z 10061f18 f i libucrt:findnextfilea.obj
 0001:00060f47       ??$?0$0O@@?$__crt_win32_buffer@DU__crt_win32_buffer_no_resizing@@@@QAE@AAY0O@D@Z 10061f47 f i libucrt:findnextfilea.obj
 0001:00060f74       ??$__acrt_convert_wcs_mbs@_WD$$A6AIPADPB_WIPAU__crt_locale_pointers@@@ZU__crt_win32_buffer_no_resizing@@@@YAHQB_WAAV?$__crt_win32_buffer@DU__crt_win32_buffer_no_resizing@@@@A6AIPADPB_WIPAU__crt_locale_pointers@@@Z4@Z 10061f74 f i libucrt:findnextfilea.obj
 0001:0006103e       ??$__acrt_wcs_to_mbs@U__crt_win32_buffer_no_resizing@@@@YAHQB_WAAV?$__crt_win32_buffer@DU__crt_win32_buffer_no_resizing@@@@PAU__crt_locale_pointers@@@Z 1006203e f i libucrt:findnextfilea.obj
 0001:00061062       ??1?$__crt_win32_buffer@DU__crt_win32_buffer_no_resizing@@@@QAE@XZ 10062062 f i libucrt:findnextfilea.obj
 0001:0006106f       ?_deallocate@?$__crt_win32_buffer@DU__crt_win32_buffer_no_resizing@@@@AAEXXZ 1006206f f i libucrt:findnextfilea.obj
 0001:0006107c       ?allocate@?$__crt_win32_buffer@DU__crt_win32_buffer_no_resizing@@@@QAEHI@Z 1006207c f i libucrt:findnextfilea.obj
 0001:000610ac       ?allocate@__crt_win32_buffer_no_resizing@@SAHQAPAXIABV__crt_win32_buffer_empty_debug_info@@@Z 100620ac f i libucrt:findnextfilea.obj
 0001:000610bc       ?capacity@?$__crt_win32_buffer@DU__crt_win32_buffer_no_resizing@@@@QBEIXZ 100620bc f i libucrt:findnextfilea.obj
 0001:000610c0       ?data@?$__crt_win32_buffer@DU__crt_win32_buffer_no_resizing@@@@QAEPADXZ 100620c0 f i libucrt:findnextfilea.obj
 0001:000610c4       ?deallocate@__crt_win32_buffer_no_resizing@@SAXQAXABV__crt_win32_buffer_empty_debug_info@@@Z 100620c4 f i libucrt:findnextfilea.obj
 0001:000610c5       ?debug_info@?$__crt_win32_buffer@DU__crt_win32_buffer_no_resizing@@@@QBEABV__crt_win32_buffer_empty_debug_info@@XZ 100620c5 f i libucrt:findnextfilea.obj
 0001:000610c8       ?set_to_nullptr@?$__crt_win32_buffer@DU__crt_win32_buffer_no_resizing@@@@QAEXXZ 100620c8 f i libucrt:findnextfilea.obj
 0001:000610e1       ?size@?$__crt_win32_buffer@DU__crt_win32_buffer_no_resizing@@@@QAEXI@Z 100620e1 f i libucrt:findnextfilea.obj
 0001:000610f3       ___acrt_FindNextFileA      100620f3 f   libucrt:findnextfilea.obj
 0001:00061284       __mbsdec                   10062284 f   libucrt:mbsdec.obj
 0001:000612a0       __mbsdec_l                 100622a0 f   libucrt:mbsdec.obj
 0001:00061364       __wcsnicoll                10062364 f   libucrt:wcsnicol.obj
 0001:0006145c       __wcsnicoll_l              1006245c f   libucrt:wcsnicol.obj
 0001:000615c1       __strnicoll                100625c1 f   libucrt:strnicol.obj
 0001:000615f4       __strnicoll_l              100625f4 f   libucrt:strnicol.obj
 0001:000616f0       ___acrt_SetEnvironmentVariableA 100626f0 f   libucrt:setenvironmentvariablea.obj
 0001:000617bf       __msize                    100627bf f   libucrt:msize.obj
 0001:000617cc       __msize_base               100627cc f   libucrt:msize.obj
 0001:0006180b       ___acrt_GetStringTypeW     1006280b f   libucrt:getstringtypew.obj
 0001:0006182a       __towlower_l               1006282a f   libucrt:towlower.obj
 0001:00061925       _towlower                  10062925 f   libucrt:towlower.obj
 0001:00061940       ___ascii_strnicmp          10062940 f   libucrt:_strnicm.obj
 0001:000619b9       ??$__crt_interlocked_read@H@@YAHPDH@Z 100629b9 f i libucrt:setmode.obj
 0001:000619c8       ?value@?$dual_state_global@H@__crt_state_management@@QAEAAHXZ 100629c8 f i libucrt:setmode.obj
 0001:000619cb       __get_fmode                100629cb f   libucrt:setmode.obj
 0001:00061a02       __set_fmode                10062a02 f   libucrt:setmode.obj
 0001:00061a4e       __setmode                  10062a4e f   libucrt:setmode.obj
 0001:00061b96       __setmode_nolock           10062b96 f   libucrt:setmode.obj
 0001:00061e27       __chsize                   10062e27 f   libucrt:chsize.obj
 0001:00061e4a       __chsize_nolock            10062e4a f   libucrt:chsize.obj
 0001:0006203f       __chsize_s                 1006303f f   libucrt:chsize.obj
 0001:00062117       __umask                    10063117 f   libucrt:umask.obj
 0001:00062145       __umask_s                  10063145 f   libucrt:umask.obj
 0001:00062268       ___dcrt_lowio_ensure_console_output_initialized 10063268 f   libucrt:initcon.obj
 0001:0006228e       ___dcrt_terminate_console_output 1006328e f   libucrt:initcon.obj
 0001:000622aa       ___dcrt_write_console      100632aa f   libucrt:initcon.obj
 0001:0006242d       ___acrt_GetLocaleInfoA     1006342d f   libucrt:getlocaleinfoa.obj
 0001:0006264b       ___strncnt                 1006364b f   libucrt:strncnt.obj
 0001:0006266e       ?__mbrtoc32_utf8@__crt_mbstring@@YAIPA_UPBDIPAU_Mbstatet@@@Z 1006366e f   libucrt:mbrtoc32.obj
 0001:0006288f       ?reset_and_return@__crt_mbstring@@YAIIPAU_Mbstatet@@@Z 1006388f f i libucrt:mbrtoc32.obj
 0001:000628a8       ?return_illegal_sequence@__crt_mbstring@@YAIPAU_Mbstatet@@@Z 100638a8 f i libucrt:mbrtoc32.obj
 0001:000628ce       _mbrtoc32                  100638ce f   libucrt:mbrtoc32.obj
 0001:000628db       _fegetenv                  100638db f   libucrt:fegetenv.obj
 0001:000628ff       _fesetenv                  100638ff f   libucrt:fesetenv.obj
 0001:0006295f       _feholdexcept              1006395f f   libucrt:feholdexcept.obj
 0001:000629d0       __CIlog10                  100639d0 f   libucrt:log10_impl.obj
 0001:00062a0b       __CIlog10_default          10063a0b f   libucrt:log10_impl.obj
 0001:00062a1f       __log10_default            10063a1f     libucrt:log10_impl.obj
 0001:00062b30       _ceil                      10063b30 f   libucrt:ceil_pentium4.obj
 0001:00062b70       __ceil_pentium4            10063b70 f   libucrt:ceil_pentium4.obj
 0001:00062c94       _nexttoward                10063c94 f   libucrt:nexttoward.obj
 0001:000631dc       __wcstombs_l               100641dc f   libucrt:wcstombs.obj
 0001:000631e9       __wcstombs_s_l             100641e9 f   libucrt:wcstombs.obj
 0001:000632e9       _wcstombs                  100642e9 f   libucrt:wcstombs.obj
 0001:00063309       _wcstombs_s                10064309 f   libucrt:wcstombs.obj
 0001:00063331       ___acrt_CompareStringW     10064331 f   libucrt:comparestringw.obj
 0001:000636c8       ___acrt_CompareStringA     100646c8 f   libucrt:comparestringa.obj
 0001:00063722       ___acrt_LCMapStringW       10064722 f   libucrt:lcmapstringw.obj
 0001:0006376f       ___p__fmode                1006476f f   libucrt:txtmode.obj
 0001:00063775       ??$__acrt_fenv_shift_bits@W4__acrt_fenv_abstract_control@@@@YA?AW4__acrt_fenv_abstract_control@@W40@0I@Z 10064775 f i libucrt:_fenvutils.obj
 0001:0006378b       ??$__acrt_fenv_shift_bits@W4__acrt_fenv_abstract_status@@@@YA?AW4__acrt_fenv_abstract_status@@W40@0I@Z 1006478b f i libucrt:_fenvutils.obj
 0001:000637a1       ??$__acrt_fenv_translate_bit@W4__acrt_fenv_abstract_control@@W4__acrt_fenv_machine_sse_control@@@@YA?AW4__acrt_fenv_abstract_control@@W4__acrt_fenv_machine_sse_control@@0W40@1@Z 100647a1 f i libucrt:_fenvutils.obj
 0001:000637bf       ??$__acrt_fenv_translate_bit@W4__acrt_fenv_abstract_control@@W4__acrt_fenv_machine_x87_control@@@@YA?AW4__acrt_fenv_abstract_control@@W4__acrt_fenv_machine_x87_control@@0W40@1@Z 100647bf f i libucrt:_fenvutils.obj
 0001:000637dd       ??$__acrt_fenv_translate_bit@W4__acrt_fenv_abstract_status@@W4__acrt_fenv_machine_sse_status@@@@YA?AW4__acrt_fenv_abstract_status@@W4__acrt_fenv_machine_sse_status@@0W40@1@Z 100647dd f i libucrt:_fenvutils.obj
 0001:000637f7       ??$__acrt_fenv_translate_bit@W4__acrt_fenv_abstract_status@@W4__acrt_fenv_machine_x87_status@@@@YA?AW4__acrt_fenv_abstract_status@@W4__acrt_fenv_machine_x87_status@@0W40@1@Z 100647f7 f i libucrt:_fenvutils.obj
 0001:00063811       ??$__acrt_fenv_translate_bit@W4__acrt_fenv_machine_sse_control@@W4__acrt_fenv_abstract_control@@@@YA?AW4__acrt_fenv_machine_sse_control@@W4__acrt_fenv_abstract_control@@0W40@1@Z 10064811 f i libucrt:_fenvutils.obj
 0001:0006382d       ??$__acrt_fenv_translate_bit@W4__acrt_fenv_machine_sse_status@@W4__acrt_fenv_abstract_status@@@@YA?AW4__acrt_fenv_machine_sse_status@@W4__acrt_fenv_abstract_status@@0W40@1@Z 1006482d f i libucrt:_fenvutils.obj
 0001:00063847       ??$__acrt_fenv_translate_bit@W4__acrt_fenv_machine_x87_control@@W4__acrt_fenv_abstract_control@@@@YA?AW4__acrt_fenv_machine_x87_control@@W4__acrt_fenv_abstract_control@@0W40@1@Z 10064847 f i libucrt:_fenvutils.obj
 0001:00063863       ??$__acrt_fenv_translate_bit@W4__acrt_fenv_machine_x87_status@@W4__acrt_fenv_abstract_status@@@@YA?AW4__acrt_fenv_machine_x87_status@@W4__acrt_fenv_abstract_status@@0W40@1@Z 10064863 f i libucrt:_fenvutils.obj
 0001:0006387d       ??$__acrt_fenv_unshift_bits@W4__acrt_fenv_abstract_control@@@@YA?AW4__acrt_fenv_abstract_control@@W40@0I@Z 1006487d f i libucrt:_fenvutils.obj
 0001:00063893       ??$__acrt_fenv_unshift_bits@W4__acrt_fenv_abstract_status@@@@YA?AW4__acrt_fenv_abstract_status@@W40@0I@Z 10064893 f i libucrt:_fenvutils.obj
 0001:00063ebe       ??I@YA?AW4__acrt_fenv_abstract_control@@W40@0@Z 10064ebe f i libucrt:_fenvutils.obj
 0001:00063ece       ??I@YA?AW4__acrt_fenv_abstract_status@@W40@0@Z 10064ece f i libucrt:_fenvutils.obj
 0001:00063ede       ??I@YA?AW4__acrt_fenv_machine_sse_control@@W40@0@Z 10064ede f i libucrt:_fenvutils.obj
 0001:00063eee       ??I@YA?AW4__acrt_fenv_machine_sse_status@@W40@0@Z 10064eee f i libucrt:_fenvutils.obj
 0001:00063efe       ??I@YA?AW4__acrt_fenv_machine_x87_control@@W40@0@Z 10064efe f i libucrt:_fenvutils.obj
 0001:00063f0e       ??I@YA?AW4__acrt_fenv_machine_x87_status@@W40@0@Z 10064f0e f i libucrt:_fenvutils.obj
 0001:00063f1e       ??U@YA?AW4__acrt_fenv_abstract_control@@W40@0@Z 10064f1e f i libucrt:_fenvutils.obj
 0001:00063f2e       ??U@YA?AW4__acrt_fenv_abstract_status@@W40@0@Z 10064f2e f i libucrt:_fenvutils.obj
 0001:00063f3e       ??U@YA?AW4__acrt_fenv_machine_sse_control@@W40@0@Z 10064f3e f i libucrt:_fenvutils.obj
 0001:00063f4e       ??U@YA?AW4__acrt_fenv_machine_x87_control@@W40@0@Z 10064f4e f i libucrt:_fenvutils.obj
 0001:00063f5e       ??_5@YAAAW4__acrt_fenv_abstract_control@@AAW40@W40@@Z 10064f5e f i libucrt:_fenvutils.obj
 0001:00063f70       ??_5@YAAAW4__acrt_fenv_abstract_status@@AAW40@W40@@Z 10064f70 f i libucrt:_fenvutils.obj
 0001:00063f82       ??_5@YAAAW4__acrt_fenv_machine_sse_control@@AAW40@W40@@Z 10064f82 f i libucrt:_fenvutils.obj
 0001:00063f97       ??_5@YAAAW4__acrt_fenv_machine_sse_status@@AAW40@W40@@Z 10064f97 f i libucrt:_fenvutils.obj
 0001:00063fa9       ??_5@YAAAW4__acrt_fenv_machine_x87_control@@AAW40@W40@@Z 10064fa9 f i libucrt:_fenvutils.obj
 0001:00063fbe       ??_5@YAAAW4__acrt_fenv_machine_x87_status@@AAW40@W40@@Z 10064fbe f i libucrt:_fenvutils.obj
 0001:00063fd0       ?__acrt_fenv_shift_abstract_sse_control@@YA?AW4__acrt_fenv_abstract_control@@W41@@Z 10064fd0 f i libucrt:_fenvutils.obj
 0001:00063ff4       ?__acrt_fenv_shift_abstract_sse_status@@YA?AW4__acrt_fenv_abstract_status@@W41@@Z 10064ff4 f i libucrt:_fenvutils.obj
 0001:00064008       ?__acrt_fenv_shift_abstract_x87_control@@YA?AW4__acrt_fenv_abstract_control@@W41@@Z 10065008 f i libucrt:_fenvutils.obj
 0001:0006402c       ?__acrt_fenv_shift_abstract_x87_status@@YA?AW4__acrt_fenv_abstract_status@@W41@@Z 1006502c f i libucrt:_fenvutils.obj
 0001:00064040       ?__acrt_fenv_unshift_abstract_sse_control@@YA?AW4__acrt_fenv_abstract_control@@W41@@Z 10065040 f i libucrt:_fenvutils.obj
 0001:00064066       ?__acrt_fenv_unshift_abstract_sse_status@@YA?AW4__acrt_fenv_abstract_status@@W41@@Z 10065066 f i libucrt:_fenvutils.obj
 0001:0006407a       ?__acrt_fenv_unshift_abstract_x87_control@@YA?AW4__acrt_fenv_abstract_control@@W41@@Z 1006507a f i libucrt:_fenvutils.obj
 0001:000640a0       ?__acrt_fenv_unshift_abstract_x87_status@@YA?AW4__acrt_fenv_abstract_status@@W41@@Z 100650a0 f i libucrt:_fenvutils.obj
 0001:00064757       ___acrt_fenv_expand_round_control 10065757 f   libucrt:_fenvutils.obj
 0001:0006479a       ___acrt_fenv_get_common_round_control 1006579a f   libucrt:_fenvutils.obj
 0001:000647c4       ___acrt_fenv_get_control   100657c4 f   libucrt:_fenvutils.obj
 0001:00064866       ___acrt_fenv_get_fp_status_word_from_exception_mask 10065866 f   libucrt:_fenvutils.obj
 0001:00064886       ___acrt_fenv_get_status    10065886 f   libucrt:_fenvutils.obj
 0001:00064978       ___acrt_fenv_set_control   10065978 f   libucrt:_fenvutils.obj
 0001:000649fc       ___acrt_fenv_set_status    100659fc f   libucrt:_fenvutils.obj
 0001:00064cc8       ___control87_2             10065cc8 f   libucrt:ieee87.obj
 0001:00065294       ___fpreset_sse2            10066294 f   libucrt:ieee87.obj
 0001:000654dd       __clearfp                  100664dd f   libucrt:ieee87.obj
 0001:000655f5       __control87                100665f5 f   libucrt:ieee87.obj
 0001:000659b3       __controlfp                100669b3 f   libucrt:ieee87.obj
 0001:000659d3       __fpreset                  100669d3 f   libucrt:ieee87.obj
 0001:00065ad6       __set_controlfp            10066ad6 f   libucrt:ieee87.obj
 0001:00065b6c       __statusfp                 10066b6c f   libucrt:ieee87.obj
 0001:00065c30       __statusfp2                10066c30 f   libucrt:ieee87.obj
 0001:00065cae       ___acrt_initialize_sse2    10066cae f   libucrt:mathfcns.obj
 0001:00065cc2       __set_SSE2_enable          10066cc2 f   libucrt:mathfcns.obj
 0001:00065cf0       __CIlog10_pentium4         10066cf0 f   libucrt:log10_pentium4.obj
 0001:00065d08       __log10_pentium4           10066d08     libucrt:log10_pentium4.obj
 0001:00066050       __fFEXP                    10067050 f   libucrt:87tran.obj
 0001:000660a7       __rtinfpopse               100670a7     libucrt:87tran.obj
 0001:000660a9       __rtinfnpopse              100670a9     libucrt:87tran.obj
 0001:000660b9       __fFLN                     100670b9     libucrt:87tran.obj
 0001:0006616e       __rtinfpop                 1006716e     libucrt:87tran.obj
 0001:00066170       __rtinfnpop                10067170     libucrt:87tran.obj
 0001:00066180       __rtforexpinf              10067180 f   libucrt:87tran.obj
 0001:0006618d       __ffexpm1                  1006718d     libucrt:87tran.obj
 0001:000662c0       __trandisp1                100672c0 f   libucrt:87disp.obj
 0001:00066335       __trandisp2                10067335 f   libucrt:87disp.obj
 0001:000663cf       __rttospopde               100673cf     libucrt:87disp.obj
 0001:000663d4       __rttospop                 100673d4     libucrt:87disp.obj
 0001:000663e0       __rtnospop                 100673e0 f   libucrt:87disp.obj
 0001:000663f0       __rttosnpop                100673f0 f   libucrt:87disp.obj
 0001:000663f1       __rtnospopde               100673f1     libucrt:87disp.obj
 0001:000663f8       __rtzeropop                100673f8     libucrt:87disp.obj
 0001:000663fa       __rtzeronpop               100673fa     libucrt:87disp.obj
 0001:00066400       __rtzerospop               10067400 f   libucrt:87disp.obj
 0001:0006640d       __rtonepop                 1006740d     libucrt:87disp.obj
 0001:00066410       __rtonenpop                10067410 f   libucrt:87disp.obj
 0001:00066420       __tosnan1                  10067420 f   libucrt:87disp.obj
 0001:00066450       __nosnan2                  10067450 f   libucrt:87disp.obj
 0001:00066460       __tosnan2                  10067460 f   libucrt:87disp.obj
 0001:00066490       __nan2                     10067490 f   libucrt:87disp.obj
 0001:000664d0       __rtindfpop                100674d0 f   libucrt:87disp.obj
 0001:000664d2       __rtindfnpop               100674d2     libucrt:87disp.obj
 0001:000664e3       __rttosnpopde              100674e3     libucrt:87disp.obj
 0001:000664f0       __rtatan2inf               100674f0 f   libucrt:87disp.obj
 0001:0006650d       __rtchsifneg               1006750d     libucrt:87disp.obj
 0001:000665a9       ___setfflag                100675a9 f   libucrt:fp_flags.obj
 0001:000665d0       __twoToTOS                 100675d0 f   libucrt:common.obj
 0001:000665e5       __load_CW                  100675e5 f   libucrt:common.obj
 0001:000665fc       __convertTOStoQNaN         100675fc f   libucrt:common.obj
 0001:00066615       __fload_withFB             10067615 f   libucrt:common.obj
 0001:00066658       __checkTOS_withFB          10067658 f   libucrt:common.obj
 0001:0006666e       __fast_exit                1006766e f   libucrt:common.obj
 0001:0006667b       __math_exit                1006767b f   libucrt:common.obj
 0001:000666a5       __check_overflow_exit      100676a5 f   libucrt:common.obj
 0001:000666b9       __check_range_exit         100676b9 f   libucrt:common.obj
 0001:000667c0       __startTwoArgErrorHandling 100677c0 f   libucrt:genexcep.obj
 0001:000667d7       __startOneArgErrorHandling 100677d7 f   libucrt:genexcep.obj
 0001:00066827       ___libm_error_support      10067827 f   libucrt:libm_error.obj
 0001:00066ac5       ___libm_setusermatherr     10067ac5 f   libucrt:libm_error.obj
 0001:00066af5       __ceil_default             10067af5 f   libucrt:ceil.obj
 0001:00066c72       __d_int                    10067c72 f   libucrt:_test.obj
 0001:00066dbc       __dtest                    10067dbc f   libucrt:_test.obj
 0001:00066e39       __fd_int                   10067e39 f   libucrt:_test.obj
 0001:00066f3b       __fdtest                   10067f3b f   libucrt:_test.obj
 0001:00066f9c       __fperrraise               10067f9c f   libucrt:_test.obj
 0001:00066fc7       __ld_int                   10067fc7 f   libucrt:_test.obj
 0001:00066fd4       __ldtest                   10067fd4 f   libucrt:_test.obj
 0001:00066fe1       ?__wcsrtombs_utf8@__crt_mbstring@@YAIPADPAPB_WIPAU_Mbstatet@@@Z 10067fe1 f   libucrt:wcrtomb.obj
 0001:0006748b       _wcrtomb                   1006848b f   libucrt:wcrtomb.obj
 0001:000674c8       _wcrtomb_s                 100684c8 f   libucrt:wcrtomb.obj
 0001:0006755f       _wcsrtombs                 1006855f f   libucrt:wcrtomb.obj
 0001:0006756c       _wcsrtombs_s               1006856c f   libucrt:wcrtomb.obj
 0001:0006762b       _wctob                     1006862b f   libucrt:wcrtomb.obj
 0001:0006769f       __controlfp_s              1006869f f   libucrt:contrlfp.obj
 0001:00067715       __d_inttype                10068715 f   libucrt:powhlp.obj
 0001:00067799       __powhlp                   10068799 f   libucrt:powhlp.obj
 0001:0006790e       __87except                 1006890e f   libucrt:87except.obj
 0001:00067a5a       __frnd                     10068a5a f   libucrt:frnd.obj
 0001:00067a75       ??_4@YAAAW4__acrt_fenv_abstract_status@@AAW40@W40@@Z 10068a75 f i libucrt:fegetexceptflag.obj
 0001:00067a87       _fegetexceptflag           10068a87 f   libucrt:fegetexceptflag.obj
 0001:00067ac4       ??S@YA?AW4__acrt_fenv_abstract_status@@W40@@Z 10068ac4 f i libucrt:fesetexceptflag.obj
 0001:00067ad3       _fesetexceptflag           10068ad3 f   libucrt:fesetexceptflag.obj
 0001:00067b42       ?__c16rtomb_utf8@__crt_mbstring@@YAIPAD_SPAU_Mbstatet@@@Z 10068b42 f   libucrt:c16rtomb.obj
 0001:00067c9a       _c16rtomb                  10068c9a f   libucrt:c16rtomb.obj
 0001:00067ca7       _fetestexcept              10068ca7 f   libucrt:fetestexcept.obj
 0001:00067cd1       ?__c32rtomb_utf8@__crt_mbstring@@YAIPAD_UPAU_Mbstatet@@@Z 10068cd1 f   libucrt:c32rtomb.obj
 0001:00067dab       _c32rtomb                  10068dab f   libucrt:c32rtomb.obj
 0001:00067dc0       __FindPESection            10068dc0 f   LIBCMT:pesect.obj
 0001:00067e20       __IsNonwritableInCurrentImage 10068e20 f   LIBCMT:pesect.obj
 0001:00067f10       __ValidateImageBase        10068f10 f   LIBCMT:pesect.obj
 0001:00067f4f       __EH_epilog3               10068f4f f   LIBCMT:ehprolg3.obj
 0001:00067f69       __EH_epilog3_GS            10068f69 f   LIBCMT:ehprolg3.obj
 0001:00067f7e       __EH_epilog3_catch_GS      10068f7e f   LIBCMT:ehprolg3.obj
 0001:00067f93       __EH_prolog3               10068f93 f   LIBCMT:ehprolg3.obj
 0001:00067fd4       __EH_prolog3_GS            10068fd4 f   LIBCMT:ehprolg3.obj
 0001:00068018       __EH_prolog3_catch         10069018 f   LIBCMT:ehprolg3.obj
 0001:0006805c       __EH_prolog3_catch_GS      1006905c f   LIBCMT:ehprolg3.obj
 0001:000680b0       __aulldvrm                 100690b0 f   LIBCMT:ulldvrm.obj
 0001:0006816a       ??1type_info@@UAE@XZ       1006916a f   LIBCMT:std_type_info_static.obj
 0001:00068171       ??_Gtype_info@@UAEPAXI@Z   10069171 f i LIBCMT:std_type_info_static.obj
 0001:00068171       ??_Etype_info@@UAEPAXI@Z   10069171 f i LIBCMT:std_type_info_static.obj
 0001:0006819c       ??3@YAXPAXI@Z              1006919c f   LIBCMT:delete_scalar_size.obj
 0001:000681b0       __SEH_prolog4_GS           100691b0 f   LIBCMT:sehprolg4gs.obj
 0001:000681f9       __SEH_epilog4_GS           100691f9 f   LIBCMT:sehprolg4gs.obj
 0001:00068220       __allmul                   10069220 f   LIBCMT:llmul.obj
 0001:00068270       __chkstk                   10069270 f   LIBCMT:chkstk.obj
 0001:00068270       __alloca_probe             10069270 f   LIBCMT:chkstk.obj
 0001:000682b0       __alldvrm                  100692b0 f   LIBCMT:lldvrm.obj
 0001:000683d0       __aullshr                  100693d0 f   LIBCMT:ullshr.obj
 0001:00068400       __alloca_probe_16          10069400 f   LIBCMT:alloca16.obj
 0001:00068416       __alloca_probe_8           10069416     LIBCMT:alloca16.obj
 0001:00068440       __allshl                   10069440 f   LIBCMT:llshl.obj
 0001:00068470       __ftol2_sse                10069470 f   LIBCMT:ftol2.obj
 0001:00068479       __ftol2_pentium4           10069479 f   LIBCMT:ftol2.obj
 0001:0006848c       __ftol2_sse_excpt          1006948c f   LIBCMT:ftol2.obj
 0001:000684b0       __ftol2                    100694b0 f   LIBCMT:ftol2.obj
 0001:00068552       __initialize_default_precision 10069552 f   LIBCMT:default_precision.obj
 0001:0006857b       ??3@YAXPAX@Z               1006957b f   LIBCMT:delete_scalar.obj
 0001:00068580       _InterlockedPushEntrySList@8 10069580 f   kernel32:KERNEL32.dll
 0001:00068586       _InterlockedFlushSList@4   10069586 f   kernel32:KERNEL32.dll
 0001:0006858c       _RtlUnwind@16              1006958c f   kernel32:KERNEL32.dll
 0001:00068592       _GetLastError@0            10069592 f   kernel32:KERNEL32.dll
 0001:00068598       _SetLastError@4            10069598 f   kernel32:KERNEL32.dll
 0001:0006859e       _EnterCriticalSection@4    1006959e f   kernel32:KERNEL32.dll
 0001:000685a4       _LeaveCriticalSection@4    100695a4 f   kernel32:KERNEL32.dll
 0001:000685aa       _DeleteCriticalSection@4   100695aa f   kernel32:KERNEL32.dll
 0001:000685b0       _InitializeCriticalSectionAndSpinCount@8 100695b0 f   kernel32:KERNEL32.dll
 0001:000685b6       _TlsAlloc@0                100695b6 f   kernel32:KERNEL32.dll
 0001:000685bc       _TlsGetValue@4             100695bc f   kernel32:KERNEL32.dll
 0001:000685c2       _TlsSetValue@8             100695c2 f   kernel32:KERNEL32.dll
 0001:000685c8       _TlsFree@4                 100695c8 f   kernel32:KERNEL32.dll
 0001:000685ce       _FreeLibrary@4             100695ce f   kernel32:KERNEL32.dll
 0001:000685d4       _LoadLibraryExW@12         100695d4 f   kernel32:KERNEL32.dll
 0001:000685da       _EncodePointer@4           100695da f   kernel32:KERNEL32.dll
 0001:000685e0       _RaiseException@16         100695e0 f   kernel32:KERNEL32.dll
 0001:000685e6       _GetStdHandle@4            100695e6 f   kernel32:KERNEL32.dll
 0001:000685ec       _GetFileType@4             100695ec f   kernel32:KERNEL32.dll
 0001:000685f2       _GetModuleFileNameW@12     100695f2 f   kernel32:KERNEL32.dll
 0001:000685f8       _GetModuleHandleExW@12     100695f8 f   kernel32:KERNEL32.dll
 0001:000685fe       _WriteConsoleW@20          100695fe f   kernel32:KERNEL32.dll
 0001:00068604       _ExitProcess@4             10069604 f   kernel32:KERNEL32.dll
 0001:0006860a       _HeapAlloc@12              1006960a f   kernel32:KERNEL32.dll
 0001:00068610       _HeapFree@12               10069610 f   kernel32:KERNEL32.dll
 0001:00068616       _WriteFile@20              10069616 f   kernel32:KERNEL32.dll
 0001:0006861c       _OutputDebugStringW@4      1006961c f   kernel32:KERNEL32.dll
 0001:00068622       _SetConsoleCtrlHandler@8   10069622 f   kernel32:KERNEL32.dll
 0001:00068628       _HeapReAlloc@16            10069628 f   kernel32:KERNEL32.dll
 0001:0006862e       _GetDateFormatW@24         1006962e f   kernel32:KERNEL32.dll
 0001:00068634       _GetTimeFormatW@24         10069634 f   kernel32:KERNEL32.dll
 0001:0006863a       _CompareStringW@24         1006963a f   kernel32:KERNEL32.dll
 0001:00068640       _LCMapStringW@24           10069640 f   kernel32:KERNEL32.dll
 0001:00068646       _GetLocaleInfoW@16         10069646 f   kernel32:KERNEL32.dll
 0001:0006864c       _IsValidLocale@8           1006964c f   kernel32:KERNEL32.dll
 0001:00068652       _GetUserDefaultLCID@0      10069652 f   kernel32:KERNEL32.dll
 0001:00068658       _EnumSystemLocalesW@8      10069658 f   kernel32:KERNEL32.dll
 0001:0006865e       _CloseHandle@4             1006965e f   kernel32:KERNEL32.dll
 0001:00068664       _ReadFile@20               10069664 f   kernel32:KERNEL32.dll
 0001:0006866a       _GetConsoleMode@8          1006966a f   kernel32:KERNEL32.dll
 0001:00068670       _ReadConsoleW@20           10069670 f   kernel32:KERNEL32.dll
 0001:00068676       _GetConsoleCP@0            10069676 f   kernel32:KERNEL32.dll
 0001:0006867c       _MultiByteToWideChar@24    1006967c f   kernel32:KERNEL32.dll
 0001:00068682       _GetCurrentThread@0        10069682 f   kernel32:KERNEL32.dll
 0001:00068688       _DeleteFileW@4             10069688 f   kernel32:KERNEL32.dll
 0001:0006868e       _SetFilePointerEx@20       1006968e f   kernel32:KERNEL32.dll
 0001:00068694       _FindClose@4               10069694 f   kernel32:KERNEL32.dll
 0001:0006869a       _FindFirstFileExW@24       1006969a f   kernel32:KERNEL32.dll
 0001:000686a0       _FindNextFileW@8           100696a0 f   kernel32:KERNEL32.dll
 0001:000686a6       _IsValidCodePage@4         100696a6 f   kernel32:KERNEL32.dll
 0001:000686ac       _GetACP@0                  100696ac f   kernel32:KERNEL32.dll
 0001:000686b2       _GetOEMCP@0                100696b2 f   kernel32:KERNEL32.dll
 0001:000686b8       _GetCPInfo@8               100696b8 f   kernel32:KERNEL32.dll
 0001:000686be       _GetCommandLineA@0         100696be f   kernel32:KERNEL32.dll
 0001:000686c4       _GetCommandLineW@0         100696c4 f   kernel32:KERNEL32.dll
 0001:000686ca       _WideCharToMultiByte@32    100696ca f   kernel32:KERNEL32.dll
 0001:000686d0       _GetEnvironmentStringsW@0  100696d0 f   kernel32:KERNEL32.dll
 0001:000686d6       _FreeEnvironmentStringsW@4 100696d6 f   kernel32:KERNEL32.dll
 0001:000686dc       _SetEnvironmentVariableW@8 100696dc f   kernel32:KERNEL32.dll
 0001:000686e2       _GetProcessHeap@0          100696e2 f   kernel32:KERNEL32.dll
 0001:000686e8       _FlushFileBuffers@4        100696e8 f   kernel32:KERNEL32.dll
 0001:000686ee       _SetStdHandle@8            100696ee f   kernel32:KERNEL32.dll
 0001:000686f4       _CreateFileW@28            100696f4 f   kernel32:KERNEL32.dll
 0001:000686fa       _GetStringTypeW@16         100696fa f   kernel32:KERNEL32.dll
 0001:00068700       _HeapSize@12               10069700 f   kernel32:KERNEL32.dll
 0001:00068706       _SetEndOfFile@4            10069706 f   kernel32:KERNEL32.dll
 0001:0006870c       _DecodePointer@4           1006970c f   kernel32:KERNEL32.dll
 0001:00068843       _memcmp                    10069843 f   libvcruntime:memcmp.obj
 0001:0006ad30       _strrchr                   1006bd30 f   libvcruntime:strrchr.obj
 0001:0006aeb4       _wcschr                    1006beb4 f   libvcruntime:wcschr.obj
 0002:00000000       ___xc_a                    10071000     LIBCMT:initializers.obj
 0002:00000104       ___xc_z                    10071104     LIBCMT:initializers.obj
 0002:00000208       ___xi_a                    10071208     LIBCMT:initializers.obj
 0002:0000030c       ___acrt_stdio_initializer  1007130c     libucrt:stdio_initializer.obj
 0002:00000310       ___acrt_multibyte_initializer 10071310     libucrt:multibyte_initializer.obj
 0002:00000314       ___acrt_tran_sse2_initializer 10071314     libucrt:sse2_initializer.obj
 0002:0000041c       ___xi_z                    1007141c     LIBCMT:initializers.obj
 0002:00000520       ___xp_a                    10071520     LIBCMT:initializers.obj
 0002:00000624       ___acrt_locale_terminator  10071624     libucrt:locale_initializer.obj
 0002:00000628       ___dcrt_console_output_terminator 10071628     libucrt:console_output_initializer.obj
 0002:00000730       ___acrt_stdio_terminator   10071730     libucrt:stdio_initializer.obj
 0002:00000834       ___xp_z                    10071834     LIBCMT:initializers.obj
 0002:00000938       ___xt_a                    10071938     LIBCMT:initializers.obj
 0002:00000a3c       ___xt_z                    10071a3c     LIBCMT:initializers.obj
 0002:00000b40       _homing_ldm_M              10071b40     homing_ldm.obj
 0002:00000b44       ??_C@_0BC@OJJPBDHH@FixedStepDiscrete@ 10071b44     homing_ldm.obj
 0002:00000b5c       ??_C@_04EPKDLPPB@tout@     10071b5c     homing_ldm.obj
 0002:00000b62       ??_C@_00CNPNBAHC@@         10071b62     homing_ldm.obj
 0002:00000b64       ??_C@_03HBFGMJOD@rt_@      10071b64     homing_ldm.obj
 0002:00000b68       ??_C@_0M@IJCNLJFC@PCI?96229?5DI@ 10071b68     homing_ldm.obj
 0002:00000b78       ??_C@_0BH@IJEMMBJP@homing_ldm?1PCI?96229?5DI@ 10071b78     homing_ldm.obj
 0002:00000b94       ??_C@_0P@KEKPFIMK@PCI?56229?5ENC?52@ 10071b94     homing_ldm.obj
 0002:00000ba8       ??_C@_0BK@OAILPPOJ@homing_ldm?1PCI?56229?5ENC?52@ 10071ba8     homing_ldm.obj
 0002:00000bc8       ??_C@_0P@LNLEGJIL@PCI?56229?5ENC?53@ 10071bc8     homing_ldm.obj
 0002:00000bdc       ??_C@_0BK@PJJAMOKI@homing_ldm?1PCI?56229?5ENC?53@ 10071bdc     homing_ldm.obj
 0002:00000bfc       ??_C@_0N@DANFLPCO@PCI?96229?5DA4@ 10071bfc     homing_ldm.obj
 0002:00000c0c       ??_C@_0BI@NFAAGAFL@homing_ldm?1PCI?96229?5DA4@ 10071c0c     homing_ldm.obj
 0002:00000c28       ??_C@_0N@CJMOIOGP@PCI?96229?5DA5@ 10071c28     homing_ldm.obj
 0002:00000c38       ??_C@_0BI@MMBLFBBK@homing_ldm?1PCI?96229?5DA5@ 10071c38     homing_ldm.obj
 0002:00000c54       ??_C@_0N@EHDMGGGB@PCI?96229?5DO1@ 10071c54     homing_ldm.obj
 0002:00000c64       ??_C@_0BI@KCOJLJBE@homing_ldm?1PCI?96229?5DO1@ 10071c64     homing_ldm.obj
 0002:00000c80       ??_C@_0O@LGELPGOG@PCI?56229?5ENC?5@ 10071c80     homing_ldm.obj
 0002:00000c90       ??_C@_0BJ@JGMBKGIK@homing_ldm?1PCI?56229?5ENC?5@ 10071c90     homing_ldm.obj
 0002:00000cb0       ??_C@_0P@IPICALAJ@PCI?56229?5ENC?51@ 10071cb0     homing_ldm.obj
 0002:00000cc4       ??_C@_0BK@MLKGKMCK@homing_ldm?1PCI?56229?5ENC?51@ 10071cc4     homing_ldm.obj
 0002:00000ce8       __real@3f50624dd2f1a9fc    10071ce8     homing_ldm.obj
 0002:00000cf8       __real@3fc999999999999a    10071cf8     homing_ldm.obj
 0002:00000d08       __real@3fe0000000000000    10071d08     homing_ldm.obj
 0002:00000d18       __real@3fe1111111111111    10071d18     homing_ldm.obj
 0002:00000d28       __real@3febbbbbbbbbbbbc    10071d28     homing_ldm.obj
 0002:00000d38       __real@3ff0000000000000    10071d38     homing_ldm.obj
 0002:00000d48       __real@3ff3333333333333    10071d48     homing_ldm.obj
 0002:00000d58       __real@4008000000000000    10071d58     homing_ldm.obj
 0002:00000d68       __real@4014000000000000    10071d68     homing_ldm.obj
 0002:00000d78       __real@41f0000000000000    10071d78     homing_ldm.obj
 0002:00000d88       __real@bff0000000000000    10071d88     homing_ldm.obj
 0002:00000d98       __real@bff4cccccccccccd    10071d98     homing_ldm.obj
 0002:00000da8       __real@c000cccccccccccd    10071da8     homing_ldm.obj
 0002:00000db8       __real@c008000000000000    10071db8     homing_ldm.obj
 0002:00000dd0       __xmm@000000e20000002d0000004300000002 10071dd0     homing_ldm.obj
 0002:00000df0       __xmm@3f50624dd2f1a9fc0000000000000000 10071df0     homing_ldm.obj
 0002:00000e10       __xmm@3fe55555555555553fd5555555555555 10071e10     homing_ldm.obj
 0002:00000e30       __xmm@41f00000000000000000000000000000 10071e30     homing_ldm.obj
 0002:00000e50       __xmm@7fffffffffffffff7fffffffffffffff 10071e50     homing_ldm.obj
 0002:00000e70       __xmm@80000000000000008000000000000000 10071e70     homing_ldm.obj
 0002:00000e88       __real@3cb0000000000000    10071e88     rt_matrx.obj
 0002:00001d60       ??_C@_08PAGDBCID@Chart?1p1@ 10072d60     homing_ldm_capi.obj
 0002:00001d6c       ??_C@_08NLEOEBEA@Chart?1p2@ 10072d6c     homing_ldm_capi.obj
 0002:00001d78       ??_C@_08MCFFHAAB@Chart?1p3@ 10072d78     homing_ldm_capi.obj
 0002:00001d84       ??_C@_08INBEOGMG@Chart?1p4@ 10072d84     homing_ldm_capi.obj
 0002:00001d90       ??_C@_08JEAPNHIH@Chart?1p5@ 10072d90     homing_ldm_capi.obj
 0002:00001d9c       ??_C@_08LPCCIEEE@Chart?1p6@ 10072d9c     homing_ldm_capi.obj
 0002:00001da8       ??_C@_08KGDJLFAF@Chart?1p7@ 10072da8     homing_ldm_capi.obj
 0002:00001db4       ??_C@_01MMEEDKFM@X@        10072db4     homing_ldm_capi.obj
 0002:00001db8       ??_C@_05DEOOJMJC@Clock@    10072db8     homing_ldm_capi.obj
 0002:00001dc0       ??_C@_09IIHOELEE@Constant1@ 10072dc0     homing_ldm_capi.obj
 0002:00001dcc       ??_C@_04OMOMKKFL@Gain@     10072dcc     homing_ldm_capi.obj
 0002:00001dd4       ??_C@_0BD@EPFMCPOH@posizione?5motore?5x@ 10072dd4     homing_ldm_capi.obj
 0002:00001dec       ??_C@_05DKAIGDGE@Gain1@    10072dec     homing_ldm_capi.obj
 0002:00001df4       ??_C@_0BF@HBPOPMFC@posizione?5carrello?5y@ 10072df4     homing_ldm_capi.obj
 0002:00001e10       ??_C@_05BBCFDAKH@Gain2@    10072e10     homing_ldm_capi.obj
 0002:00001e18       ??_C@_0BD@FGEHBOKG@posizione?5motore?5y@ 10072e18     homing_ldm_capi.obj
 0002:00001e30       ??_C@_05IDOABOG@Gain3@     10072e30     homing_ldm_capi.obj
 0002:00001e38       ??_C@_0BF@GIOFMNBD@posizione?5carrello?5x@ 10072e38     homing_ldm_capi.obj
 0002:00001e54       ??_C@_05EHHPJHCB@Gain4@    10072e54     homing_ldm_capi.obj
 0002:00001e5c       ??_C@_05GMFCMEOC@Gain7@    10072e5c     homing_ldm_capi.obj
 0002:00001e64       ??_C@_05OLMKNICN@Gain8@    10072e64     homing_ldm_capi.obj
 0002:00001e6c       ??_C@_05PCNBOJGM@Gain9@    10072e6c     homing_ldm_capi.obj
 0002:00001e74       ??_C@_0BB@CMNBNJBK@pozione?5motore?5y@ 10072e74     homing_ldm_capi.obj
 0002:00001e88       ??_C@_0P@HFBNGDFJ@PCI?96229?5DI?1p1@ 10072e88     homing_ldm_capi.obj
 0002:00001e9c       ??_C@_07OJGKPLCD@fc?5x?5sx@ 10072e9c     homing_ldm_capi.obj
 0002:00001ea8       ??_C@_0P@FODADAJK@PCI?96229?5DI?1p2@ 10072ea8     homing_ldm_capi.obj
 0002:00001ebc       ??_C@_07PAADEONG@fc?5x?5dx@ 10072ebc     homing_ldm_capi.obj
 0002:00001ec8       ??_C@_0P@EHCLABNL@PCI?96229?5DI?1p3@ 10072ec8     homing_ldm_capi.obj
 0002:00001edc       ??_C@_09CNJIBEEI@fc?5y?5high@ 10072edc     homing_ldm_capi.obj
 0002:00001ee8       ??_C@_0P@IGKJHBM@PCI?96229?5DI?1p4@ 10072ee8     homing_ldm_capi.obj
 0002:00001efc       ??_C@_09IHHPKCGD@fc?5y?5down@ 10072efc     homing_ldm_capi.obj
 0002:00001f08       ??_C@_04LHPAOBFF@Sum2@     10072f08     homing_ldm_capi.obj
 0002:00001f10       ??_C@_04KOOLNABE@Sum3@     10072f10     homing_ldm_capi.obj
 0002:00001f18       ??_C@_04OBKKEGND@Sum4@     10072f18     homing_ldm_capi.obj
 0002:00001f20       ??_C@_04PILBHHJC@Sum5@     10072f20     homing_ldm_capi.obj
 0002:00001f28       ??_C@_0N@BLFBKHKN@Dot?5Product3@ 10072f28     homing_ldm_capi.obj
 0002:00001f38       ??_C@_0N@FEBADBGK@Dot?5Product4@ 10072f38     homing_ldm_capi.obj
 0002:00001f48       ??_C@_0N@ENALAACL@Dot?5Product5@ 10072f48     homing_ldm_capi.obj
 0002:00001f58       ??_C@_0N@GGCGFDOI@Dot?5Product6@ 10072f58     homing_ldm_capi.obj
 0002:00001f68       ??_C@_0BJ@CPBFEPCF@Discrete?5Derivative?1Diff@ 10072f68     homing_ldm_capi.obj
 0002:00001f88       ??_C@_0BK@BNNBMNBK@Discrete?5Derivative?1TSamp@ 10072f88     homing_ldm_capi.obj
 0002:00001fa8       ??_C@_0BH@MAOHMDCI@Discrete?5Derivative?1UD@ 10072fa8     homing_ldm_capi.obj
 0002:00001fc4       ??_C@_06CFNEEADJ@U?$CIk?91?$CJ@ 10072fc4     homing_ldm_capi.obj
 0002:00001fcc       ??_C@_0BK@EMGMOOMA@Discrete?5Derivative1?1Diff@ 10072fcc     homing_ldm_capi.obj
 0002:00001fec       ??_C@_0BL@MNNCKCEM@Discrete?5Derivative1?1TSamp@ 10072fec     homing_ldm_capi.obj
 0002:0000200c       ??_C@_0BI@GHNGGFGE@Discrete?5Derivative1?1UD@ 1007300c     homing_ldm_capi.obj
 0002:00002028       ??_C@_0BK@HNIEPEFN@Discrete?5Derivative2?1Diff@ 10073028     homing_ldm_capi.obj
 0002:00002048       ??_C@_0BL@EDFNKFKP@Discrete?5Derivative2?1TSamp@ 10073048     homing_ldm_capi.obj
 0002:00002068       ??_C@_0BI@CAHGBPLE@Discrete?5Derivative2?1UD@ 10073068     homing_ldm_capi.obj
 0002:00002084       ??_C@_0BK@NLPDPPOJ@Discrete?5Derivative3?1Diff@ 10073084     homing_ldm_capi.obj
 0002:000020a4       ??_C@_0BL@IPPHKFDB@Discrete?5Derivative3?1TSamp@ 100730a4     homing_ldm_capi.obj
 0002:000020c4       ??_C@_0BI@BNBGDGAE@Discrete?5Derivative3?1UD@ 100730c4     homing_ldm_capi.obj
 0002:000020e0       ??_C@_0BE@OCAEDHHH@Discrete?5Derivative@ 100730e0     homing_ldm_capi.obj
 0002:000020f8       ??_C@_0BC@DNAKAAEE@ICPrevScaledInput@ 100730f8     homing_ldm_capi.obj
 0002:00002110       ??_C@_0BF@INOOHBK@Discrete?5Derivative1@ 10073110     homing_ldm_capi.obj
 0002:0000212c       ??_C@_0BF@CDPDLENJ@Discrete?5Derivative2@ 1007312c     homing_ldm_capi.obj
 0002:00002148       ??_C@_0BF@DKOIIFJI@Discrete?5Derivative3@ 10073148     homing_ldm_capi.obj
 0002:00002164       ??_C@_05LPIJGKJ@Value@     10073164     homing_ldm_capi.obj
 0002:0000216c       ??_C@_02KKFPAPOP@P1@       1007316c     homing_ldm_capi.obj
 0002:00002170       ??_C@_02IBHCFMCM@P2@       10073170     homing_ldm_capi.obj
 0002:00002174       ??_C@_02JIGJGNGN@P3@       10073174     homing_ldm_capi.obj
 0002:00002178       ??_C@_02NHCIPLKK@P4@       10073178     homing_ldm_capi.obj
 0002:0000217c       ??_C@_02MODDMKOL@P5@       1007317c     homing_ldm_capi.obj
 0002:00002180       ??_C@_02OFBOJJCI@P6@       10073180     homing_ldm_capi.obj
 0002:00002184       ??_C@_02PMAFKIGJ@P7@       10073184     homing_ldm_capi.obj
 0002:00002188       ??_C@_02HLJNLEKG@P8@       10073188     homing_ldm_capi.obj
 0002:0000218c       ??_C@_02GCIGIFOH@P9@       1007318c     homing_ldm_capi.obj
 0002:00002190       ??_C@_03OPFJJGBF@P10@      10073190     homing_ldm_capi.obj
 0002:00002194       ??_C@_04GKLBNPCL@WtEt@     10073194     homing_ldm_capi.obj
 0002:0000219c       ??_C@_06BNJCAIGJ@double@   1007319c     homing_ldm_capi.obj
 0002:000021a4       ??_C@_06CNMIJIPB@real_T@   100731a4     homing_ldm_capi.obj
 0002:000021ac       ??_C@_05KNFBNCOH@float@    100731ac     homing_ldm_capi.obj
 0002:000021b4       _serialfifoground          100731b4     xpc_datatype_ground.obj
 0002:000021c0       _bcmsg1553ground           100731c0     xpc_datatype_ground.obj
 0002:000021d0       _bcstatground              100731d0     xpc_datatype_ground.obj
 0002:000021e8       _bmmsg1553ground           100731e8     xpc_datatype_ground.obj
 0002:00002224       ??_C@_0BI@INNPNFJN@Memory?5Allocation?5Error@ 10073224     rtw_modelmap_utils.obj
 0002:00002240       ??_C@_1FG@HMJFKDEC@?$AAD?$AA?3?$AA?2?$AAM?$AAA?$AAT?$AAL?$AAA?$AAB?$AA?$HO?$AA1?$AA?2?$AAr?$AAt?$AAw@ 10073240     rtw_modelmap_utils.obj
 0002:000022a8       ??_C@_1CI@OEAJCJND@?$AAj?$AA?5?$AA?$DN?$AA?$DN?$AA?5?$AAe?$AAn?$AAc?$AAo?$AAd?$AAe?$AAd?$AAP?$AAa?$AAt@ 100732a8     rtw_modelmap_utils.obj
 0002:000022d8       ??_C@_1DC@NFAOIFKB@?$AAe?$AAn?$AAc?$AAo?$AAd?$AAe?$AAd?$AAP?$AAa?$AAt?$AAh?$AA?$FL?$AAj?$AA?9?$AA1@ 100732d8     rtw_modelmap_utils.obj
 0002:00002314       ??_C@_1DI@FLNJGPEE@?$AAs?$AAi?$AAg?$AAC?$AAo?$AAm?$AAp?$AAl?$AAe?$AAx?$AAi?$AAt?$AAy?$AA?$FL?$AA?$CK@ 10073314     rtw_modelmap_utils.obj
 0002:00002358       ??_C@_1KI@OFELMGBG@?$AA?$CI?$AA?$CI?$AA?$CI?$AAd?$AAa?$AAt?$AAa?$AAT?$AAy?$AAp?$AAe?$AAM?$AAa?$AAp?$AA?$CJ@ 10073358     rtw_modelmap_utils.obj
 0002:00002424       ??_C@_1DA@ILCMPHNE@?$AAf?$AAu?$AAl?$AAl?$AAP?$AAa?$AAt?$AAh?$AA?5?$AA?$CB?$AA?$DN?$AA?5?$AA?$CI?$AA?$CI?$AAv@ 10073424     rtw_modelmap_utils.obj
 0002:00002460       ??_C@_1CI@OEPPFCCA@?$AAp?$AAa?$AAt?$AAh?$AA?5?$AA?$CB?$AA?$DN?$AA?5?$AA?$CI?$AA?$CI?$AAv?$AAo?$AAi?$AAd?$AA?5@ 10073460     rtw_modelmap_utils.obj
 0002:00002490       ??_C@_1FK@GLJIMFHB@?$AA?$CI?$AA?$CI?$AAm?$AAm?$AAi?$AA?$CJ?$AA?9?$AA?$DO?$AAI?$AAn?$AAs?$AAt?$AAa?$AAn?$AAc@ 10073490     rtw_modelmap_utils.obj
 0002:000024fc       ??_C@_1DG@HPCJGNCE@?$AAm?$AAm?$AAi?$AAP?$AAa?$AAt?$AAh?$AA?$FL?$AAp?$AAa?$AAt?$AAh?$AAL?$AAe?$AAn@ 100734fc     rtw_modelmap_utils.obj
 0002:0000253c       ??_C@_1DM@DBAOGGOO@?$AAm?$AAm?$AAi?$AAP?$AAa?$AAt?$AAh?$AA?$FL?$AAm?$AAm?$AAi?$AAP?$AAa?$AAt?$AAh@ 1007353c     rtw_modelmap_utils.obj
 0002:00002584       ??_C@_1DC@LHIAKAFE@?$AAb?$AAl?$AAo?$AAc?$AAk?$AAP?$AAa?$AAt?$AAh?$AA?5?$AA?$CB?$AA?$DN?$AA?5?$AA?$CI?$AA?$CI@ 10073584     rtw_modelmap_utils.obj
 0002:000025c0       ??_C@_1GI@KIEJKPGC@?$AAf?$AAu?$AAl?$AAl?$AAS?$AAt?$AAa?$AAt?$AAe?$AAB?$AAl?$AAo?$AAc?$AAk?$AAP@ 100735c0     rtw_modelmap_utils.obj
 0002:00002640       ??_C@_1EE@DNPIBJHC@?$AA?$CI?$AA?$CI?$AAd?$AAi?$AAm?$AAM?$AAa?$AAp?$AA?$CJ?$AA?$FL?$AA?$CI?$AAm?$AAa?$AAp?$AAI@ 10073640     rtw_modelmap_utils.obj
 0002:00002694       ??_C@_06JFOKFOED@CSTATE@   10073694     rtw_modelmap_utils.obj
 0002:0000269c       ??_C@_06FAENGAMN@DSTATE@   1007369c     rtw_modelmap_utils.obj
 0002:000026a4       ??_C@_1BI@LEBJNOGG@?$AAc?$AAs?$AAv?$AAI?$AAd?$AAx?$AA?5?$AA?$DO?$AA?$DN?$AA?5?$AA0@ 100736a4     rtw_modelmap_utils.obj
 0002:000026c0       ??_C@_1BA@KDMGHCHP@?$AAT?$AAI?$AAD?$AA?$DN?$AA?$DN?$AA?9?$AA1@ 100736c0     rtw_modelmap_utils.obj
 0002:000026d4       ??_C@_1DM@DHGKBPCE@?$AAs?$AAi?$AAg?$AAP?$AAa?$AAt?$AAh?$AA?$FL?$AAs?$AAi?$AAg?$AAP?$AAa?$AAt?$AAh@ 100736d4     rtw_modelmap_utils.obj
 0002:00002f80       ??_C@_0DJ@FHKINPLE@Unexpected?5itemKind?5?$DN?5DATA_ITEM@ 10073f80     rt_logging.obj
 0002:00002fc4       ??_C@_0DA@IEHFPFCJ@Unexpected?5itemKind?$DN?$CFd?5in?5rt_Pr@ 10073fc4     rt_logging.obj
 0002:00003000       ??_C@_0DA@IFLHJPBO@Unexpected?5itemKind?$DN?$CFd?5in?5rt_Pr@ 10074000     rt_logging.obj
 0002:0000303c       ??_C@_0DA@IAPIIJJL@Unexpected?5itemKind?$DN?$CFd?5in?5rt_Pr@ 1007403c     rt_logging.obj
 0002:00003078       ??_C@_0BE@LCIGPJIG@MATLAB?55?40?5MAT?9file@ 10074078     rt_logging.obj
 0002:00003090       ??_C@_0FB@PCJEAJIB@?$CK?$CK?$CK?5Log?5variable?5?$CFs?5has?5wrapped@ 10074090     rt_logging.obj
 0002:000030f8       ??_C@_0MG@NKMLMOGF@?$CK?$CK?$CK?5To?5avoid?5wrapping?0?5explicit@ 100740f8     rt_logging.obj
 0002:000031e8       ??_C@_0N@IPAEOLLP@_rtw_tmw?4tmw@ 100741e8     rt_logging.obj
 0002:000031f8       ??_C@_04HDOCAJNK@?$CFs?$CFs@ 100741f8     rt_logging.obj
 0002:00003200       ??_C@_03ELIABIOC@w?$CLb@   10074200     rt_logging.obj
 0002:00003204       ??_C@_0BF@JPILDDFA@?$CK?$CK?$CK?5Error?5opening?5?$CFs@ 10074204     rt_logging.obj
 0002:00003220       ??_C@_0BK@EEMDELA@unable?5to?5open?5data?5file?6@ 10074220     rt_logging.obj
 0002:00003240       ??_C@_04CGFJFPFD@none@     10074240     rt_logging.obj
 0002:00003248       ??_C@_0EE@LCGFPNON@?$CK?$CK?$CK?5Error?5creating?5signals?5stru@ 10074248     rt_logging.obj
 0002:0000329c       ??_C@_0CE@NHECEDMK@?$CK?$CK?$CK?5Error?5creating?5log?5variable@ 1007429c     rt_logging.obj
 0002:000032c8       ??_C@_0DB@IOCGKAGH@?$CK?$CK?$CK?5Errors?5occurred?5when?5starti@ 100742c8     rt_logging.obj
 0002:00003304       ??_C@_0BO@BBLOGEBK@?$CK?$CK?$CK?5Memory?5allocation?5error?4?6@ 10074304     rt_logging.obj
 0002:00003328       ??_C@_0N@LGFBAGEL@?5?$CIreal?5part?$CJ@ 10074328     rt_logging.obj
 0002:00003338       ??_C@_0KH@CGNMHNFE@?5?5?5?5varName?5?5?5?5?5?5?5?5?5?5?$DN?5?$CFs?$CFs?6?5?5?5@ 10074338     rt_logging.obj
 0002:00003400       ??_C@_0LE@OALKKEFM@?5?5?5?5varName?5?5?5?5?5?5?5?5?5?5?$DN?5?$CFs?5?$CIcomp@ 10074400     rt_logging.obj
 0002:000034d8       ??_C@_0KF@JDDLEOKO@?5?5?5?5varName?5?5?5?5?5?5?5?5?5?5?$DN?5?$CFs?6?5?5?5?5n@ 100744d8     rt_logging.obj
 0002:000035a0       ??_C@_0DP@HPDMIOFM@?$CK?$CK?$CK?5Using?5a?5default?5buffer?5of?5s@ 100745a0     rt_logging.obj
 0002:000035f0       ??_C@_0KE@JEFOLKNF@?6?$CK?$CK?$CK?5Memory?5required?5to?5log?5var@ 100745f0     rt_logging.obj
 0002:000036b8       ??_C@_0JP@DKLMHCBI@?$CK?$CK?$CK?5Details?3?6?5?5?5?5?5?5?5varName?5?5?5?5@ 100746b8     rt_logging.obj
 0002:00003778       ??_C@_0CM@CAMILBED@?$CK?$CK?$CK?5Error?5allocating?5memory?5for@ 10074778     rt_logging.obj
 0002:000037ac       ??_C@_0DF@BBCNMOPM@?$CK?$CK?$CK?5Error?5allocating?5memory?5for@ 100747ac     rt_logging.obj
 0002:000037f0       ??_C@_0JP@DBCLPCCI@?$CK?$CK?$CK?5Details?3?6?5?5?5?5?5?5?5varName?5?5?5?5@ 100747f0     rt_logging.obj
 0002:000038b0       ??_C@_0FK@DPGAOBGA@?$CK?$CK?$CK?5Error?5allocating?5memory?5for@ 100748b0     rt_logging.obj
 0002:0000391c       ??_C@_0BI@GGDNPHLJ@?$CK?$CK?$CK?5Error?5writing?5to?5?$CFs@ 1007491c     rt_logging.obj
 0002:00003938       ??_C@_0CB@IBGJGELG@?$CK?$CK?$CK?5Error?5writing?5?$CFs?5due?5to?3?5?$CFs@ 10074938     rt_logging.obj
 0002:00003960       ??_C@_0CN@FLMCHCPB@?$CK?$CK?$CK?5Error?5writing?5log?5variable?5@ 10074960     rt_logging.obj
 0002:00003998       ??_C@_0DH@GAJCNOJP@?$CK?$CK?$CK?5Error?5writing?5structure?5log@ 10074998     rt_logging.obj
 0002:000039dc       ??_C@_0BD@POEALECL@?$CK?$CK?5created?5?$CFs?5?$CK?$CK?6?6@ 100749dc     rt_logging.obj
 0002:000039f8       __real@4020000000000000    100749f8     rt_logging.obj
 0002:00003a08       __real@41dfffffffc00000    10074a08     rt_logging.obj
 0002:00003a18       __real@41efffffffe00000    10074a18     rt_logging.obj
 0002:00003a28       __real@4330000000000000    10074a28     rt_logging.obj
 0002:00003a38       __real@8000000000000000    10074a38     rt_logging.obj
 0002:00003a48       __real@bfbf9add3afd2773    10074a48     rt_logging.obj
 0002:00003a58       __real@c000000000000000    10074a58     rt_logging.obj
 0002:00003a70       __xmm@20202020202020202020202020202020 10074a70     rt_logging.obj
 0002:00003a84       ??_C@_0L@KGENNFBN@homing_ldm@ 10074a84     xpctarget.obj
 0002:00003a94       _ptsetfilename             10074a94     xpctarget.obj
 0002:00003a98       _xmlfile                   10074a98     xpctarget.obj
 0002:00003aa0       ??_C@_0L@CHBJKKFC@xpceSetVar@ 10074aa0     xpctarget.obj
 0002:00003ab0       ??_C@_03LADEHNAB@6?46@     10074ab0     xpctarget.obj
 0002:00003ab8       __real@3fb999999999999a    10074ab8     xpctarget.obj
 0002:00003ac8       __real@408f400000000000    10074ac8     xpctarget.obj
 0002:00003ad8       _homing_ldm_BIOMAP         10074ad8     appmappingData.obj
 0002:00003d00       _homing_ldm_LBLMAP         10074d00     appmappingData.obj
 0002:00003f28       _homing_ldm_SIDMAP         10074f28     appmappingData.obj
 0002:00004150       _homing_ldm_SBIO           10075150     appmappingData.obj
 0002:00004208       _homing_ldm_SLBL           10075208     appmappingData.obj
 0002:000042c0       _homing_ldm_PTIDSMAP       100752c0     appmappingData.obj
 0002:00004560       _homing_ldm_PTNAMESMAP     10075560     appmappingData.obj
 0002:00004800       _homing_ldm_SPTMAP         10075800     appmappingData.obj
 0002:00004950       _homing_ldm_dtmap          10075950     appmappingData.obj
 0002:00004960       _appInfo                   10075960     appmappingData.obj
 0002:00004ca8       ??_C@_0ED@LKHIFFLC@Wrong?5number?5of?5input?5arguments@ 10075ca8     danipcim.obj
 0002:00004cf8       ??_C@_0DB@HFHLNKLE@Channel?5?$CFd?5exceeds?5the?5max?5DA?5c@ 10075cf8     danipcim.obj
 0002:00004d34       ??_C@_0CL@GCJHHCMG@Output?5range?5?$CFd?5is?5not?5supporte@ 10075d34     danipcim.obj
 0002:00004d68       ??_C@_0CC@FIFFDAB@?$CFd?5input?5args?5expected?0?5?$CFd?5pass@ 10075d68     encnipcim.obj
 0002:00004d90       ??_C@_0BN@JIEFLHEB@?$CFs?3?5Too?5many?5M?5series?5boards@ 10075d90     encnipcim.obj
 0002:00004db4       ??_C@_0M@IMCLKBPP@NI?5PCI?96220@ 10075db4     xpcionim.obj
 0002:00004dc4       ??_C@_0M@JFDAJALO@NI?5PCI?96221@ 10075dc4     xpcionim.obj
 0002:00004dd4       ??_C@_0P@NGCDCNKM@NI?5PCI?96221?137@ 10075dd4     xpcionim.obj
 0002:00004de8       ??_C@_0M@OIEHGEPL@NI?5PCI?96224@ 10075de8     xpcionim.obj
 0002:00004df8       ??_C@_0M@PBFMFFLK@NI?5PCI?96225@ 10075df8     xpcionim.obj
 0002:00004e08       ??_C@_0M@FNOJBKLG@NI?5PCI?96229@ 10075e08     xpcionim.obj
 0002:00004e18       ??_C@_0M@INOJMLMI@NI?5PCI?96230@ 10075e18     xpcionim.obj
 0002:00004e28       ??_C@_0M@LPNPKJEK@NI?5PCI?96232@ 10075e28     xpcionim.obj
 0002:00004e38       ??_C@_0M@KGMEJIAL@NI?5PCI?96233@ 10075e38     xpcionim.obj
 0002:00004e48       ??_C@_0M@NLLDGMEO@NI?5PCI?96236@ 10075e48     xpcionim.obj
 0002:00004e58       ??_C@_0M@EFDAEBMA@NI?5PCI?96238@ 10075e58     xpcionim.obj
 0002:00004e68       ??_C@_0M@FMCLHAIB@NI?5PCI?96239@ 10075e68     xpcionim.obj
 0002:00004e78       ??_C@_0M@IJGELHHK@NI?5PCI?96250@ 10075e78     xpcionim.obj
 0002:00004e88       ??_C@_0M@JAHPIGDL@NI?5PCI?96251@ 10075e88     xpcionim.obj
 0002:00004e98       ??_C@_0M@ONAIHCHO@NI?5PCI?96254@ 10075e98     xpcionim.obj
 0002:00004ea8       ??_C@_0M@PEBDEDDP@NI?5PCI?96255@ 10075ea8     xpcionim.obj
 0002:00004eb8       ??_C@_0M@FIKGAMDD@NI?5PCI?96259@ 10075eb8     xpcionim.obj
 0002:00004ec8       ??_C@_0M@IBLMCECJ@NI?5PCI?96280@ 10075ec8     xpcionim.obj
 0002:00004ed8       ??_C@_0M@JIKHBFGI@NI?5PCI?96281@ 10075ed8     xpcionim.obj
 0002:00004ee8       ??_C@_0M@OFNAOBCN@NI?5PCI?96284@ 10075ee8     xpcionim.obj
 0002:00004ef8       ??_C@_0M@FAHOJPGA@NI?5PCI?96289@ 10075ef8     xpcionim.obj
 0002:00004f08       ??_C@_0CI@NFFNBHJA@?$CFs?5?$CIbus?5?$CFd?0?5slot?5?$CFd?$CJ?3?5board?5not@ 10075f08     xpcionim.obj
 0002:00004f38       ??_C@_0CD@MBDNCLAI@NI?5M?5series?3?5Unknown?5board?5type@ 10075f38     xpcionim.obj
 0002:00004f64       ??_C@_0CC@DMFKNLL@VendorId?5?$DN?50x?$CFx?0?5DeviceId?5?$DN?50x?$CF@ 10075f64     xpcruntime:xpcimports.obj
 0002:00004f8c       ??_C@_0DH@OHCBLNMG@Subsystem?5Device?5ID?5?$DN?50x?$CFx?6Subs@ 10075f8c     xpcruntime:xpcimports.obj
 0002:00004fd0       ??_C@_0BD@MMMMEFCM@Class?5Code?5?$DN?50x?$CFx?6@ 10075fd0     xpcruntime:xpcimports.obj
 0002:00004fe8       ??_C@_0BE@OLDDDNHM@InterruptLine?5?$DN?5?$CFd?6@ 10075fe8     xpcruntime:xpcimports.obj
 0002:00005000       ??_C@_0BF@OLKLEKBD@bus?5?$DN?5?$CFd?0?5slot?5?$DN?5?$CFd?6@ 10076000     xpcruntime:xpcimports.obj
 0002:0000501c       ??_C@_0CE@DGLLGDFH@?5?5?5?5Phys?5?5?5Virtual?5?5?5Length?5IO?1@ 1007601c     xpcruntime:xpcimports.obj
 0002:00005048       ??_C@_0BI@FEOPLEMG@?$CF08x?5?$CF08x?5?$CF08x?5?5?5?5?5?5?$CFc?6@ 10076048     xpcruntime:xpcimports.obj
 0002:00005064       ??_C@_0BB@BNNCEDPC@rl32eScopeExists@ 10076064     xpcruntime:xpcimports.obj
 0002:00005078       ??_C@_0BM@FJBFEGFG@rl32eScopeExists?5not?5found?6@ 10076078     xpcruntime:xpcimports.obj
 0002:0000509c       ??_C@_0O@BNNGKJEA@rl32eDefScope@ 1007609c     xpcruntime:xpcimports.obj
 0002:000050ac       ??_C@_0BJ@CDNOENKA@rl32eDefScope?5not?5found?6@ 100760ac     xpcruntime:xpcimports.obj
 0002:000050cc       ??_C@_0P@CKNKILDP@rl32eAddSignal@ 100760cc     xpcruntime:xpcimports.obj
 0002:000050e0       ??_C@_0BK@GMJAJBAI@rl32eAddSignal?5not?5found?6@ 100760e0     xpcruntime:xpcimports.obj
 0002:00005100       ??_C@_0BB@LDMIHGCE@rl32eGetSignalNo@ 10076100     xpcruntime:xpcimports.obj
 0002:00005114       ??_C@_0BM@LGAMBAID@rl32eGetSignalNo?5not?5found?6@ 10076114     xpcruntime:xpcimports.obj
 0002:00005138       ??_C@_0O@CFDGALBP@rl32eSetScope@ 10076138     xpcruntime:xpcimports.obj
 0002:00005148       ??_C@_0BJ@JCLHHIN@rl32eSetScope?5not?5found?6@ 10076148     xpcruntime:xpcimports.obj
 0002:00005168       ??_C@_0P@IKMCBMHH@xpceFSScopeSet@ 10076168     xpcruntime:xpcimports.obj
 0002:0000517c       ??_C@_0BK@JODJPNNH@xpceFSScopeSet?5not?5found?6@ 1007617c     xpcruntime:xpcimports.obj
 0002:0000519c       ??_C@_0BE@DLACEEJM@rl32eSetTargetScope@ 1007619c     xpcruntime:xpcimports.obj
 0002:000051b4       ??_C@_0BP@JCHFMKPJ@rl32eSetTargetScope?5not?5found?6@ 100761b4     xpcruntime:xpcimports.obj
 0002:000051dc       ??_C@_0BJ@LIDLNDHC@rl32eSetTargetScopeSigFt@ 100761dc     xpcruntime:xpcimports.obj
 0002:000051fc       ??_C@_0CE@JLGHCFHI@rl32eSetTargetScopeSigFt?5not?5fo@ 100761fc     xpcruntime:xpcimports.obj
 0002:00005228       ??_C@_0BI@JAPOIDNG@rl32eRestartAcquisition@ 10076228     xpcruntime:xpcimports.obj
 0002:00005244       ??_C@_0CD@LLBEFFBO@rl32eRestartAcquisition?5not?5fou@ 10076244     xpcruntime:xpcimports.obj
 0002:00005270       ??_C@_0P@IEIIADJB@xpceScopeAcqOK@ 10076270     xpcruntime:xpcimports.obj
 0002:00005284       ??_C@_0BK@NJCKNFPN@xpceScopeAcqOK?5not?5found?6@ 10076284     xpcruntime:xpcimports.obj
 0002:000052a4       ??_C@_0BA@IJINKAHF@xpceRegisterISR@ 100762a4     xpcruntime:xpcimports.obj
 0002:000052b8       ??_C@_0BL@NNDLOEJE@xpceRegisterISR?5not?5found?6@ 100762b8     xpcruntime:xpcimports.obj
 0002:000052d8       ??_C@_0BC@NLBADGKF@xpceDeRegisterISR@ 100762d8     xpcruntime:xpcimports.obj
 0002:000052f0       ??_C@_0BN@DCAIKFFD@xpceDeRegisterISR?5not?5found?6@ 100762f0     xpcruntime:xpcimports.obj
 0002:00005314       ??_C@_07JPMEPILD@xpcInpB@  10076314     xpcruntime:xpcimports.obj
 0002:00005320       ??_C@_0BD@PGABEJOL@xpcInpB?5not?5found?6@ 10076320     xpcruntime:xpcimports.obj
 0002:00005338       ??_C@_07KIHBBOKH@xpcInpW@  10076338     xpcruntime:xpcimports.obj
 0002:00005344       ??_C@_0BD@FPCJFMCC@xpcInpW?5not?5found?6@ 10076344     xpcruntime:xpcimports.obj
 0002:0000535c       ??_C@_08KDIAJBOP@xpcInpDW@ 1007635c     xpcruntime:xpcimports.obj
 0002:00005368       ??_C@_0BE@PIELDNIL@xpcInpDW?5not?5found?6@ 10076368     xpcruntime:xpcimports.obj
 0002:00005380       ??_C@_08PJFMOIGO@xpcOutpB@ 10076380     xpcruntime:xpcimports.obj
 0002:0000538c       ??_C@_0BE@HCKNCEKF@xpcOutpB?5not?5found?6@ 1007638c     xpcruntime:xpcimports.obj
 0002:000053a4       ??_C@_08MOOJAOHK@xpcOutpW@ 100763a4     xpcruntime:xpcimports.obj
 0002:000053b0       ??_C@_0BE@NLIFDBGM@xpcOutpW?5not?5found?6@ 100763b0     xpcruntime:xpcimports.obj
 0002:000053c8       ??_C@_09FLIEKHJG@xpcOutpDW@ 100763c8     xpcruntime:xpcimports.obj
 0002:000053d4       ??_C@_0BF@GJKLPNHB@xpcOutpDW?5not?5found?6@ 100763d4     xpcruntime:xpcimports.obj
 0002:000053f0       ??_C@_0BH@EHOLELHH@xpcReserveMemoryRegion@ 100763f0     xpcruntime:xpcimports.obj
 0002:0000540c       ??_C@_0CC@KAAAGPI@xpcReserveMemoryRegion?5not?5foun@ 1007640c     xpcruntime:xpcimports.obj
 0002:00005434       ??_C@_0BA@JGPMHGAF@rl32eShowPCIDev@ 10076434     xpcruntime:xpcimports.obj
 0002:00005448       ??_C@_0BL@DDFFLNHI@rl32eShowPCIDev?5not?5found?6@ 10076448     xpcruntime:xpcimports.obj
 0002:00005468       ??_C@_0BB@KBCOJPFB@rl32eShowPCIInfo@ 10076468     xpcruntime:xpcimports.obj
 0002:0000547c       ??_C@_0BM@IFDMAGLO@rl32eShowPCIInfo?5not?5found?6@ 1007647c     xpcruntime:xpcimports.obj
 0002:000054a0       ??_C@_0BA@BGPAADB@rl32eGetPCIInfo@ 100764a0     xpcruntime:xpcimports.obj
 0002:000054b4       ??_C@_0BL@IGOMLDCK@rl32eGetPCIInfo?5not?5found?6@ 100764b4     xpcruntime:xpcimports.obj
 0002:000054d4       ??_C@_0BG@NJPFKFDP@rl32eGetPCIInfoAtSlot@ 100764d4     xpcruntime:xpcimports.obj
 0002:000054f0       ??_C@_0CB@BBKIPMLA@rl32eGetPCIInfoAtSlot?5not?5found@ 100764f0     xpcruntime:xpcimports.obj
 0002:00005518       ??_C@_0BH@OKBOPNFG@xpceAssignPCIInterrupt@ 10076518     xpcruntime:xpcimports.obj
 0002:00005534       ??_C@_0CC@CDNDNJBJ@xpceAssignPCIInterrupt?5not?5foun@ 10076534     xpcruntime:xpcimports.obj
 0002:0000555c       ??_C@_0BD@PCKOKHO@xpceGetSignalValue@ 1007655c     xpcruntime:xpcimports.obj
 0002:00005574       ??_C@_0BO@GCBDJHMB@xpceGetSignalValue?5not?5found?6@ 10076574     xpcruntime:xpcimports.obj
 0002:00005598       ??_C@_0BB@BJONJAGA@xpceSetParameter@ 10076598     xpcruntime:xpcimports.obj
 0002:000055ac       ??_C@_0BM@BJIKDLHA@xpceSetParameter?5not?5found?6@ 100765ac     xpcruntime:xpcimports.obj
 0002:000055d0       ??_C@_0BB@GNFDFMCM@xpceGetParameter@ 100765d0     xpcruntime:xpcimports.obj
 0002:000055e4       ??_C@_0BM@POHNKBC@xpceGetParameter?5not?5found?6@ 100765e4     xpcruntime:xpcimports.obj
 0002:00005608       ??_C@_0BB@CEIJLFCD@xpceGetParamDims@ 10076608     xpcruntime:xpcimports.obj
 0002:0000561c       ??_C@_0BM@OABDBKAO@xpceGetParamDims?5not?5found?6@ 1007661c     xpcruntime:xpcimports.obj
 0002:00005640       ??_C@_0L@OCBLLHBM@xpceGetTET@ 10076640     xpcruntime:xpcimports.obj
 0002:00005650       ??_C@_0BG@HNOFBOB@xpceGetTET?5not?5found?6@ 10076650     xpcruntime:xpcimports.obj
 0002:0000566c       ??_C@_0P@OKGNGAGH@xpcIsModelInit@ 1007666c     xpcruntime:xpcimports.obj
 0002:00005680       ??_C@_0BK@DHEMLBIM@xpcIsModelInit?5not?5found?6@ 10076680     xpcruntime:xpcimports.obj
 0002:000056a0       ??_C@_0BH@KJJLCAOJ@xpcAllocPhysicalMemory@ 100766a0     xpcruntime:xpcimports.obj
 0002:000056bc       ??_C@_0CC@MOJPNHKL@xpcAllocPhysicalMemory?5not?5foun@ 100766bc     xpcruntime:xpcimports.obj
 0002:000056e4       ??_C@_0BG@CBNPGAEL@xpcFreePhysicalMemory@ 100766e4     xpcruntime:xpcimports.obj
 0002:00005700       ??_C@_0CB@PKJEBPOG@xpcFreePhysicalMemory?5not?5found@ 10076700     xpcruntime:xpcimports.obj
 0002:00005728       ??_C@_0BC@JGKNLICL@xpcGetElapsedTime@ 10076728     xpcruntime:xpcimports.obj
 0002:00005740       ??_C@_0BN@OEOAHCIO@xpcGetElapsedTime?5not?5found?6@ 10076740     xpcruntime:xpcimports.obj
 0002:00005764       ??_C@_0M@ICBLMODA@xpcBusyWait@ 10076764     xpcruntime:xpcimports.obj
 0002:00005774       ??_C@_0BH@FBOPECBI@xpcBusyWait?5not?5found?6@ 10076774     xpcruntime:xpcimports.obj
 0002:00005790       ??_C@_0N@LKKJEKKA@TBCreateSpin@ 10076790     xpcruntime:xpcimports.obj
 0002:000057a0       ??_C@_0BI@FHKMLKOE@TBCreateSpin?5not?5found?6@ 100767a0     xpcruntime:xpcimports.obj
 0002:000057bc       ??_C@_0N@HOAJHNBD@TBDeleteSpin@ 100767bc     xpcruntime:xpcimports.obj
 0002:000057cc       ??_C@_0BI@BKCPAAG@TBDeleteSpin?5not?5found?6@ 100767cc     xpcruntime:xpcimports.obj
 0002:000057e8       ??_C@_0P@DAHDDBJG@TBTakeSpinFast@ 100767e8     xpcruntime:xpcimports.obj
 0002:000057fc       ??_C@_0BK@NKAIBHGB@TBTakeSpinFast?5not?5found?6@ 100767fc     xpcruntime:xpcimports.obj
 0002:0000581c       ??_C@_0P@FKNAAELA@TBGiveSpinFast@ 1007681c     xpcruntime:xpcimports.obj
 0002:00005830       ??_C@_0BK@KGPJBJND@TBGiveSpinFast?5not?5found?6@ 10076830     xpcruntime:xpcimports.obj
 0002:00005850       ??_C@_0BE@IIGBFDHK@xpceCreateSemaphore@ 10076850     xpcruntime:xpcimports.obj
 0002:00005868       ??_C@_0BP@KFBAFFKJ@xpceCreateSemaphore?5not?5found?6@ 10076868     xpcruntime:xpcimports.obj
 0002:00005890       ??_C@_0BC@IFNIONKJ@xpceWaitSemaphore@ 10076890     xpcruntime:xpcimports.obj
 0002:000058a8       ??_C@_0BN@NMFAADIO@xpceWaitSemaphore?5not?5found?6@ 100768a8     xpcruntime:xpcimports.obj
 0002:000058cc       ??_C@_0BE@NNDIOBKE@xpceSignalSemaphore@ 100768cc     xpcruntime:xpcimports.obj
 0002:000058e4       ??_C@_0BP@LBANMHJP@xpceSignalSemaphore?5not?5found?6@ 100768e4     xpcruntime:xpcimports.obj
 0002:0000590c       ??_C@_0BE@MEBEKOIM@xpceDeleteSemaphore@ 1007690c     xpcruntime:xpcimports.obj
 0002:00005924       ??_C@_0BP@OFNCKOJH@xpceDeleteSemaphore?5not?5found?6@ 10076924     xpcruntime:xpcimports.obj
 0002:0000594c       ??_C@_0BD@MFNDMBOF@FindUsbVideoDevice@ 1007694c     xpcruntime:xpcimports.obj
 0002:00005964       ??_C@_0BO@POKLDHMI@FindUsbVideoDevice?5not?5found?6@ 10076964     xpcruntime:xpcimports.obj
 0002:00005988       ??_C@_0BA@PLPAPNAB@GetVideoConfigs@ 10076988     xpcruntime:xpcimports.obj
 0002:0000599c       ??_C@_0BL@DALDHKHC@GetVideoConfigs?5not?5found?6@ 1007699c     xpcruntime:xpcimports.obj
 0002:000059bc       ??_C@_0L@GBAEMHMH@StartVideo@ 100769bc     xpcruntime:xpcimports.obj
 0002:000059cc       ??_C@_0BG@HDCELEBP@StartVideo?5not?5found?6@ 100769cc     xpcruntime:xpcimports.obj
 0002:000059e8       ??_C@_0BA@FDNPOCLN@ReadFrameBuffer@ 100769e8     xpcruntime:xpcimports.obj
 0002:000059fc       ??_C@_0BL@JHGHPNBI@ReadFrameBuffer?5not?5found?6@ 100769fc     xpcruntime:xpcimports.obj
 0002:00005a1c       ??_C@_09FAHCLKAG@StopVideo@ 10076a1c     xpcruntime:xpcimports.obj
 0002:00005a28       ??_C@_0BF@NKGKKADL@StopVideo?5not?5found?6@ 10076a28     xpcruntime:xpcimports.obj
 0002:00005a44       ??_C@_0O@MCPKDLLL@ConvertUImage@ 10076a44     xpcruntime:xpcimports.obj
 0002:00005a54       ??_C@_0BJ@PHJKOAFL@ConvertUImage?5not?5found?6@ 10076a54     xpcruntime:xpcimports.obj
 0002:00005a74       ??_C@_0BD@NKCBPBJJ@CreateVideoDisplay@ 10076a74     xpcruntime:xpcimports.obj
 0002:00005a8c       ??_C@_0BO@HPPLLNFP@CreateVideoDisplay?5not?5found?6@ 10076a8c     xpcruntime:xpcimports.obj
 0002:00005ab0       ??_C@_0BE@KJCKGPHA@DestroyVideoDisplay@ 10076ab0     xpcruntime:xpcimports.obj
 0002:00005ac8       ??_C@_0BP@FMGLJAIJ@DestroyVideoDisplay?5not?5found?6@ 10076ac8     xpcruntime:xpcimports.obj
 0002:00005af0       ??_C@_0BC@HCMIMIDN@StartVideoDisplay@ 10076af0     xpcruntime:xpcimports.obj
 0002:00005b08       ??_C@_0BN@EFIEBGOO@StartVideoDisplay?5not?5found?6@ 10076b08     xpcruntime:xpcimports.obj
 0002:00005b2c       ??_C@_0BB@JBBLMILG@StopVideoDisplay@ 10076b2c     xpcruntime:xpcimports.obj
 0002:00005b40       ??_C@_0BM@DBJBPLEL@StopVideoDisplay?5not?5found?6@ 10076b40     xpcruntime:xpcimports.obj
 0002:00005b64       ??_C@_0M@MFJEGMHC@StreamVideo@ 10076b64     xpcruntime:xpcimports.obj
 0002:00005b74       ??_C@_0BH@OINCDMLA@StreamVideo?5not?5found?6@ 10076b74     xpcruntime:xpcimports.obj
 0002:00005b90       ??_C@_0N@IGGLCIGE@xpceaddEvent@ 10076b90     xpcruntime:xpcimports.obj
 0002:00005ba0       ??_C@_0BI@NHJNFMKH@xpceaddEvent?5not?5found?6@ 10076ba0     xpcruntime:xpcimports.obj
 0002:00005bbc       ??_C@_0BB@HDPOIJAB@xpceDAQPostEvent@ 10076bbc     xpcruntime:xpcimports.obj
 0002:00005bd0       ??_C@_0BM@IHANBKGN@xpceDAQPostEvent?5not?5found?6@ 10076bd0     xpcruntime:xpcimports.obj
 0002:00005bf4       ??_C@_0BH@MBACMOD@xpceDAQUpdateTimeStamp@ 10076bf4     xpcruntime:xpcimports.obj
 0002:00005c10       ??_C@_0CC@DAKBBINL@xpceDAQUpdateTimeStamp?5not?5foun@ 10076c10     xpcruntime:xpcimports.obj
 0002:00005c38       ??_C@_0BN@HJOHIFOM@xpceGetIntTimerGranularityNS@ 10076c38     xpcruntime:xpcimports.obj
 0002:00005c5c       ??_C@_0CI@OADDPMKB@xpceGetIntTimerGranularityNS?5no@ 10076c5c     xpcruntime:xpcimports.obj
 0002:00005c8c       ??_C@_0BG@CCHICKPN@slrteSetStepSizeDelta@ 10076c8c     xpcruntime:xpcimports.obj
 0002:00005ca8       ??_C@_0CB@MKHINEIJ@slrteSetStepSizeDelta?5not?5found@ 10076ca8     xpcruntime:xpcimports.obj
 0002:00005cd0       ??_C@_0BI@CLNBLDKJ@slrteGetCurrentStepSize@ 10076cd0     xpcruntime:xpcimports.obj
 0002:00005cec       ??_C@_0CD@GIOJPGJA@slrteGetCurrentStepSize?5not?5fou@ 10076cec     xpcruntime:xpcimports.obj
 0002:00005d18       ??_C@_0BE@FCLCBOC@registerPTPTimeRead@ 10076d18     xpcruntime:xpcimports.obj
 0002:00005d30       ??_C@_0BP@LHPKAJIP@registerPTPTimeRead?5not?5found?6@ 10076d30     xpcruntime:xpcimports.obj
 0002:00005d58       ??_C@_0BG@KIGCDDJI@unRegisterPTPTimeRead@ 10076d58     xpcruntime:xpcimports.obj
 0002:00005d74       ??_C@_0CB@MLFFBFCM@unRegisterPTPTimeRead?5not?5found@ 10076d74     xpcruntime:xpcimports.obj
 0002:00005d9c       ??_C@_0BB@IPMDDBHK@slTestInitialize@ 10076d9c     xpcruntime:xpcimports.obj
 0002:00005db0       ??_C@_0BM@LAJFCCJH@slTestInitialize?5not?5found?6@ 10076db0     xpcruntime:xpcimports.obj
 0002:00005dd4       ??_C@_0BF@OOMPMEBC@slTestLogAssessments@ 10076dd4     xpcruntime:xpcimports.obj
 0002:00005df0       ??_C@_0CA@FGJCEBAG@slTestLogAssessments?5not?5found?6@ 10076df0     xpcruntime:xpcimports.obj
 0002:00005e18       ??_C@_0BB@HJHKONHO@slTestEvalOnFail@ 10076e18     xpcruntime:xpcimports.obj
 0002:00005e2c       ??_C@_0BM@JIKCFFNJ@slTestEvalOnFail?5not?5found?6@ 10076e2c     xpcruntime:xpcimports.obj
 0002:00005e50       ??_C@_0BA@LBHLABFP@slTestTerminate@ 10076e50     xpcruntime:xpcimports.obj
 0002:00005e64       ??_C@_0BL@EMFGKAPA@slTestTerminate?5not?5found?6@ 10076e64     xpcruntime:xpcimports.obj
 0002:00005e84       ??_C@_0BE@JPNPBBEO@slTestRegAssessment@ 10076e84     xpcruntime:xpcimports.obj
 0002:00005e9c       ??_C@_0BP@FBDEJJJH@slTestRegAssessment?5not?5found?6@ 10076e9c     xpcruntime:xpcimports.obj
 0002:00005ec4       ??_C@_0O@NCLGDNIB@slrteSetupMSI@ 10076ec4     xpcruntime:xpcimports.obj
 0002:00005ed4       ??_C@_0BJ@HEFMECLM@slrteSetupMSI?5not?5found?6@ 10076ed4     xpcruntime:xpcimports.obj
 0002:00005ef4       ??_C@_0BH@BPOLALHD@slrtGetCRBScratchSpace@ 10076ef4     xpcruntime:xpcimports.obj
 0002:00005f10       ??_C@_0CC@KCKAJKKJ@slrtGetCRBScratchSpace?5not?5foun@ 10076f10     xpcruntime:xpcimports.obj
 0002:00005f38       ??_C@_0BC@MKFDAKOL@slrtGetSgCRBSpace@ 10076f38     xpcruntime:xpcimports.obj
 0002:00005f50       ??_C@_0BN@JDPHPLHL@slrtGetSgCRBSpace?5not?5found?6@ 10076f50     xpcruntime:xpcimports.obj
 0002:00005f74       ??_C@_0P@EPAPKLIF@slrtfsOpenFile@ 10076f74     xpcruntime:xpcimports.obj
 0002:00005f88       ??_C@_0BK@FIHCBOHG@slrtfsOpenFile?5not?5found?6@ 10076f88     xpcruntime:xpcimports.obj
 0002:00005fa8       ??_C@_0BA@LILAFDDL@slrtfsCloseFile@ 10076fa8     xpcruntime:xpcimports.obj
 0002:00005fbc       ??_C@_0BL@DEGHJFIB@slrtfsCloseFile?5not?5found?6@ 10076fbc     xpcruntime:xpcimports.obj
 0002:00005fdc       ??_C@_0BC@OKMJDIEH@slrtfsWriteToFile@ 10076fdc     xpcruntime:xpcimports.obj
 0002:00005ff4       ??_C@_0BN@KCFLCLAH@slrtfsWriteToFile?5not?5found?6@ 10076ff4     xpcruntime:xpcimports.obj
 0002:00006018       ??_C@_0BK@GIPNFFFF@slrtfsGetFileErrorMessage@ 10077018     xpcruntime:xpcimports.obj
 0002:00006038       ??_C@_0CF@BCBLMKLE@slrtfsGetFileErrorMessage?5not?5f@ 10077038     xpcruntime:xpcimports.obj
 0002:00006064       ??_C@_0BD@ICBOKMK@slrtfsGetFileError@ 10077064     xpcruntime:xpcimports.obj
 0002:0000607c       ??_C@_0BO@FNBANAE@slrtfsGetFileError?5not?5found?6@ 1007707c     xpcruntime:xpcimports.obj
 0002:000060a0       ??_C@_0BE@PPAJMHJP@slrtfsOpenFileAsync@ 100770a0     xpcruntime:xpcimports.obj
 0002:000060b8       ??_C@_0BP@HKBMMJOK@slrtfsOpenFileAsync?5not?5found?6@ 100770b8     xpcruntime:xpcimports.obj
 0002:000060e0       ??_C@_0BF@IGNDIBPF@slrtfsCloseFileAsync@ 100770e0     xpcruntime:xpcimports.obj
 0002:000060fc       ??_C@_0CA@GJPFDBKN@slrtfsCloseFileAsync?5not?5found?6@ 100770fc     xpcruntime:xpcimports.obj
 0002:00006124       ??_C@_0BE@IOLEBNB@slrtfsGetFileStatus@ 10077124     xpcruntime:xpcimports.obj
 0002:0000613c       ??_C@_0BP@PEFHDGHL@slrtfsGetFileStatus?5not?5found?6@ 1007713c     xpcruntime:xpcimports.obj
 0002:00006164       ??_C@_0M@HKIJIMG@slrtfsFread@ 10077164     xpcruntime:xpcimports.obj
 0002:00006174       ??_C@_0BH@OOKBGONO@slrtfsFread?5not?5found?6@ 10077174     xpcruntime:xpcimports.obj
 0002:00006190       ??_C@_0BE@OGCMPLAP@slrtGetDefaultDrive@ 10077190     xpcruntime:xpcimports.obj
 0002:000061a8       ??_C@_0BP@HKFGLHOE@slrtGetDefaultDrive?5not?5found?6@ 100771a8     xpcruntime:xpcimports.obj
 0002:000061d0       ??_C@_0N@NAJIKFFI@slrtLogEvent@ 100771d0     xpcruntime:xpcimports.obj
 0002:000061e0       ??_C@_0BI@NKCEACND@slrtLogEvent?5not?5found?6@ 100771e0     xpcruntime:xpcimports.obj
 0002:000061fc       ??_C@_0N@IDKFJOHI@getlasterror@ 100771fc     xpcruntime:xpcimports.obj
 0002:0000620c       ??_C@_0BI@MIHMCHGL@getlasterror?5not?5found?6@ 1007720c     xpcruntime:xpcimports.obj
 0002:00006228       ??_C@_0P@OKHGKJKN@geterrorstring@ 10077228     xpcruntime:xpcimports.obj
 0002:0000623c       ??_C@_0BK@NOHFDMLP@geterrorstring?5not?5found?6@ 1007723c     xpcruntime:xpcimports.obj
 0002:0000625c       ??_C@_0BD@HNFFKMGJ@slrtGetCPUTCelsius@ 1007725c     xpcruntime:xpcimports.obj
 0002:00006274       ??_C@_0BO@LHBFKLIH@slrtGetCPUTCelsius?5not?5found?6@ 10077274     xpcruntime:xpcimports.obj
 0002:00006298       ??_C@_0M@OONCNCLM@slrtWarning@ 10077298     xpcruntime:xpcimports.obj
 0002:000062a8       ??_C@_0BH@ICKGIEMB@slrtWarning?5not?5found?6@ 100772a8     xpcruntime:xpcimports.obj
 0002:000062c4       ??_C@_0N@EAAOMIIE@isUsedByRTIP@ 100772c4     xpcruntime:xpcimports.obj
 0002:000062d4       ??_C@_0BI@GNHHHICK@isUsedByRTIP?5not?5found?6@ 100772d4     xpcruntime:xpcimports.obj
 0002:000062f0       ??_C@_0BC@HLDKJAG@SetIPTASKPriority@ 100772f0     xpcruntime:xpcimports.obj
 0002:00006308       ??_C@_0BN@OGKMHHAE@SetIPTASKPriority?5not?5found?6@ 10077308     xpcruntime:xpcimports.obj
 0002:0000632c       ??_C@_0O@LHENMBDD@OpenInterface@ 1007732c     xpcruntime:xpcimports.obj
 0002:0000633c       ??_C@_0BJ@PFGDBKHB@OpenInterface?5not?5found?6@ 1007733c     xpcruntime:xpcimports.obj
 0002:0000635c       ??_C@_0P@IINFELKD@CloseInterface@ 1007735c     xpcruntime:xpcimports.obj
 0002:00006370       ??_C@_0BK@PAPDNDBK@CloseInterface?5not?5found?6@ 10077370     xpcruntime:xpcimports.obj
 0002:00006390       ??_C@_05LEFIAAOI@SetIP@    10077390     xpcruntime:xpcimports.obj
 0002:00006398       ??_C@_0BB@CGLIBAMM@SetIP?5not?5found?6@ 10077398     xpcruntime:xpcimports.obj
 0002:000063ac       ??_C@_0BA@HIJJHHMD@AddGatewayRoute@ 100773ac     xpcruntime:xpcimports.obj
 0002:000063c0       ??_C@_0BL@BFCFMDMN@AddGatewayRoute?5not?5found?6@ 100773c0     xpcruntime:xpcimports.obj
 0002:000063e0       ??_C@_0M@PHMABFPI@DeleteRoute@ 100773e0     xpcruntime:xpcimports.obj
 0002:000063f0       ??_C@_0BH@JPJGLLID@DeleteRoute?5not?5found?6@ 100773f0     xpcruntime:xpcimports.obj
 0002:0000640c       ??_C@_0BA@FCDIMKIJ@GetHostTarIPAdd@ 1007740c     xpcruntime:xpcimports.obj
 0002:00006420       ??_C@_0BL@MBKDGKBO@GetHostTarIPAdd?5not?5found?6@ 10077420     xpcruntime:xpcimports.obj
 0002:00006440       ??_C@_0M@HPMIPIBI@GetDCUUsage@ 10077440     xpcruntime:xpcimports.obj
 0002:00006450       ??_C@_0BH@EBLJKCJC@GetDCUUsage?5not?5found?6@ 10077450     xpcruntime:xpcimports.obj
 0002:0000646c       ??_C@_06MPKMECK@accept@    1007746c     xpcruntime:xpcimports.obj
 0002:00006474       ??_C@_0BC@GBGIEMNO@accept?5not?5found?6@ 10077474     xpcruntime:xpcimports.obj
 0002:0000648c       ??_C@_04NPNJNMMP@bind@     1007748c     xpcruntime:xpcimports.obj
 0002:00006494       ??_C@_0BA@DAJNENLO@bind?5not?5found?6@ 10077494     xpcruntime:xpcimports.obj
 0002:000064a8       ??_C@_0L@CKHNIFCM@setsockopt@ 100774a8     xpcruntime:xpcimports.obj
 0002:000064b8       ??_C@_0BG@MFIIOMFE@setsockopt?5not?5found?6@ 100774b8     xpcruntime:xpcimports.obj
 0002:000064d4       ??_C@_0M@ODDJDCDK@closesocket@ 100774d4     xpcruntime:xpcimports.obj
 0002:000064e4       ??_C@_0BH@JHGHMIL@closesocket?5not?5found?6@ 100774e4     xpcruntime:xpcimports.obj
 0002:00006500       ??_C@_07KAIBNCHO@connect@  10077500     xpcruntime:xpcimports.obj
 0002:0000650c       ??_C@_0BD@MKLLMBM@connect?5not?5found?6@ 1007750c     xpcruntime:xpcimports.obj
 0002:00006524       ??_C@_0M@PBPOCKDG@ioctlsocket@ 10077524     xpcruntime:xpcimports.obj
 0002:00006534       ??_C@_0BH@NFCNHHIH@ioctlsocket?5not?5found?6@ 10077534     xpcruntime:xpcimports.obj
 0002:00006550       ??_C@_06OODDLKLE@listen@   10077550     xpcruntime:xpcimports.obj
 0002:00006558       ??_C@_0BC@NHBILEKI@listen?5not?5found?6@ 10077558     xpcruntime:xpcimports.obj
 0002:00006570       ??_C@_08HMBBGFHE@recvfrom@ 10077570     xpcruntime:xpcimports.obj
 0002:0000657c       ??_C@_0BE@BJAJFFLF@recvfrom?5not?5found?6@ 1007757c     xpcruntime:xpcimports.obj
 0002:00006594       ??_C@_06MEPBGKEC@sendto@   10077594     xpcruntime:xpcimports.obj
 0002:0000659c       ??_C@_0BC@BHPIMDJO@sendto?5not?5found?6@ 1007759c     xpcruntime:xpcimports.obj
 0002:000065b4       ??_C@_09JKBDEEOB@inet_addr@ 100775b4     xpcruntime:xpcimports.obj
 0002:000065c0       ??_C@_0BF@HKJPGECN@inet_addr?5not?5found?6@ 100775c0     xpcruntime:xpcimports.obj
 0002:000065dc       ??_C@_06HBELJPBO@socket@   100775dc     xpcruntime:xpcimports.obj
 0002:000065e4       ??_C@_0BC@NAGFFJGA@socket?5not?5found?6@ 100775e4     xpcruntime:xpcimports.obj
 0002:000065fc       ??_C@_09ICJIFGNC@GetSocket@ 100775fc     xpcruntime:xpcimports.obj
 0002:00006608       ??_C@_0BF@KDBCKMOJ@GetSocket?5not?5found?6@ 10077608     xpcruntime:xpcimports.obj
 0002:00006624       ??_C@_0P@KJEGJMJI@GetSocketState@ 10077624     xpcruntime:xpcimports.obj
 0002:00006638       ??_C@_0BK@IALBJHEB@GetSocketState?5not?5found?6@ 10077638     xpcruntime:xpcimports.obj
 0002:00006658       ??_C@_0L@MEAJHNHB@SocketSend@ 10077658     xpcruntime:xpcimports.obj
 0002:00006668       ??_C@_0BG@EOCMBFJA@SocketSend?5not?5found?6@ 10077668     xpcruntime:xpcimports.obj
 0002:00006684       ??_C@_0O@PFPCLEMF@SocketReceive@ 10077684     xpcruntime:xpcimports.obj
 0002:00006694       ??_C@_0BJ@HIBADDFO@SocketReceive?5not?5found?6@ 10077694     xpcruntime:xpcimports.obj
 0002:000066b4       ??_C@_0BD@OOGFNAIK@CreateServerSocket@ 100776b4     xpcruntime:xpcimports.obj
 0002:000066cc       ??_C@_0BO@GKIJHIPH@CreateServerSocket?5not?5found?6@ 100776cc     xpcruntime:xpcimports.obj
 0002:000066f0       ??_C@_0BB@KGHJGFFO@OpenServerListen@ 100776f0     xpcruntime:xpcimports.obj
 0002:00006704       ??_C@_0BM@NFMMLIO@OpenServerListen?5not?5found?6@ 10077704     xpcruntime:xpcimports.obj
 0002:00006728       ??_C@_0BE@BAJLDJAH@ConnectServerSocket@ 10077728     xpcruntime:xpcimports.obj
 0002:00006740       ??_C@_0BP@KJNODIKE@ConnectServerSocket?5not?5found?6@ 10077740     xpcruntime:xpcimports.obj
 0002:00006768       ??_C@_0BC@PLKKJDIM@CloseServerSocket@ 10077768     xpcruntime:xpcimports.obj
 0002:00006780       ??_C@_0BN@KEJEPNMB@CloseServerSocket?5not?5found?6@ 10077780     xpcruntime:xpcimports.obj
 0002:000067a4       ??_C@_0BD@MCLPKCPP@CreateClientSocket@ 100777a4     xpcruntime:xpcimports.obj
 0002:000067bc       ??_C@_0BO@DILAGPFN@CreateClientSocket?5not?5found?6@ 100777bc     xpcruntime:xpcimports.obj
 0002:000067e0       ??_C@_0BB@DAPKNNLG@BindClientSocket@ 100777e0     xpcruntime:xpcimports.obj
 0002:000067f4       ??_C@_0BM@LLLMMDFN@BindClientSocket?5not?5found?6@ 100777f4     xpcruntime:xpcimports.obj
 0002:00006818       ??_C@_0BE@DMEBELHC@ConnectClientSocket@ 10077818     xpcruntime:xpcimports.obj
 0002:00006830       ??_C@_0BP@PLOHCPAO@ConnectClientSocket?5not?5found?6@ 10077830     xpcruntime:xpcimports.obj
 0002:00006858       ??_C@_0BC@NHHAOBPJ@CloseClientSocket@ 10077858     xpcruntime:xpcimports.obj
 0002:00006870       ??_C@_0BN@PGKNOKGL@CloseClientSocket?5not?5found?6@ 10077870     xpcruntime:xpcimports.obj
 0002:00006948       __pDefaultRawDllMain       10077948     LIBCMT:dll_dllmain.obj
 0002:00006948       __pRawDllMain              10077948     LIBCMT:dll_dllmain.obj
 0002:00006b40       ??_C@_08EHJDFFNH@__based?$CI@ 10077b40     libvcruntime:undname.obj
 0002:00006b4c       ??_C@_07KOLFKCDI@__cdecl@  10077b4c     libvcruntime:undname.obj
 0002:00006b58       ??_C@_08GHMPAG@__pascal@   10077b58     libvcruntime:undname.obj
 0002:00006b64       ??_C@_09IFJBGAPI@__stdcall@ 10077b64     libvcruntime:undname.obj
 0002:00006b70       ??_C@_0L@NPHFGOKO@__thiscall@ 10077b70     libvcruntime:undname.obj
 0002:00006b80       ??_C@_0L@JMKHOMEK@__fastcall@ 10077b80     libvcruntime:undname.obj
 0002:00006b90       ??_C@_0N@BCKKPABJ@__vectorcall@ 10077b90     libvcruntime:undname.obj
 0002:00006ba0       ??_C@_09HIJEGCPM@__clrcall@ 10077ba0     libvcruntime:undname.obj
 0002:00006bac       ??_C@_06GHPCKEAG@__eabi@   10077bac     libvcruntime:undname.obj
 0002:00006bb4       ??_C@_09IOPIDJLG@__swift_1@ 10077bb4     libvcruntime:undname.obj
 0002:00006bc0       ??_C@_09KFNFGKHF@__swift_2@ 10077bc0     libvcruntime:undname.obj
 0002:00006bcc       ??_C@_07JOMMBBKO@__ptr64@  10077bcc     libvcruntime:undname.obj
 0002:00006bd8       ??_C@_0L@PILCLIHE@__restrict@ 10077bd8     libvcruntime:undname.obj
 0002:00006be8       ??_C@_0M@GFIIJFMG@__unaligned@ 10077be8     libvcruntime:undname.obj
 0002:00006bf8       ??_C@_09DHDLOLLB@restrict?$CI@ 10077bf8     libvcruntime:undname.obj
 0002:00006c04       ??_C@_04NIHEBCM@?5new@     10077c04     libvcruntime:undname.obj
 0002:00006c0c       ??_C@_07FPCDHGMM@?5delete@ 10077c0c     libvcruntime:undname.obj
 0002:00006c18       ??_C@_01NEMOKFLO@?$DN@     10077c18     libvcruntime:undname.obj
 0002:00006c1c       ??_C@_02GPIOPFAK@?$DO?$DO@ 10077c1c     libvcruntime:undname.obj
 0002:00006c20       ??_C@_02FODMEDOG@?$DM?$DM@ 10077c20     libvcruntime:undname.obj
 0002:00006c24       ??_C@_01DCLJPIOD@?$CB@     10077c24     libvcruntime:undname.obj
 0002:00006c28       ??_C@_02EGOFBIJA@?$DN?$DN@ 10077c28     libvcruntime:undname.obj
 0002:00006c2c       ??_C@_02FDNJECIE@?$CB?$DN@ 10077c2c     libvcruntime:undname.obj
 0002:00006c30       ??_C@_02GPECMEKF@?$FL?$FN@ 10077c30     libvcruntime:undname.obj
 0002:00006c34       ??_C@_08LHJFAFGD@operator@ 10077c34     libvcruntime:undname.obj
 0002:00006c40       ??_C@_02HBOOOICD@?9?$DO@   10077c40     libvcruntime:undname.obj
 0002:00006c44       ??_C@_01NBENCBCI@?$CK@     10077c44     libvcruntime:undname.obj
 0002:00006c48       ??_C@_02ECNGHCIF@?$CL?$CL@ 10077c48     libvcruntime:undname.obj
 0002:00006c4c       ??_C@_02BAABKJLB@?9?9@     10077c4c     libvcruntime:undname.obj
 0002:00006c50       ??_C@_01JOAMLHOP@?9@       10077c50     libvcruntime:undname.obj
 0002:00006c54       ??_C@_01MIFGBAGJ@?$CL@     10077c54     libvcruntime:undname.obj
 0002:00006c58       ??_C@_01HNPIGOCE@?$CG@     10077c58     libvcruntime:undname.obj
 0002:00006c5c       ??_C@_03MNHNFDLC@?9?$DO?$CK@ 10077c5c     libvcruntime:undname.obj
 0002:00006c60       ??_C@_01KMDKNFGN@?1@       10077c60     libvcruntime:undname.obj
 0002:00006c64       ??_C@_01FGNFDNOH@?$CF@     10077c64     libvcruntime:undname.obj
 0002:00006c68       ??_C@_01MNNFJEPP@?$DM@     10077c68     libvcruntime:undname.obj
 0002:00006c6c       ??_C@_02EHCHHCKH@?$DM?$DN@ 10077c6c     libvcruntime:undname.obj
 0002:00006c70       ??_C@_01PPODPGHN@?$DO@     10077c70     libvcruntime:undname.obj
 0002:00006c74       ??_C@_02EEKDKGMJ@?$DO?$DN@ 10077c74     libvcruntime:undname.obj
 0002:00006c78       ??_C@_01IHBHIGKO@?0@       10077c78     libvcruntime:undname.obj
 0002:00006c7c       ??_C@_02HCKGKOFO@?$CI?$CJ@ 10077c7c     libvcruntime:undname.obj
 0002:00006c80       ??_C@_01PJKLJHI@?$HO@      10077c80     libvcruntime:undname.obj
 0002:00006c84       ??_C@_01JKBOJNNK@?$FO@     10077c84     libvcruntime:undname.obj
 0002:00006c88       ??_C@_01DNKMNLPK@?$HM@     10077c88     libvcruntime:undname.obj
 0002:00006c8c       ??_C@_02PPKAJPJL@?$CG?$CG@ 10077c8c     libvcruntime:undname.obj
 0002:00006c90       ??_C@_02NONPIBCD@?$HM?$HM@ 10077c90     libvcruntime:undname.obj
 0002:00006c94       ??_C@_02FPIMKNGF@?$CK?$DN@ 10077c94     libvcruntime:undname.obj
 0002:00006c98       ??_C@_02FOEOMHFC@?$CL?$DN@ 10077c98     libvcruntime:undname.obj
 0002:00006c9c       ??_C@_02FKMDLLOA@?9?$DN@   10077c9c     libvcruntime:undname.obj
 0002:00006ca0       ??_C@_02FJEHGPIO@?1?$DN@   10077ca0     libvcruntime:undname.obj
 0002:00006ca4       ??_C@_02FENAOKFI@?$CF?$DN@ 10077ca4     libvcruntime:undname.obj
 0002:00006ca8       ??_C@_03IKFCCPFF@?$DO?$DO?$DN@ 10077ca8     libvcruntime:undname.obj
 0002:00006cac       ??_C@_03CDNPDDLA@?$DM?$DM?$DN@ 10077cac     libvcruntime:undname.obj
 0002:00006cb0       ??_C@_02FGJGFEAB@?$CG?$DN@ 10077cb0     libvcruntime:undname.obj
 0002:00006cb4       ??_C@_02DHLNPPGH@?$HM?$DN@ 10077cb4     libvcruntime:undname.obj
 0002:00006cb8       ??_C@_02MHEGNOJ@?$FO?$DN@  10077cb8     libvcruntime:undname.obj
 0002:00006cbc       ??_C@_09IFPLHPGF@?$GAvftable?8@ 10077cbc     libvcruntime:undname.obj
 0002:00006cc8       ??_C@_09BLBHBJP@?$GAvbtable?8@ 10077cc8     libvcruntime:undname.obj
 0002:00006cd4       ??_C@_07FEEIOKP@?$GAvcall?8@ 10077cd4     libvcruntime:undname.obj
 0002:00006ce0       ??_C@_08LLFFHHDJ@?$GAtypeof?8@ 10077ce0     libvcruntime:undname.obj
 0002:00006cec       ??_C@_0BF@KDPPACIK@?$GAlocal?5static?5guard?8@ 10077cec     libvcruntime:undname.obj
 0002:00006d08       ??_C@_08OBABFOLI@?$GAstring?8@ 10077d08     libvcruntime:undname.obj
 0002:00006d14       ??_C@_0BD@JDLKDPAB@?$GAvbase?5destructor?8@ 10077d14     libvcruntime:undname.obj
 0002:00006d2c       ??_C@_0BN@DEGPLNFK@?$GAvector?5deleting?5destructor?8@ 10077d2c     libvcruntime:undname.obj
 0002:00006d50       ??_C@_0BO@OBMKPJIG@?$GAdefault?5constructor?5closure?8@ 10077d50     libvcruntime:undname.obj
 0002:00006d74       ??_C@_0BN@IMDCHIKM@?$GAscalar?5deleting?5destructor?8@ 10077d74     libvcruntime:undname.obj
 0002:00006d98       ??_C@_0BO@PFGOCPJJ@?$GAvector?5constructor?5iterator?8@ 10077d98     libvcruntime:undname.obj
 0002:00006dbc       ??_C@_0BN@LFPFMEDL@?$GAvector?5destructor?5iterator?8@ 10077dbc     libvcruntime:undname.obj
 0002:00006de0       ??_C@_0CE@IKBNEHA@?$GAvector?5vbase?5constructor?5itera@ 10077de0     libvcruntime:undname.obj
 0002:00006e0c       ??_C@_0BL@NILFHHPC@?$GAvirtual?5displacement?5map?8@ 10077e0c     libvcruntime:undname.obj
 0002:00006e2c       ??_C@_0CB@JONCMFFK@?$GAeh?5vector?5constructor?5iterator@ 10077e2c     libvcruntime:undname.obj
 0002:00006e54       ??_C@_0CA@GCEOPDGL@?$GAeh?5vector?5destructor?5iterator?8@ 10077e54     libvcruntime:undname.obj
 0002:00006e7c       ??_C@_0CH@OOJPLCPH@?$GAeh?5vector?5vbase?5constructor?5it@ 10077e7c     libvcruntime:undname.obj
 0002:00006eac       ??_C@_0BL@LLKPOHJI@?$GAcopy?5constructor?5closure?8@ 10077eac     libvcruntime:undname.obj
 0002:00006ecc       ??_C@_0BA@KBCDOMBN@?$GAudt?5returning?8@ 10077ecc     libvcruntime:undname.obj
 0002:00006ee0       ??_C@_03KLGMFNMG@?$GAEH@   10077ee0     libvcruntime:undname.obj
 0002:00006ee4       ??_C@_05KHLCHHI@?$GARTTI@  10077ee4     libvcruntime:undname.obj
 0002:00006eec       ??_C@_0BA@KKLDJDLB@?$GAlocal?5vftable?8@ 10077eec     libvcruntime:undname.obj
 0002:00006f00       ??_C@_0CE@IIHCMGGL@?$GAlocal?5vftable?5constructor?5clos@ 10077f00     libvcruntime:undname.obj
 0002:00006f2c       ??_C@_06FHBGPFGH@?5new?$FL?$FN@ 10077f2c     libvcruntime:undname.obj
 0002:00006f34       ??_C@_09LBNFPBCA@?5delete?$FL?$FN@ 10077f34     libvcruntime:undname.obj
 0002:00006f40       ??_C@_0P@HJKNJFNN@?$GAomni?5callsig?8@ 10077f40     libvcruntime:undname.obj
 0002:00006f54       ??_C@_0BL@CNOONJFP@?$GAplacement?5delete?5closure?8@ 10077f54     libvcruntime:undname.obj
 0002:00006f74       ??_C@_0BN@CKNJLHMB@?$GAplacement?5delete?$FL?$FN?5closure?8@ 10077f74     libvcruntime:undname.obj
 0002:00006f98       ??_C@_0CG@CFDHKGGD@?$GAmanaged?5vector?5constructor?5ite@ 10077f98     libvcruntime:undname.obj
 0002:00006fc8       ??_C@_0CF@IMGKMJNO@?$GAmanaged?5vector?5destructor?5iter@ 10077fc8     libvcruntime:undname.obj
 0002:00006ff4       ??_C@_0CG@HLDDJMAG@?$GAeh?5vector?5copy?5constructor?5ite@ 10077ff4     libvcruntime:undname.obj
 0002:00007024       ??_C@_0CM@FCBBDIGB@?$GAeh?5vector?5vbase?5copy?5construct@ 10078024     libvcruntime:undname.obj
 0002:00007058       ??_C@_0BL@CLIPGLGB@?$GAdynamic?5initializer?5for?5?8@ 10078058     libvcruntime:undname.obj
 0002:00007078       ??_C@_0CB@PDBIFEP@?$GAdynamic?5atexit?5destructor?5for?5@ 10078078     libvcruntime:undname.obj
 0002:000070a0       ??_C@_0CD@CGAJBKEJ@?$GAvector?5copy?5constructor?5iterat@ 100780a0     libvcruntime:undname.obj
 0002:000070cc       ??_C@_0CJ@GJELGAMM@?$GAvector?5vbase?5copy?5constructor?5@ 100780cc     libvcruntime:undname.obj
 0002:00007100       ??_C@_0CL@FGIJHLCE@?$GAmanaged?5vector?5copy?5constructo@ 10078100     libvcruntime:undname.obj
 0002:00007134       ??_C@_0BM@PMGGMLDN@?$GAlocal?5static?5thread?5guard?8@ 10078134     libvcruntime:undname.obj
 0002:00007158       ??_C@_0N@BDNMDMOL@operator?5?$CC?$CC?5@ 10078158     libvcruntime:undname.obj
 0002:00007168       ??_C@_0BC@GGEBGALA@operator?5co_await@ 10078168     libvcruntime:undname.obj
 0002:00007180       ??_C@_0BC@DAFEJGAK@?5Type?5Descriptor?8@ 10078180     libvcruntime:undname.obj
 0002:00007198       ??_C@_0BM@LDKODKLH@?5Base?5Class?5Descriptor?5at?5?$CI@ 10078198     libvcruntime:undname.obj
 0002:000071bc       ??_C@_0BD@LGICGFMM@?5Base?5Class?5Array?8@ 100781bc     libvcruntime:undname.obj
 0002:000071d4       ??_C@_0BN@MECKDCOJ@?5Class?5Hierarchy?5Descriptor?8@ 100781d4     libvcruntime:undname.obj
 0002:000071f8       ??_C@_0BK@CFCOFLF@?5Complete?5Object?5Locator?8@ 100781f8     libvcruntime:undname.obj
 0002:00007218       ??_C@_04HEJADOOB@CV?3?5@   10078218     libvcruntime:undname.obj
 0002:00007220       ??_C@_02MOLJINC@?3?3@      10078220     libvcruntime:undname.obj
 0002:00007224       ??_C@_0BE@JAEOCHPE@template?9parameter?9@ 10078224     libvcruntime:undname.obj
 0002:0000723c       ??_C@_0O@KHGCOMHP@generic?9type?9@ 1007823c     libvcruntime:undname.obj
 0002:0000724c       ??_C@_01NLNLIGKH@?$GA@     1007824c     libvcruntime:undname.obj
 0002:00007250       ??_C@_01GEODFPGF@?8@       10078250     libvcruntime:undname.obj
 0002:00007254       ??_C@_0BG@JNJLAMPM@?$GAanonymous?5namespace?8@ 10078254     libvcruntime:undname.obj
 0002:00007270       ??_C@_02OHHJMEON@?8?8@     10078270     libvcruntime:undname.obj
 0002:00007274       ??_C@_0BN@IBLMMFAP@?$GAnon?9type?9template?9parameter@ 10078274     libvcruntime:undname.obj
 0002:00007298       ??_C@_04GKJNKENE@void@     10078298     libvcruntime:undname.obj
 0002:000072a0       ??_C@_0BE@EODMJLIF@?$GAtemplate?9parameter@ 100782a0     libvcruntime:undname.obj
 0002:000072b8       ??_C@_03KHICJKCI@?4?4?4@   100782b8     libvcruntime:undname.obj
 0002:000072bc       ??_C@_04HIBGFPH@NULL@      100782bc     libvcruntime:undname.obj
 0002:000072c4       ??_C@_02DPKJAMEF@?$CFd@    100782c4     libvcruntime:undname.obj
 0002:000072c8       ??_C@_0BK@IHCCFNEL@?$GAtemplate?9type?9parameter?9@ 100782c8     libvcruntime:undname.obj
 0002:000072e8       ??_C@_0BK@OFCNNNKO@?$GAgeneric?9class?9parameter?9@ 100782e8     libvcruntime:undname.obj
 0002:00007308       ??_C@_0BL@NGJBLFIL@?$GAgeneric?9method?9parameter?9@ 10078308     libvcruntime:undname.obj
 0002:00007328       ??_C@_03OPGICMGF@?$HN?8?5@ 10078328     libvcruntime:undname.obj
 0002:0000732c       ??_C@_02IGFCGPIL@?$HN?8@   1007832c     libvcruntime:undname.obj
 0002:00007330       ??_C@_01CLKCMJKC@?5@       10078330     libvcruntime:undname.obj
 0002:00007334       ??_C@_0N@CBHHHENL@?$GAvtordispex?$HL@ 10078334     libvcruntime:undname.obj
 0002:00007344       ??_C@_0L@GHPFDFH@?$GAvtordisp?$HL@ 10078344     libvcruntime:undname.obj
 0002:00007354       ??_C@_0L@HNGCOGAE@?$GAadjustor?$HL@ 10078354     libvcruntime:undname.obj
 0002:00007364       ??_C@_0CB@KJDOOODE@?$GAlocal?5static?5destructor?5helper@ 10078364     libvcruntime:undname.obj
 0002:0000738c       ??_C@_0DB@ILEFOCIJ@?$GAtemplate?5static?5data?5member?5co@ 1007838c     libvcruntime:undname.obj
 0002:000073c8       ??_C@_0DA@HGFJFBBE@?$GAtemplate?5static?5data?5member?5de@ 100783c8     libvcruntime:undname.obj
 0002:00007404       ??_C@_07PGOEDBHP@static?5@ 10078404     libvcruntime:undname.obj
 0002:00007410       ??_C@_08NIEOINHE@virtual?5@ 10078410     libvcruntime:undname.obj
 0002:0000741c       ??_C@_09LAPHOOG@private?3?5@ 1007841c     libvcruntime:undname.obj
 0002:00007428       ??_C@_0M@GAIFPFIP@protected?3?5@ 10078428     libvcruntime:undname.obj
 0002:00007438       ??_C@_08GPDDCMKI@public?3?5@ 10078438     libvcruntime:undname.obj
 0002:00007444       ??_C@_08KJLFOPNE@?$FLthunk?$FN?3@ 10078444     libvcruntime:undname.obj
 0002:00007450       ??_C@_0M@DHNBOJMP@extern?5?$CCC?$CC?5@ 10078450     libvcruntime:undname.obj
 0002:00007460       ??_C@_02KCKGHPCA@?$CJ?5@   10078460     libvcruntime:undname.obj
 0002:00007464       ??_C@_05CIHEBHNO@char?5@   10078464     libvcruntime:undname.obj
 0002:0000746c       ??_C@_06EHJMALKF@short?5@  1007846c     libvcruntime:undname.obj
 0002:00007474       ??_C@_04LAHKHJMA@int?5@    10078474     libvcruntime:undname.obj
 0002:0000747c       ??_C@_05CJIMAING@long?5@   1007847c     libvcruntime:undname.obj
 0002:00007484       ??_C@_09EBBEKKIH@unsigned?5@ 10078484     libvcruntime:undname.obj
 0002:00007490       ??_C@_05BEFAKPML@void?5@   10078490     libvcruntime:undname.obj
 0002:00007498       ??_C@_08PABEKFH@volatile@  10078498     libvcruntime:undname.obj
 0002:000074a4       ??_C@_0BA@LKIJLKPP@std?3?3nullptr_t?5@ 100784a4     libvcruntime:undname.obj
 0002:000074b8       ??_C@_0P@GCOCNKDM@std?3?3nullptr_t@ 100784b8     libvcruntime:undname.obj
 0002:000074cc       ??_C@_0L@EGPHHEKN@?$DMellipsis?$DO@ 100784cc     libvcruntime:undname.obj
 0002:000074dc       ??_C@_04EENFHACM@?0?4?4?4@ 100784dc     libvcruntime:undname.obj
 0002:000074e4       ??_C@_0M@ELJOJFFH@?0?$DMellipsis?$DO@ 100784e4     libvcruntime:undname.obj
 0002:000074f4       ??_C@_09DNHFEOJI@?5noexcept@ 100784f4     libvcruntime:undname.obj
 0002:00007500       ??_C@_03PBJBJNON@cpu@      10078500     libvcruntime:undname.obj
 0002:00007504       ??_C@_03DCBBJBAA@amp@      10078504     libvcruntime:undname.obj
 0002:00007508       ??_C@_02KEGNLNML@?0?5@     10078508     libvcruntime:undname.obj
 0002:0000750c       ??_C@_04ENMBGAPA@char@     1007850c     libvcruntime:undname.obj
 0002:00007514       ??_C@_05BFKKPKCG@short@    10078514     libvcruntime:undname.obj
 0002:0000751c       ??_C@_03JBIPMCLC@int@      1007851c     libvcruntime:undname.obj
 0002:00007520       ??_C@_04GOKPGOLB@long@     10078520     libvcruntime:undname.obj
 0002:00007528       ??_C@_04DDKJGDCM@bool@     10078528     libvcruntime:undname.obj
 0002:00007530       ??_C@_06EBGKOKIG@__int8@   10078530     libvcruntime:undname.obj
 0002:00007538       ??_C@_07ICFHOGAF@__int16@  10078538     libvcruntime:undname.obj
 0002:00007544       ??_C@_07OFLPPHGP@__int32@  10078544     libvcruntime:undname.obj
 0002:00007550       ??_C@_07LFCOJCAC@__int64@  10078550     libvcruntime:undname.obj
 0002:0000755c       ??_C@_08GAHOLHEO@__int128@ 1007855c     libvcruntime:undname.obj
 0002:00007568       ??_C@_09EEKGDCPH@?$DMunknown?$DO@ 10078568     libvcruntime:undname.obj
 0002:00007574       ??_C@_08HBIPOFJB@char16_t@ 10078574     libvcruntime:undname.obj
 0002:00007580       ??_C@_08IECNCBKG@char32_t@ 10078580     libvcruntime:undname.obj
 0002:0000758c       ??_C@_07CLGGIAMF@wchar_t@  1007858c     libvcruntime:undname.obj
 0002:00007598       ??_C@_06GCICPBLB@__w64?5@  10078598     libvcruntime:undname.obj
 0002:000075a0       ??_C@_07NFANNNEC@UNKNOWN@  100785a0     libvcruntime:undname.obj
 0002:000075ac       ??_C@_07EDHNAJHC@signed?5@ 100785ac     libvcruntime:undname.obj
 0002:000075b8       ??_C@_05BNCCCJPP@const@    100785b8     libvcruntime:undname.obj
 0002:000075c0       ??_C@_09EFNPDFFP@?5volatile@ 100785c0     libvcruntime:undname.obj
 0002:000075cc       ??_C@_0P@GCIFDJCJ@?$GAunknown?5ecsu?8@ 100785cc     libvcruntime:undname.obj
 0002:000075e0       ??_C@_06MOJHIBMG@union?5@  100785e0     libvcruntime:undname.obj
 0002:000075e8       ??_C@_07DIBCDNGL@struct?5@ 100785e8     libvcruntime:undname.obj
 0002:000075f4       ??_C@_06LJBABKPM@class?5@  100785f4     libvcruntime:undname.obj
 0002:000075fc       ??_C@_08KOFANOFK@coclass?5@ 100785fc     libvcruntime:undname.obj
 0002:00007608       ??_C@_0N@DLIEFKNA@cointerface?5@ 10078608     libvcruntime:undname.obj
 0002:00007618       ??_C@_05LJGMCFOG@enum?5@   10078618     libvcruntime:undname.obj
 0002:00007620       ??_C@_09GAIEOBLP@volatile?5@ 10078620     libvcruntime:undname.obj
 0002:0000762c       ??_C@_06LIJLOJAG@const?5@  1007862c     libvcruntime:undname.obj
 0002:00007634       ??_C@_02KJPKDIBN@?$CG?5@   10078634     libvcruntime:undname.obj
 0002:00007638       ??_C@_03PCKGMOPB@?$CG?$CG?5@ 10078638     libvcruntime:undname.obj
 0002:0000763c       ??_C@_0M@EALIELKG@cli?3?3array?$DM@ 1007863c     libvcruntime:undname.obj
 0002:0000764c       ??_C@_0O@GKABPPIF@cli?3?3pin_ptr?$DM@ 1007864c     libvcruntime:undname.obj
 0002:0000765c       ??_C@_02GOGNNPBN@?$CJ?$FL@ 1007865c     libvcruntime:undname.obj
 0002:00007660       ??_C@_06EEGAIFAK@?$HLflat?$HN@ 10078660     libvcruntime:undname.obj
 0002:00007668       ??_C@_05JIBOFOHK@?$HLfor?5@ 10078668     libvcruntime:undname.obj
 0002:00007670       ??_C@_02MDINNEEG@s?5@      10078670     libvcruntime:undname.obj
 0002:00007678       ??_7DNameNode@@6B@         10078678     libvcruntime:undname.obj
 0002:0000768c       ??_7charNode@@6B@          1007868c     libvcruntime:undname.obj
 0002:000076a0       ??_7pcharNode@@6B@         100786a0     libvcruntime:undname.obj
 0002:000076b4       ??_7pDNameNode@@6B@        100786b4     libvcruntime:undname.obj
 0002:000076c8       ??_7DNameStatusNode@@6B@   100786c8     libvcruntime:undname.obj
 0002:000076dc       ??_7pairNode@@6B@          100786dc     libvcruntime:undname.obj
 0002:000076ec       ??_C@_04OKOHEJBO@?5?$DP?$DP?5@ 100786ec     libvcruntime:undname.obj
 0002:000076f4       ?nodes@?1??make@DNameStatusNode@@SAPBV2@W4DNameStatus@@@Z@4QBV2@B 100786f4     libvcruntime:undname.obj
 0002:00007740       ??_C@_1DM@KHCHBNEB@?$AAa?$AAp?$AAi?$AA?9?$AAm?$AAs?$AA?9?$AAw?$AAi?$AAn?$AA?9?$AAc?$AAo?$AAr?$AAe@ 10078740     libvcruntime:winapi_downlevel.obj
 0002:00007788       ??_C@_1DK@LPPGFMPP@?$AAa?$AAp?$AAi?$AA?9?$AAm?$AAs?$AA?9?$AAw?$AAi?$AAn?$AA?9?$AAc?$AAo?$AAr?$AAe@ 10078788     libvcruntime:winapi_downlevel.obj
 0002:000077d0       ??_C@_1BC@GDMECMAK@?$AAk?$AAe?$AAr?$AAn?$AAe?$AAl?$AA3?$AA2@ 100787d0     libvcruntime:winapi_downlevel.obj
 0002:000077e8       ??_C@_1BA@PFFKHIOG@?$AAa?$AAp?$AAi?$AA?9?$AAm?$AAs?$AA?9@ 100787e8     libvcruntime:winapi_downlevel.obj
 0002:000077fc       ??_C@_1BA@IAIFMGEF@?$AAe?$AAx?$AAt?$AA?9?$AAm?$AAs?$AA?9@ 100787fc     libvcruntime:winapi_downlevel.obj
 0002:0000781c       ??_C@_08KNHFBNJ@FlsAlloc@  1007881c     libvcruntime:winapi_downlevel.obj
 0002:00007834       ??_C@_07PEJMOBNF@FlsFree@  10078834     libvcruntime:winapi_downlevel.obj
 0002:0000784c       ??_C@_0M@GDNOONDI@FlsGetValue@ 1007884c     libvcruntime:winapi_downlevel.obj
 0002:00007868       ??_C@_0M@JCPCPOEF@FlsSetValue@ 10078868     libvcruntime:winapi_downlevel.obj
 0002:00007884       ??_C@_0BM@HCFOFFN@InitializeCriticalSectionEx@ 10078884     libvcruntime:winapi_downlevel.obj
 0002:000078ac       ??_7exception@std@@6B@     100788ac     libvcruntime:frame.obj
 0002:000078b8       ??_C@_0BC@EOODALEL@Unknown?5exception@ 100788b8     libvcruntime:frame.obj
 0002:000078d4       ??_7bad_exception@std@@6B@ 100788d4     libvcruntime:frame.obj
 0002:000078e0       ??_C@_0O@DPKOEFFH@bad?5exception@ 100788e0     libvcruntime:frame.obj
 0002:000078f0       __pDestructExceptionObject 100788f0     libvcruntime:ehhelpers.obj
 0002:0000791c       ??_C@_0CK@CFPGFGGO@Assertion?5failed?3?5?$CFTs?0?5file?5?$CFTs?0@ 1007891c     libucrt:assert.obj
 0002:00007950       ??_C@_1FE@LHBLIKM@?$AAA?$AAs?$AAs?$AAe?$AAr?$AAt?$AAi?$AAo?$AAn?$AA?5?$AAf?$AAa?$AAi?$AAl?$AAe?$AAd?$AA?3?$AA?5?$AA?$CF?$AAT?$AAs?$AA?0?$AA?5?$AAf?$AAi?$AAl?$AAe?$AA?5?$AA?$CF?$AAT?$AAs?$AA?0@ 10078950     libucrt:assert.obj
 0002:000079b4       ??_C@_0CF@GOGNBNAK@Microsoft?5Visual?5C?$CL?$CL?5Runtime?5Lib@ 100789b4     libucrt:assert.obj
 0002:000079e0       ??_C@_1EK@MBDPDCGA@?$AAM?$AAi?$AAc?$AAr?$AAo?$AAs?$AAo?$AAf?$AAt?$AA?5?$AAV?$AAi?$AAs?$AAu?$AAa?$AAl?$AA?5?$AAC?$AA?$CL?$AA?$CL?$AA?5?$AAR?$AAu?$AAn?$AAt?$AAi?$AAm?$AAe?$AA?5?$AAL?$AAi?$AAb@ 100789e0     libucrt:assert.obj
 0002:00007a38       ??_C@_0BC@LAIDCHCH@Assertion?5failed?$CB?$AA@ 10078a38     libucrt:assert.obj
 0002:00007a50       ??_C@_1CE@OJBNHDMO@?$AAA?$AAs?$AAs?$AAe?$AAr?$AAt?$AAi?$AAo?$AAn?$AA?5?$AAf?$AAa?$AAi?$AAl?$AAe?$AAd?$AA?$CB?$AA?$AA@ 10078a50     libucrt:assert.obj
 0002:00007a7c       ??_C@_09KLGCKDOD@Program?3?5?$AA@ 10078a7c     libucrt:assert.obj
 0002:00007a88       ??_C@_1BE@PHKBBGE@?$AAP?$AAr?$AAo?$AAg?$AAr?$AAa?$AAm?$AA?3?$AA?5?$AA?$AA@ 10078a88     libucrt:assert.obj
 0002:00007aa0       ??_C@_06IGPBOHMJ@File?3?5?$AA@ 10078aa0     libucrt:assert.obj
 0002:00007aa8       ??_C@_1O@HEMHKNDC@?$AAF?$AAi?$AAl?$AAe?$AA?3?$AA?5?$AA?$AA@ 10078aa8     libucrt:assert.obj
 0002:00007ab8       ??_C@_06FIEBOLOH@Line?3?5?$AA@ 10078ab8     libucrt:assert.obj
 0002:00007ac0       ??_C@_1O@KCAFKHJE@?$AAL?$AAi?$AAn?$AAe?$AA?3?$AA?5?$AA?$AA@ 10078ac0     libucrt:assert.obj
 0002:00007ad0       ??_C@_0N@MEECIJGN@Expression?3?5?$AA@ 10078ad0     libucrt:assert.obj
 0002:00007ae0       ??_C@_1BK@PEDCIPMA@?$AAE?$AAx?$AAp?$AAr?$AAe?$AAs?$AAs?$AAi?$AAo?$AAn?$AA?3?$AA?5?$AA?$AA@ 10078ae0     libucrt:assert.obj
 0002:00007b00       ??_C@_0HA@OJHAGA@For?5information?5on?5how?5your?5prog@ 10078b00     libucrt:assert.obj
 0002:00007b88       ??_C@_1OA@EGMLFBHJ@?$AAF?$AAo?$AAr?$AA?5?$AAi?$AAn?$AAf?$AAo?$AAr?$AAm?$AAa?$AAt?$AAi?$AAo?$AAn?$AA?5?$AAo?$AAn?$AA?5?$AAh?$AAo?$AAw?$AA?5?$AAy?$AAo?$AAu?$AAr?$AA?5?$AAp?$AAr?$AAo?$AAg@ 10078b88     libucrt:assert.obj
 0002:00007c94       ??_C@_0DN@EBBNMLME@?$CIPress?5Retry?5to?5debug?5the?5applic@ 10078c94     libucrt:assert.obj
 0002:00007ce0       ??_C@_1HK@POCJMFGK@?$AA?$CI?$AAP?$AAr?$AAe?$AAs?$AAs?$AA?5?$AAR?$AAe?$AAt?$AAr?$AAy?$AA?5?$AAt?$AAo?$AA?5?$AAd?$AAe?$AAb?$AAu?$AAg?$AA?5?$AAt?$AAh?$AAe?$AA?5?$AAa?$AAp?$AAp?$AAl?$AAi?$AAc@ 10078ce0     libucrt:assert.obj
 0002:00007d74       ??_C@_03KHICJKCI@?4?4?4?$AA@ 10078d74     libucrt:assert.obj
 0002:00007d78       ??_C@_17LGKOMLJ@?$AA?4?$AA?4?$AA?4?$AA?$AA@ 10078d78     libucrt:assert.obj
 0002:00007d84       ??_C@_01EEMJAFIK@?6?$AA@   10078d84     libucrt:assert.obj
 0002:00007d88       ??_C@_13LBAGMAIH@?$AA?6?$AA?$AA@ 10078d88     libucrt:assert.obj
 0002:00007d8c       ??_C@_02PHMGELLB@?6?6?$AA@ 10078d8c     libucrt:assert.obj
 0002:00007d90       ??_C@_15IABLJNFO@?$AA?6?$AA?6?$AA?$AA@ 10078d90     libucrt:assert.obj
 0002:00007d98       ??_C@_0BH@DNAGHKFM@?$DMprogram?5name?5unknown?$DO?$AA@ 10078d98     libucrt:assert.obj
 0002:00007db4       ??_C@_1CO@EAEJAADC@?$AA?$DM?$AAp?$AAr?$AAo?$AAg?$AAr?$AAa?$AAm?$AA?5?$AAn?$AAa?$AAm?$AAe?$AA?5?$AAu?$AAn?$AAk?$AAn?$AAo?$AAw?$AAn?$AA?$DO?$AA?$AA@ 10078db4     libucrt:assert.obj
 0002:00007dec       _RtlNtPathSeperatorString  10078dec     libucrt:exit.obj
 0002:00007df8       ??_C@_13FPGAJAPJ@?$AA?2?$AA?$AA@ 10078df8     libucrt:exit.obj
 0002:00007dfc       _RtlDosPathSeperatorsString 10078dfc     libucrt:exit.obj
 0002:00007e08       ??_C@_15MNCACJLI@?$AA?2?$AA?1?$AA?$AA@ 10078e08     libucrt:exit.obj
 0002:00007e10       _RtlAlternateDosPathSeperatorString 10078e10     libucrt:exit.obj
 0002:00007e1c       ??_C@_13CGOKJPIL@?$AA?1?$AA?$AA@ 10078e1c     libucrt:exit.obj
 0002:00007e20       ??_C@_1BI@BGOHAHKC@?$AAm?$AAs?$AAc?$AAo?$AAr?$AAe?$AAe?$AA?4?$AAd?$AAl?$AAl?$AA?$AA@ 10078e20     libucrt:exit.obj
 0002:00007e3c       ??_C@_0P@MIGLKIOC@CorExitProcess?$AA@ 10078e3c     libucrt:exit.obj
 0002:00007e50       _standard_lookup_table     10078e50     libucrt:output.obj
 0002:00007ec0       _format_validation_lookup_table 10078ec0     libucrt:output.obj
 0002:00007f30       ??_C@_1O@CEDCILHN@?$AA?$CI?$AAn?$AAu?$AAl?$AAl?$AA?$CJ?$AA?$AA@ 10078f30     libucrt:output.obj
 0002:00007f40       ??_C@_06OJHGLDPL@?$CInull?$CJ?$AA@ 10078f40     libucrt:output.obj
 0002:00007f48       __real@0000000000000000    10078f48     libucrt:ldexp.obj
 0002:00008070       ??_C@_03KHJOGHMM@exp?$AA@  10079070     libucrt:fpexcept.obj
 0002:00008074       ??_C@_03JGHBODFD@pow?$AA@  10079074     libucrt:fpexcept.obj
 0002:00008078       ??_C@_03MGHMBJCF@log?$AA@  10079078     libucrt:fpexcept.obj
 0002:0000807c       ??_C@_05HGHHAHAP@log10?$AA@ 1007907c     libucrt:fpexcept.obj
 0002:00008084       ??_C@_04COOMCNPB@sinh?$AA@ 10079084     libucrt:fpexcept.obj
 0002:0000808c       ??_C@_04HPJJNFIM@cosh?$AA@ 1007908c     libucrt:fpexcept.obj
 0002:00008094       ??_C@_04FJHINJAO@tanh?$AA@ 10079094     libucrt:fpexcept.obj
 0002:0000809c       ??_C@_04FIHNOPOL@asin?$AA@ 1007909c     libucrt:fpexcept.obj
 0002:000080a4       ??_C@_04PDIFKINK@acos?$AA@ 100790a4     libucrt:fpexcept.obj
 0002:000080ac       ??_C@_04MLLJIGOK@atan?$AA@ 100790ac     libucrt:fpexcept.obj
 0002:000080b4       ??_C@_05KNGEOGJB@atan2?$AA@ 100790b4     libucrt:fpexcept.obj
 0002:000080bc       ??_C@_04EIAKFFMI@sqrt?$AA@ 100790bc     libucrt:fpexcept.obj
 0002:000080c4       ??_C@_03BLEJJJBH@sin?$AA@  100790c4     libucrt:fpexcept.obj
 0002:000080c8       ??_C@_03LALBNOCG@cos?$AA@  100790c8     libucrt:fpexcept.obj
 0002:000080cc       ??_C@_03IIINPABG@tan?$AA@  100790cc     libucrt:fpexcept.obj
 0002:000080d0       ??_C@_04GFPJNGEK@ceil?$AA@ 100790d0     libucrt:fpexcept.obj
 0002:000080d8       ??_C@_05PBJFFIGL@floor?$AA@ 100790d8     libucrt:fpexcept.obj
 0002:000080e0       ??_C@_04ODHECPBC@fabs?$AA@ 100790e0     libucrt:fpexcept.obj
 0002:000080e8       ??_C@_04EHEDPDJG@modf?$AA@ 100790e8     libucrt:fpexcept.obj
 0002:000080f0       ??_C@_05CEJMAHNP@ldexp?$AA@ 100790f0     libucrt:fpexcept.obj
 0002:000080f8       ??_C@_05KBKMEMPO@_cabs?$AA@ 100790f8     libucrt:fpexcept.obj
 0002:00008100       ??_C@_06MEIMCGCF@_hypot?$AA@ 10079100     libucrt:fpexcept.obj
 0002:00008108       ??_C@_04KEPJIHGP@fmod?$AA@ 10079108     libucrt:fpexcept.obj
 0002:00008110       ??_C@_05GKKHEGJL@frexp?$AA@ 10079110     libucrt:fpexcept.obj
 0002:00008118       ??_C@_03MJLDFKDL@_y0?$AA@  10079118     libucrt:fpexcept.obj
 0002:0000811c       ??_C@_03NAKIGLHK@_y1?$AA@  1007911c     libucrt:fpexcept.obj
 0002:00008120       ??_C@_03ONILCKOB@_yn?$AA@  10079120     libucrt:fpexcept.obj
 0002:00008124       ??_C@_05JGDBENOH@_logb?$AA@ 10079124     libucrt:fpexcept.obj
 0002:0000812c       ??_C@_0L@KDOEJCKC@_nextafter?$AA@ 1007912c     libucrt:fpexcept.obj
 0002:00008140       ___acrt_exception_action_table 10079140     libucrt:exception_filter.obj
 0002:000081ec       ___acrt_signal_action_table_count 100791ec     libucrt:exception_filter.obj
 0002:000081f0       ___acrt_signal_action_table_size 100791f0     libucrt:exception_filter.obj
 0002:000081f4       ___acrt_signal_action_first_fpe_index 100791f4     libucrt:exception_filter.obj
 0002:000081f8       ___acrt_signal_action_fpe_count 100791f8     libucrt:exception_filter.obj
 0002:0000829c       __Fenv1                    1007929c     libucrt:atox.obj
 0002:000082a8       ??_C@_1DE@JNGNBFGO@?$AAR?$AAu?$AAn?$AAt?$AAi?$AAm?$AAe?$AA?5?$AAE?$AAr?$AAr?$AAo?$AAr?$AA?$CB?$AA?6?$AA?6?$AAP?$AAr?$AAo?$AAg?$AAr?$AAa?$AAm?$AA?3?$AA?5?$AA?$AA@ 100792a8     libucrt:report_runtime_error.obj
 0002:000084f0       ??_C@_1EA@JGEFHKEI@?$AAa?$AAp?$AAi?$AA?9?$AAm?$AAs?$AA?9?$AAw?$AAi?$AAn?$AA?9?$AAc?$AAo?$AAr?$AAe?$AA?9?$AAd?$AAa?$AAt?$AAe?$AAt?$AAi?$AAm?$AAe?$AA?9?$AAl?$AA1?$AA?9?$AA1?$AA?9?$AA1?$AA?$AA@ 100794f0     libucrt:winapi_thunks.obj
 0002:0000853c       ??_C@_1DM@KHCHBNEB@?$AAa?$AAp?$AAi?$AA?9?$AAm?$AAs?$AA?9?$AAw?$AAi?$AAn?$AA?9?$AAc?$AAo?$AAr?$AAe?$AA?9?$AAf?$AAi?$AAb?$AAe?$AAr?$AAs?$AA?9?$AAl?$AA1?$AA?9?$AA1?$AA?9?$AA1?$AA?$AA@ 1007953c     libucrt:winapi_thunks.obj
 0002:00008584       ??_C@_1DI@IJCEHOCB@?$AAa?$AAp?$AAi?$AA?9?$AAm?$AAs?$AA?9?$AAw?$AAi?$AAn?$AA?9?$AAc?$AAo?$AAr?$AAe?$AA?9?$AAf?$AAi?$AAl?$AAe?$AA?9?$AAl?$AA1?$AA?9?$AA2?$AA?9?$AA2?$AA?$AA@ 10079584     libucrt:winapi_thunks.obj
 0002:000085c8       ??_C@_1EI@MPIAOHOC@?$AAa?$AAp?$AAi?$AA?9?$AAm?$AAs?$AA?9?$AAw?$AAi?$AAn?$AA?9?$AAc?$AAo?$AAr?$AAe?$AA?9?$AAl?$AAo?$AAc?$AAa?$AAl?$AAi?$AAz?$AAa?$AAt?$AAi?$AAo?$AAn?$AA?9?$AAl?$AA1?$AA?9@ 100795c8     libucrt:winapi_thunks.obj
 0002:00008620       ??_C@_1FK@FPHCKFIE@?$AAa?$AAp?$AAi?$AA?9?$AAm?$AAs?$AA?9?$AAw?$AAi?$AAn?$AA?9?$AAc?$AAo?$AAr?$AAe?$AA?9?$AAl?$AAo?$AAc?$AAa?$AAl?$AAi?$AAz?$AAa?$AAt?$AAi?$AAo?$AAn?$AA?9?$AAo?$AAb?$AAs@ 10079620     libucrt:winapi_thunks.obj
 0002:00008690       ??_C@_1EM@DILCGIIO@?$AAa?$AAp?$AAi?$AA?9?$AAm?$AAs?$AA?9?$AAw?$AAi?$AAn?$AA?9?$AAc?$AAo?$AAr?$AAe?$AA?9?$AAp?$AAr?$AAo?$AAc?$AAe?$AAs?$AAs?$AAt?$AAh?$AAr?$AAe?$AAa?$AAd?$AAs?$AA?9?$AAl@ 10079690     libucrt:winapi_thunks.obj
 0002:000086ec       ??_C@_1DM@LNCGDDPN@?$AAa?$AAp?$AAi?$AA?9?$AAm?$AAs?$AA?9?$AAw?$AAi?$AAn?$AA?9?$AAc?$AAo?$AAr?$AAe?$AA?9?$AAs?$AAt?$AAr?$AAi?$AAn?$AAg?$AA?9?$AAl?$AA1?$AA?9?$AA1?$AA?9?$AA0?$AA?$AA@ 100796ec     libucrt:winapi_thunks.obj
 0002:00008734       ??_C@_1DK@LPPGFMPP@?$AAa?$AAp?$AAi?$AA?9?$AAm?$AAs?$AA?9?$AAw?$AAi?$AAn?$AA?9?$AAc?$AAo?$AAr?$AAe?$AA?9?$AAs?$AAy?$AAn?$AAc?$AAh?$AA?9?$AAl?$AA1?$AA?9?$AA2?$AA?9?$AA0?$AA?$AA@ 10079734     libucrt:winapi_thunks.obj
 0002:0000877c       ??_C@_1DO@FPAPJEMD@?$AAa?$AAp?$AAi?$AA?9?$AAm?$AAs?$AA?9?$AAw?$AAi?$AAn?$AA?9?$AAc?$AAo?$AAr?$AAe?$AA?9?$AAs?$AAy?$AAs?$AAi?$AAn?$AAf?$AAo?$AA?9?$AAl?$AA1?$AA?9?$AA2?$AA?9?$AA1?$AA?$AA@ 1007977c     libucrt:winapi_thunks.obj
 0002:000087c8       ??_C@_1DK@NDHNAHIO@?$AAa?$AAp?$AAi?$AA?9?$AAm?$AAs?$AA?9?$AAw?$AAi?$AAn?$AA?9?$AAc?$AAo?$AAr?$AAe?$AA?9?$AAw?$AAi?$AAn?$AAr?$AAt?$AA?9?$AAl?$AA1?$AA?9?$AA1?$AA?9?$AA0?$AA?$AA@ 100797c8     libucrt:winapi_thunks.obj
 0002:00008810       ??_C@_1DM@KGHDGBCM@?$AAa?$AAp?$AAi?$AA?9?$AAm?$AAs?$AA?9?$AAw?$AAi?$AAn?$AA?9?$AAc?$AAo?$AAr?$AAe?$AA?9?$AAx?$AAs?$AAt?$AAa?$AAt?$AAe?$AA?9?$AAl?$AA2?$AA?9?$AA1?$AA?9?$AA0?$AA?$AA@ 10079810     libucrt:winapi_thunks.obj
 0002:00008858       ??_C@_1EO@IJIOEFOH@?$AAa?$AAp?$AAi?$AA?9?$AAm?$AAs?$AA?9?$AAw?$AAi?$AAn?$AA?9?$AAr?$AAt?$AAc?$AAo?$AAr?$AAe?$AA?9?$AAn?$AAt?$AAu?$AAs?$AAe?$AAr?$AA?9?$AAw?$AAi?$AAn?$AAd?$AAo?$AAw?$AA?9@ 10079858     libucrt:winapi_thunks.obj
 0002:000088b8       ??_C@_1FG@HHGEKANL@?$AAa?$AAp?$AAi?$AA?9?$AAm?$AAs?$AA?9?$AAw?$AAi?$AAn?$AA?9?$AAs?$AAe?$AAc?$AAu?$AAr?$AAi?$AAt?$AAy?$AA?9?$AAs?$AAy?$AAs?$AAt?$AAe?$AAm?$AAf?$AAu?$AAn?$AAc?$AAt?$AAi@ 100798b8     libucrt:winapi_thunks.obj
 0002:00008920       ??_C@_1EG@DBIOJECG@?$AAe?$AAx?$AAt?$AA?9?$AAm?$AAs?$AA?9?$AAw?$AAi?$AAn?$AA?9?$AAn?$AAt?$AAu?$AAs?$AAe?$AAr?$AA?9?$AAd?$AAi?$AAa?$AAl?$AAo?$AAg?$AAb?$AAo?$AAx?$AA?9?$AAl?$AA1?$AA?9?$AA1@ 10079920     libucrt:winapi_thunks.obj
 0002:00008978       ??_C@_1EO@FIHMJCLF@?$AAe?$AAx?$AAt?$AA?9?$AAm?$AAs?$AA?9?$AAw?$AAi?$AAn?$AA?9?$AAn?$AAt?$AAu?$AAs?$AAe?$AAr?$AA?9?$AAw?$AAi?$AAn?$AAd?$AAo?$AAw?$AAs?$AAt?$AAa?$AAt?$AAi?$AAo?$AAn?$AA?9@ 10079978     libucrt:winapi_thunks.obj
 0002:000089d8       ??_C@_1BC@DNHGCMLG@?$AAa?$AAd?$AAv?$AAa?$AAp?$AAi?$AA3?$AA2?$AA?$AA@ 100799d8     libucrt:winapi_thunks.obj
 0002:000089f0       ??_C@_1BC@GDMECMAK@?$AAk?$AAe?$AAr?$AAn?$AAe?$AAl?$AA3?$AA2?$AA?$AA@ 100799f0     libucrt:winapi_thunks.obj
 0002:00008a08       ??_C@_1M@OAIMIKLP@?$AAn?$AAt?$AAd?$AAl?$AAl?$AA?$AA@ 10079a08     libucrt:winapi_thunks.obj
 0002:00008a18       ??_C@_1EG@DPGNFKGC@?$AAa?$AAp?$AAi?$AA?9?$AAm?$AAs?$AA?9?$AAw?$AAi?$AAn?$AA?9?$AAa?$AAp?$AAp?$AAm?$AAo?$AAd?$AAe?$AAl?$AA?9?$AAr?$AAu?$AAn?$AAt?$AAi?$AAm?$AAe?$AA?9?$AAl?$AA1?$AA?9?$AA1@ 10079a18     libucrt:winapi_thunks.obj
 0002:00008a6c       ??_C@_1O@BCCLBEOE@?$AAu?$AAs?$AAe?$AAr?$AA3?$AA2?$AA?$AA@ 10079a6c     libucrt:winapi_thunks.obj
 0002:00008a7c       ??_C@_1BA@PFFKHIOG@?$AAa?$AAp?$AAi?$AA?9?$AAm?$AAs?$AA?9?$AA?$AA@ 10079a7c     libucrt:winapi_thunks.obj
 0002:00008a90       ??_C@_1BA@IAIFMGEF@?$AAe?$AAx?$AAt?$AA?9?$AAm?$AAs?$AA?9?$AA?$AA@ 10079a90     libucrt:winapi_thunks.obj
 0002:00008aa8       ??_C@_0BA@FHFNEAED@AreFileApisANSI?$AA@ 10079aa8     libucrt:winapi_thunks.obj
 0002:00008ac8       ??_C@_0BA@IHGNDAEB@CompareStringEx?$AA@ 10079ac8     libucrt:winapi_thunks.obj
 0002:00008ae8       ??_C@_0BE@LJANKFHF@EnumSystemLocalesEx?$AA@ 10079ae8     libucrt:winapi_thunks.obj
 0002:00008b0c       ??_C@_08KNHFBNJ@FlsAlloc?$AA@ 10079b0c     libucrt:winapi_thunks.obj
 0002:00008b24       ??_C@_07PEJMOBNF@FlsFree?$AA@ 10079b24     libucrt:winapi_thunks.obj
 0002:00008b3c       ??_C@_0M@GDNOONDI@FlsGetValue?$AA@ 10079b3c     libucrt:winapi_thunks.obj
 0002:00008b58       ??_C@_0M@JCPCPOEF@FlsSetValue?$AA@ 10079b58     libucrt:winapi_thunks.obj
 0002:00008b74       ??_C@_0BA@HNOPNCHB@GetActiveWindow?$AA@ 10079b74     libucrt:winapi_thunks.obj
 0002:00008b94       ??_C@_0BA@EPCJIIPD@GetDateFormatEx?$AA@ 10079b94     libucrt:winapi_thunks.obj
 0002:00008bb4       ??_C@_0BJ@DIBIJBHA@GetEnabledXStateFeatures?$AA@ 10079bb4     libucrt:winapi_thunks.obj
 0002:00008be0       ??_C@_0BD@HHGDFDBJ@GetLastActivePopup?$AA@ 10079be0     libucrt:winapi_thunks.obj
 0002:00008c04       ??_C@_0BA@ONOKGCMP@GetLocaleInfoEx?$AA@ 10079c04     libucrt:winapi_thunks.obj
 0002:00008c24       ??_C@_0BI@DFKBFLJE@GetProcessWindowStation?$AA@ 10079c24     libucrt:winapi_thunks.obj
 0002:00008c44       ??_C@_0BP@FPNJPEJC@GetSystemTimePreciseAsFileTime?$AA@ 10079c44     libucrt:winapi_thunks.obj
 0002:00008c78       ??_C@_0BA@CIJJKCJJ@GetTimeFormatEx?$AA@ 10079c78     libucrt:winapi_thunks.obj
 0002:00008c98       ??_C@_0BJ@PBCCBIPI@GetUserDefaultLocaleName?$AA@ 10079c98     libucrt:winapi_thunks.obj
 0002:00008cc4       ??_C@_0BK@DEKFELLI@GetUserObjectInformationW?$AA@ 10079cc4     libucrt:winapi_thunks.obj
 0002:00008cf0       ??_C@_0BG@IKLDMBLM@GetXStateFeaturesMask?$AA@ 10079cf0     libucrt:winapi_thunks.obj
 0002:00008d18       ??_C@_0BM@HCFOFFN@InitializeCriticalSectionEx?$AA@ 10079d18     libucrt:winapi_thunks.obj
 0002:00008d48       ??_C@_0BC@CELBKLLA@IsValidLocaleName?$AA@ 10079d48     libucrt:winapi_thunks.obj
 0002:00008d6c       ??_C@_0O@KKBNKAPF@LCMapStringEx?$AA@ 10079d6c     libucrt:winapi_thunks.obj
 0002:00008d88       ??_C@_0BB@CDHDDLLP@LCIDToLocaleName?$AA@ 10079d88     libucrt:winapi_thunks.obj
 0002:00008da8       ??_C@_0BB@HBDEELFH@LocaleNameToLCID?$AA@ 10079da8     libucrt:winapi_thunks.obj
 0002:00008dc8       ??_C@_0BE@KINNKFDA@LocateXStateFeature?$AA@ 10079dc8     libucrt:winapi_thunks.obj
 0002:00008dec       ??_C@_0M@CHKKJDAI@MessageBoxA?$AA@ 10079dec     libucrt:winapi_thunks.obj
 0002:00008e08       ??_C@_0M@DLDCCGNP@MessageBoxW?$AA@ 10079e08     libucrt:winapi_thunks.obj
 0002:00008e1c       ??_C@_0N@PPOMPGGK@RoInitialize?$AA@ 10079e1c     libucrt:winapi_thunks.obj
 0002:00008e30       ??_C@_0P@LLFHBIJD@RoUninitialize?$AA@ 10079e30     libucrt:winapi_thunks.obj
 0002:00008e48       ??_C@_0CF@OJOFEIGO@AppPolicyGetProcessTerminationMe@ 10079e48     libucrt:winapi_thunks.obj
 0002:00008e78       ??_C@_0CF@NNDFDCOC@AppPolicyGetThreadInitialization@ 10079e78     libucrt:winapi_thunks.obj
 0002:00008ea8       ??_C@_0CE@OICFMIKE@AppPolicyGetShowDeveloperDiagnos@ 10079ea8     libucrt:winapi_thunks.obj
 0002:00008ed8       ??_C@_0BL@ODDJNEDA@AppPolicyGetWindowingModel?$AA@ 10079ed8     libucrt:winapi_thunks.obj
 0002:00008f04       ??_C@_0BI@BKLFFAPO@SetThreadStackGuarantee?$AA@ 10079f04     libucrt:winapi_thunks.obj
 0002:00008f2c       ??_C@_0BC@JEAENNKH@SystemFunction036?$AA@ 10079f2c     libucrt:winapi_thunks.obj
 0002:00008f44       ?ccs@?1???$__acrt_stdio_parse_mode@D@@YA?AU__acrt_stdio_stream_mode@@QBD@Z@4QBDB 10079f44     libucrt:openfile.obj
 0002:00008f48       ?utf8_encoding@?1???$__acrt_stdio_parse_mode@D@@YA?AU__acrt_stdio_stream_mode@@QBD@Z@4QBDB 10079f48     libucrt:openfile.obj
 0002:00008f50       ?utf16_encoding@?1???$__acrt_stdio_parse_mode@D@@YA?AU__acrt_stdio_stream_mode@@QBD@Z@4QBDB 10079f50     libucrt:openfile.obj
 0002:00008f5c       ?unicode_encoding@?1???$__acrt_stdio_parse_mode@D@@YA?AU__acrt_stdio_stream_mode@@QBD@Z@4QBDB 10079f5c     libucrt:openfile.obj
 0002:00008f64       ?ccs@?1???$__acrt_stdio_parse_mode@_W@@YA?AU__acrt_stdio_stream_mode@@QB_W@Z@4QB_WB 10079f64     libucrt:openfile.obj
 0002:00008f6c       ?utf8_encoding@?1???$__acrt_stdio_parse_mode@_W@@YA?AU__acrt_stdio_stream_mode@@QB_W@Z@4QB_WB 10079f6c     libucrt:openfile.obj
 0002:00008f78       ?utf16_encoding@?1???$__acrt_stdio_parse_mode@_W@@YA?AU__acrt_stdio_stream_mode@@QB_W@Z@4QB_WB 10079f78     libucrt:openfile.obj
 0002:00008f8c       ?unicode_encoding@?1???$__acrt_stdio_parse_mode@_W@@YA?AU__acrt_stdio_stream_mode@@QB_W@Z@4QB_WB 10079f8c     libucrt:openfile.obj
 0002:00009038       ___lc_category             1007a038     libucrt:wsetlocale.obj
 0002:00009090       ??_C@_1O@GIFLHMA@?$AAL?$AAC?$AA_?$AAA?$AAL?$AAL?$AA?$AA@ 1007a090     libucrt:wsetlocale.obj
 0002:000090a0       ??_C@_1BG@PPOMIBNJ@?$AAL?$AAC?$AA_?$AAC?$AAO?$AAL?$AAL?$AAA?$AAT?$AAE?$AA?$AA@ 1007a0a0     libucrt:wsetlocale.obj
 0002:000090bc       ??_C@_1BC@FFJGAPJM@?$AAL?$AAC?$AA_?$AAC?$AAT?$AAY?$AAP?$AAE?$AA?$AA@ 1007a0bc     libucrt:wsetlocale.obj
 0002:000090d4       ??_C@_1BI@PCKFNJFB@?$AAL?$AAC?$AA_?$AAM?$AAO?$AAN?$AAE?$AAT?$AAA?$AAR?$AAY?$AA?$AA@ 1007a0d4     libucrt:wsetlocale.obj
 0002:000090f0       ??_C@_1BG@ENIEDKID@?$AAL?$AAC?$AA_?$AAN?$AAU?$AAM?$AAE?$AAR?$AAI?$AAC?$AA?$AA@ 1007a0f0     libucrt:wsetlocale.obj
 0002:0000910c       ??_C@_1BA@HAAOMIIG@?$AAL?$AAC?$AA_?$AAT?$AAI?$AAM?$AAE?$AA?$AA@ 1007a10c     libucrt:wsetlocale.obj
 0002:00009120       ??_C@_15NBPDDFIP@?$AA?$DN?$AA?$DL?$AA?$AA@ 1007a120     libucrt:wsetlocale.obj
 0002:00009128       ??_C@_13PJJBFPED@?$AA?$DL?$AA?$AA@ 1007a128     libucrt:wsetlocale.obj
 0002:0000912c       ??_C@_13NMPKAAJP@?$AA?$DN?$AA?$AA@ 1007a12c     libucrt:wsetlocale.obj
 0002:00009130       ??_C@_13FHBKNHDA@?$AAC?$AA?$AA@ 1007a130     libucrt:wsetlocale.obj
 0002:00009134       ??_C@_19MPDNHKDG@?$AAu?$AAt?$AAf?$AA8?$AA?$AA@ 1007a134     libucrt:wsetlocale.obj
 0002:00009140       ??_C@_1M@FPEIIFAM@?$AAu?$AAt?$AAf?$AA?9?$AA8?$AA?$AA@ 1007a140     libucrt:wsetlocale.obj
 0002:00009150       ??_C@_17MBJJLFDM@?$AA_?$AA?4?$AA?0?$AA?$AA@ 1007a150     libucrt:wsetlocale.obj
 0002:0000915c       ??_C@_13ENNFDPBH@?$AA_?$AA?$AA@ 1007a15c     libucrt:wsetlocale.obj
 0002:00009160       ??_C@_13JOFGPIOO@?$AA?4?$AA?$AA@ 1007a160     libucrt:wsetlocale.obj
 0002:00009168       ___lc_time_c               1007a168     libucrt:nlsdata.obj
 0002:00009314       ??_C@_03KOEHGMDN@Sun?$AA@  1007a314     libucrt:nlsdata.obj
 0002:00009318       ??_C@_03PDAGKDH@Mon?$AA@   1007a318     libucrt:nlsdata.obj
 0002:0000931c       ??_C@_03NAGEINEP@Tue?$AA@  1007a31c     libucrt:nlsdata.obj
 0002:00009320       ??_C@_03MHOMLAJA@Wed?$AA@  1007a320     libucrt:nlsdata.obj
 0002:00009324       ??_C@_03IOFIKPDN@Thu?$AA@  1007a324     libucrt:nlsdata.obj
 0002:00009328       ??_C@_03IDIOELNC@Fri?$AA@  1007a328     libucrt:nlsdata.obj
 0002:0000932c       ??_C@_03FEFJNEK@Sat?$AA@   1007a32c     libucrt:nlsdata.obj
 0002:00009330       ??_C@_06OOPIFAJ@Sunday?$AA@ 1007a330     libucrt:nlsdata.obj
 0002:00009338       ??_C@_06JLEDEDGH@Monday?$AA@ 1007a338     libucrt:nlsdata.obj
 0002:00009340       ??_C@_07BAAGCFCM@Tuesday?$AA@ 1007a340     libucrt:nlsdata.obj
 0002:0000934c       ??_C@_09DLIGFAKA@Wednesday?$AA@ 1007a34c     libucrt:nlsdata.obj
 0002:00009358       ??_C@_08HACCIKIA@Thursday?$AA@ 1007a358     libucrt:nlsdata.obj
 0002:00009364       ??_C@_06JECMNKMI@Friday?$AA@ 1007a364     libucrt:nlsdata.obj
 0002:0000936c       ??_C@_08INBOOONO@Saturday?$AA@ 1007a36c     libucrt:nlsdata.obj
 0002:00009378       ??_C@_03JIHJHPIE@Jan?$AA@  1007a378     libucrt:nlsdata.obj
 0002:0000937c       ??_C@_03HJBDCHOM@Feb?$AA@  1007a37c     libucrt:nlsdata.obj
 0002:00009380       ??_C@_03ODNJBKGA@Mar?$AA@  1007a380     libucrt:nlsdata.obj
 0002:00009384       ??_C@_03LEOLGMJP@Apr?$AA@  1007a384     libucrt:nlsdata.obj
 0002:00009388       ??_C@_03CNMDKL@May?$AA@    1007a388     libucrt:nlsdata.obj
 0002:0000938c       ??_C@_03IDFGHECI@Jun?$AA@  1007a38c     libucrt:nlsdata.obj
 0002:00009390       ??_C@_03LBGABGKK@Jul?$AA@  1007a390     libucrt:nlsdata.obj
 0002:00009394       ??_C@_03IFJFEIGA@Aug?$AA@  1007a394     libucrt:nlsdata.obj
 0002:00009398       ??_C@_03GGCAPAJC@Sep?$AA@  1007a398     libucrt:nlsdata.obj
 0002:0000939c       ??_C@_03BMAOKBAD@Oct?$AA@  1007a39c     libucrt:nlsdata.obj
 0002:000093a0       ??_C@_03JPJOFNIA@Nov?$AA@  1007a3a0     libucrt:nlsdata.obj
 0002:000093a4       ??_C@_03MKABNOCG@Dec?$AA@  1007a3a4     libucrt:nlsdata.obj
 0002:000093a8       ??_C@_07CGJPFGJA@January?$AA@ 1007a3a8     libucrt:nlsdata.obj
 0002:000093b4       ??_C@_08GNJGEPFN@February?$AA@ 1007a3b4     libucrt:nlsdata.obj
 0002:000093c0       ??_C@_05HPCKOFNC@March?$AA@ 1007a3c0     libucrt:nlsdata.obj
 0002:000093c8       ??_C@_05DMJDNLEJ@April?$AA@ 1007a3c8     libucrt:nlsdata.obj
 0002:000093d0       ??_C@_04CNLMGBGM@June?$AA@ 1007a3d0     libucrt:nlsdata.obj
 0002:000093d8       ??_C@_04MIEPOIFP@July?$AA@ 1007a3d8     libucrt:nlsdata.obj
 0002:000093e0       ??_C@_06LBBHFDDG@August?$AA@ 1007a3e0     libucrt:nlsdata.obj
 0002:000093e8       ??_C@_09BHHEALKD@September?$AA@ 1007a3e8     libucrt:nlsdata.obj
 0002:000093f4       ??_C@_07JJNFCEND@October?$AA@ 1007a3f4     libucrt:nlsdata.obj
 0002:00009400       ??_C@_08HCHEGEOA@November?$AA@ 1007a400     libucrt:nlsdata.obj
 0002:0000940c       ??_C@_08EDHMEBNP@December?$AA@ 1007a40c     libucrt:nlsdata.obj
 0002:00009418       ??_C@_02DEDBPAFC@AM?$AA@   1007a418     libucrt:nlsdata.obj
 0002:0000941c       ??_C@_02CJNFDJBF@PM?$AA@   1007a41c     libucrt:nlsdata.obj
 0002:00009420       ??_C@_08BPBNCDIB@MM?1dd?1yy?$AA@ 1007a420     libucrt:nlsdata.obj
 0002:0000942c       ??_C@_0BE@CKGJFCPC@dddd?0?5MMMM?5dd?0?5yyyy?$AA@ 1007a42c     libucrt:nlsdata.obj
 0002:00009444       ??_C@_08JCCMCCIL@HH?3mm?3ss?$AA@ 1007a444     libucrt:nlsdata.obj
 0002:00009450       ??_C@_17MBGCMIPB@?$AAS?$AAu?$AAn?$AA?$AA@ 1007a450     libucrt:nlsdata.obj
 0002:0000945c       ??_C@_17KBOMKBF@?$AAM?$AAo?$AAn?$AA?$AA@ 1007a45c     libucrt:nlsdata.obj
 0002:00009468       ??_C@_17BMKGEGOJ@?$AAT?$AAu?$AAe?$AA?$AA@ 1007a468     libucrt:nlsdata.obj
 0002:00009474       ??_C@_17CJEDCEPE@?$AAW?$AAe?$AAd?$AA?$AA@ 1007a474     libucrt:nlsdata.obj
 0002:00009480       ??_C@_17PDPHAADD@?$AAT?$AAh?$AAu?$AA?$AA@ 1007a480     libucrt:nlsdata.obj
 0002:0000948c       ??_C@_17HFOLPPLP@?$AAF?$AAr?$AAi?$AA?$AA@ 1007a48c     libucrt:nlsdata.obj
 0002:00009498       ??_C@_17GGIBDPIH@?$AAS?$AAa?$AAt?$AA?$AA@ 1007a498     libucrt:nlsdata.obj
 0002:000094a4       ??_C@_1O@IHNHDHPB@?$AAS?$AAu?$AAn?$AAd?$AAa?$AAy?$AA?$AA@ 1007a4a4     libucrt:nlsdata.obj
 0002:000094b4       ??_C@_1O@MMNBFLIA@?$AAM?$AAo?$AAn?$AAd?$AAa?$AAy?$AA?$AA@ 1007a4b4     libucrt:nlsdata.obj
 0002:000094c4       ??_C@_1BA@ENFBFFEK@?$AAT?$AAu?$AAe?$AAs?$AAd?$AAa?$AAy?$AA?$AA@ 1007a4c4     libucrt:nlsdata.obj
 0002:000094d8       ??_C@_1BE@EBOGMDOH@?$AAW?$AAe?$AAd?$AAn?$AAe?$AAs?$AAd?$AAa?$AAy?$AA?$AA@ 1007a4d8     libucrt:nlsdata.obj
 0002:000094f0       ??_C@_1BC@HHMNLIHE@?$AAT?$AAh?$AAu?$AAr?$AAs?$AAd?$AAa?$AAy?$AA?$AA@ 1007a4f0     libucrt:nlsdata.obj
 0002:00009508       ??_C@_1O@PDICJHAG@?$AAF?$AAr?$AAi?$AAd?$AAa?$AAy?$AA?$AA@ 1007a508     libucrt:nlsdata.obj
 0002:00009518       ??_C@_1BC@ENMNNPAJ@?$AAS?$AAa?$AAt?$AAu?$AAr?$AAd?$AAa?$AAy?$AA?$AA@ 1007a518     libucrt:nlsdata.obj
 0002:00009530       ??_C@_17DKNBKCHM@?$AAJ?$AAa?$AAn?$AA?$AA@ 1007a530     libucrt:nlsdata.obj
 0002:0000953c       ??_C@_17LMDJEKJN@?$AAF?$AAe?$AAb?$AA?$AA@ 1007a53c     libucrt:nlsdata.obj
 0002:00009548       ??_C@_17CKNLEDEC@?$AAM?$AAa?$AAr?$AA?$AA@ 1007a548     libucrt:nlsdata.obj
 0002:00009554       ??_C@_17LFPOIHDD@?$AAA?$AAp?$AAr?$AA?$AA@ 1007a554     libucrt:nlsdata.obj
 0002:00009560       ??_C@_17PNNKMEED@?$AAM?$AAa?$AAy?$AA?$AA@ 1007a560     libucrt:nlsdata.obj
 0002:0000956c       ??_C@_17KCJGOCPB@?$AAJ?$AAu?$AAn?$AA?$AA@ 1007a56c     libucrt:nlsdata.obj
 0002:00009578       ??_C@_17IJPCKHK@?$AAJ?$AAu?$AAl?$AA?$AA@ 1007a578     libucrt:nlsdata.obj
 0002:00009584       ??_C@_17ICPELBCN@?$AAA?$AAu?$AAg?$AA?$AA@ 1007a584     libucrt:nlsdata.obj
 0002:00009590       ??_C@_17HCHCOKMG@?$AAS?$AAe?$AAp?$AA?$AA@ 1007a590     libucrt:nlsdata.obj
 0002:0000959c       ??_C@_17FNLKOI@?$AAO?$AAc?$AAt?$AA?$AA@ 1007a59c     libucrt:nlsdata.obj
 0002:000095a8       ??_C@_17BBDMLCIG@?$AAN?$AAo?$AAv?$AA?$AA@ 1007a5a8     libucrt:nlsdata.obj
 0002:000095b4       ??_C@_17EGKACKIF@?$AAD?$AAe?$AAc?$AA?$AA@ 1007a5b4     libucrt:nlsdata.obj
 0002:000095c0       ??_C@_1BA@EFMEIEBA@?$AAJ?$AAa?$AAn?$AAu?$AAa?$AAr?$AAy?$AA?$AA@ 1007a5c0     libucrt:nlsdata.obj
 0002:000095d4       ??_C@_1BC@JGDDFFAM@?$AAF?$AAe?$AAb?$AAr?$AAu?$AAa?$AAr?$AAy?$AA?$AA@ 1007a5d4     libucrt:nlsdata.obj
 0002:000095ec       ??_C@_1M@IKEENEDF@?$AAM?$AAa?$AAr?$AAc?$AAh?$AA?$AA@ 1007a5ec     libucrt:nlsdata.obj
 0002:000095fc       ??_C@_1M@GJNLMHFD@?$AAA?$AAp?$AAr?$AAi?$AAl?$AA?$AA@ 1007a5fc     libucrt:nlsdata.obj
 0002:0000960c       ??_C@_19EPFLPGAP@?$AAJ?$AAu?$AAn?$AAe?$AA?$AA@ 1007a60c     libucrt:nlsdata.obj
 0002:00009618       ??_C@_19BIFMLPCD@?$AAJ?$AAu?$AAl?$AAy?$AA?$AA@ 1007a618     libucrt:nlsdata.obj
 0002:00009624       ??_C@_1O@PAHLKOAC@?$AAA?$AAu?$AAg?$AAu?$AAs?$AAt?$AA?$AA@ 1007a624     libucrt:nlsdata.obj
 0002:00009634       ??_C@_1BE@DKAAMBJL@?$AAS?$AAe?$AAp?$AAt?$AAe?$AAm?$AAb?$AAe?$AAr?$AA?$AA@ 1007a634     libucrt:nlsdata.obj
 0002:0000964c       ??_C@_1BA@EPANDLNG@?$AAO?$AAc?$AAt?$AAo?$AAb?$AAe?$AAr?$AA?$AA@ 1007a64c     libucrt:nlsdata.obj
 0002:00009660       ??_C@_1BC@BGLIFPF@?$AAN?$AAo?$AAv?$AAe?$AAm?$AAb?$AAe?$AAr?$AA?$AA@ 1007a660     libucrt:nlsdata.obj
 0002:00009678       ??_C@_1BC@FEMKIFH@?$AAD?$AAe?$AAc?$AAe?$AAm?$AAb?$AAe?$AAr?$AA?$AA@ 1007a678     libucrt:nlsdata.obj
 0002:00009690       ??_C@_15ODEHAHHF@?$AAA?$AAM?$AA?$AA@ 1007a690     libucrt:nlsdata.obj
 0002:00009698       ??_C@_15CLMNNGEL@?$AAP?$AAM?$AA?$AA@ 1007a698     libucrt:nlsdata.obj
 0002:000096a0       ??_C@_1BC@IEBCMHCM@?$AAM?$AAM?$AA?1?$AAd?$AAd?$AA?1?$AAy?$AAy?$AA?$AA@ 1007a6a0     libucrt:nlsdata.obj
 0002:000096b8       ??_C@_1CI@KNAKOEBC@?$AAd?$AAd?$AAd?$AAd?$AA?0?$AA?5?$AAM?$AAM?$AAM?$AAM?$AA?5?$AAd?$AAd?$AA?0?$AA?5?$AAy?$AAy?$AAy?$AAy?$AA?$AA@ 1007a6b8     libucrt:nlsdata.obj
 0002:000096e8       ??_C@_1BC@GDGBMEMK@?$AAH?$AAH?$AA?3?$AAm?$AAm?$AA?3?$AAs?$AAs?$AA?$AA@ 1007a6e8     libucrt:nlsdata.obj
 0002:00009700       ??_C@_1M@BMHNFIME@?$AAe?$AAn?$AA?9?$AAU?$AAS?$AA?$AA@ 1007a700     libucrt:nlsdata.obj
 0002:00009710       ??_C@_03OEIAHPBN@INF?$AA@  1007a710     libucrt:cvt.obj
 0002:00009714       ??_C@_03OJHLLCGB@inf?$AA@  1007a714     libucrt:cvt.obj
 0002:00009718       ??_C@_03LKNCIKJB@NAN?$AA@  1007a718     libucrt:cvt.obj
 0002:0000971c       ??_C@_03LHCJEHON@nan?$AA@  1007a71c     libucrt:cvt.obj
 0002:00009720       ??_C@_09OFJJIMPC@NAN?$CISNAN?$CJ?$AA@ 1007a720     libucrt:cvt.obj
 0002:0000972c       ??_C@_09IPFBKMDL@nan?$CIsnan?$CJ?$AA@ 1007a72c     libucrt:cvt.obj
 0002:00009738       ??_C@_08IKHNHAJ@NAN?$CIIND?$CJ?$AA@ 1007a738     libucrt:cvt.obj
 0002:00009744       ??_C@_08OFCDMILK@nan?$CIind?$CJ?$AA@ 1007a744     libucrt:cvt.obj
 0002:00009750       ??_C@_05KLBDPFGC@e?$CL000?$AA@ 1007a750     libucrt:cvt.obj
 0002:00009758       __d_inf                    1007a758     libucrt:util.obj
 0002:00009768       __d_ind                    1007a768     libucrt:util.obj
 0002:00009778       __d_max                    1007a778     libucrt:util.obj
 0002:00009788       __d_min                    1007a788     libucrt:util.obj
 0002:00009798       __d_mzero                  1007a798     libucrt:util.obj
 0002:000097d8       ??_C@_1M@HPNHIDJI@?$AAj?$AAa?$AA?9?$AAJ?$AAP?$AA?$AA@ 1007a7d8     libucrt:mbctype.obj
 0002:000097e8       ??_C@_1M@BIBDDEMK@?$AAz?$AAh?$AA?9?$AAC?$AAN?$AA?$AA@ 1007a7e8     libucrt:mbctype.obj
 0002:000097f8       ??_C@_1M@JLOOOEGK@?$AAk?$AAo?$AA?9?$AAK?$AAR?$AA?$AA@ 1007a7f8     libucrt:mbctype.obj
 0002:00009808       ??_C@_1M@CLNBBOPM@?$AAz?$AAh?$AA?9?$AAT?$AAW?$AA?$AA@ 1007a808     libucrt:mbctype.obj
 0002:00009818       ___newctype                1007a818     libucrt:ctype.obj
 0002:00009bb8       ___newclmap                1007abb8     libucrt:ctype.obj
 0002:00009d88       ___newcumap                1007ad88     libucrt:ctype.obj
 0002:00009f58       __wctype                   1007af58     libucrt:ctype.obj
 0002:0000aa54       ??_C@_15EMKDOKLE@?$AAa?$AAr?$AA?$AA@ 1007ba54     libucrt:lcidtoname_downlevel.obj
 0002:0000aa5c       ??_C@_15KNPADPLH@?$AAb?$AAg?$AA?$AA@ 1007ba5c     libucrt:lcidtoname_downlevel.obj
 0002:0000aa64       ??_C@_15EDMHLDMO@?$AAc?$AAa?$AA?$AA@ 1007ba64     libucrt:lcidtoname_downlevel.obj
 0002:0000aa6c       ??_C@_1O@BPEAJADD@?$AAz?$AAh?$AA?9?$AAC?$AAH?$AAS?$AA?$AA@ 1007ba6c     libucrt:lcidtoname_downlevel.obj
 0002:0000aa7c       ??_C@_15LJNHCMNK@?$AAc?$AAs?$AA?$AA@ 1007ba7c     libucrt:lcidtoname_downlevel.obj
 0002:0000aa84       ??_C@_15FOMCIDHG@?$AAd?$AAa?$AA?$AA@ 1007ba84     libucrt:lcidtoname_downlevel.obj
 0002:0000aa8c       ??_C@_15NBKABECB@?$AAd?$AAe?$AA?$AA@ 1007ba8c     libucrt:lcidtoname_downlevel.obj
 0002:0000aa94       ??_C@_15GHPEIIAO@?$AAe?$AAl?$AA?$AA@ 1007ba94     libucrt:lcidtoname_downlevel.obj
 0002:0000aa9c       ??_C@_15MNPNEAIF@?$AAe?$AAn?$AA?$AA@ 1007ba9c     libucrt:lcidtoname_downlevel.obj
 0002:0000aaa4       ??_C@_15GPIOMPMH@?$AAe?$AAs?$AA?$AA@ 1007baa4     libucrt:lcidtoname_downlevel.obj
 0002:0000aaac       ??_C@_15NGLOAKJC@?$AAf?$AAi?$AA?$AA@ 1007baac     libucrt:lcidtoname_downlevel.obj
 0002:0000aab4       ??_C@_15FBKGNKAM@?$AAf?$AAr?$AA?$AA@ 1007bab4     libucrt:lcidtoname_downlevel.obj
 0002:0000aabc       ??_C@_15KGGCNEFK@?$AAh?$AAe?$AA?$AA@ 1007babc     libucrt:lcidtoname_downlevel.obj
 0002:0000aac4       ??_C@_15PGHLIDMF@?$AAh?$AAu?$AA?$AA@ 1007bac4     libucrt:lcidtoname_downlevel.obj
 0002:0000aacc       ??_C@_15BIEMAPLM@?$AAi?$AAs?$AA?$AA@ 1007bacc     libucrt:lcidtoname_downlevel.obj
 0002:0000aad4       ??_C@_15IFJLDHAF@?$AAi?$AAt?$AA?$AA@ 1007bad4     libucrt:lcidtoname_downlevel.obj
 0002:0000aadc       ??_C@_15GEMIOCAG@?$AAj?$AAa?$AA?$AA@ 1007badc     libucrt:lcidtoname_downlevel.obj
 0002:0000aae4       ??_C@_15EPELEGJA@?$AAk?$AAo?$AA?$AA@ 1007bae4     libucrt:lcidtoname_downlevel.obj
 0002:0000aaec       ??_C@_15NDDHIMN@?$AAn?$AAl?$AA?$AA@ 1007baec     libucrt:lcidtoname_downlevel.obj
 0002:0000aaf4       ??_C@_15BPIGNHCD@?$AAn?$AAo?$AA?$AA@ 1007baf4     libucrt:lcidtoname_downlevel.obj
 0002:0000aafc       ??_C@_15DEOPBLCG@?$AAp?$AAl?$AA?$AA@ 1007bafc     libucrt:lcidtoname_downlevel.obj
 0002:0000ab04       ??_C@_15KBECGEFG@?$AAp?$AAt?$AA?$AA@ 1007bb04     libucrt:lcidtoname_downlevel.obj
 0002:0000ab0c       ??_C@_15GLJCBFMD@?$AAr?$AAo?$AA?$AA@ 1007bb0c     libucrt:lcidtoname_downlevel.obj
 0002:0000ab14       ??_C@_15FEDGKCDI@?$AAr?$AAu?$AA?$AA@ 1007bb14     libucrt:lcidtoname_downlevel.obj
 0002:0000ab1c       ??_C@_15GLKMLLHM@?$AAh?$AAr?$AA?$AA@ 1007bb1c     libucrt:lcidtoname_downlevel.obj
 0002:0000ab24       ??_C@_15CPKMFBDB@?$AAs?$AAk?$AA?$AA@ 1007bb24     libucrt:lcidtoname_downlevel.obj
 0002:0000ab2c       ??_C@_15BAAIOGMK@?$AAs?$AAq?$AA?$AA@ 1007bb2c     libucrt:lcidtoname_downlevel.obj
 0002:0000ab34       ??_C@_15INNPNOHD@?$AAs?$AAv?$AA?$AA@ 1007bb34     libucrt:lcidtoname_downlevel.obj
 0002:0000ab3c       ??_C@_15CABMMOGH@?$AAt?$AAh?$AA?$AA@ 1007bb3c     libucrt:lcidtoname_downlevel.obj
 0002:0000ab44       ??_C@_15BPLIHJJM@?$AAt?$AAr?$AA?$AA@ 1007bb44     libucrt:lcidtoname_downlevel.obj
 0002:0000ab4c       ??_C@_15NEOEKKDJ@?$AAu?$AAr?$AA?$AA@ 1007bb4c     libucrt:lcidtoname_downlevel.obj
 0002:0000ab54       ??_C@_15NFICGAJK@?$AAi?$AAd?$AA?$AA@ 1007bb54     libucrt:lcidtoname_downlevel.obj
 0002:0000ab5c       ??_C@_15PJPFLCCM@?$AAu?$AAk?$AA?$AA@ 1007bb5c     libucrt:lcidtoname_downlevel.obj
 0002:0000ab64       ??_C@_15HPJPHDM@?$AAb?$AAe?$AA?$AA@ 1007bb64     libucrt:lcidtoname_downlevel.obj
 0002:0000ab6c       ??_C@_15LCHLGJII@?$AAs?$AAl?$AA?$AA@ 1007bb6c     libucrt:lcidtoname_downlevel.obj
 0002:0000ab74       ??_C@_15PCFJPHHO@?$AAe?$AAt?$AA?$AA@ 1007bb74     libucrt:lcidtoname_downlevel.obj
 0002:0000ab7c       ??_C@_15HPFPGODN@?$AAl?$AAv?$AA?$AA@ 1007bb7c     libucrt:lcidtoname_downlevel.obj
 0002:0000ab84       ??_C@_15NFFGKGLG@?$AAl?$AAt?$AA?$AA@ 1007bb84     libucrt:lcidtoname_downlevel.obj
 0002:0000ab8c       ??_C@_15BDAKCCHN@?$AAf?$AAa?$AA?$AA@ 1007bb8c     libucrt:lcidtoname_downlevel.obj
 0002:0000ab94       ??_C@_15NFGIAIAJ@?$AAv?$AAi?$AA?$AA@ 1007bb94     libucrt:lcidtoname_downlevel.obj
 0002:0000ab9c       ??_C@_15LMKNDMHN@?$AAh?$AAy?$AA?$AA@ 1007bb9c     libucrt:lcidtoname_downlevel.obj
 0002:0000aba4       ??_C@_15IJBHMCFL@?$AAa?$AAz?$AA?$AA@ 1007bba4     libucrt:lcidtoname_downlevel.obj
 0002:0000abac       ??_C@_15EKOFJABL@?$AAe?$AAu?$AA?$AA@ 1007bbac     libucrt:lcidtoname_downlevel.obj
 0002:0000abb4       ??_C@_15BGHADCNK@?$AAm?$AAk?$AA?$AA@ 1007bbb4     libucrt:lcidtoname_downlevel.obj
 0002:0000abbc       ??_C@_15JDNICKHM@?$AAa?$AAf?$AA?$AA@ 1007bbbc     libucrt:lcidtoname_downlevel.obj
 0002:0000abc4       ??_C@_15KPJEDBKD@?$AAk?$AAa?$AA?$AA@ 1007bbc4     libucrt:lcidtoname_downlevel.obj
 0002:0000abcc       ??_C@_15PDNFFFEO@?$AAf?$AAo?$AA?$AA@ 1007bbcc     libucrt:lcidtoname_downlevel.obj
 0002:0000abd4       ??_C@_15OMLEGLOC@?$AAh?$AAi?$AA?$AA@ 1007bbd4     libucrt:lcidtoname_downlevel.obj
 0002:0000abdc       ??_C@_15IDNNENKK@?$AAm?$AAs?$AA?$AA@ 1007bbdc     libucrt:lcidtoname_downlevel.obj
 0002:0000abe4       ??_C@_15MACJNBMH@?$AAk?$AAk?$AA?$AA@ 1007bbe4     libucrt:lcidtoname_downlevel.obj
 0002:0000abec       ??_C@_15DKDJEOND@?$AAk?$AAy?$AA?$AA@ 1007bbec     libucrt:lcidtoname_downlevel.obj
 0002:0000abf4       ??_C@_15DFGDLJBG@?$AAs?$AAw?$AA?$AA@ 1007bbf4     libucrt:lcidtoname_downlevel.obj
 0002:0000abfc       ??_C@_15BBFAICNG@?$AAu?$AAz?$AA?$AA@ 1007bbfc     libucrt:lcidtoname_downlevel.obj
 0002:0000ac04       ??_C@_15DKNDCGEA@?$AAt?$AAt?$AA?$AA@ 1007bc04     libucrt:lcidtoname_downlevel.obj
 0002:0000ac0c       ??_C@_15MGIFMDPL@?$AAp?$AAa?$AA?$AA@ 1007bc0c     libucrt:lcidtoname_downlevel.obj
 0002:0000ac14       ??_C@_15HCNDBBA@?$AAg?$AAu?$AA?$AA@ 1007bc14     libucrt:lcidtoname_downlevel.obj
 0002:0000ac1c       ??_C@_15FNBEIBON@?$AAt?$AAa?$AA?$AA@ 1007bc1c     libucrt:lcidtoname_downlevel.obj
 0002:0000ac24       ??_C@_15NCHGBGLK@?$AAt?$AAe?$AA?$AA@ 1007bc24     libucrt:lcidtoname_downlevel.obj
 0002:0000ac2c       ??_C@_15PHPHCBPF@?$AAk?$AAn?$AA?$AA@ 1007bc2c     libucrt:lcidtoname_downlevel.obj
 0002:0000ac34       ??_C@_15DLGBCKMP@?$AAm?$AAr?$AA?$AA@ 1007bc34     libucrt:lcidtoname_downlevel.obj
 0002:0000ac3c       ??_C@_15EABBLBFF@?$AAs?$AAa?$AA?$AA@ 1007bc3c     libucrt:lcidtoname_downlevel.obj
 0002:0000ac44       ??_C@_15CBKOMCOI@?$AAm?$AAn?$AA?$AA@ 1007bc44     libucrt:lcidtoname_downlevel.obj
 0002:0000ac4c       ??_C@_15CKDMCJAF@?$AAg?$AAl?$AA?$AA@ 1007bc4c     libucrt:lcidtoname_downlevel.obj
 0002:0000ac54       ??_C@_17CNJFBPG@?$AAk?$AAo?$AAk?$AA?$AA@ 1007bc54     libucrt:lcidtoname_downlevel.obj
 0002:0000ac60       ??_C@_17FFBJICPL@?$AAs?$AAy?$AAr?$AA?$AA@ 1007bc60     libucrt:lcidtoname_downlevel.obj
 0002:0000ac6c       ??_C@_17KPNDCPAF@?$AAd?$AAi?$AAv?$AA?$AA@ 1007bc6c     libucrt:lcidtoname_downlevel.obj
 0002:0000ac78       ??_C@_11LOCGONAA@?$AA?$AA@ 1007bc78     libucrt:lcidtoname_downlevel.obj
 0002:0000ac7c       ??_C@_1M@OKAHONE@?$AAa?$AAr?$AA?9?$AAS?$AAA?$AA?$AA@ 1007bc7c     libucrt:lcidtoname_downlevel.obj
 0002:0000ac8c       ??_C@_1M@FFFIGIGK@?$AAb?$AAg?$AA?9?$AAB?$AAG?$AA?$AA@ 1007bc8c     libucrt:lcidtoname_downlevel.obj
 0002:0000ac9c       ??_C@_1M@BJNKEDC@?$AAc?$AAa?$AA?9?$AAE?$AAS?$AA?$AA@ 1007bc9c     libucrt:lcidtoname_downlevel.obj
 0002:0000acac       ??_C@_1M@IJJHFJHA@?$AAc?$AAs?$AA?9?$AAC?$AAZ?$AA?$AA@ 1007bcac     libucrt:lcidtoname_downlevel.obj
 0002:0000acbc       ??_C@_1M@CLPEOBGI@?$AAd?$AAa?$AA?9?$AAD?$AAK?$AA?$AA@ 1007bcbc     libucrt:lcidtoname_downlevel.obj
 0002:0000accc       ??_C@_1M@MCMADGCB@?$AAd?$AAe?$AA?9?$AAD?$AAE?$AA?$AA@ 1007bccc     libucrt:lcidtoname_downlevel.obj
 0002:0000acdc       ??_C@_1M@OOCKEMAM@?$AAe?$AAl?$AA?9?$AAG?$AAR?$AA?$AA@ 1007bcdc     libucrt:lcidtoname_downlevel.obj
 0002:0000acec       ??_C@_1M@DDNJFGID@?$AAf?$AAi?$AA?9?$AAF?$AAI?$AA?$AA@ 1007bcec     libucrt:lcidtoname_downlevel.obj
 0002:0000acfc       ??_C@_1M@GLIPPMAC@?$AAf?$AAr?$AA?9?$AAF?$AAR?$AA?$AA@ 1007bcfc     libucrt:lcidtoname_downlevel.obj
 0002:0000ad0c       ??_C@_1M@GFMCHPE@?$AAh?$AAe?$AA?9?$AAI?$AAL?$AA?$AA@ 1007bd0c     libucrt:lcidtoname_downlevel.obj
 0002:0000ad1c       ??_C@_1M@MHLPGNKM@?$AAh?$AAu?$AA?9?$AAH?$AAU?$AA?$AA@ 1007bd1c     libucrt:lcidtoname_downlevel.obj
 0002:0000ad2c       ??_C@_1M@LPDDNNPN@?$AAi?$AAs?$AA?9?$AAI?$AAS?$AA?$AA@ 1007bd2c     libucrt:lcidtoname_downlevel.obj
 0002:0000ad3c       ??_C@_1M@MADIPODN@?$AAi?$AAt?$AA?9?$AAI?$AAT?$AA?$AA@ 1007bd3c     libucrt:lcidtoname_downlevel.obj
 0002:0000ad4c       ??_C@_1M@IHBJJGG@?$AAn?$AAl?$AA?9?$AAN?$AAL?$AA?$AA@ 1007bd4c     libucrt:lcidtoname_downlevel.obj
 0002:0000ad5c       ??_C@_1M@EANAGDL@?$AAn?$AAb?$AA?9?$AAN?$AAO?$AA?$AA@ 1007bd5c     libucrt:lcidtoname_downlevel.obj
 0002:0000ad6c       ??_C@_1M@NEIEMEGP@?$AAp?$AAl?$AA?9?$AAP?$AAL?$AA?$AA@ 1007bd6c     libucrt:lcidtoname_downlevel.obj
 0002:0000ad7c       ??_C@_1M@BOCFIGEP@?$AAp?$AAt?$AA?9?$AAB?$AAR?$AA?$AA@ 1007bd7c     libucrt:lcidtoname_downlevel.obj
 0002:0000ad8c       ??_C@_1M@IMPFOPBG@?$AAr?$AAo?$AA?9?$AAR?$AAO?$AA?$AA@ 1007bd8c     libucrt:lcidtoname_downlevel.obj
 0002:0000ad9c       ??_C@_1M@IDNNEJMM@?$AAr?$AAu?$AA?9?$AAR?$AAU?$AA?$AA@ 1007bd9c     libucrt:lcidtoname_downlevel.obj
 0002:0000adac       ??_C@_1M@LILEEOGM@?$AAh?$AAr?$AA?9?$AAH?$AAR?$AA?$AA@ 1007bdac     libucrt:lcidtoname_downlevel.obj
 0002:0000adbc       ??_C@_1M@FKIFEHPB@?$AAs?$AAk?$AA?9?$AAS?$AAK?$AA?$AA@ 1007bdbc     libucrt:lcidtoname_downlevel.obj
 0002:0000adcc       ??_C@_1M@LJMAMNPJ@?$AAs?$AAq?$AA?9?$AAA?$AAL?$AA?$AA@ 1007bdcc     libucrt:lcidtoname_downlevel.obj
 0002:0000addc       ??_C@_1M@GIAKDKJK@?$AAs?$AAv?$AA?9?$AAS?$AAE?$AA?$AA@ 1007bddc     libucrt:lcidtoname_downlevel.obj
 0002:0000adec       ??_C@_1M@MKJKIKCL@?$AAt?$AAh?$AA?9?$AAT?$AAH?$AA?$AA@ 1007bdec     libucrt:lcidtoname_downlevel.obj
 0002:0000adfc       ??_C@_1M@MFLCCMPB@?$AAt?$AAr?$AA?9?$AAT?$AAR?$AA?$AA@ 1007bdfc     libucrt:lcidtoname_downlevel.obj
 0002:0000ae0c       ??_C@_1M@OIJHDKJN@?$AAu?$AAr?$AA?9?$AAP?$AAK?$AA?$AA@ 1007be0c     libucrt:lcidtoname_downlevel.obj
 0002:0000ae1c       ??_C@_1M@LHIPCIEK@?$AAi?$AAd?$AA?9?$AAI?$AAD?$AA?$AA@ 1007be1c     libucrt:lcidtoname_downlevel.obj
 0002:0000ae2c       ??_C@_1M@MFMOBGI@?$AAu?$AAk?$AA?9?$AAU?$AAA?$AA?$AA@ 1007be2c     libucrt:lcidtoname_downlevel.obj
 0002:0000ae3c       ??_C@_1M@OBGLJIPL@?$AAb?$AAe?$AA?9?$AAB?$AAY?$AA?$AA@ 1007be3c     libucrt:lcidtoname_downlevel.obj
 0002:0000ae4c       ??_C@_1M@BCFAJEAD@?$AAs?$AAl?$AA?9?$AAS?$AAI?$AA?$AA@ 1007be4c     libucrt:lcidtoname_downlevel.obj
 0002:0000ae5c       ??_C@_1M@FKFFEDDN@?$AAe?$AAt?$AA?9?$AAE?$AAE?$AA?$AA@ 1007be5c     libucrt:lcidtoname_downlevel.obj
 0002:0000ae6c       ??_C@_1M@KGKKAACI@?$AAl?$AAv?$AA?9?$AAL?$AAV?$AA?$AA@ 1007be6c     libucrt:lcidtoname_downlevel.obj
 0002:0000ae7c       ??_C@_1M@IFGBIJO@?$AAl?$AAt?$AA?9?$AAL?$AAT?$AA?$AA@ 1007be7c     libucrt:lcidtoname_downlevel.obj
 0002:0000ae8c       ??_C@_1M@FGEAHEDM@?$AAf?$AAa?$AA?9?$AAI?$AAR?$AA?$AA@ 1007be8c     libucrt:lcidtoname_downlevel.obj
 0002:0000ae9c       ??_C@_1M@KBMAIBFN@?$AAv?$AAi?$AA?9?$AAV?$AAN?$AA?$AA@ 1007be9c     libucrt:lcidtoname_downlevel.obj
 0002:0000aeac       ??_C@_1M@GPCBKDJK@?$AAh?$AAy?$AA?9?$AAA?$AAM?$AA?$AA@ 1007beac     libucrt:lcidtoname_downlevel.obj
 0002:0000aebc       ??_C@_1BG@BECMDDJB@?$AAa?$AAz?$AA?9?$AAA?$AAZ?$AA?9?$AAL?$AAa?$AAt?$AAn?$AA?$AA@ 1007bebc     libucrt:lcidtoname_downlevel.obj
 0002:0000aed8       ??_C@_1M@MAOFCAEA@?$AAe?$AAu?$AA?9?$AAE?$AAS?$AA?$AA@ 1007bed8     libucrt:lcidtoname_downlevel.obj
 0002:0000aee8       ??_C@_1M@IGHABKPI@?$AAm?$AAk?$AA?9?$AAM?$AAK?$AA?$AA@ 1007bee8     libucrt:lcidtoname_downlevel.obj
 0002:0000aef8       ??_C@_1M@IAIGNEJG@?$AAt?$AAn?$AA?9?$AAZ?$AAA?$AA?$AA@ 1007bef8     libucrt:lcidtoname_downlevel.obj
 0002:0000af08       ??_C@_1M@IIJCOJFA@?$AAx?$AAh?$AA?9?$AAZ?$AAA?$AA?$AA@ 1007bf08     libucrt:lcidtoname_downlevel.obj
 0002:0000af18       ??_C@_1M@LGPJHNJH@?$AAz?$AAu?$AA?9?$AAZ?$AAA?$AA?$AA@ 1007bf18     libucrt:lcidtoname_downlevel.obj
 0002:0000af28       ??_C@_1M@HOKAOIO@?$AAa?$AAf?$AA?9?$AAZ?$AAA?$AA?$AA@ 1007bf28     libucrt:lcidtoname_downlevel.obj
 0002:0000af38       ??_C@_1M@DPCLHLIE@?$AAk?$AAa?$AA?9?$AAG?$AAE?$AA?$AA@ 1007bf38     libucrt:lcidtoname_downlevel.obj
 0002:0000af48       ??_C@_1M@BLKMHJBI@?$AAf?$AAo?$AA?9?$AAF?$AAO?$AA?$AA@ 1007bf48     libucrt:lcidtoname_downlevel.obj
 0002:0000af58       ??_C@_1M@LGGJAPPB@?$AAh?$AAi?$AA?9?$AAI?$AAN?$AA?$AA@ 1007bf58     libucrt:lcidtoname_downlevel.obj
 0002:0000af68       ??_C@_1M@FIKPIHFE@?$AAm?$AAt?$AA?9?$AAM?$AAT?$AA?$AA@ 1007bf68     libucrt:lcidtoname_downlevel.obj
 0002:0000af78       ??_C@_1M@HEGGPBFA@?$AAs?$AAe?$AA?9?$AAN?$AAO?$AA?$AA@ 1007bf78     libucrt:lcidtoname_downlevel.obj
 0002:0000af88       ??_C@_1M@EIBJEEPA@?$AAm?$AAs?$AA?9?$AAM?$AAY?$AA?$AA@ 1007bf88     libucrt:lcidtoname_downlevel.obj
 0002:0000af98       ??_C@_1M@FHLBGMPP@?$AAk?$AAk?$AA?9?$AAK?$AAZ?$AA?$AA@ 1007bf98     libucrt:lcidtoname_downlevel.obj
 0002:0000afa8       ??_C@_1M@NGJJLCGI@?$AAk?$AAy?$AA?9?$AAK?$AAG?$AA?$AA@ 1007bfa8     libucrt:lcidtoname_downlevel.obj
 0002:0000afb8       ??_C@_1M@GIENNBFC@?$AAs?$AAw?$AA?9?$AAK?$AAE?$AA?$AA@ 1007bfb8     libucrt:lcidtoname_downlevel.obj
 0002:0000afc8       ??_C@_1BG@NDGMJIMJ@?$AAu?$AAz?$AA?9?$AAU?$AAZ?$AA?9?$AAL?$AAa?$AAt?$AAn?$AA?$AA@ 1007bfc8     libucrt:lcidtoname_downlevel.obj
 0002:0000afe4       ??_C@_1M@IDCCIHBC@?$AAt?$AAt?$AA?9?$AAR?$AAU?$AA?$AA@ 1007bfe4     libucrt:lcidtoname_downlevel.obj
 0002:0000aff4       ??_C@_1M@LOICPMOJ@?$AAb?$AAn?$AA?9?$AAI?$AAN?$AA?$AA@ 1007bff4     libucrt:lcidtoname_downlevel.obj
 0002:0000b004       ??_C@_1M@KPKKNEAH@?$AAp?$AAa?$AA?9?$AAI?$AAN?$AA?$AA@ 1007c004     libucrt:lcidtoname_downlevel.obj
 0002:0000b014       ??_C@_1M@PJGPPBOG@?$AAg?$AAu?$AA?9?$AAI?$AAN?$AA?$AA@ 1007c014     libucrt:lcidtoname_downlevel.obj
 0002:0000b024       ??_C@_1M@KMKMOPHI@?$AAt?$AAa?$AA?9?$AAI?$AAN?$AA?$AA@ 1007c024     libucrt:lcidtoname_downlevel.obj
 0002:0000b034       ??_C@_1M@KFEHEPAC@?$AAt?$AAe?$AA?9?$AAI?$AAN?$AA?$AA@ 1007c034     libucrt:lcidtoname_downlevel.obj
 0002:0000b044       ??_C@_1M@CDCLMGHI@?$AAk?$AAn?$AA?9?$AAI?$AAN?$AA?$AA@ 1007c044     libucrt:lcidtoname_downlevel.obj
 0002:0000b054       ??_C@_1M@MIODLDKF@?$AAm?$AAl?$AA?9?$AAI?$AAN?$AA?$AA@ 1007c054     libucrt:lcidtoname_downlevel.obj
 0002:0000b064       ??_C@_1M@PBIEACPO@?$AAm?$AAr?$AA?9?$AAI?$AAN?$AA?$AA@ 1007c064     libucrt:lcidtoname_downlevel.obj
 0002:0000b074       ??_C@_1M@NIDEAGPH@?$AAs?$AAa?$AA?9?$AAI?$AAN?$AA?$AA@ 1007c074     libucrt:lcidtoname_downlevel.obj
 0002:0000b084       ??_C@_1M@FHIHCBIO@?$AAm?$AAn?$AA?9?$AAM?$AAN?$AA?$AA@ 1007c084     libucrt:lcidtoname_downlevel.obj
 0002:0000b094       ??_C@_1M@JAIJPENP@?$AAc?$AAy?$AA?9?$AAG?$AAB?$AA?$AA@ 1007c094     libucrt:lcidtoname_downlevel.obj
 0002:0000b0a4       ??_C@_1M@PHGFBEPN@?$AAg?$AAl?$AA?9?$AAE?$AAS?$AA?$AA@ 1007c0a4     libucrt:lcidtoname_downlevel.obj
 0002:0000b0b4       ??_C@_1O@KPIPDNCP@?$AAk?$AAo?$AAk?$AA?9?$AAI?$AAN?$AA?$AA@ 1007c0b4     libucrt:lcidtoname_downlevel.obj
 0002:0000b0c4       ??_C@_1O@KNHJLDJA@?$AAs?$AAy?$AAr?$AA?9?$AAS?$AAY?$AA?$AA@ 1007c0c4     libucrt:lcidtoname_downlevel.obj
 0002:0000b0d4       ??_C@_1O@MKEKBLAH@?$AAd?$AAi?$AAv?$AA?9?$AAM?$AAV?$AA?$AA@ 1007c0d4     libucrt:lcidtoname_downlevel.obj
 0002:0000b0e4       ??_C@_1O@OHDCKDDF@?$AAq?$AAu?$AAz?$AA?9?$AAB?$AAO?$AA?$AA@ 1007c0e4     libucrt:lcidtoname_downlevel.obj
 0002:0000b0f4       ??_C@_1M@LEPJNLFD@?$AAn?$AAs?$AA?9?$AAZ?$AAA?$AA?$AA@ 1007c0f4     libucrt:lcidtoname_downlevel.obj
 0002:0000b104       ??_C@_1M@OMLEIIJB@?$AAm?$AAi?$AA?9?$AAN?$AAZ?$AA?$AA@ 1007c104     libucrt:lcidtoname_downlevel.obj
 0002:0000b114       ??_C@_1M@PMPEAILG@?$AAa?$AAr?$AA?9?$AAI?$AAQ?$AA?$AA@ 1007c114     libucrt:lcidtoname_downlevel.obj
 0002:0000b124       ??_C@_1M@CNKPNOEE@?$AAd?$AAe?$AA?9?$AAC?$AAH?$AA?$AA@ 1007c124     libucrt:lcidtoname_downlevel.obj
 0002:0000b134       ??_C@_1M@LKMGMLKO@?$AAe?$AAn?$AA?9?$AAG?$AAB?$AA?$AA@ 1007c134     libucrt:lcidtoname_downlevel.obj
 0002:0000b144       ??_C@_1M@PGKJFFGL@?$AAe?$AAs?$AA?9?$AAM?$AAX?$AA?$AA@ 1007c144     libucrt:lcidtoname_downlevel.obj
 0002:0000b154       ??_C@_1M@DNNANBDC@?$AAf?$AAr?$AA?9?$AAB?$AAE?$AA?$AA@ 1007c154     libucrt:lcidtoname_downlevel.obj
 0002:0000b164       ??_C@_1M@HLGMDFHM@?$AAi?$AAt?$AA?9?$AAC?$AAH?$AA?$AA@ 1007c164     libucrt:lcidtoname_downlevel.obj
 0002:0000b174       ??_C@_1M@CLLBGJH@?$AAn?$AAl?$AA?9?$AAB?$AAE?$AA?$AA@ 1007c174     libucrt:lcidtoname_downlevel.obj
 0002:0000b184       ??_C@_1M@BODBOGLF@?$AAn?$AAn?$AA?9?$AAN?$AAO?$AA?$AA@ 1007c184     libucrt:lcidtoname_downlevel.obj
 0002:0000b194       ??_C@_1M@HFFAHKAD@?$AAp?$AAt?$AA?9?$AAP?$AAT?$AA?$AA@ 1007c194     libucrt:lcidtoname_downlevel.obj
 0002:0000b1a4       ??_C@_1BG@LNOAKHIE@?$AAs?$AAr?$AA?9?$AAS?$AAP?$AA?9?$AAL?$AAa?$AAt?$AAn?$AA?$AA@ 1007c1a4     libucrt:lcidtoname_downlevel.obj
 0002:0000b1c0       ??_C@_1M@HBMHBGAK@?$AAs?$AAv?$AA?9?$AAF?$AAI?$AA?$AA@ 1007c1c0     libucrt:lcidtoname_downlevel.obj
 0002:0000b1d0       ??_C@_1BG@DGCJGJBE@?$AAa?$AAz?$AA?9?$AAA?$AAZ?$AA?9?$AAC?$AAy?$AAr?$AAl?$AA?$AA@ 1007c1d0     libucrt:lcidtoname_downlevel.obj
 0002:0000b1ec       ??_C@_1M@KEJDAAHB@?$AAs?$AAe?$AA?9?$AAS?$AAE?$AA?$AA@ 1007c1ec     libucrt:lcidtoname_downlevel.obj
 0002:0000b1fc       ??_C@_1M@HEIBJJAD@?$AAm?$AAs?$AA?9?$AAB?$AAN?$AA?$AA@ 1007c1fc     libucrt:lcidtoname_downlevel.obj
 0002:0000b20c       ??_C@_1BG@PBGJMCEM@?$AAu?$AAz?$AA?9?$AAU?$AAZ?$AA?9?$AAC?$AAy?$AAr?$AAl?$AA?$AA@ 1007c20c     libucrt:lcidtoname_downlevel.obj
 0002:0000b228       ??_C@_1O@LAOBCMDF@?$AAq?$AAu?$AAz?$AA?9?$AAE?$AAC?$AA?$AA@ 1007c228     libucrt:lcidtoname_downlevel.obj
 0002:0000b238       ??_C@_1M@POEEMAIO@?$AAa?$AAr?$AA?9?$AAE?$AAG?$AA?$AA@ 1007c238     libucrt:lcidtoname_downlevel.obj
 0002:0000b248       ??_C@_1M@EFAKDEDL@?$AAz?$AAh?$AA?9?$AAH?$AAK?$AA?$AA@ 1007c248     libucrt:lcidtoname_downlevel.obj
 0002:0000b258       ??_C@_1M@HKKIJHGI@?$AAd?$AAe?$AA?9?$AAA?$AAT?$AA?$AA@ 1007c258     libucrt:lcidtoname_downlevel.obj
 0002:0000b268       ??_C@_1M@KBFBEHJF@?$AAe?$AAn?$AA?9?$AAA?$AAU?$AA?$AA@ 1007c268     libucrt:lcidtoname_downlevel.obj
 0002:0000b278       ??_C@_1M@MNPLFAAH@?$AAe?$AAs?$AA?9?$AAE?$AAS?$AA?$AA@ 1007c278     libucrt:lcidtoname_downlevel.obj
 0002:0000b288       ??_C@_1M@HJOOJFMA@?$AAf?$AAr?$AA?9?$AAC?$AAA?$AA?$AA@ 1007c288     libucrt:lcidtoname_downlevel.obj
 0002:0000b298       ??_C@_1BG@JPOFPNAB@?$AAs?$AAr?$AA?9?$AAS?$AAP?$AA?9?$AAC?$AAy?$AAr?$AAl?$AA?$AA@ 1007c298     libucrt:lcidtoname_downlevel.obj
 0002:0000b2b4       ??_C@_1M@LNFOCMOB@?$AAs?$AAe?$AA?9?$AAF?$AAI?$AA?$AA@ 1007c2b4     libucrt:lcidtoname_downlevel.obj
 0002:0000b2c4       ??_C@_1O@MGJBOAMB@?$AAq?$AAu?$AAz?$AA?9?$AAP?$AAE?$AA?$AA@ 1007c2c4     libucrt:lcidtoname_downlevel.obj
 0002:0000b2d4       ??_C@_1M@GJINLBOK@?$AAa?$AAr?$AA?9?$AAL?$AAY?$AA?$AA@ 1007c2d4     libucrt:lcidtoname_downlevel.obj
 0002:0000b2e4       ??_C@_1M@GGMNHJNL@?$AAz?$AAh?$AA?9?$AAS?$AAG?$AA?$AA@ 1007c2e4     libucrt:lcidtoname_downlevel.obj
 0002:0000b2f4       ??_C@_1M@HOIKODND@?$AAd?$AAe?$AA?9?$AAL?$AAU?$AA?$AA@ 1007c2f4     libucrt:lcidtoname_downlevel.obj
 0002:0000b304       ??_C@_1M@DDOCCGFG@?$AAe?$AAn?$AA?9?$AAC?$AAA?$AA?$AA@ 1007c304     libucrt:lcidtoname_downlevel.obj
 0002:0000b314       ??_C@_1M@BNOEMJLF@?$AAe?$AAs?$AA?9?$AAG?$AAT?$AA?$AA@ 1007c314     libucrt:lcidtoname_downlevel.obj
 0002:0000b324       ??_C@_1M@EOGNKEK@?$AAf?$AAr?$AA?9?$AAC?$AAH?$AA?$AA@ 1007c324     libucrt:lcidtoname_downlevel.obj
 0002:0000b334       ??_C@_1M@FLIDJFHL@?$AAh?$AAr?$AA?9?$AAB?$AAA?$AA?$AA@ 1007c334     libucrt:lcidtoname_downlevel.obj
 0002:0000b344       ??_C@_1O@FMCELNAJ@?$AAs?$AAm?$AAj?$AA?9?$AAN?$AAO?$AA?$AA@ 1007c344     libucrt:lcidtoname_downlevel.obj
 0002:0000b354       ??_C@_1M@JHGLJMGJ@?$AAa?$AAr?$AA?9?$AAD?$AAZ?$AA?$AA@ 1007c354     libucrt:lcidtoname_downlevel.obj
 0002:0000b364       ??_C@_1M@JKKFDCNP@?$AAz?$AAh?$AA?9?$AAM?$AAO?$AA?$AA@ 1007c364     libucrt:lcidtoname_downlevel.obj
 0002:0000b374       ??_C@_1M@GEEFALPE@?$AAd?$AAe?$AA?9?$AAL?$AAI?$AA?$AA@ 1007c374     libucrt:lcidtoname_downlevel.obj
 0002:0000b384       ??_C@_1M@IGEOFBG@?$AAe?$AAn?$AA?9?$AAN?$AAZ?$AA?$AA@ 1007c384     libucrt:lcidtoname_downlevel.obj
 0002:0000b394       ??_C@_1M@KDBONEHP@?$AAe?$AAs?$AA?9?$AAC?$AAR?$AA?$AA@ 1007c394     libucrt:lcidtoname_downlevel.obj
 0002:0000b3a4       ??_C@_1M@FHMDOHNN@?$AAf?$AAr?$AA?9?$AAL?$AAU?$AA?$AA@ 1007c3a4     libucrt:lcidtoname_downlevel.obj
 0002:0000b3b4       ??_C@_1BG@NFKKMAFG@?$AAb?$AAs?$AA?9?$AAB?$AAA?$AA?9?$AAL?$AAa?$AAt?$AAn?$AA?$AA@ 1007c3b4     libucrt:lcidtoname_downlevel.obj
 0002:0000b3d0       ??_C@_1O@IMNBEMCI@?$AAs?$AAm?$AAj?$AA?9?$AAS?$AAE?$AA?$AA@ 1007c3d0     libucrt:lcidtoname_downlevel.obj
 0002:0000b3e0       ??_C@_1M@DHHMBNDP@?$AAa?$AAr?$AA?9?$AAM?$AAA?$AA?$AA@ 1007c3e0     libucrt:lcidtoname_downlevel.obj
 0002:0000b3f0       ??_C@_1M@BNBLJCGH@?$AAe?$AAn?$AA?9?$AAI?$AAE?$AA?$AA@ 1007c3f0     libucrt:lcidtoname_downlevel.obj
 0002:0000b400       ??_C@_1M@GEPAFMDL@?$AAe?$AAs?$AA?9?$AAP?$AAA?$AA?$AA@ 1007c400     libucrt:lcidtoname_downlevel.obj
 0002:0000b410       ??_C@_1M@OJONDMDL@?$AAf?$AAr?$AA?9?$AAM?$AAC?$AA?$AA@ 1007c410     libucrt:lcidtoname_downlevel.obj
 0002:0000b420       ??_C@_1BG@OBCNFJB@?$AAs?$AAr?$AA?9?$AAB?$AAA?$AA?9?$AAL?$AAa?$AAt?$AAn?$AA?$AA@ 1007c420     libucrt:lcidtoname_downlevel.obj
 0002:0000b43c       ??_C@_1O@KEMEEGPO@?$AAs?$AAm?$AAa?$AA?9?$AAN?$AAO?$AA?$AA@ 1007c43c     libucrt:lcidtoname_downlevel.obj
 0002:0000b44c       ??_C@_1M@ELMGFODK@?$AAa?$AAr?$AA?9?$AAT?$AAN?$AA?$AA@ 1007c44c     libucrt:lcidtoname_downlevel.obj
 0002:0000b45c       ??_C@_1M@BHDLHFAF@?$AAe?$AAn?$AA?9?$AAZ?$AAA?$AA?$AA@ 1007c45c     libucrt:lcidtoname_downlevel.obj
 0002:0000b46c       ??_C@_1M@BMGIGLIF@?$AAe?$AAs?$AA?9?$AAD?$AAO?$AA?$AA@ 1007c46c     libucrt:lcidtoname_downlevel.obj
 0002:0000b47c       ??_C@_1BG@CMBHIPBE@?$AAs?$AAr?$AA?9?$AAB?$AAA?$AA?9?$AAC?$AAy?$AAr?$AAl?$AA?$AA@ 1007c47c     libucrt:lcidtoname_downlevel.obj
 0002:0000b498       ??_C@_1O@HEDBLHNP@?$AAs?$AAm?$AAa?$AA?9?$AAS?$AAE?$AA?$AA@ 1007c498     libucrt:lcidtoname_downlevel.obj
 0002:0000b4a8       ??_C@_1M@DAGCADIM@?$AAa?$AAr?$AA?9?$AAO?$AAM?$AA?$AA@ 1007c4a8     libucrt:lcidtoname_downlevel.obj
 0002:0000b4b8       ??_C@_1M@FODLMICG@?$AAe?$AAn?$AA?9?$AAJ?$AAM?$AA?$AA@ 1007c4b8     libucrt:lcidtoname_downlevel.obj
 0002:0000b4c8       ??_C@_1M@DNMLCIHB@?$AAe?$AAs?$AA?9?$AAV?$AAE?$AA?$AA@ 1007c4c8     libucrt:lcidtoname_downlevel.obj
 0002:0000b4d8       ??_C@_1O@EOKHMKJK@?$AAs?$AAm?$AAs?$AA?9?$AAF?$AAI?$AA?$AA@ 1007c4d8     libucrt:lcidtoname_downlevel.obj
 0002:0000b4e8       ??_C@_1M@CAFJMKOF@?$AAa?$AAr?$AA?9?$AAY?$AAE?$AA?$AA@ 1007c4e8     libucrt:lcidtoname_downlevel.obj
 0002:0000b4f8       ??_C@_1M@CBFHIJLI@?$AAe?$AAn?$AA?9?$AAC?$AAB?$AA?$AA@ 1007c4f8     libucrt:lcidtoname_downlevel.obj
 0002:0000b508       ??_C@_1M@BGNFLDN@?$AAe?$AAs?$AA?9?$AAC?$AAO?$AA?$AA@ 1007c508     libucrt:lcidtoname_downlevel.obj
 0002:0000b518       ??_C@_1O@JMPHMAMC@?$AAs?$AAm?$AAn?$AA?9?$AAF?$AAI?$AA?$AA@ 1007c518     libucrt:lcidtoname_downlevel.obj
 0002:0000b528       ??_C@_1M@JLANABKE@?$AAa?$AAr?$AA?9?$AAS?$AAY?$AA?$AA@ 1007c528     libucrt:lcidtoname_downlevel.obj
 0002:0000b538       ??_C@_1M@HPKGCFGN@?$AAe?$AAn?$AA?9?$AAB?$AAZ?$AA?$AA@ 1007c538     libucrt:lcidtoname_downlevel.obj
 0002:0000b548       ??_C@_1M@OLJCMLGM@?$AAe?$AAs?$AA?9?$AAP?$AAE?$AA?$AA@ 1007c548     libucrt:lcidtoname_downlevel.obj
 0002:0000b558       ??_C@_1M@MKKGFKLE@?$AAa?$AAr?$AA?9?$AAJ?$AAO?$AA?$AA@ 1007c558     libucrt:lcidtoname_downlevel.obj
 0002:0000b568       ??_C@_1M@EKPGLDNI@?$AAe?$AAn?$AA?9?$AAT?$AAT?$AA?$AA@ 1007c568     libucrt:lcidtoname_downlevel.obj
 0002:0000b578       ??_C@_1M@OONGHFHE@?$AAe?$AAs?$AA?9?$AAA?$AAR?$AA?$AA@ 1007c578     libucrt:lcidtoname_downlevel.obj
 0002:0000b588       ??_C@_1M@OOJFGBHE@?$AAa?$AAr?$AA?9?$AAL?$AAB?$AA?$AA@ 1007c588     libucrt:lcidtoname_downlevel.obj
 0002:0000b598       ??_C@_1M@GCEJHNEG@?$AAe?$AAn?$AA?9?$AAZ?$AAW?$AA?$AA@ 1007c598     libucrt:lcidtoname_downlevel.obj
 0002:0000b5a8       ??_C@_1M@JNOCAHJI@?$AAe?$AAs?$AA?9?$AAE?$AAC?$AA?$AA@ 1007c5a8     libucrt:lcidtoname_downlevel.obj
 0002:0000b5b8       ??_C@_1M@JEFHPGGB@?$AAa?$AAr?$AA?9?$AAK?$AAW?$AA?$AA@ 1007c5b8     libucrt:lcidtoname_downlevel.obj
 0002:0000b5c8       ??_C@_1M@MLKIBJOJ@?$AAe?$AAn?$AA?9?$AAP?$AAH?$AA?$AA@ 1007c5c8     libucrt:lcidtoname_downlevel.obj
 0002:0000b5d8       ??_C@_1M@BDNIPEND@?$AAe?$AAs?$AA?9?$AAC?$AAL?$AA?$AA@ 1007c5d8     libucrt:lcidtoname_downlevel.obj
 0002:0000b5e8       ??_C@_1M@MPNMEKBD@?$AAa?$AAr?$AA?9?$AAA?$AAE?$AA?$AA@ 1007c5e8     libucrt:lcidtoname_downlevel.obj
 0002:0000b5f8       ??_C@_1M@KBJALCPI@?$AAe?$AAs?$AA?9?$AAU?$AAY?$AA?$AA@ 1007c5f8     libucrt:lcidtoname_downlevel.obj
 0002:0000b608       ??_C@_1M@LLCCOAGA@?$AAa?$AAr?$AA?9?$AAB?$AAH?$AA?$AA@ 1007c608     libucrt:lcidtoname_downlevel.obj
 0002:0000b618       ??_C@_1M@PBFNCDEL@?$AAe?$AAs?$AA?9?$AAP?$AAY?$AA?$AA@ 1007c618     libucrt:lcidtoname_downlevel.obj
 0002:0000b628       ??_C@_1M@EDGINPNP@?$AAa?$AAr?$AA?9?$AAQ?$AAA?$AA?$AA@ 1007c628     libucrt:lcidtoname_downlevel.obj
 0002:0000b638       ??_C@_1M@MKDBIIJI@?$AAe?$AAs?$AA?9?$AAB?$AAO?$AA?$AA@ 1007c638     libucrt:lcidtoname_downlevel.obj
 0002:0000b648       ??_C@_1M@CPKKEBLD@?$AAe?$AAs?$AA?9?$AAS?$AAV?$AA?$AA@ 1007c648     libucrt:lcidtoname_downlevel.obj
 0002:0000b658       ??_C@_1M@NDBGMMJL@?$AAe?$AAs?$AA?9?$AAH?$AAN?$AA?$AA@ 1007c658     libucrt:lcidtoname_downlevel.obj
 0002:0000b668       ??_C@_1M@JIJIBHDP@?$AAe?$AAs?$AA?9?$AAN?$AAI?$AA?$AA@ 1007c668     libucrt:lcidtoname_downlevel.obj
 0002:0000b678       ??_C@_1M@CGFMKEEK@?$AAe?$AAs?$AA?9?$AAP?$AAR?$AA?$AA@ 1007c678     libucrt:lcidtoname_downlevel.obj
 0002:0000b688       ??_C@_1O@ICJHKIIK@?$AAz?$AAh?$AA?9?$AAC?$AAH?$AAT?$AA?$AA@ 1007c688     libucrt:lcidtoname_downlevel.obj
 0002:0000b698       ??_C@_15CLNEJCE@?$AAs?$AAr?$AA?$AA@ 1007c698     libucrt:lcidtoname_downlevel.obj
 0002:0000bf2c       ??_C@_1M@KAHEKEIG@?$AAa?$AAf?$AA?9?$AAz?$AAa?$AA?$AA@ 1007cf2c     libucrt:lcidtoname_downlevel.obj
 0002:0000bf3c       ??_C@_1M@GIECOABL@?$AAa?$AAr?$AA?9?$AAa?$AAe?$AA?$AA@ 1007cf3c     libucrt:lcidtoname_downlevel.obj
 0002:0000bf4c       ??_C@_1M@BMLMEKGI@?$AAa?$AAr?$AA?9?$AAb?$AAh?$AA?$AA@ 1007cf4c     libucrt:lcidtoname_downlevel.obj
 0002:0000bf5c       ??_C@_1M@DAPFDGGB@?$AAa?$AAr?$AA?9?$AAd?$AAz?$AA?$AA@ 1007cf5c     libucrt:lcidtoname_downlevel.obj
 0002:0000bf6c       ??_C@_1M@FJNKGKIG@?$AAa?$AAr?$AA?9?$AAe?$AAg?$AA?$AA@ 1007cf6c     libucrt:lcidtoname_downlevel.obj
 0002:0000bf7c       ??_C@_1M@FLGKKCLO@?$AAa?$AAr?$AA?9?$AAi?$AAq?$AA?$AA@ 1007cf7c     libucrt:lcidtoname_downlevel.obj
 0002:0000bf8c       ??_C@_1M@GNDIPALM@?$AAa?$AAr?$AA?9?$AAj?$AAo?$AA?$AA@ 1007cf8c     libucrt:lcidtoname_downlevel.obj
 0002:0000bf9c       ??_C@_1M@DDMJFMGJ@?$AAa?$AAr?$AA?9?$AAk?$AAw?$AA?$AA@ 1007cf9c     libucrt:lcidtoname_downlevel.obj
 0002:0000bfac       ??_C@_1M@EJALMLHM@?$AAa?$AAr?$AA?9?$AAl?$AAb?$AA?$AA@ 1007cfac     libucrt:lcidtoname_downlevel.obj
 0002:0000bfbc       ??_C@_1M@MOBDBLOC@?$AAa?$AAr?$AA?9?$AAl?$AAy?$AA?$AA@ 1007cfbc     libucrt:lcidtoname_downlevel.obj
 0002:0000bfcc       ??_C@_1M@JAOCLHDH@?$AAa?$AAr?$AA?9?$AAm?$AAa?$AA?$AA@ 1007cfcc     libucrt:lcidtoname_downlevel.obj
 0002:0000bfdc       ??_C@_1M@JHPMKJIE@?$AAa?$AAr?$AA?9?$AAo?$AAm?$AA?$AA@ 1007cfdc     libucrt:lcidtoname_downlevel.obj
 0002:0000bfec       ??_C@_1M@OEPGHFNH@?$AAa?$AAr?$AA?9?$AAq?$AAa?$AA?$AA@ 1007cfec     libucrt:lcidtoname_downlevel.obj
 0002:0000bffc       ??_C@_1M@KJDONENM@?$AAa?$AAr?$AA?9?$AAs?$AAa?$AA?$AA@ 1007cffc     libucrt:lcidtoname_downlevel.obj
 0002:0000c00c       ??_C@_1M@DMJDKLKM@?$AAa?$AAr?$AA?9?$AAs?$AAy?$AA?$AA@ 1007d00c     libucrt:lcidtoname_downlevel.obj
 0002:0000c01c       ??_C@_1M@OMFIPEDC@?$AAa?$AAr?$AA?9?$AAt?$AAn?$AA?$AA@ 1007d01c     libucrt:lcidtoname_downlevel.obj
 0002:0000c02c       ??_C@_1M@IHMHGAON@?$AAa?$AAr?$AA?9?$AAy?$AAe?$AA?$AA@ 1007d02c     libucrt:lcidtoname_downlevel.obj
 0002:0000c03c       ??_C@_1BG@KDCPGJGB@?$AAa?$AAz?$AA?9?$AAa?$AAz?$AA?9?$AAc?$AAy?$AAr?$AAl?$AA?$AA@ 1007d03c     libucrt:lcidtoname_downlevel.obj
 0002:0000c058       ??_C@_1BG@IBCKDDOE@?$AAa?$AAz?$AA?9?$AAa?$AAz?$AA?9?$AAl?$AAa?$AAt?$AAn?$AA?$AA@ 1007d058     libucrt:lcidtoname_downlevel.obj
 0002:0000c074       ??_C@_1M@EGPFDCPD@?$AAb?$AAe?$AA?9?$AAb?$AAy?$AA?$AA@ 1007d074     libucrt:lcidtoname_downlevel.obj
 0002:0000c084       ??_C@_1M@PCMGMCGC@?$AAb?$AAg?$AA?9?$AAb?$AAg?$AA?$AA@ 1007d084     libucrt:lcidtoname_downlevel.obj
 0002:0000c094       ??_C@_1M@BJBMFGOB@?$AAb?$AAn?$AA?9?$AAi?$AAn?$AA?$AA@ 1007d094     libucrt:lcidtoname_downlevel.obj
 0002:0000c0a4       ??_C@_1BG@EAKMMACD@?$AAb?$AAs?$AA?9?$AAb?$AAa?$AA?9?$AAl?$AAa?$AAt?$AAn?$AA?$AA@ 1007d0a4     libucrt:lcidtoname_downlevel.obj
 0002:0000c0c0       ??_C@_1M@KGADAODK@?$AAc?$AAa?$AA?9?$AAe?$AAs?$AA?$AA@ 1007d0c0     libucrt:lcidtoname_downlevel.obj
 0002:0000c0d0       ??_C@_1M@COAJPDHI@?$AAc?$AAs?$AA?9?$AAc?$AAz?$AA?$AA@ 1007d0d0     libucrt:lcidtoname_downlevel.obj
 0002:0000c0e0       ??_C@_1M@DHBHFONH@?$AAc?$AAy?$AA?9?$AAg?$AAb?$AA?$AA@ 1007d0e0     libucrt:lcidtoname_downlevel.obj
 0002:0000c0f0       ??_C@_1M@IMGKELGA@?$AAd?$AAa?$AA?9?$AAd?$AAk?$AA?$AA@ 1007d0f0     libucrt:lcidtoname_downlevel.obj
 0002:0000c100       ??_C@_1M@NNDGDNGA@?$AAd?$AAe?$AA?9?$AAa?$AAt?$AA?$AA@ 1007d100     libucrt:lcidtoname_downlevel.obj
 0002:0000c110       ??_C@_1M@IKDBHEEM@?$AAd?$AAe?$AA?9?$AAc?$AAh?$AA?$AA@ 1007d110     libucrt:lcidtoname_downlevel.obj
 0002:0000c120       ??_C@_1M@GFFOJMCJ@?$AAd?$AAe?$AA?9?$AAd?$AAe?$AA?$AA@ 1007d120     libucrt:lcidtoname_downlevel.obj
 0002:0000c130       ??_C@_1M@MDNLKBPM@?$AAd?$AAe?$AA?9?$AAl?$AAi?$AA?$AA@ 1007d130     libucrt:lcidtoname_downlevel.obj
 0002:0000c140       ??_C@_1M@NJBEEJNL@?$AAd?$AAe?$AA?9?$AAl?$AAu?$AA?$AA@ 1007d140     libucrt:lcidtoname_downlevel.obj
 0002:0000c150       ??_C@_1O@GNNELBAP@?$AAd?$AAi?$AAv?$AA?9?$AAm?$AAv?$AA?$AA@ 1007d150     libucrt:lcidtoname_downlevel.obj
 0002:0000c160       ??_C@_1M@EJLEOGAE@?$AAe?$AAl?$AA?9?$AAg?$AAr?$AA?$AA@ 1007d160     libucrt:lcidtoname_downlevel.obj
 0002:0000c170       ??_C@_1M@GMPONJN@?$AAe?$AAn?$AA?9?$AAa?$AAu?$AA?$AA@ 1007d170     libucrt:lcidtoname_downlevel.obj
 0002:0000c180       ??_C@_1M@NIDIIPGF@?$AAe?$AAn?$AA?9?$AAb?$AAz?$AA?$AA@ 1007d180     libucrt:lcidtoname_downlevel.obj
 0002:0000c190       ??_C@_1M@JEHMIMFO@?$AAe?$AAn?$AA?9?$AAc?$AAa?$AA?$AA@ 1007d190     libucrt:lcidtoname_downlevel.obj
 0002:0000c1a0       ??_C@_1M@IGMJCDLA@?$AAe?$AAn?$AA?9?$AAc?$AAb?$AA?$AA@ 1007d1a0     libucrt:lcidtoname_downlevel.obj
 0002:0000c1b0       ??_C@_1M@BNFIGBKG@?$AAe?$AAn?$AA?9?$AAg?$AAb?$AA?$AA@ 1007d1b0     libucrt:lcidtoname_downlevel.obj
 0002:0000c1c0       ??_C@_1M@LKIFDIGP@?$AAe?$AAn?$AA?9?$AAi?$AAe?$AA?$AA@ 1007d1c0     libucrt:lcidtoname_downlevel.obj
 0002:0000c1d0       ??_C@_1M@PJKFGCCO@?$AAe?$AAn?$AA?9?$AAj?$AAm?$AA?$AA@ 1007d1d0     libucrt:lcidtoname_downlevel.obj
 0002:0000c1e0       ??_C@_1M@KPPKEPBO@?$AAe?$AAn?$AA?9?$AAn?$AAz?$AA?$AA@ 1007d1e0     libucrt:lcidtoname_downlevel.obj
 0002:0000c1f0       ??_C@_1M@GMDGLDOB@?$AAe?$AAn?$AA?9?$AAp?$AAh?$AA?$AA@ 1007d1f0     libucrt:lcidtoname_downlevel.obj
 0002:0000c200       ??_C@_1M@ONGIBJNA@?$AAe?$AAn?$AA?9?$AAt?$AAt?$AA?$AA@ 1007d200     libucrt:lcidtoname_downlevel.obj
 0002:0000c210       ??_C@_1M@LLODPCMM@?$AAe?$AAn?$AA?9?$AAu?$AAs?$AA?$AA@ 1007d210     libucrt:lcidtoname_downlevel.obj
 0002:0000c220       ??_C@_1M@LAKFNPAN@?$AAe?$AAn?$AA?9?$AAz?$AAa?$AA?$AA@ 1007d220     libucrt:lcidtoname_downlevel.obj
 0002:0000c230       ??_C@_1M@MFNHNHEO@?$AAe?$AAn?$AA?9?$AAz?$AAw?$AA?$AA@ 1007d230     libucrt:lcidtoname_downlevel.obj
 0002:0000c240       ??_C@_1M@EJEINPHM@?$AAe?$AAs?$AA?9?$AAa?$AAr?$AA?$AA@ 1007d240     libucrt:lcidtoname_downlevel.obj
 0002:0000c250       ??_C@_1M@GNKPCCJA@?$AAe?$AAs?$AA?9?$AAb?$AAo?$AA?$AA@ 1007d250     libucrt:lcidtoname_downlevel.obj
 0002:0000c260       ??_C@_1M@LEEGFONL@?$AAe?$AAs?$AA?9?$AAc?$AAl?$AA?$AA@ 1007d260     libucrt:lcidtoname_downlevel.obj
 0002:0000c270       ??_C@_1M@KGPDPBDF@?$AAe?$AAs?$AA?9?$AAc?$AAo?$AA?$AA@ 1007d270     libucrt:lcidtoname_downlevel.obj
 0002:0000c280       ??_C@_1M@EIAHOHH@?$AAe?$AAs?$AA?9?$AAc?$AAr?$AA?$AA@ 1007d280     libucrt:lcidtoname_downlevel.obj
 0002:0000c290       ??_C@_1M@LLPGMBIN@?$AAe?$AAs?$AA?9?$AAd?$AAo?$AA?$AA@ 1007d290     libucrt:lcidtoname_downlevel.obj
 0002:0000c2a0       ??_C@_1M@DKHMKNJA@?$AAe?$AAs?$AA?9?$AAe?$AAc?$AA?$AA@ 1007d2a0     libucrt:lcidtoname_downlevel.obj
 0002:0000c2b0       ??_C@_1M@GKGFPKAP@?$AAe?$AAs?$AA?9?$AAe?$AAs?$AA?$AA@ 1007d2b0     libucrt:lcidtoname_downlevel.obj
 0002:0000c2c0       ??_C@_1M@LKHKGDLN@?$AAe?$AAs?$AA?9?$AAg?$AAt?$AA?$AA@ 1007d2c0     libucrt:lcidtoname_downlevel.obj
 0002:0000c2d0       ??_C@_1M@HEIIGGJD@?$AAe?$AAs?$AA?9?$AAh?$AAn?$AA?$AA@ 1007d2d0     libucrt:lcidtoname_downlevel.obj
 0002:0000c2e0       ??_C@_1M@FBDHPPGD@?$AAe?$AAs?$AA?9?$AAm?$AAx?$AA?$AA@ 1007d2e0     libucrt:lcidtoname_downlevel.obj
 0002:0000c2f0       ??_C@_1M@DPAGLNDH@?$AAe?$AAs?$AA?9?$AAn?$AAi?$AA?$AA@ 1007d2f0     libucrt:lcidtoname_downlevel.obj
 0002:0000c300       ??_C@_1M@MDGOPGDD@?$AAe?$AAs?$AA?9?$AAp?$AAa?$AA?$AA@ 1007d300     libucrt:lcidtoname_downlevel.obj
 0002:0000c310       ??_C@_1M@EMAMGBGE@?$AAe?$AAs?$AA?9?$AAp?$AAe?$AA?$AA@ 1007d310     libucrt:lcidtoname_downlevel.obj
 0002:0000c320       ??_C@_1M@IBMCAOEC@?$AAe?$AAs?$AA?9?$AAp?$AAr?$AA?$AA@ 1007d320     libucrt:lcidtoname_downlevel.obj
 0002:0000c330       ??_C@_1M@FGMDIJED@?$AAe?$AAs?$AA?9?$AAp?$AAy?$AA?$AA@ 1007d330     libucrt:lcidtoname_downlevel.obj
 0002:0000c340       ??_C@_1M@IIDEOLLL@?$AAe?$AAs?$AA?9?$AAs?$AAv?$AA?$AA@ 1007d340     libucrt:lcidtoname_downlevel.obj
 0002:0000c350       ??_C@_1M@GAOBIPA@?$AAe?$AAs?$AA?9?$AAu?$AAy?$AA?$AA@ 1007d350     libucrt:lcidtoname_downlevel.obj
 0002:0000c360       ??_C@_1M@JKFFICHJ@?$AAe?$AAs?$AA?9?$AAv?$AAe?$AA?$AA@ 1007d360     libucrt:lcidtoname_downlevel.obj
 0002:0000c370       ??_C@_1M@PNMLOJDF@?$AAe?$AAt?$AA?9?$AAe?$AAe?$AA?$AA@ 1007d370     libucrt:lcidtoname_downlevel.obj
 0002:0000c380       ??_C@_1M@GHHLIKEI@?$AAe?$AAu?$AA?9?$AAe?$AAs?$AA?$AA@ 1007d380     libucrt:lcidtoname_downlevel.obj
 0002:0000c390       ??_C@_1M@PBNONODE@?$AAf?$AAa?$AA?9?$AAi?$AAr?$AA?$AA@ 1007d390     libucrt:lcidtoname_downlevel.obj
 0002:0000c3a0       ??_C@_1M@JEEHPMIL@?$AAf?$AAi?$AA?9?$AAf?$AAi?$AA?$AA@ 1007d3a0     libucrt:lcidtoname_downlevel.obj
 0002:0000c3b0       ??_C@_1M@LMDCNDBA@?$AAf?$AAo?$AA?9?$AAf?$AAo?$AA?$AA@ 1007d3b0     libucrt:lcidtoname_downlevel.obj
 0002:0000c3c0       ??_C@_1M@JKEOHLDK@?$AAf?$AAr?$AA?9?$AAb?$AAe?$AA?$AA@ 1007d3c0     libucrt:lcidtoname_downlevel.obj
 0002:0000c3d0       ??_C@_1M@NOHADPMI@?$AAf?$AAr?$AA?9?$AAc?$AAa?$AA?$AA@ 1007d3d0     libucrt:lcidtoname_downlevel.obj
 0002:0000c3e0       ??_C@_1M@KDHIHAEC@?$AAf?$AAr?$AA?9?$AAc?$AAh?$AA?$AA@ 1007d3e0     libucrt:lcidtoname_downlevel.obj
 0002:0000c3f0       ??_C@_1M@MMBBFGAK@?$AAf?$AAr?$AA?9?$AAf?$AAr?$AA?$AA@ 1007d3f0     libucrt:lcidtoname_downlevel.obj
 0002:0000c400       ??_C@_1M@PAFNENNF@?$AAf?$AAr?$AA?9?$AAl?$AAu?$AA?$AA@ 1007d400     libucrt:lcidtoname_downlevel.obj
 0002:0000c410       ??_C@_1M@EOHDJGDD@?$AAf?$AAr?$AA?9?$AAm?$AAc?$AA?$AA@ 1007d410     libucrt:lcidtoname_downlevel.obj
 0002:0000c420       ??_C@_1M@FAPLLOPF@?$AAg?$AAl?$AA?9?$AAe?$AAs?$AA?$AA@ 1007d420     libucrt:lcidtoname_downlevel.obj
 0002:0000c430       ??_C@_1M@FOPBFLOO@?$AAg?$AAu?$AA?9?$AAi?$AAn?$AA?$AA@ 1007d430     libucrt:lcidtoname_downlevel.obj
 0002:0000c440       ??_C@_1M@KBMCINPM@?$AAh?$AAe?$AA?9?$AAi?$AAl?$AA?$AA@ 1007d440     libucrt:lcidtoname_downlevel.obj
 0002:0000c450       ??_C@_1M@BBPHKFPJ@?$AAh?$AAi?$AA?9?$AAi?$AAn?$AA?$AA@ 1007d450     libucrt:lcidtoname_downlevel.obj
 0002:0000c460       ??_C@_1M@PMBNDPHD@?$AAh?$AAr?$AA?9?$AAb?$AAa?$AA?$AA@ 1007d460     libucrt:lcidtoname_downlevel.obj
 0002:0000c470       ??_C@_1M@BPCKOEGE@?$AAh?$AAr?$AA?9?$AAh?$AAr?$AA?$AA@ 1007d470     libucrt:lcidtoname_downlevel.obj
 0002:0000c480       ??_C@_1M@GACBMHKE@?$AAh?$AAu?$AA?9?$AAh?$AAu?$AA?$AA@ 1007d480     libucrt:lcidtoname_downlevel.obj
 0002:0000c490       ??_C@_1M@MILPAJJC@?$AAh?$AAy?$AA?9?$AAa?$AAm?$AA?$AA@ 1007d490     libucrt:lcidtoname_downlevel.obj
 0002:0000c4a0       ??_C@_1M@BABBICEC@?$AAi?$AAd?$AA?9?$AAi?$AAd?$AA?$AA@ 1007d4a0     libucrt:lcidtoname_downlevel.obj
 0002:0000c4b0       ??_C@_1M@BIKNHHPF@?$AAi?$AAs?$AA?9?$AAi?$AAs?$AA?$AA@ 1007d4b0     libucrt:lcidtoname_downlevel.obj
 0002:0000c4c0       ??_C@_1M@NMPCJPHE@?$AAi?$AAt?$AA?9?$AAc?$AAh?$AA?$AA@ 1007d4c0     libucrt:lcidtoname_downlevel.obj
 0002:0000c4d0       ??_C@_1M@GHKGFEDF@?$AAi?$AAt?$AA?9?$AAi?$AAt?$AA?$AA@ 1007d4d0     libucrt:lcidtoname_downlevel.obj
 0002:0000c4e0       ??_C@_1M@NIEJCJJA@?$AAj?$AAa?$AA?9?$AAj?$AAp?$AA?$AA@ 1007d4e0     libucrt:lcidtoname_downlevel.obj
 0002:0000c4f0       ??_C@_1M@JILFNBIM@?$AAk?$AAa?$AA?9?$AAg?$AAe?$AA?$AA@ 1007d4f0     libucrt:lcidtoname_downlevel.obj
 0002:0000c500       ??_C@_1M@PACPMGPH@?$AAk?$AAk?$AA?9?$AAk?$AAz?$AA?$AA@ 1007d500     libucrt:lcidtoname_downlevel.obj
 0002:0000c510       ??_C@_1M@IELFGMHA@?$AAk?$AAn?$AA?9?$AAi?$AAn?$AA?$AA@ 1007d510     libucrt:lcidtoname_downlevel.obj
 0002:0000c520       ??_C@_1O@IBBJHCH@?$AAk?$AAo?$AAk?$AA?9?$AAi?$AAn?$AA?$AA@ 1007d520     libucrt:lcidtoname_downlevel.obj
 0002:0000c530       ??_C@_1M@DMHAEOGC@?$AAk?$AAo?$AA?9?$AAk?$AAr?$AA?$AA@ 1007d530     libucrt:lcidtoname_downlevel.obj
 0002:0000c540       ??_C@_1M@HBAHBIGA@?$AAk?$AAy?$AA?9?$AAk?$AAg?$AA?$AA@ 1007d540     libucrt:lcidtoname_downlevel.obj
 0002:0000c550       ??_C@_1M@KPMILCJG@?$AAl?$AAt?$AA?9?$AAl?$AAt?$AA?$AA@ 1007d550     libucrt:lcidtoname_downlevel.obj
 0002:0000c560       ??_C@_1M@BDEKKCA@?$AAl?$AAv?$AA?9?$AAl?$AAv?$AA?$AA@ 1007d560     libucrt:lcidtoname_downlevel.obj
 0002:0000c570       ??_C@_1M@ELCKCCJJ@?$AAm?$AAi?$AA?9?$AAn?$AAz?$AA?$AA@ 1007d570     libucrt:lcidtoname_downlevel.obj
 0002:0000c580       ??_C@_1M@CBOOLAPA@?$AAm?$AAk?$AA?9?$AAm?$AAk?$AA?$AA@ 1007d580     libucrt:lcidtoname_downlevel.obj
 0002:0000c590       ??_C@_1M@GPHNBJKN@?$AAm?$AAl?$AA?9?$AAi?$AAn?$AA?$AA@ 1007d590     libucrt:lcidtoname_downlevel.obj
 0002:0000c5a0       ??_C@_1M@PABJILIG@?$AAm?$AAn?$AA?9?$AAm?$AAn?$AA?$AA@ 1007d5a0     libucrt:lcidtoname_downlevel.obj
 0002:0000c5b0       ??_C@_1M@FGBKKIPG@?$AAm?$AAr?$AA?9?$AAi?$AAn?$AA?$AA@ 1007d5b0     libucrt:lcidtoname_downlevel.obj
 0002:0000c5c0       ??_C@_1M@NDBPDDAL@?$AAm?$AAs?$AA?9?$AAb?$AAn?$AA?$AA@ 1007d5c0     libucrt:lcidtoname_downlevel.obj
 0002:0000c5d0       ??_C@_1M@OPIHOOPI@?$AAm?$AAs?$AA?9?$AAm?$AAy?$AA?$AA@ 1007d5d0     libucrt:lcidtoname_downlevel.obj
 0002:0000c5e0       ??_C@_1M@PPDBCNFM@?$AAm?$AAt?$AA?9?$AAm?$AAt?$AA?$AA@ 1007d5e0     libucrt:lcidtoname_downlevel.obj
 0002:0000c5f0       ??_C@_1M@KDJDKMDD@?$AAn?$AAb?$AA?9?$AAn?$AAo?$AA?$AA@ 1007d5f0     libucrt:lcidtoname_downlevel.obj
 0002:0000c600       ??_C@_1M@KFCFLMJP@?$AAn?$AAl?$AA?9?$AAb?$AAe?$AA?$AA@ 1007d600     libucrt:lcidtoname_downlevel.obj
 0002:0000c610       ??_C@_1M@KPOPDDGO@?$AAn?$AAl?$AA?9?$AAn?$AAl?$AA?$AA@ 1007d610     libucrt:lcidtoname_downlevel.obj
 0002:0000c620       ??_C@_1M@LJKPEMLN@?$AAn?$AAn?$AA?9?$AAn?$AAo?$AA?$AA@ 1007d620     libucrt:lcidtoname_downlevel.obj
 0002:0000c630       ??_C@_1M@BDGHHBFL@?$AAn?$AAs?$AA?9?$AAz?$AAa?$AA?$AA@ 1007d630     libucrt:lcidtoname_downlevel.obj
 0002:0000c640       ??_C@_1M@IDEHOAP@?$AAp?$AAa?$AA?9?$AAi?$AAn?$AA?$AA@ 1007d640     libucrt:lcidtoname_downlevel.obj
 0002:0000c650       ??_C@_1M@HDBKGOGH@?$AAp?$AAl?$AA?9?$AAp?$AAl?$AA?$AA@ 1007d650     libucrt:lcidtoname_downlevel.obj
 0002:0000c660       ??_C@_1M@LJLLCMEH@?$AAp?$AAt?$AA?9?$AAb?$AAr?$AA?$AA@ 1007d660     libucrt:lcidtoname_downlevel.obj
 0002:0000c670       ??_C@_1M@NCMONAAL@?$AAp?$AAt?$AA?9?$AAp?$AAt?$AA?$AA@ 1007d670     libucrt:lcidtoname_downlevel.obj
 0002:0000c680       ??_C@_1O@EAKMAJDN@?$AAq?$AAu?$AAz?$AA?9?$AAb?$AAo?$AA?$AA@ 1007d680     libucrt:lcidtoname_downlevel.obj
 0002:0000c690       ??_C@_1O@BHHPIGDN@?$AAq?$AAu?$AAz?$AA?9?$AAe?$AAc?$AA?$AA@ 1007d690     libucrt:lcidtoname_downlevel.obj
 0002:0000c6a0       ??_C@_1O@GBAPEKMJ@?$AAq?$AAu?$AAz?$AA?9?$AAp?$AAe?$AA?$AA@ 1007d6a0     libucrt:lcidtoname_downlevel.obj
 0002:0000c6b0       ??_C@_1M@CLGLEFBO@?$AAr?$AAo?$AA?9?$AAr?$AAo?$AA?$AA@ 1007d6b0     libucrt:lcidtoname_downlevel.obj
 0002:0000c6c0       ??_C@_1M@CEEDODME@?$AAr?$AAu?$AA?9?$AAr?$AAu?$AA?$AA@ 1007d6c0     libucrt:lcidtoname_downlevel.obj
 0002:0000c6d0       ??_C@_1M@HPKKKMPP@?$AAs?$AAa?$AA?9?$AAi?$AAn?$AA?$AA@ 1007d6d0     libucrt:lcidtoname_downlevel.obj
 0002:0000c6e0       ??_C@_1M@BKMAIGOJ@?$AAs?$AAe?$AA?9?$AAf?$AAi?$AA?$AA@ 1007d6e0     libucrt:lcidtoname_downlevel.obj
 0002:0000c6f0       ??_C@_1M@NDPIFLFI@?$AAs?$AAe?$AA?9?$AAn?$AAo?$AA?$AA@ 1007d6f0     libucrt:lcidtoname_downlevel.obj
 0002:0000c700       ??_C@_1M@DANKKHJ@?$AAs?$AAe?$AA?9?$AAs?$AAe?$AA?$AA@ 1007d700     libucrt:lcidtoname_downlevel.obj
 0002:0000c710       ??_C@_1M@PNBLONPJ@?$AAs?$AAk?$AA?9?$AAs?$AAk?$AA?$AA@ 1007d710     libucrt:lcidtoname_downlevel.obj
 0002:0000c720       ??_C@_1M@LFMODOAL@?$AAs?$AAl?$AA?9?$AAs?$AAi?$AA?$AA@ 1007d720     libucrt:lcidtoname_downlevel.obj
 0002:0000c730       ??_C@_1O@DFKOMPG@?$AAs?$AAm?$AAa?$AA?9?$AAn?$AAo?$AA?$AA@ 1007d730     libucrt:lcidtoname_downlevel.obj
 0002:0000c740       ??_C@_1O@NDKPBNNH@?$AAs?$AAm?$AAa?$AA?9?$AAs?$AAe?$AA?$AA@ 1007d740     libucrt:lcidtoname_downlevel.obj
 0002:0000c750       ??_C@_1O@PLLKBHAB@?$AAs?$AAm?$AAj?$AA?9?$AAn?$AAo?$AA?$AA@ 1007d750     libucrt:lcidtoname_downlevel.obj
 0002:0000c760       ??_C@_1O@CLEPOGCA@?$AAs?$AAm?$AAj?$AA?9?$AAs?$AAe?$AA?$AA@ 1007d760     libucrt:lcidtoname_downlevel.obj
 0002:0000c770       ??_C@_1O@DLGJGKMK@?$AAs?$AAm?$AAn?$AA?9?$AAf?$AAi?$AA?$AA@ 1007d770     libucrt:lcidtoname_downlevel.obj
 0002:0000c780       ??_C@_1O@OJDJGAJC@?$AAs?$AAm?$AAs?$AA?9?$AAf?$AAi?$AA?$AA@ 1007d780     libucrt:lcidtoname_downlevel.obj
 0002:0000c790       ??_C@_1M@BOFOGHPB@?$AAs?$AAq?$AA?9?$AAa?$AAl?$AA?$AA@ 1007d790     libucrt:lcidtoname_downlevel.obj
 0002:0000c7a0       ??_C@_1BG@LJBBIPGB@?$AAs?$AAr?$AA?9?$AAb?$AAa?$AA?9?$AAc?$AAy?$AAr?$AAl?$AA?$AA@ 1007d7a0     libucrt:lcidtoname_downlevel.obj
 0002:0000c7bc       ??_C@_1BG@JLBENFOE@?$AAs?$AAr?$AA?9?$AAb?$AAa?$AA?9?$AAl?$AAa?$AAt?$AAn?$AA?$AA@ 1007d7bc     libucrt:lcidtoname_downlevel.obj
 0002:0000c7d8       ??_C@_1BG@KODPNHE@?$AAs?$AAr?$AA?9?$AAs?$AAp?$AA?9?$AAc?$AAy?$AAr?$AAl?$AA?$AA@ 1007d7d8     libucrt:lcidtoname_downlevel.obj
 0002:0000c7f4       ??_C@_1BG@CIOGKHPB@?$AAs?$AAr?$AA?9?$AAs?$AAp?$AA?9?$AAl?$AAa?$AAt?$AAn?$AA?$AA@ 1007d7f4     libucrt:lcidtoname_downlevel.obj
 0002:0000c810       ??_C@_1M@NGFJLMAC@?$AAs?$AAv?$AA?9?$AAf?$AAi?$AA?$AA@ 1007d810     libucrt:lcidtoname_downlevel.obj
 0002:0000c820       ??_C@_1M@MPJEJAJC@?$AAs?$AAv?$AA?9?$AAs?$AAe?$AA?$AA@ 1007d820     libucrt:lcidtoname_downlevel.obj
 0002:0000c830       ??_C@_1M@MPNDHLFK@?$AAs?$AAw?$AA?9?$AAk?$AAe?$AA?$AA@ 1007d830     libucrt:lcidtoname_downlevel.obj
 0002:0000c840       ??_C@_1O@KOHBJJI@?$AAs?$AAy?$AAr?$AA?9?$AAs?$AAy?$AA?$AA@ 1007d840     libucrt:lcidtoname_downlevel.obj
 0002:0000c850       ??_C@_1M@LDCEFHA@?$AAt?$AAa?$AA?9?$AAi?$AAn?$AA?$AA@ 1007d850     libucrt:lcidtoname_downlevel.obj
 0002:0000c860       ??_C@_1M@CNJOFAK@?$AAt?$AAe?$AA?9?$AAi?$AAn?$AA?$AA@ 1007d860     libucrt:lcidtoname_downlevel.obj
 0002:0000c870       ??_C@_1M@GNAECACD@?$AAt?$AAh?$AA?9?$AAt?$AAh?$AA?$AA@ 1007d870     libucrt:lcidtoname_downlevel.obj
 0002:0000c880       ??_C@_1M@CHBIHOJO@?$AAt?$AAn?$AA?9?$AAz?$AAa?$AA?$AA@ 1007d880     libucrt:lcidtoname_downlevel.obj
 0002:0000c890       ??_C@_1M@GCCMIGPJ@?$AAt?$AAr?$AA?9?$AAt?$AAr?$AA?$AA@ 1007d890     libucrt:lcidtoname_downlevel.obj
 0002:0000c8a0       ??_C@_1M@CELMCNBK@?$AAt?$AAt?$AA?9?$AAr?$AAu?$AA?$AA@ 1007d8a0     libucrt:lcidtoname_downlevel.obj
 0002:0000c8b0       ??_C@_1M@KLMCELGA@?$AAu?$AAk?$AA?9?$AAu?$AAa?$AA?$AA@ 1007d8b0     libucrt:lcidtoname_downlevel.obj
 0002:0000c8c0       ??_C@_1M@EPAJJAJF@?$AAu?$AAr?$AA?9?$AAp?$AAk?$AA?$AA@ 1007d8c0     libucrt:lcidtoname_downlevel.obj
 0002:0000c8d0       ??_C@_1BG@GEGPMCDJ@?$AAu?$AAz?$AA?9?$AAu?$AAz?$AA?9?$AAc?$AAy?$AAr?$AAl?$AA?$AA@ 1007d8d0     libucrt:lcidtoname_downlevel.obj
 0002:0000c8ec       ??_C@_1BG@EGGKJILM@?$AAu?$AAz?$AA?9?$AAu?$AAz?$AA?9?$AAl?$AAa?$AAt?$AAn?$AA?$AA@ 1007d8ec     libucrt:lcidtoname_downlevel.obj
 0002:0000c908       ??_C@_1M@GFOCLFF@?$AAv?$AAi?$AA?9?$AAv?$AAn?$AA?$AA@ 1007d908     libucrt:lcidtoname_downlevel.obj
 0002:0000c918       ??_C@_1M@CPAMEDFI@?$AAx?$AAh?$AA?9?$AAz?$AAa?$AA?$AA@ 1007d918     libucrt:lcidtoname_downlevel.obj
 0002:0000c928       ??_C@_1O@EBKIFIGN@?$AAz?$AAh?$AA?9?$AAc?$AAh?$AAs?$AA?$AA@ 1007d928     libucrt:lcidtoname_downlevel.obj
 0002:0000c938       ??_C@_1O@NMHPGANE@?$AAz?$AAh?$AA?9?$AAc?$AAh?$AAt?$AA?$AA@ 1007d938     libucrt:lcidtoname_downlevel.obj
 0002:0000c948       ??_C@_1M@LPINJOMC@?$AAz?$AAh?$AA?9?$AAc?$AAn?$AA?$AA@ 1007d948     libucrt:lcidtoname_downlevel.obj
 0002:0000c958       ??_C@_1M@OCJEJODD@?$AAz?$AAh?$AA?9?$AAh?$AAk?$AA?$AA@ 1007d958     libucrt:lcidtoname_downlevel.obj
 0002:0000c968       ??_C@_1M@DNDLJINH@?$AAz?$AAh?$AA?9?$AAm?$AAo?$AA?$AA@ 1007d968     libucrt:lcidtoname_downlevel.obj
 0002:0000c978       ??_C@_1M@MBFDNDND@?$AAz?$AAh?$AA?9?$AAs?$AAg?$AA?$AA@ 1007d978     libucrt:lcidtoname_downlevel.obj
 0002:0000c988       ??_C@_1M@IMEPLEPE@?$AAz?$AAh?$AA?9?$AAt?$AAw?$AA?$AA@ 1007d988     libucrt:lcidtoname_downlevel.obj
 0002:0000c998       ??_C@_1M@BBGHNHJP@?$AAz?$AAu?$AA?9?$AAz?$AAa?$AA?$AA@ 1007d998     libucrt:lcidtoname_downlevel.obj
 0002:0000c9a8       ___acrt_rg_language        1007d9a8     libucrt:get_qualified_locale.obj
 0002:0000cd50       ___acrt_rg_language_count  1007dd50     libucrt:get_qualified_locale.obj
 0002:0000cd58       ___acrt_rg_country         1007dd58     libucrt:get_qualified_locale.obj
 0002:0000cea4       ___acrt_rg_country_count   1007dea4     libucrt:get_qualified_locale.obj
 0002:0000cea8       ??_C@_1BC@LLOKLNP@?$AAa?$AAm?$AAe?$AAr?$AAi?$AAc?$AAa?$AAn?$AA?$AA@ 1007dea8     libucrt:get_qualified_locale.obj
 0002:0000cec0       ??_C@_1CC@HEIGCDGG@?$AAa?$AAm?$AAe?$AAr?$AAi?$AAc?$AAa?$AAn?$AA?5?$AAe?$AAn?$AAg?$AAl?$AAi?$AAs?$AAh?$AA?$AA@ 1007dec0     libucrt:get_qualified_locale.obj
 0002:0000cee8       ??_C@_1CC@IHCNOMIN@?$AAa?$AAm?$AAe?$AAr?$AAi?$AAc?$AAa?$AAn?$AA?9?$AAe?$AAn?$AAg?$AAl?$AAi?$AAs?$AAh?$AA?$AA@ 1007dee8     libucrt:get_qualified_locale.obj
 0002:0000cf10       ??_C@_1BG@GKAGPCGG@?$AAa?$AAu?$AAs?$AAt?$AAr?$AAa?$AAl?$AAi?$AAa?$AAn?$AA?$AA@ 1007df10     libucrt:get_qualified_locale.obj
 0002:0000cf2c       ??_C@_1BA@GMENCENF@?$AAb?$AAe?$AAl?$AAg?$AAi?$AAa?$AAn?$AA?$AA@ 1007df2c     libucrt:get_qualified_locale.obj
 0002:0000cf40       ??_C@_1BC@PJMIIAAN@?$AAc?$AAa?$AAn?$AAa?$AAd?$AAi?$AAa?$AAn?$AA?$AA@ 1007df40     libucrt:get_qualified_locale.obj
 0002:0000cf58       ??_C@_17NOIMNFBF@?$AAc?$AAh?$AAh?$AA?$AA@ 1007df58     libucrt:get_qualified_locale.obj
 0002:0000cf64       ??_C@_17GGDALCHA@?$AAc?$AAh?$AAi?$AA?$AA@ 1007df64     libucrt:get_qualified_locale.obj
 0002:0000cf70       ??_C@_1BA@NPNJKIBL@?$AAc?$AAh?$AAi?$AAn?$AAe?$AAs?$AAe?$AA?$AA@ 1007df70     libucrt:get_qualified_locale.obj
 0002:0000cf84       ??_C@_1CC@DINBAMMJ@?$AAc?$AAh?$AAi?$AAn?$AAe?$AAs?$AAe?$AA?9?$AAh?$AAo?$AAn?$AAg?$AAk?$AAo?$AAn?$AAg?$AA?$AA@ 1007df84     libucrt:get_qualified_locale.obj
 0002:0000cfac       ??_C@_1CG@IOBJPACO@?$AAc?$AAh?$AAi?$AAn?$AAe?$AAs?$AAe?$AA?9?$AAs?$AAi?$AAm?$AAp?$AAl?$AAi?$AAf?$AAi?$AAe?$AAd?$AA?$AA@ 1007dfac     libucrt:get_qualified_locale.obj
 0002:0000cfdc       ??_C@_1CE@GAJNDCKG@?$AAc?$AAh?$AAi?$AAn?$AAe?$AAs?$AAe?$AA?9?$AAs?$AAi?$AAn?$AAg?$AAa?$AAp?$AAo?$AAr?$AAe?$AA?$AA@ 1007dfdc     libucrt:get_qualified_locale.obj
 0002:0000d008       ??_C@_1CI@PAJPIOOD@?$AAc?$AAh?$AAi?$AAn?$AAe?$AAs?$AAe?$AA?9?$AAt?$AAr?$AAa?$AAd?$AAi?$AAt?$AAi?$AAo?$AAn?$AAa?$AAl?$AA?$AA@ 1007e008     libucrt:get_qualified_locale.obj
 0002:0000d038       ??_C@_1BM@NILJBMMD@?$AAd?$AAu?$AAt?$AAc?$AAh?$AA?9?$AAb?$AAe?$AAl?$AAg?$AAi?$AAa?$AAn?$AA?$AA@ 1007e038     libucrt:get_qualified_locale.obj
 0002:0000d05c       ??_C@_1CC@OOJPJNEJ@?$AAe?$AAn?$AAg?$AAl?$AAi?$AAs?$AAh?$AA?9?$AAa?$AAm?$AAe?$AAr?$AAi?$AAc?$AAa?$AAn?$AA?$AA@ 1007e05c     libucrt:get_qualified_locale.obj
 0002:0000d084       ??_C@_1BI@IOLFEEM@?$AAe?$AAn?$AAg?$AAl?$AAi?$AAs?$AAh?$AA?9?$AAa?$AAu?$AAs?$AA?$AA@ 1007e084     libucrt:get_qualified_locale.obj
 0002:0000d0a0       ??_C@_1BO@HFFNLENJ@?$AAe?$AAn?$AAg?$AAl?$AAi?$AAs?$AAh?$AA?9?$AAb?$AAe?$AAl?$AAi?$AAz?$AAe?$AA?$AA@ 1007e0a0     libucrt:get_qualified_locale.obj
 0002:0000d0c4       ??_C@_1BI@HAPKJMPO@?$AAe?$AAn?$AAg?$AAl?$AAi?$AAs?$AAh?$AA?9?$AAc?$AAa?$AAn?$AA?$AA@ 1007e0c4     libucrt:get_qualified_locale.obj
 0002:0000d0e0       ??_C@_1CE@HLNDMIOJ@?$AAe?$AAn?$AAg?$AAl?$AAi?$AAs?$AAh?$AA?9?$AAc?$AAa?$AAr?$AAi?$AAb?$AAb?$AAe?$AAa?$AAn?$AA?$AA@ 1007e0e0     libucrt:get_qualified_locale.obj
 0002:0000d10c       ??_C@_1BI@LDHJHHAC@?$AAe?$AAn?$AAg?$AAl?$AAi?$AAs?$AAh?$AA?9?$AAi?$AAr?$AAe?$AA?$AA@ 1007e10c     libucrt:get_qualified_locale.obj
 0002:0000d128       ??_C@_1CA@NJMMCFOC@?$AAe?$AAn?$AAg?$AAl?$AAi?$AAs?$AAh?$AA?9?$AAj?$AAa?$AAm?$AAa?$AAi?$AAc?$AAa?$AA?$AA@ 1007e128     libucrt:get_qualified_locale.obj
 0002:0000d150       ??_C@_1BG@BHJEBBGG@?$AAe?$AAn?$AAg?$AAl?$AAi?$AAs?$AAh?$AA?9?$AAn?$AAz?$AA?$AA@ 1007e150     libucrt:get_qualified_locale.obj
 0002:0000d16c       ??_C@_1CK@FGOEJJCO@?$AAe?$AAn?$AAg?$AAl?$AAi?$AAs?$AAh?$AA?9?$AAs?$AAo?$AAu?$AAt?$AAh?$AA?5?$AAa?$AAf?$AAr?$AAi?$AAc?$AAa?$AA?$AA@ 1007e16c     libucrt:get_qualified_locale.obj
 0002:0000d1a0       ??_C@_1DE@PDBJPCJ@?$AAe?$AAn?$AAg?$AAl?$AAi?$AAs?$AAh?$AA?9?$AAt?$AAr?$AAi?$AAn?$AAi?$AAd?$AAa?$AAd?$AA?5?$AAy?$AA?5?$AAt?$AAo?$AAb?$AAa?$AAg?$AAo?$AA?$AA@ 1007e1a0     libucrt:get_qualified_locale.obj
 0002:0000d1e0       ??_C@_1BG@JGCANDME@?$AAe?$AAn?$AAg?$AAl?$AAi?$AAs?$AAh?$AA?9?$AAu?$AAk?$AA?$AA@ 1007e1e0     libucrt:get_qualified_locale.obj
 0002:0000d1fc       ??_C@_1BG@DINKMLE@?$AAe?$AAn?$AAg?$AAl?$AAi?$AAs?$AAh?$AA?9?$AAu?$AAs?$AA?$AA@ 1007e1fc     libucrt:get_qualified_locale.obj
 0002:0000d218       ??_C@_1BI@NMFDBHJE@?$AAe?$AAn?$AAg?$AAl?$AAi?$AAs?$AAh?$AA?9?$AAu?$AAs?$AAa?$AA?$AA@ 1007e218     libucrt:get_qualified_locale.obj
 0002:0000d234       ??_C@_1BO@OIHKJKII@?$AAf?$AAr?$AAe?$AAn?$AAc?$AAh?$AA?9?$AAb?$AAe?$AAl?$AAg?$AAi?$AAa?$AAn?$AA?$AA@ 1007e234     libucrt:get_qualified_locale.obj
 0002:0000d258       ??_C@_1CA@NKAELJKI@?$AAf?$AAr?$AAe?$AAn?$AAc?$AAh?$AA?9?$AAc?$AAa?$AAn?$AAa?$AAd?$AAi?$AAa?$AAn?$AA?$AA@ 1007e258     libucrt:get_qualified_locale.obj
 0002:0000d280       ??_C@_1CE@MGKCNLGN@?$AAf?$AAr?$AAe?$AAn?$AAc?$AAh?$AA?9?$AAl?$AAu?$AAx?$AAe?$AAm?$AAb?$AAo?$AAu?$AAr?$AAg?$AA?$AA@ 1007e280     libucrt:get_qualified_locale.obj
 0002:0000d2ac       ??_C@_1BK@CEGEAILM@?$AAf?$AAr?$AAe?$AAn?$AAc?$AAh?$AA?9?$AAs?$AAw?$AAi?$AAs?$AAs?$AA?$AA@ 1007e2ac     libucrt:get_qualified_locale.obj
 0002:0000d2cc       ??_C@_1CA@PAFKEOCC@?$AAg?$AAe?$AAr?$AAm?$AAa?$AAn?$AA?9?$AAa?$AAu?$AAs?$AAt?$AAr?$AAi?$AAa?$AAn?$AA?$AA@ 1007e2cc     libucrt:get_qualified_locale.obj
 0002:0000d2f4       ??_C@_1CI@HCFHGOFD@?$AAg?$AAe?$AAr?$AAm?$AAa?$AAn?$AA?9?$AAl?$AAi?$AAc?$AAh?$AAt?$AAe?$AAn?$AAs?$AAt?$AAe?$AAi?$AAn?$AA?$AA@ 1007e2f4     libucrt:get_qualified_locale.obj
 0002:0000d324       ??_C@_1CE@FEDDNPDG@?$AAg?$AAe?$AAr?$AAm?$AAa?$AAn?$AA?9?$AAl?$AAu?$AAx?$AAe?$AAm?$AAb?$AAo?$AAu?$AAr?$AAg?$AA?$AA@ 1007e324     libucrt:get_qualified_locale.obj
 0002:0000d350       ??_C@_1BK@LIMINNMN@?$AAg?$AAe?$AAr?$AAm?$AAa?$AAn?$AA?9?$AAs?$AAw?$AAi?$AAs?$AAs?$AA?$AA@ 1007e350     libucrt:get_qualified_locale.obj
 0002:0000d370       ??_C@_1BM@LGMDBEPD@?$AAi?$AAr?$AAi?$AAs?$AAh?$AA?9?$AAe?$AAn?$AAg?$AAl?$AAi?$AAs?$AAh?$AA?$AA@ 1007e370     libucrt:get_qualified_locale.obj
 0002:0000d394       ??_C@_1BM@NNCFBAEE@?$AAi?$AAt?$AAa?$AAl?$AAi?$AAa?$AAn?$AA?9?$AAs?$AAw?$AAi?$AAs?$AAs?$AA?$AA@ 1007e394     libucrt:get_qualified_locale.obj
 0002:0000d3b8       ??_C@_1BE@FEDJNPIB@?$AAn?$AAo?$AAr?$AAw?$AAe?$AAg?$AAi?$AAa?$AAn?$AA?$AA@ 1007e3b8     libucrt:get_qualified_locale.obj
 0002:0000d3d0       ??_C@_1CC@CILKDEIE@?$AAn?$AAo?$AAr?$AAw?$AAe?$AAg?$AAi?$AAa?$AAn?$AA?9?$AAb?$AAo?$AAk?$AAm?$AAa?$AAl?$AA?$AA@ 1007e3d0     libucrt:get_qualified_locale.obj
 0002:0000d3f8       ??_C@_1CE@DHMMHEPL@?$AAn?$AAo?$AAr?$AAw?$AAe?$AAg?$AAi?$AAa?$AAn?$AA?9?$AAn?$AAy?$AAn?$AAo?$AAr?$AAs?$AAk?$AA?$AA@ 1007e3f8     libucrt:get_qualified_locale.obj
 0002:0000d424       ??_C@_1CK@OPNMHECD@?$AAp?$AAo?$AAr?$AAt?$AAu?$AAg?$AAu?$AAe?$AAs?$AAe?$AA?9?$AAb?$AAr?$AAa?$AAz?$AAi?$AAl?$AAi?$AAa?$AAn?$AA?$AA@ 1007e424     libucrt:get_qualified_locale.obj
 0002:0000d458       ??_C@_1CE@KEEHCDB@?$AAs?$AAp?$AAa?$AAn?$AAi?$AAs?$AAh?$AA?9?$AAa?$AAr?$AAg?$AAe?$AAn?$AAt?$AAi?$AAn?$AAa?$AA?$AA@ 1007e458     libucrt:get_qualified_locale.obj
 0002:0000d484       ??_C@_1CA@GIAOLHJD@?$AAs?$AAp?$AAa?$AAn?$AAi?$AAs?$AAh?$AA?9?$AAb?$AAo?$AAl?$AAi?$AAv?$AAi?$AAa?$AA?$AA@ 1007e484     libucrt:get_qualified_locale.obj
 0002:0000d4ac       ??_C@_1BM@OJNDFNPD@?$AAs?$AAp?$AAa?$AAn?$AAi?$AAs?$AAh?$AA?9?$AAc?$AAh?$AAi?$AAl?$AAe?$AA?$AA@ 1007e4ac     libucrt:get_qualified_locale.obj
 0002:0000d4d0       ??_C@_1CC@OCOLPALL@?$AAs?$AAp?$AAa?$AAn?$AAi?$AAs?$AAh?$AA?9?$AAc?$AAo?$AAl?$AAo?$AAm?$AAb?$AAi?$AAa?$AA?$AA@ 1007e4d0     libucrt:get_qualified_locale.obj
 0002:0000d4f8       ??_C@_1CG@BPOFMKBB@?$AAs?$AAp?$AAa?$AAn?$AAi?$AAs?$AAh?$AA?9?$AAc?$AAo?$AAs?$AAt?$AAa?$AA?5?$AAr?$AAi?$AAc?$AAa?$AA?$AA@ 1007e4f8     libucrt:get_qualified_locale.obj
 0002:0000d528       ??_C@_1DG@IGOBAPBB@?$AAs?$AAp?$AAa?$AAn?$AAi?$AAs?$AAh?$AA?9?$AAd?$AAo?$AAm?$AAi?$AAn?$AAi?$AAc?$AAa?$AAn?$AA?5?$AAr?$AAe?$AAp?$AAu?$AAb?$AAl?$AAi?$AAc?$AA?$AA@ 1007e528     libucrt:get_qualified_locale.obj
 0002:0000d568       ??_C@_1CA@JHAPGEGI@?$AAs?$AAp?$AAa?$AAn?$AAi?$AAs?$AAh?$AA?9?$AAe?$AAc?$AAu?$AAa?$AAd?$AAo?$AAr?$AA?$AA@ 1007e568     libucrt:get_qualified_locale.obj
 0002:0000d590       ??_C@_1CI@LAPALJPP@?$AAs?$AAp?$AAa?$AAn?$AAi?$AAs?$AAh?$AA?9?$AAe?$AAl?$AA?5?$AAs?$AAa?$AAl?$AAv?$AAa?$AAd?$AAo?$AAr?$AA?$AA@ 1007e590     libucrt:get_qualified_locale.obj
 0002:0000d5c0       ??_C@_1CE@PDGBOFOM@?$AAs?$AAp?$AAa?$AAn?$AAi?$AAs?$AAh?$AA?9?$AAg?$AAu?$AAa?$AAt?$AAe?$AAm?$AAa?$AAl?$AAa?$AA?$AA@ 1007e5c0     libucrt:get_qualified_locale.obj
 0002:0000d5ec       ??_C@_1CC@NBEBAODI@?$AAs?$AAp?$AAa?$AAn?$AAi?$AAs?$AAh?$AA?9?$AAh?$AAo?$AAn?$AAd?$AAu?$AAr?$AAa?$AAs?$AA?$AA@ 1007e5ec     libucrt:get_qualified_locale.obj
 0002:0000d614       ??_C@_1CA@LLKGHBMF@?$AAs?$AAp?$AAa?$AAn?$AAi?$AAs?$AAh?$AA?9?$AAm?$AAe?$AAx?$AAi?$AAc?$AAa?$AAn?$AA?$AA@ 1007e614     libucrt:get_qualified_locale.obj
 0002:0000d63c       ??_C@_1BO@LKNDOIGD@?$AAs?$AAp?$AAa?$AAn?$AAi?$AAs?$AAh?$AA?9?$AAm?$AAo?$AAd?$AAe?$AAr?$AAn?$AA?$AA@ 1007e63c     libucrt:get_qualified_locale.obj
 0002:0000d660       ??_C@_1CE@NMDMOEEB@?$AAs?$AAp?$AAa?$AAn?$AAi?$AAs?$AAh?$AA?9?$AAn?$AAi?$AAc?$AAa?$AAr?$AAa?$AAg?$AAu?$AAa?$AA?$AA@ 1007e660     libucrt:get_qualified_locale.obj
 0002:0000d68c       ??_C@_1BO@LLCBEJGB@?$AAs?$AAp?$AAa?$AAn?$AAi?$AAs?$AAh?$AA?9?$AAp?$AAa?$AAn?$AAa?$AAm?$AAa?$AA?$AA@ 1007e68c     libucrt:get_qualified_locale.obj
 0002:0000d6b0       ??_C@_1CC@FKPGGIHO@?$AAs?$AAp?$AAa?$AAn?$AAi?$AAs?$AAh?$AA?9?$AAp?$AAa?$AAr?$AAa?$AAg?$AAu?$AAa?$AAy?$AA?$AA@ 1007e6b0     libucrt:get_qualified_locale.obj
 0002:0000d6d8       ??_C@_1BK@CDEIHOOP@?$AAs?$AAp?$AAa?$AAn?$AAi?$AAs?$AAh?$AA?9?$AAp?$AAe?$AAr?$AAu?$AA?$AA@ 1007e6d8     libucrt:get_qualified_locale.obj
 0002:0000d6f8       ??_C@_1CI@GAHAKKGP@?$AAs?$AAp?$AAa?$AAn?$AAi?$AAs?$AAh?$AA?9?$AAp?$AAu?$AAe?$AAr?$AAt?$AAo?$AA?5?$AAr?$AAi?$AAc?$AAo?$AA?$AA@ 1007e6f8     libucrt:get_qualified_locale.obj
 0002:0000d728       ??_C@_1CA@NKJBCAGP@?$AAs?$AAp?$AAa?$AAn?$AAi?$AAs?$AAh?$AA?9?$AAu?$AAr?$AAu?$AAg?$AAu?$AAa?$AAy?$AA?$AA@ 1007e728     libucrt:get_qualified_locale.obj
 0002:0000d750       ??_C@_1CE@ODILCONM@?$AAs?$AAp?$AAa?$AAn?$AAi?$AAs?$AAh?$AA?9?$AAv?$AAe?$AAn?$AAe?$AAz?$AAu?$AAe?$AAl?$AAa?$AA?$AA@ 1007e750     libucrt:get_qualified_locale.obj
 0002:0000d77c       ??_C@_1CA@OBNMCGFO@?$AAs?$AAw?$AAe?$AAd?$AAi?$AAs?$AAh?$AA?9?$AAf?$AAi?$AAn?$AAl?$AAa?$AAn?$AAd?$AA?$AA@ 1007e77c     libucrt:get_qualified_locale.obj
 0002:0000d7a4       ??_C@_1M@PIPDDPPI@?$AAs?$AAw?$AAi?$AAs?$AAs?$AA?$AA@ 1007e7a4     libucrt:get_qualified_locale.obj
 0002:0000d7b4       ??_C@_15GMFIMNFM@?$AAu?$AAs?$AA?$AA@ 1007e7b4     libucrt:get_qualified_locale.obj
 0002:0000d7bc       ??_C@_17HAEBFAGL@?$AAu?$AAs?$AAa?$AA?$AA@ 1007e7bc     libucrt:get_qualified_locale.obj
 0002:0000d7c8       ??_C@_1BA@DPFJEPHB@?$AAa?$AAm?$AAe?$AAr?$AAi?$AAc?$AAa?$AA?$AA@ 1007e7c8     libucrt:get_qualified_locale.obj
 0002:0000d7dc       ??_C@_1BA@ELOGGFK@?$AAb?$AAr?$AAi?$AAt?$AAa?$AAi?$AAn?$AA?$AA@ 1007e7dc     libucrt:get_qualified_locale.obj
 0002:0000d7f0       ??_C@_1M@GHBGIGDA@?$AAc?$AAh?$AAi?$AAn?$AAa?$AA?$AA@ 1007e7f0     libucrt:get_qualified_locale.obj
 0002:0000d800       ??_C@_1M@NCHEJOPO@?$AAc?$AAz?$AAe?$AAc?$AAh?$AA?$AA@ 1007e800     libucrt:get_qualified_locale.obj
 0002:0000d810       ??_C@_1BA@BKPAPBLA@?$AAe?$AAn?$AAg?$AAl?$AAa?$AAn?$AAd?$AA?$AA@ 1007e810     libucrt:get_qualified_locale.obj
 0002:0000d824       ??_C@_1BM@HKBCKIPC@?$AAg?$AAr?$AAe?$AAa?$AAt?$AA?5?$AAb?$AAr?$AAi?$AAt?$AAa?$AAi?$AAn?$AA?$AA@ 1007e824     libucrt:get_qualified_locale.obj
 0002:0000d848       ??_C@_1BA@PPCHPGJB@?$AAh?$AAo?$AAl?$AAl?$AAa?$AAn?$AAd?$AA?$AA@ 1007e848     libucrt:get_qualified_locale.obj
 0002:0000d85c       ??_C@_1BE@JBMPEGDG@?$AAh?$AAo?$AAn?$AAg?$AA?9?$AAk?$AAo?$AAn?$AAg?$AA?$AA@ 1007e85c     libucrt:get_qualified_locale.obj
 0002:0000d874       ??_C@_1BI@KOELBBPJ@?$AAn?$AAe?$AAw?$AA?9?$AAz?$AAe?$AAa?$AAl?$AAa?$AAn?$AAd?$AA?$AA@ 1007e874     libucrt:get_qualified_locale.obj
 0002:0000d890       ??_C@_15HIEBHAIO@?$AAn?$AAz?$AA?$AA@ 1007e890     libucrt:get_qualified_locale.obj
 0002:0000d898       ??_C@_1BC@CHBCPFPI@?$AAp?$AAr?$AA?5?$AAc?$AAh?$AAi?$AAn?$AAa?$AA?$AA@ 1007e898     libucrt:get_qualified_locale.obj
 0002:0000d8b0       ??_C@_1BC@JAOIIFKD@?$AAp?$AAr?$AA?9?$AAc?$AAh?$AAi?$AAn?$AAa?$AA?$AA@ 1007e8b0     libucrt:get_qualified_locale.obj
 0002:0000d8c8       ??_C@_1BI@BEHPPHKC@?$AAp?$AAu?$AAe?$AAr?$AAt?$AAo?$AA?9?$AAr?$AAi?$AAc?$AAo?$AA?$AA@ 1007e8c8     libucrt:get_qualified_locale.obj
 0002:0000d8e4       ??_C@_1O@PAEOFKDI@?$AAs?$AAl?$AAo?$AAv?$AAa?$AAk?$AA?$AA@ 1007e8e4     libucrt:get_qualified_locale.obj
 0002:0000d8f4       ??_C@_1BK@FIHMCKAM@?$AAs?$AAo?$AAu?$AAt?$AAh?$AA?5?$AAa?$AAf?$AAr?$AAi?$AAc?$AAa?$AA?$AA@ 1007e8f4     libucrt:get_qualified_locale.obj
 0002:0000d914       ??_C@_1BI@NAEOODKB@?$AAs?$AAo?$AAu?$AAt?$AAh?$AA?5?$AAk?$AAo?$AAr?$AAe?$AAa?$AA?$AA@ 1007e914     libucrt:get_qualified_locale.obj
 0002:0000d930       ??_C@_1BK@FBDGGIFF@?$AAs?$AAo?$AAu?$AAt?$AAh?$AA?9?$AAa?$AAf?$AAr?$AAi?$AAc?$AAa?$AA?$AA@ 1007e930     libucrt:get_qualified_locale.obj
 0002:0000d950       ??_C@_1BI@GHLEJDPK@?$AAs?$AAo?$AAu?$AAt?$AAh?$AA?9?$AAk?$AAo?$AAr?$AAe?$AAa?$AA?$AA@ 1007e950     libucrt:get_qualified_locale.obj
 0002:0000d96c       ??_C@_1CE@PLHLOMJF@?$AAt?$AAr?$AAi?$AAn?$AAi?$AAd?$AAa?$AAd?$AA?5?$AA?$CG?$AA?5?$AAt?$AAo?$AAb?$AAa?$AAg?$AAo?$AA?$AA@ 1007e96c     libucrt:get_qualified_locale.obj
 0002:0000d998       ??_C@_1BO@MODIMHHI@?$AAu?$AAn?$AAi?$AAt?$AAe?$AAd?$AA?9?$AAk?$AAi?$AAn?$AAg?$AAd?$AAo?$AAm?$AA?$AA@ 1007e998     libucrt:get_qualified_locale.obj
 0002:0000d9bc       ??_C@_1BM@FFHJONBJ@?$AAu?$AAn?$AAi?$AAt?$AAe?$AAd?$AA?9?$AAs?$AAt?$AAa?$AAt?$AAe?$AAs?$AA?$AA@ 1007e9bc     libucrt:get_qualified_locale.obj
 0002:0000d9e0       ??_C@_17DNCLJFIF@?$AAA?$AAC?$AAP?$AA?$AA@ 1007e9e0     libucrt:get_qualified_locale.obj
 0002:0000d9ec       ??_C@_17CIKBIHLH@?$AAO?$AAC?$AAP?$AA?$AA@ 1007e9ec     libucrt:get_qualified_locale.obj
 0002:0000d9f8       ___rglangidNotDefault      1007e9f8     libucrt:getqloc_downlevel.obj
 0002:0000da10       ??_C@_00CNPNBAHC@?$AA@     1007ea10     libucrt:mbrtowc.obj
 0002:0000da18       ?large_power_data@?1??multiply_by_power_of_ten@__crt_strtox@@YA_NAAUbig_integer@2@I@Z@4QBIB 1007ea18     libucrt:cfout.obj
 0002:0000e4f0       ?large_power_indices@?1??multiply_by_power_of_ten@__crt_strtox@@YA_NAAUbig_integer@2@I@Z@4QBUunpack_index@?1??12@YA_N0I@Z@B 1007f4f0     libucrt:cfout.obj
 0002:0000e5a8       ?small_powers_of_ten@?1??multiply_by_power_of_ten@__crt_strtox@@YA_NAAUbig_integer@2@I@Z@4QBIB 1007f5a8     libucrt:cfout.obj
 0002:0000e5d4       ??_C@_01GBGANLPD@0?$AA@    1007f5d4     libucrt:cfout.obj
 0002:0000e5d8       ??_C@_05DNEBIAHO@1?$CDINF?$AA@ 1007f5d8     libucrt:cfout.obj
 0002:0000e5e0       ??_C@_06IMKFLFPG@1?$CDQNAN?$AA@ 1007f5e0     libucrt:cfout.obj
 0002:0000e5e8       ??_C@_06PGGFOGJG@1?$CDSNAN?$AA@ 1007f5e8     libucrt:cfout.obj
 0002:0000e5f0       ??_C@_05PHHOCPM@1?$CDIND?$AA@ 1007f5f0     libucrt:cfout.obj
 0002:0000e5f8       ??_C@_1BA@BALFACEM@?$AAC?$AAO?$AAN?$AAO?$AAU?$AAT?$AA$?$AA?$AA@ 1007f5f8     libucrt:initcon.obj
 0002:0000e7c0       __infinity                 1007f7c0     libucrt:87tran.obj
 0002:0000e7ca       __minfinity                1007f7ca     libucrt:87tran.obj
 0002:0000e7d4       __logemax                  1007f7d4     libucrt:87tran.obj
 0002:0000e7fa       __OP_EXPjmptab             1007f7fa     libucrt:87tran.obj
 0002:0000e830       __indefinite               1007f830     libucrt:87disp.obj
 0002:0000e83a       __piby2                    1007f83a     libucrt:87disp.obj
 0002:0000e844       __piby4                    1007f844     libucrt:87disp.obj
 0002:0000e888       __DEFAULT_CW_in_mem        1007f888     libucrt:common.obj
 0002:0000e88a       __pi_by_2_to_61            1007f88a     libucrt:common.obj
 0002:0000e9e0       ___acrt_log10_table_t      1007f9e0     libucrt:log10_tables.obj
 0002:0000eec0       ___acrt_log10_table_cb     1007fec0     libucrt:log10_tables.obj
 0002:0000f3a4       ??_7type_info@@6B@         100803a4     LIBCMT:std_type_info_static.obj
 0002:0000f3e8       __load_config_used         100803e8     LIBCMT:loadcfg.obj
 0002:0000fa2c       ??_R4DNameNode@@6B@        10080a2c     libvcruntime:undname.obj
 0002:0000fa44       ??_R3DNameNode@@8          10080a44     libvcruntime:undname.obj
 0002:0000fa58       ??_R2DNameNode@@8          10080a58     libvcruntime:undname.obj
 0002:0000fa60       ??_R1A@?0A@EA@DNameNode@@8 10080a60     libvcruntime:undname.obj
 0002:0000fa84       ??_R4charNode@@6B@         10080a84     libvcruntime:undname.obj
 0002:0000fa9c       ??_R3charNode@@8           10080a9c     libvcruntime:undname.obj
 0002:0000fab0       ??_R2charNode@@8           10080ab0     libvcruntime:undname.obj
 0002:0000fabc       ??_R1A@?0A@EA@charNode@@8  10080abc     libvcruntime:undname.obj
 0002:0000fae0       ??_R4pcharNode@@6B@        10080ae0     libvcruntime:undname.obj
 0002:0000faf8       ??_R3pcharNode@@8          10080af8     libvcruntime:undname.obj
 0002:0000fb0c       ??_R2pcharNode@@8          10080b0c     libvcruntime:undname.obj
 0002:0000fb18       ??_R1A@?0A@EA@pcharNode@@8 10080b18     libvcruntime:undname.obj
 0002:0000fb3c       ??_R4pDNameNode@@6B@       10080b3c     libvcruntime:undname.obj
 0002:0000fb54       ??_R3pDNameNode@@8         10080b54     libvcruntime:undname.obj
 0002:0000fb68       ??_R2pDNameNode@@8         10080b68     libvcruntime:undname.obj
 0002:0000fb74       ??_R1A@?0A@EA@pDNameNode@@8 10080b74     libvcruntime:undname.obj
 0002:0000fb98       ??_R4DNameStatusNode@@6B@  10080b98     libvcruntime:undname.obj
 0002:0000fbb0       ??_R3DNameStatusNode@@8    10080bb0     libvcruntime:undname.obj
 0002:0000fbc4       ??_R2DNameStatusNode@@8    10080bc4     libvcruntime:undname.obj
 0002:0000fbd0       ??_R1A@?0A@EA@DNameStatusNode@@8 10080bd0     libvcruntime:undname.obj
 0002:0000fbf4       ??_R4pairNode@@6B@         10080bf4     libvcruntime:undname.obj
 0002:0000fc0c       ??_R3pairNode@@8           10080c0c     libvcruntime:undname.obj
 0002:0000fc20       ??_R2pairNode@@8           10080c20     libvcruntime:undname.obj
 0002:0000fc2c       ??_R1A@?0A@EA@pairNode@@8  10080c2c     libvcruntime:undname.obj
 0002:0000fc50       ??_R4exception@std@@6B@    10080c50     libvcruntime:frame.obj
 0002:0000fc68       ??_R3exception@std@@8      10080c68     libvcruntime:frame.obj
 0002:0000fc7c       ??_R2exception@std@@8      10080c7c     libvcruntime:frame.obj
 0002:0000fc84       ??_R1A@?0A@EA@exception@std@@8 10080c84     libvcruntime:frame.obj
 0002:0000fca8       ??_R4bad_exception@std@@6B@ 10080ca8     libvcruntime:frame.obj
 0002:0000fcc0       ??_R3bad_exception@std@@8  10080cc0     libvcruntime:frame.obj
 0002:0000fcd4       ??_R2bad_exception@std@@8  10080cd4     libvcruntime:frame.obj
 0002:0000fce0       ??_R1A@?0A@EA@bad_exception@std@@8 10080ce0     libvcruntime:frame.obj
 0002:0000fd04       ??_R4type_info@@6B@        10080d04     LIBCMT:std_type_info_static.obj
 0002:0000fd1c       ??_R3type_info@@8          10080d1c     LIBCMT:std_type_info_static.obj
 0002:0000fd30       ??_R2type_info@@8          10080d30     LIBCMT:std_type_info_static.obj
 0002:0000fd38       ??_R1A@?0A@EA@type_info@@8 10080d38     LIBCMT:std_type_info_static.obj
 0002:0000fe70       ___safe_se_handler_table   10080e70     <linker-defined>
 0002:000101b8       ___rtc_iaa                 100811b8     LIBCMT:initsect.obj
 0002:000102bc       ___rtc_izz                 100812bc     LIBCMT:initsect.obj
 0002:000103c0       ___rtc_taa                 100813c0     LIBCMT:initsect.obj
 0002:000104c4       ___rtc_tzz                 100814c4     LIBCMT:initsect.obj
 0002:00010798       __TI2?AVbad_exception@std@@ 10081798     libvcruntime:frame.obj
 0002:000107ac       __CTA2?AVbad_exception@std@@ 100817ac     libvcruntime:frame.obj
 0002:000107bc       __CT??_R0?AVbad_exception@std@@@8??0bad_exception@std@@QAE@ABV01@@Z12 100817bc     libvcruntime:frame.obj
 0002:000107dc       __CT??_R0?AVexception@std@@@8??0exception@std@@QAE@ABV01@@Z12 100817dc     libvcruntime:frame.obj
 0003:000002e8       _homing_ldm_P              100832e8     homing_ldm_data.obj
 0003:00000b68       _pci20041digout            10083b68     xpctarget.obj
 0003:00000b6c       _nipcdio24cnfg             10083b6c     xpctarget.obj
 0003:00000b70       _rtddm6604cnfg             10083b70     xpctarget.obj
 0003:00001248       _DefaultCOMIOBase          10084248     xpcruntime:xpcimports.obj
 0003:00001258       _DefaultCOMIRQ             10084258     xpcruntime:xpcimports.obj
 0003:00001270       __fltused                  10084270     LIBCMT:fltused.obj
 0003:00001280       ___isa_enabled             10084280     LIBCMT:cpu_disp.obj
 0003:00001284       ___security_cookie_complement 10084284     LIBCMT:gs_cookie.obj
 0003:00001288       ___security_cookie         10084288     LIBCMT:gs_cookie.obj
 0003:00001290       ___scrt_native_dllmain_reason 10084290     LIBCMT:utility.obj
 0003:000012b0       __NLG_Destination          100842b0     libvcruntime:exsup.obj
 0003:000012d0       __iob                      100842d0     libucrt:_file.obj
 0003:000013a0       ___abort_behavior          100843a0     libucrt:abort.obj
 0003:000013b0       ___badioinfo               100843b0     libucrt:ioinit.obj
 0003:000013f0       __lookuptrailbytes         100843f0     libucrt:read.obj
 0003:00001530       ___acrt_initial_locale_data 10084530     libucrt:nlsdata.obj
 0003:0000160c       ___acrt_initial_locale_pointers 1008460c     libucrt:nlsdata.obj
 0003:00001618       ___acrt_wide_c_locale_string 10084618     libucrt:nlsdata.obj
 0003:0000161c       ___mb_cur_max              1008461c     libucrt:nlsdata.obj
 0003:00001628       ___acrt_initial_multibyte_data 10084628     libucrt:mbctype.obj
 0003:00001c48       __pctype                   10084c48     libucrt:ctype.obj
 0003:00001c4c       __pwctype                  10084c4c     libucrt:ctype.obj
 0003:00001c50       ___globallocalestatus      10084c50     libucrt:glstatus.obj
 0003:00001c58       ___acrt_lconv_c            10084c58     libucrt:localeconv.obj
 0003:00001cb8       ___acrt_lconv              10084cb8     libucrt:localeconv.obj
 0003:00001cbc       ___acrt_lconv_static_decimal 10084cbc     libucrt:localeconv.obj
 0003:00001cc0       ___acrt_lconv_static_W_decimal 10084cc0     libucrt:localeconv.obj
 0003:00001e14       ??_R0?AVDNameNode@@@8      10084e14     libvcruntime:undname.obj
 0003:00001e30       ??_R0?AVcharNode@@@8       10084e30     libvcruntime:undname.obj
 0003:00001e4c       ??_R0?AVpcharNode@@@8      10084e4c     libvcruntime:undname.obj
 0003:00001e68       ??_R0?AVpDNameNode@@@8     10084e68     libvcruntime:undname.obj
 0003:00001e88       ??_R0?AVDNameStatusNode@@@8 10084e88     libvcruntime:undname.obj
 0003:00001eac       ??_R0?AVpairNode@@@8       10084eac     libvcruntime:undname.obj
 0003:00001ec8       ??_R0?AVbad_exception@std@@@8 10084ec8     libvcruntime:frame.obj
 0003:00001ef0       ??_R0?AVexception@std@@@8  10084ef0     libvcruntime:frame.obj
 0003:00001f14       ??_R0?AVbad_alloc@std@@@8  10084f14     libvcruntime:ehhelpers.obj
 0003:00001f38       ??_R0?AVtype_info@@@8      10084f38     LIBCMT:std_type_info_static.obj
 0003:000020c8       ___isa_available_default   100850c8     rt_logging.obj
 0003:000020cc       _pci20098PortA             100850cc     xpctarget.obj
 0003:000020d0       _pci20098PortB             100850d0     xpctarget.obj
 0003:000020d4       _siepowercan_firmware_initialized 100850d4     xpctarget.obj
 0003:000020d8       _siepowercan_port1_configured 100850d8     xpctarget.obj
 0003:000020dc       _siepowercan_port2_configured 100850dc     xpctarget.obj
 0003:000020e0       _CANAC2_FIRMWARE_LOADED    100850e0     xpctarget.obj
 0003:000020e4       _rs232ports                100850e4     xpctarget.obj
 0003:000020f4       _NI_AT_MIO_16F_5_commreg2  100850f4     xpctarget.obj
 0003:000020f8       _RTD_DM6430_init           100850f8     xpctarget.obj
 0003:000020fc       _RTD_DM6420_init           100850fc     xpctarget.obj
 0003:00002100       _CANAC2_FIRMWARE_LOADED_mb1 10085100     xpctarget.obj
 0003:00002104       _CANAC2_FIRMWARE_LOADED_mb2 10085104     xpctarget.obj
 0003:00002108       _CANAC2_FIRMWARE_LOADED_mb3 10085108     xpctarget.obj
 0003:0000210c       _xmlsize                   1008510c     xpctarget.obj
 0003:00002d0c       ___isa_available           10085d0c     LIBCMT:cpu_disp.obj
 0003:00002d10       ___favor                   10085d10     LIBCMT:cpu_disp.obj
 0003:00002d20       ?__type_info_root_node@@3U__type_info_node@@A 10085d20     LIBCMT:tncleanup.obj
 0003:00002d30       ?_OptionsStorage@?1??__local_stdio_printf_options@@9@4_KA 10085d30     LIBCMT:default_local_stdio_options.obj
 0003:00002d40       ?_OptionsStorage@?1??__local_stdio_scanf_options@@9@4_KA 10085d40     LIBCMT:default_local_stdio_options.obj
 0003:00002d4c       ___scrt_current_native_startup_state 10085d4c     LIBCMT:utility.obj
 0003:00002d50       ___scrt_native_startup_lock 10085d50     LIBCMT:utility.obj
 0003:00002d78       ___scrt_debugger_hook_flag 10085d78     LIBCMT:utility_desktop.obj
 0003:00002d7c       ?pArgList@UnDecorator@@0PAVReplicator@@A 10085d7c     libvcruntime:undname.obj
 0003:00002d80       ?pZNameList@UnDecorator@@0PAVReplicator@@A 10085d80     libvcruntime:undname.obj
 0003:00002d84       ?pTemplateArgList@UnDecorator@@0PAVReplicator@@A 10085d84     libvcruntime:undname.obj
 0003:00002d88       ?gName@UnDecorator@@0PBDB  10085d88     libvcruntime:undname.obj
 0003:00002d8c       ?name@UnDecorator@@0PBDB   10085d8c     libvcruntime:undname.obj
 0003:00002d90       ?disableFlags@UnDecorator@@0KA 10085d90     libvcruntime:undname.obj
 0003:00002d94       ?fExplicitTemplateParams@UnDecorator@@0_NA 10085d94     libvcruntime:undname.obj
 0003:00002d95       ?fGetTemplateArgumentList@UnDecorator@@0_NA 10085d95     libvcruntime:undname.obj
 0003:00002d98       ?m_pGetParameter@UnDecorator@@0P6APADJ@ZA 10085d98     libvcruntime:undname.obj
 0003:00002d9c       ?m_CHPENameOffset@UnDecorator@@0KA 10085d9c     libvcruntime:undname.obj
 0003:00002da0       ?m_recursionLevel@UnDecorator@@0KA 10085da0     libvcruntime:undname.obj
 0003:00002e40       ___pPurecall               10085e40     libvcruntime:purevirt_data.obj
 0003:00002e44       ?__WinRTOutOfMemoryExceptionCallback@@3P6GPAXXZA 10085e44     libvcruntime:ehhelpers.obj
 0003:00002e50       ?c_exit_complete@?1???R<lambda_6e4b09c48022b2350581041d5f6b0c4c>@@QBE@XZ@4_NA 10085e50     libucrt:exit.obj
 0003:00002e54       __nstream                  10085e54     libucrt:_file.obj
 0003:00002e58       ___piob                    10085e58     libucrt:_file.obj
 0003:00002e60       __cflush                   10085e60     libucrt:_file.obj
 0003:0000321c       __environ_table            1008621c     libucrt:environment_initialization.obj
 0003:00003220       __wenviron_table           10086220     libucrt:environment_initialization.obj
 0003:00003228       ___dcrt_initial_wide_environment 10086228     libucrt:environment_initialization.obj
 0003:0000322c       ___dcrt_initial_narrow_environment 1008622c     libucrt:environment_initialization.obj
 0003:00003230       ___acrt_atexit_table       10086230     libucrt:onexit.obj
 0003:00003240       ___acrt_at_quick_exit_table 10086240     libucrt:onexit.obj
 0003:00003c88       ___pioinfo                 10086c88     libucrt:ioinit.obj
 0003:00003ef0       __nhandle                  10086ef0     libucrt:ioinit.obj
 0003:00003ef4       ___acrt_stdout_buffer      10086ef4     libucrt:_sftbuf.obj
 0003:00003ef8       ___acrt_stderr_buffer      10086ef8     libucrt:_sftbuf.obj
 0003:00003efc       ___acrt_locale_changed_data 10086efc     libucrt:wsetlocale.obj
 0003:00003f00       ___acrt_current_locale_data 10086f00     libucrt:nlsdata.obj
 0003:00003f18       ___acrt_current_multibyte_data 10086f18     libucrt:mbctype.obj
 0003:00003f1c       __mbctype                  10086f1c     libucrt:mbctype.obj
 0003:00003f20       __mbcasemap                10086f20     libucrt:mbctype.obj
 0003:00003f2c       ___argc                    10086f2c     libucrt:argv_data.obj
 0003:00003f30       ___argv                    10086f30     libucrt:argv_data.obj
 0003:00003f34       ___wargv                   10086f34     libucrt:argv_data.obj
 0003:00003f38       __acmdln                   10086f38     libucrt:argv_data.obj
 0003:00003f3c       __wcmdln                   10086f3c     libucrt:argv_data.obj
 0003:00003f40       __pgmptr                   10086f40     libucrt:argv_data.obj
 0003:00003f44       __wpgmptr                  10086f44     libucrt:argv_data.obj
 0003:00003f48       ___acrt_heap               10086f48     libucrt:heap_handle.obj
 0003:00003f54       __commode                  10086f54     libucrt:ncommode.obj
 0003:00003f58       ___acrt_lconv_static_null  10086f58     libucrt:localeconv.obj
 0003:00003f5c       ___acrt_lconv_static_W_null 10086f5c     libucrt:localeconv.obj
 0003:00003f84       __umaskval                 10086f84     libucrt:umask.obj
 0003:00003f94       __fmode                    10086f94     libucrt:txtmode.obj
 0003:00003f98       ___fastflag                10086f98     libucrt:fp_flags.obj
 0003:00003fc0       _CANAC2_2_receiveindex_mb3 10086fc0     <common>
 0003:00007094       _CANAC2_2_receivemaxindex_mb3 1008a094     <common>
 0003:000070a0       _CANAC2_2_sendindex_mb3    1008a0a0     <common>
 0003:000073c0       _CANAC2_2_sendmaxindex_mb3 1008a3c0     <common>
 0003:000073e0       _CANAC2_1_receiveindex_mb3 1008a3e0     <common>
 0003:00007700       _CANAC2_1_receivemaxindex_mb3 1008a700     <common>
 0003:00007720       _CANAC2_1_sendindex_mb3    1008a720     <common>
 0003:00007a40       _CANAC2_1_sendmaxindex_mb3 1008aa40     <common>
 0003:00007a60       _CANAC2_2_receive_mb3      1008aa60     <common>
 0003:00007d80       _CANAC2_2_send_mb3         1008ad80     <common>
 0003:000080a0       _CANAC2_1_receive_mb3      1008b0a0     <common>
 0003:000083c0       _CANAC2_1_send_mb3         1008b3c0     <common>
 0003:000086e0       _CANAC2_2_receiveindex_mb2 1008b6e0     <common>
 0003:00008a00       _CANAC2_2_receivemaxindex_mb2 1008ba00     <common>
 0003:00008a20       _CANAC2_2_sendindex_mb2    1008ba20     <common>
 0003:00008d40       _CANAC2_2_sendmaxindex_mb2 1008bd40     <common>
 0003:00008d60       _CANAC2_1_receiveindex_mb2 1008bd60     <common>
 0003:00009080       _CANAC2_1_receivemaxindex_mb2 1008c080     <common>
 0003:000090a0       _CANAC2_1_sendindex_mb2    1008c0a0     <common>
 0003:000093c0       _CANAC2_1_sendmaxindex_mb2 1008c3c0     <common>
 0003:000093e0       _CANAC2_2_receive_mb2      1008c3e0     <common>
 0003:00009700       _CANAC2_2_send_mb2         1008c700     <common>
 0003:00009a20       _CANAC2_1_receive_mb2      1008ca20     <common>
 0003:00009d40       _CANAC2_1_send_mb2         1008cd40     <common>
 0003:0000a060       _CANAC2_2_receiveindex_mb1 1008d060     <common>
 0003:0000a380       _CANAC2_2_receivemaxindex_mb1 1008d380     <common>
 0003:0000a3a0       _CANAC2_2_sendindex_mb1    1008d3a0     <common>
 0003:0000a6c0       _CANAC2_2_sendmaxindex_mb1 1008d6c0     <common>
 0003:0000a6e0       _CANAC2_1_receiveindex_mb1 1008d6e0     <common>
 0003:0000aa00       _CANAC2_1_receivemaxindex_mb1 1008da00     <common>
 0003:0000aa20       _CANAC2_1_sendindex_mb1    1008da20     <common>
 0003:0000ad40       _CANAC2_1_sendmaxindex_mb1 1008dd40     <common>
 0003:0000ad60       _CANAC2_2_receive_mb1      1008dd60     <common>
 0003:0000b080       _CANAC2_2_send_mb1         1008e080     <common>
 0003:0000b3a0       _CANAC2_1_receive_mb1      1008e3a0     <common>
 0003:0000b6c0       _CANAC2_1_send_mb1         1008e6c0     <common>
 0003:0000b9e0       _CANAC2_2_receiveindex     1008e9e0     <common>
 0003:0000bd00       _CANAC2_2_receivemaxindex  1008ed00     <common>
 0003:0000bd20       _CANAC2_2_sendindex        1008ed20     <common>
 0003:0000c040       _CANAC2_2_sendmaxindex     1008f040     <common>
 0003:0000c060       _CANAC2_1_receiveindex     1008f060     <common>
 0003:0000c380       _CANAC2_1_receivemaxindex  1008f380     <common>
 0003:0000c3a0       _CANAC2_1_sendindex        1008f3a0     <common>
 0003:0000c6c0       _CANAC2_1_sendmaxindex     1008f6c0     <common>
 0003:0000c6e0       _CANAC2_2_receive          1008f6e0     <common>
 0003:0000ca00       _CANAC2_2_send             1008fa00     <common>
 0003:0000cd20       _CANAC2_1_receive          1008fd20     <common>
 0003:0000d040       _CANAC2_1_send             10090040     <common>
 0003:0000d360       _siepowercan_can_object_buffer_port2 10090360     <common>
 0003:00011380       _siepowercan_can_object_buffer_port1 10094380     <common>
 0003:00015380       ?_OptionsStorage@?1??__local_stdio_printf_options@@9@9 10098380     <common>
 0003:00015394       _rtNaNF                    10098394     <common>
 0003:000153a8       _rtMinusInfF               100983a8     <common>
 0003:000153ac       _rtInfF                    100983ac     <common>
 0003:000153b0       _rtNaN                     100983b0     <common>
 0003:000153b8       _rtMinusInf                100983b8     <common>
 0003:000153c0       _rtInf                     100983c0     <common>
 0003:000153e0       _homing_ldm_M_             100983e0     <common>
 0003:00018420       _homing_ldm_DW             1009b420     <common>
 0003:000186e0       _homing_ldm_B              1009b6e0     <common>
 0003:00018848       _CloseClientSocket         1009b848     <common>
 0003:000188b0       _ConnectClientSocket       1009b8b0     <common>
 0003:000188b4       _BindClientSocket          1009b8b4     <common>
 0003:000188b8       _CreateClientSocket        1009b8b8     <common>
 0003:000188bc       _CloseServerSocket         1009b8bc     <common>
 0003:000188c0       _ConnectServerSocket       1009b8c0     <common>
 0003:000188c4       _OpenServerListen          1009b8c4     <common>
 0003:000188c8       _CreateServerSocket        1009b8c8     <common>
 0003:000188cc       _SocketReceive             1009b8cc     <common>
 0003:000188d0       _SocketSend                1009b8d0     <common>
 0003:000188d4       _GetSocketState            1009b8d4     <common>
 0003:000188d8       _GetSocket                 1009b8d8     <common>
 0003:000188dc       _socket                    1009b8dc     <common>
 0003:000188e0       _inet_addr                 1009b8e0     <common>
 0003:000188e4       _sendto                    1009b8e4     <common>
 0003:000188e8       _recvfrom                  1009b8e8     <common>
 0003:000188ec       _listen                    1009b8ec     <common>
 0003:000188f0       _ioctlsocket               1009b8f0     <common>
 0003:000188f4       _connect                   1009b8f4     <common>
 0003:000188f8       _closesocket               1009b8f8     <common>
 0003:000188fc       _setsockopt                1009b8fc     <common>
 0003:00018900       _bind                      1009b900     <common>
 0003:00018904       _accept                    1009b904     <common>
 0003:00018908       _GetHostTarIPAdd           1009b908     <common>
 0003:0001890c       _GetDCUUsage               1009b90c     <common>
 0003:00018910       _DeleteRoute               1009b910     <common>
 0003:00018914       _AddGatewayRoute           1009b914     <common>
 0003:00018918       _SetIP                     1009b918     <common>
 0003:0001891c       _CloseInterface            1009b91c     <common>
 0003:00018920       _OpenInterface             1009b920     <common>
 0003:00018924       _SetIPTASKPriority         1009b924     <common>
 0003:00018928       _isUsedByRTIP              1009b928     <common>
 0003:0001892c       _slrtWarning               1009b92c     <common>
 0003:00018930       _slrtGetCPUTCelsius        1009b930     <common>
 0003:00018934       _geterrorstring            1009b934     <common>
 0003:00018938       _getlasterror              1009b938     <common>
 0003:0001893c       _slrtLogEvent              1009b93c     <common>
 0003:00018940       _slrtGetDefaultDrive       1009b940     <common>
 0003:00018944       _slrtfsFread               1009b944     <common>
 0003:00018948       _slrtfsGetFileStatus       1009b948     <common>
 0003:0001894c       _slrtfsOpenFileAsync       1009b94c     <common>
 0003:00018950       _slrtfsCloseFileAsync      1009b950     <common>
 0003:00018954       _slrtfsGetFileErrorMessage 1009b954     <common>
 0003:00018958       _slrtfsGetFileError        1009b958     <common>
 0003:0001895c       _slrtfsWriteToFile         1009b95c     <common>
 0003:00018960       _slrtfsCloseFile           1009b960     <common>
 0003:00018964       _slrtfsOpenFile            1009b964     <common>
 0003:00018968       _slrtGetSgCRBSpace         1009b968     <common>
 0003:0001896c       _slrtGetCRBScratchSpace    1009b96c     <common>
 0003:00018970       _slrteSetupMSI             1009b970     <common>
 0003:00018974       _slTestRegAssessment       1009b974     <common>
 0003:00018978       _slTestTerminate           1009b978     <common>
 0003:0001897c       _slTestEvalOnFail          1009b97c     <common>
 0003:00018980       _slTestLogAssessments      1009b980     <common>
 0003:00018984       _slTestInitialize          1009b984     <common>
 0003:00018988       _unRegisterPTPTimeRead     1009b988     <common>
 0003:0001898c       _registerPTPTimeRead       1009b98c     <common>
 0003:00018990       _slrteGetCurrentStepSize   1009b990     <common>
 0003:00018994       _slrteSetStepSizeDelta     1009b994     <common>
 0003:00018998       _xpceGetIntTimerGranularityNS 1009b998     <common>
 0003:0001899c       _xpceDAQUpdateTimeStamp    1009b99c     <common>
 0003:000189a0       _xpceDAQPostEvent          1009b9a0     <common>
 0003:000189a4       _StreamVideo               1009b9a4     <common>
 0003:000189a8       _StopVideoDisplay          1009b9a8     <common>
 0003:000189ac       _StartVideoDisplay         1009b9ac     <common>
 0003:000189b0       _DestroyVideoDisplay       1009b9b0     <common>
 0003:000189b4       _CreateVideoDisplay        1009b9b4     <common>
 0003:000189b8       _ConvertUImage             1009b9b8     <common>
 0003:000189bc       _StopVideo                 1009b9bc     <common>
 0003:000189c0       _ReadFrameBuffer           1009b9c0     <common>
 0003:000189c4       _StartVideo                1009b9c4     <common>
 0003:000189c8       _GetVideoConfigs           1009b9c8     <common>
 0003:000189cc       _FindUsbVideoDevice        1009b9cc     <common>
 0003:000189d0       _xpceDeleteSemaphore       1009b9d0     <common>
 0003:000189d4       _xpceSignalSemaphore       1009b9d4     <common>
 0003:000189d8       _xpceWaitSemaphore         1009b9d8     <common>
 0003:000189dc       _xpceCreateSemaphore       1009b9dc     <common>
 0003:000189e0       _TBGiveSpinFast            1009b9e0     <common>
 0003:000189e4       _TBTakeSpinFast            1009b9e4     <common>
 0003:000189e8       _TBDeleteSpin              1009b9e8     <common>
 0003:000189ec       _TBCreateSpin              1009b9ec     <common>
 0003:000189f0       _xpceScopeAcqOK            1009b9f0     <common>
 0003:000189f4       _rl32eRestartAcquisition   1009b9f4     <common>
 0003:000189f8       _rl32eSetTargetScopeSigFt  1009b9f8     <common>
 0003:000189fc       _rl32eSetTargetScope       1009b9fc     <common>
 0003:00018a00       _xpceFSScopeSet            1009ba00     <common>
 0003:00018a04       _rl32eSetScope             1009ba04     <common>
 0003:00018a08       _rl32eAddSignal            1009ba08     <common>
 0003:00018a0c       _rl32eGetSignalNo          1009ba0c     <common>
 0003:00018a10       _rl32eDefScope             1009ba10     <common>
 0003:00018a14       _rl32eScopeExists          1009ba14     <common>
 0003:00018a18       _xpceGetParamDims          1009ba18     <common>
 0003:00018a1c       _xpceGetParameter          1009ba1c     <common>
 0003:00018a20       _xpceSetParameter          1009ba20     <common>
 0003:00018a24       _xpceGetSignalValue        1009ba24     <common>
 0003:00018a28       _xpceAssignPCIInterrupt    1009ba28     <common>
 0003:00018a2c       _rl32eGetPCIInfoAtSlot     1009ba2c     <common>
 0003:00018a30       _rl32eGetPCIInfo           1009ba30     <common>
 0003:00018a34       _rl32eShowPCIInfo          1009ba34     <common>
 0003:00018a38       _rl32eShowPCIDev           1009ba38     <common>
 0003:00018a3c       _xpceGetTET                1009ba3c     <common>
 0003:00018a40       _xpceaddEvent              1009ba40     <common>
 0003:00018a44       _xpceDeRegisterISR         1009ba44     <common>
 0003:00018a48       _xpceRegisterISR           1009ba48     <common>
 0003:00018a4c       _xpcIsModelInit            1009ba4c     <common>
 0003:00018a50       _xpcGetElapsedTime         1009ba50     <common>
 0003:00018a54       _xpcBusyWait               1009ba54     <common>
 0003:00018a58       _xpcFreePhysicalMemory     1009ba58     <common>
 0003:00018a5c       _xpcAllocPhysicalMemory    1009ba5c     <common>
 0003:00018a60       _xpcReserveMemoryRegion    1009ba60     <common>
 0003:00018a64       _xpcOutpB                  1009ba64     <common>
 0003:00018a68       _xpcOutpW                  1009ba68     <common>
 0003:00018a6c       _xpcOutpDW                 1009ba6c     <common>
 0003:00018a70       _xpcInpB                   1009ba70     <common>
 0003:00018a74       _xpcInpW                   1009ba74     <common>
 0003:00018a78       _xpcInpDW                  1009ba78     <common>
 0003:00018a7c       ___scrt_ucrt_dll_is_in_use 1009ba7c     <common>
 0003:00018a88       ___dyn_tls_init_callback   1009ba88     <common>
 0003:00018a94       __pmatherr                 1009ba94     <common>
 0003:00018aa0       ___use_sse2_mathfcns       1009baa0     <common>
 0004:00000000       __imp__GetModuleHandleA@4  1009c000     kernel32:KERNEL32.dll
 0004:00000004       __imp__GetProcAddress@8    1009c004     kernel32:KERNEL32.dll
 0004:00000008       __imp__UnhandledExceptionFilter@4 1009c008     kernel32:KERNEL32.dll
 0004:0000000c       __imp__SetUnhandledExceptionFilter@4 1009c00c     kernel32:KERNEL32.dll
 0004:00000010       __imp__GetCurrentProcess@0 1009c010     kernel32:KERNEL32.dll
 0004:00000014       __imp__TerminateProcess@8  1009c014     kernel32:KERNEL32.dll
 0004:00000018       __imp__IsProcessorFeaturePresent@4 1009c018     kernel32:KERNEL32.dll
 0004:0000001c       __imp__QueryPerformanceCounter@4 1009c01c     kernel32:KERNEL32.dll
 0004:00000020       __imp__GetCurrentProcessId@0 1009c020     kernel32:KERNEL32.dll
 0004:00000024       __imp__GetCurrentThreadId@0 1009c024     kernel32:KERNEL32.dll
 0004:00000028       __imp__GetSystemTimeAsFileTime@4 1009c028     kernel32:KERNEL32.dll
 0004:0000002c       __imp__InitializeSListHead@4 1009c02c     kernel32:KERNEL32.dll
 0004:00000030       __imp__IsDebuggerPresent@0 1009c030     kernel32:KERNEL32.dll
 0004:00000034       __imp__GetStartupInfoW@4   1009c034     kernel32:KERNEL32.dll
 0004:00000038       __imp__GetModuleHandleW@4  1009c038     kernel32:KERNEL32.dll
 0004:0000003c       __imp__SetEndOfFile@4      1009c03c     kernel32:KERNEL32.dll
 0004:00000040       __imp__InterlockedPushEntrySList@8 1009c040     kernel32:KERNEL32.dll
 0004:00000044       __imp__InterlockedFlushSList@4 1009c044     kernel32:KERNEL32.dll
 0004:00000048       __imp__RtlUnwind@16        1009c048     kernel32:KERNEL32.dll
 0004:0000004c       __imp__GetLastError@0      1009c04c     kernel32:KERNEL32.dll
 0004:00000050       __imp__SetLastError@4      1009c050     kernel32:KERNEL32.dll
 0004:00000054       __imp__EnterCriticalSection@4 1009c054     kernel32:KERNEL32.dll
 0004:00000058       __imp__LeaveCriticalSection@4 1009c058     kernel32:KERNEL32.dll
 0004:0000005c       __imp__DeleteCriticalSection@4 1009c05c     kernel32:KERNEL32.dll
 0004:00000060       __imp__InitializeCriticalSectionAndSpinCount@8 1009c060     kernel32:KERNEL32.dll
 0004:00000064       __imp__TlsAlloc@0          1009c064     kernel32:KERNEL32.dll
 0004:00000068       __imp__TlsGetValue@4       1009c068     kernel32:KERNEL32.dll
 0004:0000006c       __imp__TlsSetValue@8       1009c06c     kernel32:KERNEL32.dll
 0004:00000070       __imp__TlsFree@4           1009c070     kernel32:KERNEL32.dll
 0004:00000074       __imp__FreeLibrary@4       1009c074     kernel32:KERNEL32.dll
 0004:00000078       __imp__LoadLibraryExW@12   1009c078     kernel32:KERNEL32.dll
 0004:0000007c       __imp__EncodePointer@4     1009c07c     kernel32:KERNEL32.dll
 0004:00000080       __imp__RaiseException@16   1009c080     kernel32:KERNEL32.dll
 0004:00000084       __imp__GetStdHandle@4      1009c084     kernel32:KERNEL32.dll
 0004:00000088       __imp__GetFileType@4       1009c088     kernel32:KERNEL32.dll
 0004:0000008c       __imp__GetModuleFileNameW@12 1009c08c     kernel32:KERNEL32.dll
 0004:00000090       __imp__GetModuleHandleExW@12 1009c090     kernel32:KERNEL32.dll
 0004:00000094       __imp__WriteConsoleW@20    1009c094     kernel32:KERNEL32.dll
 0004:00000098       __imp__ExitProcess@4       1009c098     kernel32:KERNEL32.dll
 0004:0000009c       __imp__HeapAlloc@12        1009c09c     kernel32:KERNEL32.dll
 0004:000000a0       __imp__HeapFree@12         1009c0a0     kernel32:KERNEL32.dll
 0004:000000a4       __imp__WriteFile@20        1009c0a4     kernel32:KERNEL32.dll
 0004:000000a8       __imp__OutputDebugStringW@4 1009c0a8     kernel32:KERNEL32.dll
 0004:000000ac       __imp__SetConsoleCtrlHandler@8 1009c0ac     kernel32:KERNEL32.dll
 0004:000000b0       __imp__HeapReAlloc@16      1009c0b0     kernel32:KERNEL32.dll
 0004:000000b4       __imp__GetDateFormatW@24   1009c0b4     kernel32:KERNEL32.dll
 0004:000000b8       __imp__GetTimeFormatW@24   1009c0b8     kernel32:KERNEL32.dll
 0004:000000bc       __imp__CompareStringW@24   1009c0bc     kernel32:KERNEL32.dll
 0004:000000c0       __imp__LCMapStringW@24     1009c0c0     kernel32:KERNEL32.dll
 0004:000000c4       __imp__GetLocaleInfoW@16   1009c0c4     kernel32:KERNEL32.dll
 0004:000000c8       __imp__IsValidLocale@8     1009c0c8     kernel32:KERNEL32.dll
 0004:000000cc       __imp__GetUserDefaultLCID@0 1009c0cc     kernel32:KERNEL32.dll
 0004:000000d0       __imp__EnumSystemLocalesW@8 1009c0d0     kernel32:KERNEL32.dll
 0004:000000d4       __imp__CloseHandle@4       1009c0d4     kernel32:KERNEL32.dll
 0004:000000d8       __imp__ReadFile@20         1009c0d8     kernel32:KERNEL32.dll
 0004:000000dc       __imp__GetConsoleMode@8    1009c0dc     kernel32:KERNEL32.dll
 0004:000000e0       __imp__ReadConsoleW@20     1009c0e0     kernel32:KERNEL32.dll
 0004:000000e4       __imp__GetConsoleCP@0      1009c0e4     kernel32:KERNEL32.dll
 0004:000000e8       __imp__MultiByteToWideChar@24 1009c0e8     kernel32:KERNEL32.dll
 0004:000000ec       __imp__GetCurrentThread@0  1009c0ec     kernel32:KERNEL32.dll
 0004:000000f0       __imp__DeleteFileW@4       1009c0f0     kernel32:KERNEL32.dll
 0004:000000f4       __imp__SetFilePointerEx@20 1009c0f4     kernel32:KERNEL32.dll
 0004:000000f8       __imp__FindClose@4         1009c0f8     kernel32:KERNEL32.dll
 0004:000000fc       __imp__FindFirstFileExW@24 1009c0fc     kernel32:KERNEL32.dll
 0004:00000100       __imp__FindNextFileW@8     1009c100     kernel32:KERNEL32.dll
 0004:00000104       __imp__IsValidCodePage@4   1009c104     kernel32:KERNEL32.dll
 0004:00000108       __imp__GetACP@0            1009c108     kernel32:KERNEL32.dll
 0004:0000010c       __imp__GetOEMCP@0          1009c10c     kernel32:KERNEL32.dll
 0004:00000110       __imp__GetCPInfo@8         1009c110     kernel32:KERNEL32.dll
 0004:00000114       __imp__GetCommandLineA@0   1009c114     kernel32:KERNEL32.dll
 0004:00000118       __imp__GetCommandLineW@0   1009c118     kernel32:KERNEL32.dll
 0004:0000011c       __imp__WideCharToMultiByte@32 1009c11c     kernel32:KERNEL32.dll
 0004:00000120       __imp__GetEnvironmentStringsW@0 1009c120     kernel32:KERNEL32.dll
 0004:00000124       __imp__FreeEnvironmentStringsW@4 1009c124     kernel32:KERNEL32.dll
 0004:00000128       __imp__SetEnvironmentVariableW@8 1009c128     kernel32:KERNEL32.dll
 0004:0000012c       __imp__GetProcessHeap@0    1009c12c     kernel32:KERNEL32.dll
 0004:00000130       __imp__FlushFileBuffers@4  1009c130     kernel32:KERNEL32.dll
 0004:00000134       __imp__SetStdHandle@8      1009c134     kernel32:KERNEL32.dll
 0004:00000138       __imp__CreateFileW@28      1009c138     kernel32:KERNEL32.dll
 0004:0000013c       __imp__GetStringTypeW@16   1009c13c     kernel32:KERNEL32.dll
 0004:00000140       __imp__HeapSize@12         1009c140     kernel32:KERNEL32.dll
 0004:00000144       __imp__DecodePointer@4     1009c144     kernel32:KERNEL32.dll
 0004:00000148       \177KERNEL32_NULL_THUNK_DATA 1009c148     kernel32:KERNEL32.dll
 0004:000001b4       __IMPORT_DESCRIPTOR_KERNEL32 1009c1b4     kernel32:KERNEL32.dll
 0004:000001c8       __NULL_IMPORT_DESCRIPTOR   1009c1c8     kernel32:KERNEL32.dll
 0005:00000000       ___guard_check_icall_fptr  1009d000     LIBCMT:guard_support.obj

 entry point at        0001:00001d4c

 Static symbols

 0000:fff63000       __guard_fids_??R<lambda_1f3ce6bd48e0aa2e72a71c02eee379d3>@@QBEHXZ 10000000     libucrt:winapi_thunks.obj
 0000:fff63000       __guard_fids_??B<lambda_29d3c280b90b41c2ae070ffca879996a>@@QBEP6GHPA_W@ZXZ 10000000     libucrt:winapi_thunks.obj
 0000:fff63000       __guard_fids_?enum_system_locales_ex_nolock@@YAHQ6GHPA_WKJ@Z@Z 10000000     libucrt:winapi_thunks.obj
 0000:fff63000       __guard_fids__             10000000     libucrt:stdio_initializer.obj
 0000:fff63000       __guard_fids__             10000000     LIBCMT:guard_support.obj
 0000:fff63000       __guard_fids__signal       10000000     libucrt:signal.obj
 0000:fff63000       __guard_fids____acrt_initialize_ptd 10000000     libucrt:per_thread_data.obj
 0000:fff63000       __guard_fids__             10000000     libucrt:wsetlocale.obj
 0000:fff63000       __guard_fids_?get_terminate_or_default@@YAP6AXXZQBU__acrt_ptd@@@Z 10000000     libucrt:terminate.obj
 0000:fff63000       __guard_fids___get_terminate 10000000     libucrt:terminate.obj
 0000:fff5e000       .debug$S                   10000000     homing_ldm_slrt.exp
 0000:fff63000       __guard_fids__set_terminate 10000000     libucrt:terminate.obj
 0000:fff63000       __guard_fids__             10000000     libucrt:initialization.obj
 0000:fff63000       __guard_fids____dcrt_uninitialize_environments_nolock 10000000     libucrt:environment_initialization.obj
 0000:fff63000       __guard_fids_??$expand_argument_wildcards@D@@YAHQAD0AAV?$argument_list@D@?A0x5f5c8891@@@Z 10000000     libucrt:argv_wildcards.obj
 0000:fff63000       __guard_fids_??$expand_argument_wildcards@_W@@YAHQA_W0AAV?$argument_list@_W@?A0x5f5c8891@@@Z 10000000     libucrt:argv_wildcards.obj
 0000:fff63000       __guard_fids_??B<lambda_86056e3c024bff449830248dc1621ed2>@@QBEP6AHPBX0@ZXZ 10000000     libucrt:argv_wildcards.obj
 0000:fff63000       __guard_fids_??B<lambda_601ce2808d07e6dd980fd6da59ab4158>@@QBEP6AHPBX0@ZXZ 10000000     libucrt:argv_wildcards.obj
 0000:fff63000       __guard_fids___guard_icall_checks_enforced 10000000     LIBCMT:guard_support.obj
 0000:fff63000       __guard_fids__GetLocaleNameFromLangCountry 10000000     libucrt:get_qualified_locale.obj
 0000:fff5e000       .debug$S                   10000000     kernel32:KERNEL32.dll
 0000:fff5e000       .debug$S                   10000000     kernel32:KERNEL32.dll
 0000:fff5e000       .debug$S                   10000000     kernel32:KERNEL32.dll
 0000:fff5e000       .debug$S                   10000000     kernel32:KERNEL32.dll
 0000:fff5e000       .debug$S                   10000000     kernel32:KERNEL32.dll
 0000:fff5e000       .debug$S                   10000000     kernel32:KERNEL32.dll
 0000:fff5e000       .debug$S                   10000000     kernel32:KERNEL32.dll
 0000:fff5e000       .debug$S                   10000000     kernel32:KERNEL32.dll
 0000:fff5e000       .debug$S                   10000000     kernel32:KERNEL32.dll
 0000:fff5e000       .debug$S                   10000000     kernel32:KERNEL32.dll
 0000:fff5e000       .debug$S                   10000000     kernel32:KERNEL32.dll
 0000:fff5e000       .debug$S                   10000000     kernel32:KERNEL32.dll
 0000:fff5e000       .debug$S                   10000000     kernel32:KERNEL32.dll
 0000:fff5e000       .debug$S                   10000000     kernel32:KERNEL32.dll
 0000:fff5e000       .debug$S                   10000000     kernel32:KERNEL32.dll
 0000:fff5e000       .debug$S                   10000000     kernel32:KERNEL32.dll
 0000:fff5e000       .debug$S                   10000000     kernel32:KERNEL32.dll
 0000:fff5e000       .debug$S                   10000000     kernel32:KERNEL32.dll
 0000:fff5e000       .debug$S                   10000000     kernel32:KERNEL32.dll
 0000:fff5e000       .debug$S                   10000000     kernel32:KERNEL32.dll
 0000:fff5e000       .debug$S                   10000000     kernel32:KERNEL32.dll
 0000:fff5e000       .debug$S                   10000000     kernel32:KERNEL32.dll
 0000:fff5e000       .debug$S                   10000000     kernel32:KERNEL32.dll
 0000:fff5e000       .debug$S                   10000000     kernel32:KERNEL32.dll
 0000:fff5e000       .debug$S                   10000000     kernel32:KERNEL32.dll
 0000:fff5e000       .debug$S                   10000000     kernel32:KERNEL32.dll
 0000:fff5e000       .debug$S                   10000000     kernel32:KERNEL32.dll
 0000:fff5e000       .debug$S                   10000000     kernel32:KERNEL32.dll
 0000:fff5e000       .debug$S                   10000000     kernel32:KERNEL32.dll
 0000:fff5e000       .debug$S                   10000000     kernel32:KERNEL32.dll
 0000:fff5e000       .debug$S                   10000000     kernel32:KERNEL32.dll
 0000:fff5e000       .debug$S                   10000000     kernel32:KERNEL32.dll
 0000:fff5e000       .debug$S                   10000000     kernel32:KERNEL32.dll
 0000:fff5e000       .debug$S                   10000000     kernel32:KERNEL32.dll
 0000:fff5e000       .debug$S                   10000000     kernel32:KERNEL32.dll
 0000:fff5e000       .debug$S                   10000000     kernel32:KERNEL32.dll
 0000:fff5e000       .debug$S                   10000000     kernel32:KERNEL32.dll
 0000:fff5e000       .debug$S                   10000000     kernel32:KERNEL32.dll
 0000:fff5e000       .debug$S                   10000000     kernel32:KERNEL32.dll
 0000:fff5e000       .debug$S                   10000000     kernel32:KERNEL32.dll
 0000:fff5e000       .debug$S                   10000000     kernel32:KERNEL32.dll
 0000:fff5e000       .debug$S                   10000000     kernel32:KERNEL32.dll
 0000:fff5e000       .debug$S                   10000000     kernel32:KERNEL32.dll
 0000:fff5e000       .debug$S                   10000000     kernel32:KERNEL32.dll
 0000:fff5e000       .debug$S                   10000000     kernel32:KERNEL32.dll
 0000:fff5e000       .debug$S                   10000000     kernel32:KERNEL32.dll
 0000:fff5e000       .debug$S                   10000000     kernel32:KERNEL32.dll
 0000:fff5e000       .debug$S                   10000000     kernel32:KERNEL32.dll
 0000:fff5e000       .debug$S                   10000000     kernel32:KERNEL32.dll
 0000:fff5e000       .debug$S                   10000000     kernel32:KERNEL32.dll
 0000:fff5e000       .debug$S                   10000000     kernel32:KERNEL32.dll
 0000:fff5e000       .debug$S                   10000000     kernel32:KERNEL32.dll
 0000:fff5e000       .debug$S                   10000000     kernel32:KERNEL32.dll
 0000:fff5e000       .debug$S                   10000000     kernel32:KERNEL32.dll
 0000:fff5e000       .debug$S                   10000000     kernel32:KERNEL32.dll
 0000:fff5e000       .debug$S                   10000000     kernel32:KERNEL32.dll
 0000:fff5e000       .debug$S                   10000000     kernel32:KERNEL32.dll
 0000:fff5e000       .debug$S                   10000000     kernel32:KERNEL32.dll
 0000:fff5e000       .debug$S                   10000000     kernel32:KERNEL32.dll
 0000:fff5e000       .debug$S                   10000000     kernel32:KERNEL32.dll
 0000:fff5e000       .debug$S                   10000000     kernel32:KERNEL32.dll
 0000:fff5e000       .debug$S                   10000000     kernel32:KERNEL32.dll
 0000:fff5e000       .debug$S                   10000000     kernel32:KERNEL32.dll
 0000:fff5e000       .debug$S                   10000000     kernel32:KERNEL32.dll
 0000:fff5e000       .debug$S                   10000000     kernel32:KERNEL32.dll
 0000:fff5e000       .debug$S                   10000000     kernel32:KERNEL32.dll
 0000:fff5e000       .debug$S                   10000000     kernel32:KERNEL32.dll
 0000:fff63000       __guard_fids__GetLocaleNameFromLanguage 10000000     libucrt:get_qualified_locale.obj
 0000:fff63000       __guard_fids__GetLcidFromLangCountry 10000000     libucrt:getqloc_downlevel.obj
 0000:fff63000       __guard_fids__GetLcidFromLanguage 10000000     libucrt:getqloc_downlevel.obj
 0000:fff63000       __guard_fids__GetLcidFromCountry 10000000     libucrt:getqloc_downlevel.obj
 0000:fff63000       __guard_fids__             10000000     libucrt:locale_initializer.obj
 0000:fff63000       __guard_fids__             10000000     libvcruntime:ehhelpers.obj
 0000:fff63000       __guard_fids_?get_unexpected_or_default@@YAP6AXXZQBU__vcrt_ptd@@@Z 10000000     libvcruntime:unexpected.obj
 0000:fff63000       __guard_fids___get_unexpected 10000000     libvcruntime:unexpected.obj
 0000:fff63000       __guard_fids__             10000000     LIBCMT:std_type_info_static.obj
 0000:fff63000       __guard_fids__set_unexpected 10000000     libvcruntime:unexpected.obj
 0000:fff63000       __guard_fids__             10000000     libvcruntime:frame.obj
 0000:fff63000       __guard_fids__             10000000     libvcruntime:frame.obj
 0000:fff63000       __guard_fids__             10000000     libvcruntime:frame.obj
 0000:fff63000       __guard_fids__             10000000     libvcruntime:frame.obj
 0000:fff63000       __guard_fids__             10000000     libvcruntime:frame.obj
 0000:fff63000       __guard_fids_??$__acrt_mbs_to_wcs@U__crt_win32_buffer_internal_dynamic_resizing@@@@YAHQBDAAV?$__crt_win32_buffer@_WU__crt_win32_buffer_internal_dynamic_resizing@@@@PAU__crt_locale_pointers@@@Z 10000000     libucrt:findfirstfileexa.obj
 0000:fff63000       __guard_fids____acrt_FindNextFileA 10000000     libucrt:findnextfilea.obj
 0000:fff63000       __guard_fids__             10000000     libucrt:sse2_initializer.obj
 0000:fff63000       __guard_fids_??$__acrt_wcs_to_mbs@U__crt_win32_buffer_no_resizing@@@@YAHQB_WAAV?$__crt_win32_buffer@DU__crt_win32_buffer_no_resizing@@@@PAU__crt_locale_pointers@@@Z 10000000     libucrt:findnextfilea.obj
 0000:fff63000       __guard_fids__             10000000     libucrt:multibyte_initializer.obj
 0000:fff63000       __guard_fids_??$__acrt_mbs_to_wcs@U__crt_win32_buffer_internal_dynamic_resizing@@@@YAHQBDAAV?$__crt_win32_buffer@_WU__crt_win32_buffer_internal_dynamic_resizing@@@@PAU__crt_locale_pointers@@@Z 10000000     libucrt:setenvironmentvariablea.obj
 0000:fff63000       __guard_fids____vcrt_initialize_ptd 10000000     libvcruntime:per_thread_data.obj
 0000:fff63000       __guard_fids__             10000000     libvcruntime:undname.obj
 0000:fff63000       __guard_fids__             10000000     libvcruntime:undname.obj
 0000:fff63000       __guard_fids__             10000000     libvcruntime:undname.obj
 0000:fff63000       __guard_fids__             10000000     libvcruntime:undname.obj
 0000:fff63000       __guard_fids__             10000000     libvcruntime:undname.obj
 0000:fff63000       __guard_fids__             10000000     libvcruntime:undname.obj
 0000:fff63000       __guard_fids____libm_error_support 10000000     libucrt:libm_error.obj
 0000:fff63000       __guard_fids__             10000000     libucrt:console_output_initializer.obj
 0000:fff63000       __guard_fids____except_validate_jump_buffer 10000000     libvcruntime:jbcxrval.obj
 0000:fff63000       __guard_fids____except_validate_jump_buffer_common 10000000     libvcruntime:jbcxrval.obj
 0000:fff63000       __guard_fids____except_validate_context_record 10000000     libvcruntime:jbcxrval.obj
 0000:fff63000       __guard_fids___guard_icall_checks_enforced 10000000     libvcruntime:jbcxrval.obj
 0000:fff63000       __guard_fids__             10000000     libvcruntime:jbcxrval.obj
 0000:fff63000       __guard_fids_??B<lambda_02a71323d951a238fa4826e9f186893b>@@QBEP6AXQAX@ZXZ 10000000     libvcruntime:std_type_info.obj
 0000:fff63000       __guard_fids_??B<lambda_cea3005bd909f0fdd45a57e92f4e3309>@@QBEP6APAXI@ZXZ 10000000     libvcruntime:std_type_info.obj
 0000:fff63000       __guard_fids____std_type_info_name 10000000     libvcruntime:std_type_info.obj
 0000:fff5e000       .debug$S                   10000000     kernel32:KERNEL32.dll
 0000:fff5e000       .debug$S                   10000000     kernel32:KERNEL32.dll
 0000:fff5e000       .debug$S                   10000000     kernel32:KERNEL32.dll
 0000:fff5e000       .debug$S                   10000000     kernel32:KERNEL32.dll
 0000:fff5e000       .debug$S                   10000000     kernel32:KERNEL32.dll
 0000:fff5e000       .debug$S                   10000000     kernel32:KERNEL32.dll
 0000:fff5e000       .debug$S                   10000000     kernel32:KERNEL32.dll
 0000:fff5e000       .debug$S                   10000000     kernel32:KERNEL32.dll
 0000:fff5e000       .debug$S                   10000000     kernel32:KERNEL32.dll
 0000:fff5e000       .debug$S                   10000000     kernel32:KERNEL32.dll
 0000:fff5e000       .debug$S                   10000000     kernel32:KERNEL32.dll
 0000:fff5e000       .debug$S                   10000000     kernel32:KERNEL32.dll
 0000:fff5e000       .debug$S                   10000000     kernel32:KERNEL32.dll
 0000:fff5e000       .debug$S                   10000000     kernel32:KERNEL32.dll
 0000:fff5e000       .debug$S                   10000000     kernel32:KERNEL32.dll
 0000:fff63000       __guard_fids_?dllmain_dispatch@@YAHQAUHINSTANCE__@@KQAX@Z 10000000     LIBCMT:dll_dllmain.obj
 0000:fff63000       __guard_fids____scrt_set_unhandled_exception_filter 10000000     LIBCMT:utility_desktop.obj
 0000:fff63004       __guard_fids__             10000004     libucrt:stdio_initializer.obj
 0001:00006500       _Constant_Acceleration_ADIM_par 10007500 f   homing_ldm.obj
 0001:00008570       _homing_ldm_Evaluate_Trajectory 10009570 f   homing_ldm.obj
 0001:000086e0       _homing_ldm_initialize     100096e0 f   homing_ldm.obj
 0001:000088c0       _homing_ldm_output         100098c0 f   homing_ldm.obj
 0001:00008ed4       $LN29                      10009ed4     homing_ldm.obj
 0001:00009070       _homing_ldm_terminate      1000a070 f   homing_ldm.obj
 0001:00009120       _homing_ldm_update         1000a120 f   homing_ldm.obj
 0001:0000a58c       $LN20                      1000b58c     rtw_modelmap_utils.obj
 0001:0000b260       _local_CreateStructLogVar  1000c260 f   rt_logging.obj
 0001:0000c1a0       _rt_DestroyLogVar          1000d1a0 f   rt_logging.obj
 0001:0000c2b0       _rt_DestroyStructLogVar    1000d2b0 f   rt_logging.obj
 0001:0000c4d0       _rt_FixupLogVar            1000d4d0 f   rt_logging.obj
 0001:0000ca90       _rt_GetActualDTypeID       1000da90 f   rt_logging.obj
 0001:0000caa0       _rt_GetDataTypeConvertInfo 1000daa0 f   rt_logging.obj
 0001:0000cb20       _rt_GetDblValueFromOverSizedData 1000db20 f   rt_logging.obj
 0001:0000cdd0       _rt_GetMatIdFromMxId       1000ddd0 f   rt_logging.obj
 0001:0000ce34       $LN19                      1000de34     rt_logging.obj
 0001:0000cf10       _rt_GetNonBoolMxIdFromDTypeId 1000df10 f   rt_logging.obj
 0001:0000cf60       $LN27                      1000df60     rt_logging.obj
 0001:0000cfa0       _rt_GetSizeofComplexType   1000dfa0 f   rt_logging.obj
 0001:0000cfe0       $LN15                      1000dfe0     rt_logging.obj
 0001:0000d020       _rt_GetSizeofDataType      1000e020 f   rt_logging.obj
 0001:0000d050       $LN16                      1000e050     rt_logging.obj
 0001:0000d090       _rt_InitSignalsStruct      1000e090 f   rt_logging.obj
 0001:0000e670       _rt_LoadModifiedLogVarName 1000f670 f   rt_logging.obj
 0001:0000e770       _rt_ProcessMatItem         1000f770 f   rt_logging.obj
 0001:0000f394       $LN413                     10010394     rt_logging.obj
 0001:0000f3a4       $LN414                     100103a4     rt_logging.obj
 0001:0000f710       _rt_ReallocLogVar          10010710 f   rt_logging.obj
 0001:0000fac0       _rt_StartDataLoggingForOutput 10010ac0 f   rt_logging.obj
 0001:000113e0       $LN222                     100123e0     rt_logging.obj
 0001:00011404       $LN223                     10012404     rt_logging.obj
 0001:00011428       $LN224                     10012428     rt_logging.obj
 0001:0001144c       $LN225                     1001244c     rt_logging.obj
 0001:00011470       $LN226                     10012470     rt_logging.obj
 0001:000117d0       _rt_UpdateLogVarWithDiscontiguousData 100127d0 f   rt_logging.obj
 0001:00011d50       _rt_WriteItemToMatFile     10012d50 f   rt_logging.obj
 0001:00011e90       _rt_WriteMat5FileHeader    10012e90 f   rt_logging.obj
 0001:00012490       _mdlInitializeSampleTimes  10013490 f   danipcim.obj
 0001:000124d0       _mdlInitializeSizes        100134d0 f   danipcim.obj
 0001:00012620       _mdlOutputs                10013620 f   danipcim.obj
 0001:00012710       _mdlStart                  10013710 f   danipcim.obj
 0001:00012af0       _mdlTerminate              10013af0 f   danipcim.obj
 0001:00012c50       _mdlInitializeSampleTimes  10013c50 f   dinipcim.obj
 0001:00012ce0       _mdlInitializeSizes        10013ce0 f   dinipcim.obj
 0001:00012e20       _mdlOutputs                10013e20 f   dinipcim.obj
 0001:00012ed0       _mdlStart                  10013ed0 f   dinipcim.obj
 0001:00012fb0       _mdlTerminate              10013fb0 f   dinipcim.obj
 0001:00013010       _mdlInitializeSampleTimes  10014010 f   donipcim.obj
 0001:000130a0       _mdlInitializeSizes        100140a0 f   donipcim.obj
 0001:000131f0       _mdlOutputs                100141f0 f   donipcim.obj
 0001:000132e0       _mdlStart                  100142e0 f   donipcim.obj
 0001:000133c0       _mdlTerminate              100143c0 f   donipcim.obj
 0001:00013520       _mdlInitializeSampleTimes  10014520 f   encnipcim.obj
 0001:000135b0       _mdlInitializeSizes        100145b0 f   encnipcim.obj
 0001:000136c0       _mdlOutputs                100146c0 f   encnipcim.obj
 0001:00013730       _mdlStart                  10014730 f   encnipcim.obj
 0001:00013af0       _mdlTerminate              10014af0 f   encnipcim.obj
 0001:00013b30       _getCalibrationAreaOffset  10014b30 f   xpcionim.obj
 0001:00013b50       _getF32FromEeprom          10014b50 f   xpcionim.obj
 0001:00014630       $LN16                      10015630     xpcionim.obj
 0001:000155e0       _getPciDevice              100165e0 f   xpcruntime:xpcimports.obj
 0001:00015980       _getPciDeviceAtSlot        10016980 f   xpcruntime:xpcimports.obj
 0001:00017360       $$000000                   10018360     LIBCMT:ftol3.obj
 0001:00017d97       ?dllmain_crt_dispatch@@YGHQAUHINSTANCE__@@KQAX@Z 10018d97 f   LIBCMT:dll_dllmain.obj
 0001:00017dfe       ?dllmain_crt_process_attach@@YAHQAUHINSTANCE__@@QAX@Z 10018dfe f   LIBCMT:dll_dllmain.obj
 0001:00017f4a       ?dllmain_crt_process_detach@@YAH_N@Z 10018f4a f   LIBCMT:dll_dllmain.obj
 0001:00018000       ?dllmain_dispatch@@YAHQAUHINSTANCE__@@KQAX@Z 10019000 f   LIBCMT:dll_dllmain.obj
 0001:00018147       ?dllmain_raw@@YGHQAUHINSTANCE__@@KQAX@Z 10019147 f   LIBCMT:dll_dllmain.obj
 0001:000181b2       ___get_entropy             100191b2 f   LIBCMT:gs_support.obj
 0001:00018314       ?find_pe_section@@YAPAU_IMAGE_SECTION_HEADER@@QAEI@Z 10019314 f   LIBCMT:utility.obj
 0001:0001836e       ?is_potentially_valid_image_base@@YA_NQAX@Z 1001936e f   LIBCMT:utility.obj
 0001:00018a90       $$000000                   10019a90     LIBCMT:sehprolg4.obj
 0001:00018ba0       $$000000                   10019ba0     libvcruntime:memset.obj
 0001:00018d50       $$000000                   10019d50     libvcruntime:memcpy.obj
 0001:00018fb4       TrailingUpVec              10019fb4     libvcruntime:memcpy.obj
 0001:00019060       TrailingDownVec            1001a060     libvcruntime:memcpy.obj
 0001:00019430       $$000000                   1001a430     libvcruntime:strchr.obj
 0001:000195b0       $$000000                   1001a5b0     libvcruntime:memmove.obj
 0001:00019814       TrailingUpVec              1001a814     libvcruntime:memmove.obj
 0001:000198c0       TrailingDownVec            1001a8c0     libvcruntime:memmove.obj
 0001:00019c90       _ValidateLocalCookies      1001ac90 f   libvcruntime:chandler4.obj
 0001:00019e7c       ?<lambda_invoker_cdecl>@<lambda_02a71323d951a238fa4826e9f186893b>@@CAXQAX@Z 1001ae7c f   libvcruntime:std_type_info.obj
 0001:00019e81       ?<lambda_invoker_cdecl>@<lambda_cea3005bd909f0fdd45a57e92f4e3309>@@CAPAXI@Z 1001ae81 f   libvcruntime:std_type_info.obj
 0001:00019f20       ??B<lambda_02a71323d951a238fa4826e9f186893b>@@QBEP6AXQAX@ZXZ 1001af20 f   libvcruntime:std_type_info.obj
 0001:00019f26       ??B<lambda_cea3005bd909f0fdd45a57e92f4e3309>@@QBEP6APAXI@ZXZ 1001af26 f   libvcruntime:std_type_info.obj
 0001:00019f3a       ??R<lambda_02a71323d951a238fa4826e9f186893b>@@QBEXQAX@Z 1001af3a f   libvcruntime:std_type_info.obj
 0001:00019f4e       ??R<lambda_cea3005bd909f0fdd45a57e92f4e3309>@@QBEPAXI@Z 1001af4e f   libvcruntime:std_type_info.obj
 0001:0001a1c5       _init_memcpy_functions     1001b1c5 f   libvcruntime:initialization.obj
 0001:0001a1d0       $$000000                   1001b1d0     libvcruntime:exsup4.obj
 0001:0001a260       __unwind_handler4          1001b260 f   libvcruntime:exsup4.obj
 0001:0001a390       ___except_get_jumpbuf_sp   1001b390 f   libvcruntime:jbcxrval.obj
 0001:0001a7b9       ??0TrackRecursion@?1??getDecoratedName@UnDecorator@@CA?AVDName@@XZ@QAE@XZ 1001b7b9 f   libvcruntime:undname.obj
 0001:0001a904       ??1TrackRecursion@?1??getDecoratedName@UnDecorator@@CA?AVDName@@XZ@QAE@XZ 1001b904 f   libvcruntime:undname.obj
 0001:0001c9c1       $LN116                     1001d9c1     libvcruntime:undname.obj
 0001:0001c9d9       $LN107                     1001d9d9     libvcruntime:undname.obj
 0001:0001dca6       $LN35                      1001eca6     libvcruntime:undname.obj
 0001:0001ed36       $LN217                     1001fd36     libvcruntime:undname.obj
 0001:0001ed42       $LN202                     1001fd42     libvcruntime:undname.obj
 0001:00020b2b       $LN129                     10021b2b     libvcruntime:undname.obj
 0001:000214fb       ?und_memcpy@@YAXPADPBDI@Z  100224fb f   libvcruntime:undname.obj
 0001:00021524       ?und_strlen@@YAIPBD@Z      10022524 f   libvcruntime:undname.obj
 0001:0002153e       ?und_strncmp@@YAIPBD0I@Z   1002253e f   libvcruntime:undname.obj
 0001:0002175f       ??0scoped_get_last_error_reset@?A0x0f06e3f6@@QAE@XZ 1002275f f   libvcruntime:per_thread_data.obj
 0001:00021785       ??1scoped_get_last_error_reset@?A0x0f06e3f6@@QAE@XZ 10022785 f   libvcruntime:per_thread_data.obj
 0001:000217bb       ?store_and_initialize_ptd@@YA_NQAU__vcrt_ptd@@@Z 100227bb f   libvcruntime:per_thread_data.obj
 0001:00021afb       ?invalid_function_sentinel@@YAPAXXZ 10022afb f   libvcruntime:winapi_downlevel.obj
 0001:00021aff       ?try_get_FlsAlloc@@YAP6GKP6GXPAX@Z@ZXZ 10022aff f   libvcruntime:winapi_downlevel.obj
 0001:00021b1f       ?try_get_FlsFree@@YAP6GHK@ZXZ 10022b1f f   libvcruntime:winapi_downlevel.obj
 0001:00021b3f       ?try_get_FlsGetValue@@YAP6GPAXK@ZXZ 10022b3f f   libvcruntime:winapi_downlevel.obj
 0001:00021b5f       ?try_get_FlsSetValue@@YAP6GHKPAX@ZXZ 10022b5f f   libvcruntime:winapi_downlevel.obj
 0001:00021b7f       ?try_get_InitializeCriticalSectionEx@@YAP6GHPAU_RTL_CRITICAL_SECTION@@KK@ZXZ 10022b7f f   libvcruntime:winapi_downlevel.obj
 0001:00021b9f       ?try_get_first_available_module@@YAPAUHINSTANCE__@@QBW4module_id@?A0x5c520fe1@@0@Z 10022b9f f   libvcruntime:winapi_downlevel.obj
 0001:00021c94       ?try_get_function@@YAPAXW4function_id@?A0x5c520fe1@@QBDQBW4module_id@2@2@Z 10022c94 f   libvcruntime:winapi_downlevel.obj
 0001:00021d1e       ?try_get_module@@YAPAUHINSTANCE__@@W4module_id@?A0x5c520fe1@@@Z 10022d1e f   libvcruntime:winapi_downlevel.obj
 0001:00021d80       ?try_get_proc_address_from_first_available_module@@YAPAXQBDQBW4module_id@?A0x5c520fe1@@1@Z 10022d80 f   libvcruntime:winapi_downlevel.obj
 0001:00021daa       ?try_load_library_from_system_directory@@YAPAUHINSTANCE__@@QB_W@Z 10022daa f   libvcruntime:winapi_downlevel.obj
 0001:00022050       $$000000                   10023050     libvcruntime:exsup.obj
 0001:00022071       __unwind_handler           10023071 f   libvcruntime:exsup.obj
 0001:00022816       ??$BuildCatchObjectHelperInternal@V__FrameHandler3@@@@YAHPAUEHExceptionRecord@@PAXPBU_s_HandlerType@@PBU_s_CatchableType@@@Z 10023816 f   libvcruntime:frame.obj
 0001:000229a4       ??$BuildCatchObjectInternal@V__FrameHandler3@@@@YAXPAUEHExceptionRecord@@PAXPBU_s_HandlerType@@PBU_s_CatchableType@@@Z 100239a4 f   libvcruntime:frame.obj
 0001:00022a63       ??$CatchIt@V__FrameHandler3@@@@YAXPAUEHExceptionRecord@@PAUEHRegistrationNode@@PAU_CONTEXT@@PAXPBU_s_FuncInfo@@PBU_s_HandlerType@@PBU_s_CatchableType@@PBU_s_TryBlockMapEntry@@H1E@Z 10023a63 f   libvcruntime:frame.obj
 0001:00022b03       ??$FindHandler@V__FrameHandler3@@@@YAXPAUEHExceptionRecord@@PAUEHRegistrationNode@@PAU_CONTEXT@@PAXPBU_s_FuncInfo@@EH1@Z 10023b03 f   libvcruntime:frame.obj
 0001:00022f74       ??$FindHandlerForForeignException@V__FrameHandler3@@@@YAXPAUEHExceptionRecord@@PAUEHRegistrationNode@@PAU_CONTEXT@@PAXPBU_s_FuncInfo@@HH1@Z 10023f74 f   libvcruntime:frame.obj
 0001:000234e3       ?CallCatchBlock@@YAPAXPAUEHExceptionRecord@@PAUEHRegistrationNode@@PAU_CONTEXT@@PBU_s_FuncInfo@@PAXHK@Z 100244e3 f   libvcruntime:frame.obj
 0001:00023718       ?CallUnexpected@@YAXPBU_s_ESTypeList@@@Z 10024718 f   libvcruntime:frame.obj
 0001:00023738       __catch$?CallUnexpected@@YAXPBU_s_ESTypeList@@@Z$0 10024738 f   libvcruntime:frame.obj
 0001:00023760       ?ExFilterRethrow@@YAHPAU_EXCEPTION_POINTERS@@@Z 10024760 f   libvcruntime:frame.obj
 0001:00023909       ?IsInExceptionSpec@@YAEPAUEHExceptionRecord@@PBU_s_ESTypeList@@@Z 10024909 f   libvcruntime:frame.obj
 0001:000239c9       ?Is_bad_exception_allowed@@YAEPBU_s_ESTypeList@@@Z 100249c9 f   libvcruntime:frame.obj
 0001:00023b40       $$000000                   10024b40     libvcruntime:lowhelpr.obj
 0001:00023b9f       ?get_unexpected_or_default@@YAP6AXXZQBU__vcrt_ptd@@@Z 10024b9f f   libvcruntime:unexpected.obj
 0001:00024119       ??$common_assert@D@@YAXQBD0IQAX@Z 10025119 f   libucrt:assert.obj
 0001:0002415b       ??$common_assert@_W@@YAXQB_W0IQAX@Z 1002515b f   libucrt:assert.obj
 0001:0002419d       ??$common_assert_to_message_box@D@@YAXQBD0IQAX@Z 1002519d f   libucrt:assert.obj
 0001:00024260       ??$common_assert_to_message_box@_W@@YAXQB_W0IQAX@Z 10025260 f   libucrt:assert.obj
 0001:00024323       ??$common_assert_to_message_box_build_string@D@@YAXQADIQBD1IQAX@Z 10025323 f   libucrt:assert.obj
 0001:000248fa       ??$common_assert_to_message_box_build_string@_W@@YAXQA_WIQB_W1IQAX@Z 100258fa f   libucrt:assert.obj
 0001:00024f88       ??$common_assert_to_stderr@D@@YAXQBD0I@Z 10025f88 f   libucrt:assert.obj
 0001:00025017       ??$common_assert_to_stderr@_W@@YAXQB_W0I@Z 10026017 f   libucrt:assert.obj
 0001:00025545       ?common_assert_to_stderr_direct@@YAXPBD0I@Z 10026545 f   libucrt:assert.obj
 0001:00025546       ?common_assert_to_stderr_direct@@YAXQB_W0I@Z 10026546 f   libucrt:assert.obj
 0001:00025623       ?get_assert_format@@YAPBDD@Z 10026623 f   libucrt:assert.obj
 0001:00025629       ?get_assert_format@@YAPB_W_W@Z 10026629 f   libucrt:assert.obj
 0001:0002562f       ?get_banner_text@@YAPBDD@Z 1002662f f   libucrt:assert.obj
 0001:00025635       ?get_banner_text@@YAPB_W_W@Z 10026635 f   libucrt:assert.obj
 0001:0002563b       ?get_box_intro@@YAPBDD@Z   1002663b f   libucrt:assert.obj
 0001:00025641       ?get_box_intro@@YAPB_W_W@Z 10026641 f   libucrt:assert.obj
 0001:00025647       ?get_dot_dot_dot@@YAPBDD@Z 10026647 f   libucrt:assert.obj
 0001:0002564d       ?get_dot_dot_dot@@YAPB_W_W@Z 1002664d f   libucrt:assert.obj
 0001:00025653       ?get_double_newline@@YAPBDD@Z 10026653 f   libucrt:assert.obj
 0001:00025659       ?get_double_newline@@YAPB_W_W@Z 10026659 f   libucrt:assert.obj
 0001:0002565f       ?get_expression_intro@@YAPBDD@Z 1002665f f   libucrt:assert.obj
 0001:00025665       ?get_expression_intro@@YAPB_W_W@Z 10026665 f   libucrt:assert.obj
 0001:0002566b       ?get_file_intro@@YAPBDD@Z  1002666b f   libucrt:assert.obj
 0001:00025671       ?get_file_intro@@YAPB_W_W@Z 10026671 f   libucrt:assert.obj
 0001:0002567d       ?get_help_intro@@YAPBDD@Z  1002667d f   libucrt:assert.obj
 0001:00025683       ?get_help_intro@@YAPB_W_W@Z 10026683 f   libucrt:assert.obj
 0001:00025689       ?get_info_intro@@YAPBDD@Z  10026689 f   libucrt:assert.obj
 0001:0002568f       ?get_info_intro@@YAPB_W_W@Z 1002668f f   libucrt:assert.obj
 0001:00025695       ?get_line_intro@@YAPBDD@Z  10026695 f   libucrt:assert.obj
 0001:0002569b       ?get_line_intro@@YAPB_W_W@Z 1002669b f   libucrt:assert.obj
 0001:000256a1       ?get_newline@@YAPBDD@Z     100266a1 f   libucrt:assert.obj
 0001:000256a7       ?get_newline@@YAPB_W_W@Z   100266a7 f   libucrt:assert.obj
 0001:000256ad       ?get_program_intro@@YAPBDD@Z 100266ad f   libucrt:assert.obj
 0001:000256b3       ?get_program_intro@@YAPB_W_W@Z 100266b3 f   libucrt:assert.obj
 0001:000256b9       ?get_program_name_unknown_text@@YAPBDD@Z 100266b9 f   libucrt:assert.obj
 0001:000256bf       ?get_program_name_unknown_text@@YAPB_W_W@Z 100266bf f   libucrt:assert.obj
 0001:00025856       _memcpy_s                  10026856 f   libucrt:assert.obj
 0001:00025947       ??$?RV<lambda_03b1d95aef87969028cfba75ccab2455>@@AAV<lambda_6e4b09c48022b2350581041d5f6b0c4c>@@V<lambda_22bdf7517842c4b3e53723af5aa32b9e>@@@?$__crt_seh_guarded_call@X@@QAEX$$QAV<lambda_03b1d95aef87969028cfba75ccab2455>@@AAV<lambda_6e4b09c48022b2350581041d5f6b0c4c>@@$$QAV<lambda_22bdf7517842c4b3e53723af5aa32b9e>@@@Z 10026947 f   libucrt:exit.obj
 0001:0002599a       ??$__acrt_lock_and_call@V<lambda_6e4b09c48022b2350581041d5f6b0c4c>@@@@YAXW4__acrt_lock_id@@$$QAV<lambda_6e4b09c48022b2350581041d5f6b0c4c>@@@Z 1002699a f   libucrt:exit.obj
 0001:00025a24       ??0<lambda_03b1d95aef87969028cfba75ccab2455>@@QAE@ABW4__acrt_lock_id@@@Z 10026a24 f   libucrt:exit.obj
 0001:00025a3a       ??0<lambda_22bdf7517842c4b3e53723af5aa32b9e>@@QAE@ABW4__acrt_lock_id@@@Z 10026a3a f   libucrt:exit.obj
 0001:00025a50       ??0<lambda_6e4b09c48022b2350581041d5f6b0c4c>@@QAE@ABW4_crt_exit_cleanup_mode@@ABW4_crt_exit_return_mode@@AA_N@Z 10026a50 f   libucrt:exit.obj
 0001:00025aa3       ??R<lambda_03b1d95aef87969028cfba75ccab2455>@@QBEXXZ 10026aa3 f   libucrt:exit.obj
 0001:00025aae       ??R<lambda_22bdf7517842c4b3e53723af5aa32b9e>@@QBEXXZ 10026aae f   libucrt:exit.obj
 0001:00025ab9       ??R<lambda_6e4b09c48022b2350581041d5f6b0c4c>@@QBE@XZ 10026ab9 f   libucrt:exit.obj
 0001:00025bd0       ?atexit_exception_filter@@YAHK@Z 10026bd0 f   libucrt:exit.obj
 0001:00025c1d       ?common_exit@@YAXHW4_crt_exit_cleanup_mode@@W4_crt_exit_return_mode@@@Z 10026c1d f   libucrt:exit.obj
 0001:00025c9c       ?exit_or_terminate_process@@YAXI@Z 10026c9c f   libucrt:exit.obj
 0001:00025cf7       ?is_managed_app@@YA_NXZ    10026cf7 f   libucrt:exit.obj
 0001:00025d4c       ?should_call_terminate_process@@YA_NXZ 10026d4c f   libucrt:exit.obj
 0001:00025d71       ?try_cor_exit_process@@YAXI@Z 10026d71 f   libucrt:exit.obj
 0001:00025ef0       $$000000                   10026ef0     libucrt:strncat.obj
 0001:00026080       $$000000                   10027080     libucrt:strncpy.obj
 0001:00026590       ??$common_fopen_s@D@@YAHQAPAU_iobuf@@QBD1@Z 10027590 f   libucrt:fopen.obj
 0001:000265e8       ??$common_fopen_s@_W@@YAHQAPAU_iobuf@@QB_W1@Z 100275e8 f   libucrt:fopen.obj
 0001:00026640       ??$common_fsopen@D@@YAPAU_iobuf@@QBD0H@Z 10027640 f   libucrt:fopen.obj
 0001:00026718       ??$common_fsopen@_W@@YAPAU_iobuf@@QB_W0H@Z 10027718 f   libucrt:fopen.obj
 0001:00026ce8       _memcpy_s                  10027ce8 f   libucrt:fread.obj
 0001:00026d89       ??$?RV<lambda_cd3bfd923e8d1349099e544c97b1bd8e>@@AAV<lambda_54dcfcba6f8e0c549fa430f4d53fb7dd>@@V<lambda_5e1d0fa2aa2b73b187bf8b7e1d30c7f8>@@@?$__crt_seh_guarded_call@I@@QAEI$$QAV<lambda_cd3bfd923e8d1349099e544c97b1bd8e>@@AAV<lambda_54dcfcba6f8e0c549fa430f4d53fb7dd>@@$$QAV<lambda_5e1d0fa2aa2b73b187bf8b7e1d30c7f8>@@@Z 10027d89 f   libucrt:fwrite.obj
 0001:00026dee       ??$__acrt_lock_stream_and_call@V<lambda_54dcfcba6f8e0c549fa430f4d53fb7dd>@@@@YAIQAU_iobuf@@$$QAV<lambda_54dcfcba6f8e0c549fa430f4d53fb7dd>@@@Z 10027dee f   libucrt:fwrite.obj
 0001:00026e20       ??0<lambda_54dcfcba6f8e0c549fa430f4d53fb7dd>@@QAE@ABQAU_iobuf@@ABQBXABI2@Z 10027e20 f   libucrt:fwrite.obj
 0001:00026e4a       ??0<lambda_5e1d0fa2aa2b73b187bf8b7e1d30c7f8>@@QAE@ABQAU_iobuf@@@Z 10027e4a f   libucrt:fwrite.obj
 0001:00026e60       ??0<lambda_cd3bfd923e8d1349099e544c97b1bd8e>@@QAE@ABQAU_iobuf@@@Z 10027e60 f   libucrt:fwrite.obj
 0001:00026ead       ??R<lambda_54dcfcba6f8e0c549fa430f4d53fb7dd>@@QBEIXZ 10027ead f   libucrt:fwrite.obj
 0001:00026f03       ??R<lambda_5e1d0fa2aa2b73b187bf8b7e1d30c7f8>@@QBEXXZ 10027f03 f   libucrt:fwrite.obj
 0001:00026f0e       ??R<lambda_cd3bfd923e8d1349099e544c97b1bd8e>@@QBEXXZ 10027f0e f   libucrt:fwrite.obj
 0001:0002717d       ??$__acrt_convert_wcs_mbs_cp@D_WV<lambda_62f6974d9771e494a5ea317cc32e971c>@@U__crt_win32_buffer_internal_dynamic_resizing@@@@YAHQBDAAV?$__crt_win32_buffer@_WU__crt_win32_buffer_internal_dynamic_resizing@@@@ABV<lambda_62f6974d9771e494a5ea317cc32e971c>@@I@Z 1002817d f   libucrt:unlink.obj
 0001:0002731f       ??R<lambda_62f6974d9771e494a5ea317cc32e971c>@@QBEHIQBDQA_WI@Z 1002831f f   libucrt:unlink.obj
 0001:00027960       ??$?RV<lambda_3a2a6cca1b0f7007a3db339dcecd1562>@@AAV<lambda_e38011a3ba6e07c7dbcef4d549f26102>@@V<lambda_b2332a2b562101f3c3c34baab19e0511>@@@?$__crt_seh_guarded_call@H@@QAEH$$QAV<lambda_3a2a6cca1b0f7007a3db339dcecd1562>@@AAV<lambda_e38011a3ba6e07c7dbcef4d549f26102>@@$$QAV<lambda_b2332a2b562101f3c3c34baab19e0511>@@@Z 10028960 f   libucrt:output.obj
 0001:000279c5       ??$?RV<lambda_75d23329f2fb3d02b2e1cf5509bb1caf>@@AAV<lambda_c4f131f91cb4ec00a5b0a26aa161b8b4>@@V<lambda_114dc79c86b00c313cb0b6b3b001aaf8>@@@?$__crt_seh_guarded_call@H@@QAEH$$QAV<lambda_75d23329f2fb3d02b2e1cf5509bb1caf>@@AAV<lambda_c4f131f91cb4ec00a5b0a26aa161b8b4>@@$$QAV<lambda_114dc79c86b00c313cb0b6b3b001aaf8>@@@Z 100289c5 f   libucrt:output.obj
 0001:00027a2a       ??$?RV<lambda_80d7abc6eae2375db70be92ccaaf9b57>@@AAV<lambda_df52180bf14694d51fdefd82613e8f07>@@V<lambda_4fa1155033dff2042363dba4e2dc3802>@@@?$__crt_seh_guarded_call@H@@QAEH$$QAV<lambda_80d7abc6eae2375db70be92ccaaf9b57>@@AAV<lambda_df52180bf14694d51fdefd82613e8f07>@@$$QAV<lambda_4fa1155033dff2042363dba4e2dc3802>@@@Z 10028a2a f   libucrt:output.obj
 0001:00027a8f       ??$?RV<lambda_b4329732a1a72698597872ef534ad66d>@@AAV<lambda_96392db5b14a27f72535a2156da24b09>@@V<lambda_0f47277b42e3e84c3311fed419af0b3c>@@@?$__crt_seh_guarded_call@H@@QAEH$$QAV<lambda_b4329732a1a72698597872ef534ad66d>@@AAV<lambda_96392db5b14a27f72535a2156da24b09>@@$$QAV<lambda_0f47277b42e3e84c3311fed419af0b3c>@@@Z 10028a8f f   libucrt:output.obj
 0001:00027af4       ??$?RV<lambda_b7f50223258ab9fcc98080d45d02b1a4>@@AAV<lambda_42506531d319a600ce771deb5a236a10>@@V<lambda_31f843250ba6188c6e1f35d2bec6db0e>@@@?$__crt_seh_guarded_call@H@@QAEH$$QAV<lambda_b7f50223258ab9fcc98080d45d02b1a4>@@AAV<lambda_42506531d319a600ce771deb5a236a10>@@$$QAV<lambda_31f843250ba6188c6e1f35d2bec6db0e>@@@Z 10028af4 f   libucrt:output.obj
 0001:00027b59       ??$?RV<lambda_cc35d49d909def412005bd38ddc96b77>@@AAV<lambda_d6a382b8dd98a6801a8abd6c28bdff2d>@@V<lambda_148068cfb9786d9714740654406e93d5>@@@?$__crt_seh_guarded_call@H@@QAEH$$QAV<lambda_cc35d49d909def412005bd38ddc96b77>@@AAV<lambda_d6a382b8dd98a6801a8abd6c28bdff2d>@@$$QAV<lambda_148068cfb9786d9714740654406e93d5>@@@Z 10028b59 f   libucrt:output.obj
 0001:00027bbe       ??$__acrt_lock_stream_and_call@V<lambda_42506531d319a600ce771deb5a236a10>@@@@YAHQAU_iobuf@@$$QAV<lambda_42506531d319a600ce771deb5a236a10>@@@Z 10028bbe f   libucrt:output.obj
 0001:00027bf0       ??$__acrt_lock_stream_and_call@V<lambda_96392db5b14a27f72535a2156da24b09>@@@@YAHQAU_iobuf@@$$QAV<lambda_96392db5b14a27f72535a2156da24b09>@@@Z 10028bf0 f   libucrt:output.obj
 0001:00027c22       ??$__acrt_lock_stream_and_call@V<lambda_c4f131f91cb4ec00a5b0a26aa161b8b4>@@@@YAHQAU_iobuf@@$$QAV<lambda_c4f131f91cb4ec00a5b0a26aa161b8b4>@@@Z 10028c22 f   libucrt:output.obj
 0001:00027c54       ??$__acrt_lock_stream_and_call@V<lambda_d6a382b8dd98a6801a8abd6c28bdff2d>@@@@YAHQAU_iobuf@@$$QAV<lambda_d6a382b8dd98a6801a8abd6c28bdff2d>@@@Z 10028c54 f   libucrt:output.obj
 0001:00027c86       ??$__acrt_lock_stream_and_call@V<lambda_df52180bf14694d51fdefd82613e8f07>@@@@YAHQAU_iobuf@@$$QAV<lambda_df52180bf14694d51fdefd82613e8f07>@@@Z 10028c86 f   libucrt:output.obj
 0001:00027cb8       ??$__acrt_lock_stream_and_call@V<lambda_e38011a3ba6e07c7dbcef4d549f26102>@@@@YAHQAU_iobuf@@$$QAV<lambda_e38011a3ba6e07c7dbcef4d549f26102>@@@Z 10028cb8 f   libucrt:output.obj
 0001:00027cea       ??$common_vfprintf@Vformat_validation_base@__crt_stdio_output@@D@@YAH_KQAU_iobuf@@QBDQAU__crt_locale_pointers@@QAD@Z 10028cea f   libucrt:output.obj
 0001:00027d69       ??$common_vfprintf@Vformat_validation_base@__crt_stdio_output@@_W@@YAH_KQAU_iobuf@@QB_WQAU__crt_locale_pointers@@QAD@Z 10028d69 f   libucrt:output.obj
 0001:00027de8       ??$common_vfprintf@Vpositional_parameter_base@__crt_stdio_output@@D@@YAH_KQAU_iobuf@@QBDQAU__crt_locale_pointers@@QAD@Z 10028de8 f   libucrt:output.obj
 0001:00027e67       ??$common_vfprintf@Vpositional_parameter_base@__crt_stdio_output@@_W@@YAH_KQAU_iobuf@@QB_WQAU__crt_locale_pointers@@QAD@Z 10028e67 f   libucrt:output.obj
 0001:00027ee6       ??$common_vfprintf@Vstandard_base@__crt_stdio_output@@D@@YAH_KQAU_iobuf@@QBDQAU__crt_locale_pointers@@QAD@Z 10028ee6 f   libucrt:output.obj
 0001:00027f65       ??$common_vfprintf@Vstandard_base@__crt_stdio_output@@_W@@YAH_KQAU_iobuf@@QB_WQAU__crt_locale_pointers@@QAD@Z 10028f65 f   libucrt:output.obj
 0001:00027fe4       ??$common_vsnprintf_s@D@@YAH_KQADIIQBDQAU__crt_locale_pointers@@1@Z 10028fe4 f   libucrt:output.obj
 0001:0002810c       ??$common_vsnprintf_s@_W@@YAH_KQA_WIIQB_WQAU__crt_locale_pointers@@QAD@Z 1002910c f   libucrt:output.obj
 0001:00028239       ??$common_vsprintf@Vformat_validation_base@__crt_stdio_output@@D@@YAH_KQADIQBDQAU__crt_locale_pointers@@1@Z 10029239 f   libucrt:output.obj
 0001:00028419       ??$common_vsprintf@Vformat_validation_base@__crt_stdio_output@@_W@@YAH_KQA_WIQB_WQAU__crt_locale_pointers@@QAD@Z 10029419 f   libucrt:output.obj
 0001:00028604       ??$common_vsprintf@Vpositional_parameter_base@__crt_stdio_output@@D@@YAH_KQADIQBDQAU__crt_locale_pointers@@1@Z 10029604 f   libucrt:output.obj
 0001:00028822       ??$common_vsprintf@Vpositional_parameter_base@__crt_stdio_output@@_W@@YAH_KQA_WIQB_WQAU__crt_locale_pointers@@QAD@Z 10029822 f   libucrt:output.obj
 0001:00028a4b       ??$common_vsprintf@Vstandard_base@__crt_stdio_output@@D@@YAH_KQADIQBDQAU__crt_locale_pointers@@1@Z 10029a4b f   libucrt:output.obj
 0001:00028c2b       ??$common_vsprintf@Vstandard_base@__crt_stdio_output@@_W@@YAH_KQA_WIQB_WQAU__crt_locale_pointers@@QAD@Z 10029c2b f   libucrt:output.obj
 0001:00028e16       ??$common_vsprintf_s@D@@YAH_KQADIQBDQAU__crt_locale_pointers@@1@Z 10029e16 f   libucrt:output.obj
 0001:00028eac       ??$common_vsprintf_s@_W@@YAH_KQA_WIQB_WQAU__crt_locale_pointers@@QAD@Z 10029eac f   libucrt:output.obj
 0001:0002a6eb       ??$extract_argument_from_va_list@PAUansi_string@?1??type_case_Z@?$output_processor@DV?$stream_output_adapter@D@__crt_stdio_output@@V?$format_validation_base@DV?$stream_output_adapter@D@__crt_stdio_output@@@2@@__crt_stdio_output@@AAE_NXZ@PAU1?1??234@AAE_NXZ@@?$standard_base@DV?$stream_output_adapter@D@__crt_stdio_output@@@__crt_stdio_output@@IAE_NAAPAUansi_string@?1??type_case_Z@?$output_processor@DV?$stream_output_adapter@D@__crt_stdio_output@@V?$format_validation_base@DV?$stream_output_adapter@D@__crt_stdio_output@@@2@@1@AAE_NXZ@@Z 1002b6eb f   libucrt:output.obj
 0001:0002a70b       ??$extract_argument_from_va_list@PAUansi_string@?1??type_case_Z@?$output_processor@DV?$stream_output_adapter@D@__crt_stdio_output@@V?$positional_parameter_base@DV?$stream_output_adapter@D@__crt_stdio_output@@@2@@__crt_stdio_output@@AAE_NXZ@PAU1?1??234@AAE_NXZ@@?$positional_parameter_base@DV?$stream_output_adapter@D@__crt_stdio_output@@@__crt_stdio_output@@IAE_NAAPAUansi_string@?1??type_case_Z@?$output_processor@DV?$stream_output_adapter@D@__crt_stdio_output@@V?$positional_parameter_base@DV?$stream_output_adapter@D@__crt_stdio_output@@@2@@1@AAE_NXZ@@Z 1002b70b f   libucrt:output.obj
 0001:0002a7a1       ??$extract_argument_from_va_list@PAUansi_string@?1??type_case_Z@?$output_processor@DV?$stream_output_adapter@D@__crt_stdio_output@@V?$positional_parameter_base@DV?$stream_output_adapter@D@__crt_stdio_output@@@2@@__crt_stdio_output@@AAE_NXZ@PAU1?1??234@AAE_NXZ@@?$standard_base@DV?$stream_output_adapter@D@__crt_stdio_output@@@__crt_stdio_output@@IAE_NAAPAUansi_string@?1??type_case_Z@?$output_processor@DV?$stream_output_adapter@D@__crt_stdio_output@@V?$positional_parameter_base@DV?$stream_output_adapter@D@__crt_stdio_output@@@2@@1@AAE_NXZ@@Z 1002b7a1 f   libucrt:output.obj
 0001:0002a7c1       ??$extract_argument_from_va_list@PAUansi_string@?1??type_case_Z@?$output_processor@DV?$stream_output_adapter@D@__crt_stdio_output@@V?$standard_base@DV?$stream_output_adapter@D@__crt_stdio_output@@@2@@__crt_stdio_output@@AAE_NXZ@PAU1?1??234@AAE_NXZ@@?$standard_base@DV?$stream_output_adapter@D@__crt_stdio_output@@@__crt_stdio_output@@IAE_NAAPAUansi_string@?1??type_case_Z@?$output_processor@DV?$stream_output_adapter@D@__crt_stdio_output@@V?$standard_base@DV?$stream_output_adapter@D@__crt_stdio_output@@@2@@1@AAE_NXZ@@Z 1002b7c1 f   libucrt:output.obj
 0001:0002a7e1       ??$extract_argument_from_va_list@PAUansi_string@?1??type_case_Z@?$output_processor@DV?$string_output_adapter@D@__crt_stdio_output@@V?$format_validation_base@DV?$string_output_adapter@D@__crt_stdio_output@@@2@@__crt_stdio_output@@AAE_NXZ@PAU1?1??234@AAE_NXZ@@?$standard_base@DV?$string_output_adapter@D@__crt_stdio_output@@@__crt_stdio_output@@IAE_NAAPAUansi_string@?1??type_case_Z@?$output_processor@DV?$string_output_adapter@D@__crt_stdio_output@@V?$format_validation_base@DV?$string_output_adapter@D@__crt_stdio_output@@@2@@1@AAE_NXZ@@Z 1002b7e1 f   libucrt:output.obj
 0001:0002a801       ??$extract_argument_from_va_list@PAUansi_string@?1??type_case_Z@?$output_processor@DV?$string_output_adapter@D@__crt_stdio_output@@V?$positional_parameter_base@DV?$string_output_adapter@D@__crt_stdio_output@@@2@@__crt_stdio_output@@AAE_NXZ@PAU1?1??234@AAE_NXZ@@?$positional_parameter_base@DV?$string_output_adapter@D@__crt_stdio_output@@@__crt_stdio_output@@IAE_NAAPAUansi_string@?1??type_case_Z@?$output_processor@DV?$string_output_adapter@D@__crt_stdio_output@@V?$positional_parameter_base@DV?$string_output_adapter@D@__crt_stdio_output@@@2@@1@AAE_NXZ@@Z 1002b801 f   libucrt:output.obj
 0001:0002a897       ??$extract_argument_from_va_list@PAUansi_string@?1??type_case_Z@?$output_processor@DV?$string_output_adapter@D@__crt_stdio_output@@V?$positional_parameter_base@DV?$string_output_adapter@D@__crt_stdio_output@@@2@@__crt_stdio_output@@AAE_NXZ@PAU1?1??234@AAE_NXZ@@?$standard_base@DV?$string_output_adapter@D@__crt_stdio_output@@@__crt_stdio_output@@IAE_NAAPAUansi_string@?1??type_case_Z@?$output_processor@DV?$string_output_adapter@D@__crt_stdio_output@@V?$positional_parameter_base@DV?$string_output_adapter@D@__crt_stdio_output@@@2@@1@AAE_NXZ@@Z 1002b897 f   libucrt:output.obj
 0001:0002a8b7       ??$extract_argument_from_va_list@PAUansi_string@?1??type_case_Z@?$output_processor@DV?$string_output_adapter@D@__crt_stdio_output@@V?$standard_base@DV?$string_output_adapter@D@__crt_stdio_output@@@2@@__crt_stdio_output@@AAE_NXZ@PAU1?1??234@AAE_NXZ@@?$standard_base@DV?$string_output_adapter@D@__crt_stdio_output@@@__crt_stdio_output@@IAE_NAAPAUansi_string@?1??type_case_Z@?$output_processor@DV?$string_output_adapter@D@__crt_stdio_output@@V?$standard_base@DV?$string_output_adapter@D@__crt_stdio_output@@@2@@1@AAE_NXZ@@Z 1002b8b7 f   libucrt:output.obj
 0001:0002a8d7       ??$extract_argument_from_va_list@PAUansi_string@?1??type_case_Z@?$output_processor@_WV?$stream_output_adapter@_W@__crt_stdio_output@@V?$format_validation_base@_WV?$stream_output_adapter@_W@__crt_stdio_output@@@2@@__crt_stdio_output@@AAE_NXZ@PAU1?1??234@AAE_NXZ@@?$standard_base@_WV?$stream_output_adapter@_W@__crt_stdio_output@@@__crt_stdio_output@@IAE_NAAPAUansi_string@?1??type_case_Z@?$output_processor@_WV?$stream_output_adapter@_W@__crt_stdio_output@@V?$format_validation_base@_WV?$stream_output_adapter@_W@__crt_stdio_output@@@2@@1@AAE_NXZ@@Z 1002b8d7 f   libucrt:output.obj
 0001:0002a8f7       ??$extract_argument_from_va_list@PAUansi_string@?1??type_case_Z@?$output_processor@_WV?$stream_output_adapter@_W@__crt_stdio_output@@V?$positional_parameter_base@_WV?$stream_output_adapter@_W@__crt_stdio_output@@@2@@__crt_stdio_output@@AAE_NXZ@PAU1?1??234@AAE_NXZ@@?$positional_parameter_base@_WV?$stream_output_adapter@_W@__crt_stdio_output@@@__crt_stdio_output@@IAE_NAAPAUansi_string@?1??type_case_Z@?$output_processor@_WV?$stream_output_adapter@_W@__crt_stdio_output@@V?$positional_parameter_base@_WV?$stream_output_adapter@_W@__crt_stdio_output@@@2@@1@AAE_NXZ@@Z 1002b8f7 f   libucrt:output.obj
 0001:0002a98d       ??$extract_argument_from_va_list@PAUansi_string@?1??type_case_Z@?$output_processor@_WV?$stream_output_adapter@_W@__crt_stdio_output@@V?$positional_parameter_base@_WV?$stream_output_adapter@_W@__crt_stdio_output@@@2@@__crt_stdio_output@@AAE_NXZ@PAU1?1??234@AAE_NXZ@@?$standard_base@_WV?$stream_output_adapter@_W@__crt_stdio_output@@@__crt_stdio_output@@IAE_NAAPAUansi_string@?1??type_case_Z@?$output_processor@_WV?$stream_output_adapter@_W@__crt_stdio_output@@V?$positional_parameter_base@_WV?$stream_output_adapter@_W@__crt_stdio_output@@@2@@1@AAE_NXZ@@Z 1002b98d f   libucrt:output.obj
 0001:0002a9ad       ??$extract_argument_from_va_list@PAUansi_string@?1??type_case_Z@?$output_processor@_WV?$stream_output_adapter@_W@__crt_stdio_output@@V?$standard_base@_WV?$stream_output_adapter@_W@__crt_stdio_output@@@2@@__crt_stdio_output@@AAE_NXZ@PAU1?1??234@AAE_NXZ@@?$standard_base@_WV?$stream_output_adapter@_W@__crt_stdio_output@@@__crt_stdio_output@@IAE_NAAPAUansi_string@?1??type_case_Z@?$output_processor@_WV?$stream_output_adapter@_W@__crt_stdio_output@@V?$standard_base@_WV?$stream_output_adapter@_W@__crt_stdio_output@@@2@@1@AAE_NXZ@@Z 1002b9ad f   libucrt:output.obj
 0001:0002a9cd       ??$extract_argument_from_va_list@PAUansi_string@?1??type_case_Z@?$output_processor@_WV?$string_output_adapter@_W@__crt_stdio_output@@V?$format_validation_base@_WV?$string_output_adapter@_W@__crt_stdio_output@@@2@@__crt_stdio_output@@AAE_NXZ@PAU1?1??234@AAE_NXZ@@?$standard_base@_WV?$string_output_adapter@_W@__crt_stdio_output@@@__crt_stdio_output@@IAE_NAAPAUansi_string@?1??type_case_Z@?$output_processor@_WV?$string_output_adapter@_W@__crt_stdio_output@@V?$format_validation_base@_WV?$string_output_adapter@_W@__crt_stdio_output@@@2@@1@AAE_NXZ@@Z 1002b9cd f   libucrt:output.obj
 0001:0002a9ed       ??$extract_argument_from_va_list@PAUansi_string@?1??type_case_Z@?$output_processor@_WV?$string_output_adapter@_W@__crt_stdio_output@@V?$positional_parameter_base@_WV?$string_output_adapter@_W@__crt_stdio_output@@@2@@__crt_stdio_output@@AAE_NXZ@PAU1?1??234@AAE_NXZ@@?$positional_parameter_base@_WV?$string_output_adapter@_W@__crt_stdio_output@@@__crt_stdio_output@@IAE_NAAPAUansi_string@?1??type_case_Z@?$output_processor@_WV?$string_output_adapter@_W@__crt_stdio_output@@V?$positional_parameter_base@_WV?$string_output_adapter@_W@__crt_stdio_output@@@2@@1@AAE_NXZ@@Z 1002b9ed f   libucrt:output.obj
 0001:0002aa83       ??$extract_argument_from_va_list@PAUansi_string@?1??type_case_Z@?$output_processor@_WV?$string_output_adapter@_W@__crt_stdio_output@@V?$positional_parameter_base@_WV?$string_output_adapter@_W@__crt_stdio_output@@@2@@__crt_stdio_output@@AAE_NXZ@PAU1?1??234@AAE_NXZ@@?$standard_base@_WV?$string_output_adapter@_W@__crt_stdio_output@@@__crt_stdio_output@@IAE_NAAPAUansi_string@?1??type_case_Z@?$output_processor@_WV?$string_output_adapter@_W@__crt_stdio_output@@V?$positional_parameter_base@_WV?$string_output_adapter@_W@__crt_stdio_output@@@2@@1@AAE_NXZ@@Z 1002ba83 f   libucrt:output.obj
 0001:0002aaa3       ??$extract_argument_from_va_list@PAUansi_string@?1??type_case_Z@?$output_processor@_WV?$string_output_adapter@_W@__crt_stdio_output@@V?$standard_base@_WV?$string_output_adapter@_W@__crt_stdio_output@@@2@@__crt_stdio_output@@AAE_NXZ@PAU1?1??234@AAE_NXZ@@?$standard_base@_WV?$string_output_adapter@_W@__crt_stdio_output@@@__crt_stdio_output@@IAE_NAAPAUansi_string@?1??type_case_Z@?$output_processor@_WV?$string_output_adapter@_W@__crt_stdio_output@@V?$standard_base@_WV?$string_output_adapter@_W@__crt_stdio_output@@@2@@1@AAE_NXZ@@Z 1002baa3 f   libucrt:output.obj
 0001:0002ba57       ??$get_parameter_type@Uansi_string@?1??type_case_Z@?$output_processor@DV?$stream_output_adapter@D@__crt_stdio_output@@V?$positional_parameter_base@DV?$stream_output_adapter@D@__crt_stdio_output@@@2@@__crt_stdio_output@@AAE_NXZ@@?$positional_parameter_base@DV?$stream_output_adapter@D@__crt_stdio_output@@@__crt_stdio_output@@CA?AW4parameter_type@01@PAUansi_string@?1??type_case_Z@?$output_processor@DV?$stream_output_adapter@D@__crt_stdio_output@@V?$positional_parameter_base@DV?$stream_output_adapter@D@__crt_stdio_output@@@2@@1@AAE_NXZ@@Z 1002ca57 f   libucrt:output.obj
 0001:0002ba5b       ??$get_parameter_type@Uansi_string@?1??type_case_Z@?$output_processor@DV?$string_output_adapter@D@__crt_stdio_output@@V?$positional_parameter_base@DV?$string_output_adapter@D@__crt_stdio_output@@@2@@__crt_stdio_output@@AAE_NXZ@@?$positional_parameter_base@DV?$string_output_adapter@D@__crt_stdio_output@@@__crt_stdio_output@@CA?AW4parameter_type@01@PAUansi_string@?1??type_case_Z@?$output_processor@DV?$string_output_adapter@D@__crt_stdio_output@@V?$positional_parameter_base@DV?$string_output_adapter@D@__crt_stdio_output@@@2@@1@AAE_NXZ@@Z 1002ca5b f   libucrt:output.obj
 0001:0002ba5f       ??$get_parameter_type@Uansi_string@?1??type_case_Z@?$output_processor@_WV?$stream_output_adapter@_W@__crt_stdio_output@@V?$positional_parameter_base@_WV?$stream_output_adapter@_W@__crt_stdio_output@@@2@@__crt_stdio_output@@AAE_NXZ@@?$positional_parameter_base@_WV?$stream_output_adapter@_W@__crt_stdio_output@@@__crt_stdio_output@@CA?AW4parameter_type@01@PAUansi_string@?1??type_case_Z@?$output_processor@_WV?$stream_output_adapter@_W@__crt_stdio_output@@V?$positional_parameter_base@_WV?$stream_output_adapter@_W@__crt_stdio_output@@@2@@1@AAE_NXZ@@Z 1002ca5f f   libucrt:output.obj
 0001:0002ba63       ??$get_parameter_type@Uansi_string@?1??type_case_Z@?$output_processor@_WV?$string_output_adapter@_W@__crt_stdio_output@@V?$positional_parameter_base@_WV?$string_output_adapter@_W@__crt_stdio_output@@@2@@__crt_stdio_output@@AAE_NXZ@@?$positional_parameter_base@_WV?$string_output_adapter@_W@__crt_stdio_output@@@__crt_stdio_output@@CA?AW4parameter_type@01@PAUansi_string@?1??type_case_Z@?$output_processor@_WV?$string_output_adapter@_W@__crt_stdio_output@@V?$positional_parameter_base@_WV?$string_output_adapter@_W@__crt_stdio_output@@@2@@1@AAE_NXZ@@Z 1002ca63 f   libucrt:output.obj
 0001:0002bdc2       ??$peek_va_arg@PAUansi_string@?1??type_case_Z@?$output_processor@DV?$stream_output_adapter@D@__crt_stdio_output@@V?$positional_parameter_base@DV?$stream_output_adapter@D@__crt_stdio_output@@@2@@__crt_stdio_output@@AAE_NXZ@@__crt_stdio_output@@YAPAUansi_string@?1??type_case_Z@?$output_processor@DV?$stream_output_adapter@D@__crt_stdio_output@@V?$positional_parameter_base@DV?$stream_output_adapter@D@__crt_stdio_output@@@2@@0@AAE_NXZ@PAD@Z 1002cdc2 f   libucrt:output.obj
 0001:0002bdd1       ??$peek_va_arg@PAUansi_string@?1??type_case_Z@?$output_processor@DV?$string_output_adapter@D@__crt_stdio_output@@V?$positional_parameter_base@DV?$string_output_adapter@D@__crt_stdio_output@@@2@@__crt_stdio_output@@AAE_NXZ@@__crt_stdio_output@@YAPAUansi_string@?1??type_case_Z@?$output_processor@DV?$string_output_adapter@D@__crt_stdio_output@@V?$positional_parameter_base@DV?$string_output_adapter@D@__crt_stdio_output@@@2@@0@AAE_NXZ@PAD@Z 1002cdd1 f   libucrt:output.obj
 0001:0002bde0       ??$peek_va_arg@PAUansi_string@?1??type_case_Z@?$output_processor@_WV?$stream_output_adapter@_W@__crt_stdio_output@@V?$positional_parameter_base@_WV?$stream_output_adapter@_W@__crt_stdio_output@@@2@@__crt_stdio_output@@AAE_NXZ@@__crt_stdio_output@@YAPAUansi_string@?1??type_case_Z@?$output_processor@_WV?$stream_output_adapter@_W@__crt_stdio_output@@V?$positional_parameter_base@_WV?$stream_output_adapter@_W@__crt_stdio_output@@@2@@0@AAE_NXZ@PAD@Z 1002cde0 f   libucrt:output.obj
 0001:0002bdef       ??$peek_va_arg@PAUansi_string@?1??type_case_Z@?$output_processor@_WV?$string_output_adapter@_W@__crt_stdio_output@@V?$positional_parameter_base@_WV?$string_output_adapter@_W@__crt_stdio_output@@@2@@__crt_stdio_output@@AAE_NXZ@@__crt_stdio_output@@YAPAUansi_string@?1??type_case_Z@?$output_processor@_WV?$string_output_adapter@_W@__crt_stdio_output@@V?$positional_parameter_base@_WV?$string_output_adapter@_W@__crt_stdio_output@@@2@@0@AAE_NXZ@PAD@Z 1002cdef f   libucrt:output.obj
 0001:0002bf2f       ??$read_va_arg@PAUansi_string@?1??type_case_Z@?$output_processor@DV?$stream_output_adapter@D@__crt_stdio_output@@V?$format_validation_base@DV?$stream_output_adapter@D@__crt_stdio_output@@@2@@__crt_stdio_output@@AAE_NXZ@@__crt_stdio_output@@YAPAUansi_string@?1??type_case_Z@?$output_processor@DV?$stream_output_adapter@D@__crt_stdio_output@@V?$format_validation_base@DV?$stream_output_adapter@D@__crt_stdio_output@@@2@@0@AAE_NXZ@AAPAD@Z 1002cf2f f   libucrt:output.obj
 0001:0002bf45       ??$read_va_arg@PAUansi_string@?1??type_case_Z@?$output_processor@DV?$stream_output_adapter@D@__crt_stdio_output@@V?$positional_parameter_base@DV?$stream_output_adapter@D@__crt_stdio_output@@@2@@__crt_stdio_output@@AAE_NXZ@@__crt_stdio_output@@YAPAUansi_string@?1??type_case_Z@?$output_processor@DV?$stream_output_adapter@D@__crt_stdio_output@@V?$positional_parameter_base@DV?$stream_output_adapter@D@__crt_stdio_output@@@2@@0@AAE_NXZ@AAPAD@Z 1002cf45 f   libucrt:output.obj
 0001:0002bf5b       ??$read_va_arg@PAUansi_string@?1??type_case_Z@?$output_processor@DV?$stream_output_adapter@D@__crt_stdio_output@@V?$standard_base@DV?$stream_output_adapter@D@__crt_stdio_output@@@2@@__crt_stdio_output@@AAE_NXZ@@__crt_stdio_output@@YAPAUansi_string@?1??type_case_Z@?$output_processor@DV?$stream_output_adapter@D@__crt_stdio_output@@V?$standard_base@DV?$stream_output_adapter@D@__crt_stdio_output@@@2@@0@AAE_NXZ@AAPAD@Z 1002cf5b f   libucrt:output.obj
 0001:0002bf71       ??$read_va_arg@PAUansi_string@?1??type_case_Z@?$output_processor@DV?$string_output_adapter@D@__crt_stdio_output@@V?$format_validation_base@DV?$string_output_adapter@D@__crt_stdio_output@@@2@@__crt_stdio_output@@AAE_NXZ@@__crt_stdio_output@@YAPAUansi_string@?1??type_case_Z@?$output_processor@DV?$string_output_adapter@D@__crt_stdio_output@@V?$format_validation_base@DV?$string_output_adapter@D@__crt_stdio_output@@@2@@0@AAE_NXZ@AAPAD@Z 1002cf71 f   libucrt:output.obj
 0001:0002bf87       ??$read_va_arg@PAUansi_string@?1??type_case_Z@?$output_processor@DV?$string_output_adapter@D@__crt_stdio_output@@V?$positional_parameter_base@DV?$string_output_adapter@D@__crt_stdio_output@@@2@@__crt_stdio_output@@AAE_NXZ@@__crt_stdio_output@@YAPAUansi_string@?1??type_case_Z@?$output_processor@DV?$string_output_adapter@D@__crt_stdio_output@@V?$positional_parameter_base@DV?$string_output_adapter@D@__crt_stdio_output@@@2@@0@AAE_NXZ@AAPAD@Z 1002cf87 f   libucrt:output.obj
 0001:0002bf9d       ??$read_va_arg@PAUansi_string@?1??type_case_Z@?$output_processor@DV?$string_output_adapter@D@__crt_stdio_output@@V?$standard_base@DV?$string_output_adapter@D@__crt_stdio_output@@@2@@__crt_stdio_output@@AAE_NXZ@@__crt_stdio_output@@YAPAUansi_string@?1??type_case_Z@?$output_processor@DV?$string_output_adapter@D@__crt_stdio_output@@V?$standard_base@DV?$string_output_adapter@D@__crt_stdio_output@@@2@@0@AAE_NXZ@AAPAD@Z 1002cf9d f   libucrt:output.obj
 0001:0002bfb3       ??$read_va_arg@PAUansi_string@?1??type_case_Z@?$output_processor@_WV?$stream_output_adapter@_W@__crt_stdio_output@@V?$format_validation_base@_WV?$stream_output_adapter@_W@__crt_stdio_output@@@2@@__crt_stdio_output@@AAE_NXZ@@__crt_stdio_output@@YAPAUansi_string@?1??type_case_Z@?$output_processor@_WV?$stream_output_adapter@_W@__crt_stdio_output@@V?$format_validation_base@_WV?$stream_output_adapter@_W@__crt_stdio_output@@@2@@0@AAE_NXZ@AAPAD@Z 1002cfb3 f   libucrt:output.obj
 0001:0002bfc9       ??$read_va_arg@PAUansi_string@?1??type_case_Z@?$output_processor@_WV?$stream_output_adapter@_W@__crt_stdio_output@@V?$positional_parameter_base@_WV?$stream_output_adapter@_W@__crt_stdio_output@@@2@@__crt_stdio_output@@AAE_NXZ@@__crt_stdio_output@@YAPAUansi_string@?1??type_case_Z@?$output_processor@_WV?$stream_output_adapter@_W@__crt_stdio_output@@V?$positional_parameter_base@_WV?$stream_output_adapter@_W@__crt_stdio_output@@@2@@0@AAE_NXZ@AAPAD@Z 1002cfc9 f   libucrt:output.obj
 0001:0002bfdf       ??$read_va_arg@PAUansi_string@?1??type_case_Z@?$output_processor@_WV?$stream_output_adapter@_W@__crt_stdio_output@@V?$standard_base@_WV?$stream_output_adapter@_W@__crt_stdio_output@@@2@@__crt_stdio_output@@AAE_NXZ@@__crt_stdio_output@@YAPAUansi_string@?1??type_case_Z@?$output_processor@_WV?$stream_output_adapter@_W@__crt_stdio_output@@V?$standard_base@_WV?$stream_output_adapter@_W@__crt_stdio_output@@@2@@0@AAE_NXZ@AAPAD@Z 1002cfdf f   libucrt:output.obj
 0001:0002bff5       ??$read_va_arg@PAUansi_string@?1??type_case_Z@?$output_processor@_WV?$string_output_adapter@_W@__crt_stdio_output@@V?$format_validation_base@_WV?$string_output_adapter@_W@__crt_stdio_output@@@2@@__crt_stdio_output@@AAE_NXZ@@__crt_stdio_output@@YAPAUansi_string@?1??type_case_Z@?$output_processor@_WV?$string_output_adapter@_W@__crt_stdio_output@@V?$format_validation_base@_WV?$string_output_adapter@_W@__crt_stdio_output@@@2@@0@AAE_NXZ@AAPAD@Z 1002cff5 f   libucrt:output.obj
 0001:0002c00b       ??$read_va_arg@PAUansi_string@?1??type_case_Z@?$output_processor@_WV?$string_output_adapter@_W@__crt_stdio_output@@V?$positional_parameter_base@_WV?$string_output_adapter@_W@__crt_stdio_output@@@2@@__crt_stdio_output@@AAE_NXZ@@__crt_stdio_output@@YAPAUansi_string@?1??type_case_Z@?$output_processor@_WV?$string_output_adapter@_W@__crt_stdio_output@@V?$positional_parameter_base@_WV?$string_output_adapter@_W@__crt_stdio_output@@@2@@0@AAE_NXZ@AAPAD@Z 1002d00b f   libucrt:output.obj
 0001:0002c021       ??$read_va_arg@PAUansi_string@?1??type_case_Z@?$output_processor@_WV?$string_output_adapter@_W@__crt_stdio_output@@V?$standard_base@_WV?$string_output_adapter@_W@__crt_stdio_output@@@2@@__crt_stdio_output@@AAE_NXZ@@__crt_stdio_output@@YAPAUansi_string@?1??type_case_Z@?$output_processor@_WV?$string_output_adapter@_W@__crt_stdio_output@@V?$standard_base@_WV?$string_output_adapter@_W@__crt_stdio_output@@@2@@0@AAE_NXZ@AAPAD@Z 1002d021 f   libucrt:output.obj
 0001:0002d256       ??0<lambda_0f47277b42e3e84c3311fed419af0b3c>@@QAE@ABQAU_iobuf@@@Z 1002e256 f   libucrt:output.obj
 0001:0002d26c       ??0<lambda_114dc79c86b00c313cb0b6b3b001aaf8>@@QAE@ABQAU_iobuf@@@Z 1002e26c f   libucrt:output.obj
 0001:0002d282       ??0<lambda_148068cfb9786d9714740654406e93d5>@@QAE@ABQAU_iobuf@@@Z 1002e282 f   libucrt:output.obj
 0001:0002d298       ??0<lambda_31f843250ba6188c6e1f35d2bec6db0e>@@QAE@ABQAU_iobuf@@@Z 1002e298 f   libucrt:output.obj
 0001:0002d2ae       ??0<lambda_3a2a6cca1b0f7007a3db339dcecd1562>@@QAE@ABQAU_iobuf@@@Z 1002e2ae f   libucrt:output.obj
 0001:0002d2c4       ??0<lambda_42506531d319a600ce771deb5a236a10>@@QAE@ABQAU_iobuf@@ABQAU__crt_locale_pointers@@AB_KABQB_WABQAD@Z 1002e2c4 f   libucrt:output.obj
 0001:0002d2f6       ??0<lambda_4fa1155033dff2042363dba4e2dc3802>@@QAE@ABQAU_iobuf@@@Z 1002e2f6 f   libucrt:output.obj
 0001:0002d30c       ??0<lambda_75d23329f2fb3d02b2e1cf5509bb1caf>@@QAE@ABQAU_iobuf@@@Z 1002e30c f   libucrt:output.obj
 0001:0002d322       ??0<lambda_80d7abc6eae2375db70be92ccaaf9b57>@@QAE@ABQAU_iobuf@@@Z 1002e322 f   libucrt:output.obj
 0001:0002d338       ??0<lambda_96392db5b14a27f72535a2156da24b09>@@QAE@ABQAU_iobuf@@ABQAU__crt_locale_pointers@@AB_KABQB_WABQAD@Z 1002e338 f   libucrt:output.obj
 0001:0002d36a       ??0<lambda_b2332a2b562101f3c3c34baab19e0511>@@QAE@ABQAU_iobuf@@@Z 1002e36a f   libucrt:output.obj
 0001:0002d380       ??0<lambda_b4329732a1a72698597872ef534ad66d>@@QAE@ABQAU_iobuf@@@Z 1002e380 f   libucrt:output.obj
 0001:0002d396       ??0<lambda_b7f50223258ab9fcc98080d45d02b1a4>@@QAE@ABQAU_iobuf@@@Z 1002e396 f   libucrt:output.obj
 0001:0002d3ac       ??0<lambda_c4f131f91cb4ec00a5b0a26aa161b8b4>@@QAE@ABQAU_iobuf@@ABQAU__crt_locale_pointers@@AB_KABQB_WABQAD@Z 1002e3ac f   libucrt:output.obj
 0001:0002d3de       ??0<lambda_cc35d49d909def412005bd38ddc96b77>@@QAE@ABQAU_iobuf@@@Z 1002e3de f   libucrt:output.obj
 0001:0002d3f4       ??0<lambda_d6a382b8dd98a6801a8abd6c28bdff2d>@@QAE@ABQAU_iobuf@@ABQAU__crt_locale_pointers@@AB_KABQBDABQAD@Z 1002e3f4 f   libucrt:output.obj
 0001:0002d426       ??0<lambda_df52180bf14694d51fdefd82613e8f07>@@QAE@ABQAU_iobuf@@ABQAU__crt_locale_pointers@@AB_KABQBDABQAD@Z 1002e426 f   libucrt:output.obj
 0001:0002d458       ??0<lambda_e38011a3ba6e07c7dbcef4d549f26102>@@QAE@ABQAU_iobuf@@ABQAU__crt_locale_pointers@@AB_KABQBDABQAD@Z 1002e458 f   libucrt:output.obj
 0001:0002db04       ??R<lambda_0f47277b42e3e84c3311fed419af0b3c>@@QBEXXZ 1002eb04 f   libucrt:output.obj
 0001:0002db0f       ??R<lambda_114dc79c86b00c313cb0b6b3b001aaf8>@@QBEXXZ 1002eb0f f   libucrt:output.obj
 0001:0002db1a       ??R<lambda_148068cfb9786d9714740654406e93d5>@@QBEXXZ 1002eb1a f   libucrt:output.obj
 0001:0002db25       ??R<lambda_31f843250ba6188c6e1f35d2bec6db0e>@@QBEXXZ 1002eb25 f   libucrt:output.obj
 0001:0002db30       ??R<lambda_3a2a6cca1b0f7007a3db339dcecd1562>@@QBEXXZ 1002eb30 f   libucrt:output.obj
 0001:0002db3b       ??R<lambda_42506531d319a600ce771deb5a236a10>@@QBEHXZ 1002eb3b f   libucrt:output.obj
 0001:0002dc2c       ??R<lambda_4fa1155033dff2042363dba4e2dc3802>@@QBEXXZ 1002ec2c f   libucrt:output.obj
 0001:0002dc37       ??R<lambda_75d23329f2fb3d02b2e1cf5509bb1caf>@@QBEXXZ 1002ec37 f   libucrt:output.obj
 0001:0002dc42       ??R<lambda_80d7abc6eae2375db70be92ccaaf9b57>@@QBEXXZ 1002ec42 f   libucrt:output.obj
 0001:0002dc4d       ??R<lambda_96392db5b14a27f72535a2156da24b09>@@QBEHXZ 1002ec4d f   libucrt:output.obj
 0001:0002dd80       ??R<lambda_b2332a2b562101f3c3c34baab19e0511>@@QBEXXZ 1002ed80 f   libucrt:output.obj
 0001:0002dd8b       ??R<lambda_b4329732a1a72698597872ef534ad66d>@@QBEXXZ 1002ed8b f   libucrt:output.obj
 0001:0002dd96       ??R<lambda_b7f50223258ab9fcc98080d45d02b1a4>@@QBEXXZ 1002ed96 f   libucrt:output.obj
 0001:0002dda1       ??R<lambda_c4f131f91cb4ec00a5b0a26aa161b8b4>@@QBEHXZ 1002eda1 f   libucrt:output.obj
 0001:0002de92       ??R<lambda_cc35d49d909def412005bd38ddc96b77>@@QBEXXZ 1002ee92 f   libucrt:output.obj
 0001:0002de9d       ??R<lambda_d6a382b8dd98a6801a8abd6c28bdff2d>@@QBEHXZ 1002ee9d f   libucrt:output.obj
 0001:0002df8e       ??R<lambda_df52180bf14694d51fdefd82613e8f07>@@QBEHXZ 1002ef8e f   libucrt:output.obj
 0001:0002e07f       ??R<lambda_e38011a3ba6e07c7dbcef4d549f26102>@@QBEHXZ 1002f07f f   libucrt:output.obj
 0001:0002f8d8       $LN52                      100308d8     libucrt:output.obj
 0001:0002fa7e       $LN48                      10030a7e     libucrt:output.obj
 0001:0002fbf1       $LN54                      10030bf1     libucrt:output.obj
 0001:0002fd60       $LN52                      10030d60     libucrt:output.obj
 0001:0002ff06       $LN48                      10030f06     libucrt:output.obj
 0001:00030079       $LN54                      10031079     libucrt:output.obj
 0001:000301f0       $LN52                      100311f0     libucrt:output.obj
 0001:0003039c       $LN48                      1003139c     libucrt:output.obj
 0001:00030514       $LN54                      10031514     libucrt:output.obj
 0001:0003068c       $LN52                      1003168c     libucrt:output.obj
 0001:00030838       $LN48                      10031838     libucrt:output.obj
 0001:000309b0       $LN54                      100319b0     libucrt:output.obj
 0001:00035705       $LN19                      10036705     libucrt:output.obj
 0001:0003d7c8       __get_fname                1003e7c8 f   libucrt:fpexcept.obj
 0001:0003e045       ?xcptlookup@@YAPAU__crt_signal_action_t@@KQAU1@@Z 1003f045 f   libucrt:exception_filter.obj
 0001:0003e29b       ??$common_configure_argv@D@@YAHW4_crt_argv_mode@@@Z 1003f29b f   libucrt:argv_parsing.obj
 0001:0003e421       ??$common_configure_argv@_W@@YAHW4_crt_argv_mode@@@Z 1003f421 f   libucrt:argv_parsing.obj
 0001:0003e5e1       ??$parse_command_line@D@@YAXPADPAPAD0PAI2@Z 1003f5e1 f   libucrt:argv_parsing.obj
 0001:0003e7b8       ??$parse_command_line@_W@@YAXPA_WPAPA_W0PAI2@Z 1003f7b8 f   libucrt:argv_parsing.obj
 0001:0003e9de       ??0<lambda_a36aafc41185bea294aaaa3896c79ecc>@@QAE@AAV?$__crt_unique_heap_ptr@PA_WU__crt_internal_free_policy@@@@@Z 1003f9de f   libucrt:argv_parsing.obj
 0001:0003e9f2       ??0<lambda_df1553121bfa390f1154bd84936f2730>@@QAE@AAV?$__crt_unique_heap_ptr@PADU__crt_internal_free_policy@@@@@Z 1003f9f2 f   libucrt:argv_parsing.obj
 0001:0003ea8b       ??R<lambda_a36aafc41185bea294aaaa3896c79ecc>@@QBEHXZ 1003fa8b f   libucrt:argv_parsing.obj
 0001:0003eaa6       ??R<lambda_df1553121bfa390f1154bd84936f2730>@@QBEHXZ 1003faa6 f   libucrt:argv_parsing.obj
 0001:0003ead3       ?do_locale_initialization@@YAXD@Z 1003fad3 f   libucrt:argv_parsing.obj
 0001:0003ead8       ?do_locale_initialization@@YAX_W@Z 1003fad8 f   libucrt:argv_parsing.obj
 0001:0003ead9       ?expand_argv_wildcards@@YAHQAPADQAPAPAD@Z 1003fad9 f   libucrt:argv_parsing.obj
 0001:0003eae6       ?expand_argv_wildcards@@YAHQAPA_WQAPAPA_W@Z 1003fae6 f   libucrt:argv_parsing.obj
 0001:0003eb02       ?get_argv@@YAAAPAPADD@Z    1003fb02 f   libucrt:argv_parsing.obj
 0001:0003eb08       ?get_argv@@YAAAPAPA_W_W@Z  1003fb08 f   libucrt:argv_parsing.obj
 0001:0003eb0e       ?get_command_line@@YAPADD@Z 1003fb0e f   libucrt:argv_parsing.obj
 0001:0003eb14       ?get_command_line@@YAPA_W_W@Z 1003fb14 f   libucrt:argv_parsing.obj
 0001:0003eb63       ?should_copy_another_character@@YA_ND@Z 1003fb63 f   libucrt:argv_parsing.obj
 0001:0003eb7f       ?should_copy_another_character@@YA_N_W@Z 1003fb7f f   libucrt:argv_parsing.obj
 0001:0003ec38       ??$common_get_initial_environment@D@@YAPAPADXZ 1003fc38 f   libucrt:environment_initialization.obj
 0001:0003ec51       ??$common_get_initial_environment@_W@@YAPAPA_WXZ 1003fc51 f   libucrt:environment_initialization.obj
 0001:0003ec6a       ??$common_get_or_create_environment_nolock@D@@YAPAPADXZ 1003fc6a f   libucrt:environment_initialization.obj
 0001:0003eca1       ??$common_get_or_create_environment_nolock@_W@@YAPAPA_WXZ 1003fca1 f   libucrt:environment_initialization.obj
 0001:0003ecd8       ??$common_initialize_environment_nolock@D@@YAHXZ 1003fcd8 f   libucrt:environment_initialization.obj
 0001:0003ed3f       ??$common_initialize_environment_nolock@_W@@YAHXZ 1003fd3f f   libucrt:environment_initialization.obj
 0001:0003eda0       ??$count_variables_in_environment_block@D@@YA?BIQAD@Z 1003fda0 f   libucrt:environment_initialization.obj
 0001:0003ede1       ??$count_variables_in_environment_block@_W@@YA?BIQA_W@Z 1003fde1 f   libucrt:environment_initialization.obj
 0001:0003ee3c       ??$create_environment@D@@YAQAPADQAD@Z 1003fe3c f   libucrt:environment_initialization.obj
 0001:0003ef42       ??$create_environment@_W@@YAQAPA_WQA_W@Z 1003ff42 f   libucrt:environment_initialization.obj
 0001:0003f094       ??$free_environment@D@@YAXQAPAD@Z 10040094 f   libucrt:environment_initialization.obj
 0001:0003f0ce       ??$free_environment@_W@@YAXQAPA_W@Z 100400ce f   libucrt:environment_initialization.obj
 0001:0003f112       ??$initialize_environment_by_cloning_nolock@D@@YAHXZ 10040112 f   libucrt:environment_initialization.obj
 0001:0003f1bc       ??$initialize_environment_by_cloning_nolock@_W@@YAHXZ 100401bc f   libucrt:environment_initialization.obj
 0001:0003f3c7       ??$uninitialize_environment_internal@D@@YAXAAPAPAD@Z 100403c7 f   libucrt:environment_initialization.obj
 0001:0003f3e8       ??$uninitialize_environment_internal@_W@@YAXAAPAPA_W@Z 100403e8 f   libucrt:environment_initialization.obj
 0001:0003f4f2       ?get_dual_state_environment_nolock@@YAAAV?$dual_state_global@PAPAD@__crt_state_management@@D@Z 100404f2 f   libucrt:environment_initialization.obj
 0001:0003f4f8       ?get_dual_state_environment_nolock@@YAAAV?$dual_state_global@PAPA_W@__crt_state_management@@_W@Z 100404f8 f   libucrt:environment_initialization.obj
 0001:0003f4fe       ?get_environment_nolock@@YAAAPAPADD@Z 100404fe f   libucrt:environment_initialization.obj
 0001:0003f504       ?get_environment_nolock@@YAAAPAPA_W_W@Z 10040504 f   libucrt:environment_initialization.obj
 0001:0003f50a       ?get_initial_environment@@YAAAPAPADD@Z 1004050a f   libucrt:environment_initialization.obj
 0001:0003f510       ?get_initial_environment@@YAAAPAPA_W_W@Z 10040510 f   libucrt:environment_initialization.obj
 0001:0003f589       ?pre_initialize@@YAXD@Z    10040589 f   libucrt:environment_initialization.obj
 0001:0003f58e       ?pre_initialize@@YAX_W@Z   1004058e f   libucrt:environment_initialization.obj
 0001:0003f675       ??$?RV<lambda_69a2805e680e0e292e8ba93315fe43a8>@@AAV<lambda_f03950bc5685219e0bcd2087efbe011e>@@V<lambda_03fcd07e894ec930e3f35da366ca99d6>@@@?$__crt_seh_guarded_call@H@@QAEH$$QAV<lambda_69a2805e680e0e292e8ba93315fe43a8>@@AAV<lambda_f03950bc5685219e0bcd2087efbe011e>@@$$QAV<lambda_03fcd07e894ec930e3f35da366ca99d6>@@@Z 10040675 f   libucrt:onexit.obj
 0001:0003f6da       ??$?RV<lambda_7ac4055421038abea736e08bd20712a4>@@AAV<lambda_a10e4b102d4a2c3aac6f4f48bbdf488f>@@V<lambda_1da61822885009acd1bf848af4f9644b>@@@?$__crt_seh_guarded_call@H@@QAEH$$QAV<lambda_7ac4055421038abea736e08bd20712a4>@@AAV<lambda_a10e4b102d4a2c3aac6f4f48bbdf488f>@@$$QAV<lambda_1da61822885009acd1bf848af4f9644b>@@@Z 100406da f   libucrt:onexit.obj
 0001:0003f73f       ??$__acrt_lock_and_call@V<lambda_a10e4b102d4a2c3aac6f4f48bbdf488f>@@@@YAHW4__acrt_lock_id@@$$QAV<lambda_a10e4b102d4a2c3aac6f4f48bbdf488f>@@@Z 1004073f f   libucrt:onexit.obj
 0001:0003f771       ??$__acrt_lock_and_call@V<lambda_f03950bc5685219e0bcd2087efbe011e>@@@@YAHW4__acrt_lock_id@@$$QAV<lambda_f03950bc5685219e0bcd2087efbe011e>@@@Z 10040771 f   libucrt:onexit.obj
 0001:0003f7c9       ??0<lambda_03fcd07e894ec930e3f35da366ca99d6>@@QAE@ABW4__acrt_lock_id@@@Z 100407c9 f   libucrt:onexit.obj
 0001:0003f7df       ??0<lambda_1da61822885009acd1bf848af4f9644b>@@QAE@ABW4__acrt_lock_id@@@Z 100407df f   libucrt:onexit.obj
 0001:0003f7f5       ??0<lambda_69a2805e680e0e292e8ba93315fe43a8>@@QAE@ABW4__acrt_lock_id@@@Z 100407f5 f   libucrt:onexit.obj
 0001:0003f80b       ??0<lambda_7ac4055421038abea736e08bd20712a4>@@QAE@ABW4__acrt_lock_id@@@Z 1004080b f   libucrt:onexit.obj
 0001:0003f821       ??0<lambda_a10e4b102d4a2c3aac6f4f48bbdf488f>@@QAE@ABQAU_onexit_table_t@@ABQ6AHXZ@Z 10040821 f   libucrt:onexit.obj
 0001:0003f83c       ??0<lambda_f03950bc5685219e0bcd2087efbe011e>@@QAE@ABQAU_onexit_table_t@@@Z 1004083c f   libucrt:onexit.obj
 0001:0003f87b       ??R<lambda_03fcd07e894ec930e3f35da366ca99d6>@@QBEXXZ 1004087b f   libucrt:onexit.obj
 0001:0003f886       ??R<lambda_1da61822885009acd1bf848af4f9644b>@@QBEXXZ 10040886 f   libucrt:onexit.obj
 0001:0003f891       ??R<lambda_69a2805e680e0e292e8ba93315fe43a8>@@QBEXXZ 10040891 f   libucrt:onexit.obj
 0001:0003f89c       ??R<lambda_7ac4055421038abea736e08bd20712a4>@@QBEXXZ 1004089c f   libucrt:onexit.obj
 0001:0003f8a7       ??R<lambda_a10e4b102d4a2c3aac6f4f48bbdf488f>@@QBEHXZ 100408a7 f   libucrt:onexit.obj
 0001:0003fa38       ??R<lambda_f03950bc5685219e0bcd2087efbe011e>@@QBEHXZ 10040a38 f   libucrt:onexit.obj
 0001:0003fcbf       _initialize_global_variables 10040cbf f   libucrt:initialization.obj
 0001:0003fccf       _initialize_c              10040ccf f   libucrt:initialization.obj
 0001:0003fcef       _uninitialize_c            10040cef f   libucrt:initialization.obj
 0001:0003fcf2       _initialize_environment    10040cf2 f   libucrt:initialization.obj
 0001:0003fcf5       _uninitialize_environment  10040cf5 f   libucrt:initialization.obj
 0001:0003fcff       _initialize_global_state_isolation 10040cff f   libucrt:initialization.obj
 0001:0003fd02       _uninitialize_global_state_isolation 10040d02 f   libucrt:initialization.obj
 0001:0003fd05       _initialize_pointers       10040d05 f   libucrt:initialization.obj
 0001:0003fd51       _uninitialize_vcruntime    10040d51 f   libucrt:initialization.obj
 0001:0003fd5c       _uninitialize_allocated_memory 10040d5c f   libucrt:initialization.obj
 0001:0003fd7b       _uninitialize_allocated_io_buffers 10040d7b f   libucrt:initialization.obj
 0001:0003fddf       _report_memory_leaks       10040ddf f   libucrt:initialization.obj
 0001:0003fde2       ??$uninitialize@V<lambda_af42a3ee9806e9a7305d451646e05244>@@@?$dual_state_global@PAU__crt_multibyte_data@@@__crt_state_management@@QAEX$$QAV<lambda_af42a3ee9806e9a7305d451646e05244>@@@Z 10040de2 f   libucrt:initialization.obj
 0001:0003fe0f       ??R<lambda_af42a3ee9806e9a7305d451646e05244>@@QBEXAAPAU__crt_multibyte_data@@@Z 10040e0f f   libucrt:initialization.obj
 0001:0003ff03       ?get_terminate_or_default@@YAP6AXXZQBU__acrt_ptd@@@Z 10040f03 f   libucrt:terminate.obj
 0001:0003ffa7       ??$common_tcscpy_s@D@@YAHQADIQBD@Z 10040fa7 f   libucrt:strcpy_s.obj
 0001:000422c0       $$000000                   100432c0     libucrt:strncmp.obj
 0001:000424f1       ?select_heap@@YAPAXQAX@Z   100434f1 f   libucrt:free_base.obj
 0001:000428d4       ?issue_debug_notification@@YA_NQB_W@Z 100438d4 f   libucrt:report_runtime_error.obj
 0001:000428d7       ?should_write_error_to_console@@YA_NXZ 100438d7 f   libucrt:report_runtime_error.obj
 0001:000428ff       ?write_string_to_console@@YAXQB_W@Z 100438ff f   libucrt:report_runtime_error.obj
 0001:00042c67       ??$common_xtox@KD@@YAHKQADII_N@Z 10043c67 f   libucrt:xtoa.obj
 0001:00042d45       ??$common_xtox@K_W@@YAHKQA_WII_N@Z 10043d45 f   libucrt:xtoa.obj
 0001:00042e1c       ??$common_xtox@_KD@@YAH_KQADII_N@Z 10043e1c f   libucrt:xtoa.obj
 0001:00042f16       ??$common_xtox@_K_W@@YAH_KQA_WII_N@Z 10043f16 f   libucrt:xtoa.obj
 0001:00043031       ??$common_xtox_s@KD@@YAHKQADII_N@Z 10044031 f   libucrt:xtoa.obj
 0001:000430bd       ??$common_xtox_s@K_W@@YAHKQA_WII_N@Z 100440bd f   libucrt:xtoa.obj
 0001:0004314b       ??$common_xtox_s@_KD@@YAH_KQADII_N@Z 1004414b f   libucrt:xtoa.obj
 0001:000431da       ??$common_xtox_s@_K_W@@YAH_KQA_WII_N@Z 100441da f   libucrt:xtoa.obj
 0001:00043752       ??$common_tcscat_s@_W@@YAHQA_WIQB_W@Z 10044752 f   libucrt:wcscat_s.obj
 0001:00043872       ??$common_tcscpy_s@_W@@YAHQA_WIQB_W@Z 10044872 f   libucrt:wcscpy_s.obj
 0001:00043967       ??$common_tcsncat_s@_W@@YAHQA_WIQB_WI@Z 10044967 f   libucrt:wcsncat_s.obj
 0001:00043a97       ??$common_tcscat_s@D@@YAHQADIQBD@Z 10044a97 f   libucrt:strcat_s.obj
 0001:00043b9d       ??$common_tcsncat_s@D@@YAHQADIQBDI@Z 10044b9d f   libucrt:strncat_s.obj
 0001:00043d2d       ??$common_show_message_box@D@@YAHQBD0I@Z 10044d2d f   libucrt:crtmbox.obj
 0001:00043dc9       ??$common_show_message_box@_W@@YAHQB_W0I@Z 10044dc9 f   libucrt:crtmbox.obj
 0001:00043f4b       ??$?RV<lambda_2866be3712abc81a800a822484c830d8>@@AAV<lambda_39ca0ed439415581b5b15c265174cece>@@V<lambda_2b24c74d71094a6cd0cb82e44167d71b>@@@?$__crt_seh_guarded_call@X@@QAEX$$QAV<lambda_2866be3712abc81a800a822484c830d8>@@AAV<lambda_39ca0ed439415581b5b15c265174cece>@@$$QAV<lambda_2b24c74d71094a6cd0cb82e44167d71b>@@@Z 10044f4b f   libucrt:fflush.obj
 0001:00043fec       ??$?RV<lambda_2cc53f568c5a2bb6f192f930a45d44ea>@@AAV<lambda_ab61a845afdef5b7c387490eaf3616ee>@@V<lambda_c2ffc0b7726aa6be21d5f0026187e748>@@@?$__crt_seh_guarded_call@X@@QAEX$$QAV<lambda_2cc53f568c5a2bb6f192f930a45d44ea>@@AAV<lambda_ab61a845afdef5b7c387490eaf3616ee>@@$$QAV<lambda_c2ffc0b7726aa6be21d5f0026187e748>@@@Z 10044fec f   libucrt:fflush.obj
 0001:000440b6       ??$?RV<lambda_6d20deecaf4856105ebacbad442d1079>@@AAV<lambda_9a32fed5bf61b6b509b2d3f6003082a1>@@V<lambda_63ea2239ed67c638ddbae41947fdf875>@@@?$__crt_seh_guarded_call@H@@QAEH$$QAV<lambda_6d20deecaf4856105ebacbad442d1079>@@AAV<lambda_9a32fed5bf61b6b509b2d3f6003082a1>@@$$QAV<lambda_63ea2239ed67c638ddbae41947fdf875>@@@Z 100450b6 f   libucrt:fflush.obj
 0001:00044121       ??$__acrt_lock_and_call@V<lambda_ab61a845afdef5b7c387490eaf3616ee>@@@@YAXW4__acrt_lock_id@@$$QAV<lambda_ab61a845afdef5b7c387490eaf3616ee>@@@Z 10045121 f   libucrt:fflush.obj
 0001:00044153       ??$__acrt_lock_stream_and_call@V<lambda_39ca0ed439415581b5b15c265174cece>@@@@YAXQAU_iobuf@@$$QAV<lambda_39ca0ed439415581b5b15c265174cece>@@@Z 10045153 f   libucrt:fflush.obj
 0001:00044185       ??$__acrt_lock_stream_and_call@V<lambda_9a32fed5bf61b6b509b2d3f6003082a1>@@@@YAHQAU_iobuf@@$$QAV<lambda_9a32fed5bf61b6b509b2d3f6003082a1>@@@Z 10045185 f   libucrt:fflush.obj
 0001:000441b7       ??0<lambda_2866be3712abc81a800a822484c830d8>@@QAE@ABQAU_iobuf@@@Z 100451b7 f   libucrt:fflush.obj
 0001:000441cd       ??0<lambda_2b24c74d71094a6cd0cb82e44167d71b>@@QAE@ABQAU_iobuf@@@Z 100451cd f   libucrt:fflush.obj
 0001:000441e3       ??0<lambda_2cc53f568c5a2bb6f192f930a45d44ea>@@QAE@ABW4__acrt_lock_id@@@Z 100451e3 f   libucrt:fflush.obj
 0001:000441f9       ??0<lambda_39ca0ed439415581b5b15c265174cece>@@QAE@ABV__crt_stdio_stream@@AAHAB_N1@Z 100451f9 f   libucrt:fflush.obj
 0001:00044223       ??0<lambda_63ea2239ed67c638ddbae41947fdf875>@@QAE@ABQAU_iobuf@@@Z 10045223 f   libucrt:fflush.obj
 0001:00044239       ??0<lambda_6d20deecaf4856105ebacbad442d1079>@@QAE@ABQAU_iobuf@@@Z 10045239 f   libucrt:fflush.obj
 0001:0004424f       ??0<lambda_9a32fed5bf61b6b509b2d3f6003082a1>@@QAE@ABV__crt_stdio_stream@@@Z 1004524f f   libucrt:fflush.obj
 0001:00044263       ??0<lambda_ab61a845afdef5b7c387490eaf3616ee>@@QAE@AAHAB_N0@Z 10045263 f   libucrt:fflush.obj
 0001:00044286       ??0<lambda_c2ffc0b7726aa6be21d5f0026187e748>@@QAE@ABW4__acrt_lock_id@@@Z 10045286 f   libucrt:fflush.obj
 0001:000442b0       ??R<lambda_2866be3712abc81a800a822484c830d8>@@QBEXXZ 100452b0 f   libucrt:fflush.obj
 0001:000442bb       ??R<lambda_2b24c74d71094a6cd0cb82e44167d71b>@@QBEXXZ 100452bb f   libucrt:fflush.obj
 0001:000442c6       ??R<lambda_2cc53f568c5a2bb6f192f930a45d44ea>@@QBEXXZ 100452c6 f   libucrt:fflush.obj
 0001:000442d1       ??R<lambda_39ca0ed439415581b5b15c265174cece>@@QBEXXZ 100452d1 f   libucrt:fflush.obj
 0001:0004432d       ??R<lambda_63ea2239ed67c638ddbae41947fdf875>@@QBEXXZ 1004532d f   libucrt:fflush.obj
 0001:00044338       ??R<lambda_6d20deecaf4856105ebacbad442d1079>@@QBEXXZ 10045338 f   libucrt:fflush.obj
 0001:00044343       ??R<lambda_9a32fed5bf61b6b509b2d3f6003082a1>@@QBEHXZ 10045343 f   libucrt:fflush.obj
 0001:00044350       ??R<lambda_ab61a845afdef5b7c387490eaf3616ee>@@QBE@XZ 10045350 f   libucrt:fflush.obj
 0001:000443fc       ??R<lambda_c2ffc0b7726aa6be21d5f0026187e748>@@QBEXXZ 100453fc f   libucrt:fflush.obj
 0001:00044407       ?common_flush_all@@YAH_N@Z 10045407 f   libucrt:fflush.obj
 0001:00044469       ?common_flush_all_should_try_to_flush_stream@@YA_NV__crt_stdio_stream@@QAH@Z 10045469 f   libucrt:fflush.obj
 0001:000444a7       ?is_stream_allocated@@YA_NJ@Z 100454a7 f   libucrt:fflush.obj
 0001:000444b9       ?is_stream_flushable@@YA_NJ@Z 100454b9 f   libucrt:fflush.obj
 0001:000444da       ?is_stream_flushable_or_commitable@@YA_NJ@Z 100454da f   libucrt:fflush.obj
 0001:0004464c       ??$?RV<lambda_70c0770dcc4f6ec6272bb01dc82d3c91>@@AAV<lambda_ca71763b3c0644891230e4f79ea54fa6>@@V<lambda_ca266f0f09348b8765c113e3a39a2bc1>@@@?$__crt_seh_guarded_call@H@@QAEH$$QAV<lambda_70c0770dcc4f6ec6272bb01dc82d3c91>@@AAV<lambda_ca71763b3c0644891230e4f79ea54fa6>@@$$QAV<lambda_ca266f0f09348b8765c113e3a39a2bc1>@@@Z 1004564c f   libucrt:setvbuf.obj
 0001:000446b1       ??$__acrt_lock_stream_and_call@V<lambda_ca71763b3c0644891230e4f79ea54fa6>@@@@YAHQAU_iobuf@@$$QAV<lambda_ca71763b3c0644891230e4f79ea54fa6>@@@Z 100456b1 f   libucrt:setvbuf.obj
 0001:000446e3       ??0<lambda_70c0770dcc4f6ec6272bb01dc82d3c91>@@QAE@ABQAU_iobuf@@@Z 100456e3 f   libucrt:setvbuf.obj
 0001:000446f9       ??0<lambda_ca266f0f09348b8765c113e3a39a2bc1>@@QAE@ABQAU_iobuf@@@Z 100456f9 f   libucrt:setvbuf.obj
 0001:0004470f       ??0<lambda_ca71763b3c0644891230e4f79ea54fa6>@@QAE@ABIABV__crt_stdio_stream@@ABHABQAD@Z 1004570f f   libucrt:setvbuf.obj
 0001:00044739       ??R<lambda_70c0770dcc4f6ec6272bb01dc82d3c91>@@QBEXXZ 10045739 f   libucrt:setvbuf.obj
 0001:00044744       ??R<lambda_ca266f0f09348b8765c113e3a39a2bc1>@@QBEXXZ 10045744 f   libucrt:setvbuf.obj
 0001:0004474f       ??R<lambda_ca71763b3c0644891230e4f79ea54fa6>@@QBEHXZ 1004574f f   libucrt:setvbuf.obj
 0001:0004480f       ?set_buffer@@YAHV__crt_stdio_stream@@QADIH@Z 1004580f f   libucrt:setvbuf.obj
 0001:00044911       ??$?RV<lambda_cbab9ec6f41b0180b23cc171c22676b0>@@AAV<lambda_44731a7d0e6d81c3e6aa82d741081786>@@V<lambda_4b292cb8dd18144e164572427af410ab>@@@?$__crt_seh_guarded_call@P6AXH@Z@@QAEP6AXH@Z$$QAV<lambda_cbab9ec6f41b0180b23cc171c22676b0>@@AAV<lambda_44731a7d0e6d81c3e6aa82d741081786>@@$$QAV<lambda_4b292cb8dd18144e164572427af410ab>@@@Z 10045911 f   libucrt:signal.obj
 0001:00044981       ??$__acrt_lock_and_call@V<lambda_44731a7d0e6d81c3e6aa82d741081786>@@@@YAP6AXH@ZW4__acrt_lock_id@@$$QAV<lambda_44731a7d0e6d81c3e6aa82d741081786>@@@Z 10045981 f   libucrt:signal.obj
 0001:000449f4       ??0<lambda_4b292cb8dd18144e164572427af410ab>@@QAE@ABW4__acrt_lock_id@@@Z 100459f4 f   libucrt:signal.obj
 0001:00044a0a       ??0<lambda_cbab9ec6f41b0180b23cc171c22676b0>@@QAE@ABW4__acrt_lock_id@@@Z 10045a0a f   libucrt:signal.obj
 0001:00044a20       ??R<lambda_44731a7d0e6d81c3e6aa82d741081786>@@QBEP6AXH@ZXZ 10045a20 f   libucrt:signal.obj
 0001:00044a37       ??R<lambda_4b292cb8dd18144e164572427af410ab>@@QBEXXZ 10045a37 f   libucrt:signal.obj
 0001:00044a42       ??R<lambda_cbab9ec6f41b0180b23cc171c22676b0>@@QBEXXZ 10045a42 f   libucrt:signal.obj
 0001:00044a4d       ?ctrlevent_capture@@YGHK@Z 10045a4d f   libucrt:signal.obj
 0001:00044b26       ?get_global_action_nolock@@YAPAP6AXH@ZH@Z 10045b26 f   libucrt:signal.obj
 0001:00044ba7       ?is_console_signal@@YAHH@Z 10045ba7 f   libucrt:signal.obj
 0001:00044bc7       ?is_unsupported_signal@@YAHHQ6AXH@Z@Z 10045bc7 f   libucrt:signal.obj
 0001:00044be7       ?siglookup@@YAPAU__crt_signal_action_t@@HQAU1@@Z 10045be7 f   libucrt:signal.obj
 0001:00044c19       ?signal_failed@@YAP6AXH@ZH@Z 10045c19 f   libucrt:signal.obj
 0001:000452cb       ??$get_cached_win_policy@Ubegin_thread_init_policy_properties@?1??__acrt_get_begin_thread_init_policy@@YA?AW4begin_thread_init_policy@@XZ@@@YA?AW4begin_thread_init_policy@@W4AppPolicyThreadInitializationType@@@Z 100462cb f   libucrt:win_policies.obj
 0001:00045320       ??$get_cached_win_policy@Udeveloper_information_policy_properties@?1??__acrt_get_developer_information_policy@@YA?AW4developer_information_policy@@XZ@@@YA?AW4developer_information_policy@@W4AppPolicyShowDeveloperDiagnostic@@@Z 10046320 f   libucrt:win_policies.obj
 0001:00045375       ??$get_cached_win_policy@Uwindowing_model_policy_properties@?1??__acrt_get_windowing_model_policy@@YA?AW4windowing_model_policy@@XZ@@@YA?AW4windowing_model_policy@@W4AppPolicyWindowingModel@@@Z 10046375 f   libucrt:win_policies.obj
 0001:000453e8       ??$get_win_policy@Uprocess_end_policy_properties@?1??__acrt_get_process_end_policy@@YA?AW4process_end_policy@@XZ@@@YA?AW4process_end_policy@@W4AppPolicyProcessTerminationMethod@@@Z 100463e8 f   libucrt:win_policies.obj
 0001:00045425       ?appmodel_get_policy@begin_thread_init_policy_properties@?1??__acrt_get_begin_thread_init_policy@@YA?AW4begin_thread_init_policy@@XZ@SAJPAW4AppPolicyThreadInitializationType@@@Z 10046425 f   libucrt:win_policies.obj
 0001:00045437       ?appmodel_get_policy@developer_information_policy_properties@?1??__acrt_get_developer_information_policy@@YA?AW4developer_information_policy@@XZ@SAJPAW4AppPolicyShowDeveloperDiagnostic@@@Z 10046437 f   libucrt:win_policies.obj
 0001:00045449       ?appmodel_get_policy@process_end_policy_properties@?1??__acrt_get_process_end_policy@@YA?AW4process_end_policy@@XZ@SAJPAW4AppPolicyProcessTerminationMethod@@@Z 10046449 f   libucrt:win_policies.obj
 0001:0004545b       ?appmodel_get_policy@windowing_model_policy_properties@?1??__acrt_get_windowing_model_policy@@YA?AW4windowing_model_policy@@XZ@SAJPAW4AppPolicyWindowingModel@@@Z 1004645b f   libucrt:win_policies.obj
 0001:0004546d       ?appmodel_policy_to_policy_type@begin_thread_init_policy_properties@?1??__acrt_get_begin_thread_init_policy@@YA?AW4begin_thread_init_policy@@XZ@SA?AW43@J@Z 1004646d f   libucrt:win_policies.obj
 0001:00045482       ?appmodel_policy_to_policy_type@developer_information_policy_properties@?1??__acrt_get_developer_information_policy@@YA?AW4developer_information_policy@@XZ@SA?AW43@J@Z 10046482 f   libucrt:win_policies.obj
 0001:00045497       ?appmodel_policy_to_policy_type@process_end_policy_properties@?1??__acrt_get_process_end_policy@@YA?AW4process_end_policy@@XZ@SA?AW43@W4AppPolicyProcessTerminationMethod@@@Z 10046497 f   libucrt:win_policies.obj
 0001:000454ab       ?appmodel_policy_to_policy_type@windowing_model_policy_properties@?1??__acrt_get_windowing_model_policy@@YA?AW4windowing_model_policy@@XZ@SA?AW43@J@Z 100464ab f   libucrt:win_policies.obj
 0001:0004563d       ?<lambda_invoker_stdcall>@<lambda_29d3c280b90b41c2ae070ffca879996a>@@CGHPA_W@Z 1004663d f   libucrt:winapi_thunks.obj
 0001:0004566b       ??$?RV<lambda_93797fb4802c957ba6a7f08e1250235b>@@AAV<lambda_1f3ce6bd48e0aa2e72a71c02eee379d3>@@V<lambda_56cae30c9364c9b6c15aeaac05d0418e>@@@?$__crt_seh_guarded_call@H@@QAEH$$QAV<lambda_93797fb4802c957ba6a7f08e1250235b>@@AAV<lambda_1f3ce6bd48e0aa2e72a71c02eee379d3>@@$$QAV<lambda_56cae30c9364c9b6c15aeaac05d0418e>@@@Z 1004666b f   libucrt:winapi_thunks.obj
 0001:00045715       ??$__acrt_lock_and_call@V<lambda_1f3ce6bd48e0aa2e72a71c02eee379d3>@@@@YAHW4__acrt_lock_id@@$$QAV<lambda_1f3ce6bd48e0aa2e72a71c02eee379d3>@@@Z 10046715 f   libucrt:winapi_thunks.obj
 0001:00045788       ??0<lambda_1f3ce6bd48e0aa2e72a71c02eee379d3>@@QAE@ABQ6GHPA_WKJ@Z@Z 10046788 f   libucrt:winapi_thunks.obj
 0001:0004579c       ??0<lambda_56cae30c9364c9b6c15aeaac05d0418e>@@QAE@ABW4__acrt_lock_id@@@Z 1004679c f   libucrt:winapi_thunks.obj
 0001:000457b2       ??0<lambda_93797fb4802c957ba6a7f08e1250235b>@@QAE@ABW4__acrt_lock_id@@@Z 100467b2 f   libucrt:winapi_thunks.obj
 0001:000457c8       ??B<lambda_29d3c280b90b41c2ae070ffca879996a>@@QBEP6GHPA_W@ZXZ 100467c8 f   libucrt:winapi_thunks.obj
 0001:000457ce       ??R<lambda_1f3ce6bd48e0aa2e72a71c02eee379d3>@@QBEHXZ 100467ce f   libucrt:winapi_thunks.obj
 0001:00045817       ??R<lambda_29d3c280b90b41c2ae070ffca879996a>@@QBEHPA_W@Z 10046817 f   libucrt:winapi_thunks.obj
 0001:0004586e       ??R<lambda_56cae30c9364c9b6c15aeaac05d0418e>@@QBEXXZ 1004686e f   libucrt:winapi_thunks.obj
 0001:00045879       ??R<lambda_93797fb4802c957ba6a7f08e1250235b>@@QBEXXZ 10046879 f   libucrt:winapi_thunks.obj
 0001:00045884       ?enum_system_locales_ex_nolock@@YAHQ6GHPA_WKJ@Z@Z 10046884 f   libucrt:winapi_thunks.obj
 0001:000458d4       ?invalid_function_sentinel@@YAPAXXZ 100468d4 f   libucrt:winapi_thunks.obj
 0001:000458d8       ?try_get_AppPolicyGetProcessTerminationMethod@@YAP6GJPAXPAW4AppPolicyProcessTerminationMethod@@@ZXZ 100468d8 f   libucrt:winapi_thunks.obj
 0001:000458f8       ?try_get_AppPolicyGetShowDeveloperDiagnostic@@YAP6GJPAXPAW4AppPolicyShowDeveloperDiagnostic@@@ZXZ 100468f8 f   libucrt:winapi_thunks.obj
 0001:00045918       ?try_get_AppPolicyGetThreadInitializationType@@YAP6GJPAXPAW4AppPolicyThreadInitializationType@@@ZXZ 10046918 f   libucrt:winapi_thunks.obj
 0001:00045938       ?try_get_AppPolicyGetWindowingModel@@YAP6GJPAXPAW4AppPolicyWindowingModel@@@ZXZ 10046938 f   libucrt:winapi_thunks.obj
 0001:00045958       ?try_get_AreFileApisANSI@@YAP6GHXZXZ 10046958 f   libucrt:winapi_thunks.obj
 0001:00045978       ?try_get_CompareStringEx@@YAP6GHPB_WK0H0HPAU_nlsversioninfo@@PAXJ@ZXZ 10046978 f   libucrt:winapi_thunks.obj
 0001:00045998       ?try_get_EnumSystemLocalesEx@@YAP6GHP6GHPA_WKJ@ZKJPAX@ZXZ 10046998 f   libucrt:winapi_thunks.obj
 0001:000459b8       ?try_get_FlsAlloc@@YAP6GKP6GXPAX@Z@ZXZ 100469b8 f   libucrt:winapi_thunks.obj
 0001:000459d8       ?try_get_FlsFree@@YAP6GHK@ZXZ 100469d8 f   libucrt:winapi_thunks.obj
 0001:000459f8       ?try_get_FlsGetValue@@YAP6GPAXK@ZXZ 100469f8 f   libucrt:winapi_thunks.obj
 0001:00045a18       ?try_get_FlsSetValue@@YAP6GHKPAX@ZXZ 10046a18 f   libucrt:winapi_thunks.obj
 0001:00045a38       ?try_get_GetActiveWindow@@YAP6GPAUHWND__@@XZXZ 10046a38 f   libucrt:winapi_thunks.obj
 0001:00045a58       ?try_get_GetDateFormatEx@@YAP6GHPB_WKPBU_SYSTEMTIME@@0PA_WH0@ZXZ 10046a58 f   libucrt:winapi_thunks.obj
 0001:00045a78       ?try_get_GetEnabledXStateFeatures@@YAP6G_KXZXZ 10046a78 f   libucrt:winapi_thunks.obj
 0001:00045a98       ?try_get_GetLastActivePopup@@YAP6GPAUHWND__@@PAU1@@ZXZ 10046a98 f   libucrt:winapi_thunks.obj
 0001:00045ab8       ?try_get_GetLocaleInfoEx@@YAP6GHPB_WKPA_WH@ZXZ 10046ab8 f   libucrt:winapi_thunks.obj
 0001:00045ad8       ?try_get_GetProcessWindowStation@@YAP6GPAUHWINSTA__@@XZXZ 10046ad8 f   libucrt:winapi_thunks.obj
 0001:00045af8       ?try_get_GetSystemTimePreciseAsFileTime@@YAP6GXPAU_FILETIME@@@ZXZ 10046af8 f   libucrt:winapi_thunks.obj
 0001:00045b18       ?try_get_GetTimeFormatEx@@YAP6GHPB_WKPBU_SYSTEMTIME@@0PA_WH@ZXZ 10046b18 f   libucrt:winapi_thunks.obj
 0001:00045b38       ?try_get_GetUserDefaultLocaleName@@YAP6GHPA_WH@ZXZ 10046b38 f   libucrt:winapi_thunks.obj
 0001:00045b58       ?try_get_GetUserObjectInformationW@@YAP6GHPAXH0KPAK@ZXZ 10046b58 f   libucrt:winapi_thunks.obj
 0001:00045b78       ?try_get_GetXStateFeaturesMask@@YAP6GHPAU_CONTEXT@@PA_K@ZXZ 10046b78 f   libucrt:winapi_thunks.obj
 0001:00045b98       ?try_get_InitializeCriticalSectionEx@@YAP6GHPAU_RTL_CRITICAL_SECTION@@KK@ZXZ 10046b98 f   libucrt:winapi_thunks.obj
 0001:00045bb8       ?try_get_IsValidLocaleName@@YAP6GHPB_W@ZXZ 10046bb8 f   libucrt:winapi_thunks.obj
 0001:00045bd8       ?try_get_LCIDToLocaleName@@YAP6GHKPA_WHK@ZXZ 10046bd8 f   libucrt:winapi_thunks.obj
 0001:00045bf8       ?try_get_LCMapStringEx@@YAP6GHPB_WK0HPA_WHPAU_nlsversioninfo@@PAXJ@ZXZ 10046bf8 f   libucrt:winapi_thunks.obj
 0001:00045c18       ?try_get_LocaleNameToLCID@@YAP6GKPB_WK@ZXZ 10046c18 f   libucrt:winapi_thunks.obj
 0001:00045c38       ?try_get_LocateXStateFeature@@YAP6GPAXPAU_CONTEXT@@KPAK@ZXZ 10046c38 f   libucrt:winapi_thunks.obj
 0001:00045c58       ?try_get_MessageBoxA@@YAP6GHPAUHWND__@@PBD1I@ZXZ 10046c58 f   libucrt:winapi_thunks.obj
 0001:00045c78       ?try_get_MessageBoxW@@YAP6GHPAUHWND__@@PB_W1I@ZXZ 10046c78 f   libucrt:winapi_thunks.obj
 0001:00045c98       ?try_get_RoInitialize@@YAP6GJW4RO_INIT_TYPE@@@ZXZ 10046c98 f   libucrt:winapi_thunks.obj
 0001:00045cb8       ?try_get_RoUninitialize@@YAP6GXXZXZ 10046cb8 f   libucrt:winapi_thunks.obj
 0001:00045cd8       ?try_get_SetThreadStackGuarantee@@YAP6GHPAK@ZXZ 10046cd8 f   libucrt:winapi_thunks.obj
 0001:00045cf8       ?try_get_SystemFunction036@@YAP6GEPAXK@ZXZ 10046cf8 f   libucrt:winapi_thunks.obj
 0001:00045d18       ?try_get_first_available_module@@YAPAUHINSTANCE__@@QBW4module_id@?A0x391cf84c@@0@Z 10046d18 f   libucrt:winapi_thunks.obj
 0001:00045e12       ?try_get_function@@YAPAXW4function_id@?A0x391cf84c@@QBDQBW4module_id@2@2@Z 10046e12 f   libucrt:winapi_thunks.obj
 0001:00045eb4       ?try_get_module@@YAPAUHINSTANCE__@@W4module_id@?A0x391cf84c@@@Z 10046eb4 f   libucrt:winapi_thunks.obj
 0001:00045f19       ?try_get_proc_address_from_first_available_module@@YAPAXQBDQBW4module_id@?A0x391cf84c@@1@Z 10046f19 f   libucrt:winapi_thunks.obj
 0001:00045f46       ?try_load_library_from_system_directory@@YAPAUHINSTANCE__@@QB_W@Z 10046f46 f   libucrt:winapi_thunks.obj
 0001:00047006       ?get_std_handle_id@@YAKH@Z 10048006 f   libucrt:ioinit.obj
 0001:00047030       ?initialize_inherited_file_handles_nolock@@YAXXZ 10048030 f   libucrt:ioinit.obj
 0001:00047116       ?initialize_stdio_handles_nolock@@YAXXZ 10048116 f   libucrt:ioinit.obj
 0001:00047299       ??$?RV<lambda_218ce3db14220d0be481dae8ef3383b6>@@AAV<lambda_628dfdc04ba53c8bfc02c9951375f3f5>@@V<lambda_57dc472bd5c9d5f3b2cbca59b8a843ae>@@@?$__crt_seh_guarded_call@H@@QAEH$$QAV<lambda_218ce3db14220d0be481dae8ef3383b6>@@AAV<lambda_628dfdc04ba53c8bfc02c9951375f3f5>@@$$QAV<lambda_57dc472bd5c9d5f3b2cbca59b8a843ae>@@@Z 10048299 f   libucrt:close.obj
 0001:0004733b       ??$__acrt_lowio_lock_fh_and_call@V<lambda_628dfdc04ba53c8bfc02c9951375f3f5>@@@@YAHH$$QAV<lambda_628dfdc04ba53c8bfc02c9951375f3f5>@@@Z 1004833b f   libucrt:close.obj
 0001:0004736d       ??0<lambda_218ce3db14220d0be481dae8ef3383b6>@@QAE@ABH@Z 1004836d f   libucrt:close.obj
 0001:00047383       ??0<lambda_57dc472bd5c9d5f3b2cbca59b8a843ae>@@QAE@ABH@Z 10048383 f   libucrt:close.obj
 0001:00047399       ??0<lambda_628dfdc04ba53c8bfc02c9951375f3f5>@@QAE@ABH@Z 10048399 f   libucrt:close.obj
 0001:000473ad       ??R<lambda_218ce3db14220d0be481dae8ef3383b6>@@QBEXXZ 100483ad f   libucrt:close.obj
 0001:000473b8       ??R<lambda_57dc472bd5c9d5f3b2cbca59b8a843ae>@@QBEXXZ 100483b8 f   libucrt:close.obj
 0001:000473c3       ??R<lambda_628dfdc04ba53c8bfc02c9951375f3f5>@@QBEHXZ 100483c3 f   libucrt:close.obj
 0001:0004740a       ?close_os_handle_nolock@@YAKH@Z 1004840a f   libucrt:close.obj
 0001:0004774f       ?find_or_allocate_unused_stream_nolock@@YA?AV__crt_stdio_stream@@XZ 1004874f f   libucrt:stream.obj
 0001:00047e4e       ??$common_openfile@D@@YAPAU_iobuf@@QBD0HV__crt_stdio_stream@@@Z 10048e4e f   libucrt:openfile.obj
 0001:00047ef4       ??$common_openfile@_W@@YAPAU_iobuf@@QB_W0HV__crt_stdio_stream@@@Z 10048ef4 f   libucrt:openfile.obj
 0001:000482e5       ??$translate_text_mode_nolock@D@@YAHHQADI@Z 100492e5 f   libucrt:read.obj
 0001:000484a0       ??$translate_text_mode_nolock@_W@@YAHHQA_WI@Z 100494a0 f   libucrt:read.obj
 0001:000486e7       ?store_lookahead@@YAXHD@Z  100496e7 f   libucrt:read.obj
 0001:00048712       ?store_lookahead@@YAXH_W@Z 10049712 f   libucrt:read.obj
 0001:00048763       ?translate_ansi_or_utf8_nolock@@YAHHQADIQA_WI@Z 10049763 f   libucrt:read.obj
 0001:00048912       ?translate_utf16_from_console_nolock@@YAHHQA_WI@Z 10049912 f   libucrt:read.obj
 0001:00048faa       ??$common_refill_and_read_nolock@D@@YAHV__crt_stdio_stream@@@Z 10049faa f   libucrt:_filbuf.obj
 0001:0004918d       ??$common_refill_and_read_nolock@_W@@YAHV__crt_stdio_stream@@@Z 1004a18d f   libucrt:_filbuf.obj
 0001:000493c7       ?get_context_nolock@@YA?AUfilwbuf_context@?A0x763516dc@@V__crt_stdio_stream@@_W@Z 1004a3c7 f   libucrt:_filbuf.obj
 0001:000493fb       ?get_context_nolock@@YAHV__crt_stdio_stream@@D@Z 1004a3fb f   libucrt:_filbuf.obj
 0001:000493fe       ?is_buffer_valid_nolock@@YA_NV__crt_stdio_stream@@D@Z 1004a3fe f   libucrt:_filbuf.obj
 0001:00049421       ?is_buffer_valid_nolock@@YA_NV__crt_stdio_stream@@_W@Z 1004a421 f   libucrt:_filbuf.obj
 0001:00049447       ?read_character_nolock@@YAEV__crt_stdio_stream@@HD@Z 1004a447 f   libucrt:_filbuf.obj
 0001:00049463       ?read_character_nolock@@YA_WV__crt_stdio_stream@@Ufilwbuf_context@?A0x763516dc@@_W@Z 1004a463 f   libucrt:_filbuf.obj
 0001:000494ce       ?write_binary_nolock@@YA?AUwrite_result@?A0x17268360@@HQBDI@Z 1004a4ce f   libucrt:write.obj
 0001:00049530       ?write_double_translated_ansi_nolock@@YA?AUwrite_result@?A0x17268360@@HQBDI@Z 1004a530 f   libucrt:write.obj
 0001:00049772       ?write_double_translated_unicode_nolock@@YA?AUwrite_result@?A0x17268360@@QBDI@Z 1004a772 f   libucrt:write.obj
 0001:000497f6       ?write_requires_double_translation_nolock@@YA_NH@Z 1004a7f6 f   libucrt:write.obj
 0001:00049889       ?write_text_ansi_nolock@@YA?AUwrite_result@?A0x17268360@@HQBDI@Z 1004a889 f   libucrt:write.obj
 0001:0004999d       ?write_text_utf16le_nolock@@YA?AUwrite_result@?A0x17268360@@HQBDI@Z 1004a99d f   libucrt:write.obj
 0001:00049ac2       ?write_text_utf8_nolock@@YA?AUwrite_result@?A0x17268360@@HQBDI@Z 1004aac2 f   libucrt:write.obj
 0001:00049ffb       ??$common_flush_and_write_nolock@D@@YAHHV__crt_stdio_stream@@@Z 1004affb f   libucrt:_flsbuf.obj
 0001:0004a150       ??$common_flush_and_write_nolock@_W@@YAHHV__crt_stdio_stream@@@Z 1004b150 f   libucrt:_flsbuf.obj
 0001:0004a2aa       ??$write_buffer_nolock@D@@YA_NDV__crt_stdio_stream@@@Z 1004b2aa f   libucrt:_flsbuf.obj
 0001:0004a3a7       ??$write_buffer_nolock@_W@@YA_N_WV__crt_stdio_stream@@@Z 1004b3a7 f   libucrt:_flsbuf.obj
 0001:0004a5f7       ?filter_mbtowcs_flags@@YAKIK@Z 1004b5f7 f   libucrt:multibytetowidechar.obj
 0001:0004a72a       ??$?RV<lambda_15ade71b0218206bbe3333a0c9b79046>@@AAV<lambda_da44e0f8b0f19ba52fefafb335991732>@@V<lambda_207f2d024fc103971653565357d6cd41>@@@?$__crt_seh_guarded_call@X@@QAEX$$QAV<lambda_15ade71b0218206bbe3333a0c9b79046>@@AAV<lambda_da44e0f8b0f19ba52fefafb335991732>@@$$QAV<lambda_207f2d024fc103971653565357d6cd41>@@@Z 1004b72a f   libucrt:per_thread_data.obj
 0001:0004a784       ??$?RV<lambda_38edbb1296d33220d7e4dd0ed76b244a>@@AAV<lambda_5ce1d447e08cb34b2473517608e21441>@@V<lambda_fb385d3da700c9147fc39e65dd577a8c>@@@?$__crt_seh_guarded_call@X@@QAEX$$QAV<lambda_38edbb1296d33220d7e4dd0ed76b244a>@@AAV<lambda_5ce1d447e08cb34b2473517608e21441>@@$$QAV<lambda_fb385d3da700c9147fc39e65dd577a8c>@@@Z 1004b784 f   libucrt:per_thread_data.obj
 0001:0004a7fd       ??$?RV<lambda_6affb1475c98b40b75cdec977db92e3c>@@AAV<lambda_b8d4b9c228a6ecc3f80208dbb4b4a104>@@V<lambda_608742c3c92a14382c1684fc64f96c88>@@@?$__crt_seh_guarded_call@X@@QAEX$$QAV<lambda_6affb1475c98b40b75cdec977db92e3c>@@AAV<lambda_b8d4b9c228a6ecc3f80208dbb4b4a104>@@$$QAV<lambda_608742c3c92a14382c1684fc64f96c88>@@@Z 1004b7fd f   libucrt:per_thread_data.obj
 0001:0004a85a       ??$?RV<lambda_a7e850c220f1c8d1e6efeecdedd162c6>@@AAV<lambda_46720907175c18b6c9d2717bc0d2d362>@@V<lambda_9048902d66e8d99359bc9897bbb930a8>@@@?$__crt_seh_guarded_call@X@@QAEX$$QAV<lambda_a7e850c220f1c8d1e6efeecdedd162c6>@@AAV<lambda_46720907175c18b6c9d2717bc0d2d362>@@$$QAV<lambda_9048902d66e8d99359bc9897bbb930a8>@@@Z 1004b85a f   libucrt:per_thread_data.obj
 0001:0004a8be       ??$__acrt_lock_and_call@V<lambda_46720907175c18b6c9d2717bc0d2d362>@@@@YAXW4__acrt_lock_id@@$$QAV<lambda_46720907175c18b6c9d2717bc0d2d362>@@@Z 1004b8be f   libucrt:per_thread_data.obj
 0001:0004a8f0       ??$__acrt_lock_and_call@V<lambda_5ce1d447e08cb34b2473517608e21441>@@@@YAXW4__acrt_lock_id@@$$QAV<lambda_5ce1d447e08cb34b2473517608e21441>@@@Z 1004b8f0 f   libucrt:per_thread_data.obj
 0001:0004a922       ??$__acrt_lock_and_call@V<lambda_b8d4b9c228a6ecc3f80208dbb4b4a104>@@@@YAXW4__acrt_lock_id@@$$QAV<lambda_b8d4b9c228a6ecc3f80208dbb4b4a104>@@@Z 1004b922 f   libucrt:per_thread_data.obj
 0001:0004a954       ??$__acrt_lock_and_call@V<lambda_da44e0f8b0f19ba52fefafb335991732>@@@@YAXW4__acrt_lock_id@@$$QAV<lambda_da44e0f8b0f19ba52fefafb335991732>@@@Z 1004b954 f   libucrt:per_thread_data.obj
 0001:0004a986       ??0<lambda_15ade71b0218206bbe3333a0c9b79046>@@QAE@ABW4__acrt_lock_id@@@Z 1004b986 f   libucrt:per_thread_data.obj
 0001:0004a99c       ??0<lambda_207f2d024fc103971653565357d6cd41>@@QAE@ABW4__acrt_lock_id@@@Z 1004b99c f   libucrt:per_thread_data.obj
 0001:0004a9b2       ??0<lambda_38edbb1296d33220d7e4dd0ed76b244a>@@QAE@ABW4__acrt_lock_id@@@Z 1004b9b2 f   libucrt:per_thread_data.obj
 0001:0004a9c8       ??0<lambda_46720907175c18b6c9d2717bc0d2d362>@@QAE@ABQAU__acrt_ptd@@ABQAPAU__crt_locale_data@@@Z 1004b9c8 f   libucrt:per_thread_data.obj
 0001:0004a9e3       ??0<lambda_5ce1d447e08cb34b2473517608e21441>@@QAE@ABQAU__acrt_ptd@@@Z 1004b9e3 f   libucrt:per_thread_data.obj
 0001:0004a9f7       ??0<lambda_608742c3c92a14382c1684fc64f96c88>@@QAE@ABW4__acrt_lock_id@@@Z 1004b9f7 f   libucrt:per_thread_data.obj
 0001:0004aa0d       ??0<lambda_6affb1475c98b40b75cdec977db92e3c>@@QAE@ABW4__acrt_lock_id@@@Z 1004ba0d f   libucrt:per_thread_data.obj
 0001:0004aa23       ??0<lambda_9048902d66e8d99359bc9897bbb930a8>@@QAE@ABW4__acrt_lock_id@@@Z 1004ba23 f   libucrt:per_thread_data.obj
 0001:0004aa39       ??0<lambda_a7e850c220f1c8d1e6efeecdedd162c6>@@QAE@ABW4__acrt_lock_id@@@Z 1004ba39 f   libucrt:per_thread_data.obj
 0001:0004aa4f       ??0<lambda_b8d4b9c228a6ecc3f80208dbb4b4a104>@@QAE@ABQAU__acrt_ptd@@@Z 1004ba4f f   libucrt:per_thread_data.obj
 0001:0004aa63       ??0<lambda_da44e0f8b0f19ba52fefafb335991732>@@QAE@ABQAU__acrt_ptd@@@Z 1004ba63 f   libucrt:per_thread_data.obj
 0001:0004aa77       ??0<lambda_fb385d3da700c9147fc39e65dd577a8c>@@QAE@ABW4__acrt_lock_id@@@Z 1004ba77 f   libucrt:per_thread_data.obj
 0001:0004aade       ??R<lambda_15ade71b0218206bbe3333a0c9b79046>@@QBEXXZ 1004bade f   libucrt:per_thread_data.obj
 0001:0004aae9       ??R<lambda_207f2d024fc103971653565357d6cd41>@@QBEXXZ 1004bae9 f   libucrt:per_thread_data.obj
 0001:0004aaf4       ??R<lambda_38edbb1296d33220d7e4dd0ed76b244a>@@QBEXXZ 1004baf4 f   libucrt:per_thread_data.obj
 0001:0004aaff       ??R<lambda_46720907175c18b6c9d2717bc0d2d362>@@QBEXXZ 1004baff f   libucrt:per_thread_data.obj
 0001:0004ab16       ??R<lambda_5ce1d447e08cb34b2473517608e21441>@@QBEXXZ 1004bb16 f   libucrt:per_thread_data.obj
 0001:0004ab43       ??R<lambda_608742c3c92a14382c1684fc64f96c88>@@QBEXXZ 1004bb43 f   libucrt:per_thread_data.obj
 0001:0004ab4e       ??R<lambda_6affb1475c98b40b75cdec977db92e3c>@@QBEXXZ 1004bb4e f   libucrt:per_thread_data.obj
 0001:0004ab59       ??R<lambda_9048902d66e8d99359bc9897bbb930a8>@@QBEXXZ 1004bb59 f   libucrt:per_thread_data.obj
 0001:0004ab64       ??R<lambda_a7e850c220f1c8d1e6efeecdedd162c6>@@QBEXXZ 1004bb64 f   libucrt:per_thread_data.obj
 0001:0004ab6f       ??R<lambda_b8d4b9c228a6ecc3f80208dbb4b4a104>@@QBEXXZ 1004bb6f f   libucrt:per_thread_data.obj
 0001:0004ab80       ??R<lambda_da44e0f8b0f19ba52fefafb335991732>@@QBEXXZ 1004bb80 f   libucrt:per_thread_data.obj
 0001:0004ab8d       ??R<lambda_fb385d3da700c9147fc39e65dd577a8c>@@QBEXXZ 1004bb8d f   libucrt:per_thread_data.obj
 0001:0004ab98       ?construct_ptd@@YAXQAU__acrt_ptd@@QAPAU__crt_locale_data@@@Z 1004bb98 f   libucrt:per_thread_data.obj
 0001:0004ac59       ?construct_ptd_array@@YAXQAU__acrt_ptd@@@Z 1004bc59 f   libucrt:per_thread_data.obj
 0001:0004ac77       ?destroy_fls@@YGXPAX@Z     1004bc77 f   libucrt:per_thread_data.obj
 0001:0004aca0       ?destroy_ptd@@YAXQAU__acrt_ptd@@@Z 1004bca0 f   libucrt:per_thread_data.obj
 0001:0004ada2       ?destroy_ptd_array@@YAXQAU__acrt_ptd@@@Z 1004bda2 f   libucrt:per_thread_data.obj
 0001:0004adb3       ?internal_get_ptd_head@@YAPAU__acrt_ptd@@XZ 1004bdb3 f   libucrt:per_thread_data.obj
 0001:0004ae59       ?internal_getptd_noexit@@YAPAU__acrt_ptd@@XZ 1004be59 f   libucrt:per_thread_data.obj
 0001:0004af53       ?replace_current_thread_locale_nolock@@YAXQAU__acrt_ptd@@QAU__crt_locale_data@@@Z 1004bf53 f   libucrt:per_thread_data.obj
 0001:0004afb0       ?try_get_ptd_head@@YAPAU__acrt_ptd@@XZ 1004bfb0 f   libucrt:per_thread_data.obj
 0001:0004b394       _no_op_initialize          1004c394 f   libucrt:wsetlocale.obj
 0001:0004b3d9       ??$?RV<lambda_135d2772fca65dc1248eeaa1b56e886a>@@AAV<lambda_2a444430fde8c29194d880d93eed5e8f>@@AAV<lambda_8dff2cf36a5417162780cd64fa2883ef>@@@?$__crt_seh_guarded_call@X@@QAEX$$QAV<lambda_135d2772fca65dc1248eeaa1b56e886a>@@AAV<lambda_2a444430fde8c29194d880d93eed5e8f>@@AAV<lambda_8dff2cf36a5417162780cd64fa2883ef>@@@Z 1004c3d9 f   libucrt:wsetlocale.obj
 0001:0004b422       ??$?RV<lambda_4fdada1b837b2abbf20876fac97688ad>@@AAV<lambda_b57350f2640456a0859d250846f69caf>@@V<lambda_eed5e4f92b5b7d55fa22c48c484aaa54>@@@?$__crt_seh_guarded_call@X@@QAEX$$QAV<lambda_4fdada1b837b2abbf20876fac97688ad>@@AAV<lambda_b57350f2640456a0859d250846f69caf>@@$$QAV<lambda_eed5e4f92b5b7d55fa22c48c484aaa54>@@@Z 1004c422 f   libucrt:wsetlocale.obj
 0001:0004b475       ??$?RV<lambda_6673f7c4c09a5d469d0c27ae364621ce>@@AAV<lambda_ebab98244f73a74f49db879bf13fa982>@@V<lambda_be20789b7a146653eab82509ec35b419>@@@?$__crt_seh_guarded_call@X@@QAEX$$QAV<lambda_6673f7c4c09a5d469d0c27ae364621ce>@@AAV<lambda_ebab98244f73a74f49db879bf13fa982>@@$$QAV<lambda_be20789b7a146653eab82509ec35b419>@@@Z 1004c475 f   libucrt:wsetlocale.obj
 0001:0004b4cf       ??$?RV<lambda_82aef432098b982f9ede325b418aa67a>@@AAV<lambda_862e9a3f04921db6ca1ce3faa2bf3edf>@@V<lambda_ffabc152e504b53d7492b9889b10c020>@@@?$__crt_seh_guarded_call@X@@QAEX$$QAV<lambda_82aef432098b982f9ede325b418aa67a>@@AAV<lambda_862e9a3f04921db6ca1ce3faa2bf3edf>@@$$QAV<lambda_ffabc152e504b53d7492b9889b10c020>@@@Z 1004c4cf f   libucrt:wsetlocale.obj
 0001:0004b52b       ??$?RV<lambda_e5124f882df8998aaf41531e079ba474>@@AAV<lambda_3e16ef9562a7dcce91392c22ab16ea36>@@V<lambda_e25ca0880e6ef98be67edffd8c599615>@@@?$__crt_seh_guarded_call@X@@QAEX$$QAV<lambda_e5124f882df8998aaf41531e079ba474>@@AAV<lambda_3e16ef9562a7dcce91392c22ab16ea36>@@$$QAV<lambda_e25ca0880e6ef98be67edffd8c599615>@@@Z 1004c52b f   libucrt:wsetlocale.obj
 0001:0004b5a8       ??$__acrt_lock_and_call@V<lambda_3e16ef9562a7dcce91392c22ab16ea36>@@@@YAXW4__acrt_lock_id@@$$QAV<lambda_3e16ef9562a7dcce91392c22ab16ea36>@@@Z 1004c5a8 f   libucrt:wsetlocale.obj
 0001:0004b5da       ??$__acrt_lock_and_call@V<lambda_862e9a3f04921db6ca1ce3faa2bf3edf>@@@@YAXW4__acrt_lock_id@@$$QAV<lambda_862e9a3f04921db6ca1ce3faa2bf3edf>@@@Z 1004c5da f   libucrt:wsetlocale.obj
 0001:0004b60c       ??$__acrt_lock_and_call@V<lambda_b57350f2640456a0859d250846f69caf>@@@@YAXW4__acrt_lock_id@@$$QAV<lambda_b57350f2640456a0859d250846f69caf>@@@Z 1004c60c f   libucrt:wsetlocale.obj
 0001:0004b63e       ??$__acrt_lock_and_call@V<lambda_ebab98244f73a74f49db879bf13fa982>@@@@YAXW4__acrt_lock_id@@$$QAV<lambda_ebab98244f73a74f49db879bf13fa982>@@@Z 1004c63e f   libucrt:wsetlocale.obj
 0001:0004b670       ??$__crt_call_and_cleanup@V<lambda_2a444430fde8c29194d880d93eed5e8f>@@V<lambda_8dff2cf36a5417162780cd64fa2883ef>@@@@YAX$$QAV<lambda_2a444430fde8c29194d880d93eed5e8f>@@$$QAV<lambda_8dff2cf36a5417162780cd64fa2883ef>@@@Z 1004c670 f   libucrt:wsetlocale.obj
 0001:0004b694       ??$uninitialize@V<lambda_88ce03f932007f29bf8b8056cbaba4f3>@@@?$dual_state_global@PAU__crt_locale_data@@@__crt_state_management@@QAEX$$QAV<lambda_88ce03f932007f29bf8b8056cbaba4f3>@@@Z 1004c694 f   libucrt:wsetlocale.obj
 0001:0004b6ce       ??0<lambda_2a444430fde8c29194d880d93eed5e8f>@@QAE@AAPAU__crt_locale_data@@ABQAU__acrt_ptd@@AAPA_WAAHAAPB_W@Z 1004c6ce f   libucrt:wsetlocale.obj
 0001:0004b700       ??0<lambda_4fdada1b837b2abbf20876fac97688ad>@@QAE@ABW4__acrt_lock_id@@@Z 1004c700 f   libucrt:wsetlocale.obj
 0001:0004b716       ??0<lambda_6673f7c4c09a5d469d0c27ae364621ce>@@QAE@ABW4__acrt_lock_id@@@Z 1004c716 f   libucrt:wsetlocale.obj
 0001:0004b72c       ??0<lambda_82aef432098b982f9ede325b418aa67a>@@QAE@ABW4__acrt_lock_id@@@Z 1004c72c f   libucrt:wsetlocale.obj
 0001:0004b742       ??0<lambda_862e9a3f04921db6ca1ce3faa2bf3edf>@@QAE@AAV?$__crt_unique_heap_ptr@U__crt_locale_pointers@@U__crt_internal_free_policy@@@@@Z 1004c742 f   libucrt:wsetlocale.obj
 0001:0004b756       ??0<lambda_8dff2cf36a5417162780cd64fa2883ef>@@QAE@ABQAU__acrt_ptd@@@Z 1004c756 f   libucrt:wsetlocale.obj
 0001:0004b76a       ??0<lambda_b57350f2640456a0859d250846f69caf>@@QAE@AAPAU__crt_locale_data@@ABQAU__acrt_ptd@@AAPA_WAAHAAPB_W@Z 1004c76a f   libucrt:wsetlocale.obj
 0001:0004b79c       ??0<lambda_be20789b7a146653eab82509ec35b419>@@QAE@ABW4__acrt_lock_id@@@Z 1004c79c f   libucrt:wsetlocale.obj
 0001:0004b7b2       ??0<lambda_e25ca0880e6ef98be67edffd8c599615>@@QAE@ABW4__acrt_lock_id@@@Z 1004c7b2 f   libucrt:wsetlocale.obj
 0001:0004b7c8       ??0<lambda_e5124f882df8998aaf41531e079ba474>@@QAE@ABW4__acrt_lock_id@@@Z 1004c7c8 f   libucrt:wsetlocale.obj
 0001:0004b7de       ??0<lambda_ebab98244f73a74f49db879bf13fa982>@@QAE@AAV?$__crt_unique_heap_ptr@U__crt_locale_pointers@@U__crt_internal_free_policy@@@@@Z 1004c7de f   libucrt:wsetlocale.obj
 0001:0004b7f2       ??0<lambda_eed5e4f92b5b7d55fa22c48c484aaa54>@@QAE@ABW4__acrt_lock_id@@@Z 1004c7f2 f   libucrt:wsetlocale.obj
 0001:0004b808       ??0<lambda_ffabc152e504b53d7492b9889b10c020>@@QAE@ABW4__acrt_lock_id@@@Z 1004c808 f   libucrt:wsetlocale.obj
 0001:0004b8b1       ??R<lambda_135d2772fca65dc1248eeaa1b56e886a>@@QBEXXZ 1004c8b1 f   libucrt:wsetlocale.obj
 0001:0004b8b2       ??R<lambda_2a444430fde8c29194d880d93eed5e8f>@@QBE@XZ 1004c8b2 f   libucrt:wsetlocale.obj
 0001:0004b939       ??R<lambda_3e16ef9562a7dcce91392c22ab16ea36>@@QBE@XZ 1004c939 f   libucrt:wsetlocale.obj
 0001:0004b961       ??R<lambda_4fdada1b837b2abbf20876fac97688ad>@@QBEXXZ 1004c961 f   libucrt:wsetlocale.obj
 0001:0004b96c       ??R<lambda_6673f7c4c09a5d469d0c27ae364621ce>@@QBEXXZ 1004c96c f   libucrt:wsetlocale.obj
 0001:0004b977       ??R<lambda_82aef432098b982f9ede325b418aa67a>@@QBEXXZ 1004c977 f   libucrt:wsetlocale.obj
 0001:0004b982       ??R<lambda_862e9a3f04921db6ca1ce3faa2bf3edf>@@QBEXXZ 1004c982 f   libucrt:wsetlocale.obj
 0001:0004b992       ??R<lambda_88ce03f932007f29bf8b8056cbaba4f3>@@QBEXAAPAU__crt_locale_data@@@Z 1004c992 f   libucrt:wsetlocale.obj
 0001:0004b9bc       ??R<lambda_8dff2cf36a5417162780cd64fa2883ef>@@QBEXXZ 1004c9bc f   libucrt:wsetlocale.obj
 0001:0004b9cb       ??R<lambda_b57350f2640456a0859d250846f69caf>@@QBEXXZ 1004c9cb f   libucrt:wsetlocale.obj
 0001:0004bb08       ??R<lambda_be20789b7a146653eab82509ec35b419>@@QBEXXZ 1004cb08 f   libucrt:wsetlocale.obj
 0001:0004bb13       ??R<lambda_e25ca0880e6ef98be67edffd8c599615>@@QBEXXZ 1004cb13 f   libucrt:wsetlocale.obj
 0001:0004bb1e       ??R<lambda_e5124f882df8998aaf41531e079ba474>@@QBEXXZ 1004cb1e f   libucrt:wsetlocale.obj
 0001:0004bb29       ??R<lambda_ebab98244f73a74f49db879bf13fa982>@@QBEXXZ 1004cb29 f   libucrt:wsetlocale.obj
 0001:0004bb36       ??R<lambda_eed5e4f92b5b7d55fa22c48c484aaa54>@@QBEXXZ 1004cb36 f   libucrt:wsetlocale.obj
 0001:0004bb41       ??R<lambda_ffabc152e504b53d7492b9889b10c020>@@QBEXXZ 1004cb41 f   libucrt:wsetlocale.obj
 0001:0004bf23       __copytlocinfo_nolock      1004cf23 f   libucrt:wsetlocale.obj
 0001:0004c89c       __wsetlocale_get_all       1004d89c f   libucrt:wsetlocale.obj
 0001:0004caa0       __wsetlocale_nolock        1004daa0 f   libucrt:wsetlocale.obj
 0001:0004ce47       __wsetlocale_set_cat       1004de47 f   libucrt:wsetlocale.obj
 0001:0004d303       _sync_legacy_variables_lk  1004e303 f   libucrt:wsetlocale.obj
 0001:0004d35d       ??$common_lseek@J@@YAJHJH@Z 1004e35d f   libucrt:lseek.obj
 0001:0004d47f       ??$common_lseek@_J@@YA_JH_JH@Z 1004e47f f   libucrt:lseek.obj
 0001:0004d5c1       ??$common_lseek_nolock@J@@YAJHJH@Z 1004e5c1 f   libucrt:lseek.obj
 0001:0004d62d       ??$common_lseek_nolock@_J@@YA_JH_JH@Z 1004e62d f   libucrt:lseek.obj
 0001:0004d6ca       ?common_lseek_do_seek_nolock@@YAJQAXJH@Z 1004e6ca f   libucrt:lseek.obj
 0001:0004d76f       ?common_lseek_do_seek_nolock@@YA_JQAX_JH@Z 1004e76f f   libucrt:lseek.obj
 0001:0004d819       ?fast_check@@YAHHH@Z       1004e819 f   libucrt:_ctype.obj
 0001:0004df2f       ??$common_tox_l@$1?internal_islower_l@@YA_NHQAU__crt_locale_pointers@@@Z$1?internal_map_upper@@YAHH0@Z@@YAHHKQAU__crt_locale_pointers@@@Z 1004ef2f f   libucrt:tolower_toupper.obj
 0001:0004e0cb       ??$common_tox_l@$1?internal_isupper_l@@YA_NHQAU__crt_locale_pointers@@@Z$1?internal_map_lower@@YAHH0@Z@@YAHHKQAU__crt_locale_pointers@@@Z 1004f0cb f   libucrt:tolower_toupper.obj
 0001:0004e267       ?internal_islower_l@@YA_NHQAU__crt_locale_pointers@@@Z 1004f267 f   libucrt:tolower_toupper.obj
 0001:0004e28a       ?internal_isupper_l@@YA_NHQAU__crt_locale_pointers@@@Z 1004f28a f   libucrt:tolower_toupper.obj
 0001:0004e2ad       ?internal_map_lower@@YAHHQAU__crt_locale_pointers@@@Z 1004f2ad f   libucrt:tolower_toupper.obj
 0001:0004e2cc       ?internal_map_upper@@YAHHQAU__crt_locale_pointers@@@Z 1004f2cc f   libucrt:tolower_toupper.obj
 0001:0004f0a1       ??$common_strnlen@$00G@@YAIQBGI@Z 100500a1 f   libucrt:strnlen.obj
 0001:0004f224       ??$common_strnlen@$0A@E@@YAIQBEI@Z 10050224 f   libucrt:strnlen.obj
 0001:0004f389       ??$common_strnlen@$0A@G@@YAIQBGI@Z 10050389 f   libucrt:strnlen.obj
 0001:0004f59c       ??$common_strnlen_c@$00G@@YAIQBGI@Z 1005059c f   libucrt:strnlen.obj
 0001:0004f5bc       ??$common_strnlen_c@$0A@E@@YAIQBEI@Z 100505bc f   libucrt:strnlen.obj
 0001:0004f5e5       ??$common_strnlen_c@$0A@G@@YAIQBGI@Z 100505e5 f   libucrt:strnlen.obj
 0001:0004f615       ??$common_strnlen_simd@$00$00G@@YAIQBGI@Z 10050615 f   libucrt:strnlen.obj
 0001:0004f6c4       ??$common_strnlen_simd@$00$0A@G@@YAIQBGI@Z 100506c4 f   libucrt:strnlen.obj
 0001:0004f771       ??$common_strnlen_simd@$0A@$00E@@YAIQBEI@Z 10050771 f   libucrt:strnlen.obj
 0001:0004f809       ??$common_strnlen_simd@$0A@$00G@@YAIQBGI@Z 10050809 f   libucrt:strnlen.obj
 0001:0004f8fb       ??$common_strnlen_simd@$0A@$0A@E@@YAIQBEI@Z 100508fb f   libucrt:strnlen.obj
 0001:0004f992       ??$common_strnlen_simd@$0A@$0A@G@@YAIQBGI@Z 10050992 f   libucrt:strnlen.obj
 0001:0004fa83       ??$last_reached@$00@@YA_NQBX0@Z 10050a83 f   libucrt:strnlen.obj
 0001:0004fa86       ??$last_reached@$0A@@@YA_NQBX0@Z 10050a86 f   libucrt:strnlen.obj
 0001:00050057       ?fp_format_a@@YAHQBNPADIQADIH_NIQAU__crt_locale_pointers@@@Z 10051057 f   libucrt:cvt.obj
 0001:00050437       ?fp_format_e@@YAHQBNQADI1IH_NIQAU__crt_locale_pointers@@@Z 10051437 f   libucrt:cvt.obj
 0001:00050504       ?fp_format_e_internal@@YAHQADIH_NIQAU_strflt@@1QAU__crt_locale_pointers@@@Z 10051504 f   libucrt:cvt.obj
 0001:000506a0       ?fp_format_f@@YAHQBNQADI1IHQAU__crt_locale_pointers@@@Z 100516a0 f   libucrt:cvt.obj
 0001:00050750       ?fp_format_f_internal@@YAHQADIHQAU_strflt@@_NQAU__crt_locale_pointers@@@Z 10051750 f   libucrt:cvt.obj
 0001:00050857       ?fp_format_g@@YAHQBNQADI1IH_NIQAU__crt_locale_pointers@@@Z 10051857 f   libucrt:cvt.obj
 0001:0005094a       ?fp_format_nan_or_infinity@@YAHW4__acrt_fp_class@@_NPADI1@Z 1005194a f   libucrt:cvt.obj
 0001:00050a7c       ?shift_bytes@@YAXQADI0H@Z  10051a7c f   libucrt:cvt.obj
 0001:00050c56       ?fputwc_binary_nolock@@YAG_WV__crt_stdio_stream@@@Z 10051c56 f   libucrt:fputwc.obj
 0001:000519e4       ?<lambda_invoker_cdecl>@<lambda_601ce2808d07e6dd980fd6da59ab4158>@@CAHPBX0@Z 100529e4 f   libucrt:argv_wildcards.obj
 0001:00051a02       ?<lambda_invoker_cdecl>@<lambda_86056e3c024bff449830248dc1621ed2>@@CAHPBX0@Z 10052a02 f   libucrt:argv_wildcards.obj
 0001:00051a20       ??$common_expand_argv_wildcards@D@@YAHQAPADQAPAPAD@Z 10052a20 f   libucrt:argv_wildcards.obj
 0001:00051c8d       ??$common_expand_argv_wildcards@_W@@YAHQAPA_WQAPAPA_W@Z 10052c8d f   libucrt:argv_wildcards.obj
 0001:00051f46       ??$copy_and_add_argument_to_buffer@D@@YAHQBD0IAAV?$argument_list@D@?A0x5f5c8891@@@Z 10052f46 f   libucrt:argv_wildcards.obj
 0001:00052025       ??$copy_and_add_argument_to_buffer@_W@@YAHQB_W0IAAV?$argument_list@_W@?A0x5f5c8891@@@Z 10053025 f   libucrt:argv_wildcards.obj
 0001:00052108       ??$expand_argument_wildcards@D@@YAHQAD0AAV?$argument_list@D@?A0x5f5c8891@@@Z 10053108 f   libucrt:argv_wildcards.obj
 0001:000522e8       ??$expand_argument_wildcards@_W@@YAHQA_W0AAV?$argument_list@_W@?A0x5f5c8891@@@Z 100532e8 f   libucrt:argv_wildcards.obj
 0001:000526c8       ??0?$argument_list@D@?A0x5f5c8891@@QAE@XZ 100536c8 f   libucrt:argv_wildcards.obj
 0001:000526d8       ??0?$argument_list@_W@?A0x5f5c8891@@QAE@XZ 100536d8 f   libucrt:argv_wildcards.obj
 0001:00052704       ??1?$argument_list@D@?A0x5f5c8891@@QAE@XZ 10053704 f   libucrt:argv_wildcards.obj
 0001:00052737       ??1?$argument_list@_W@?A0x5f5c8891@@QAE@XZ 10053737 f   libucrt:argv_wildcards.obj
 0001:0005276a       ??B<lambda_601ce2808d07e6dd980fd6da59ab4158>@@QBEP6AHPBX0@ZXZ 1005376a f   libucrt:argv_wildcards.obj
 0001:00052770       ??B<lambda_86056e3c024bff449830248dc1621ed2>@@QBEP6AHPBX0@ZXZ 10053770 f   libucrt:argv_wildcards.obj
 0001:00052776       ??R<lambda_594f614a8947934b886943aa86a6498d>@@QBE_ND@Z 10053776 f   libucrt:argv_wildcards.obj
 0001:0005279b       ??R<lambda_601ce2808d07e6dd980fd6da59ab4158>@@QBEHPBX0@Z 1005379b f   libucrt:argv_wildcards.obj
 0001:000527bb       ??R<lambda_86056e3c024bff449830248dc1621ed2>@@QBEHPBX0@Z 100537bb f   libucrt:argv_wildcards.obj
 0001:000527db       ??R<lambda_d734a73e0f649ebd9d9b0eca0b8ca86a>@@QBE_N_W@Z 100537db f   libucrt:argv_wildcards.obj
 0001:00052808       ?append@?$argument_list@D@?A0x5f5c8891@@QAEHQAD@Z 10053808 f   libucrt:argv_wildcards.obj
 0001:0005284a       ?append@?$argument_list@_W@?A0x5f5c8891@@QAEHQA_W@Z 1005384a f   libucrt:argv_wildcards.obj
 0001:0005288c       ?begin@?$argument_list@D@?A0x5f5c8891@@QBEPAPADXZ 1005388c f   libucrt:argv_wildcards.obj
 0001:0005288f       ?begin@?$argument_list@_W@?A0x5f5c8891@@QBEPAPA_WXZ 1005388f f   libucrt:argv_wildcards.obj
 0001:000528c8       ?end@?$argument_list@D@?A0x5f5c8891@@QBEPAPADXZ 100538c8 f   libucrt:argv_wildcards.obj
 0001:000528cc       ?end@?$argument_list@_W@?A0x5f5c8891@@QBEPAPA_WXZ 100538cc f   libucrt:argv_wildcards.obj
 0001:000528d0       ?expand_if_necessary@?$argument_list@D@?A0x5f5c8891@@AAEHXZ 100538d0 f   libucrt:argv_wildcards.obj
 0001:00052978       ?expand_if_necessary@?$argument_list@_W@?A0x5f5c8891@@AAEHXZ 10053978 f   libucrt:argv_wildcards.obj
 0001:00052a27       ?previous_character@@YAPADQAD0@Z 10053a27 f   libucrt:argv_wildcards.obj
 0001:00052a34       ?previous_character@@YAPA_WPA_WQA_W@Z 10053a34 f   libucrt:argv_wildcards.obj
 0001:00052a44       ?size@?$argument_list@D@?A0x5f5c8891@@QBEIXZ 10053a44 f   libucrt:argv_wildcards.obj
 0001:00052a4f       ?size@?$argument_list@_W@?A0x5f5c8891@@QBEIXZ 10053a4f f   libucrt:argv_wildcards.obj
 0001:00052a8e       ??$?RV<lambda_ceb1ee4838e85a9d631eb091e2fbe199>@@AAV<lambda_ae742caa10f662c28703da3d2ea5e57e>@@V<lambda_cd08b5d6af4937fe54fc07d0c9bf6b37>@@@?$__crt_seh_guarded_call@X@@QAEX$$QAV<lambda_ceb1ee4838e85a9d631eb091e2fbe199>@@AAV<lambda_ae742caa10f662c28703da3d2ea5e57e>@@$$QAV<lambda_cd08b5d6af4937fe54fc07d0c9bf6b37>@@@Z 10053a8e f   libucrt:mbctype.obj
 0001:00052ae1       ??$__acrt_lock_and_call@V<lambda_ae742caa10f662c28703da3d2ea5e57e>@@@@YAXW4__acrt_lock_id@@$$QAV<lambda_ae742caa10f662c28703da3d2ea5e57e>@@@Z 10053ae1 f   libucrt:mbctype.obj
 0001:00052b37       ??0<lambda_ae742caa10f662c28703da3d2ea5e57e>@@QAE@ABQAU__acrt_ptd@@ABQAPAU__crt_multibyte_data@@@Z 10053b37 f   libucrt:mbctype.obj
 0001:00052b52       ??0<lambda_cd08b5d6af4937fe54fc07d0c9bf6b37>@@QAE@ABW4__acrt_lock_id@@@Z 10053b52 f   libucrt:mbctype.obj
 0001:00052b68       ??0<lambda_ceb1ee4838e85a9d631eb091e2fbe199>@@QAE@ABW4__acrt_lock_id@@@Z 10053b68 f   libucrt:mbctype.obj
 0001:00052b7e       ??R<lambda_ae742caa10f662c28703da3d2ea5e57e>@@QBEXXZ 10053b7e f   libucrt:mbctype.obj
 0001:00052c21       ??R<lambda_cd08b5d6af4937fe54fc07d0c9bf6b37>@@QBEXXZ 10053c21 f   libucrt:mbctype.obj
 0001:00052c2c       ??R<lambda_ceb1ee4838e85a9d631eb091e2fbe199>@@QBEXXZ 10053c2c f   libucrt:mbctype.obj
 0001:00052c37       ?CPtoLocaleName@@YAPB_WH@Z 10053c37 f   libucrt:mbctype.obj
 0001:00052c8a       ?getSystemCP@@YAHH@Z       10053c8a f   libucrt:mbctype.obj
 0001:00052d48       ?setSBCS@@YAXPAU__crt_multibyte_data@@@Z 10053d48 f   libucrt:mbctype.obj
 0001:00052dc6       ?setSBUpLow@@YAXPAU__crt_multibyte_data@@@Z 10053dc6 f   libucrt:mbctype.obj
 0001:00052fec       ?setmbcp_internal@@YAHH_NQAU__acrt_ptd@@QAPAU__crt_multibyte_data@@@Z 10053fec f   libucrt:mbctype.obj
 0001:0005314d       ?update_thread_multibyte_data_internal@@YAPAU__crt_multibyte_data@@QAU__acrt_ptd@@QAPAU1@@Z 1005414d f   libucrt:mbctype.obj
 0001:0005356a       _memcpy_s                  1005456a f   libucrt:mbctype.obj
 0001:0005360b       ?x_ismbbtype_l@@YAHPAU__crt_locale_pointers@@IHH@Z 1005460b f   libucrt:ismbbyte.obj
 0001:00053a92       ?filter_wcstomb_flags@@YAKIK@Z 10054a92 f   libucrt:widechartomultibyte.obj
 0001:00053be8       ??0?$__crt_unique_handle_t@Uenvironment_strings_traits@?A0x1bf47908@@@@QAE@QA_W@Z 10054be8 f   libucrt:get_environment_from_os.obj
 0001:00053bfc       ??1?$__crt_unique_handle_t@Uenvironment_strings_traits@?A0x1bf47908@@@@QAE@XZ 10054bfc f   libucrt:get_environment_from_os.obj
 0001:00053c18       ??B?$__crt_unique_handle_t@Uenvironment_strings_traits@?A0x1bf47908@@@@QBE_NXZ 10054c18 f   libucrt:get_environment_from_os.obj
 0001:00053c1f       ?close@?$__crt_unique_handle_t@Uenvironment_strings_traits@?A0x1bf47908@@@@QAEXXZ 10054c1f f   libucrt:get_environment_from_os.obj
 0001:00053c3b       ?close@environment_strings_traits@?A0x1bf47908@@SA_NPA_W@Z 10054c3b f   libucrt:get_environment_from_os.obj
 0001:00053c51       ?find_end_of_double_null_terminated_sequence@@YAPB_WQB_W@Z 10054c51 f   libucrt:get_environment_from_os.obj
 0001:00053c95       ?get@?$__crt_unique_handle_t@Uenvironment_strings_traits@?A0x1bf47908@@@@QBEPA_WXZ 10054c95 f   libucrt:get_environment_from_os.obj
 0001:00053c98       ?get_invalid_value@environment_strings_traits@?A0x1bf47908@@SAPA_WXZ 10054c98 f   libucrt:get_environment_from_os.obj
 0001:00053c9b       ?is_valid@?$__crt_unique_handle_t@Uenvironment_strings_traits@?A0x1bf47908@@@@QBE_NXZ 10054c9b f   libucrt:get_environment_from_os.obj
 0001:00053dad       ??$common_set_variable_in_environment_nolock@D@@YAHQADH@Z 10054dad f   libucrt:setenv.obj
 0001:0005407d       ??$common_set_variable_in_environment_nolock@_W@@YAHQA_WH@Z 1005507d f   libucrt:setenv.obj
 0001:00054367       ??$copy_environment@D@@YAPAPADQAPAD@Z 10055367 f   libucrt:setenv.obj
 0001:00054445       ??$copy_environment@_W@@YAPAPA_WQAPA_W@Z 10055445 f   libucrt:setenv.obj
 0001:00054535       ??$ensure_current_environment_is_not_initial_environment_nolock@D@@YAXXZ 10055535 f   libucrt:setenv.obj
 0001:00054555       ??$ensure_current_environment_is_not_initial_environment_nolock@_W@@YAXXZ 10055555 f   libucrt:setenv.obj
 0001:00054575       ??$find_in_environment_nolock@D@@YAHQBDI@Z 10055575 f   libucrt:setenv.obj
 0001:000545df       ??$find_in_environment_nolock@_W@@YAHQB_WI@Z 100555df f   libucrt:setenv.obj
 0001:000547b4       ?get_environment@@YAAAPAPADD@Z 100557b4 f   libucrt:setenv.obj
 0001:000547ba       ?get_environment@@YAAAPAPA_W_W@Z 100557ba f   libucrt:setenv.obj
 0001:000547c0       ?get_initial_environment@@YAAAPAPADD@Z 100557c0 f   libucrt:setenv.obj
 0001:000547c6       ?get_initial_environment@@YAAAPAPA_W_W@Z 100557c6 f   libucrt:setenv.obj
 0001:000547cc       ?get_other_environment@@YAAAPAPAD_W@Z 100557cc f   libucrt:setenv.obj
 0001:000547d2       ?get_other_environment@@YAAAPAPA_WD@Z 100557d2 f   libucrt:setenv.obj
 0001:00054e29       ??$common_tcsncpy_s@_W@@YAHQA_WIQB_WI@Z 10055e29 f   libucrt:wcsncpy_s.obj
 0001:00054f35       ?_mbstowcs_l_helper@@YAIPA_WPBDIPAU__crt_locale_pointers@@@Z 10055f35 f   libucrt:mbstowcs.obj
 0001:00055353       ??$?RV<lambda_9e9de3de5fa147e2223d7db92bc10aa6>@@AAV<lambda_38ce7e780aa69e748d6df282ebc68efe>@@V<lambda_8ca6da459f0f6780f1cff60fdc3d00e5>@@@?$__crt_seh_guarded_call@H@@QAEH$$QAV<lambda_9e9de3de5fa147e2223d7db92bc10aa6>@@AAV<lambda_38ce7e780aa69e748d6df282ebc68efe>@@$$QAV<lambda_8ca6da459f0f6780f1cff60fdc3d00e5>@@@Z 10056353 f   libucrt:commit.obj
 0001:00055411       ??$__acrt_lowio_lock_fh_and_call@V<lambda_38ce7e780aa69e748d6df282ebc68efe>@@@@YAHH$$QAV<lambda_38ce7e780aa69e748d6df282ebc68efe>@@@Z 10056411 f   libucrt:commit.obj
 0001:00055443       ??0<lambda_38ce7e780aa69e748d6df282ebc68efe>@@QAE@ABH@Z 10056443 f   libucrt:commit.obj
 0001:00055457       ??0<lambda_8ca6da459f0f6780f1cff60fdc3d00e5>@@QAE@ABH@Z 10056457 f   libucrt:commit.obj
 0001:0005546d       ??0<lambda_9e9de3de5fa147e2223d7db92bc10aa6>@@QAE@ABH@Z 1005646d f   libucrt:commit.obj
 0001:00055483       ??R<lambda_38ce7e780aa69e748d6df282ebc68efe>@@QBEHXZ 10056483 f   libucrt:commit.obj
 0001:000554ed       ??R<lambda_8ca6da459f0f6780f1cff60fdc3d00e5>@@QBEXXZ 100564ed f   libucrt:commit.obj
 0001:000554f8       ??R<lambda_9e9de3de5fa147e2223d7db92bc10aa6>@@QBEXXZ 100564f8 f   libucrt:commit.obj
 0001:000555a1       ?GetTableIndexFromLcid@@YAHK@Z 100565a1 f   libucrt:lcidtoname_downlevel.obj
 0001:000555e5       ?GetTableIndexFromLocaleName@@YAHPB_W@Z 100565e5 f   libucrt:lcidtoname_downlevel.obj
 0001:000556c6       ?__wcsnicmp_ascii@@YAHPB_W0I@Z 100566c6 f   libucrt:lcidtoname_downlevel.obj
 0001:000562bf       ??$__acrt_convert_wcs_mbs_cp@D_WV<lambda_62f6974d9771e494a5ea317cc32e971c>@@U__crt_win32_buffer_internal_dynamic_resizing@@@@YAHQBDAAV?$__crt_win32_buffer@_WU__crt_win32_buffer_internal_dynamic_resizing@@@@ABV<lambda_62f6974d9771e494a5ea317cc32e971c>@@I@Z 100572bf f   libucrt:open.obj
 0001:00056365       ??$common_open@D@@YAHQBDHH@Z 10057365 f   libucrt:open.obj
 0001:00056439       ??$common_open@_W@@YAHQB_WHH@Z 10057439 f   libucrt:open.obj
 0001:0005650d       ??$common_sopen_dispatch@D@@YAHQBDHHHQAHH@Z 1005750d f   libucrt:open.obj
 0001:000565f1       ??$common_sopen_dispatch@_W@@YAHQB_WHHHQAHH@Z 100575f1 f   libucrt:open.obj
 0001:000567cd       ??R<lambda_62f6974d9771e494a5ea317cc32e971c>@@QBEHIQBDQA_WI@Z 100577cd f   libucrt:open.obj
 0001:000567f6       ?configure_text_mode@@YAHHUfile_options@?A0xa9d50aae@@HAAW4__crt_lowio_text_mode@@@Z 100577f6 f   libucrt:open.obj
 0001:00056ad1       ?create_file@@YAPAXQB_WQAU_SECURITY_ATTRIBUTES@@Ufile_options@?A0xa9d50aae@@@Z 10057ad1 f   libucrt:open.obj
 0001:00056aff       ?decode_access_flags@@YAKH@Z 10057aff f   libucrt:open.obj
 0001:00056b7a       ?decode_open_create_flags@@YAKH@Z 10057b7a f   libucrt:open.obj
 0001:00056c06       ?decode_options@@YA?AUfile_options@?A0xa9d50aae@@HHH@Z 10057c06 f   libucrt:open.obj
 0001:00056de1       ?decode_sharing_flags@@YAKHH@Z 10057de1 f   libucrt:open.obj
 0001:00056e4b       ?is_text_mode@@YA_NH@Z     10057e4b f   libucrt:open.obj
 0001:00056ea5       ?truncate_ctrl_z_if_present@@YAHH@Z 10057ea5 f   libucrt:open.obj
 0001:0005760e       ??$?RV<lambda_f828341fbe69b7c0d4c527b01f22877f>@@AAV<lambda_9e0b6ab72a5b3ae37ad997d08b519f50>@@V<lambda_f01deac0a8d65d6e0411edf7e0af5775>@@@?$__crt_seh_guarded_call@G@@QAEG$$QAV<lambda_f828341fbe69b7c0d4c527b01f22877f>@@AAV<lambda_9e0b6ab72a5b3ae37ad997d08b519f50>@@$$QAV<lambda_f01deac0a8d65d6e0411edf7e0af5775>@@@Z 1005860e f   libucrt:putwch.obj
 0001:00057683       ??$__acrt_lock_and_call@V<lambda_9e0b6ab72a5b3ae37ad997d08b519f50>@@@@YAGW4__acrt_lock_id@@$$QAV<lambda_9e0b6ab72a5b3ae37ad997d08b519f50>@@@Z 10058683 f   libucrt:putwch.obj
 0001:000576b5       ??0<lambda_9e0b6ab72a5b3ae37ad997d08b519f50>@@QAE@AB_W@Z 100586b5 f   libucrt:putwch.obj
 0001:000576c9       ??0<lambda_f01deac0a8d65d6e0411edf7e0af5775>@@QAE@ABW4__acrt_lock_id@@@Z 100586c9 f   libucrt:putwch.obj
 0001:000576df       ??0<lambda_f828341fbe69b7c0d4c527b01f22877f>@@QAE@ABW4__acrt_lock_id@@@Z 100586df f   libucrt:putwch.obj
 0001:000576f5       ??R<lambda_9e0b6ab72a5b3ae37ad997d08b519f50>@@QBEGXZ 100586f5 f   libucrt:putwch.obj
 0001:00057705       ??R<lambda_f01deac0a8d65d6e0411edf7e0af5775>@@QBEXXZ 10058705 f   libucrt:putwch.obj
 0001:00057710       ??R<lambda_f828341fbe69b7c0d4c527b01f22877f>@@QBEXXZ 10058710 f   libucrt:putwch.obj
 0001:00058924       _fix_grouping              10059924 f   libucrt:initmon.obj
 0001:00058c82       _fix_grouping              10059c82 f   libucrt:initnum.obj
 0001:00058cde       ??$free_crt_array@D$01@@YAXAAY01PAD@Z 10059cde f   libucrt:inittime.obj
 0001:00058cf5       ??$free_crt_array@D$06@@YAXAAY06PAD@Z 10059cf5 f   libucrt:inittime.obj
 0001:00058d0c       ??$free_crt_array@D$0M@@@YAXAAY0M@PAD@Z 10059d0c f   libucrt:inittime.obj
 0001:00058d23       ??$free_crt_array@_W$01@@YAXAAY01PA_W@Z 10059d23 f   libucrt:inittime.obj
 0001:00058d3a       ??$free_crt_array@_W$06@@YAXAAY06PA_W@Z 10059d3a f   libucrt:inittime.obj
 0001:00058d51       ??$free_crt_array@_W$0M@@@YAXAAY0M@PA_W@Z 10059d51 f   libucrt:inittime.obj
 0001:00058d9f       ?free_crt_array_internal@@YAXQAPBXI@Z 10059d9f f   libucrt:inittime.obj
 0001:00058de8       ?get_or_create_lc_time@@YAPBU__crt_lc_time_data@@QAU__crt_locale_data@@@Z 10059de8 f   libucrt:inittime.obj
 0001:00058e61       ?initialize_lc_time@@YA_NQAU__crt_lc_time_data@@QAU__crt_locale_data@@@Z 10059e61 f   libucrt:inittime.obj
 0001:000597be       _GetLocaleNameFromDefault  1005a7be f   libucrt:get_qualified_locale.obj
 0001:00059869       _GetLocaleNameFromLangCountry 1005a869 f   libucrt:get_qualified_locale.obj
 0001:00059929       _GetLocaleNameFromLanguage 1005a929 f   libucrt:get_qualified_locale.obj
 0001:0005999a       _GetPrimaryLen             1005a99a f   libucrt:get_qualified_locale.obj
 0001:000599db       _LangCountryEnumProcEx@12  1005a9db f   libucrt:get_qualified_locale.obj
 0001:00059d88       _LanguageEnumProcEx@12     1005ad88 f   libucrt:get_qualified_locale.obj
 0001:00059e79       _ProcessCodePage           1005ae79 f   libucrt:get_qualified_locale.obj
 0001:00059faf       _TestDefaultCountry        1005afaf f   libucrt:get_qualified_locale.obj
 0001:0005a00c       _TestDefaultLanguage       1005b00c f   libucrt:get_qualified_locale.obj
 0001:0005a063       _TranslateName             1005b063 f   libucrt:get_qualified_locale.obj
 0001:0005a369       _CountryEnumProc@4         1005b369 f   libucrt:getqloc_downlevel.obj
 0001:0005a43c       _GetLcidFromCountry        1005b43c f   libucrt:getqloc_downlevel.obj
 0001:0005a499       _GetLcidFromDefault        1005b499 f   libucrt:getqloc_downlevel.obj
 0001:0005a4be       _GetLcidFromLangCountry    1005b4be f   libucrt:getqloc_downlevel.obj
 0001:0005a57f       _GetLcidFromLanguage       1005b57f f   libucrt:getqloc_downlevel.obj
 0001:0005a5f8       _GetPrimaryLen             1005b5f8 f   libucrt:getqloc_downlevel.obj
 0001:0005a62f       _LangCountryEnumProc@4     1005b62f f   libucrt:getqloc_downlevel.obj
 0001:0005a91a       _LanguageEnumProc@4        1005b91a f   libucrt:getqloc_downlevel.obj
 0001:0005aa26       _LcidFromHexString         1005ba26 f   libucrt:getqloc_downlevel.obj
 0001:0005aa8b       _ProcessCodePage           1005ba8b f   libucrt:getqloc_downlevel.obj
 0001:0005aba6       _TestDefaultCountry        1005bba6 f   libucrt:getqloc_downlevel.obj
 0001:0005abd4       _TestDefaultLanguage       1005bbd4 f   libucrt:getqloc_downlevel.obj
 0001:0005ac60       _TranslateName             1005bc60 f   libucrt:getqloc_downlevel.obj
 0001:0005b327       ?__acrt_LCMapStringA_stat@@YAHPAU__crt_locale_pointers@@PB_WKPBDHPADHHH@Z 1005c327 f   libucrt:lcmapstringa.obj
 0001:0005b5eb       ??R<lambda_0f007d4f94c691a9a85cf1869a09f0c3>@@QBEIPBD@Z 1005c5eb f   libucrt:mbrtowc.obj
 0001:0005b7b0       ?_mbrtowc_s_l@@YAHPAHPA_WPBDIPAU_Mbstatet@@PAU__crt_locale_pointers@@@Z 1005c7b0 f   libucrt:mbrtowc.obj
 0001:0005ba1a       ?_mbsrtowcs_helper@@YAIPA_WPAPBDIPAU_Mbstatet@@@Z 1005ca1a f   libucrt:mbrtowc.obj
 0001:0005be71       ??$convert_to_fos_high_precision@N@@YAXNIQAHQADI@Z 1005ce71 f   libucrt:cfout.obj
 0001:0005d6eb       ??0scoped_fp_state_reset@?A0x71ca7cfb@@QAE@XZ 1005e6eb f   libucrt:cfout.obj
 0001:0005d722       ??1scoped_fp_state_reset@?A0x71ca7cfb@@QAE@XZ 1005e722 f   libucrt:cfout.obj
 0001:00060525       _memcpy_s                  10061525 f   libucrt:cfout.obj
 0001:000605f0       ?shortsort@@YAXPAD0IP6AHPBX1@Z@Z 100615f0 f   libucrt:qsort.obj
 0001:000606b0       ?swap@@YAXPAD0I@Z          100616b0 f   libucrt:qsort.obj
 0001:00060c55       ??$common_tcsncpy_s@D@@YAHQADIQBDI@Z 10061c55 f   libucrt:strncpy_s.obj
 0001:00060d40       $$000000                   10061d40     libucrt:strpbrk.obj
 0001:00061352       ?initialize_multibyte@@YAHXZ 10062352 f   libucrt:multibyte_initializer.obj
 0001:00061940       $$000000                   10062940     libucrt:_strnicm.obj
 0001:00061c9b       ??$?RV<lambda_3b12a17125e8c5b5e6e6f6c6050db0c1>@@AAV<lambda_522ac1b1e1a1180d6f374a882b81d1c8>@@V<lambda_e92b96cac182f562f30acc9fb7872857>@@@?$__crt_seh_guarded_call@H@@QAEH$$QAV<lambda_3b12a17125e8c5b5e6e6f6c6050db0c1>@@AAV<lambda_522ac1b1e1a1180d6f374a882b81d1c8>@@$$QAV<lambda_e92b96cac182f562f30acc9fb7872857>@@@Z 10062c9b f   libucrt:chsize.obj
 0001:00061d45       ??$__acrt_lowio_lock_fh_and_call@V<lambda_522ac1b1e1a1180d6f374a882b81d1c8>@@@@YAHH$$QAV<lambda_522ac1b1e1a1180d6f374a882b81d1c8>@@@Z 10062d45 f   libucrt:chsize.obj
 0001:00061d77       ??0<lambda_3b12a17125e8c5b5e6e6f6c6050db0c1>@@QAE@ABH@Z 10062d77 f   libucrt:chsize.obj
 0001:00061d8d       ??0<lambda_522ac1b1e1a1180d6f374a882b81d1c8>@@QAE@ABHAB_J@Z 10062d8d f   libucrt:chsize.obj
 0001:00061da8       ??0<lambda_e92b96cac182f562f30acc9fb7872857>@@QAE@ABH@Z 10062da8 f   libucrt:chsize.obj
 0001:00061dbe       ??R<lambda_3b12a17125e8c5b5e6e6f6c6050db0c1>@@QBEXXZ 10062dbe f   libucrt:chsize.obj
 0001:00061dc9       ??R<lambda_522ac1b1e1a1180d6f374a882b81d1c8>@@QBEHXZ 10062dc9 f   libucrt:chsize.obj
 0001:00061e1c       ??R<lambda_e92b96cac182f562f30acc9fb7872857>@@QBEXXZ 10062e1c f   libucrt:chsize.obj
 0001:0006218e       ??$console_output_reopen_and_retry@V<lambda_61c1b8a38cedca4df5fdc542e6ccae6d>@@@@YAHABV<lambda_61c1b8a38cedca4df5fdc542e6ccae6d>@@@Z 1006318e f   libucrt:initcon.obj
 0001:000621fc       ??0<lambda_61c1b8a38cedca4df5fdc542e6ccae6d>@@QAE@ABQBXABKABQAK@Z 100631fc f   libucrt:initcon.obj
 0001:00062226       ??R<lambda_61c1b8a38cedca4df5fdc542e6ccae6d>@@QBEHXZ 10063226 f   libucrt:initcon.obj
 0001:00062242       ?__dcrt_lowio_initialize_console_output@@YAXXZ 10063242 f   libucrt:initcon.obj
 0001:00062314       ?InternalGetLocaleInfoA@@YAHQAU__crt_locale_pointers@@QB_WKQADH@Z 10063314 f   libucrt:getlocaleinfoa.obj
 0001:000629d0       $$000000                   100639d0     libucrt:log10_impl.obj
 0001:00062b30       $$000000                   10063b30     libucrt:ceil_pentium4.obj
 0001:00062e45       ?_wcstombs_l_helper@@YAIPADPB_WIPAU__crt_locale_pointers@@@Z 10063e45 f   libucrt:wcstombs.obj
 0001:00063198       ?wcsncnt@@YAIPB_WI@Z       10064198 f   libucrt:wcstombs.obj
 0001:000633af       ?InternalCompareStringA@@YAHPAU__crt_locale_pointers@@PB_WKPBDH2HH@Z 100643af f   libucrt:comparestringa.obj
 0001:000638a9       ??$to_abstract_status@W4__acrt_fenv_machine_sse_status@@@@YA?AW4__acrt_fenv_abstract_status@@W4__acrt_fenv_machine_sse_status@@@Z 100648a9 f   libucrt:_fenvutils.obj
 0001:0006390d       ??$to_abstract_status@W4__acrt_fenv_machine_x87_status@@@@YA?AW4__acrt_fenv_abstract_status@@W4__acrt_fenv_machine_x87_status@@@Z 1006490d f   libucrt:_fenvutils.obj
 0001:00063971       ??$translate_control_exception_mask@W4__acrt_fenv_abstract_control@@W4__acrt_fenv_machine_sse_control@@@@YA?AW4__acrt_fenv_abstract_control@@W4__acrt_fenv_machine_sse_control@@@Z 10064971 f   libucrt:_fenvutils.obj
 0001:000639d6       ??$translate_control_exception_mask@W4__acrt_fenv_abstract_control@@W4__acrt_fenv_machine_x87_control@@@@YA?AW4__acrt_fenv_abstract_control@@W4__acrt_fenv_machine_x87_control@@@Z 100649d6 f   libucrt:_fenvutils.obj
 0001:00063a3a       ??$translate_control_exception_mask@W4__acrt_fenv_machine_sse_control@@W4__acrt_fenv_abstract_control@@@@YA?AW4__acrt_fenv_machine_sse_control@@W4__acrt_fenv_abstract_control@@@Z 10064a3a f   libucrt:_fenvutils.obj
 0001:00063ae5       ??$translate_control_exception_mask@W4__acrt_fenv_machine_x87_control@@W4__acrt_fenv_abstract_control@@@@YA?AW4__acrt_fenv_machine_x87_control@@W4__acrt_fenv_abstract_control@@@Z 10064ae5 f   libucrt:_fenvutils.obj
 0001:00063b68       ??$translate_control_infinity_control@W4__acrt_fenv_abstract_control@@W4__acrt_fenv_machine_x87_control@@@@YA?AW4__acrt_fenv_abstract_control@@W4__acrt_fenv_machine_x87_control@@@Z 10064b68 f   libucrt:_fenvutils.obj
 0001:00063b7f       ??$translate_control_infinity_control@W4__acrt_fenv_machine_x87_control@@W4__acrt_fenv_abstract_control@@@@YA?AW4__acrt_fenv_machine_x87_control@@W4__acrt_fenv_abstract_control@@@Z 10064b7f f   libucrt:_fenvutils.obj
 0001:00063b9e       ??$translate_control_precision_control@W4__acrt_fenv_abstract_control@@W4__acrt_fenv_machine_x87_control@@@@YA?AW4__acrt_fenv_abstract_control@@W4__acrt_fenv_machine_x87_control@@@Z 10064b9e f   libucrt:_fenvutils.obj
 0001:00063bd0       ??$translate_control_precision_control@W4__acrt_fenv_machine_x87_control@@W4__acrt_fenv_abstract_control@@@@YA?AW4__acrt_fenv_machine_x87_control@@W4__acrt_fenv_abstract_control@@@Z 10064bd0 f   libucrt:_fenvutils.obj
 0001:00063c02       ??$translate_control_rounding_control@W4__acrt_fenv_abstract_control@@W4__acrt_fenv_machine_sse_control@@@@YA?AW4__acrt_fenv_abstract_control@@W4__acrt_fenv_machine_sse_control@@@Z 10064c02 f   libucrt:_fenvutils.obj
 0001:00063c4d       ??$translate_control_rounding_control@W4__acrt_fenv_abstract_control@@W4__acrt_fenv_machine_x87_control@@@@YA?AW4__acrt_fenv_abstract_control@@W4__acrt_fenv_machine_x87_control@@@Z 10064c4d f   libucrt:_fenvutils.obj
 0001:00063c98       ??$translate_control_rounding_control@W4__acrt_fenv_machine_sse_control@@W4__acrt_fenv_abstract_control@@@@YA?AW4__acrt_fenv_machine_sse_control@@W4__acrt_fenv_abstract_control@@@Z 10064c98 f   libucrt:_fenvutils.obj
 0001:00063ce3       ??$translate_control_rounding_control@W4__acrt_fenv_machine_x87_control@@W4__acrt_fenv_abstract_control@@@@YA?AW4__acrt_fenv_machine_x87_control@@W4__acrt_fenv_abstract_control@@@Z 10064ce3 f   libucrt:_fenvutils.obj
 0001:00063d2e       ??$translate_status@W4__acrt_fenv_abstract_status@@W4__acrt_fenv_machine_sse_status@@@@YA?AW4__acrt_fenv_abstract_status@@W4__acrt_fenv_machine_sse_status@@@Z 10064d2e f   libucrt:_fenvutils.obj
 0001:00063d92       ??$translate_status@W4__acrt_fenv_abstract_status@@W4__acrt_fenv_machine_x87_status@@@@YA?AW4__acrt_fenv_abstract_status@@W4__acrt_fenv_machine_x87_status@@@Z 10064d92 f   libucrt:_fenvutils.obj
 0001:00063df6       ??$translate_status@W4__acrt_fenv_machine_sse_status@@W4__acrt_fenv_abstract_status@@@@YA?AW4__acrt_fenv_machine_sse_status@@W4__acrt_fenv_abstract_status@@@Z 10064df6 f   libucrt:_fenvutils.obj
 0001:00063e5a       ??$translate_status@W4__acrt_fenv_machine_x87_status@@W4__acrt_fenv_abstract_status@@@@YA?AW4__acrt_fenv_machine_x87_status@@W4__acrt_fenv_abstract_status@@@Z 10064e5a f   libucrt:_fenvutils.obj
 0001:000640b4       ?get_machine_sse_control@@YA?AW4__acrt_fenv_machine_sse_control@@XZ 100650b4 f   libucrt:_fenvutils.obj
 0001:000640df       ?get_machine_sse_status@@YA?AW4__acrt_fenv_machine_sse_status@@XZ 100650df f   libucrt:_fenvutils.obj
 0001:00064108       ?get_machine_x87_control@@YA?AW4__acrt_fenv_machine_x87_control@@XZ 10065108 f   libucrt:_fenvutils.obj
 0001:00064137       ?get_machine_x87_status@@YA?AW4__acrt_fenv_machine_x87_status@@XZ 10065137 f   libucrt:_fenvutils.obj
 0001:00064157       ?set_machine_sse_control@@YAXW4__acrt_fenv_machine_sse_control@@@Z 10065157 f   libucrt:_fenvutils.obj
 0001:00064194       ?set_machine_sse_status@@YAXW4__acrt_fenv_machine_sse_status@@@Z 10065194 f   libucrt:_fenvutils.obj
 0001:000641cb       ?set_machine_x87_control@@YAXW4__acrt_fenv_machine_x87_control@@@Z 100651cb f   libucrt:_fenvutils.obj
 0001:00064207       ?set_machine_x87_status@@YAXW4__acrt_fenv_machine_x87_status@@@Z 10065207 f   libucrt:_fenvutils.obj
 0001:00064240       ?to_abstract_control@@YA?AW4__acrt_fenv_abstract_control@@W4__acrt_fenv_machine_sse_control@@@Z 10065240 f   libucrt:_fenvutils.obj
 0001:0006432b       ?to_abstract_control@@YA?AW4__acrt_fenv_abstract_control@@W4__acrt_fenv_machine_x87_control@@@Z 1006532b f   libucrt:_fenvutils.obj
 0001:00064417       ?to_machine_sse_control@@YA?AW4__acrt_fenv_machine_sse_control@@W4__acrt_fenv_abstract_control@@@Z 10065417 f   libucrt:_fenvutils.obj
 0001:000644d0       ?to_machine_sse_status@@YA?AW4__acrt_fenv_machine_sse_status@@W4__acrt_fenv_abstract_status@@@Z 100654d0 f   libucrt:_fenvutils.obj
 0001:0006453a       ?to_machine_x87_control@@YA?AW4__acrt_fenv_machine_x87_control@@W4__acrt_fenv_abstract_control@@@Z 1006553a f   libucrt:_fenvutils.obj
 0001:0006465e       ?to_machine_x87_status@@YA?AW4__acrt_fenv_machine_x87_status@@W4__acrt_fenv_abstract_status@@@Z 1006565e f   libucrt:_fenvutils.obj
 0001:000646c8       ?translate_control_denormal_control_from_sse@@YA?AW4__acrt_fenv_abstract_control@@W4__acrt_fenv_machine_sse_control@@@Z 100656c8 f   libucrt:_fenvutils.obj
 0001:00064711       ?translate_control_denormal_control_to_sse@@YA?AW4__acrt_fenv_machine_sse_control@@W4__acrt_fenv_abstract_control@@@Z 10065711 f   libucrt:_fenvutils.obj
 0001:00064b33       ___abstract_cw_sse2        10065b33 f   libucrt:ieee87.obj
 0001:00064c07       ___abstract_sw_sse2        10065c07 f   libucrt:ieee87.obj
 0001:00064c5a       ___clearfp_sse2            10065c5a f   libucrt:ieee87.obj
 0001:000650b2       ___control87_sse2          100660b2 f   libucrt:ieee87.obj
 0001:000652a3       ___hw_cw_sse2              100662a3 f   libucrt:ieee87.obj
 0001:00065373       ___statusfp_sse2           10066373 f   libucrt:ieee87.obj
 0001:000653c4       __abstract_cw              100663c4 f   libucrt:ieee87.obj
 0001:0006548a       __abstract_sw              1006648a f   libucrt:ieee87.obj
 0001:00065a11       __hw_cw                    10066a11 f   libucrt:ieee87.obj
 0001:00065cf0       $$000000                   10066cf0     libucrt:log10_pentium4.obj
 0001:00066030       $$000000                   10067030     libucrt:87tran.obj
 0001:000662c0       $$000000                   100672c0     libucrt:87disp.obj
 0001:000665d0       $$000000                   100675d0     libucrt:common.obj
 0001:000667c0       $$000000                   100677c0     libucrt:genexcep.obj
 0001:00066bdc       ?fperrraise_with@@YAXHK@Z  10067bdc f   libucrt:_test.obj
 0001:00067121       ?_wcrtomb_s_l@@YAHQAHQADI_WQAU_Mbstatet@@QAU__crt_locale_pointers@@@Z 10068121 f   libucrt:wcrtomb.obj
 0001:000671f6       _internal_wcsrtombs        100681f6 f   libucrt:wcrtomb.obj
 0001:000673ea       _memcpy_s                  100683ea f   libucrt:wcrtomb.obj
 0001:00067c07       ?combine_second_surrogate@?A0xc60ee810@@YA_U_SPAU_Mbstatet@@@Z 10068c07 f   libucrt:c16rtomb.obj
 0001:00067c21       ?has_surrogate@?A0xc60ee810@@YA_NPAU_Mbstatet@@@Z 10068c21 f   libucrt:c16rtomb.obj
 0001:00067c35       ?is_first_surrogate@?A0xc60ee810@@YA_N_S@Z 10068c35 f   libucrt:c16rtomb.obj
 0001:00067c56       ?is_second_surrogate@?A0xc60ee810@@YA_N_S@Z 10068c56 f   libucrt:c16rtomb.obj
 0001:00067c77       ?store_first_surrogate@?A0xc60ee810@@YAX_SPAU_Mbstatet@@@Z 10068c77 f   libucrt:c16rtomb.obj
 0001:000680b0       $$000000                   100690b0     LIBCMT:ulldvrm.obj
 0001:000681b0       $$000000                   100691b0     LIBCMT:sehprolg4gs.obj
 0001:00068220       $$000000                   10069220     LIBCMT:llmul.obj
 0001:00068270       $$000000                   10069270     LIBCMT:chkstk.obj
 0001:000682b0       $$000000                   100692b0     LIBCMT:lldvrm.obj
 0001:000683d0       $$000000                   100693d0     LIBCMT:ullshr.obj
 0001:00068400       $$000000                   10069400     LIBCMT:alloca16.obj
 0001:00068440       $$000000                   10069440     LIBCMT:llshl.obj
 0001:00068470       $$000000                   10069470     LIBCMT:ftol2.obj
 0001:00068712       _cmpBYTE                   10069712 f   libvcruntime:memcmp.obj
 0001:00068740       _cmpDWORD                  10069740 f   libvcruntime:memcmp.obj
 0001:000687be       _cmpResult                 100697be f   libvcruntime:memcmp.obj
 0001:000687e1       _cmpWORD                   100697e1 f   libvcruntime:memcmp.obj
 0001:00069767       $LN1285                    1006a767     libvcruntime:memcmp.obj
 0001:00069bd0       _unaligned_memcmp          1006abd0 f   libvcruntime:memcmp.obj
 0001:0006a930       $LN1243                    1006b930     libvcruntime:memcmp.obj
 0001:0006ad30       $$000000                   1006bd30     libvcruntime:strrchr.obj
 0001:0006e146       __unwindfunclet$?getDecoratedName@UnDecorator@@CA?AVDName@@XZ$0 1006f146 f   libvcruntime:undname.obj
 0001:0006e14e       __ehhandler$?getDecoratedName@UnDecorator@@CA?AVDName@@XZ 1006f14e f   libvcruntime:undname.obj
 0001:0006e171       __ehhandler$?CallUnexpected@@YAXPBU_s_ESTypeList@@@Z 1006f171 f   libvcruntime:frame.obj
 0001:0006e192       __unwindfunclet$?_wcstombs_l_helper@@YAIPADPB_WIPAU__crt_locale_pointers@@@Z$0 1006f192 f   libucrt:wcstombs.obj
 0001:0006e19a       __ehhandler$?_wcstombs_l_helper@@YAIPADPB_WIPAU__crt_locale_pointers@@@Z 1006f19a f   libucrt:wcstombs.obj
 0002:00000e98       _rtBlockSignals            10071e98     homing_ldm_capi.obj
 0002:000013a0       _rtBlockParameters         100723a0     homing_ldm_capi.obj
 0002:00001a30       _rtModelParameters         10072a30     homing_ldm_capi.obj
 0002:00001a40       _rtDataTypeMap             10072a40     homing_ldm_capi.obj
 0002:00001a54       _rtElementMap              10072a54     homing_ldm_capi.obj
 0002:00001a64       _rtDimensionMap            10072a64     homing_ldm_capi.obj
 0002:00001a94       _rtDimensionArray          10072a94     homing_ldm_capi.obj
 0002:00001ab0       _rtcapiStoredFloats        10072ab0     homing_ldm_capi.obj
 0002:00001ac0       _rtFixPtMap                10072ac0     homing_ldm_capi.obj
 0002:00001ad0       _rtSampleTimeMap           10072ad0     homing_ldm_capi.obj
 0002:00002208       _rtMemAllocError           10073208     rt_logging_mmi.obj
 0002:00002720       _rtMemAllocError           10073720     rt_logging.obj
 0002:00002738       _rtStructLogVarFieldNames  10073738     rt_logging.obj
 0002:00002800       _rtLocalLoggingSignalsStructFieldNames 10073800     rt_logging.obj
 0002:00002988       _rtGlobalLoggingSignalsStructFieldNames 10073988     rt_logging.obj
 0002:00002b50       _rtLocalLoggingSignalsStructFieldNames_noValDims 10073b50     rt_logging.obj
 0002:00002c98       _rtGlobalLoggingSignalsStructFieldNames_noValDims 10073c98     rt_logging.obj
 0002:000068a0       _Int32ToUInt32             100778a0     LIBCMT:ftol3.obj
 0002:000068a8       _DP2to32                   100778a8     LIBCMT:ftol3.obj
 0002:000068b0       _MantissaMask              100778b0     LIBCMT:ftol3.obj
 0002:000068b8       _IntegerBit                100778b8     LIBCMT:ftol3.obj
 0002:000068c0       _SignBit64                 100778c0     LIBCMT:ftol3.obj
 0002:000068c8       _MinFP64                   100778c8     LIBCMT:ftol3.obj
 0002:000068d0       _MinInt64                  100778d0     LIBCMT:ftol3.obj
 0002:000068d8       _MaxInt64                  100778d8     LIBCMT:ftol3.obj
 0002:000068e0       _MaxUInt64                 100778e0     LIBCMT:ftol3.obj
 0002:000068e8       _MaxFP32                   100778e8     LIBCMT:ftol3.obj
 0002:000068f0       _MinFP32                   100778f0     LIBCMT:ftol3.obj
 0002:000068f8       _MinSubInexact             100778f8     LIBCMT:ftol3.obj
 0002:00006900       _FpExcptTable              10077900     LIBCMT:ftol3.obj
 0002:00006910       _i1075                     10077910     LIBCMT:ftol3.obj
 0002:00006914       _i1087                     10077914     LIBCMT:ftol3.obj
 0002:00006918       _x0800                     10077918     LIBCMT:ftol3.obj
 0002:0000691c       _x17FF                     1007791c     LIBCMT:ftol3.obj
 0002:00006920       _CWMask                    10077920     LIBCMT:ftol3.obj
 0002:0000693c       _GS_ExceptionPointers      1007793c     LIBCMT:gs_report.obj
 0002:00006950       ?tokenTable@@3QBQBDB       10077950     libvcruntime:undname.obj
 0002:00006990       ?nameTable@@3QBQBDB        10077990     libvcruntime:undname.obj
 0002:00006ad8       ?rttiTable@@3QBQBDB        10077ad8     libvcruntime:undname.obj
 0002:00007730       ?module_names@?A0x5c520fe1@@3QBQB_WB 10078730     libvcruntime:winapi_downlevel.obj
 0002:00007810       ?candidate_modules@?1??try_get_FlsAlloc@@YAP6GKP6GXPAX@Z@ZXZ@4QBW4module_id@?A0x5c520fe1@@B 10078810     libvcruntime:winapi_downlevel.obj
 0002:00007828       ?candidate_modules@?1??try_get_FlsFree@@YAP6GHK@ZXZ@4QBW4module_id@?A0x5c520fe1@@B 10078828     libvcruntime:winapi_downlevel.obj
 0002:00007840       ?candidate_modules@?1??try_get_FlsGetValue@@YAP6GPAXK@ZXZ@4QBW4module_id@?A0x5c520fe1@@B 10078840     libvcruntime:winapi_downlevel.obj
 0002:0000785c       ?candidate_modules@?1??try_get_FlsSetValue@@YAP6GHKPAX@ZXZ@4QBW4module_id@?A0x5c520fe1@@B 1007885c     libvcruntime:winapi_downlevel.obj
 0002:00007878       ?candidate_modules@?1??try_get_InitializeCriticalSectionEx@@YAP6GHPAU_RTL_CRITICAL_SECTION@@KK@ZXZ@4QBW4module_id@?A0x5c520fe1@@B 10078878     libvcruntime:winapi_downlevel.obj
 0002:000078f4       ?ExceptionTemplate@?1??_CxxThrowException@@9@8@4UEHExceptionRecord@@B 100788f4     libvcruntime:throw.obj
 0002:00007f58       ?_names@?1??_get_fname@@9@9 10078f58     libucrt:fpexcept.obj
 0002:00008200       ___acrt_initializers       10079200     libucrt:initialization.obj
 0002:000082e8       ?errtable@@3QBUerrentry@?A0x31fdb9ec@@B 100792e8     libucrt:errno.obj
 0002:00008490       ?module_names@?A0x391cf84c@@3QBQB_WB 10079490     libucrt:winapi_thunks.obj
 0002:00008aa4       ?candidate_modules@?1??try_get_AreFileApisANSI@@YAP6GHXZXZ@4QBW4module_id@?A0x391cf84c@@B 10079aa4     libucrt:winapi_thunks.obj
 0002:00008abc       ?candidate_modules@?1??try_get_CompareStringEx@@YAP6GHPB_WK0H0HPAU_nlsversioninfo@@PAXJ@ZXZ@4QBW4module_id@?A0x391cf84c@@B 10079abc     libucrt:winapi_thunks.obj
 0002:00008adc       ?candidate_modules@?1??try_get_EnumSystemLocalesEx@@YAP6GHP6GHPA_WKJ@ZKJPAX@ZXZ@4QBW4module_id@?A0x391cf84c@@B 10079adc     libucrt:winapi_thunks.obj
 0002:00008b00       ?candidate_modules@?1??try_get_FlsAlloc@@YAP6GKP6GXPAX@Z@ZXZ@4QBW4module_id@?A0x391cf84c@@B 10079b00     libucrt:winapi_thunks.obj
 0002:00008b18       ?candidate_modules@?1??try_get_FlsFree@@YAP6GHK@ZXZ@4QBW4module_id@?A0x391cf84c@@B 10079b18     libucrt:winapi_thunks.obj
 0002:00008b30       ?candidate_modules@?1??try_get_FlsGetValue@@YAP6GPAXK@ZXZ@4QBW4module_id@?A0x391cf84c@@B 10079b30     libucrt:winapi_thunks.obj
 0002:00008b4c       ?candidate_modules@?1??try_get_FlsSetValue@@YAP6GHKPAX@ZXZ@4QBW4module_id@?A0x391cf84c@@B 10079b4c     libucrt:winapi_thunks.obj
 0002:00008b68       ?candidate_modules@?1??try_get_GetActiveWindow@@YAP6GPAUHWND__@@XZXZ@4QBW4module_id@?A0x391cf84c@@B 10079b68     libucrt:winapi_thunks.obj
 0002:00008b88       ?candidate_modules@?1??try_get_GetDateFormatEx@@YAP6GHPB_WKPBU_SYSTEMTIME@@0PA_WH0@ZXZ@4QBW4module_id@?A0x391cf84c@@B 10079b88     libucrt:winapi_thunks.obj
 0002:00008ba8       ?candidate_modules@?1??try_get_GetEnabledXStateFeatures@@YAP6G_KXZXZ@4QBW4module_id@?A0x391cf84c@@B 10079ba8     libucrt:winapi_thunks.obj
 0002:00008bd4       ?candidate_modules@?1??try_get_GetLastActivePopup@@YAP6GPAUHWND__@@PAU2@@ZXZ@4QBW4module_id@?A0x391cf84c@@B 10079bd4     libucrt:winapi_thunks.obj
 0002:00008bf8       ?candidate_modules@?1??try_get_GetLocaleInfoEx@@YAP6GHPB_WKPA_WH@ZXZ@4QBW4module_id@?A0x391cf84c@@B 10079bf8     libucrt:winapi_thunks.obj
 0002:00008c18       ?candidate_modules@?1??try_get_GetProcessWindowStation@@YAP6GPAUHWINSTA__@@XZXZ@4QBW4module_id@?A0x391cf84c@@B 10079c18     libucrt:winapi_thunks.obj
 0002:00008c40       ?candidate_modules@?1??try_get_GetSystemTimePreciseAsFileTime@@YAP6GXPAU_FILETIME@@@ZXZ@4QBW4module_id@?A0x391cf84c@@B 10079c40     libucrt:winapi_thunks.obj
 0002:00008c6c       ?candidate_modules@?1??try_get_GetTimeFormatEx@@YAP6GHPB_WKPBU_SYSTEMTIME@@0PA_WH@ZXZ@4QBW4module_id@?A0x391cf84c@@B 10079c6c     libucrt:winapi_thunks.obj
 0002:00008c8c       ?candidate_modules@?1??try_get_GetUserDefaultLocaleName@@YAP6GHPA_WH@ZXZ@4QBW4module_id@?A0x391cf84c@@B 10079c8c     libucrt:winapi_thunks.obj
 0002:00008cb8       ?candidate_modules@?1??try_get_GetUserObjectInformationW@@YAP6GHPAXH0KPAK@ZXZ@4QBW4module_id@?A0x391cf84c@@B 10079cb8     libucrt:winapi_thunks.obj
 0002:00008ce4       ?candidate_modules@?1??try_get_GetXStateFeaturesMask@@YAP6GHPAU_CONTEXT@@PA_K@ZXZ@4QBW4module_id@?A0x391cf84c@@B 10079ce4     libucrt:winapi_thunks.obj
 0002:00008d0c       ?candidate_modules@?1??try_get_InitializeCriticalSectionEx@@YAP6GHPAU_RTL_CRITICAL_SECTION@@KK@ZXZ@4QBW4module_id@?A0x391cf84c@@B 10079d0c     libucrt:winapi_thunks.obj
 0002:00008d3c       ?candidate_modules@?1??try_get_IsValidLocaleName@@YAP6GHPB_W@ZXZ@4QBW4module_id@?A0x391cf84c@@B 10079d3c     libucrt:winapi_thunks.obj
 0002:00008d60       ?candidate_modules@?1??try_get_LCMapStringEx@@YAP6GHPB_WK0HPA_WHPAU_nlsversioninfo@@PAXJ@ZXZ@4QBW4module_id@?A0x391cf84c@@B 10079d60     libucrt:winapi_thunks.obj
 0002:00008d7c       ?candidate_modules@?1??try_get_LCIDToLocaleName@@YAP6GHKPA_WHK@ZXZ@4QBW4module_id@?A0x391cf84c@@B 10079d7c     libucrt:winapi_thunks.obj
 0002:00008d9c       ?candidate_modules@?1??try_get_LocaleNameToLCID@@YAP6GKPB_WK@ZXZ@4QBW4module_id@?A0x391cf84c@@B 10079d9c     libucrt:winapi_thunks.obj
 0002:00008dbc       ?candidate_modules@?1??try_get_LocateXStateFeature@@YAP6GPAXPAU_CONTEXT@@KPAK@ZXZ@4QBW4module_id@?A0x391cf84c@@B 10079dbc     libucrt:winapi_thunks.obj
 0002:00008de0       ?candidate_modules@?1??try_get_MessageBoxA@@YAP6GHPAUHWND__@@PBD1I@ZXZ@4QBW4module_id@?A0x391cf84c@@B 10079de0     libucrt:winapi_thunks.obj
 0002:00008dfc       ?candidate_modules@?1??try_get_MessageBoxW@@YAP6GHPAUHWND__@@PB_W1I@ZXZ@4QBW4module_id@?A0x391cf84c@@B 10079dfc     libucrt:winapi_thunks.obj
 0002:00008e18       ?candidate_modules@?1??try_get_RoInitialize@@YAP6GJW4RO_INIT_TYPE@@@ZXZ@4QBW4module_id@?A0x391cf84c@@B 10079e18     libucrt:winapi_thunks.obj
 0002:00008e2c       ?candidate_modules@?1??try_get_RoUninitialize@@YAP6GXXZXZ@4QBW4module_id@?A0x391cf84c@@B 10079e2c     libucrt:winapi_thunks.obj
 0002:00008e44       ?candidate_modules@?1??try_get_AppPolicyGetProcessTerminationMethod@@YAP6GJPAXPAW4AppPolicyProcessTerminationMethod@@@ZXZ@4QBW4module_id@?A0x391cf84c@@B 10079e44     libucrt:winapi_thunks.obj
 0002:00008e74       ?candidate_modules@?1??try_get_AppPolicyGetThreadInitializationType@@YAP6GJPAXPAW4AppPolicyThreadInitializationType@@@ZXZ@4QBW4module_id@?A0x391cf84c@@B 10079e74     libucrt:winapi_thunks.obj
 0002:00008ea4       ?candidate_modules@?1??try_get_AppPolicyGetShowDeveloperDiagnostic@@YAP6GJPAXPAW4AppPolicyShowDeveloperDiagnostic@@@ZXZ@4QBW4module_id@?A0x391cf84c@@B 10079ea4     libucrt:winapi_thunks.obj
 0002:00008ed4       ?candidate_modules@?1??try_get_AppPolicyGetWindowingModel@@YAP6GJPAXPAW4AppPolicyWindowingModel@@@ZXZ@4QBW4module_id@?A0x391cf84c@@B 10079ed4     libucrt:winapi_thunks.obj
 0002:00008ef8       ?candidate_modules@?1??try_get_SetThreadStackGuarantee@@YAP6GHPAK@ZXZ@4QBW4module_id@?A0x391cf84c@@B 10079ef8     libucrt:winapi_thunks.obj
 0002:00008f20       ?candidate_modules@?1??try_get_SystemFunction036@@YAP6GEPAXK@ZXZ@4QBW4module_id@?A0x391cf84c@@B 10079f20     libucrt:winapi_thunks.obj
 0002:00008fa0       __first_127char            10079fa0     libucrt:wsetlocale.obj
 0002:000097a4       _over                      1007a7a4     libucrt:fpctrl.obj
 0002:000097b4       _under                     1007a7b4     libucrt:fpctrl.obj
 0002:000097c4       ?_mb_locale_names@@3QBQB_WB 1007a7c4     libucrt:mbctype.obj
 0002:0000a1c8       ?LcidToLocaleNameTable@?A0x881e4c05@@3QBULcidToLocaleName@1@B 1007b1c8     libucrt:lcidtoname_downlevel.obj
 0002:0000b6a0       ?LocaleNameToIndexTable@?A0x881e4c05@@3QBULocaleNameIndex@1@B 1007c6a0     libucrt:lcidtoname_downlevel.obj
 0002:0000e610       LOG_name                   1007f610     libucrt:log10_impl.obj
 0002:0000e620       _One                       1007f620     libucrt:ceil_pentium4.obj
 0002:0000e630       _Bns                       1007f630     libucrt:ceil_pentium4.obj
 0002:0000e640       _Zero                      1007f640     libucrt:ceil_pentium4.obj
 0002:0000e650       _S                         1007f650     libucrt:ceil_pentium4.obj
 0002:0000e660       _NegZero                   1007f660     libucrt:ceil_pentium4.obj
 0002:0000e678       ?commonFlags@?1??_control87@@9@9 1007f678     libucrt:ieee87.obj
 0002:0000e680       emask                      1007f680     libucrt:log10_pentium4.obj
 0002:0000e690       CC                         1007f690     libucrt:log10_pentium4.obj
 0002:0000e6a0       Magic                      1007f6a0     libucrt:log10_pentium4.obj
 0002:0000e6b0       hi_mask                    1007f6b0     libucrt:log10_pentium4.obj
 0002:0000e6c0       LOG10_2                    1007f6c0     libucrt:log10_pentium4.obj
 0002:0000e6d0       place_L                    1007f6d0     libucrt:log10_pentium4.obj
 0002:0000e6f0       One                        1007f6f0     libucrt:log10_pentium4.obj
 0002:0000e700       Zero                       1007f700     libucrt:log10_pentium4.obj
 0002:0000e710       Two52                      1007f710     libucrt:log10_pentium4.obj
 0002:0000e720       Infs                       1007f720     libucrt:log10_pentium4.obj
 0002:0000e730       NaN                        1007f730     libucrt:log10_pentium4.obj
 0002:0000e740       coeff                      1007f740     libucrt:log10_pentium4.obj
 0002:0000e7de       _log2max                   1007f7de     libucrt:87tran.obj
 0002:0000e7e8       _smallarg                  1007f7e8     libucrt:87tran.obj
 0002:0000e7f2       _half                      1007f7f2     libucrt:87tran.obj
 0002:0000e84e       One                        1007f84e     libucrt:87disp.obj
 0002:0000e856       Three                      1007f856     libucrt:87disp.obj
 0002:0000e85e       XAMtoTagTab                1007f85e     libucrt:87disp.obj
 0002:0000e880       One                        1007f880     libucrt:common.obj
 0002:0000e894       DblMax                     1007f894     libucrt:common.obj
 0002:0000e89c       DblMin                     1007f89c     libucrt:common.obj
 0002:0000e8a4       IeeeAdjO                   1007f8a4     libucrt:common.obj
 0002:0000e8ac       IeeeAdjU                   1007f8ac     libucrt:common.obj
 0002:0000e8b4       _infinity                  1007f8b4     libucrt:common.obj
 0002:0000e8bc       _zero                      1007f8bc     libucrt:common.obj
 0002:0000e8d4       _INF                       1007f8d4     libucrt:libm_error.obj
 0002:0000e8e8       _BIG                       1007f8e8     libucrt:libm_error.obj
 0002:0000e8fc       _ZERO                      1007f8fc     libucrt:libm_error.obj
 0002:0000e910       _INF_32                    1007f910     libucrt:libm_error.obj
 0002:0000e91c       _NAN_32                    1007f91c     libucrt:libm_error.obj
 0002:0000e928       _ZERO_32                   1007f928     libucrt:libm_error.obj
 0002:0000e934       _libm_largef               1007f934     libucrt:libm_error.obj
 0002:0000e940       _libm_smallf               1007f940     libucrt:libm_error.obj
 0002:0000e950       _libm_small                1007f950     libucrt:libm_error.obj
 0002:0000e964       _newcw                     1007f964     libucrt:ceil.obj
 0002:0000e968       ?mask@?P@??_d_int@@9@4QBGB 1007f968     libucrt:_test.obj
 0002:0000e990       ?sub@?P@??_d_int@@9@4QBIB  1007f990     libucrt:_test.obj
 0002:0000e9a4       ?mask@?P@??_fd_int@@9@4QBGB 1007f9a4     libucrt:_test.obj
 0002:0000e9cc       ?sub@?P@??_fd_int@@9@4QBIB 1007f9cc     libucrt:_test.obj
 0002:000105c8       __sehtable$?dllmain_crt_process_attach@@YAHQAUHINSTANCE__@@QAX@Z 100815c8     LIBCMT:dll_dllmain.obj
 0002:000105e8       __sehtable$?dllmain_crt_process_detach@@YAH_N@Z 100815e8     LIBCMT:dll_dllmain.obj
 0002:00010608       __sehtable$?dllmain_dispatch@@YAHQAUHINSTANCE__@@KQAX@Z 10081608     LIBCMT:dll_dllmain.obj
 0002:00010628       __sehtable$___scrt_is_nonwritable_in_current_image 10081628     LIBCMT:utility.obj
 0002:00010648       __sehtable$___unDNameEx    10081648     libvcruntime:undname.obj
 0002:00010668       __unwindtable$?getDecoratedName@UnDecorator@@CA?AVDName@@XZ 10081668     libvcruntime:undname.obj
 0002:00010670       __ehfuncinfo$?getDecoratedName@UnDecorator@@CA?AVDName@@XZ 10081670     libvcruntime:undname.obj
 0002:00010698       __sehtable$?FrameUnwindToState@__FrameHandler3@@SAXPAUEHRegistrationNode@@PAXPBU_s_FuncInfo@@H@Z 10081698     libvcruntime:frame.obj
 0002:000106c8       __sehtable$?CallCatchBlock@@YAPAXPAUEHExceptionRecord@@PAUEHRegistrationNode@@PAU_CONTEXT@@PBU_s_FuncInfo@@PAXHK@Z 100816c8     libvcruntime:frame.obj
 0002:000106f4       __catchsym$?CallUnexpected@@YAXPBU_s_ESTypeList@@@Z$2 100816f4     libvcruntime:frame.obj
 0002:00010704       __unwindtable$?CallUnexpected@@YAXPBU_s_ESTypeList@@@Z 10081704     libvcruntime:frame.obj
 0002:00010714       __tryblocktable$?CallUnexpected@@YAXPBU_s_ESTypeList@@@Z 10081714     libvcruntime:frame.obj
 0002:00010728       __ehfuncinfo$?CallUnexpected@@YAXPBU_s_ESTypeList@@@Z 10081728     libvcruntime:frame.obj
 0002:00010758       __sehtable$??$BuildCatchObjectHelperInternal@V__FrameHandler3@@@@YAHPAUEHExceptionRecord@@PAXPBU_s_HandlerType@@PBU_s_CatchableType@@@Z 10081758     libvcruntime:frame.obj
 0002:00010778       __sehtable$??$BuildCatchObjectInternal@V__FrameHandler3@@@@YAXPAUEHExceptionRecord@@PAXPBU_s_HandlerType@@PBU_s_CatchableType@@@Z 10081778     libvcruntime:frame.obj
 0002:00010800       __sehtable$___DestructExceptionObject 10081800     libvcruntime:ehhelpers.obj
 0002:00010820       __sehtable$??R<lambda_6e4b09c48022b2350581041d5f6b0c4c>@@QBE@XZ 10081820     libucrt:exit.obj
 0002:00010840       __sehtable$??$?RV<lambda_03b1d95aef87969028cfba75ccab2455>@@AAV<lambda_6e4b09c48022b2350581041d5f6b0c4c>@@V<lambda_22bdf7517842c4b3e53723af5aa32b9e>@@@?$__crt_seh_guarded_call@X@@QAEX$$QAV<lambda_03b1d95aef87969028cfba75ccab2455>@@AAV<lambda_6e4b09c48022b2350581041d5f6b0c4c>@@$$QAV<lambda_22bdf7517842c4b3e53723af5aa32b9e>@@@Z 10081840     libucrt:exit.obj
 0002:00010860       __sehtable$_fclose         10081860     libucrt:fclose.obj
 0002:00010880       __sehtable$??$common_fsopen@D@@YAPAU_iobuf@@QBD0H@Z 10081880     libucrt:fopen.obj
 0002:000108a0       __sehtable$??$common_fsopen@_W@@YAPAU_iobuf@@QB_W0H@Z 100818a0     libucrt:fopen.obj
 0002:000108c0       __sehtable$_fread_s        100818c0     libucrt:fread.obj
 0002:000108e0       __sehtable$??$?RV<lambda_cd3bfd923e8d1349099e544c97b1bd8e>@@AAV<lambda_54dcfcba6f8e0c549fa430f4d53fb7dd>@@V<lambda_5e1d0fa2aa2b73b187bf8b7e1d30c7f8>@@@?$__crt_seh_guarded_call@I@@QAEI$$QAV<lambda_cd3bfd923e8d1349099e544c97b1bd8e>@@AAV<lambda_54dcfcba6f8e0c549fa430f4d53fb7dd>@@$$QAV<lambda_5e1d0fa2aa2b73b187bf8b7e1d30c7f8>@@@Z 100818e0     libucrt:fwrite.obj
 0002:00010900       __sehtable$_rewind         10081900     libucrt:rewind.obj
 0002:00010920       __sehtable$??$?RV<lambda_80d7abc6eae2375db70be92ccaaf9b57>@@AAV<lambda_df52180bf14694d51fdefd82613e8f07>@@V<lambda_4fa1155033dff2042363dba4e2dc3802>@@@?$__crt_seh_guarded_call@H@@QAEH$$QAV<lambda_80d7abc6eae2375db70be92ccaaf9b57>@@AAV<lambda_df52180bf14694d51fdefd82613e8f07>@@$$QAV<lambda_4fa1155033dff2042363dba4e2dc3802>@@@Z 10081920     libucrt:output.obj
 0002:00010940       __sehtable$??$?RV<lambda_75d23329f2fb3d02b2e1cf5509bb1caf>@@AAV<lambda_c4f131f91cb4ec00a5b0a26aa161b8b4>@@V<lambda_114dc79c86b00c313cb0b6b3b001aaf8>@@@?$__crt_seh_guarded_call@H@@QAEH$$QAV<lambda_75d23329f2fb3d02b2e1cf5509bb1caf>@@AAV<lambda_c4f131f91cb4ec00a5b0a26aa161b8b4>@@$$QAV<lambda_114dc79c86b00c313cb0b6b3b001aaf8>@@@Z 10081940     libucrt:output.obj
 0002:00010960       __sehtable$??$?RV<lambda_cc35d49d909def412005bd38ddc96b77>@@AAV<lambda_d6a382b8dd98a6801a8abd6c28bdff2d>@@V<lambda_148068cfb9786d9714740654406e93d5>@@@?$__crt_seh_guarded_call@H@@QAEH$$QAV<lambda_cc35d49d909def412005bd38ddc96b77>@@AAV<lambda_d6a382b8dd98a6801a8abd6c28bdff2d>@@$$QAV<lambda_148068cfb9786d9714740654406e93d5>@@@Z 10081960     libucrt:output.obj
 0002:00010980       __sehtable$??$?RV<lambda_b7f50223258ab9fcc98080d45d02b1a4>@@AAV<lambda_42506531d319a600ce771deb5a236a10>@@V<lambda_31f843250ba6188c6e1f35d2bec6db0e>@@@?$__crt_seh_guarded_call@H@@QAEH$$QAV<lambda_b7f50223258ab9fcc98080d45d02b1a4>@@AAV<lambda_42506531d319a600ce771deb5a236a10>@@$$QAV<lambda_31f843250ba6188c6e1f35d2bec6db0e>@@@Z 10081980     libucrt:output.obj
 0002:000109a0       __sehtable$??$?RV<lambda_3a2a6cca1b0f7007a3db339dcecd1562>@@AAV<lambda_e38011a3ba6e07c7dbcef4d549f26102>@@V<lambda_b2332a2b562101f3c3c34baab19e0511>@@@?$__crt_seh_guarded_call@H@@QAEH$$QAV<lambda_3a2a6cca1b0f7007a3db339dcecd1562>@@AAV<lambda_e38011a3ba6e07c7dbcef4d549f26102>@@$$QAV<lambda_b2332a2b562101f3c3c34baab19e0511>@@@Z 100819a0     libucrt:output.obj
 0002:000109c0       __sehtable$??$?RV<lambda_b4329732a1a72698597872ef534ad66d>@@AAV<lambda_96392db5b14a27f72535a2156da24b09>@@V<lambda_0f47277b42e3e84c3311fed419af0b3c>@@@?$__crt_seh_guarded_call@H@@QAEH$$QAV<lambda_b4329732a1a72698597872ef534ad66d>@@AAV<lambda_96392db5b14a27f72535a2156da24b09>@@$$QAV<lambda_0f47277b42e3e84c3311fed419af0b3c>@@@Z 100819c0     libucrt:output.obj
 0002:000109e0       __sehtable$??$?RV<lambda_7ac4055421038abea736e08bd20712a4>@@AAV<lambda_a10e4b102d4a2c3aac6f4f48bbdf488f>@@V<lambda_1da61822885009acd1bf848af4f9644b>@@@?$__crt_seh_guarded_call@H@@QAEH$$QAV<lambda_7ac4055421038abea736e08bd20712a4>@@AAV<lambda_a10e4b102d4a2c3aac6f4f48bbdf488f>@@$$QAV<lambda_1da61822885009acd1bf848af4f9644b>@@@Z 100819e0     libucrt:onexit.obj
 0002:00010a00       __sehtable$??$?RV<lambda_69a2805e680e0e292e8ba93315fe43a8>@@AAV<lambda_f03950bc5685219e0bcd2087efbe011e>@@V<lambda_03fcd07e894ec930e3f35da366ca99d6>@@@?$__crt_seh_guarded_call@H@@QAEH$$QAV<lambda_69a2805e680e0e292e8ba93315fe43a8>@@AAV<lambda_f03950bc5685219e0bcd2087efbe011e>@@$$QAV<lambda_03fcd07e894ec930e3f35da366ca99d6>@@@Z 10081a00     libucrt:onexit.obj
 0002:00010a20       __sehtable$_terminate      10081a20     libucrt:terminate.obj
 0002:00010a40       __sehtable$??$?RV<lambda_2866be3712abc81a800a822484c830d8>@@AAV<lambda_39ca0ed439415581b5b15c265174cece>@@V<lambda_2b24c74d71094a6cd0cb82e44167d71b>@@@?$__crt_seh_guarded_call@X@@QAEX$$QAV<lambda_2866be3712abc81a800a822484c830d8>@@AAV<lambda_39ca0ed439415581b5b15c265174cece>@@$$QAV<lambda_2b24c74d71094a6cd0cb82e44167d71b>@@@Z 10081a40     libucrt:fflush.obj
 0002:00010a60       __sehtable$??$?RV<lambda_2cc53f568c5a2bb6f192f930a45d44ea>@@AAV<lambda_ab61a845afdef5b7c387490eaf3616ee>@@V<lambda_c2ffc0b7726aa6be21d5f0026187e748>@@@?$__crt_seh_guarded_call@X@@QAEX$$QAV<lambda_2cc53f568c5a2bb6f192f930a45d44ea>@@AAV<lambda_ab61a845afdef5b7c387490eaf3616ee>@@$$QAV<lambda_c2ffc0b7726aa6be21d5f0026187e748>@@@Z 10081a60     libucrt:fflush.obj
 0002:00010a80       __sehtable$??$?RV<lambda_6d20deecaf4856105ebacbad442d1079>@@AAV<lambda_9a32fed5bf61b6b509b2d3f6003082a1>@@V<lambda_63ea2239ed67c638ddbae41947fdf875>@@@?$__crt_seh_guarded_call@H@@QAEH$$QAV<lambda_6d20deecaf4856105ebacbad442d1079>@@AAV<lambda_9a32fed5bf61b6b509b2d3f6003082a1>@@$$QAV<lambda_63ea2239ed67c638ddbae41947fdf875>@@@Z 10081a80     libucrt:fflush.obj
 0002:00010aa0       __sehtable$??$?RV<lambda_70c0770dcc4f6ec6272bb01dc82d3c91>@@AAV<lambda_ca71763b3c0644891230e4f79ea54fa6>@@V<lambda_ca266f0f09348b8765c113e3a39a2bc1>@@@?$__crt_seh_guarded_call@H@@QAEH$$QAV<lambda_70c0770dcc4f6ec6272bb01dc82d3c91>@@AAV<lambda_ca71763b3c0644891230e4f79ea54fa6>@@$$QAV<lambda_ca266f0f09348b8765c113e3a39a2bc1>@@@Z 10081aa0     libucrt:setvbuf.obj
 0002:00010ac0       __sehtable$_signal         10081ac0     libucrt:signal.obj
 0002:00010ae0       __sehtable$_raise          10081ae0     libucrt:signal.obj
 0002:00010b00       __sehtable$?ctrlevent_capture@@YGHK@Z 10081b00     libucrt:signal.obj
 0002:00010b20       __sehtable$??$?RV<lambda_cbab9ec6f41b0180b23cc171c22676b0>@@AAV<lambda_44731a7d0e6d81c3e6aa82d741081786>@@V<lambda_4b292cb8dd18144e164572427af410ab>@@@?$__crt_seh_guarded_call@P6AXH@Z@@QAEP6AXH@Z$$QAV<lambda_cbab9ec6f41b0180b23cc171c22676b0>@@AAV<lambda_44731a7d0e6d81c3e6aa82d741081786>@@$$QAV<lambda_4b292cb8dd18144e164572427af410ab>@@@Z 10081b20     libucrt:signal.obj
 0002:00010b40       __sehtable$??$?RV<lambda_93797fb4802c957ba6a7f08e1250235b>@@AAV<lambda_1f3ce6bd48e0aa2e72a71c02eee379d3>@@V<lambda_56cae30c9364c9b6c15aeaac05d0418e>@@@?$__crt_seh_guarded_call@H@@QAEH$$QAV<lambda_93797fb4802c957ba6a7f08e1250235b>@@AAV<lambda_1f3ce6bd48e0aa2e72a71c02eee379d3>@@$$QAV<lambda_56cae30c9364c9b6c15aeaac05d0418e>@@@Z 10081b40     libucrt:winapi_thunks.obj
 0002:00010b60       __sehtable$__fcloseall     10081b60     libucrt:closeall.obj
 0002:00010b80       __sehtable$___acrt_initialize_lowio 10081b80     libucrt:ioinit.obj
 0002:00010ba0       __sehtable$??$?RV<lambda_218ce3db14220d0be481dae8ef3383b6>@@AAV<lambda_628dfdc04ba53c8bfc02c9951375f3f5>@@V<lambda_57dc472bd5c9d5f3b2cbca59b8a843ae>@@@?$__crt_seh_guarded_call@H@@QAEH$$QAV<lambda_218ce3db14220d0be481dae8ef3383b6>@@AAV<lambda_628dfdc04ba53c8bfc02c9951375f3f5>@@$$QAV<lambda_57dc472bd5c9d5f3b2cbca59b8a843ae>@@@Z 10081ba0     libucrt:close.obj
 0002:00010bc0       __sehtable$?__acrt_stdio_allocate_stream@@YA?AV__crt_stdio_stream@@XZ 10081bc0     libucrt:stream.obj
 0002:00010be0       __sehtable$__read          10081be0     libucrt:read.obj
 0002:00010c00       __sehtable$__write         10081c00     libucrt:write.obj
 0002:00010c20       __sehtable$??$?RV<lambda_15ade71b0218206bbe3333a0c9b79046>@@AAV<lambda_da44e0f8b0f19ba52fefafb335991732>@@V<lambda_207f2d024fc103971653565357d6cd41>@@@?$__crt_seh_guarded_call@X@@QAEX$$QAV<lambda_15ade71b0218206bbe3333a0c9b79046>@@AAV<lambda_da44e0f8b0f19ba52fefafb335991732>@@$$QAV<lambda_207f2d024fc103971653565357d6cd41>@@@Z 10081c20     libucrt:per_thread_data.obj
 0002:00010c40       __sehtable$??$?RV<lambda_a7e850c220f1c8d1e6efeecdedd162c6>@@AAV<lambda_46720907175c18b6c9d2717bc0d2d362>@@V<lambda_9048902d66e8d99359bc9897bbb930a8>@@@?$__crt_seh_guarded_call@X@@QAEX$$QAV<lambda_a7e850c220f1c8d1e6efeecdedd162c6>@@AAV<lambda_46720907175c18b6c9d2717bc0d2d362>@@$$QAV<lambda_9048902d66e8d99359bc9897bbb930a8>@@@Z 10081c40     libucrt:per_thread_data.obj
 0002:00010c60       __sehtable$??$?RV<lambda_38edbb1296d33220d7e4dd0ed76b244a>@@AAV<lambda_5ce1d447e08cb34b2473517608e21441>@@V<lambda_fb385d3da700c9147fc39e65dd577a8c>@@@?$__crt_seh_guarded_call@X@@QAEX$$QAV<lambda_38edbb1296d33220d7e4dd0ed76b244a>@@AAV<lambda_5ce1d447e08cb34b2473517608e21441>@@$$QAV<lambda_fb385d3da700c9147fc39e65dd577a8c>@@@Z 10081c60     libucrt:per_thread_data.obj
 0002:00010c80       __sehtable$??$?RV<lambda_6affb1475c98b40b75cdec977db92e3c>@@AAV<lambda_b8d4b9c228a6ecc3f80208dbb4b4a104>@@V<lambda_608742c3c92a14382c1684fc64f96c88>@@@?$__crt_seh_guarded_call@X@@QAEX$$QAV<lambda_6affb1475c98b40b75cdec977db92e3c>@@AAV<lambda_b8d4b9c228a6ecc3f80208dbb4b4a104>@@$$QAV<lambda_608742c3c92a14382c1684fc64f96c88>@@@Z 10081c80     libucrt:per_thread_data.obj
 0002:00010ca0       __sehtable$__free_locale   10081ca0     libucrt:wsetlocale.obj
 0002:00010cd0       __sehtable$??$?RV<lambda_e5124f882df8998aaf41531e079ba474>@@AAV<lambda_3e16ef9562a7dcce91392c22ab16ea36>@@V<lambda_e25ca0880e6ef98be67edffd8c599615>@@@?$__crt_seh_guarded_call@X@@QAEX$$QAV<lambda_e5124f882df8998aaf41531e079ba474>@@AAV<lambda_3e16ef9562a7dcce91392c22ab16ea36>@@$$QAV<lambda_e25ca0880e6ef98be67edffd8c599615>@@@Z 10081cd0     libucrt:wsetlocale.obj
 0002:00010cf0       __sehtable$??$?RV<lambda_82aef432098b982f9ede325b418aa67a>@@AAV<lambda_862e9a3f04921db6ca1ce3faa2bf3edf>@@V<lambda_ffabc152e504b53d7492b9889b10c020>@@@?$__crt_seh_guarded_call@X@@QAEX$$QAV<lambda_82aef432098b982f9ede325b418aa67a>@@AAV<lambda_862e9a3f04921db6ca1ce3faa2bf3edf>@@$$QAV<lambda_ffabc152e504b53d7492b9889b10c020>@@@Z 10081cf0     libucrt:wsetlocale.obj
 0002:00010d10       __sehtable$??$?RV<lambda_6673f7c4c09a5d469d0c27ae364621ce>@@AAV<lambda_ebab98244f73a74f49db879bf13fa982>@@V<lambda_be20789b7a146653eab82509ec35b419>@@@?$__crt_seh_guarded_call@X@@QAEX$$QAV<lambda_6673f7c4c09a5d469d0c27ae364621ce>@@AAV<lambda_ebab98244f73a74f49db879bf13fa982>@@$$QAV<lambda_be20789b7a146653eab82509ec35b419>@@@Z 10081d10     libucrt:wsetlocale.obj
 0002:00010d30       __sehtable$??$?RV<lambda_4fdada1b837b2abbf20876fac97688ad>@@AAV<lambda_b57350f2640456a0859d250846f69caf>@@V<lambda_eed5e4f92b5b7d55fa22c48c484aaa54>@@@?$__crt_seh_guarded_call@X@@QAEX$$QAV<lambda_4fdada1b837b2abbf20876fac97688ad>@@AAV<lambda_b57350f2640456a0859d250846f69caf>@@$$QAV<lambda_eed5e4f92b5b7d55fa22c48c484aaa54>@@@Z 10081d30     libucrt:wsetlocale.obj
 0002:00010d50       __sehtable$??$?RV<lambda_135d2772fca65dc1248eeaa1b56e886a>@@AAV<lambda_2a444430fde8c29194d880d93eed5e8f>@@AAV<lambda_8dff2cf36a5417162780cd64fa2883ef>@@@?$__crt_seh_guarded_call@X@@QAEX$$QAV<lambda_135d2772fca65dc1248eeaa1b56e886a>@@AAV<lambda_2a444430fde8c29194d880d93eed5e8f>@@AAV<lambda_8dff2cf36a5417162780cd64fa2883ef>@@@Z 10081d50     libucrt:wsetlocale.obj
 0002:00010d70       __sehtable$??$common_lseek@J@@YAJHJH@Z 10081d70     libucrt:lseek.obj
 0002:00010d90       __sehtable$??$common_lseek@_J@@YA_JH_JH@Z 10081d90     libucrt:lseek.obj
 0002:00010db0       __sehtable$_fputwc         10081db0     libucrt:fputwc.obj
 0002:00010dd0       __sehtable$_fputc          10081dd0     libucrt:fputc.obj
 0002:00010df0       __sehtable$___set_fpsr_sse2 10081df0     libucrt:fpctrl.obj
 0002:00010e10       __sehtable$?update_thread_multibyte_data_internal@@YAPAU__crt_multibyte_data@@QAU__acrt_ptd@@QAPAU1@@Z 10081e10     libucrt:mbctype.obj
 0002:00010e30       __sehtable$??$?RV<lambda_ceb1ee4838e85a9d631eb091e2fbe199>@@AAV<lambda_ae742caa10f662c28703da3d2ea5e57e>@@V<lambda_cd08b5d6af4937fe54fc07d0c9bf6b37>@@@?$__crt_seh_guarded_call@X@@QAEX$$QAV<lambda_ceb1ee4838e85a9d631eb091e2fbe199>@@AAV<lambda_ae742caa10f662c28703da3d2ea5e57e>@@$$QAV<lambda_cd08b5d6af4937fe54fc07d0c9bf6b37>@@@Z 10081e30     libucrt:mbctype.obj
 0002:00010e50       __sehtable$__query_new_handler 10081e50     libucrt:new_handler.obj
 0002:00010e70       __sehtable$__set_new_handler 10081e70     libucrt:new_handler.obj
 0002:00010e90       __sehtable$??$?RV<lambda_9e9de3de5fa147e2223d7db92bc10aa6>@@AAV<lambda_38ce7e780aa69e748d6df282ebc68efe>@@V<lambda_8ca6da459f0f6780f1cff60fdc3d00e5>@@@?$__crt_seh_guarded_call@H@@QAEH$$QAV<lambda_9e9de3de5fa147e2223d7db92bc10aa6>@@AAV<lambda_38ce7e780aa69e748d6df282ebc68efe>@@$$QAV<lambda_8ca6da459f0f6780f1cff60fdc3d00e5>@@@Z 10081e90     libucrt:commit.obj
 0002:00010eb0       __sehtable$__open_osfhandle 10081eb0     libucrt:osfinfo.obj
 0002:00010ed0       __sehtable$__alloc_osfhnd  10081ed0     libucrt:osfinfo.obj
 0002:00010ef0       __sehtable$___acrt_lowio_ensure_fh_exists 10081ef0     libucrt:osfinfo.obj
 0002:00010f10       __sehtable$??$common_open@D@@YAHQBDHH@Z 10081f10     libucrt:open.obj
 0002:00010f30       __sehtable$??$common_open@_W@@YAHQB_WHH@Z 10081f30     libucrt:open.obj
 0002:00010f50       __sehtable$??$common_sopen_dispatch@D@@YAHQBDHHHQAHH@Z 10081f50     libucrt:open.obj
 0002:00010f70       __sehtable$??$common_sopen_dispatch@_W@@YAHQB_WHHHQAHH@Z 10081f70     libucrt:open.obj
 0002:00010f90       __sehtable$??$?RV<lambda_f828341fbe69b7c0d4c527b01f22877f>@@AAV<lambda_9e0b6ab72a5b3ae37ad997d08b519f50>@@V<lambda_f01deac0a8d65d6e0411edf7e0af5775>@@@?$__crt_seh_guarded_call@G@@QAEG$$QAV<lambda_f828341fbe69b7c0d4c527b01f22877f>@@AAV<lambda_9e0b6ab72a5b3ae37ad997d08b519f50>@@$$QAV<lambda_f01deac0a8d65d6e0411edf7e0af5775>@@@Z 10081f90     libucrt:putwch.obj
 0002:00010fb0       __sehtable$___acrt_update_thread_locale_data 10081fb0     libucrt:locale_refcounting.obj
 0002:00010fd0       __sehtable$__setmode       10081fd0     libucrt:setmode.obj
 0002:00010ff0       __sehtable$??$?RV<lambda_3b12a17125e8c5b5e6e6f6c6050db0c1>@@AAV<lambda_522ac1b1e1a1180d6f374a882b81d1c8>@@V<lambda_e92b96cac182f562f30acc9fb7872857>@@@?$__crt_seh_guarded_call@H@@QAEH$$QAV<lambda_3b12a17125e8c5b5e6e6f6c6050db0c1>@@AAV<lambda_522ac1b1e1a1180d6f374a882b81d1c8>@@$$QAV<lambda_e92b96cac182f562f30acc9fb7872857>@@@Z 10081ff0     libucrt:chsize.obj
 0002:00011010       __unwindtable$?_wcstombs_l_helper@@YAIPADPB_WIPAU__crt_locale_pointers@@@Z 10082010     libucrt:wcstombs.obj
 0002:00011018       __ehfuncinfo$?_wcstombs_l_helper@@YAIPADPB_WIPAU__crt_locale_pointers@@@Z 10082018     libucrt:wcstombs.obj
 0002:00011040       __sehtable$__IsNonwritableInCurrentImage 10082040     LIBCMT:pesect.obj
 0002:000112b0       .edata                     100822b0     homing_ldm_slrt.exp
 0002:000112d8       rgpv                       100822d8     homing_ldm_slrt.exp
 0002:000112f0       rgszName                   100822f0     homing_ldm_slrt.exp
 0002:00011308       rgwOrd                     10082308     homing_ldm_slrt.exp
 0002:00011314       szName                     10082314     homing_ldm_slrt.exp
 0002:00011328       $N00001                    10082328     homing_ldm_slrt.exp
 0002:00011333       $N00002                    10082333     homing_ldm_slrt.exp
 0002:0001133c       $N00003                    1008233c     homing_ldm_slrt.exp
 0002:00011349       $N00004                    10082349     homing_ldm_slrt.exp
 0002:00011353       $N00005                    10082353     homing_ldm_slrt.exp
 0002:00011361       $N00006                    10082361     homing_ldm_slrt.exp
 0003:00000000       _rtDataAddrMap             10083000     homing_ldm_capi.obj
 0003:00000200       _mmiStatic                 10083200     homing_ldm_capi.obj
 0003:00000b64       _rtwCAPI_mallocError       10083b64     rtw_modelmap_utils.obj
 0003:00000b78       _mdlInfo                   10083b78     xpctarget.obj
 0003:00000c98       _SupportedBoard            10083c98     xpcionim.obj
 0003:00001130       ?firsttime@?1??niM_Private_Data@@9@9 10084130     xpcionim.obj
 0003:00001134       _Static_AI_Control         10084134     xpcionim.obj
 0003:000012a0       ?__vcrt_flsindex@@3KA      100842a0     libvcruntime:per_thread_data.obj
 0003:000013a4       ?errno_no_memory@@3HA      100843a4     libucrt:errno.obj
 0003:000013a8       ?doserrno_no_memory@@3KA   100843a8     libucrt:errno.obj
 0003:00001524       ?__acrt_flsindex@@3KA      10084524     libucrt:per_thread_data.obj
 0003:00001528       __ctype_loc_style          10084528     libucrt:wsetlocale.obj
 0003:00001620       ?__DAZ_ENABLED@?1??__set_fpsr_sse2@@9@9 10084620     libucrt:fpctrl.obj
 0003:000018b8       __mbctypes                 100848b8     libucrt:mbctype.obj
 0003:000019f0       __mbcasemaps               100849f0     libucrt:mbctype.obj
 0003:00001b24       ?__rgctypeflag@@3PADA      10084b24     libucrt:mbctype.obj
 0003:00001b28       ?__rgcode_page_info@@3PAUcode_page_info@@A 10084b28     libucrt:mbctype.obj
 0003:00001cd0       ?__dcrt_lowio_console_output_handle@@3PAXA 10084cd0     libucrt:initcon.obj
 0003:00002060       ?rt_DataLoggingInfo@?5??homing_ldm@@9@9 10085060     homing_ldm.obj
 0003:000020b8       ?dims@?1??rt_mxGetDimensions@@9@9 100850b8     rt_matrx.obj
 0003:000020c4       _rtVarDimsAddrMap          100850c4     homing_ldm_capi.obj
 0003:00002110       _rtm                       10085110     xpctarget.obj
 0003:00002128       _msg                       10085128     danipcim.obj
 0003:00002260       _msg                       10085260     dinipcim.obj
 0003:00002398       _msg                       10085398     donipcim.obj
 0003:000024d0       _msg                       100854d0     encnipcim.obj
 0003:00002608       _msg                       10085608     xpcionim.obj
 0003:00002708       _private_data              10085708     xpcionim.obj
 0003:00002950       _GS_ExceptionRecord        10085950     LIBCMT:gs_report.obj
 0003:000029a0       _GS_ContextRecord          100859a0     LIBCMT:gs_report.obj
 0003:00002d18       ?__proc_attached@@3HA      10085d18     LIBCMT:dll_dllmain.obj
 0003:00002d54       ?is_initialized_as_dll@@3_NA 10085d54     LIBCMT:utility.obj
 0003:00002d55       ?module_local_atexit_table_initialized@@3_NA 10085d55     LIBCMT:utility.obj
 0003:00002d58       ?module_local_atexit_table@@3U_onexit_table_t@@A 10085d58     LIBCMT:utility.obj
 0003:00002d64       ?module_local_at_quick_exit_table@@3U_onexit_table_t@@A 10085d64     LIBCMT:utility.obj
 0003:00002da4       ?heap@@3V_HeapManager@@A   10085da4     libvcruntime:undname.obj
 0003:00002dc4       ?__vcrt_startup_thread_ptd@@3U__vcrt_ptd@@A 10085dc4     libvcruntime:per_thread_data.obj
 0003:00002df4       ___vcrt_lock_table         10085df4     libvcruntime:locks.obj
 0003:00002e0c       ___vcrt_locks_initialized  10085e0c     libvcruntime:locks.obj
 0003:00002e18       ?module_handles@@3PAPAUHINSTANCE__@@A 10085e18     libvcruntime:winapi_downlevel.obj
 0003:00002e24       ?encoded_function_pointers@@3PAPAXA 10085e24     libvcruntime:winapi_downlevel.obj
 0003:00002e48       ?c_termination_complete@@3JA 10085e48     libucrt:exit.obj
 0003:00002e4c       ?thread_local_exit_callback_func@@3P6GXPAXK0@ZA 10085e4c     libucrt:exit.obj
 0003:00002e68       ?program_name@?1???$common_configure_argv@D@@YAHW4_crt_argv_mode@@@Z@4PADA 10085e68     libucrt:argv_parsing.obj
 0003:00002fa8       ?program_name@?1???$common_configure_argv@_W@@YAHW4_crt_argv_mode@@@Z@4PA_WA 10085fa8     libucrt:argv_parsing.obj
 0003:00003250       ?__acrt_invalid_parameter_handler@@3V?$dual_state_global@P6AXPB_W00II@Z@__crt_state_management@@A 10086250     libucrt:invalid_parameter.obj
 0003:00003254       ?__acrt_app_type@@3W4_crt_app_type@@A 10086254     libucrt:report_runtime_error.obj
 0003:00003258       ?outmsg@?9??__acrt_report_runtime_error@@9@4PA_WA 10086258     libucrt:report_runtime_error.obj
 0003:000039bc       ___acrt_error_mode         100869bc     libucrt:set_error_mode.obj
 0003:000039c0       ?console_ctrl_handler_installed@@3_NA 100869c0     libucrt:signal.obj
 0003:000039c4       ?ctrlc_action@@3V?$dual_state_global@P6AXH@Z@__crt_state_management@@A 100869c4     libucrt:signal.obj
 0003:000039c8       ?ctrlbreak_action@@3V?$dual_state_global@P6AXH@Z@__crt_state_management@@A 100869c8     libucrt:signal.obj
 0003:000039cc       ?abort_action@@3V?$dual_state_global@P6AXH@Z@__crt_state_management@@A 100869cc     libucrt:signal.obj
 0003:000039d0       ?term_action@@3V?$dual_state_global@P6AXH@Z@__crt_state_management@@A 100869d0     libucrt:signal.obj
 0003:000039d8       ?__acrt_lock_table@@3PAU_RTL_CRITICAL_SECTION@@A 100869d8     libucrt:locks.obj
 0003:00003b28       ?__acrt_locks_initialized@@3IA 10086b28     libucrt:locks.obj
 0003:00003b70       ?state_cache@?1???$get_cached_win_policy@Ubegin_thread_init_policy_properties@?1??__acrt_get_begin_thread_init_policy@@YA?AW4begin_thread_init_policy@@XZ@@@YA?AW4begin_thread_init_policy@@W4AppPolicyThreadInitializationType@@@Z@4JA 10086b70     libucrt:win_policies.obj
 0003:00003b74       ?state_cache@?1???$get_cached_win_policy@Udeveloper_information_policy_properties@?1??__acrt_get_developer_information_policy@@YA?AW4developer_information_policy@@XZ@@@YA?AW4developer_information_policy@@W4AppPolicyShowDeveloperDiagnostic@@@Z@4JA 10086b74     libucrt:win_policies.obj
 0003:00003b78       ?state_cache@?1???$get_cached_win_policy@Uwindowing_model_policy_properties@?1??__acrt_get_windowing_model_policy@@YA?AW4windowing_model_policy@@XZ@@@YA?AW4windowing_model_policy@@W4AppPolicyWindowingModel@@@Z@4JA 10086b78     libucrt:win_policies.obj
 0003:00003b80       ?module_handles@@3PAPAUHINSTANCE__@@A 10086b80     libucrt:winapi_thunks.obj
 0003:00003bd0       ?encoded_function_pointers@@3PAPAXA 10086bd0     libucrt:winapi_thunks.obj
 0003:00003c84       ?static_enum_proc@?1??enum_system_locales_ex_nolock@@YAHQ6GHPA_WKJ@Z@Z@4P6GH0KJ@ZA 10086c84     libucrt:winapi_thunks.obj
 0003:00003f04       ?internal_state@?1??_mbtowc_l@@9@4U_Mbstatet@@A 10086f04     libucrt:mbtowc.obj
 0003:00003f10       ?enable_percent_n@@3IA     10086f10     libucrt:printf_count_output.obj
 0003:00003f14       ?user_matherr@@3V?$dual_state_global@P6AHPAU_exception@@@Z@__crt_state_management@@A 10086f14     libucrt:matherr.obj
 0003:00003f24       ?fSystemSet@@3HA           10086f24     libucrt:mbctype.obj
 0003:00003f2b       ?initialized@?1??__acrt_initialize_multibyte@@9@4_NA 10086f2b     libucrt:mbctype.obj
 0003:00003f4c       ?__acrt_new_handler@@3V?$dual_state_global@P6AHI@Z@__crt_state_management@@A 10086f4c     libucrt:new_handler.obj
 0003:00003f50       ?__acrt_global_new_mode@@3V?$dual_state_global@J@__crt_state_management@@A 10086f50     libucrt:new_mode.obj
 0003:00003f60       ?mbst@?1??mbrlen@@9@4U_Mbstatet@@A 10086f60     libucrt:mbrtowc.obj
 0003:00003f6c       ?mbst@?1??mbrtowc@@9@4U_Mbstatet@@A 10086f6c     libucrt:mbrtowc.obj
 0003:00003f78       ?mbst@?1??_mbsrtowcs_helper@@YAIPA_WPAPBDIPAU_Mbstatet@@@Z@4U2@A 10086f78     libucrt:mbrtowc.obj
 0003:00003f88       ?internal_pst@?1??__mbrtoc32_utf8@__crt_mbstring@@YAIPA_UPBDIPAU_Mbstatet@@@Z@4U3@A 10086f88     libucrt:mbrtoc32.obj
 0003:00003f9c       __pmatherr_set             10086f9c     libucrt:libm_error.obj
 0003:00003fa0       ?internal_pst@?1??__c16rtomb_utf8@__crt_mbstring@@YAIPAD_SPAU_Mbstatet@@@Z@4U3@A 10086fa0     libucrt:c16rtomb.obj
 0004:000004e4       .idata$6                   1009c4e4     kernel32:KERNEL32.dll
