 homing_ldm_slrt

 Timestamp is 6107b48f (Mon Aug  2 11:02:07 2021)

 Preferred load address is 10000000

 Start         Length     Name                   Class
 0001:00000000 0006e128H .text$mn                CODE
 0001:0006e128 00001085H .text$x                 CODE
 0002:00000000 00000104H .CRT$XCA                DATA
 0002:00000104 00000104H .CRT$XCZ                DATA
 0002:00000208 00000104H .CRT$XIA                DATA
 0002:0000030c 00000110H .CRT$XIC                DATA
 0002:0000041c 00000104H .CRT$XIZ                DATA
 0002:00000520 00000104H .CRT$XPA                DATA
 0002:00000624 0000010cH .CRT$XPX                DATA
 0002:00000730 00000104H .CRT$XPXA               DATA
 0002:00000834 00000104H .CRT$XPZ                DATA
 0002:00000938 00000104H .CRT$XTA                DATA
 0002:00000a3c 00000104H .CRT$XTZ                DATA
 0002:00000b40 0000ef20H .rdata                  DATA
 0002:0000fa60 00000450H .rdata$r                DATA
 0002:0000feb0 00000128H .rdata$sxdata           DATA
 0002:0000ffd8 0000018cH .rdata$zzzdbg           DATA
 0002:00010164 00000104H .rtc$IAA                DATA
 0002:00010268 00000104H .rtc$IZZ                DATA
 0002:0001036c 00000104H .rtc$TAA                DATA
 0002:00010470 00000108H .rtc$TZZ                DATA
 0002:00010578 00000ce8H .xdata$x                DATA
 0002:00011260 000001e4H .edata                  DATA
 0003:00000000 00001e14H .data                   DATA
 0003:00001e14 0000024cH .data$r                 DATA
 0003:00002060 00016a4cH .bss                    DATA
 0004:00000000 000001b4H .idata$5                DATA
 0004:000001b4 00000014H .idata$2                DATA
 0004:000001c8 00000014H .idata$3                DATA
 0004:000001dc 000001b4H .idata$4                DATA
 0004:00000390 000007a2H .idata$6                DATA
 0005:00000000 00000104H .00cfg                  DATA

  Address         Publics by Value              Rva+Base       Lib:Object

 0000:00000000       ___guard_longjmp_table     00000000     <absolute>
 0000:00000000       ___guard_longjmp_count     00000000     <absolute>
 0000:00000000       ___dynamic_value_reloc_table 00000000     <absolute>
 0000:00000000       ___volatile_metadata       00000000     <absolute>
 0000:00000000       ___hybrid_code_map         00000000     <absolute>
 0000:00000000       ___hybrid_code_map_count   00000000     <absolute>
 0000:00000000       ___guard_fids_count        00000000     <absolute>
 0000:00000000       ___guard_iat_table         00000000     <absolute>
 0000:00000000       ___enclave_config          00000000     <absolute>
 0000:00000000       ___guard_fids_table        00000000     <absolute>
 0000:00000000       __except_list              00000000     <absolute>
 0000:00000000       ___hybrid_auxiliary_iat    00000000     <absolute>
 0000:00000000       ___guard_iat_count         00000000     <absolute>
 0000:00000008       ___safe_se_handler_count   00000008     <absolute>
 0000:00000100       ___guard_flags             00000100     <absolute>
 0000:00000000       ___ImageBase               10000000     <linker-defined>
 0001:000066a0       _MdlInitialize             100076a0 f   homing_ldm.obj
 0001:000066b0       _MdlInitializeSampleTimes  100076b0 f   homing_ldm.obj
 0001:000066c0       _MdlInitializeSizes        100076c0 f   homing_ldm.obj
 0001:000066d0       _MdlOutputs                100076d0 f   homing_ldm.obj
 0001:000066e0       _MdlStart                  100076e0 f   homing_ldm.obj
 0001:000068c0       _MdlTerminate              100078c0 f   homing_ldm.obj
 0001:00006970       _MdlUpdate                 10007970 f   homing_ldm.obj
 0001:00006ad0       _homing_ldm                10007ad0 f   homing_ldm.obj
 0001:00009260       _rt_mxCreateCharMatrixFromStrings 1000a260 f   rt_matrx.obj
 0001:000093c0       _rt_mxCreateDoubleMatrix   1000a3c0 f   rt_matrx.obj
 0001:00009420       _rt_mxCreateNumericArray   1000a420 f   rt_matrx.obj
 0001:00009490       _rt_mxCreateString         1000a490 f   rt_matrx.obj
 0001:00009520       _rt_mxDuplicateArray       1000a520 f   rt_matrx.obj
 0001:00009580       _rt_mxGetDimensions        1000a580 f   rt_matrx.obj
 0001:000095c0       _rt_mxGetEps               1000a5c0 f   rt_matrx.obj
 0001:000095d0       _rt_mxGetString            1000a5d0 f   rt_matrx.obj
 0001:00009650       _rtPrintfNoOp              1000a650 f   rt_printf.obj
 0001:00009660       _homing_ldm_GetCAPIStaticMap 1000a660 f   homing_ldm_capi.obj
 0001:00009670       _homing_ldm_InitializeDataMapInfo 1000a670 f   homing_ldm_capi.obj
 0001:00009700       _rtGetInf                  1000a700 f   rtGetInf.obj
 0001:00009730       _rtGetInfF                 1000a730 f   rtGetInf.obj
 0001:00009750       _rtGetMinusInf             1000a750 f   rtGetInf.obj
 0001:00009780       _rtGetMinusInfF            1000a780 f   rtGetInf.obj
 0001:000097a0       _rtGetNaN                  1000a7a0 f   rtGetNaN.obj
 0001:000097d0       _rtGetNaNF                 1000a7d0 f   rtGetNaN.obj
 0001:000097f0       _rtIsInf                   1000a7f0 f   rt_nonfinite.obj
 0001:00009830       _rtIsInfF                  1000a830 f   rt_nonfinite.obj
 0001:00009870       _rtIsNaN                   1000a870 f   rt_nonfinite.obj
 0001:00009880       _rtIsNaNF                  1000a880 f   rt_nonfinite.obj
 0001:00009890       _rt_InitInfAndNaN          1000a890 f   rt_nonfinite.obj
 0001:000098f0       _rt_CleanUpForStateLogWithMMI 1000a8f0 f   rt_logging_mmi.obj
 0001:00009a00       _rt_FillStateSigInfoFromMMI 1000aa00 f   rt_logging_mmi.obj
 0001:00009da0       _rtwCAPI_CountSysRan       1000ada0 f   rtw_modelmap_utils.obj
 0001:00009e40       _rtwCAPI_EncodePath        1000ae40 f   rtw_modelmap_utils.obj
 0001:00009f50       _rtwCAPI_FillSysRan        1000af50 f   rtw_modelmap_utils.obj
 0001:0000a040       _rtwCAPI_FreeFullPaths     1000b040 f   rtw_modelmap_utils.obj
 0001:0000a0d0       _rtwCAPI_GetFullStateBlockPath 1000b0d0 f   rtw_modelmap_utils.obj
 0001:0000a260       _rtwCAPI_GetNumContStateRecords 1000b260 f   rtw_modelmap_utils.obj
 0001:0000a320       _rtwCAPI_GetNumSigLogRecords 1000b320 f   rtw_modelmap_utils.obj
 0001:0000a370       _rtwCAPI_GetNumSigLogRecordsForRTWLogging 1000b370 f   rtw_modelmap_utils.obj
 0001:0000a410       _rtwCAPI_GetNumStateRecords 1000b410 f   rtw_modelmap_utils.obj
 0001:0000a460       _rtwCAPI_GetNumStateRecordsForRTWLogging 1000b460 f   rtw_modelmap_utils.obj
 0001:0000a500       _rtwCAPI_GetSigAddrFromMap 1000b500 f   rtw_modelmap_utils.obj
 0001:0000a5c0       _rtwCAPI_GetSigLogRecordInfo 1000b5c0 f   rtw_modelmap_utils.obj
 0001:0000a9f0       _rtwCAPI_GetStateRecordInfo 1000b9f0 f   rtw_modelmap_utils.obj
 0001:0000aeb0       _rtwCAPI_GetStateWidth     1000beb0 f   rtw_modelmap_utils.obj
 0001:0000af10       _rtwCAPI_HasStates         1000bf10 f   rtw_modelmap_utils.obj
 0001:0000af70       _rtwCAPI_UpdateFullPaths   1000bf70 f   rtw_modelmap_utils.obj
 0001:0000b150       ___local_stdio_printf_options 1000c150 f i rt_logging.obj
 0001:0000b160       __vfprintf_l               1000c160 f i rt_logging.obj
 0001:0000b190       __vsnprintf_l              1000c190 f i rt_logging.obj
 0001:0000b1d0       __vsprintf_l               1000c1d0 f i rt_logging.obj
 0001:0000b210       _fprintf                   1000c210 f i rt_logging.obj
 0001:0000b710       _printf                    1000c710 f i rt_logging.obj
 0001:0000b750       _rt_CreateLogVar           1000c750 f   rt_logging.obj
 0001:0000b7e0       _rt_CreateLogVarWithConvert 1000c7e0 f   rt_logging.obj
 0001:0000c110       _rt_CreateStructLogVar     1000d110 f   rt_logging.obj
 0001:0000ce90       _rt_GetMxIdFromDTypeId     1000de90 f   rt_logging.obj
 0001:0000cec0       _rt_GetMxIdFromDTypeIdForRSim 1000dec0 f   rt_logging.obj
 0001:0000fa50       _rt_StartDataLogging       10010a50 f   rt_logging.obj
 0001:0000ff10       _rt_StartDataLoggingWithStartTime 10010f10 f   rt_logging.obj
 0001:00010380       _rt_StopDataLogging        10011380 f   rt_logging.obj
 0001:000103a0       _rt_StopDataLoggingImpl    100113a0 f   rt_logging.obj
 0001:000107c0       _rt_UpdateLogVar           100117c0 f   rt_logging.obj
 0001:00011950       _rt_UpdateStructLogVar     10012950 f   rt_logging.obj
 0001:000119e0       _rt_UpdateTXXFYLogVars     100129e0 f   rt_logging.obj
 0001:00011d10       _rt_UpdateTXYLogVars       10012d10 f   rt_logging.obj
 0001:00011f50       _sprintf                   10012f50 f i rt_logging.obj
 0001:00011f90       _DllMain@12                10012f90 f   xpctarget.obj
 0001:00011fa0       _SLRTSetErrorStatus        10012fa0 f   xpctarget.obj
 0001:00011fc0       _changeStepSize            10012fc0 f   xpctarget.obj
 0001:00012030       _getDLMVersion             10013030 f   xpctarget.obj
 0001:00012040       _getRefMdlPath             10013040 f   xpctarget.obj
 0001:000120c0       _getRefMdlSignalNumber     100130c0 f   xpctarget.obj
 0001:00012170       _getrlmdlinfo              10013170 f   xpctarget.obj
 0001:00012350       _homing_ldm_ChangeStepSize 10013350 f   xpctarget.obj
 0001:000123c0       _updateDiscreteEvents      100133c0 f   xpctarget.obj
 0001:000123d0       _getNumRef                 100133d0 f   appmappingData.obj
 0001:000123e0       _vprintf                   100133e0 f i legacy_stdio.obj
 0001:00012420       _danipcim                  10013420 f   danipcim.obj
 0001:00012be0       _dinipcim                  10013be0 f   dinipcim.obj
 0001:00012fa0       _donipcim                  10013fa0 f   donipcim.obj
 0001:000134b0       _encnipcim                 100144b0 f   encnipcim.obj
 0001:00013b70       _niMIdentify               10014b70 f   xpcionim.obj
 0001:00013ce0       _niM_AISetup               10014ce0 f   xpcionim.obj
 0001:000140f0       _niM_AO_Setup              100150f0 f   xpcionim.obj
 0001:00014280       _niM_Cont_Pulse_Train_Generation 10015280 f   xpcionim.obj
 0001:000143c0       _niM_Counter_Reset_All     100153c0 f   xpcionim.obj
 0001:00014470       _niM_CtrArm                10015470 f   xpcionim.obj
 0001:00014490       _niM_CtrDisarm             10015490 f   xpcionim.obj
 0001:000144b0       _niM_CtrReadArm            100154b0 f   xpcionim.obj
 0001:000144d0       _niM_CtrReadDisarm         100154d0 f   xpcionim.obj
 0001:000144f0       _niM_PeriodConfigure       100154f0 f   xpcionim.obj
 0001:00014670       _niM_Private_Data          10015670 f   xpcionim.obj
 0001:00014c50       _niM_SetPFIFilter          10015c50 f   xpcionim.obj
 0001:00014cd0       _niM_SetPFI_DO             10015cd0 f   xpcionim.obj
 0001:00014d10       _niM_SetPFI_Select         10015d10 f   xpcionim.obj
 0001:00014d90       _niM_aiConfigureChannel    10015d90 f   xpcionim.obj
 0001:00014e00       _niM_aiGetScalingCoefficients 10015e00 f   xpcionim.obj
 0001:00014fd0       _niM_aiPolynomialScaler    10015fd0 f   xpcionim.obj
 0001:00015100       _niM_analogTriggerReset    10016100 f   xpcionim.obj
 0001:00015150       _niM_aoConfigureDAC        10016150 f   xpcionim.obj
 0001:000151a0       _niM_aoGetScalingCoefficients 100161a0 f   xpcionim.obj
 0001:00015250       _niM_aoLinearScaler        10016250 f   xpcionim.obj
 0001:00015280       _niM_configureTimebase     10016280 f   xpcionim.obj
 0001:000152a0       _niM_eepromReadMSeries     100162a0 f   xpcionim.obj
 0001:00015370       _niM_pllReset              10016370 f   xpcionim.obj
 0001:000153a0       _niM_resetCtr              100163a0 f   xpcionim.obj
 0001:000153c0       _niM_whichBank             100163c0 f   xpcionim.obj
 0001:00015400       _niMconfig                 10016400 f   xpcionim.obj
 0001:000154a0       _GetPCIDeviceFull          100164a0 f   xpcruntime:xpcimports.obj
 0001:000154e0       _ShowPCIDevice             100164e0 f   xpcruntime:xpcimports.obj
 0001:00015cc0       _xpcGetPciConfigAtSlot     10016cc0 f   xpcruntime:xpcimports.obj
 0001:00015fd0       _xpcInitProcs              10016fd0 f   xpcruntime:xpcimports.obj
 0001:00017330       _xpceuploadevent           10018330 f   xpcruntime:xpcimports.obj
 0001:00017340       __ftoui3                   10018340 f   LIBCMT:ftol3.obj
 0001:0001734f       __ftoul3                   1001834f f   LIBCMT:ftol3.obj
 0001:0001735e       __ftol3                    1001835e f   LIBCMT:ftol3.obj
 0001:0001736b       __ftol3_NaN                1001836b f   LIBCMT:ftol3.obj
 0001:00017383       __ftol3_work               10018383 f   LIBCMT:ftol3.obj
 0001:00017409       __ftol3_common             10018409 f   LIBCMT:ftol3.obj
 0001:000174cb       __ftol3_arg_error          100184cb f   LIBCMT:ftol3.obj
 0001:000174dd       __ftol3_except             100184dd f   LIBCMT:ftol3.obj
 0001:00017521       __dtoui3                   10018521 f   LIBCMT:ftol3.obj
 0001:00017530       __dtoul3                   10018530 f   LIBCMT:ftol3.obj
 0001:0001753f       __dtol3                    1001853f f   LIBCMT:ftol3.obj
 0001:0001754c       __dtol3_NaN                1001854c f   LIBCMT:ftol3.obj
 0001:00017569       __dtol3_work               10018569 f   LIBCMT:ftol3.obj
 0001:00017650       __ultod3                   10018650 f   LIBCMT:ftol3.obj
 0001:00017690       __ltod3                    10018690 f   LIBCMT:ftol3.obj
 0001:00017794       ___raise_securityfailure   10018794 f   LIBCMT:gs_report.obj
 0001:000177c6       ___report_gsfailure        100187c6 f   LIBCMT:gs_report.obj
 0001:000178fd       ___report_rangecheckfailure 100188fd f   LIBCMT:gs_report.obj
 0001:0001790c       ___report_securityfailure  1001890c f   LIBCMT:gs_report.obj
 0001:00017a0d       ___report_securityfailureEx 10018a0d f   LIBCMT:gs_report.obj
 0001:00017b66       @__security_check_cookie@4 10018b66 f   LIBCMT:secchk.obj
 0001:00017b7b       ___isa_available_init      10018b7b f   LIBCMT:cpu_disp.obj
 0001:0001815c       __CRT_INIT@12              1001915c f   LIBCMT:dll_dllmain.obj
 0001:00018167       __DllMainCRTStartup@12     10019167 f   LIBCMT:dll_dllmain.obj
 0001:000181f2       ___security_init_cookie    100191f2 f   LIBCMT:gs_support.obj
 0001:0001824f       ?__scrt_initialize_type_info@@YAXXZ 1001924f f   LIBCMT:tncleanup.obj
 0001:0001825e       ?__scrt_uninitialize_type_info@@YAXXZ 1001925e f   LIBCMT:tncleanup.obj
 0001:0001826d       ___local_stdio_scanf_options 1001926d f i LIBCMT:default_local_stdio_options.obj
 0001:00018273       ___scrt_initialize_default_local_stdio_options 10019273 f   LIBCMT:default_local_stdio_options.obj
 0001:00018297       ??$__crt_fast_decode_pointer@PAP6AXXZ@@YAPAP6AXXZQAP6AXXZ@Z 10019297 f i LIBCMT:utility.obj
 0001:000182b0       ??$__crt_fast_encode_pointer@PAP6AXXZ@@YAPAP6AXXZQAP6AXXZ@Z 100192b0 f i LIBCMT:utility.obj
 0001:000182d4       ?__crt_rotate_pointer_value@@YAIIH@Z 100192d4 f i LIBCMT:utility.obj
 0001:000182e4       ?configure_argv@__scrt_narrow_argv_policy@@SAHXZ 100192e4 f i LIBCMT:utility.obj
 0001:00018349       ?initialize_environment@__scrt_narrow_environment_policy@@SAHXZ 10019349 f i LIBCMT:utility.obj
 0001:0001838f       _NtCurrentTeb              1001938f f i LIBCMT:utility.obj
 0001:00018396       ___scrt_acquire_startup_lock 10019396 f   LIBCMT:utility.obj
 0001:000183d4       ___scrt_dllmain_after_initialize_c 100193d4 f   LIBCMT:utility.obj
 0001:00018409       ___scrt_dllmain_before_initialize_c 10019409 f   LIBCMT:utility.obj
 0001:0001841a       ___scrt_dllmain_crt_thread_attach 1001941a f   LIBCMT:utility.obj
 0001:00018440       ___scrt_dllmain_crt_thread_detach 10019440 f   LIBCMT:utility.obj
 0001:00018450       ___scrt_dllmain_exception_filter 10019450 f   LIBCMT:utility.obj
 0001:00018491       ___scrt_dllmain_uninitialize_c 10019491 f   LIBCMT:utility.obj
 0001:000184bc       ___scrt_dllmain_uninitialize_critical 100194bc f   LIBCMT:utility.obj
 0001:000184cc       ___scrt_initialize_crt     100194cc f   LIBCMT:utility.obj
 0001:00018513       ___scrt_initialize_onexit_tables 10019513 f   LIBCMT:utility.obj
 0001:000185e1       ___scrt_is_nonwritable_in_current_image 100195e1 f   LIBCMT:utility.obj
 0001:0001869a       ___scrt_release_startup_lock 1001969a f   LIBCMT:utility.obj
 0001:000186be       ___scrt_uninitialize_crt   100196be f   LIBCMT:utility.obj
 0001:000186f0       __onexit                   100196f0 f   LIBCMT:utility.obj
 0001:00018739       _at_quick_exit             10019739 f   LIBCMT:utility.obj
 0001:00018776       _atexit                    10019776 f   LIBCMT:utility.obj
 0001:00018790       ___scrt_get_dyn_tls_init_callback 10019790 f   LIBCMT:dyn_tls_init.obj
 0001:00018796       ___scrt_fastfail           10019796 f   LIBCMT:utility_desktop.obj
 0001:000188f6       ___scrt_get_show_window_mode 100198f6 f   LIBCMT:utility_desktop.obj
 0001:00018933       ___scrt_initialize_mta     10019933 f   LIBCMT:utility_desktop.obj
 0001:00018938       ___scrt_initialize_winrt   10019938 f   LIBCMT:utility_desktop.obj
 0001:0001893b       ___scrt_is_managed_app     1001993b f   LIBCMT:utility_desktop.obj
 0001:0001898e       ___scrt_set_unhandled_exception_filter 1001998e f   LIBCMT:utility_desktop.obj
 0001:0001899d       ___scrt_stub_for_initialize_mta 1001999d f   LIBCMT:utility_desktop.obj
 0001:0001899d       ___scrt_exe_initialize_mta 1001999d f   LIBCMT:utility_desktop.obj
 0001:000189a0       ___scrt_unhandled_exception_filter@4 100199a0 f   LIBCMT:utility_desktop.obj
 0001:000189f1       __crt_debugger_hook        100199f1 f   LIBCMT:utility_desktop.obj
 0001:000189fb       __RTC_Initialize           100199fb f   LIBCMT:initsect.obj
 0001:00018a32       __RTC_Terminate            10019a32 f   LIBCMT:initsect.obj
 0001:00018a70       __SEH_prolog4              10019a70 f   LIBCMT:sehprolg4.obj
 0001:00018ab6       __SEH_epilog4              10019ab6 f   LIBCMT:sehprolg4.obj
 0001:00018ae1       @_guard_check_icall_nop@4  10019ae1 f i LIBCMT:guard_support.obj
 0001:00018ae2       _ReadNoFence               10019ae2 f i LIBCMT:guard_support.obj
 0001:00018aee       _ReadPointerNoFence        10019aee f i LIBCMT:guard_support.obj
 0001:00018afa       __guard_icall_checks_enforced 10019afa f i LIBCMT:guard_support.obj
 0001:00018b10       __get_startup_argv_mode    10019b10 f   LIBCMT:argv_mode.obj
 0001:00018b14       ___scrt_is_ucrt_dll_in_use 10019b14 f   LIBCMT:ucrt_detection.obj
 0001:00018b23       _GetModuleHandleA@4        10019b23 f   kernel32:KERNEL32.dll
 0001:00018b29       _GetProcAddress@8          10019b29 f   kernel32:KERNEL32.dll
 0001:00018b2f       _UnhandledExceptionFilter@4 10019b2f f   kernel32:KERNEL32.dll
 0001:00018b35       _SetUnhandledExceptionFilter@4 10019b35 f   kernel32:KERNEL32.dll
 0001:00018b3b       _GetCurrentProcess@0       10019b3b f   kernel32:KERNEL32.dll
 0001:00018b41       _TerminateProcess@8        10019b41 f   kernel32:KERNEL32.dll
 0001:00018b47       _IsProcessorFeaturePresent@4 10019b47 f   kernel32:KERNEL32.dll
 0001:00018b4d       _QueryPerformanceCounter@4 10019b4d f   kernel32:KERNEL32.dll
 0001:00018b53       _GetCurrentProcessId@0     10019b53 f   kernel32:KERNEL32.dll
 0001:00018b59       _GetCurrentThreadId@0      10019b59 f   kernel32:KERNEL32.dll
 0001:00018b5f       _GetSystemTimeAsFileTime@4 10019b5f f   kernel32:KERNEL32.dll
 0001:00018b65       _InitializeSListHead@4     10019b65 f   kernel32:KERNEL32.dll
 0001:00018b6b       _IsDebuggerPresent@0       10019b6b f   kernel32:KERNEL32.dll
 0001:00018b71       _GetStartupInfoW@4         10019b71 f   kernel32:KERNEL32.dll
 0001:00018b77       _GetModuleHandleW@4        10019b77 f   kernel32:KERNEL32.dll
 0001:00018b80       _memset                    10019b80 f   libvcruntime:memset.obj
 0001:00018d30       _memcpy                    10019d30 f   libvcruntime:memcpy.obj
 0001:00019410       _strchr                    1001a410 f   libvcruntime:strchr.obj
 0001:0001947e       ___from_strstr_to_strchr   1001a47e     libvcruntime:strchr.obj
 0001:00019590       _memmove                   1001a590 f   libvcruntime:memmove.obj
 0001:00019cb0       __except_handler4          1001acb0 f   libvcruntime:chandler4.obj
 0001:00019e6c       ??$?RD@__crt_internal_free_policy@@QBEXQBD@Z 1001ae6c f i libvcruntime:std_type_info.obj
 0001:00019e80       ??$?RX@__crt_internal_free_policy@@QBEXQBX@Z 1001ae80 f i libvcruntime:std_type_info.obj
 0001:00019e94       ??$__crt_interlocked_compare_exchange_pointer@$$CBDPAD$$T@@YAPBDPDSBDQAD$$T@Z 1001ae94 f i libvcruntime:std_type_info.obj
 0001:00019eaa       ??$__crt_interlocked_read_pointer@$$CBD@@YAPBDPDSBD@Z 1001aeaa f i libvcruntime:std_type_info.obj
 0001:00019eb6       ??0?$__crt_unique_heap_ptr@DU__crt_internal_free_policy@@@@QAE@QAD@Z 1001aeb6 f i libvcruntime:std_type_info.obj
 0001:00019ec7       ??0?$__crt_unique_heap_ptr@XU__crt_internal_free_policy@@@@QAE@QAX@Z 1001aec7 f i libvcruntime:std_type_info.obj
 0001:00019ed8       ??1?$__crt_unique_heap_ptr@DU__crt_internal_free_policy@@@@QAE@XZ 1001aed8 f i libvcruntime:std_type_info.obj
 0001:00019eec       ??1?$__crt_unique_heap_ptr@XU__crt_internal_free_policy@@@@QAE@XZ 1001aeec f i libvcruntime:std_type_info.obj
 0001:00019f0c       ??B?$__crt_unique_heap_ptr@DU__crt_internal_free_policy@@@@QBE_NXZ 1001af0c f i libvcruntime:std_type_info.obj
 0001:00019f13       ??B?$__crt_unique_heap_ptr@XU__crt_internal_free_policy@@@@QBE_NXZ 1001af13 f i libvcruntime:std_type_info.obj
 0001:00019f42       ?__crt_interlocked_read_32@@YAHPDH@Z 1001af42 f i libvcruntime:std_type_info.obj
 0001:00019f4e       ?detach@?$__crt_unique_heap_ptr@XU__crt_internal_free_policy@@@@QAEPAXXZ 1001af4e f i libvcruntime:std_type_info.obj
 0001:00019f54       ?get@?$__crt_unique_heap_ptr@DU__crt_internal_free_policy@@@@QBEPADXZ 1001af54 f i libvcruntime:std_type_info.obj
 0001:00019f57       ?get@?$__crt_unique_heap_ptr@XU__crt_internal_free_policy@@@@QBEPAXXZ 1001af57 f i libvcruntime:std_type_info.obj
 0001:00019f5a       ?is_valid@?$__crt_unique_heap_ptr@DU__crt_internal_free_policy@@@@QBE_NXZ 1001af5a f i libvcruntime:std_type_info.obj
 0001:00019f61       ?is_valid@?$__crt_unique_heap_ptr@XU__crt_internal_free_policy@@@@QBE_NXZ 1001af61 f i libvcruntime:std_type_info.obj
 0001:00019f68       ?release@?$__crt_unique_heap_ptr@DU__crt_internal_free_policy@@@@QAEXXZ 1001af68 f i libvcruntime:std_type_info.obj
 0001:00019f7c       ?release@?$__crt_unique_heap_ptr@XU__crt_internal_free_policy@@@@QAEXXZ 1001af7c f i libvcruntime:std_type_info.obj
 0001:00019f90       ___std_type_info_compare   1001af90 f   libvcruntime:std_type_info.obj
 0001:00019fdb       ___std_type_info_destroy_list 1001afdb f   libvcruntime:std_type_info.obj
 0001:0001a006       ___std_type_info_hash      1001b006 f   libvcruntime:std_type_info.obj
 0001:0001a035       ___std_type_info_name      1001b035 f   libvcruntime:std_type_info.obj
 0001:0001a128       ___vcrt_initialize         1001b128 f   libvcruntime:initialization.obj
 0001:0001a15b       ___vcrt_thread_attach      1001b15b f   libvcruntime:initialization.obj
 0001:0001a168       ___vcrt_thread_detach      1001b168 f   libvcruntime:initialization.obj
 0001:0001a175       ___vcrt_uninitialize       1001b175 f   libvcruntime:initialization.obj
 0001:0001a19b       ___vcrt_uninitialize_critical 1001b19b f   libvcruntime:initialization.obj
 0001:0001a1b0       __local_unwind4            1001b1b0 f   libvcruntime:exsup4.obj
 0001:0001a288       __seh_longjmp_unwind4@4    1001b288 f   libvcruntime:exsup4.obj
 0001:0001a2b0       @_EH4_CallFilterFunc@8     1001b2b0 f   libvcruntime:exsup4.obj
 0001:0001a2c8       @_EH4_TransferToHandler@8  1001b2c8 f   libvcruntime:exsup4.obj
 0001:0001a2e4       @_EH4_GlobalUnwind2@8      1001b2e4 f   libvcruntime:exsup4.obj
 0001:0001a300       @_EH4_LocalUnwind@16       1001b300 f   libvcruntime:exsup4.obj
 0001:0001a37d       ___except_validate_context_record 1001b37d f   libvcruntime:jbcxrval.obj
 0001:0001a3b9       ___except_validate_jump_buffer 1001b3b9 f   libvcruntime:jbcxrval.obj
 0001:0001a3f1       ___except_validate_jump_buffer_common 1001b3f1 f i libvcruntime:jbcxrval.obj
 0001:0001a438       ??0Block@_HeapManager@@QAE@XZ 1001b438 f i libvcruntime:undname.obj
 0001:0001a43e       ??0DName@@QAE@AAPBDD@Z     1001b43e f   libvcruntime:undname.obj
 0001:0001a51c       ??0DName@@QAE@ABV0@@Z      1001b51c f i libvcruntime:undname.obj
 0001:0001a537       ??0DName@@QAE@D@Z          1001b537 f   libvcruntime:undname.obj
 0001:0001a565       ??0DName@@QAE@PAV0@@Z      1001b565 f   libvcruntime:undname.obj
 0001:0001a5bf       ??0DName@@QAE@PBD@Z        1001b5bf f   libvcruntime:undname.obj
 0001:0001a5fe       ??0DName@@QAE@W4DNameStatus@@@Z 1001b5fe f   libvcruntime:undname.obj
 0001:0001a64e       ??0DName@@QAE@XZ           1001b64e f i libvcruntime:undname.obj
 0001:0001a65a       ??0DName@@QAE@_J@Z         1001b65a f   libvcruntime:undname.obj
 0001:0001a709       ??0DName@@QAE@_K@Z         1001b709 f   libvcruntime:undname.obj
 0001:0001a788       ??0DNameNode@@IAE@XZ       1001b788 f i libvcruntime:undname.obj
 0001:0001a793       ??0Replicator@@QAE@XZ      1001b793 f i libvcruntime:undname.obj
 0001:0001a7a4       ??0UnDecorator@@QAE@PBDP6APADJ@ZK@Z 1001b7a4 f i libvcruntime:undname.obj
 0001:0001a803       ??0charNode@@QAE@D@Z       1001b803 f i libvcruntime:undname.obj
 0001:0001a81d       ??0pDNameNode@@QAE@PAVDName@@@Z 1001b81d f   libvcruntime:undname.obj
 0001:0001a84f       ??0pairNode@@QAE@PBVDNameNode@@0@Z 1001b84f f i libvcruntime:undname.obj
 0001:0001a875       ??0pcharNode@@QAE@PBDH@Z   1001b875 f   libvcruntime:undname.obj
 0001:0001a8eb       ??2@YAPAXIAAV_HeapManager@@H@Z 1001b8eb f i libvcruntime:undname.obj
 0001:0001a905       ??4DName@@QAEAAV0@ABV0@@Z  1001b905 f   libvcruntime:undname.obj
 0001:0001a920       ??4DName@@QAEAAV0@D@Z      1001b920 f i libvcruntime:undname.obj
 0001:0001a94e       ??4DName@@QAEAAV0@PAV0@@Z  1001b94e f   libvcruntime:undname.obj
 0001:0001a9a0       ??4DName@@QAEAAV0@PBD@Z    1001b9a0 f   libvcruntime:undname.obj
 0001:0001a9d5       ??4DName@@QAEAAV0@W4DNameStatus@@@Z 1001b9d5 f   libvcruntime:undname.obj
 0001:0001aa13       ??AReplicator@@QBE?AVDName@@H@Z 1001ba13 f   libvcruntime:undname.obj
 0001:0001aa6a       ??H@YA?AVDName@@DABV0@@Z   1001ba6a f i libvcruntime:undname.obj
 0001:0001aa94       ??H@YA?AVDName@@PBDABV0@@Z 1001ba94 f i libvcruntime:undname.obj
 0001:0001aabe       ??H@YA?AVDName@@W4DNameStatus@@ABV0@@Z 1001babe f i libvcruntime:undname.obj
 0001:0001aae8       ??HDName@@QBE?AV0@ABV0@@Z  1001bae8 f   libvcruntime:undname.obj
 0001:0001ab12       ??HDName@@QBE?AV0@D@Z      1001bb12 f   libvcruntime:undname.obj
 0001:0001ab3c       ??HDName@@QBE?AV0@PAV0@@Z  1001bb3c f   libvcruntime:undname.obj
 0001:0001ab66       ??HDName@@QBE?AV0@PBD@Z    1001bb66 f   libvcruntime:undname.obj
 0001:0001ab90       ??HDName@@QBE?AV0@W4DNameStatus@@@Z 1001bb90 f   libvcruntime:undname.obj
 0001:0001abba       ??YDName@@QAEAAV0@ABV0@@Z  1001bbba f   libvcruntime:undname.obj
 0001:0001ac0b       ??YDName@@QAEAAV0@D@Z      1001bc0b f   libvcruntime:undname.obj
 0001:0001ac6f       ??YDName@@QAEAAV0@PAV0@@Z  1001bc6f f   libvcruntime:undname.obj
 0001:0001aced       ??YDName@@QAEAAV0@PBD@Z    1001bced f   libvcruntime:undname.obj
 0001:0001ad66       ??YDName@@QAEAAV0@W4DNameStatus@@@Z 1001bd66 f   libvcruntime:undname.obj
 0001:0001adb6       ??YReplicator@@QAEAAV0@ABVDName@@@Z 1001bdb6 f   libvcruntime:undname.obj
 0001:0001ae12       ??_5DName@@QAEAAV0@ABV0@@Z 1001be12 f   libvcruntime:undname.obj
 0001:0001ae35       ?Constructor@_HeapManager@@QAEXP6APAXI@ZP6AXPAX@Z@Z 1001be35 f i libvcruntime:undname.obj
 0001:0001ae59       ?Destructor@_HeapManager@@QAEXXZ 1001be59 f i libvcruntime:undname.obj
 0001:0001ae9f       ?UScore@UnDecorator@@SAPBDW4Tokens@@@Z 1001be9f f   libvcruntime:undname.obj
 0001:0001aec5       ?append@DName@@AAEXPBVDNameNode@@@Z 1001bec5 f   libvcruntime:undname.obj
 0001:0001af1c       ?composeDeclaration@UnDecorator@@CA?AVDName@@ABV2@@Z 1001bf1c f i libvcruntime:undname.obj
 0001:0001bf30       ?doAccessSpecifiers@UnDecorator@@SAHXZ 1001cf30 f i libvcruntime:undname.obj
 0001:0001bf41       ?doAllocationLanguage@UnDecorator@@SAHXZ 1001cf41 f i libvcruntime:undname.obj
 0001:0001bf52       ?doAllocationModel@UnDecorator@@SAHXZ 1001cf52 f i libvcruntime:undname.obj
 0001:0001bf63       ?doEcsu@UnDecorator@@SAHXZ 1001cf63 f i libvcruntime:undname.obj
 0001:0001bf74       ?doEllipsis@UnDecorator@@SAHXZ 1001cf74 f i libvcruntime:undname.obj
 0001:0001bf85       ?doFunctionReturns@UnDecorator@@SAHXZ 1001cf85 f i libvcruntime:undname.obj
 0001:0001bf96       ?doMSKeywords@UnDecorator@@SAHXZ 1001cf96 f i libvcruntime:undname.obj
 0001:0001bfa6       ?doMemberTypes@UnDecorator@@SAHXZ 1001cfa6 f i libvcruntime:undname.obj
 0001:0001bfb7       ?doNameOnly@UnDecorator@@SAHXZ 1001cfb7 f i libvcruntime:undname.obj
 0001:0001bfc4       ?doNoIdentCharCheck@UnDecorator@@SAHXZ 1001cfc4 f i libvcruntime:undname.obj
 0001:0001bfd1       ?doPchar@DName@@AAEXPBDH@Z 1001cfd1 f   libvcruntime:undname.obj
 0001:0001c078       ?doPtr64@UnDecorator@@SAHXZ 1001d078 f i libvcruntime:undname.obj
 0001:0001c089       ?doRestrictionSpec@UnDecorator@@SAHXZ 1001d089 f i libvcruntime:undname.obj
 0001:0001c09a       ?doThisTypes@UnDecorator@@SAHXZ 1001d09a f i libvcruntime:undname.obj
 0001:0001c0b0       ?doThrowTypes@UnDecorator@@SAHXZ 1001d0b0 f i libvcruntime:undname.obj
 0001:0001c0c1       ?doTypeOnly@UnDecorator@@SAHXZ 1001d0c1 f i libvcruntime:undname.obj
 0001:0001c0ce       ?doUnderScore@UnDecorator@@SAHXZ 1001d0ce f i libvcruntime:undname.obj
 0001:0001c0db       ?getArgumentList@UnDecorator@@CA?AVDName@@XZ 1001d0db f   libvcruntime:undname.obj
 0001:0001c20e       ?getArgumentTypes@UnDecorator@@CA?AVDName@@XZ 1001d20e f   libvcruntime:undname.obj
 0001:0001c30a       ?getArrayType@UnDecorator@@CA?AVDName@@ABV2@@Z 1001d30a f i libvcruntime:undname.obj
 0001:0001c527       ?getBasedType@UnDecorator@@CA?AVDName@@XZ 1001d527 f   libvcruntime:undname.obj
 0001:0001c5e5       ?getBasicDataType@UnDecorator@@CA?AVDName@@ABV2@@Z 1001d5e5 f   libvcruntime:undname.obj
 0001:0001cabb       ?getCHPEName@UnDecorator@@QAEPADPADH@Z 1001dabb f i libvcruntime:undname.obj
 0001:0001cbd1       ?getCallIndex@UnDecorator@@CA?AVDName@@XZ 1001dbd1 f i libvcruntime:undname.obj
 0001:0001cbea       ?getCallingConvention@UnDecorator@@CA?AVDName@@XZ 1001dbea f   libvcruntime:undname.obj
 0001:0001ccf1       ?getDataIndirectType@UnDecorator@@CA?AVDName@@ABV2@PBD0H@Z 1001dcf1 f   libvcruntime:undname.obj
 0001:0001d455       ?getDataIndirectType@UnDecorator@@CA?AVDName@@XZ 1001e455 f i libvcruntime:undname.obj
 0001:0001d493       ?getDataType@UnDecorator@@CA?AVDName@@PAV2@@Z 1001e493 f   libvcruntime:undname.obj
 0001:0001d589       ?getDecoratedName@UnDecorator@@CA?AVDName@@XZ 1001e589 f   libvcruntime:undname.obj
 0001:0001d85b       ?getDimension@UnDecorator@@CA?AVDName@@_N@Z 1001e85b f   libvcruntime:undname.obj
 0001:0001d9c1       ?getDispatchTarget@UnDecorator@@CA?AVDName@@XZ 1001e9c1 f   libvcruntime:undname.obj
 0001:0001da2a       ?getDisplacement@UnDecorator@@CA?AVDName@@XZ 1001ea2a f i libvcruntime:undname.obj
 0001:0001da43       ?getECSUDataType@UnDecorator@@CA?AVDName@@XZ 1001ea43 f   libvcruntime:undname.obj
 0001:0001dba1       ?getECSUName@UnDecorator@@CA?AVDName@@XZ 1001eba1 f i libvcruntime:undname.obj
 0001:0001dbb6       ?getEnumType@UnDecorator@@CA?AVDName@@XZ 1001ebb6 f i libvcruntime:undname.obj
 0001:0001dce2       ?getExtendedDataIndirectType@UnDecorator@@CA?AVDName@@AAPBDAA_NH@Z 1001ece2 f   libvcruntime:undname.obj
 0001:0001df06       ?getExternalDataType@UnDecorator@@CA?AVDName@@ABV2@@Z 1001ef06 f i libvcruntime:undname.obj
 0001:0001df86       ?getFunctionIndirectType@UnDecorator@@CA?AVDName@@ABV2@@Z 1001ef86 f   libvcruntime:undname.obj
 0001:0001e454       ?getGuardNumber@UnDecorator@@CA?AVDName@@XZ 1001f454 f i libvcruntime:undname.obj
 0001:0001e46d       ?getLastChar@DName@@QBEDXZ 1001f46d f i libvcruntime:undname.obj
 0001:0001e495       ?getLastChar@DNameStatusNode@@UBEDXZ 1001f495 f i libvcruntime:undname.obj
 0001:0001e4a4       ?getLastChar@charNode@@UBEDXZ 1001f4a4 f i libvcruntime:undname.obj
 0001:0001e4a8       ?getLastChar@pDNameNode@@UBEDXZ 1001f4a8 f i libvcruntime:undname.obj
 0001:0001e4b9       ?getLastChar@pairNode@@UBEDXZ 1001f4b9 f i libvcruntime:undname.obj
 0001:0001e4fb       ?getLastChar@pcharNode@@UBEDXZ 1001f4fb f i libvcruntime:undname.obj
 0001:0001e511       ?getLexicalFrame@UnDecorator@@CA?AVDName@@XZ 1001f511 f i libvcruntime:undname.obj
 0001:0001e55f       ?getMemory@_HeapManager@@QAEPAXIH@Z 1001f55f f   libvcruntime:undname.obj
 0001:0001e607       ?getNoexcept@UnDecorator@@CA?AVDName@@XZ 1001f607 f   libvcruntime:undname.obj
 0001:0001e65d       ?getNumberOfDimensions@UnDecorator@@CAHXZ 1001f65d f   libvcruntime:undname.obj
 0001:0001e6d6       ?getOperatorName@UnDecorator@@CA?AVDName@@_NPA_N@Z 1001f6d6 f i libvcruntime:undname.obj
 0001:0001eec4       ?getPointerType@UnDecorator@@CA?AVDName@@ABV2@0@Z 1001fec4 f i libvcruntime:undname.obj
 0001:0001eee9       ?getPointerTypeArray@UnDecorator@@CA?AVDName@@ABV2@0@Z 1001fee9 f i libvcruntime:undname.obj
 0001:0001ef0e       ?getPrimaryDataType@UnDecorator@@CA?AVDName@@ABV2@@Z 1001ff0e f   libvcruntime:undname.obj
 0001:0001f16b       ?getPtrRefDataType@UnDecorator@@CA?AVDName@@ABV2@H@Z 1002016b f   libvcruntime:undname.obj
 0001:0001f2de       ?getPtrRefType@UnDecorator@@CA?AVDName@@ABV2@0PBD@Z 100202de f   libvcruntime:undname.obj
 0001:0001f416       ?getReferenceType@UnDecorator@@CA?AVDName@@ABV2@0PBD@Z 10020416 f i libvcruntime:undname.obj
 0001:0001f439       ?getRestrictionSpec@UnDecorator@@CA?AVDName@@XZ 10020439 f   libvcruntime:undname.obj
 0001:0001f570       ?getReturnType@UnDecorator@@CA?AVDName@@PAV2@@Z 10020570 f   libvcruntime:undname.obj
 0001:0001f5aa       ?getScope@UnDecorator@@CA?AVDName@@XZ 100205aa f   libvcruntime:undname.obj
 0001:0001fa23       ?getScopedName@UnDecorator@@CA?AVDName@@XZ 10020a23 f   libvcruntime:undname.obj
 0001:0001fb2c       ?getSignedDimension@UnDecorator@@CA?AVDName@@XZ 10020b2c f   libvcruntime:undname.obj
 0001:0001fb91       ?getStorageConvention@UnDecorator@@CA?AVDName@@XZ 10020b91 f i libvcruntime:undname.obj
 0001:0001fba6       ?getString@DName@@QBEPADPAD0@Z 10020ba6 f i libvcruntime:undname.obj
 0001:0001fbde       ?getString@DName@@QBEPADPADH@Z 10020bde f i libvcruntime:undname.obj
 0001:0001fc49       ?getString@DNameStatusNode@@UBEPADPAD0@Z 10020c49 f i libvcruntime:undname.obj
 0001:0001fc79       ?getString@charNode@@UBEPADPAD0@Z 10020c79 f i libvcruntime:undname.obj
 0001:0001fc93       ?getString@pDNameNode@@UBEPADPAD0@Z 10020c93 f i libvcruntime:undname.obj
 0001:0001fcaf       ?getString@pairNode@@UBEPADPAD0@Z 10020caf f i libvcruntime:undname.obj
 0001:0001fd06       ?getString@pcharNode@@UBEPADPAD0@Z 10020d06 f i libvcruntime:undname.obj
 0001:0001fd27       ?getStringEncoding@UnDecorator@@CA?AVDName@@PBDH@Z 10020d27 f   libvcruntime:undname.obj
 0001:0001fe03       ?getStringHelper@@YAPADPADPBD1H@Z 10020e03 f i libvcruntime:undname.obj
 0001:0001fe47       ?getSymbolName@UnDecorator@@CA?AVDName@@XZ 10020e47 f i libvcruntime:undname.obj
 0001:0001fea1       ?getTemplateArgumentList@UnDecorator@@CA?AVDName@@XZ 10020ea1 f   libvcruntime:undname.obj
 0001:000201e5       ?getTemplateConstant@UnDecorator@@CA?AVDName@@XZ 100211e5 f   libvcruntime:undname.obj
 0001:000205e3       ?getTemplateName@UnDecorator@@CA?AVDName@@_N@Z 100215e3 f   libvcruntime:undname.obj
 0001:0002079d       ?getThisType@UnDecorator@@CA?AVDName@@XZ 1002179d f i libvcruntime:undname.obj
 0001:000207dc       ?getThrowTypes@UnDecorator@@CA?AVDName@@XZ 100217dc f   libvcruntime:undname.obj
 0001:00020807       ?getTypeEncoding@UnDecorator@@CAHXZ 10021807 f i libvcruntime:undname.obj
 0001:00020bf9       ?getUndecoratedName@UnDecorator@@QAEPADPADH@Z 10021bf9 f i libvcruntime:undname.obj
 0001:00020cee       ?getVCallThunkType@UnDecorator@@CA?AVDName@@XZ 10021cee f i libvcruntime:undname.obj
 0001:00020d46       ?getVbTableType@UnDecorator@@CA?AVDName@@ABV2@@Z 10021d46 f i libvcruntime:undname.obj
 0001:00020d60       ?getVdispMapType@UnDecorator@@CA?AVDName@@ABV2@@Z 10021d60 f i libvcruntime:undname.obj
 0001:00020dc9       ?getVfTableType@UnDecorator@@CA?AVDName@@ABV2@@Z 10021dc9 f i libvcruntime:undname.obj
 0001:00020f84       ?getZName@UnDecorator@@CA?AVDName@@_N0@Z 10021f84 f   libvcruntime:undname.obj
 0001:00021202       ?haveTemplateParameters@UnDecorator@@SAHXZ 10022202 f i libvcruntime:undname.obj
 0001:0002120f       ?isArray@DName@@QBEHXZ     1002220f f i libvcruntime:undname.obj
 0001:0002121b       ?isComArray@DName@@QBEHXZ  1002221b f i libvcruntime:undname.obj
 0001:00021227       ?isEmpty@DName@@QBEHXZ     10022227 f i libvcruntime:undname.obj
 0001:00021231       ?isFull@Replicator@@QBEHXZ 10022231 f i libvcruntime:undname.obj
 0001:0002123c       ?isNoTE@DName@@QBEHXZ      1002223c f i libvcruntime:undname.obj
 0001:00021248       ?isPinPtr@DName@@QBEHXZ    10022248 f i libvcruntime:undname.obj
 0001:00021254       ?isPtrRef@DName@@QBEHXZ    10022254 f i libvcruntime:undname.obj
 0001:00021260       ?isUDC@DName@@QBEHXZ       10022260 f i libvcruntime:undname.obj
 0001:00021275       ?isUDTThunk@DName@@QBEHXZ  10022275 f i libvcruntime:undname.obj
 0001:0002128a       ?isVCallThunk@DName@@QBEHXZ 1002228a f i libvcruntime:undname.obj
 0001:00021296       ?isValid@DName@@QBEHXZ     10022296 f i libvcruntime:undname.obj
 0001:000212a2       ?length@DName@@QBEHXZ      100222a2 f i libvcruntime:undname.obj
 0001:000212c8       ?length@DNameStatusNode@@UBEHXZ 100222c8 f i libvcruntime:undname.obj
 0001:000212cc       ?length@charNode@@UBEHXZ   100222cc f i libvcruntime:undname.obj
 0001:000212d0       ?length@pDNameNode@@UBEHXZ 100222d0 f i libvcruntime:undname.obj
 0001:000212e1       ?length@pairNode@@UBEHXZ   100222e1 f i libvcruntime:undname.obj
 0001:00021338       ?length@pcharNode@@UBEHXZ  10022338 f i libvcruntime:undname.obj
 0001:0002133c       ?make@DNameStatusNode@@SAPBV1@W4DNameStatus@@@Z 1002233c f i libvcruntime:undname.obj
 0001:0002135f       ?parseDecoratedName@UnDecorator@@CA?AVDName@@XZ 1002235f f   libvcruntime:undname.obj
 0001:00021488       ?setIsArray@DName@@QAEXXZ  10022488 f i libvcruntime:undname.obj
 0001:00021492       ?setIsComArray@DName@@QAEXXZ 10022492 f i libvcruntime:undname.obj
 0001:0002149c       ?setIsNoTE@DName@@QAEXXZ   1002249c f i libvcruntime:undname.obj
 0001:000214a6       ?setIsPinPtr@DName@@QAEXXZ 100224a6 f i libvcruntime:undname.obj
 0001:000214b0       ?setIsUDC@DName@@QAEXXZ    100224b0 f i libvcruntime:undname.obj
 0001:000214c0       ?setIsVCallThunk@DName@@QAEXXZ 100224c0 f i libvcruntime:undname.obj
 0001:000214ca       ?setPtrRef@DName@@QAEAAV1@XZ 100224ca f i libvcruntime:undname.obj
 0001:000214d6       ?status@DName@@QBE?AW4DNameStatus@@XZ 100224d6 f i libvcruntime:undname.obj
 0001:0002155b       ___unDName                 1002255b f   libvcruntime:undname.obj
 0001:00021586       ___unDNameEx               10022586 f   libvcruntime:undname.obj
 0001:0002164c       __vsprintf_s_l             1002264c f i libvcruntime:undname.obj
 0001:00021684       _sprintf_s                 10022684 f i libvcruntime:undname.obj
 0001:000216a7       _unDNameGenerateCHPE       100226a7 f   libvcruntime:undname.obj
 0001:0002171a       ??$?RU__vcrt_ptd@@@__crt_internal_free_policy@@QBEXQBU__vcrt_ptd@@@Z 1002271a f i libvcruntime:per_thread_data.obj
 0001:0002172e       ??0?$__crt_unique_heap_ptr@U__vcrt_ptd@@U__crt_internal_free_policy@@@@QAE@QAU__vcrt_ptd@@@Z 1002272e f i libvcruntime:per_thread_data.obj
 0001:00021751       ??1?$__crt_unique_heap_ptr@U__vcrt_ptd@@U__crt_internal_free_policy@@@@QAE@XZ 10022751 f i libvcruntime:per_thread_data.obj
 0001:00021770       ??B?$__crt_unique_heap_ptr@U__vcrt_ptd@@U__crt_internal_free_policy@@@@QBE_NXZ 10022770 f i libvcruntime:per_thread_data.obj
 0001:00021777       ?detach@?$__crt_unique_heap_ptr@U__vcrt_ptd@@U__crt_internal_free_policy@@@@QAEPAU__vcrt_ptd@@XZ 10022777 f i libvcruntime:per_thread_data.obj
 0001:0002177d       ?get@?$__crt_unique_heap_ptr@U__vcrt_ptd@@U__crt_internal_free_policy@@@@QBEPAU__vcrt_ptd@@XZ 1002277d f i libvcruntime:per_thread_data.obj
 0001:00021780       ?is_valid@?$__crt_unique_heap_ptr@U__vcrt_ptd@@U__crt_internal_free_policy@@@@QBE_NXZ 10022780 f i libvcruntime:per_thread_data.obj
 0001:00021787       ?release@?$__crt_unique_heap_ptr@U__vcrt_ptd@@U__crt_internal_free_policy@@@@QAEXXZ 10022787 f i libvcruntime:per_thread_data.obj
 0001:000217bb       ___vcrt_freefls@4          100227bb f   libvcruntime:per_thread_data.obj
 0001:000217de       ___vcrt_freeptd            100227de f   libvcruntime:per_thread_data.obj
 0001:00021821       ___vcrt_getptd             10022821 f   libvcruntime:per_thread_data.obj
 0001:00021832       ___vcrt_getptd_noexit      10022832 f   libvcruntime:per_thread_data.obj
 0001:000218e8       ___vcrt_getptd_noinit      100228e8 f   libvcruntime:per_thread_data.obj
 0001:0002192c       ___vcrt_initialize_ptd     1002292c f   libvcruntime:per_thread_data.obj
 0001:0002196b       ___vcrt_uninitialize_ptd   1002296b f   libvcruntime:per_thread_data.obj
 0001:0002198c       ___vcrt_initialize_locks   1002298c f   libvcruntime:locks.obj
 0001:000219d7       ___vcrt_lock               100229d7 f   libvcruntime:locks.obj
 0001:000219f1       ___vcrt_uninitialize_locks 100229f1 f   libvcruntime:locks.obj
 0001:00021a2b       ___vcrt_unlock             10022a2b f   libvcruntime:locks.obj
 0001:00021a45       ??$?BX@__crt_fast_encoded_nullptr_t@@QBEPAXXZ 10022a45 f i libvcruntime:winapi_downlevel.obj
 0001:00021a4b       ??$__crt_fast_decode_pointer@PAX@@YAPAXQAX@Z 10022a4b f i libvcruntime:winapi_downlevel.obj
 0001:00021a64       ??$__crt_fast_encode_pointer@PAX@@YAPAXQAX@Z 10022a64 f i libvcruntime:winapi_downlevel.obj
 0001:00021a88       ??$__crt_interlocked_exchange_pointer@UHINSTANCE__@@PAU1@@@YAPAUHINSTANCE__@@PDSAU0@QAU0@@Z 10022a88 f i libvcruntime:winapi_downlevel.obj
 0001:00021a98       ??$__crt_interlocked_exchange_pointer@UHINSTANCE__@@PAX@@YAPAUHINSTANCE__@@PDSAU0@QAX@Z 10022a98 f i libvcruntime:winapi_downlevel.obj
 0001:00021aa8       ??$__crt_interlocked_exchange_pointer@XPAX@@YAPAXPDSAXQAX@Z 10022aa8 f i libvcruntime:winapi_downlevel.obj
 0001:00021ab8       ??$__crt_interlocked_read_pointer@UHINSTANCE__@@@@YAPAUHINSTANCE__@@PDSAU0@@Z 10022ab8 f i libvcruntime:winapi_downlevel.obj
 0001:00021ac4       ??$__crt_interlocked_read_pointer@X@@YAPAXPDSAX@Z 10022ac4 f i libvcruntime:winapi_downlevel.obj
 0001:00021ad0       ?__crt_fast_encode_pointer@@YA?AU__crt_fast_encoded_nullptr_t@@$$T@Z 10022ad0 f i libvcruntime:winapi_downlevel.obj
 0001:00021e03       ___vcrt_FlsAlloc           10022e03 f   libvcruntime:winapi_downlevel.obj
 0001:00021e4c       ___vcrt_FlsFree            10022e4c f   libvcruntime:winapi_downlevel.obj
 0001:00021e95       ___vcrt_FlsGetValue        10022e95 f   libvcruntime:winapi_downlevel.obj
 0001:00021ede       ___vcrt_FlsSetValue        10022ede f   libvcruntime:winapi_downlevel.obj
 0001:00021f2b       ___vcrt_InitializeCriticalSectionEx 10022f2b f   libvcruntime:winapi_downlevel.obj
 0001:00021f83       ___vcrt_initialize_winapi_thunks 10022f83 f   libvcruntime:winapi_downlevel.obj
 0001:00021fb6       ___vcrt_uninitialize_winapi_thunks 10022fb6 f   libvcruntime:winapi_downlevel.obj
 0001:00021ff4       ??$?B$$A6AXXZ@__crt_fast_encoded_nullptr_t@@QBEP6AXXZXZ 10022ff4 f i libvcruntime:purevirt_data.obj
 0001:00021ffa       ??$__crt_fast_encode_pointer@P6AXXZ@@YAP6AXXZQ6AXXZ@Z 10022ffa f i libvcruntime:purevirt_data.obj
 0001:0002201e       ___vcrt_initialize_pure_virtual_call_handler 1002301e f   libvcruntime:purevirt_data.obj
 0001:00022030       __global_unwind2           10023030 f   libvcruntime:exsup.obj
 0001:00022096       __local_unwind2            10023096 f   libvcruntime:exsup.obj
 0001:0002211a       __abnormal_termination     1002311a f   libvcruntime:exsup.obj
 0001:00022140       __NLG_Notify1              10023140 f   libvcruntime:exsup.obj
 0001:0002214c       __NLG_Notify               1002314c f   libvcruntime:exsup.obj
 0001:00022163       __NLG_Dispatch             10023163     libvcruntime:exsup.obj
 0001:00022163       __NLG_Dispatch2            10023163     libvcruntime:exsup.obj
 0001:0002216b       __NLG_Call                 1002316b f   libvcruntime:exsup.obj
 0001:0002216d       __NLG_Return2              1002316d     libvcruntime:exsup.obj
 0001:000221bd       ??$__crt_fast_decode_pointer@P6AXXZ@@YAP6AXXZQ6AXXZ@Z 100231bd f i libvcruntime:purevirt.obj
 0001:000221d6       ??$__crt_interlocked_exchange_pointer@$$A6AXXZP6AXXZ@@YAP6AXXZPDS6AXXZQ6AXXZ@Z 100231d6 f i libvcruntime:purevirt.obj
 0001:000221e6       ??$__crt_interlocked_read_pointer@$$A6AXXZ@@YAP6AXXZPDS6AXXZ@Z 100231e6 f i libvcruntime:purevirt.obj
 0001:000221f2       __get_purecall_handler     100231f2 f   libvcruntime:purevirt.obj
 0001:0002220c       __purecall                 1002320c f   libvcruntime:purevirt.obj
 0001:0002222f       __set_purecall_handler     1002322f f   libvcruntime:purevirt.obj
 0001:0002225d       ??$?0AAViterator@TryBlockMap@__FrameHandler3@@AAV012@$0A@@?$pair@Viterator@TryBlockMap@__FrameHandler3@@V123@@std@@QAE@AAViterator@TryBlockMap@__FrameHandler3@@0@Z 1002325d f i libvcruntime:trnsctrl.obj
 0001:0002228a       ??$forward@AAViterator@TryBlockMap@__FrameHandler3@@@std@@YAAAViterator@TryBlockMap@__FrameHandler3@@AAV123@@Z 1002328a f i libvcruntime:trnsctrl.obj
 0001:00022294       ??0iterator@TryBlockMap@__FrameHandler3@@QAE@AAV12@I@Z 10023294 f i libvcruntime:trnsctrl.obj
 0001:000222ad       ?GetRangeOfTrysToCheck@__FrameHandler3@@SA?AU?$pair@Viterator@TryBlockMap@__FrameHandler3@@V123@@std@@AAVTryBlockMap@1@HH@Z 100232ad f   libvcruntime:trnsctrl.obj
 0001:0002234f       ?_CallCatchBlock2@@YAPAXPAUEHRegistrationNode@@PBU_s_FuncInfo@@PAXHK@Z 1002334f f   libvcruntime:trnsctrl.obj
 0001:000223c4       ?_CallSETranslator@@YAHPAUEHExceptionRecord@@PAUEHRegistrationNode@@PAX2PBU_s_FuncInfo@@H1@Z 100233c4 f   libvcruntime:trnsctrl.obj
 0001:000224d5       ?_JumpToContinuation@@YGXPAXPAUEHRegistrationNode@@@Z 100234d5 f   libvcruntime:trnsctrl.obj
 0001:00022511       ?_UnwindNestedFrames@@YGXPAUEHRegistrationNode@@PAUEHExceptionRecord@@@Z 10023511 f   libvcruntime:trnsctrl.obj
 0001:00022578       ?getFuncInfo@TryBlockMap@__FrameHandler3@@QAEPBU_s_FuncInfo@@XZ 10023578 f i libvcruntime:trnsctrl.obj
 0001:0002257b       __CatchGuardHandler        1002357b f   libvcruntime:trnsctrl.obj
 0001:000225b8       __CreateFrameInfo          100235b8 f   libvcruntime:trnsctrl.obj
 0001:000225e5       __FindAndUnlinkFrame       100235e5 f   libvcruntime:trnsctrl.obj
 0001:0002263b       __TranslatorGuardHandler   1002363b f   libvcruntime:trnsctrl.obj
 0001:000226ff       ___CxxFrameHandler         100236ff f   libvcruntime:trnsctrl.obj
 0001:00022742       ___CxxFrameHandler2        10023742 f   libvcruntime:trnsctrl.obj
 0001:00022785       ___CxxFrameHandler3        10023785 f   libvcruntime:trnsctrl.obj
 0001:000227c8       ___CxxLongjmpUnwind@4      100237c8 f   libvcruntime:trnsctrl.obj
 0001:000230a9       ??$TypeMatchHelper@V__FrameHandler3@@@@YAHPBU_s_HandlerType@@PBU_s_CatchableType@@PBU_s_ThrowInfo@@@Z 100240a9 f i libvcruntime:frame.obj
 0001:0002315a       ??$__InternalCxxFrameHandler@V__FrameHandler3@@@@YA?AW4_EXCEPTION_DISPOSITION@@PAUEHExceptionRecord@@PAUEHRegistrationNode@@PAU_CONTEXT@@PAXPBU_s_FuncInfo@@H1E@Z 1002415a f i libvcruntime:frame.obj
 0001:0002329c       ??0HandlerMap@__FrameHandler3@@QAE@PBU_s_TryBlockMapEntry@@PAX@Z 1002429c f i libvcruntime:frame.obj
 0001:000232b8       ??0TryBlockMap@__FrameHandler3@@QAE@PBU_s_FuncInfo@@PAX@Z 100242b8 f i libvcruntime:frame.obj
 0001:000232d1       ??0bad_exception@std@@QAE@ABV01@@Z 100242d1 f i libvcruntime:frame.obj
 0001:000232f2       ??0bad_exception@std@@QAE@XZ 100242f2 f i libvcruntime:frame.obj
 0001:00023310       ??0exception@std@@QAE@ABV01@@Z 10024310 f i libvcruntime:frame.obj
 0001:00023347       ??0exception@std@@QAE@QBDH@Z 10024347 f i libvcruntime:frame.obj
 0001:0002336b       ??0iterator@HandlerMap@__FrameHandler3@@QAE@AAV12@I@Z 1002436b f i libvcruntime:frame.obj
 0001:00023384       ??1bad_exception@std@@UAE@XZ 10024384 f i libvcruntime:frame.obj
 0001:00023399       ??1exception@std@@UAE@XZ   10024399 f i libvcruntime:frame.obj
 0001:000233ae       ??8iterator@HandlerMap@__FrameHandler3@@QBE_NABV012@@Z 100243ae f i libvcruntime:frame.obj
 0001:000233c5       ??8type_info@@QBE_NABV0@@Z 100243c5 f i libvcruntime:frame.obj
 0001:000233eb       ??9iterator@HandlerMap@__FrameHandler3@@QBE_NABV012@@Z 100243eb f i libvcruntime:frame.obj
 0001:00023402       ??Diterator@HandlerMap@__FrameHandler3@@QAEPBU_s_HandlerType@@XZ 10024402 f i libvcruntime:frame.obj
 0001:00023411       ??Diterator@TryBlockMap@__FrameHandler3@@QAEPBU_s_TryBlockMapEntry@@XZ 10024411 f i libvcruntime:frame.obj
 0001:00023420       ??Eiterator@HandlerMap@__FrameHandler3@@QAEAAV012@XZ 10024420 f i libvcruntime:frame.obj
 0001:00023426       ??Eiterator@TryBlockMap@__FrameHandler3@@QAEAAV012@XZ 10024426 f i libvcruntime:frame.obj
 0001:0002342c       ??Miterator@TryBlockMap@__FrameHandler3@@QBE_NABV012@@Z 1002442c f i libvcruntime:frame.obj
 0001:00023443       ??_Gbad_exception@std@@UAEPAXI@Z 10024443 f i libvcruntime:frame.obj
 0001:00023443       ??_Ebad_exception@std@@UAEPAXI@Z 10024443 f i libvcruntime:frame.obj
 0001:0002347b       ??_Gexception@std@@UAEPAXI@Z 1002447b f i libvcruntime:frame.obj
 0001:0002347b       ??_Eexception@std@@UAEPAXI@Z 1002447b f i libvcruntime:frame.obj
 0001:000234b3       ?BuildCatchObject@__FrameHandler3@@SAXPAUEHExceptionRecord@@PAXPBU_s_HandlerType@@PBU_s_CatchableType@@@Z 100244b3 f   libvcruntime:frame.obj
 0001:000234b8       ?BuildCatchObjectHelper@__FrameHandler3@@SAHPAUEHExceptionRecord@@PAXPBU_s_HandlerType@@PBU_s_CatchableType@@@Z 100244b8 f   libvcruntime:frame.obj
 0001:0002379c       ?FrameUnwindToEmptyState@__FrameHandler3@@SAXPAUEHRegistrationNode@@PAXPBU_s_FuncInfo@@@Z 1002479c f   libvcruntime:frame.obj
 0001:000237ba       ?FrameUnwindToState@__FrameHandler3@@SAXPAUEHRegistrationNode@@PAXPBU_s_FuncInfo@@H@Z 100247ba f   libvcruntime:frame.obj
 0001:000238dc       ?GetMaxState@__FrameHandler3@@SAHPAXPBU_s_FuncInfo@@@Z 100248dc f i libvcruntime:frame.obj
 0001:000239f0       ?TypeMatch@__FrameHandler3@@SAHPBU_s_HandlerType@@PBU_s_CatchableType@@PBU_s_ThrowInfo@@@Z 100249f0 f   libvcruntime:frame.obj
 0001:000239fb       ?_CallMemberFunction1@@YGXQAX00@Z 100249fb f i libvcruntime:frame.obj
 0001:00023a0f       ?_CallMemberFunction2@@YGXQAX00H@Z 10024a0f f i libvcruntime:frame.obj
 0001:00023a26       ?_ValidateExecute@@YA_NP6GHXZ@Z 10024a26 f i libvcruntime:frame.obj
 0001:00023a35       ?_ValidateRead@@YA_NPBXI@Z 10024a35 f i libvcruntime:frame.obj
 0001:00023a44       ?_ValidateWrite@@YA_NPAXI@Z 10024a44 f i libvcruntime:frame.obj
 0001:00023a53       ?begin@HandlerMap@__FrameHandler3@@QAE?AViterator@12@XZ 10024a53 f i libvcruntime:frame.obj
 0001:00023a67       ?end@HandlerMap@__FrameHandler3@@QAE?AViterator@12@XZ 10024a67 f i libvcruntime:frame.obj
 0001:00023a7c       ?getESTypes@__FrameHandler3@@SAPBU_s_ESTypeList@@PBU_s_FuncInfo@@@Z 10024a7c f i libvcruntime:frame.obj
 0001:00023a89       ?getLastEntry@HandlerMap@__FrameHandler3@@QAEPBU_s_HandlerType@@XZ 10024a89 f i libvcruntime:frame.obj
 0001:00023a9a       ?getMagicNum@__FrameHandler3@@SAIPBU_s_FuncInfo@@@Z 10024a9a f i libvcruntime:frame.obj
 0001:00023aac       ?getNumTryBlocks@TryBlockMap@__FrameHandler3@@QAEIXZ 10024aac f i libvcruntime:frame.obj
 0001:00023ab2       ?isEHs@__FrameHandler3@@SA_NPBU_s_FuncInfo@@@Z 10024ab2 f i libvcruntime:frame.obj
 0001:00023ac2       ?isNoExcept@__FrameHandler3@@SA_NPBU_s_FuncInfo@@@Z 10024ac2 f i libvcruntime:frame.obj
 0001:00023ad6       ?what@exception@std@@UBEPBDXZ 10024ad6 f i libvcruntime:frame.obj
 0001:00023ae6       ___BuildCatchObject        10024ae6 f   libvcruntime:frame.obj
 0001:00023aeb       ___BuildCatchObjectHelper  10024aeb f   libvcruntime:frame.obj
 0001:00023af6       ___TypeMatch               10024af6 f   libvcruntime:frame.obj
 0001:00023b01       ___vcrt_EncodePointer      10024b01 f i libvcruntime:frame.obj
 0001:00023b20       __CallSettingFrame@12      10024b20 f   libvcruntime:lowhelpr.obj
 0001:00023b47       __NLG_Return               10024b47     libvcruntime:lowhelpr.obj
 0001:00023b98       __get_unexpected           10024b98 f   libvcruntime:unexpected.obj
 0001:00023bae       _set_unexpected            10024bae f   libvcruntime:unexpected.obj
 0001:00023bd3       _unexpected                10024bd3 f   libvcruntime:unexpected.obj
 0001:00023bf7       ?GetCurrentState@__FrameHandler3@@SAHPAUEHRegistrationNode@@PAXPBU_s_FuncInfo@@@Z 10024bf7 f   libvcruntime:ehstate.obj
 0001:00023c1b       ?SetState@__FrameHandler3@@SAXPAUEHRegistrationNode@@PBU_s_FuncInfo@@H@Z 10024c1b f   libvcruntime:ehstate.obj
 0001:00023c2c       ___DestructExceptionObject 10024c2c f   libvcruntime:ehhelpers.obj
 0001:00023cf4       ?_CallMemberFunction0@@YGXQAX0@Z 10024cf4 f i libvcruntime:ehhelpers.obj
 0001:00023d04       ?raw_name@type_info@@QBEPBDXZ 10024d04 f i libvcruntime:ehhelpers.obj
 0001:00023d08       __IsExceptionObjectToBeDestroyed 10024d08 f   libvcruntime:ehhelpers.obj
 0001:00023d37       __SetWinRTOutOfMemoryExceptionCallback 10024d37 f   libvcruntime:ehhelpers.obj
 0001:00023d47       ___AdjustPointer           10024d47 f   libvcruntime:ehhelpers.obj
 0001:00023d75       ___FrameUnwindFilter       10024d75 f   libvcruntime:ehhelpers.obj
 0001:00023dcb       ___GetPlatformExceptionInfo 10024dcb f   libvcruntime:ehhelpers.obj
 0001:00023e2a       ___current_exception       10024e2a f   libvcruntime:ehhelpers.obj
 0001:00023e35       ___current_exception_context 10024e35 f   libvcruntime:ehhelpers.obj
 0001:00023e40       ___processing_throw        10024e40 f   libvcruntime:ehhelpers.obj
 0001:00023e4b       ___std_terminate           10024e4b f   libvcruntime:ehhelpers.obj
 0001:00023e50       __is_exception_typeof      10024e50 f   libvcruntime:ehhelpers.obj
 0001:00023f1d       ??$?RD@__crt_public_free_policy@@QBEXQBD@Z 10024f1d f i libvcruntime:std_exception.obj
 0001:00023f31       ??0?$__crt_unique_heap_ptr@DU__crt_public_free_policy@@@@QAE@QAD@Z 10024f31 f i libvcruntime:std_exception.obj
 0001:00023f42       ??1?$__crt_unique_heap_ptr@DU__crt_public_free_policy@@@@QAE@XZ 10024f42 f i libvcruntime:std_exception.obj
 0001:00023f56       ??B?$__crt_unique_heap_ptr@DU__crt_public_free_policy@@@@QBE_NXZ 10024f56 f i libvcruntime:std_exception.obj
 0001:00023f5d       ?detach@?$__crt_unique_heap_ptr@DU__crt_public_free_policy@@@@QAEPADXZ 10024f5d f i libvcruntime:std_exception.obj
 0001:00023f63       ?get@?$__crt_unique_heap_ptr@DU__crt_public_free_policy@@@@QBEPADXZ 10024f63 f i libvcruntime:std_exception.obj
 0001:00023f66       ?is_valid@?$__crt_unique_heap_ptr@DU__crt_public_free_policy@@@@QBE_NXZ 10024f66 f i libvcruntime:std_exception.obj
 0001:00023f6d       ?release@?$__crt_unique_heap_ptr@DU__crt_public_free_policy@@@@QAEXXZ 10024f6d f i libvcruntime:std_exception.obj
 0001:00023f81       ___std_exception_copy      10024f81 f   libvcruntime:std_exception.obj
 0001:00023ffc       ___std_exception_destroy   10024ffc f   libvcruntime:std_exception.obj
 0001:00024022       __CxxThrowException@8      10025022 f   libvcruntime:throw.obj
 0001:000240aa       _malloc                    100250aa f   libucrt:malloc.obj
 0001:000240b7       _calloc                    100250b7 f   libucrt:calloc.obj
 0001:000240c4       _free                      100250c4 f   libucrt:free.obj
 0001:000240e8       ??$__crt_interlocked_read@J@@YAJPDJ@Z 100250e8 f i libucrt:assert.obj
 0001:000240f7       ??$__vcrt_va_start_verify_argument_type@QBD@@YAXXZ 100250f7 f i libucrt:assert.obj
 0001:000240f8       ??$__vcrt_va_start_verify_argument_type@QB_W@@YAXXZ 100250f8 f i libucrt:assert.obj
 0001:0002509a       ??$ftprintf@PAU_iobuf@@PBDABQBDABQBDABI@?$__crt_char_traits@D@@SAH$$QAPAU_iobuf@@$$QAPBDABQBD2ABI@Z 1002609a f i libucrt:assert.obj
 0001:000250cc       ??$ftprintf@PAU_iobuf@@PB_WABQB_WABQB_WABI@?$__crt_char_traits@_W@@SAH$$QAPAU_iobuf@@$$QAPB_WABQB_W2ABI@Z 100260cc f i libucrt:assert.obj
 0001:000250fe       ??$get_module_file_name@AAPAUHINSTANCE__@@AAY0BAF@DK@?$__crt_char_traits@D@@SAKAAPAUHINSTANCE__@@AAY0BAF@D$$QAK@Z 100260fe f i libucrt:assert.obj
 0001:00025121       ??$get_module_file_name@AAPAUHINSTANCE__@@AAY0BAF@_WK@?$__crt_char_traits@_W@@SAKAAPAUHINSTANCE__@@AAY0BAF@_W$$QAK@Z 10026121 f i libucrt:assert.obj
 0001:00025141       ??$itot_s@ABIPADIH@?$__crt_char_traits@D@@SAHABI$$QAPAD$$QAI$$QAH@Z 10026141 f i libucrt:assert.obj
 0001:0002516c       ??$itot_s@ABIPA_WIH@?$__crt_char_traits@_W@@SAHABI$$QAPA_W$$QAI$$QAH@Z 1002616c f i libucrt:assert.obj
 0001:00025197       ??$show_message_box@AAY0CEA@DPBDJ@?$__crt_char_traits@D@@SAHAAY0CEA@D$$QAPBD$$QAJ@Z 10026197 f i libucrt:assert.obj
 0001:000251ba       ??$show_message_box@AAY0CEA@_WPB_WJ@?$__crt_char_traits@_W@@SAHAAY0CEA@_W$$QAPB_W$$QAJ@Z 100261ba f i libucrt:assert.obj
 0001:000251dd       ??$tcscat_s@ABQADABIAAPAD@?$__crt_char_traits@D@@SAHABQADABIAAPAD@Z 100261dd f i libucrt:assert.obj
 0001:00025202       ??$tcscat_s@ABQADABIABQBD@?$__crt_char_traits@D@@SAHABQADABIABQBD@Z 10026202 f i libucrt:assert.obj
 0001:00025227       ??$tcscat_s@ABQADABIPBD@?$__crt_char_traits@D@@SAHABQADABI$$QAPBD@Z 10026227 f i libucrt:assert.obj
 0001:0002524c       ??$tcscat_s@ABQA_WABIAAPA_W@?$__crt_char_traits@_W@@SAHABQA_WABIAAPA_W@Z 1002624c f i libucrt:assert.obj
 0001:00025271       ??$tcscat_s@ABQA_WABIABQB_W@?$__crt_char_traits@_W@@SAHABQA_WABIABQB_W@Z 10026271 f i libucrt:assert.obj
 0001:00025296       ??$tcscat_s@ABQA_WABIPB_W@?$__crt_char_traits@_W@@SAHABQA_WABI$$QAPB_W@Z 10026296 f i libucrt:assert.obj
 0001:000252bb       ??$tcscpy_s@AAY0BAF@DIPBD@?$__crt_char_traits@D@@SAHAAY0BAF@D$$QAI$$QAPBD@Z 100262bb f i libucrt:assert.obj
 0001:000252de       ??$tcscpy_s@AAY0BAF@_WIPB_W@?$__crt_char_traits@_W@@SAHAAY0BAF@_W$$QAI$$QAPB_W@Z 100262de f i libucrt:assert.obj
 0001:00025301       ??$tcscpy_s@ABQADABIPBD@?$__crt_char_traits@D@@SAHABQADABI$$QAPBD@Z 10026301 f i libucrt:assert.obj
 0001:00025326       ??$tcscpy_s@ABQA_WABIPB_W@?$__crt_char_traits@_W@@SAHABQA_WABI$$QAPB_W@Z 10026326 f i libucrt:assert.obj
 0001:0002534b       ??$tcslen@AAY0BAF@D@?$__crt_char_traits@D@@SAIAAY0BAF@D@Z 1002634b f i libucrt:assert.obj
 0001:00025366       ??$tcslen@AAY0BAF@_W@?$__crt_char_traits@_W@@SAIAAY0BAF@_W@Z 10026366 f i libucrt:assert.obj
 0001:00025389       ??$tcslen@ABQAD@?$__crt_char_traits@D@@SAIABQAD@Z 10026389 f i libucrt:assert.obj
 0001:000253a7       ??$tcslen@ABQA_W@?$__crt_char_traits@_W@@SAIABQA_W@Z 100263a7 f i libucrt:assert.obj
 0001:000253cc       ??$tcslen@ABQBD@?$__crt_char_traits@D@@SAIABQBD@Z 100263cc f i libucrt:assert.obj
 0001:000253ea       ??$tcslen@ABQB_W@?$__crt_char_traits@_W@@SAIABQB_W@Z 100263ea f i libucrt:assert.obj
 0001:0002540f       ??$tcsncat_s@ABQADABIAAPBDI@?$__crt_char_traits@D@@SAHABQADABIAAPBD$$QAI@Z 1002640f f i libucrt:assert.obj
 0001:0002543a       ??$tcsncat_s@ABQADABIABQBDABI@?$__crt_char_traits@D@@SAHABQADABIABQBD1@Z 1002643a f i libucrt:assert.obj
 0001:00025465       ??$tcsncat_s@ABQADABIPBDI@?$__crt_char_traits@D@@SAHABQADABI$$QAPBD$$QAI@Z 10026465 f i libucrt:assert.obj
 0001:00025490       ??$tcsncat_s@ABQA_WABIAAPB_WI@?$__crt_char_traits@_W@@SAHABQA_WABIAAPB_W$$QAI@Z 10026490 f i libucrt:assert.obj
 0001:000254bb       ??$tcsncat_s@ABQA_WABIABQB_WABI@?$__crt_char_traits@_W@@SAHABQA_WABIABQB_W1@Z 100264bb f i libucrt:assert.obj
 0001:000254e6       ??$tcsncat_s@ABQA_WABIPB_WI@?$__crt_char_traits@_W@@SAHABQA_WABI$$QAPB_W$$QAI@Z 100264e6 f i libucrt:assert.obj
 0001:00025511       ??0__crt_stdio_stream@@QAE@QAU_iobuf@@@Z 10026511 f i libucrt:assert.obj
 0001:00025657       ?get_flags@__crt_stdio_stream@@QBEJXZ 10026657 f i libucrt:assert.obj
 0001:000256a5       ?has_any_buffer@__crt_stdio_stream@@QBE_NXZ 100266a5 f i libucrt:assert.obj
 0001:000256b6       ?has_any_of@__crt_stdio_stream@@QBE_NJ@Z 100266b6 f i libucrt:assert.obj
 0001:000256cf       __assert                   100266cf f   libucrt:assert.obj
 0001:00025729       __invoke_watson_if_error   10026729 f i libucrt:assert.obj
 0001:00025753       __vfwprintf_l              10026753 f i libucrt:assert.obj
 0001:00025781       __vswprintf_c_l            10026781 f i libucrt:assert.obj
 0001:000257bb       __wassert                  100267bb f   libucrt:assert.obj
 0001:00025815       _fwprintf                  10026815 f i libucrt:assert.obj
 0001:000258d7       _swprintf                  100268d7 f i libucrt:assert.obj
 0001:000258fc       _realloc                   100268fc f   libucrt:realloc.obj
 0001:00025909       ??$?B$$A6GXPAXK0@Z@__crt_fast_encoded_nullptr_t@@QBEP6GXPAXK0@ZXZ 10026909 f i libucrt:exit.obj
 0001:000259ac       ??$__crt_fast_decode_pointer@P6GXPAXK0@Z@@YAP6GXPAXK0@ZQ6GX0K0@Z@Z 100269ac f i libucrt:exit.obj
 0001:000259c7       ??$__crt_fast_encode_pointer@P6GXPAXK0@Z@@YAP6GXPAXK0@ZQ6GX0K0@Z@Z 100269c7 f i libucrt:exit.obj
 0001:000259ed       ??$__crt_get_proc_address@P6GXI@Z@@YAP6GXI@ZQAUHINSTANCE__@@QBD@Z 100269ed f i libucrt:exit.obj
 0001:00025a53       ??0?$__crt_unique_handle_t@U__crt_hmodule_traits@@@@QAE@QAUHINSTANCE__@@@Z 10026a53 f i libucrt:exit.obj
 0001:00025a67       ??1?$__crt_unique_handle_t@U__crt_hmodule_traits@@@@QAE@XZ 10026a67 f i libucrt:exit.obj
 0001:00025bac       ?__acrt_select_exit_lock@@YA?AW4__acrt_lock_id@@XZ 10026bac f i libucrt:exit.obj
 0001:00025bc7       ?close@?$__crt_unique_handle_t@U__crt_hmodule_traits@@@@QAEXXZ 10026bc7 f i libucrt:exit.obj
 0001:00025be3       ?close@__crt_hmodule_traits@@SA_NPAUHINSTANCE__@@@Z 10026be3 f i libucrt:exit.obj
 0001:00025cce       ?get@?$__crt_unique_handle_t@U__crt_hmodule_traits@@@@QBEPAUHINSTANCE__@@XZ 10026cce f i libucrt:exit.obj
 0001:00025cd1       ?get_address_of@?$__crt_unique_handle_t@U__crt_hmodule_traits@@@@QAEPAPAUHINSTANCE__@@XZ 10026cd1 f i libucrt:exit.obj
 0001:00025cd4       ?get_invalid_value@__crt_hmodule_traits@@SAPAUHINSTANCE__@@XZ 10026cd4 f i libucrt:exit.obj
 0001:00025dd5       __Exit                     10026dd5 f   libucrt:exit.obj
 0001:00025df0       ___acrt_initialize_thread_local_exit_callback 10026df0 f   libucrt:exit.obj
 0001:00025e02       __c_exit                   10026e02 f   libucrt:exit.obj
 0001:00025e14       __cexit                    10026e14 f   libucrt:exit.obj
 0001:00025e26       __exit                     10026e26 f   libucrt:exit.obj
 0001:00025e41       __is_c_termination_complete 10026e41 f   libucrt:exit.obj
 0001:00025e47       __register_thread_local_exe_atexit_callback 10026e47 f   libucrt:exit.obj
 0001:00025e8d       _exit                      10026e8d f   libucrt:exit.obj
 0001:00025ea8       _quick_exit                10026ea8 f   libucrt:exit.obj
 0001:00025ed0       _strncat                   10026ed0 f   libucrt:strncat.obj
 0001:00026060       _strncpy                   10027060 f   libucrt:strncpy.obj
 0001:000261cd       ??$?RPAU__crt_stdio_stream_data@@@__crt_internal_free_policy@@QBEXQBQAU__crt_stdio_stream_data@@@Z 100271cd f i libucrt:_file.obj
 0001:000261e3       ??0?$__crt_unique_heap_ptr@PAU__crt_stdio_stream_data@@U__crt_internal_free_policy@@@@QAE@QAPAU__crt_stdio_stream_data@@@Z 100271e3 f i libucrt:_file.obj
 0001:000261f7       ??1?$__crt_unique_heap_ptr@PAU__crt_stdio_stream_data@@U__crt_internal_free_policy@@@@QAE@XZ 100271f7 f i libucrt:_file.obj
 0001:0002620d       ??C__crt_stdio_stream@@QBEPAU__crt_stdio_stream_data@@XZ 1002720d f i libucrt:_file.obj
 0001:00026210       ?detach@?$__crt_unique_heap_ptr@PAU__crt_stdio_stream_data@@U__crt_internal_free_policy@@@@QAEPAPAU__crt_stdio_stream_data@@XZ 10027210 f i libucrt:_file.obj
 0001:00026216       ?release@?$__crt_unique_heap_ptr@PAU__crt_stdio_stream_data@@U__crt_internal_free_policy@@@@QAEXXZ 10027216 f i libucrt:_file.obj
 0001:0002622c       ___acrt_initialize_stdio   1002722c f   libucrt:_file.obj
 0001:00026326       ___acrt_iob_func           10027326 f   libucrt:_file.obj
 0001:0002633a       ___acrt_uninitialize_stdio 1002733a f   libucrt:_file.obj
 0001:00026399       __get_stream_buffer_pointers 10027399 f   libucrt:_file.obj
 0001:000263f0       __lock_file                100273f0 f   libucrt:_file.obj
 0001:00026409       __unlock_file              10027409 f   libucrt:_file.obj
 0001:00026422       ?is_in_use@__crt_stdio_stream@@QBE_NXZ 10027422 f i libucrt:fclose.obj
 0001:0002642f       ?is_string_backed@__crt_stdio_stream@@QBE_NXZ 1002742f f i libucrt:fclose.obj
 0001:0002643c       ?public_stream@__crt_stdio_stream@@QBEPAU_iobuf@@XZ 1002743c f i libucrt:fclose.obj
 0001:0002643f       ?valid@__crt_stdio_stream@@QBE_NXZ 1002743f f i libucrt:fclose.obj
 0001:00026446       __fclose_nolock            10027446 f   libucrt:fclose.obj
 0001:000264d9       _fclose                    100274d9 f   libucrt:fclose.obj
 0001:000267cf       ??$open_file@ABQBDABQBDABHPAU_iobuf@@@?$__crt_char_traits@D@@SAPAU_iobuf@@ABQBD0ABH$$QAPAU1@@Z 100277cf f i libucrt:fopen.obj
 0001:000267fa       ??$open_file@ABQB_WABQB_WABHPAU_iobuf@@@?$__crt_char_traits@_W@@SAPAU_iobuf@@ABQB_W0ABH$$QAPAU1@@Z 100277fa f i libucrt:fopen.obj
 0001:00026825       ?unlock@__crt_stdio_stream@@QBEXXZ 10027825 f i libucrt:fopen.obj
 0001:00026830       __fsopen                   10027830 f   libucrt:fopen.obj
 0001:0002683d       __wfopen                   1002783d f   libucrt:fopen.obj
 0001:00026859       __wfopen_s                 10027859 f   libucrt:fopen.obj
 0001:000268b1       __wfsopen                  100278b1 f   libucrt:fopen.obj
 0001:000268be       _fopen                     100278be f   libucrt:fopen.obj
 0001:000268da       _fopen_s                   100278da f   libucrt:fopen.obj
 0001:00026932       ?__acrt_stdio_reset_buffer@@YAXV__crt_stdio_stream@@@Z 10027932 f i libucrt:fread.obj
 0001:0002694d       ?set_flags@__crt_stdio_stream@@QBE_NJ@Z 1002794d f i libucrt:fread.obj
 0001:0002697a       __fread_nolock             1002797a f   libucrt:fread.obj
 0001:0002699e       __fread_nolock_s           1002799e f   libucrt:fread.obj
 0001:00026bed       _fread                     10027bed f   libucrt:fread.obj
 0001:00026c11       _fread_s                   10027c11 f   libucrt:fread.obj
 0001:00026e56       ??0__acrt_stdio_temporary_buffering_guard@@QAE@QAU_iobuf@@@Z 10027e56 f i libucrt:fwrite.obj
 0001:00026e7b       ??1__acrt_stdio_temporary_buffering_guard@@QAE@XZ 10027e7b f i libucrt:fwrite.obj
 0001:00026ef9       ?has_big_buffer@__crt_stdio_stream@@QBE_NXZ 10027ef9 f i libucrt:fwrite.obj
 0001:00026f06       __fwrite_nolock            10027f06 f   libucrt:fwrite.obj
 0001:000270df       _fwrite                    100280df f   libucrt:fwrite.obj
 0001:00027202       ??$__acrt_mbs_to_wcs_cp@U__crt_win32_buffer_internal_dynamic_resizing@@@@YAHQBDAAV?$__crt_win32_buffer@_WU__crt_win32_buffer_internal_dynamic_resizing@@@@I@Z 10028202 f i libucrt:unlink.obj
 0001:00027228       ??0?$__crt_win32_buffer@_WU__crt_win32_buffer_internal_dynamic_resizing@@@@QAE@XZ 10028228 f i libucrt:unlink.obj
 0001:00027243       ??0_LocaleUpdate@@QAE@QAU__crt_locale_pointers@@@Z 10028243 f i libucrt:unlink.obj
 0001:000272e6       ??1?$__crt_win32_buffer@_WU__crt_win32_buffer_internal_dynamic_resizing@@@@QAE@XZ 100282e6 f i libucrt:unlink.obj
 0001:000272eb       ??1_LocaleUpdate@@QAE@XZ   100282eb f i libucrt:unlink.obj
 0001:00027328       ?GetLocaleT@_LocaleUpdate@@QAEPAU__crt_locale_pointers@@XZ 10028328 f i libucrt:unlink.obj
 0001:0002732c       ?__acrt_get_utf8_acp_compatibility_codepage@@YAIXZ 1002832c f i libucrt:unlink.obj
 0001:0002737d       ?_deallocate@?$__crt_win32_buffer@_WU__crt_win32_buffer_internal_dynamic_resizing@@@@AAEXXZ 1002837d f i libucrt:unlink.obj
 0001:0002739d       ?allocate@?$__crt_win32_buffer@_WU__crt_win32_buffer_internal_dynamic_resizing@@@@QAEHI@Z 1002839d f i libucrt:unlink.obj
 0001:000273eb       ?allocate@__crt_win32_buffer_internal_dynamic_resizing@@SAHQAPAXIABV__crt_win32_buffer_empty_debug_info@@@Z 100283eb f i libucrt:unlink.obj
 0001:00027411       ?capacity@?$__crt_win32_buffer@_WU__crt_win32_buffer_internal_dynamic_resizing@@@@QBEIXZ 10028411 f i libucrt:unlink.obj
 0001:00027415       ?data@?$__crt_win32_buffer@_WU__crt_win32_buffer_internal_dynamic_resizing@@@@QAEPA_WXZ 10028415 f i libucrt:unlink.obj
 0001:00027419       ?deallocate@__crt_win32_buffer_internal_dynamic_resizing@@SAXQAXABV__crt_win32_buffer_empty_debug_info@@@Z 10028419 f i libucrt:unlink.obj
 0001:0002742d       ?debug_info@?$__crt_win32_buffer@_WU__crt_win32_buffer_internal_dynamic_resizing@@@@QBEABV__crt_win32_buffer_empty_debug_info@@XZ 1002842d f i libucrt:unlink.obj
 0001:00027430       ?size@?$__crt_win32_buffer@_WU__crt_win32_buffer_internal_dynamic_resizing@@@@QAEXI@Z 10028430 f i libucrt:unlink.obj
 0001:00027442       ___acrt_locale_changed     10028442 f i libucrt:unlink.obj
 0001:0002744f       __unlink                   1002844f f   libucrt:unlink.obj
 0001:0002745c       _remove                    1002845c f   libucrt:unlink.obj
 0001:000274e3       ?has_all_of@__crt_stdio_stream@@QBE_NJ@Z 100284e3 f i libucrt:rewind.obj
 0001:000274ff       ?unset_flags@__crt_stdio_stream@@QBE_NJ@Z 100284ff f i libucrt:rewind.obj
 0001:00027532       _rewind                    10028532 f   libucrt:rewind.obj
 0001:00027624       ??$?0ABV?$stream_output_adapter@D@__crt_stdio_output@@AB_KABQBDABQAU__crt_locale_pointers@@ABQAD@?$format_validation_base@DV?$stream_output_adapter@D@__crt_stdio_output@@@__crt_stdio_output@@IAE@ABV?$stream_output_adapter@D@1@AB_KABQBDABQAU__crt_locale_pointers@@ABQAD@Z 10028624 f i libucrt:output.obj
 0001:0002764f       ??$?0ABV?$stream_output_adapter@D@__crt_stdio_output@@AB_KABQBDABQAU__crt_locale_pointers@@ABQAD@?$positional_parameter_base@DV?$stream_output_adapter@D@__crt_stdio_output@@@__crt_stdio_output@@IAE@ABV?$stream_output_adapter@D@1@AB_KABQBDABQAU__crt_locale_pointers@@ABQAD@Z 1002864f f i libucrt:output.obj
 0001:000276a9       ??$?0ABV?$stream_output_adapter@D@__crt_stdio_output@@AB_KABQBDABQAU__crt_locale_pointers@@ABQAD@?$standard_base@DV?$stream_output_adapter@D@__crt_stdio_output@@@__crt_stdio_output@@IAE@ABV?$stream_output_adapter@D@1@AB_KABQBDABQAU__crt_locale_pointers@@ABQAD@Z 100286a9 f i libucrt:output.obj
 0001:000276eb       ??$?0ABV?$stream_output_adapter@_W@__crt_stdio_output@@AB_KABQB_WABQAU__crt_locale_pointers@@ABQAD@?$format_validation_base@_WV?$stream_output_adapter@_W@__crt_stdio_output@@@__crt_stdio_output@@IAE@ABV?$stream_output_adapter@_W@1@AB_KABQB_WABQAU__crt_locale_pointers@@ABQAD@Z 100286eb f i libucrt:output.obj
 0001:00027716       ??$?0ABV?$stream_output_adapter@_W@__crt_stdio_output@@AB_KABQB_WABQAU__crt_locale_pointers@@ABQAD@?$positional_parameter_base@_WV?$stream_output_adapter@_W@__crt_stdio_output@@@__crt_stdio_output@@IAE@ABV?$stream_output_adapter@_W@1@AB_KABQB_WABQAU__crt_locale_pointers@@ABQAD@Z 10028716 f i libucrt:output.obj
 0001:00027770       ??$?0ABV?$stream_output_adapter@_W@__crt_stdio_output@@AB_KABQB_WABQAU__crt_locale_pointers@@ABQAD@?$standard_base@_WV?$stream_output_adapter@_W@__crt_stdio_output@@@__crt_stdio_output@@IAE@ABV?$stream_output_adapter@_W@1@AB_KABQB_WABQAU__crt_locale_pointers@@ABQAD@Z 10028770 f i libucrt:output.obj
 0001:000277b2       ??$?0ABV?$string_output_adapter@D@__crt_stdio_output@@AB_KABQBDABQAU__crt_locale_pointers@@ABQAD@?$format_validation_base@DV?$string_output_adapter@D@__crt_stdio_output@@@__crt_stdio_output@@IAE@ABV?$string_output_adapter@D@1@AB_KABQBDABQAU__crt_locale_pointers@@ABQAD@Z 100287b2 f i libucrt:output.obj
 0001:000277dd       ??$?0ABV?$string_output_adapter@D@__crt_stdio_output@@AB_KABQBDABQAU__crt_locale_pointers@@ABQAD@?$positional_parameter_base@DV?$string_output_adapter@D@__crt_stdio_output@@@__crt_stdio_output@@IAE@ABV?$string_output_adapter@D@1@AB_KABQBDABQAU__crt_locale_pointers@@ABQAD@Z 100287dd f i libucrt:output.obj
 0001:00027837       ??$?0ABV?$string_output_adapter@D@__crt_stdio_output@@AB_KABQBDABQAU__crt_locale_pointers@@ABQAD@?$standard_base@DV?$string_output_adapter@D@__crt_stdio_output@@@__crt_stdio_output@@IAE@ABV?$string_output_adapter@D@1@AB_KABQBDABQAU__crt_locale_pointers@@ABQAD@Z 10028837 f i libucrt:output.obj
 0001:00027879       ??$?0ABV?$string_output_adapter@_W@__crt_stdio_output@@AB_KABQB_WABQAU__crt_locale_pointers@@ABQAD@?$format_validation_base@_WV?$string_output_adapter@_W@__crt_stdio_output@@@__crt_stdio_output@@IAE@ABV?$string_output_adapter@_W@1@AB_KABQB_WABQAU__crt_locale_pointers@@ABQAD@Z 10028879 f i libucrt:output.obj
 0001:000278a4       ??$?0ABV?$string_output_adapter@_W@__crt_stdio_output@@AB_KABQB_WABQAU__crt_locale_pointers@@ABQAD@?$positional_parameter_base@_WV?$string_output_adapter@_W@__crt_stdio_output@@@__crt_stdio_output@@IAE@ABV?$string_output_adapter@_W@1@AB_KABQB_WABQAU__crt_locale_pointers@@ABQAD@Z 100288a4 f i libucrt:output.obj
 0001:000278fe       ??$?0ABV?$string_output_adapter@_W@__crt_stdio_output@@AB_KABQB_WABQAU__crt_locale_pointers@@ABQAD@?$standard_base@_WV?$string_output_adapter@_W@__crt_stdio_output@@@__crt_stdio_output@@IAE@ABV?$string_output_adapter@_W@1@AB_KABQB_WABQAU__crt_locale_pointers@@ABQAD@Z 100288fe f i libucrt:output.obj
 0001:00028f24       ??$count@D@formatting_buffer@__crt_stdio_output@@QBEIXZ 10029f24 f i libucrt:output.obj
 0001:00028f42       ??$count@_W@formatting_buffer@__crt_stdio_output@@QBEIXZ 10029f42 f i libucrt:output.obj
 0001:00028f61       ??$data@D@formatting_buffer@__crt_stdio_output@@QAEPADXZ 10029f61 f i libucrt:output.obj
 0001:00028f71       ??$data@_W@formatting_buffer@__crt_stdio_output@@QAEPA_WXZ 10029f71 f i libucrt:output.obj
 0001:00028f81       ??$ensure_buffer_is_big_enough@D@formatting_buffer@__crt_stdio_output@@QAE_NI@Z 10029f81 f i libucrt:output.obj
 0001:0002901f       ??$ensure_buffer_is_big_enough@_W@formatting_buffer@__crt_stdio_output@@QAE_NI@Z 1002a01f f i libucrt:output.obj
 0001:000290bf       ??$extract_argument_from_va_list@C_J@?$positional_parameter_base@DV?$stream_output_adapter@D@__crt_stdio_output@@@__crt_stdio_output@@IAE_NAA_J@Z 1002a0bf f i libucrt:output.obj
 0001:00029156       ??$extract_argument_from_va_list@C_J@?$positional_parameter_base@DV?$string_output_adapter@D@__crt_stdio_output@@@__crt_stdio_output@@IAE_NAA_J@Z 1002a156 f i libucrt:output.obj
 0001:000291ed       ??$extract_argument_from_va_list@C_J@?$positional_parameter_base@_WV?$stream_output_adapter@_W@__crt_stdio_output@@@__crt_stdio_output@@IAE_NAA_J@Z 1002a1ed f i libucrt:output.obj
 0001:00029284       ??$extract_argument_from_va_list@C_J@?$positional_parameter_base@_WV?$string_output_adapter@_W@__crt_stdio_output@@@__crt_stdio_output@@IAE_NAA_J@Z 1002a284 f i libucrt:output.obj
 0001:0002931b       ??$extract_argument_from_va_list@C_J@?$standard_base@DV?$stream_output_adapter@D@__crt_stdio_output@@@__crt_stdio_output@@IAE_NAA_J@Z 1002a31b f i libucrt:output.obj
 0001:00029341       ??$extract_argument_from_va_list@C_J@?$standard_base@DV?$string_output_adapter@D@__crt_stdio_output@@@__crt_stdio_output@@IAE_NAA_J@Z 1002a341 f i libucrt:output.obj
 0001:00029367       ??$extract_argument_from_va_list@C_J@?$standard_base@_WV?$stream_output_adapter@_W@__crt_stdio_output@@@__crt_stdio_output@@IAE_NAA_J@Z 1002a367 f i libucrt:output.obj
 0001:0002938d       ??$extract_argument_from_va_list@C_J@?$standard_base@_WV?$string_output_adapter@_W@__crt_stdio_output@@@__crt_stdio_output@@IAE_NAA_J@Z 1002a38d f i libucrt:output.obj
 0001:000293b3       ??$extract_argument_from_va_list@E_J@?$positional_parameter_base@DV?$stream_output_adapter@D@__crt_stdio_output@@@__crt_stdio_output@@IAE_NAA_J@Z 1002a3b3 f i libucrt:output.obj
 0001:0002944a       ??$extract_argument_from_va_list@E_J@?$positional_parameter_base@DV?$string_output_adapter@D@__crt_stdio_output@@@__crt_stdio_output@@IAE_NAA_J@Z 1002a44a f i libucrt:output.obj
 0001:000294e1       ??$extract_argument_from_va_list@E_J@?$positional_parameter_base@_WV?$stream_output_adapter@_W@__crt_stdio_output@@@__crt_stdio_output@@IAE_NAA_J@Z 1002a4e1 f i libucrt:output.obj
 0001:00029578       ??$extract_argument_from_va_list@E_J@?$positional_parameter_base@_WV?$string_output_adapter@_W@__crt_stdio_output@@@__crt_stdio_output@@IAE_NAA_J@Z 1002a578 f i libucrt:output.obj
 0001:0002960f       ??$extract_argument_from_va_list@E_J@?$standard_base@DV?$stream_output_adapter@D@__crt_stdio_output@@@__crt_stdio_output@@IAE_NAA_J@Z 1002a60f f i libucrt:output.obj
 0001:00029635       ??$extract_argument_from_va_list@E_J@?$standard_base@DV?$string_output_adapter@D@__crt_stdio_output@@@__crt_stdio_output@@IAE_NAA_J@Z 1002a635 f i libucrt:output.obj
 0001:0002965b       ??$extract_argument_from_va_list@E_J@?$standard_base@_WV?$stream_output_adapter@_W@__crt_stdio_output@@@__crt_stdio_output@@IAE_NAA_J@Z 1002a65b f i libucrt:output.obj
 0001:00029681       ??$extract_argument_from_va_list@E_J@?$standard_base@_WV?$string_output_adapter@_W@__crt_stdio_output@@@__crt_stdio_output@@IAE_NAA_J@Z 1002a681 f i libucrt:output.obj
 0001:000296a7       ??$extract_argument_from_va_list@F_J@?$positional_parameter_base@DV?$stream_output_adapter@D@__crt_stdio_output@@@__crt_stdio_output@@IAE_NAA_J@Z 1002a6a7 f i libucrt:output.obj
 0001:0002973e       ??$extract_argument_from_va_list@F_J@?$positional_parameter_base@DV?$string_output_adapter@D@__crt_stdio_output@@@__crt_stdio_output@@IAE_NAA_J@Z 1002a73e f i libucrt:output.obj
 0001:000297d5       ??$extract_argument_from_va_list@F_J@?$positional_parameter_base@_WV?$stream_output_adapter@_W@__crt_stdio_output@@@__crt_stdio_output@@IAE_NAA_J@Z 1002a7d5 f i libucrt:output.obj
 0001:0002986c       ??$extract_argument_from_va_list@F_J@?$positional_parameter_base@_WV?$string_output_adapter@_W@__crt_stdio_output@@@__crt_stdio_output@@IAE_NAA_J@Z 1002a86c f i libucrt:output.obj
 0001:00029903       ??$extract_argument_from_va_list@F_J@?$standard_base@DV?$stream_output_adapter@D@__crt_stdio_output@@@__crt_stdio_output@@IAE_NAA_J@Z 1002a903 f i libucrt:output.obj
 0001:00029929       ??$extract_argument_from_va_list@F_J@?$standard_base@DV?$string_output_adapter@D@__crt_stdio_output@@@__crt_stdio_output@@IAE_NAA_J@Z 1002a929 f i libucrt:output.obj
 0001:0002994f       ??$extract_argument_from_va_list@F_J@?$standard_base@_WV?$stream_output_adapter@_W@__crt_stdio_output@@@__crt_stdio_output@@IAE_NAA_J@Z 1002a94f f i libucrt:output.obj
 0001:00029975       ??$extract_argument_from_va_list@F_J@?$standard_base@_WV?$string_output_adapter@_W@__crt_stdio_output@@@__crt_stdio_output@@IAE_NAA_J@Z 1002a975 f i libucrt:output.obj
 0001:0002999b       ??$extract_argument_from_va_list@GD@?$positional_parameter_base@DV?$stream_output_adapter@D@__crt_stdio_output@@@__crt_stdio_output@@IAE_NAAD@Z 1002a99b f i libucrt:output.obj
 0001:00029a31       ??$extract_argument_from_va_list@GD@?$positional_parameter_base@DV?$string_output_adapter@D@__crt_stdio_output@@@__crt_stdio_output@@IAE_NAAD@Z 1002aa31 f i libucrt:output.obj
 0001:00029ac7       ??$extract_argument_from_va_list@GD@?$standard_base@DV?$stream_output_adapter@D@__crt_stdio_output@@@__crt_stdio_output@@IAE_NAAD@Z 1002aac7 f i libucrt:output.obj
 0001:00029ae7       ??$extract_argument_from_va_list@GD@?$standard_base@DV?$string_output_adapter@D@__crt_stdio_output@@@__crt_stdio_output@@IAE_NAAD@Z 1002aae7 f i libucrt:output.obj
 0001:00029b07       ??$extract_argument_from_va_list@G_J@?$positional_parameter_base@DV?$stream_output_adapter@D@__crt_stdio_output@@@__crt_stdio_output@@IAE_NAA_J@Z 1002ab07 f i libucrt:output.obj
 0001:00029b9e       ??$extract_argument_from_va_list@G_J@?$positional_parameter_base@DV?$string_output_adapter@D@__crt_stdio_output@@@__crt_stdio_output@@IAE_NAA_J@Z 1002ab9e f i libucrt:output.obj
 0001:00029c35       ??$extract_argument_from_va_list@G_J@?$positional_parameter_base@_WV?$stream_output_adapter@_W@__crt_stdio_output@@@__crt_stdio_output@@IAE_NAA_J@Z 1002ac35 f i libucrt:output.obj
 0001:00029ccc       ??$extract_argument_from_va_list@G_J@?$positional_parameter_base@_WV?$string_output_adapter@_W@__crt_stdio_output@@@__crt_stdio_output@@IAE_NAA_J@Z 1002accc f i libucrt:output.obj
 0001:00029d63       ??$extract_argument_from_va_list@G_J@?$standard_base@DV?$stream_output_adapter@D@__crt_stdio_output@@@__crt_stdio_output@@IAE_NAA_J@Z 1002ad63 f i libucrt:output.obj
 0001:00029d89       ??$extract_argument_from_va_list@G_J@?$standard_base@DV?$string_output_adapter@D@__crt_stdio_output@@@__crt_stdio_output@@IAE_NAA_J@Z 1002ad89 f i libucrt:output.obj
 0001:00029daf       ??$extract_argument_from_va_list@G_J@?$standard_base@_WV?$stream_output_adapter@_W@__crt_stdio_output@@@__crt_stdio_output@@IAE_NAA_J@Z 1002adaf f i libucrt:output.obj
 0001:00029dd5       ??$extract_argument_from_va_list@G_J@?$standard_base@_WV?$string_output_adapter@_W@__crt_stdio_output@@@__crt_stdio_output@@IAE_NAA_J@Z 1002add5 f i libucrt:output.obj
 0001:00029dfb       ??$extract_argument_from_va_list@H_J@?$positional_parameter_base@DV?$stream_output_adapter@D@__crt_stdio_output@@@__crt_stdio_output@@IAE_NAA_J@Z 1002adfb f i libucrt:output.obj
 0001:00029e8f       ??$extract_argument_from_va_list@H_J@?$positional_parameter_base@DV?$string_output_adapter@D@__crt_stdio_output@@@__crt_stdio_output@@IAE_NAA_J@Z 1002ae8f f i libucrt:output.obj
 0001:00029f23       ??$extract_argument_from_va_list@H_J@?$positional_parameter_base@_WV?$stream_output_adapter@_W@__crt_stdio_output@@@__crt_stdio_output@@IAE_NAA_J@Z 1002af23 f i libucrt:output.obj
 0001:00029fb7       ??$extract_argument_from_va_list@H_J@?$positional_parameter_base@_WV?$string_output_adapter@_W@__crt_stdio_output@@@__crt_stdio_output@@IAE_NAA_J@Z 1002afb7 f i libucrt:output.obj
 0001:0002a04b       ??$extract_argument_from_va_list@H_J@?$standard_base@DV?$stream_output_adapter@D@__crt_stdio_output@@@__crt_stdio_output@@IAE_NAA_J@Z 1002b04b f i libucrt:output.obj
 0001:0002a070       ??$extract_argument_from_va_list@H_J@?$standard_base@DV?$string_output_adapter@D@__crt_stdio_output@@@__crt_stdio_output@@IAE_NAA_J@Z 1002b070 f i libucrt:output.obj
 0001:0002a095       ??$extract_argument_from_va_list@H_J@?$standard_base@_WV?$stream_output_adapter@_W@__crt_stdio_output@@@__crt_stdio_output@@IAE_NAA_J@Z 1002b095 f i libucrt:output.obj
 0001:0002a0ba       ??$extract_argument_from_va_list@H_J@?$standard_base@_WV?$string_output_adapter@_W@__crt_stdio_output@@@__crt_stdio_output@@IAE_NAA_J@Z 1002b0ba f i libucrt:output.obj
 0001:0002a0df       ??$extract_argument_from_va_list@I_J@?$positional_parameter_base@DV?$stream_output_adapter@D@__crt_stdio_output@@@__crt_stdio_output@@IAE_NAA_J@Z 1002b0df f i libucrt:output.obj
 0001:0002a17f       ??$extract_argument_from_va_list@I_J@?$positional_parameter_base@DV?$string_output_adapter@D@__crt_stdio_output@@@__crt_stdio_output@@IAE_NAA_J@Z 1002b17f f i libucrt:output.obj
 0001:0002a21f       ??$extract_argument_from_va_list@I_J@?$positional_parameter_base@_WV?$stream_output_adapter@_W@__crt_stdio_output@@@__crt_stdio_output@@IAE_NAA_J@Z 1002b21f f i libucrt:output.obj
 0001:0002a2bf       ??$extract_argument_from_va_list@I_J@?$positional_parameter_base@_WV?$string_output_adapter@_W@__crt_stdio_output@@@__crt_stdio_output@@IAE_NAA_J@Z 1002b2bf f i libucrt:output.obj
 0001:0002a35f       ??$extract_argument_from_va_list@I_J@?$standard_base@DV?$stream_output_adapter@D@__crt_stdio_output@@@__crt_stdio_output@@IAE_NAA_J@Z 1002b35f f i libucrt:output.obj
 0001:0002a384       ??$extract_argument_from_va_list@I_J@?$standard_base@DV?$string_output_adapter@D@__crt_stdio_output@@@__crt_stdio_output@@IAE_NAA_J@Z 1002b384 f i libucrt:output.obj
 0001:0002a3a9       ??$extract_argument_from_va_list@I_J@?$standard_base@_WV?$stream_output_adapter@_W@__crt_stdio_output@@@__crt_stdio_output@@IAE_NAA_J@Z 1002b3a9 f i libucrt:output.obj
 0001:0002a3ce       ??$extract_argument_from_va_list@I_J@?$standard_base@_WV?$string_output_adapter@_W@__crt_stdio_output@@@__crt_stdio_output@@IAE_NAA_J@Z 1002b3ce f i libucrt:output.obj
 0001:0002a3f3       ??$extract_argument_from_va_list@PADPAD@?$positional_parameter_base@DV?$stream_output_adapter@D@__crt_stdio_output@@@__crt_stdio_output@@IAE_NAAPAD@Z 1002b3f3 f i libucrt:output.obj
 0001:0002a489       ??$extract_argument_from_va_list@PADPAD@?$positional_parameter_base@DV?$string_output_adapter@D@__crt_stdio_output@@@__crt_stdio_output@@IAE_NAAPAD@Z 1002b489 f i libucrt:output.obj
 0001:0002a51f       ??$extract_argument_from_va_list@PADPAD@?$positional_parameter_base@_WV?$stream_output_adapter@_W@__crt_stdio_output@@@__crt_stdio_output@@IAE_NAAPAD@Z 1002b51f f i libucrt:output.obj
 0001:0002a5b5       ??$extract_argument_from_va_list@PADPAD@?$positional_parameter_base@_WV?$string_output_adapter@_W@__crt_stdio_output@@@__crt_stdio_output@@IAE_NAAPAD@Z 1002b5b5 f i libucrt:output.obj
 0001:0002a64b       ??$extract_argument_from_va_list@PADPAD@?$standard_base@DV?$stream_output_adapter@D@__crt_stdio_output@@@__crt_stdio_output@@IAE_NAAPAD@Z 1002b64b f i libucrt:output.obj
 0001:0002a66b       ??$extract_argument_from_va_list@PADPAD@?$standard_base@DV?$string_output_adapter@D@__crt_stdio_output@@@__crt_stdio_output@@IAE_NAAPAD@Z 1002b66b f i libucrt:output.obj
 0001:0002a68b       ??$extract_argument_from_va_list@PADPAD@?$standard_base@_WV?$stream_output_adapter@_W@__crt_stdio_output@@@__crt_stdio_output@@IAE_NAAPAD@Z 1002b68b f i libucrt:output.obj
 0001:0002a6ab       ??$extract_argument_from_va_list@PADPAD@?$standard_base@_WV?$string_output_adapter@_W@__crt_stdio_output@@@__crt_stdio_output@@IAE_NAAPAD@Z 1002b6ab f i libucrt:output.obj
 0001:0002aaa3       ??$extract_argument_from_va_list@PAXPAX@?$positional_parameter_base@DV?$stream_output_adapter@D@__crt_stdio_output@@@__crt_stdio_output@@IAE_NAAPAX@Z 1002baa3 f i libucrt:output.obj
 0001:0002ab39       ??$extract_argument_from_va_list@PAXPAX@?$positional_parameter_base@DV?$string_output_adapter@D@__crt_stdio_output@@@__crt_stdio_output@@IAE_NAAPAX@Z 1002bb39 f i libucrt:output.obj
 0001:0002abcf       ??$extract_argument_from_va_list@PAXPAX@?$positional_parameter_base@_WV?$stream_output_adapter@_W@__crt_stdio_output@@@__crt_stdio_output@@IAE_NAAPAX@Z 1002bbcf f i libucrt:output.obj
 0001:0002ac65       ??$extract_argument_from_va_list@PAXPAX@?$positional_parameter_base@_WV?$string_output_adapter@_W@__crt_stdio_output@@@__crt_stdio_output@@IAE_NAAPAX@Z 1002bc65 f i libucrt:output.obj
 0001:0002acfb       ??$extract_argument_from_va_list@PAXPAX@?$standard_base@DV?$stream_output_adapter@D@__crt_stdio_output@@@__crt_stdio_output@@IAE_NAAPAX@Z 1002bcfb f i libucrt:output.obj
 0001:0002ad1b       ??$extract_argument_from_va_list@PAXPAX@?$standard_base@DV?$string_output_adapter@D@__crt_stdio_output@@@__crt_stdio_output@@IAE_NAAPAX@Z 1002bd1b f i libucrt:output.obj
 0001:0002ad3b       ??$extract_argument_from_va_list@PAXPAX@?$standard_base@_WV?$stream_output_adapter@_W@__crt_stdio_output@@@__crt_stdio_output@@IAE_NAAPAX@Z 1002bd3b f i libucrt:output.obj
 0001:0002ad5b       ??$extract_argument_from_va_list@PAXPAX@?$standard_base@_WV?$string_output_adapter@_W@__crt_stdio_output@@@__crt_stdio_output@@IAE_NAAPAX@Z 1002bd5b f i libucrt:output.obj
 0001:0002ad7b       ??$extract_argument_from_va_list@U_CRT_DOUBLE@@U1@@?$positional_parameter_base@DV?$stream_output_adapter@D@__crt_stdio_output@@@__crt_stdio_output@@IAE_NAAU_CRT_DOUBLE@@@Z 1002bd7b f i libucrt:output.obj
 0001:0002ae22       ??$extract_argument_from_va_list@U_CRT_DOUBLE@@U1@@?$positional_parameter_base@DV?$string_output_adapter@D@__crt_stdio_output@@@__crt_stdio_output@@IAE_NAAU_CRT_DOUBLE@@@Z 1002be22 f i libucrt:output.obj
 0001:0002aec9       ??$extract_argument_from_va_list@U_CRT_DOUBLE@@U1@@?$positional_parameter_base@_WV?$stream_output_adapter@_W@__crt_stdio_output@@@__crt_stdio_output@@IAE_NAAU_CRT_DOUBLE@@@Z 1002bec9 f i libucrt:output.obj
 0001:0002af70       ??$extract_argument_from_va_list@U_CRT_DOUBLE@@U1@@?$positional_parameter_base@_WV?$string_output_adapter@_W@__crt_stdio_output@@@__crt_stdio_output@@IAE_NAAU_CRT_DOUBLE@@@Z 1002bf70 f i libucrt:output.obj
 0001:0002b017       ??$extract_argument_from_va_list@U_CRT_DOUBLE@@U1@@?$standard_base@DV?$stream_output_adapter@D@__crt_stdio_output@@@__crt_stdio_output@@IAE_NAAU_CRT_DOUBLE@@@Z 1002c017 f i libucrt:output.obj
 0001:0002b03f       ??$extract_argument_from_va_list@U_CRT_DOUBLE@@U1@@?$standard_base@DV?$string_output_adapter@D@__crt_stdio_output@@@__crt_stdio_output@@IAE_NAAU_CRT_DOUBLE@@@Z 1002c03f f i libucrt:output.obj
 0001:0002b067       ??$extract_argument_from_va_list@U_CRT_DOUBLE@@U1@@?$standard_base@_WV?$stream_output_adapter@_W@__crt_stdio_output@@@__crt_stdio_output@@IAE_NAAU_CRT_DOUBLE@@@Z 1002c067 f i libucrt:output.obj
 0001:0002b08f       ??$extract_argument_from_va_list@U_CRT_DOUBLE@@U1@@?$standard_base@_WV?$string_output_adapter@_W@__crt_stdio_output@@@__crt_stdio_output@@IAE_NAAU_CRT_DOUBLE@@@Z 1002c08f f i libucrt:output.obj
 0001:0002b0b7       ??$extract_argument_from_va_list@_J_J@?$positional_parameter_base@DV?$stream_output_adapter@D@__crt_stdio_output@@@__crt_stdio_output@@IAE_NAA_J@Z 1002c0b7 f i libucrt:output.obj
 0001:0002b15e       ??$extract_argument_from_va_list@_J_J@?$positional_parameter_base@DV?$string_output_adapter@D@__crt_stdio_output@@@__crt_stdio_output@@IAE_NAA_J@Z 1002c15e f i libucrt:output.obj
 0001:0002b205       ??$extract_argument_from_va_list@_J_J@?$positional_parameter_base@_WV?$stream_output_adapter@_W@__crt_stdio_output@@@__crt_stdio_output@@IAE_NAA_J@Z 1002c205 f i libucrt:output.obj
 0001:0002b2ac       ??$extract_argument_from_va_list@_J_J@?$positional_parameter_base@_WV?$string_output_adapter@_W@__crt_stdio_output@@@__crt_stdio_output@@IAE_NAA_J@Z 1002c2ac f i libucrt:output.obj
 0001:0002b353       ??$extract_argument_from_va_list@_J_J@?$standard_base@DV?$stream_output_adapter@D@__crt_stdio_output@@@__crt_stdio_output@@IAE_NAA_J@Z 1002c353 f i libucrt:output.obj
 0001:0002b37b       ??$extract_argument_from_va_list@_J_J@?$standard_base@DV?$string_output_adapter@D@__crt_stdio_output@@@__crt_stdio_output@@IAE_NAA_J@Z 1002c37b f i libucrt:output.obj
 0001:0002b3a3       ??$extract_argument_from_va_list@_J_J@?$standard_base@_WV?$stream_output_adapter@_W@__crt_stdio_output@@@__crt_stdio_output@@IAE_NAA_J@Z 1002c3a3 f i libucrt:output.obj
 0001:0002b3cb       ??$extract_argument_from_va_list@_J_J@?$standard_base@_WV?$string_output_adapter@_W@__crt_stdio_output@@@__crt_stdio_output@@IAE_NAA_J@Z 1002c3cb f i libucrt:output.obj
 0001:0002b3f3       ??$extract_argument_from_va_list@_K_J@?$positional_parameter_base@DV?$stream_output_adapter@D@__crt_stdio_output@@@__crt_stdio_output@@IAE_NAA_J@Z 1002c3f3 f i libucrt:output.obj
 0001:0002b49a       ??$extract_argument_from_va_list@_K_J@?$positional_parameter_base@DV?$string_output_adapter@D@__crt_stdio_output@@@__crt_stdio_output@@IAE_NAA_J@Z 1002c49a f i libucrt:output.obj
 0001:0002b541       ??$extract_argument_from_va_list@_K_J@?$positional_parameter_base@_WV?$stream_output_adapter@_W@__crt_stdio_output@@@__crt_stdio_output@@IAE_NAA_J@Z 1002c541 f i libucrt:output.obj
 0001:0002b5e8       ??$extract_argument_from_va_list@_K_J@?$positional_parameter_base@_WV?$string_output_adapter@_W@__crt_stdio_output@@@__crt_stdio_output@@IAE_NAA_J@Z 1002c5e8 f i libucrt:output.obj
 0001:0002b68f       ??$extract_argument_from_va_list@_K_J@?$standard_base@DV?$stream_output_adapter@D@__crt_stdio_output@@@__crt_stdio_output@@IAE_NAA_J@Z 1002c68f f i libucrt:output.obj
 0001:0002b6b7       ??$extract_argument_from_va_list@_K_J@?$standard_base@DV?$string_output_adapter@D@__crt_stdio_output@@@__crt_stdio_output@@IAE_NAA_J@Z 1002c6b7 f i libucrt:output.obj
 0001:0002b6df       ??$extract_argument_from_va_list@_K_J@?$standard_base@_WV?$stream_output_adapter@_W@__crt_stdio_output@@@__crt_stdio_output@@IAE_NAA_J@Z 1002c6df f i libucrt:output.obj
 0001:0002b707       ??$extract_argument_from_va_list@_K_J@?$standard_base@_WV?$string_output_adapter@_W@__crt_stdio_output@@@__crt_stdio_output@@IAE_NAA_J@Z 1002c707 f i libucrt:output.obj
 0001:0002b72f       ??$extract_argument_from_va_list@_W_W@?$positional_parameter_base@DV?$stream_output_adapter@D@__crt_stdio_output@@@__crt_stdio_output@@IAE_NAA_W@Z 1002c72f f i libucrt:output.obj
 0001:0002b7ca       ??$extract_argument_from_va_list@_W_W@?$positional_parameter_base@DV?$string_output_adapter@D@__crt_stdio_output@@@__crt_stdio_output@@IAE_NAA_W@Z 1002c7ca f i libucrt:output.obj
 0001:0002b865       ??$extract_argument_from_va_list@_W_W@?$positional_parameter_base@_WV?$stream_output_adapter@_W@__crt_stdio_output@@@__crt_stdio_output@@IAE_NAA_W@Z 1002c865 f i libucrt:output.obj
 0001:0002b900       ??$extract_argument_from_va_list@_W_W@?$positional_parameter_base@_WV?$string_output_adapter@_W@__crt_stdio_output@@@__crt_stdio_output@@IAE_NAA_W@Z 1002c900 f i libucrt:output.obj
 0001:0002b99b       ??$extract_argument_from_va_list@_W_W@?$standard_base@DV?$stream_output_adapter@D@__crt_stdio_output@@@__crt_stdio_output@@IAE_NAA_W@Z 1002c99b f i libucrt:output.obj
 0001:0002b9be       ??$extract_argument_from_va_list@_W_W@?$standard_base@DV?$string_output_adapter@D@__crt_stdio_output@@@__crt_stdio_output@@IAE_NAA_W@Z 1002c9be f i libucrt:output.obj
 0001:0002b9e1       ??$extract_argument_from_va_list@_W_W@?$standard_base@_WV?$stream_output_adapter@_W@__crt_stdio_output@@@__crt_stdio_output@@IAE_NAA_W@Z 1002c9e1 f i libucrt:output.obj
 0001:0002ba04       ??$extract_argument_from_va_list@_W_W@?$standard_base@_WV?$string_output_adapter@_W@__crt_stdio_output@@@__crt_stdio_output@@IAE_NAA_W@Z 1002ca04 f i libucrt:output.obj
 0001:0002ba27       ??$get_parameter_type@D@?$positional_parameter_base@DV?$stream_output_adapter@D@__crt_stdio_output@@@__crt_stdio_output@@CA?AW4parameter_type@01@PAD@Z 1002ca27 f i libucrt:output.obj
 0001:0002ba2b       ??$get_parameter_type@D@?$positional_parameter_base@DV?$string_output_adapter@D@__crt_stdio_output@@@__crt_stdio_output@@CA?AW4parameter_type@01@PAD@Z 1002ca2b f i libucrt:output.obj
 0001:0002ba2f       ??$get_parameter_type@D@?$positional_parameter_base@_WV?$stream_output_adapter@_W@__crt_stdio_output@@@__crt_stdio_output@@CA?AW4parameter_type@01@PAD@Z 1002ca2f f i libucrt:output.obj
 0001:0002ba33       ??$get_parameter_type@D@?$positional_parameter_base@_WV?$string_output_adapter@_W@__crt_stdio_output@@@__crt_stdio_output@@CA?AW4parameter_type@01@PAD@Z 1002ca33 f i libucrt:output.obj
 0001:0002ba47       ??$get_parameter_type@X@?$positional_parameter_base@DV?$stream_output_adapter@D@__crt_stdio_output@@@__crt_stdio_output@@CA?AW4parameter_type@01@PAX@Z 1002ca47 f i libucrt:output.obj
 0001:0002ba4b       ??$get_parameter_type@X@?$positional_parameter_base@DV?$string_output_adapter@D@__crt_stdio_output@@@__crt_stdio_output@@CA?AW4parameter_type@01@PAX@Z 1002ca4b f i libucrt:output.obj
 0001:0002ba4f       ??$get_parameter_type@X@?$positional_parameter_base@_WV?$stream_output_adapter@_W@__crt_stdio_output@@@__crt_stdio_output@@CA?AW4parameter_type@01@PAX@Z 1002ca4f f i libucrt:output.obj
 0001:0002ba53       ??$get_parameter_type@X@?$positional_parameter_base@_WV?$string_output_adapter@_W@__crt_stdio_output@@@__crt_stdio_output@@CA?AW4parameter_type@01@PAX@Z 1002ca53 f i libucrt:output.obj
 0001:0002ba57       ??$is_character_specifier@D@?$positional_parameter_base@DV?$stream_output_adapter@D@__crt_stdio_output@@@__crt_stdio_output@@CA_ND@Z 1002ca57 f i libucrt:output.obj
 0001:0002ba75       ??$is_character_specifier@D@?$positional_parameter_base@DV?$string_output_adapter@D@__crt_stdio_output@@@__crt_stdio_output@@CA_ND@Z 1002ca75 f i libucrt:output.obj
 0001:0002ba93       ??$is_character_specifier@_W@?$positional_parameter_base@_WV?$stream_output_adapter@_W@__crt_stdio_output@@@__crt_stdio_output@@CA_N_W@Z 1002ca93 f i libucrt:output.obj
 0001:0002bab4       ??$is_character_specifier@_W@?$positional_parameter_base@_WV?$string_output_adapter@_W@__crt_stdio_output@@@__crt_stdio_output@@CA_N_W@Z 1002cab4 f i libucrt:output.obj
 0001:0002bad5       ??$is_integral_specifier@D@?$positional_parameter_base@DV?$stream_output_adapter@D@__crt_stdio_output@@@__crt_stdio_output@@CA_ND@Z 1002cad5 f i libucrt:output.obj
 0001:0002bb0c       ??$is_integral_specifier@D@?$positional_parameter_base@DV?$string_output_adapter@D@__crt_stdio_output@@@__crt_stdio_output@@CA_ND@Z 1002cb0c f i libucrt:output.obj
 0001:0002bb43       ??$is_integral_specifier@_W@?$positional_parameter_base@_WV?$stream_output_adapter@_W@__crt_stdio_output@@@__crt_stdio_output@@CA_N_W@Z 1002cb43 f i libucrt:output.obj
 0001:0002bb8c       ??$is_integral_specifier@_W@?$positional_parameter_base@_WV?$string_output_adapter@_W@__crt_stdio_output@@@__crt_stdio_output@@CA_N_W@Z 1002cb8c f i libucrt:output.obj
 0001:0002bbd5       ??$is_pointer_specifier@D@?$positional_parameter_base@DV?$stream_output_adapter@D@__crt_stdio_output@@@__crt_stdio_output@@CA_ND@Z 1002cbd5 f i libucrt:output.obj
 0001:0002bbe6       ??$is_pointer_specifier@D@?$positional_parameter_base@DV?$string_output_adapter@D@__crt_stdio_output@@@__crt_stdio_output@@CA_ND@Z 1002cbe6 f i libucrt:output.obj
 0001:0002bbf7       ??$is_pointer_specifier@_W@?$positional_parameter_base@_WV?$stream_output_adapter@_W@__crt_stdio_output@@@__crt_stdio_output@@CA_N_W@Z 1002cbf7 f i libucrt:output.obj
 0001:0002bc09       ??$is_pointer_specifier@_W@?$positional_parameter_base@_WV?$string_output_adapter@_W@__crt_stdio_output@@@__crt_stdio_output@@CA_N_W@Z 1002cc09 f i libucrt:output.obj
 0001:0002bc1b       ??$is_string_specifier@D@?$positional_parameter_base@DV?$stream_output_adapter@D@__crt_stdio_output@@@__crt_stdio_output@@CA_ND@Z 1002cc1b f i libucrt:output.obj
 0001:0002bc39       ??$is_string_specifier@D@?$positional_parameter_base@DV?$string_output_adapter@D@__crt_stdio_output@@@__crt_stdio_output@@CA_ND@Z 1002cc39 f i libucrt:output.obj
 0001:0002bc57       ??$is_string_specifier@_W@?$positional_parameter_base@_WV?$stream_output_adapter@_W@__crt_stdio_output@@@__crt_stdio_output@@CA_N_W@Z 1002cc57 f i libucrt:output.obj
 0001:0002bc78       ??$is_string_specifier@_W@?$positional_parameter_base@_WV?$string_output_adapter@_W@__crt_stdio_output@@@__crt_stdio_output@@CA_N_W@Z 1002cc78 f i libucrt:output.obj
 0001:0002bc99       ??$is_wide_character_specifier@D@__crt_stdio_output@@YA_N_KDW4length_modifier@0@@Z 1002cc99 f i libucrt:output.obj
 0001:0002bcd6       ??$is_wide_character_specifier@_W@__crt_stdio_output@@YA_N_K_WW4length_modifier@0@@Z 1002ccd6 f i libucrt:output.obj
 0001:0002bd37       ??$peek_va_arg@C@__crt_stdio_output@@YACPAD@Z 1002cd37 f i libucrt:output.obj
 0001:0002bd46       ??$peek_va_arg@E@__crt_stdio_output@@YAEPAD@Z 1002cd46 f i libucrt:output.obj
 0001:0002bd55       ??$peek_va_arg@F@__crt_stdio_output@@YAFPAD@Z 1002cd55 f i libucrt:output.obj
 0001:0002bd65       ??$peek_va_arg@G@__crt_stdio_output@@YAGPAD@Z 1002cd65 f i libucrt:output.obj
 0001:0002bd75       ??$peek_va_arg@H@__crt_stdio_output@@YAHPAD@Z 1002cd75 f i libucrt:output.obj
 0001:0002bd84       ??$peek_va_arg@I@__crt_stdio_output@@YAIPAD@Z 1002cd84 f i libucrt:output.obj
 0001:0002bd93       ??$peek_va_arg@PAD@__crt_stdio_output@@YAPADPAD@Z 1002cd93 f i libucrt:output.obj
 0001:0002bdde       ??$peek_va_arg@PAX@__crt_stdio_output@@YAPAXPAD@Z 1002cdde f i libucrt:output.obj
 0001:0002bded       ??$peek_va_arg@U_CRT_DOUBLE@@@__crt_stdio_output@@YA?AU_CRT_DOUBLE@@PAD@Z 1002cded f i libucrt:output.obj
 0001:0002bdff       ??$peek_va_arg@_J@__crt_stdio_output@@YA_JPAD@Z 1002cdff f i libucrt:output.obj
 0001:0002be11       ??$peek_va_arg@_K@__crt_stdio_output@@YA_KPAD@Z 1002ce11 f i libucrt:output.obj
 0001:0002be23       ??$peek_va_arg@_W@__crt_stdio_output@@YA_WPAD@Z 1002ce23 f i libucrt:output.obj
 0001:0002be33       ??$puttc_nolock@ABDPAU_iobuf@@@?$__crt_char_traits@D@@SAHABD$$QAPAU_iobuf@@@Z 1002ce33 f i libucrt:output.obj
 0001:0002be53       ??$puttc_nolock@AB_WPAU_iobuf@@@?$__crt_char_traits@_W@@SAGAB_W$$QAPAU_iobuf@@@Z 1002ce53 f i libucrt:output.obj
 0001:0002be73       ??$read_va_arg@C@__crt_stdio_output@@YACAAPAD@Z 1002ce73 f i libucrt:output.obj
 0001:0002be89       ??$read_va_arg@E@__crt_stdio_output@@YAEAAPAD@Z 1002ce89 f i libucrt:output.obj
 0001:0002be9f       ??$read_va_arg@F@__crt_stdio_output@@YAFAAPAD@Z 1002ce9f f i libucrt:output.obj
 0001:0002beb6       ??$read_va_arg@G@__crt_stdio_output@@YAGAAPAD@Z 1002ceb6 f i libucrt:output.obj
 0001:0002becd       ??$read_va_arg@H@__crt_stdio_output@@YAHAAPAD@Z 1002cecd f i libucrt:output.obj
 0001:0002bee3       ??$read_va_arg@I@__crt_stdio_output@@YAIAAPAD@Z 1002cee3 f i libucrt:output.obj
 0001:0002bef9       ??$read_va_arg@PAD@__crt_stdio_output@@YAPADAAPAD@Z 1002cef9 f i libucrt:output.obj
 0001:0002c017       ??$read_va_arg@PAX@__crt_stdio_output@@YAPAXAAPAD@Z 1002d017 f i libucrt:output.obj
 0001:0002c02d       ??$read_va_arg@U_CRT_DOUBLE@@@__crt_stdio_output@@YA?AU_CRT_DOUBLE@@AAPAD@Z 1002d02d f i libucrt:output.obj
 0001:0002c048       ??$read_va_arg@_J@__crt_stdio_output@@YA_JAAPAD@Z 1002d048 f i libucrt:output.obj
 0001:0002c062       ??$read_va_arg@_K@__crt_stdio_output@@YA_KAAPAD@Z 1002d062 f i libucrt:output.obj
 0001:0002c07c       ??$read_va_arg@_W@__crt_stdio_output@@YA_WAAPAD@Z 1002d07c f i libucrt:output.obj
 0001:0002c093       ??$scratch_count@D@formatting_buffer@__crt_stdio_output@@QBEIXZ 1002d093 f i libucrt:output.obj
 0001:0002c098       ??$scratch_data@D@formatting_buffer@__crt_stdio_output@@QAEPADXZ 1002d098 f i libucrt:output.obj
 0001:0002c0bd       ??$tcstol@AAPBDPAPADH@?$__crt_char_traits@D@@SAJAAPBD$$QAPAPAD$$QAH@Z 1002d0bd f i libucrt:output.obj
 0001:0002c0e2       ??$tcstol@AAPB_WPAPA_WH@?$__crt_char_traits@_W@@SAJAAPB_W$$QAPAPA_W$$QAH@Z 1002d0e2 f i libucrt:output.obj
 0001:0002c107       ??$tcstol@PBDPAPADH@?$__crt_char_traits@D@@SAJ$$QAPBD$$QAPAPAD$$QAH@Z 1002d107 f i libucrt:output.obj
 0001:0002c12c       ??$tcstol@PB_WPAPA_WH@?$__crt_char_traits@_W@@SAJ$$QAPB_W$$QAPAPA_W$$QAH@Z 1002d12c f i libucrt:output.obj
 0001:0002c151       ??$type_case_integer_parse_into_buffer@I@?$output_processor@DV?$stream_output_adapter@D@__crt_stdio_output@@V?$format_validation_base@DV?$stream_output_adapter@D@__crt_stdio_output@@@2@@__crt_stdio_output@@AAEXII_N@Z 1002d151 f i libucrt:output.obj
 0001:0002c1e0       ??$type_case_integer_parse_into_buffer@I@?$output_processor@DV?$stream_output_adapter@D@__crt_stdio_output@@V?$positional_parameter_base@DV?$stream_output_adapter@D@__crt_stdio_output@@@2@@__crt_stdio_output@@AAEXII_N@Z 1002d1e0 f i libucrt:output.obj
 0001:0002c26f       ??$type_case_integer_parse_into_buffer@I@?$output_processor@DV?$stream_output_adapter@D@__crt_stdio_output@@V?$standard_base@DV?$stream_output_adapter@D@__crt_stdio_output@@@2@@__crt_stdio_output@@AAEXII_N@Z 1002d26f f i libucrt:output.obj
 0001:0002c2fe       ??$type_case_integer_parse_into_buffer@I@?$output_processor@DV?$string_output_adapter@D@__crt_stdio_output@@V?$format_validation_base@DV?$string_output_adapter@D@__crt_stdio_output@@@2@@__crt_stdio_output@@AAEXII_N@Z 1002d2fe f i libucrt:output.obj
 0001:0002c38d       ??$type_case_integer_parse_into_buffer@I@?$output_processor@DV?$string_output_adapter@D@__crt_stdio_output@@V?$positional_parameter_base@DV?$string_output_adapter@D@__crt_stdio_output@@@2@@__crt_stdio_output@@AAEXII_N@Z 1002d38d f i libucrt:output.obj
 0001:0002c41c       ??$type_case_integer_parse_into_buffer@I@?$output_processor@DV?$string_output_adapter@D@__crt_stdio_output@@V?$standard_base@DV?$string_output_adapter@D@__crt_stdio_output@@@2@@__crt_stdio_output@@AAEXII_N@Z 1002d41c f i libucrt:output.obj
 0001:0002c4ab       ??$type_case_integer_parse_into_buffer@I@?$output_processor@_WV?$stream_output_adapter@_W@__crt_stdio_output@@V?$format_validation_base@_WV?$stream_output_adapter@_W@__crt_stdio_output@@@2@@__crt_stdio_output@@AAEXII_N@Z 1002d4ab f i libucrt:output.obj
 0001:0002c54b       ??$type_case_integer_parse_into_buffer@I@?$output_processor@_WV?$stream_output_adapter@_W@__crt_stdio_output@@V?$positional_parameter_base@_WV?$stream_output_adapter@_W@__crt_stdio_output@@@2@@__crt_stdio_output@@AAEXII_N@Z 1002d54b f i libucrt:output.obj
 0001:0002c5eb       ??$type_case_integer_parse_into_buffer@I@?$output_processor@_WV?$stream_output_adapter@_W@__crt_stdio_output@@V?$standard_base@_WV?$stream_output_adapter@_W@__crt_stdio_output@@@2@@__crt_stdio_output@@AAEXII_N@Z 1002d5eb f i libucrt:output.obj
 0001:0002c68b       ??$type_case_integer_parse_into_buffer@I@?$output_processor@_WV?$string_output_adapter@_W@__crt_stdio_output@@V?$format_validation_base@_WV?$string_output_adapter@_W@__crt_stdio_output@@@2@@__crt_stdio_output@@AAEXII_N@Z 1002d68b f i libucrt:output.obj
 0001:0002c72b       ??$type_case_integer_parse_into_buffer@I@?$output_processor@_WV?$string_output_adapter@_W@__crt_stdio_output@@V?$positional_parameter_base@_WV?$string_output_adapter@_W@__crt_stdio_output@@@2@@__crt_stdio_output@@AAEXII_N@Z 1002d72b f i libucrt:output.obj
 0001:0002c7cb       ??$type_case_integer_parse_into_buffer@I@?$output_processor@_WV?$string_output_adapter@_W@__crt_stdio_output@@V?$standard_base@_WV?$string_output_adapter@_W@__crt_stdio_output@@@2@@__crt_stdio_output@@AAEXII_N@Z 1002d7cb f i libucrt:output.obj
 0001:0002c86b       ??$type_case_integer_parse_into_buffer@_K@?$output_processor@DV?$stream_output_adapter@D@__crt_stdio_output@@V?$format_validation_base@DV?$stream_output_adapter@D@__crt_stdio_output@@@2@@__crt_stdio_output@@AAEX_KI_N@Z 1002d86b f i libucrt:output.obj
 0001:0002c91d       ??$type_case_integer_parse_into_buffer@_K@?$output_processor@DV?$stream_output_adapter@D@__crt_stdio_output@@V?$positional_parameter_base@DV?$stream_output_adapter@D@__crt_stdio_output@@@2@@__crt_stdio_output@@AAEX_KI_N@Z 1002d91d f i libucrt:output.obj
 0001:0002c9cf       ??$type_case_integer_parse_into_buffer@_K@?$output_processor@DV?$stream_output_adapter@D@__crt_stdio_output@@V?$standard_base@DV?$stream_output_adapter@D@__crt_stdio_output@@@2@@__crt_stdio_output@@AAEX_KI_N@Z 1002d9cf f i libucrt:output.obj
 0001:0002ca81       ??$type_case_integer_parse_into_buffer@_K@?$output_processor@DV?$string_output_adapter@D@__crt_stdio_output@@V?$format_validation_base@DV?$string_output_adapter@D@__crt_stdio_output@@@2@@__crt_stdio_output@@AAEX_KI_N@Z 1002da81 f i libucrt:output.obj
 0001:0002cb33       ??$type_case_integer_parse_into_buffer@_K@?$output_processor@DV?$string_output_adapter@D@__crt_stdio_output@@V?$positional_parameter_base@DV?$string_output_adapter@D@__crt_stdio_output@@@2@@__crt_stdio_output@@AAEX_KI_N@Z 1002db33 f i libucrt:output.obj
 0001:0002cbe5       ??$type_case_integer_parse_into_buffer@_K@?$output_processor@DV?$string_output_adapter@D@__crt_stdio_output@@V?$standard_base@DV?$string_output_adapter@D@__crt_stdio_output@@@2@@__crt_stdio_output@@AAEX_KI_N@Z 1002dbe5 f i libucrt:output.obj
 0001:0002cc97       ??$type_case_integer_parse_into_buffer@_K@?$output_processor@_WV?$stream_output_adapter@_W@__crt_stdio_output@@V?$format_validation_base@_WV?$stream_output_adapter@_W@__crt_stdio_output@@@2@@__crt_stdio_output@@AAEX_KI_N@Z 1002dc97 f i libucrt:output.obj
 0001:0002cd5a       ??$type_case_integer_parse_into_buffer@_K@?$output_processor@_WV?$stream_output_adapter@_W@__crt_stdio_output@@V?$positional_parameter_base@_WV?$stream_output_adapter@_W@__crt_stdio_output@@@2@@__crt_stdio_output@@AAEX_KI_N@Z 1002dd5a f i libucrt:output.obj
 0001:0002ce1d       ??$type_case_integer_parse_into_buffer@_K@?$output_processor@_WV?$stream_output_adapter@_W@__crt_stdio_output@@V?$standard_base@_WV?$stream_output_adapter@_W@__crt_stdio_output@@@2@@__crt_stdio_output@@AAEX_KI_N@Z 1002de1d f i libucrt:output.obj
 0001:0002cee0       ??$type_case_integer_parse_into_buffer@_K@?$output_processor@_WV?$string_output_adapter@_W@__crt_stdio_output@@V?$format_validation_base@_WV?$string_output_adapter@_W@__crt_stdio_output@@@2@@__crt_stdio_output@@AAEX_KI_N@Z 1002dee0 f i libucrt:output.obj
 0001:0002cfa3       ??$type_case_integer_parse_into_buffer@_K@?$output_processor@_WV?$string_output_adapter@_W@__crt_stdio_output@@V?$positional_parameter_base@_WV?$string_output_adapter@_W@__crt_stdio_output@@@2@@__crt_stdio_output@@AAEX_KI_N@Z 1002dfa3 f i libucrt:output.obj
 0001:0002d066       ??$type_case_integer_parse_into_buffer@_K@?$output_processor@_WV?$string_output_adapter@_W@__crt_stdio_output@@V?$standard_base@_WV?$string_output_adapter@_W@__crt_stdio_output@@@2@@__crt_stdio_output@@AAEX_KI_N@Z 1002e066 f i libucrt:output.obj
 0001:0002d129       ??$write_multiple_characters@V?$stream_output_adapter@D@__crt_stdio_output@@D@__crt_stdio_output@@YAXABV?$stream_output_adapter@D@0@DHQAH@Z 1002e129 f i libucrt:output.obj
 0001:0002d172       ??$write_multiple_characters@V?$stream_output_adapter@_W@__crt_stdio_output@@D@__crt_stdio_output@@YAXABV?$stream_output_adapter@_W@0@DHQAH@Z 1002e172 f i libucrt:output.obj
 0001:0002d1c2       ??$write_multiple_characters@V?$string_output_adapter@D@__crt_stdio_output@@D@__crt_stdio_output@@YAXABV?$string_output_adapter@D@0@DHQAH@Z 1002e1c2 f i libucrt:output.obj
 0001:0002d1f9       ??$write_multiple_characters@V?$string_output_adapter@_W@__crt_stdio_output@@D@__crt_stdio_output@@YAXABV?$string_output_adapter@_W@0@DHQAH@Z 1002e1f9 f i libucrt:output.obj
 0001:0002d46a       ??0?$common_data@D@__crt_stdio_output@@IAE@XZ 1002e46a f i libucrt:output.obj
 0001:0002d4c2       ??0?$common_data@_W@__crt_stdio_output@@IAE@XZ 1002e4c2 f i libucrt:output.obj
 0001:0002d521       ??0?$output_adapter_data@DV?$stream_output_adapter@D@__crt_stdio_output@@@__crt_stdio_output@@IAE@ABV?$stream_output_adapter@D@1@_KQBDQAU__crt_locale_pointers@@QAD@Z 1002e521 f i libucrt:output.obj
 0001:0002d56c       ??0?$output_adapter_data@DV?$string_output_adapter@D@__crt_stdio_output@@@__crt_stdio_output@@IAE@ABV?$string_output_adapter@D@1@_KQBDQAU__crt_locale_pointers@@QAD@Z 1002e56c f i libucrt:output.obj
 0001:0002d5b7       ??0?$output_adapter_data@_WV?$stream_output_adapter@_W@__crt_stdio_output@@@__crt_stdio_output@@IAE@ABV?$stream_output_adapter@_W@1@_KQB_WQAU__crt_locale_pointers@@QAD@Z 1002e5b7 f i libucrt:output.obj
 0001:0002d602       ??0?$output_adapter_data@_WV?$string_output_adapter@_W@__crt_stdio_output@@@__crt_stdio_output@@IAE@ABV?$string_output_adapter@_W@1@_KQB_WQAU__crt_locale_pointers@@QAD@Z 1002e602 f i libucrt:output.obj
 0001:0002d64d       ??0?$output_processor@DV?$stream_output_adapter@D@__crt_stdio_output@@V?$format_validation_base@DV?$stream_output_adapter@D@__crt_stdio_output@@@2@@__crt_stdio_output@@QAE@ABV?$stream_output_adapter@D@1@_KQBDQAU__crt_locale_pointers@@QAD@Z 1002e64d f i libucrt:output.obj
 0001:0002d685       ??0?$output_processor@DV?$stream_output_adapter@D@__crt_stdio_output@@V?$positional_parameter_base@DV?$stream_output_adapter@D@__crt_stdio_output@@@2@@__crt_stdio_output@@QAE@ABV?$stream_output_adapter@D@1@_KQBDQAU__crt_locale_pointers@@QAD@Z 1002e685 f i libucrt:output.obj
 0001:0002d6b5       ??0?$output_processor@DV?$stream_output_adapter@D@__crt_stdio_output@@V?$standard_base@DV?$stream_output_adapter@D@__crt_stdio_output@@@2@@__crt_stdio_output@@QAE@ABV?$stream_output_adapter@D@1@_KQBDQAU__crt_locale_pointers@@QAD@Z 1002e6b5 f i libucrt:output.obj
 0001:0002d6ed       ??0?$output_processor@DV?$string_output_adapter@D@__crt_stdio_output@@V?$format_validation_base@DV?$string_output_adapter@D@__crt_stdio_output@@@2@@__crt_stdio_output@@QAE@ABV?$string_output_adapter@D@1@_KQBDQAU__crt_locale_pointers@@QAD@Z 1002e6ed f i libucrt:output.obj
 0001:0002d725       ??0?$output_processor@DV?$string_output_adapter@D@__crt_stdio_output@@V?$positional_parameter_base@DV?$string_output_adapter@D@__crt_stdio_output@@@2@@__crt_stdio_output@@QAE@ABV?$string_output_adapter@D@1@_KQBDQAU__crt_locale_pointers@@QAD@Z 1002e725 f i libucrt:output.obj
 0001:0002d755       ??0?$output_processor@DV?$string_output_adapter@D@__crt_stdio_output@@V?$standard_base@DV?$string_output_adapter@D@__crt_stdio_output@@@2@@__crt_stdio_output@@QAE@ABV?$string_output_adapter@D@1@_KQBDQAU__crt_locale_pointers@@QAD@Z 1002e755 f i libucrt:output.obj
 0001:0002d78d       ??0?$output_processor@_WV?$stream_output_adapter@_W@__crt_stdio_output@@V?$format_validation_base@_WV?$stream_output_adapter@_W@__crt_stdio_output@@@2@@__crt_stdio_output@@QAE@ABV?$stream_output_adapter@_W@1@_KQB_WQAU__crt_locale_pointers@@QAD@Z 1002e78d f i libucrt:output.obj
 0001:0002d7c5       ??0?$output_processor@_WV?$stream_output_adapter@_W@__crt_stdio_output@@V?$positional_parameter_base@_WV?$stream_output_adapter@_W@__crt_stdio_output@@@2@@__crt_stdio_output@@QAE@ABV?$stream_output_adapter@_W@1@_KQB_WQAU__crt_locale_pointers@@QAD@Z 1002e7c5 f i libucrt:output.obj
 0001:0002d7f5       ??0?$output_processor@_WV?$stream_output_adapter@_W@__crt_stdio_output@@V?$standard_base@_WV?$stream_output_adapter@_W@__crt_stdio_output@@@2@@__crt_stdio_output@@QAE@ABV?$stream_output_adapter@_W@1@_KQB_WQAU__crt_locale_pointers@@QAD@Z 1002e7f5 f i libucrt:output.obj
 0001:0002d82d       ??0?$output_processor@_WV?$string_output_adapter@_W@__crt_stdio_output@@V?$format_validation_base@_WV?$string_output_adapter@_W@__crt_stdio_output@@@2@@__crt_stdio_output@@QAE@ABV?$string_output_adapter@_W@1@_KQB_WQAU__crt_locale_pointers@@QAD@Z 1002e82d f i libucrt:output.obj
 0001:0002d865       ??0?$output_processor@_WV?$string_output_adapter@_W@__crt_stdio_output@@V?$positional_parameter_base@_WV?$string_output_adapter@_W@__crt_stdio_output@@@2@@__crt_stdio_output@@QAE@ABV?$string_output_adapter@_W@1@_KQB_WQAU__crt_locale_pointers@@QAD@Z 1002e865 f i libucrt:output.obj
 0001:0002d895       ??0?$output_processor@_WV?$string_output_adapter@_W@__crt_stdio_output@@V?$standard_base@_WV?$string_output_adapter@_W@__crt_stdio_output@@@2@@__crt_stdio_output@@QAE@ABV?$string_output_adapter@_W@1@_KQB_WQAU__crt_locale_pointers@@QAD@Z 1002e895 f i libucrt:output.obj
 0001:0002d8cd       ??0?$stream_output_adapter@D@__crt_stdio_output@@QAE@QAU_iobuf@@@Z 1002e8cd f i libucrt:output.obj
 0001:0002d8e1       ??0?$stream_output_adapter@_W@__crt_stdio_output@@QAE@QAU_iobuf@@@Z 1002e8e1 f i libucrt:output.obj
 0001:0002d8f5       ??0?$string_output_adapter@D@__crt_stdio_output@@QAE@QAU?$string_output_adapter_context@D@1@@Z 1002e8f5 f i libucrt:output.obj
 0001:0002d909       ??0?$string_output_adapter@_W@__crt_stdio_output@@QAE@QAU?$string_output_adapter_context@_W@1@@Z 1002e909 f i libucrt:output.obj
 0001:0002d91d       ??0__crt_deferred_errno_cache@@QAE@XZ 1002e91d f i libucrt:output.obj
 0001:0002d923       ??0__crt_errno_guard@@QAE@QAH@Z 1002e923 f i libucrt:output.obj
 0001:0002d941       ??0formatting_buffer@__crt_stdio_output@@QAE@XZ 1002e941 f i libucrt:output.obj
 0001:0002d956       ??1?$common_data@D@__crt_stdio_output@@QAE@XZ 1002e956 f i libucrt:output.obj
 0001:0002d960       ??1?$common_data@_W@__crt_stdio_output@@QAE@XZ 1002e960 f i libucrt:output.obj
 0001:0002d96a       ??1?$format_validation_base@DV?$stream_output_adapter@D@__crt_stdio_output@@@__crt_stdio_output@@QAE@XZ 1002e96a f i libucrt:output.obj
 0001:0002d974       ??1?$format_validation_base@DV?$string_output_adapter@D@__crt_stdio_output@@@__crt_stdio_output@@QAE@XZ 1002e974 f i libucrt:output.obj
 0001:0002d97e       ??1?$format_validation_base@_WV?$stream_output_adapter@_W@__crt_stdio_output@@@__crt_stdio_output@@QAE@XZ 1002e97e f i libucrt:output.obj
 0001:0002d988       ??1?$format_validation_base@_WV?$string_output_adapter@_W@__crt_stdio_output@@@__crt_stdio_output@@QAE@XZ 1002e988 f i libucrt:output.obj
 0001:0002d992       ??1?$output_adapter_data@DV?$stream_output_adapter@D@__crt_stdio_output@@@__crt_stdio_output@@QAE@XZ 1002e992 f i libucrt:output.obj
 0001:0002d99c       ??1?$output_adapter_data@DV?$string_output_adapter@D@__crt_stdio_output@@@__crt_stdio_output@@QAE@XZ 1002e99c f i libucrt:output.obj
 0001:0002d9a6       ??1?$output_adapter_data@_WV?$stream_output_adapter@_W@__crt_stdio_output@@@__crt_stdio_output@@QAE@XZ 1002e9a6 f i libucrt:output.obj
 0001:0002d9b0       ??1?$output_adapter_data@_WV?$string_output_adapter@_W@__crt_stdio_output@@@__crt_stdio_output@@QAE@XZ 1002e9b0 f i libucrt:output.obj
 0001:0002d9ba       ??1?$output_processor@DV?$stream_output_adapter@D@__crt_stdio_output@@V?$format_validation_base@DV?$stream_output_adapter@D@__crt_stdio_output@@@2@@__crt_stdio_output@@QAE@XZ 1002e9ba f i libucrt:output.obj
 0001:0002d9c4       ??1?$output_processor@DV?$stream_output_adapter@D@__crt_stdio_output@@V?$positional_parameter_base@DV?$stream_output_adapter@D@__crt_stdio_output@@@2@@__crt_stdio_output@@QAE@XZ 1002e9c4 f i libucrt:output.obj
 0001:0002d9ce       ??1?$output_processor@DV?$stream_output_adapter@D@__crt_stdio_output@@V?$standard_base@DV?$stream_output_adapter@D@__crt_stdio_output@@@2@@__crt_stdio_output@@QAE@XZ 1002e9ce f i libucrt:output.obj
 0001:0002d9d8       ??1?$output_processor@DV?$string_output_adapter@D@__crt_stdio_output@@V?$format_validation_base@DV?$string_output_adapter@D@__crt_stdio_output@@@2@@__crt_stdio_output@@QAE@XZ 1002e9d8 f i libucrt:output.obj
 0001:0002d9e2       ??1?$output_processor@DV?$string_output_adapter@D@__crt_stdio_output@@V?$positional_parameter_base@DV?$string_output_adapter@D@__crt_stdio_output@@@2@@__crt_stdio_output@@QAE@XZ 1002e9e2 f i libucrt:output.obj
 0001:0002d9ec       ??1?$output_processor@DV?$string_output_adapter@D@__crt_stdio_output@@V?$standard_base@DV?$string_output_adapter@D@__crt_stdio_output@@@2@@__crt_stdio_output@@QAE@XZ 1002e9ec f i libucrt:output.obj
 0001:0002d9f6       ??1?$output_processor@_WV?$stream_output_adapter@_W@__crt_stdio_output@@V?$format_validation_base@_WV?$stream_output_adapter@_W@__crt_stdio_output@@@2@@__crt_stdio_output@@QAE@XZ 1002e9f6 f i libucrt:output.obj
 0001:0002da00       ??1?$output_processor@_WV?$stream_output_adapter@_W@__crt_stdio_output@@V?$positional_parameter_base@_WV?$stream_output_adapter@_W@__crt_stdio_output@@@2@@__crt_stdio_output@@QAE@XZ 1002ea00 f i libucrt:output.obj
 0001:0002da0a       ??1?$output_processor@_WV?$stream_output_adapter@_W@__crt_stdio_output@@V?$standard_base@_WV?$stream_output_adapter@_W@__crt_stdio_output@@@2@@__crt_stdio_output@@QAE@XZ 1002ea0a f i libucrt:output.obj
 0001:0002da14       ??1?$output_processor@_WV?$string_output_adapter@_W@__crt_stdio_output@@V?$format_validation_base@_WV?$string_output_adapter@_W@__crt_stdio_output@@@2@@__crt_stdio_output@@QAE@XZ 1002ea14 f i libucrt:output.obj
 0001:0002da1e       ??1?$output_processor@_WV?$string_output_adapter@_W@__crt_stdio_output@@V?$positional_parameter_base@_WV?$string_output_adapter@_W@__crt_stdio_output@@@2@@__crt_stdio_output@@QAE@XZ 1002ea1e f i libucrt:output.obj
 0001:0002da28       ??1?$output_processor@_WV?$string_output_adapter@_W@__crt_stdio_output@@V?$standard_base@_WV?$string_output_adapter@_W@__crt_stdio_output@@@2@@__crt_stdio_output@@QAE@XZ 1002ea28 f i libucrt:output.obj
 0001:0002da32       ??1?$positional_parameter_base@DV?$stream_output_adapter@D@__crt_stdio_output@@@__crt_stdio_output@@QAE@XZ 1002ea32 f i libucrt:output.obj
 0001:0002da3c       ??1?$positional_parameter_base@DV?$string_output_adapter@D@__crt_stdio_output@@@__crt_stdio_output@@QAE@XZ 1002ea3c f i libucrt:output.obj
 0001:0002da46       ??1?$positional_parameter_base@_WV?$stream_output_adapter@_W@__crt_stdio_output@@@__crt_stdio_output@@QAE@XZ 1002ea46 f i libucrt:output.obj
 0001:0002da50       ??1?$positional_parameter_base@_WV?$string_output_adapter@_W@__crt_stdio_output@@@__crt_stdio_output@@QAE@XZ 1002ea50 f i libucrt:output.obj
 0001:0002da5a       ??1?$standard_base@DV?$stream_output_adapter@D@__crt_stdio_output@@@__crt_stdio_output@@QAE@XZ 1002ea5a f i libucrt:output.obj
 0001:0002da64       ??1?$standard_base@DV?$string_output_adapter@D@__crt_stdio_output@@@__crt_stdio_output@@QAE@XZ 1002ea64 f i libucrt:output.obj
 0001:0002da6e       ??1?$standard_base@_WV?$stream_output_adapter@_W@__crt_stdio_output@@@__crt_stdio_output@@QAE@XZ 1002ea6e f i libucrt:output.obj
 0001:0002da78       ??1?$standard_base@_WV?$string_output_adapter@_W@__crt_stdio_output@@@__crt_stdio_output@@QAE@XZ 1002ea78 f i libucrt:output.obj
 0001:0002da82       ??1__crt_errno_guard@@QAE@XZ 1002ea82 f i libucrt:output.obj
 0001:0002da97       ??1formatting_buffer@__crt_stdio_output@@QAE@XZ 1002ea97 f i libucrt:output.obj
 0001:0002dab7       ??4?$__crt_unique_heap_ptr@DU__crt_internal_free_policy@@@@QAEAAV0@$$QAV0@@Z 1002eab7 f i libucrt:output.obj
 0001:0002e192       ?adjust_hexit@?$output_processor@DV?$stream_output_adapter@D@__crt_stdio_output@@V?$format_validation_base@DV?$stream_output_adapter@D@__crt_stdio_output@@@2@@__crt_stdio_output@@CADH_N@Z 1002f192 f i libucrt:output.obj
 0001:0002e1ab       ?adjust_hexit@?$output_processor@DV?$stream_output_adapter@D@__crt_stdio_output@@V?$positional_parameter_base@DV?$stream_output_adapter@D@__crt_stdio_output@@@2@@__crt_stdio_output@@CADH_N@Z 1002f1ab f i libucrt:output.obj
 0001:0002e1c4       ?adjust_hexit@?$output_processor@DV?$stream_output_adapter@D@__crt_stdio_output@@V?$standard_base@DV?$stream_output_adapter@D@__crt_stdio_output@@@2@@__crt_stdio_output@@CADH_N@Z 1002f1c4 f i libucrt:output.obj
 0001:0002e1dd       ?adjust_hexit@?$output_processor@DV?$string_output_adapter@D@__crt_stdio_output@@V?$format_validation_base@DV?$string_output_adapter@D@__crt_stdio_output@@@2@@__crt_stdio_output@@CADH_N@Z 1002f1dd f i libucrt:output.obj
 0001:0002e1f6       ?adjust_hexit@?$output_processor@DV?$string_output_adapter@D@__crt_stdio_output@@V?$positional_parameter_base@DV?$string_output_adapter@D@__crt_stdio_output@@@2@@__crt_stdio_output@@CADH_N@Z 1002f1f6 f i libucrt:output.obj
 0001:0002e20f       ?adjust_hexit@?$output_processor@DV?$string_output_adapter@D@__crt_stdio_output@@V?$standard_base@DV?$string_output_adapter@D@__crt_stdio_output@@@2@@__crt_stdio_output@@CADH_N@Z 1002f20f f i libucrt:output.obj
 0001:0002e228       ?adjust_hexit@?$output_processor@_WV?$stream_output_adapter@_W@__crt_stdio_output@@V?$format_validation_base@_WV?$stream_output_adapter@_W@__crt_stdio_output@@@2@@__crt_stdio_output@@CADH_N@Z 1002f228 f i libucrt:output.obj
 0001:0002e241       ?adjust_hexit@?$output_processor@_WV?$stream_output_adapter@_W@__crt_stdio_output@@V?$positional_parameter_base@_WV?$stream_output_adapter@_W@__crt_stdio_output@@@2@@__crt_stdio_output@@CADH_N@Z 1002f241 f i libucrt:output.obj
 0001:0002e25a       ?adjust_hexit@?$output_processor@_WV?$stream_output_adapter@_W@__crt_stdio_output@@V?$standard_base@_WV?$stream_output_adapter@_W@__crt_stdio_output@@@2@@__crt_stdio_output@@CADH_N@Z 1002f25a f i libucrt:output.obj
 0001:0002e273       ?adjust_hexit@?$output_processor@_WV?$string_output_adapter@_W@__crt_stdio_output@@V?$format_validation_base@_WV?$string_output_adapter@_W@__crt_stdio_output@@@2@@__crt_stdio_output@@CADH_N@Z 1002f273 f i libucrt:output.obj
 0001:0002e28c       ?adjust_hexit@?$output_processor@_WV?$string_output_adapter@_W@__crt_stdio_output@@V?$positional_parameter_base@_WV?$string_output_adapter@_W@__crt_stdio_output@@@2@@__crt_stdio_output@@CADH_N@Z 1002f28c f i libucrt:output.obj
 0001:0002e2a5       ?adjust_hexit@?$output_processor@_WV?$string_output_adapter@_W@__crt_stdio_output@@V?$standard_base@_WV?$string_output_adapter@_W@__crt_stdio_output@@@2@@__crt_stdio_output@@CADH_N@Z 1002f2a5 f i libucrt:output.obj
 0001:0002e2be       ?advance_to_next_pass@?$positional_parameter_base@DV?$stream_output_adapter@D@__crt_stdio_output@@@__crt_stdio_output@@IAE_NXZ 1002f2be f i libucrt:output.obj
 0001:0002e31d       ?advance_to_next_pass@?$positional_parameter_base@DV?$string_output_adapter@D@__crt_stdio_output@@@__crt_stdio_output@@IAE_NXZ 1002f31d f i libucrt:output.obj
 0001:0002e37c       ?advance_to_next_pass@?$positional_parameter_base@_WV?$stream_output_adapter@_W@__crt_stdio_output@@@__crt_stdio_output@@IAE_NXZ 1002f37c f i libucrt:output.obj
 0001:0002e3db       ?advance_to_next_pass@?$positional_parameter_base@_WV?$string_output_adapter@_W@__crt_stdio_output@@@__crt_stdio_output@@IAE_NXZ 1002f3db f i libucrt:output.obj
 0001:0002e43a       ?advance_to_next_pass@?$standard_base@DV?$stream_output_adapter@D@__crt_stdio_output@@@__crt_stdio_output@@IAE_NXZ 1002f43a f i libucrt:output.obj
 0001:0002e44f       ?advance_to_next_pass@?$standard_base@DV?$string_output_adapter@D@__crt_stdio_output@@@__crt_stdio_output@@IAE_NXZ 1002f44f f i libucrt:output.obj
 0001:0002e464       ?advance_to_next_pass@?$standard_base@_WV?$stream_output_adapter@_W@__crt_stdio_output@@@__crt_stdio_output@@IAE_NXZ 1002f464 f i libucrt:output.obj
 0001:0002e479       ?advance_to_next_pass@?$standard_base@_WV?$string_output_adapter@_W@__crt_stdio_output@@@__crt_stdio_output@@IAE_NXZ 1002f479 f i libucrt:output.obj
 0001:0002e48e       ?crop_zeroes@__crt_stdio_output@@YAXPADQAU__crt_locale_pointers@@@Z 1002f48e f i libucrt:output.obj
 0001:0002e506       ?find_next_state@?$output_processor@DV?$stream_output_adapter@D@__crt_stdio_output@@V?$format_validation_base@DV?$stream_output_adapter@D@__crt_stdio_output@@@2@@__crt_stdio_output@@ABE?AW4state@2@DW432@@Z 1002f506 f i libucrt:output.obj
 0001:0002e558       ?find_next_state@?$output_processor@DV?$stream_output_adapter@D@__crt_stdio_output@@V?$positional_parameter_base@DV?$stream_output_adapter@D@__crt_stdio_output@@@2@@__crt_stdio_output@@ABE?AW4state@2@DW432@@Z 1002f558 f i libucrt:output.obj
 0001:0002e5aa       ?find_next_state@?$output_processor@DV?$stream_output_adapter@D@__crt_stdio_output@@V?$standard_base@DV?$stream_output_adapter@D@__crt_stdio_output@@@2@@__crt_stdio_output@@ABE?AW4state@2@DW432@@Z 1002f5aa f i libucrt:output.obj
 0001:0002e5f8       ?find_next_state@?$output_processor@DV?$string_output_adapter@D@__crt_stdio_output@@V?$format_validation_base@DV?$string_output_adapter@D@__crt_stdio_output@@@2@@__crt_stdio_output@@ABE?AW4state@2@DW432@@Z 1002f5f8 f i libucrt:output.obj
 0001:0002e64a       ?find_next_state@?$output_processor@DV?$string_output_adapter@D@__crt_stdio_output@@V?$positional_parameter_base@DV?$string_output_adapter@D@__crt_stdio_output@@@2@@__crt_stdio_output@@ABE?AW4state@2@DW432@@Z 1002f64a f i libucrt:output.obj
 0001:0002e69c       ?find_next_state@?$output_processor@DV?$string_output_adapter@D@__crt_stdio_output@@V?$standard_base@DV?$string_output_adapter@D@__crt_stdio_output@@@2@@__crt_stdio_output@@ABE?AW4state@2@DW432@@Z 1002f69c f i libucrt:output.obj
 0001:0002e6ea       ?find_next_state@?$output_processor@_WV?$stream_output_adapter@_W@__crt_stdio_output@@V?$format_validation_base@_WV?$stream_output_adapter@_W@__crt_stdio_output@@@2@@__crt_stdio_output@@ABE?AW4state@2@_WW432@@Z 1002f6ea f i libucrt:output.obj
 0001:0002e73f       ?find_next_state@?$output_processor@_WV?$stream_output_adapter@_W@__crt_stdio_output@@V?$positional_parameter_base@_WV?$stream_output_adapter@_W@__crt_stdio_output@@@2@@__crt_stdio_output@@ABE?AW4state@2@_WW432@@Z 1002f73f f i libucrt:output.obj
 0001:0002e794       ?find_next_state@?$output_processor@_WV?$stream_output_adapter@_W@__crt_stdio_output@@V?$standard_base@_WV?$stream_output_adapter@_W@__crt_stdio_output@@@2@@__crt_stdio_output@@ABE?AW4state@2@_WW432@@Z 1002f794 f i libucrt:output.obj
 0001:0002e7e5       ?find_next_state@?$output_processor@_WV?$string_output_adapter@_W@__crt_stdio_output@@V?$format_validation_base@_WV?$string_output_adapter@_W@__crt_stdio_output@@@2@@__crt_stdio_output@@ABE?AW4state@2@_WW432@@Z 1002f7e5 f i libucrt:output.obj
 0001:0002e83a       ?find_next_state@?$output_processor@_WV?$string_output_adapter@_W@__crt_stdio_output@@V?$positional_parameter_base@_WV?$string_output_adapter@_W@__crt_stdio_output@@@2@@__crt_stdio_output@@ABE?AW4state@2@_WW432@@Z 1002f83a f i libucrt:output.obj
 0001:0002e88f       ?find_next_state@?$output_processor@_WV?$string_output_adapter@_W@__crt_stdio_output@@V?$standard_base@_WV?$string_output_adapter@_W@__crt_stdio_output@@@2@@__crt_stdio_output@@ABE?AW4state@2@_WW432@@Z 1002f88f f i libucrt:output.obj
 0001:0002e8e0       ?force_decimal_point@__crt_stdio_output@@YAXPADQAU__crt_locale_pointers@@@Z 1002f8e0 f i libucrt:output.obj
 0001:0002e953       ?get@__crt_deferred_errno_cache@@QAEAAHXZ 1002f953 f i libucrt:output.obj
 0001:0002e96c       ?get_parameter_type@?$positional_parameter_base@DV?$stream_output_adapter@D@__crt_stdio_output@@@__crt_stdio_output@@CA?AW4parameter_type@12@F@Z 1002f96c f i libucrt:output.obj
 0001:0002e970       ?get_parameter_type@?$positional_parameter_base@DV?$stream_output_adapter@D@__crt_stdio_output@@@__crt_stdio_output@@CA?AW4parameter_type@12@G@Z 1002f970 f i libucrt:output.obj
 0001:0002e974       ?get_parameter_type@?$positional_parameter_base@DV?$stream_output_adapter@D@__crt_stdio_output@@@__crt_stdio_output@@CA?AW4parameter_type@12@H@Z 1002f974 f i libucrt:output.obj
 0001:0002e978       ?get_parameter_type@?$positional_parameter_base@DV?$stream_output_adapter@D@__crt_stdio_output@@@__crt_stdio_output@@CA?AW4parameter_type@12@I@Z 1002f978 f i libucrt:output.obj
 0001:0002e97c       ?get_parameter_type@?$positional_parameter_base@DV?$stream_output_adapter@D@__crt_stdio_output@@@__crt_stdio_output@@CA?AW4parameter_type@12@U_CRT_DOUBLE@@@Z 1002f97c f i libucrt:output.obj
 0001:0002e980       ?get_parameter_type@?$positional_parameter_base@DV?$stream_output_adapter@D@__crt_stdio_output@@@__crt_stdio_output@@CA?AW4parameter_type@12@_J@Z 1002f980 f i libucrt:output.obj
 0001:0002e984       ?get_parameter_type@?$positional_parameter_base@DV?$stream_output_adapter@D@__crt_stdio_output@@@__crt_stdio_output@@CA?AW4parameter_type@12@_K@Z 1002f984 f i libucrt:output.obj
 0001:0002e988       ?get_parameter_type@?$positional_parameter_base@DV?$stream_output_adapter@D@__crt_stdio_output@@@__crt_stdio_output@@CA?AW4parameter_type@12@_W@Z 1002f988 f i libucrt:output.obj
 0001:0002e98c       ?get_parameter_type@?$positional_parameter_base@DV?$string_output_adapter@D@__crt_stdio_output@@@__crt_stdio_output@@CA?AW4parameter_type@12@F@Z 1002f98c f i libucrt:output.obj
 0001:0002e990       ?get_parameter_type@?$positional_parameter_base@DV?$string_output_adapter@D@__crt_stdio_output@@@__crt_stdio_output@@CA?AW4parameter_type@12@G@Z 1002f990 f i libucrt:output.obj
 0001:0002e994       ?get_parameter_type@?$positional_parameter_base@DV?$string_output_adapter@D@__crt_stdio_output@@@__crt_stdio_output@@CA?AW4parameter_type@12@H@Z 1002f994 f i libucrt:output.obj
 0001:0002e998       ?get_parameter_type@?$positional_parameter_base@DV?$string_output_adapter@D@__crt_stdio_output@@@__crt_stdio_output@@CA?AW4parameter_type@12@I@Z 1002f998 f i libucrt:output.obj
 0001:0002e99c       ?get_parameter_type@?$positional_parameter_base@DV?$string_output_adapter@D@__crt_stdio_output@@@__crt_stdio_output@@CA?AW4parameter_type@12@U_CRT_DOUBLE@@@Z 1002f99c f i libucrt:output.obj
 0001:0002e9a0       ?get_parameter_type@?$positional_parameter_base@DV?$string_output_adapter@D@__crt_stdio_output@@@__crt_stdio_output@@CA?AW4parameter_type@12@_J@Z 1002f9a0 f i libucrt:output.obj
 0001:0002e9a4       ?get_parameter_type@?$positional_parameter_base@DV?$string_output_adapter@D@__crt_stdio_output@@@__crt_stdio_output@@CA?AW4parameter_type@12@_K@Z 1002f9a4 f i libucrt:output.obj
 0001:0002e9a8       ?get_parameter_type@?$positional_parameter_base@DV?$string_output_adapter@D@__crt_stdio_output@@@__crt_stdio_output@@CA?AW4parameter_type@12@_W@Z 1002f9a8 f i libucrt:output.obj
 0001:0002e9ac       ?get_parameter_type@?$positional_parameter_base@_WV?$stream_output_adapter@_W@__crt_stdio_output@@@__crt_stdio_output@@CA?AW4parameter_type@12@F@Z 1002f9ac f i libucrt:output.obj
 0001:0002e9b0       ?get_parameter_type@?$positional_parameter_base@_WV?$stream_output_adapter@_W@__crt_stdio_output@@@__crt_stdio_output@@CA?AW4parameter_type@12@G@Z 1002f9b0 f i libucrt:output.obj
 0001:0002e9b4       ?get_parameter_type@?$positional_parameter_base@_WV?$stream_output_adapter@_W@__crt_stdio_output@@@__crt_stdio_output@@CA?AW4parameter_type@12@H@Z 1002f9b4 f i libucrt:output.obj
 0001:0002e9b8       ?get_parameter_type@?$positional_parameter_base@_WV?$stream_output_adapter@_W@__crt_stdio_output@@@__crt_stdio_output@@CA?AW4parameter_type@12@I@Z 1002f9b8 f i libucrt:output.obj
 0001:0002e9bc       ?get_parameter_type@?$positional_parameter_base@_WV?$stream_output_adapter@_W@__crt_stdio_output@@@__crt_stdio_output@@CA?AW4parameter_type@12@U_CRT_DOUBLE@@@Z 1002f9bc f i libucrt:output.obj
 0001:0002e9c0       ?get_parameter_type@?$positional_parameter_base@_WV?$stream_output_adapter@_W@__crt_stdio_output@@@__crt_stdio_output@@CA?AW4parameter_type@12@_J@Z 1002f9c0 f i libucrt:output.obj
 0001:0002e9c4       ?get_parameter_type@?$positional_parameter_base@_WV?$stream_output_adapter@_W@__crt_stdio_output@@@__crt_stdio_output@@CA?AW4parameter_type@12@_K@Z 1002f9c4 f i libucrt:output.obj
 0001:0002e9c8       ?get_parameter_type@?$positional_parameter_base@_WV?$stream_output_adapter@_W@__crt_stdio_output@@@__crt_stdio_output@@CA?AW4parameter_type@12@_W@Z 1002f9c8 f i libucrt:output.obj
 0001:0002e9cc       ?get_parameter_type@?$positional_parameter_base@_WV?$string_output_adapter@_W@__crt_stdio_output@@@__crt_stdio_output@@CA?AW4parameter_type@12@F@Z 1002f9cc f i libucrt:output.obj
 0001:0002e9d0       ?get_parameter_type@?$positional_parameter_base@_WV?$string_output_adapter@_W@__crt_stdio_output@@@__crt_stdio_output@@CA?AW4parameter_type@12@G@Z 1002f9d0 f i libucrt:output.obj
 0001:0002e9d4       ?get_parameter_type@?$positional_parameter_base@_WV?$string_output_adapter@_W@__crt_stdio_output@@@__crt_stdio_output@@CA?AW4parameter_type@12@H@Z 1002f9d4 f i libucrt:output.obj
 0001:0002e9d8       ?get_parameter_type@?$positional_parameter_base@_WV?$string_output_adapter@_W@__crt_stdio_output@@@__crt_stdio_output@@CA?AW4parameter_type@12@I@Z 1002f9d8 f i libucrt:output.obj
 0001:0002e9dc       ?get_parameter_type@?$positional_parameter_base@_WV?$string_output_adapter@_W@__crt_stdio_output@@@__crt_stdio_output@@CA?AW4parameter_type@12@U_CRT_DOUBLE@@@Z 1002f9dc f i libucrt:output.obj
 0001:0002e9e0       ?get_parameter_type@?$positional_parameter_base@_WV?$string_output_adapter@_W@__crt_stdio_output@@@__crt_stdio_output@@CA?AW4parameter_type@12@_J@Z 1002f9e0 f i libucrt:output.obj
 0001:0002e9e4       ?get_parameter_type@?$positional_parameter_base@_WV?$string_output_adapter@_W@__crt_stdio_output@@@__crt_stdio_output@@CA?AW4parameter_type@12@_K@Z 1002f9e4 f i libucrt:output.obj
 0001:0002e9e8       ?get_parameter_type@?$positional_parameter_base@_WV?$string_output_adapter@_W@__crt_stdio_output@@@__crt_stdio_output@@CA?AW4parameter_type@12@_W@Z 1002f9e8 f i libucrt:output.obj
 0001:0002e9ec       ?has_flag@?$output_processor@DV?$stream_output_adapter@D@__crt_stdio_output@@V?$format_validation_base@DV?$stream_output_adapter@D@__crt_stdio_output@@@2@@__crt_stdio_output@@ABE_NI@Z 1002f9ec f i libucrt:output.obj
 0001:0002ea02       ?has_flag@?$output_processor@DV?$stream_output_adapter@D@__crt_stdio_output@@V?$positional_parameter_base@DV?$stream_output_adapter@D@__crt_stdio_output@@@2@@__crt_stdio_output@@ABE_NI@Z 1002fa02 f i libucrt:output.obj
 0001:0002ea18       ?has_flag@?$output_processor@DV?$stream_output_adapter@D@__crt_stdio_output@@V?$standard_base@DV?$stream_output_adapter@D@__crt_stdio_output@@@2@@__crt_stdio_output@@ABE_NI@Z 1002fa18 f i libucrt:output.obj
 0001:0002ea2e       ?has_flag@?$output_processor@DV?$string_output_adapter@D@__crt_stdio_output@@V?$format_validation_base@DV?$string_output_adapter@D@__crt_stdio_output@@@2@@__crt_stdio_output@@ABE_NI@Z 1002fa2e f i libucrt:output.obj
 0001:0002ea44       ?has_flag@?$output_processor@DV?$string_output_adapter@D@__crt_stdio_output@@V?$positional_parameter_base@DV?$string_output_adapter@D@__crt_stdio_output@@@2@@__crt_stdio_output@@ABE_NI@Z 1002fa44 f i libucrt:output.obj
 0001:0002ea5a       ?has_flag@?$output_processor@DV?$string_output_adapter@D@__crt_stdio_output@@V?$standard_base@DV?$string_output_adapter@D@__crt_stdio_output@@@2@@__crt_stdio_output@@ABE_NI@Z 1002fa5a f i libucrt:output.obj
 0001:0002ea70       ?has_flag@?$output_processor@_WV?$stream_output_adapter@_W@__crt_stdio_output@@V?$format_validation_base@_WV?$stream_output_adapter@_W@__crt_stdio_output@@@2@@__crt_stdio_output@@ABE_NI@Z 1002fa70 f i libucrt:output.obj
 0001:0002ea86       ?has_flag@?$output_processor@_WV?$stream_output_adapter@_W@__crt_stdio_output@@V?$positional_parameter_base@_WV?$stream_output_adapter@_W@__crt_stdio_output@@@2@@__crt_stdio_output@@ABE_NI@Z 1002fa86 f i libucrt:output.obj
 0001:0002ea9c       ?has_flag@?$output_processor@_WV?$stream_output_adapter@_W@__crt_stdio_output@@V?$standard_base@_WV?$stream_output_adapter@_W@__crt_stdio_output@@@2@@__crt_stdio_output@@ABE_NI@Z 1002fa9c f i libucrt:output.obj
 0001:0002eab2       ?has_flag@?$output_processor@_WV?$string_output_adapter@_W@__crt_stdio_output@@V?$format_validation_base@_WV?$string_output_adapter@_W@__crt_stdio_output@@@2@@__crt_stdio_output@@ABE_NI@Z 1002fab2 f i libucrt:output.obj
 0001:0002eac8       ?has_flag@?$output_processor@_WV?$string_output_adapter@_W@__crt_stdio_output@@V?$positional_parameter_base@_WV?$string_output_adapter@_W@__crt_stdio_output@@@2@@__crt_stdio_output@@ABE_NI@Z 1002fac8 f i libucrt:output.obj
 0001:0002eade       ?has_flag@?$output_processor@_WV?$string_output_adapter@_W@__crt_stdio_output@@V?$standard_base@_WV?$string_output_adapter@_W@__crt_stdio_output@@@2@@__crt_stdio_output@@ABE_NI@Z 1002fade f i libucrt:output.obj
 0001:0002eaf4       ?is_positional_parameter_reappearance_consistent@?$positional_parameter_base@DV?$stream_output_adapter@D@__crt_stdio_output@@@__crt_stdio_output@@AAE_NABUparameter_data@12@W4parameter_type@12@DW4length_modifier@2@@Z 1002faf4 f i libucrt:output.obj
 0001:0002ec54       ?is_positional_parameter_reappearance_consistent@?$positional_parameter_base@DV?$string_output_adapter@D@__crt_stdio_output@@@__crt_stdio_output@@AAE_NABUparameter_data@12@W4parameter_type@12@DW4length_modifier@2@@Z 1002fc54 f i libucrt:output.obj
 0001:0002edb4       ?is_positional_parameter_reappearance_consistent@?$positional_parameter_base@_WV?$stream_output_adapter@_W@__crt_stdio_output@@@__crt_stdio_output@@AAE_NABUparameter_data@12@W4parameter_type@12@_WW4length_modifier@2@@Z 1002fdb4 f i libucrt:output.obj
 0001:0002ef13       ?is_positional_parameter_reappearance_consistent@?$positional_parameter_base@_WV?$string_output_adapter@_W@__crt_stdio_output@@@__crt_stdio_output@@AAE_NABUparameter_data@12@W4parameter_type@12@_WW4length_modifier@2@@Z 1002ff13 f i libucrt:output.obj
 0001:0002f072       ?narrow_null_string@?$output_processor@DV?$stream_output_adapter@D@__crt_stdio_output@@V?$format_validation_base@DV?$stream_output_adapter@D@__crt_stdio_output@@@2@@__crt_stdio_output@@CAPADXZ 10030072 f i libucrt:output.obj
 0001:0002f078       ?narrow_null_string@?$output_processor@DV?$stream_output_adapter@D@__crt_stdio_output@@V?$positional_parameter_base@DV?$stream_output_adapter@D@__crt_stdio_output@@@2@@__crt_stdio_output@@CAPADXZ 10030078 f i libucrt:output.obj
 0001:0002f07e       ?narrow_null_string@?$output_processor@DV?$stream_output_adapter@D@__crt_stdio_output@@V?$standard_base@DV?$stream_output_adapter@D@__crt_stdio_output@@@2@@__crt_stdio_output@@CAPADXZ 1003007e f i libucrt:output.obj
 0001:0002f084       ?narrow_null_string@?$output_processor@DV?$string_output_adapter@D@__crt_stdio_output@@V?$format_validation_base@DV?$string_output_adapter@D@__crt_stdio_output@@@2@@__crt_stdio_output@@CAPADXZ 10030084 f i libucrt:output.obj
 0001:0002f08a       ?narrow_null_string@?$output_processor@DV?$string_output_adapter@D@__crt_stdio_output@@V?$positional_parameter_base@DV?$string_output_adapter@D@__crt_stdio_output@@@2@@__crt_stdio_output@@CAPADXZ 1003008a f i libucrt:output.obj
 0001:0002f090       ?narrow_null_string@?$output_processor@DV?$string_output_adapter@D@__crt_stdio_output@@V?$standard_base@DV?$string_output_adapter@D@__crt_stdio_output@@@2@@__crt_stdio_output@@CAPADXZ 10030090 f i libucrt:output.obj
 0001:0002f096       ?narrow_null_string@?$output_processor@_WV?$stream_output_adapter@_W@__crt_stdio_output@@V?$format_validation_base@_WV?$stream_output_adapter@_W@__crt_stdio_output@@@2@@__crt_stdio_output@@CAPADXZ 10030096 f i libucrt:output.obj
 0001:0002f09c       ?narrow_null_string@?$output_processor@_WV?$stream_output_adapter@_W@__crt_stdio_output@@V?$positional_parameter_base@_WV?$stream_output_adapter@_W@__crt_stdio_output@@@2@@__crt_stdio_output@@CAPADXZ 1003009c f i libucrt:output.obj
 0001:0002f0a2       ?narrow_null_string@?$output_processor@_WV?$stream_output_adapter@_W@__crt_stdio_output@@V?$standard_base@_WV?$stream_output_adapter@_W@__crt_stdio_output@@@2@@__crt_stdio_output@@CAPADXZ 100300a2 f i libucrt:output.obj
 0001:0002f0a8       ?narrow_null_string@?$output_processor@_WV?$string_output_adapter@_W@__crt_stdio_output@@V?$format_validation_base@_WV?$string_output_adapter@_W@__crt_stdio_output@@@2@@__crt_stdio_output@@CAPADXZ 100300a8 f i libucrt:output.obj
 0001:0002f0ae       ?narrow_null_string@?$output_processor@_WV?$string_output_adapter@_W@__crt_stdio_output@@V?$positional_parameter_base@_WV?$string_output_adapter@_W@__crt_stdio_output@@@2@@__crt_stdio_output@@CAPADXZ 100300ae f i libucrt:output.obj
 0001:0002f0b4       ?narrow_null_string@?$output_processor@_WV?$string_output_adapter@_W@__crt_stdio_output@@V?$standard_base@_WV?$string_output_adapter@_W@__crt_stdio_output@@@2@@__crt_stdio_output@@CAPADXZ 100300b4 f i libucrt:output.obj
 0001:0002f0ba       ?parse_int_from_format_string@?$output_processor@DV?$stream_output_adapter@D@__crt_stdio_output@@V?$format_validation_base@DV?$stream_output_adapter@D@__crt_stdio_output@@@2@@__crt_stdio_output@@AAE_NQAH@Z 100300ba f i libucrt:output.obj
 0001:0002f14d       ?parse_int_from_format_string@?$output_processor@DV?$stream_output_adapter@D@__crt_stdio_output@@V?$positional_parameter_base@DV?$stream_output_adapter@D@__crt_stdio_output@@@2@@__crt_stdio_output@@AAE_NQAH@Z 1003014d f i libucrt:output.obj
 0001:0002f1e0       ?parse_int_from_format_string@?$output_processor@DV?$stream_output_adapter@D@__crt_stdio_output@@V?$standard_base@DV?$stream_output_adapter@D@__crt_stdio_output@@@2@@__crt_stdio_output@@AAE_NQAH@Z 100301e0 f i libucrt:output.obj
 0001:0002f273       ?parse_int_from_format_string@?$output_processor@DV?$string_output_adapter@D@__crt_stdio_output@@V?$format_validation_base@DV?$string_output_adapter@D@__crt_stdio_output@@@2@@__crt_stdio_output@@AAE_NQAH@Z 10030273 f i libucrt:output.obj
 0001:0002f306       ?parse_int_from_format_string@?$output_processor@DV?$string_output_adapter@D@__crt_stdio_output@@V?$positional_parameter_base@DV?$string_output_adapter@D@__crt_stdio_output@@@2@@__crt_stdio_output@@AAE_NQAH@Z 10030306 f i libucrt:output.obj
 0001:0002f399       ?parse_int_from_format_string@?$output_processor@DV?$string_output_adapter@D@__crt_stdio_output@@V?$standard_base@DV?$string_output_adapter@D@__crt_stdio_output@@@2@@__crt_stdio_output@@AAE_NQAH@Z 10030399 f i libucrt:output.obj
 0001:0002f42c       ?parse_int_from_format_string@?$output_processor@_WV?$stream_output_adapter@_W@__crt_stdio_output@@V?$format_validation_base@_WV?$stream_output_adapter@_W@__crt_stdio_output@@@2@@__crt_stdio_output@@AAE_NQAH@Z 1003042c f i libucrt:output.obj
 0001:0002f4c2       ?parse_int_from_format_string@?$output_processor@_WV?$stream_output_adapter@_W@__crt_stdio_output@@V?$positional_parameter_base@_WV?$stream_output_adapter@_W@__crt_stdio_output@@@2@@__crt_stdio_output@@AAE_NQAH@Z 100304c2 f i libucrt:output.obj
 0001:0002f558       ?parse_int_from_format_string@?$output_processor@_WV?$stream_output_adapter@_W@__crt_stdio_output@@V?$standard_base@_WV?$stream_output_adapter@_W@__crt_stdio_output@@@2@@__crt_stdio_output@@AAE_NQAH@Z 10030558 f i libucrt:output.obj
 0001:0002f5ee       ?parse_int_from_format_string@?$output_processor@_WV?$string_output_adapter@_W@__crt_stdio_output@@V?$format_validation_base@_WV?$string_output_adapter@_W@__crt_stdio_output@@@2@@__crt_stdio_output@@AAE_NQAH@Z 100305ee f i libucrt:output.obj
 0001:0002f684       ?parse_int_from_format_string@?$output_processor@_WV?$string_output_adapter@_W@__crt_stdio_output@@V?$positional_parameter_base@_WV?$string_output_adapter@_W@__crt_stdio_output@@@2@@__crt_stdio_output@@AAE_NQAH@Z 10030684 f i libucrt:output.obj
 0001:0002f71a       ?parse_int_from_format_string@?$output_processor@_WV?$string_output_adapter@_W@__crt_stdio_output@@V?$standard_base@_WV?$string_output_adapter@_W@__crt_stdio_output@@@2@@__crt_stdio_output@@AAE_NQAH@Z 1003071a f i libucrt:output.obj
 0001:0002f7b0       ?process@?$output_processor@DV?$stream_output_adapter@D@__crt_stdio_output@@V?$format_validation_base@DV?$stream_output_adapter@D@__crt_stdio_output@@@2@@__crt_stdio_output@@QAEHXZ 100307b0 f i libucrt:output.obj
 0001:0002f922       ?process@?$output_processor@DV?$stream_output_adapter@D@__crt_stdio_output@@V?$positional_parameter_base@DV?$stream_output_adapter@D@__crt_stdio_output@@@2@@__crt_stdio_output@@QAEHXZ 10030922 f i libucrt:output.obj
 0001:0002fad5       ?process@?$output_processor@DV?$stream_output_adapter@D@__crt_stdio_output@@V?$standard_base@DV?$stream_output_adapter@D@__crt_stdio_output@@@2@@__crt_stdio_output@@QAEHXZ 10030ad5 f i libucrt:output.obj
 0001:0002fc38       ?process@?$output_processor@DV?$string_output_adapter@D@__crt_stdio_output@@V?$format_validation_base@DV?$string_output_adapter@D@__crt_stdio_output@@@2@@__crt_stdio_output@@QAEHXZ 10030c38 f i libucrt:output.obj
 0001:0002fdaa       ?process@?$output_processor@DV?$string_output_adapter@D@__crt_stdio_output@@V?$positional_parameter_base@DV?$string_output_adapter@D@__crt_stdio_output@@@2@@__crt_stdio_output@@QAEHXZ 10030daa f i libucrt:output.obj
 0001:0002ff5d       ?process@?$output_processor@DV?$string_output_adapter@D@__crt_stdio_output@@V?$standard_base@DV?$string_output_adapter@D@__crt_stdio_output@@@2@@__crt_stdio_output@@QAEHXZ 10030f5d f i libucrt:output.obj
 0001:000300c0       ?process@?$output_processor@_WV?$stream_output_adapter@_W@__crt_stdio_output@@V?$format_validation_base@_WV?$stream_output_adapter@_W@__crt_stdio_output@@@2@@__crt_stdio_output@@QAEHXZ 100310c0 f i libucrt:output.obj
 0001:0003023c       ?process@?$output_processor@_WV?$stream_output_adapter@_W@__crt_stdio_output@@V?$positional_parameter_base@_WV?$stream_output_adapter@_W@__crt_stdio_output@@@2@@__crt_stdio_output@@QAEHXZ 1003123c f i libucrt:output.obj
 0001:000303f4       ?process@?$output_processor@_WV?$stream_output_adapter@_W@__crt_stdio_output@@V?$standard_base@_WV?$stream_output_adapter@_W@__crt_stdio_output@@@2@@__crt_stdio_output@@QAEHXZ 100313f4 f i libucrt:output.obj
 0001:0003055c       ?process@?$output_processor@_WV?$string_output_adapter@_W@__crt_stdio_output@@V?$format_validation_base@_WV?$string_output_adapter@_W@__crt_stdio_output@@@2@@__crt_stdio_output@@QAEHXZ 1003155c f i libucrt:output.obj
 0001:000306d8       ?process@?$output_processor@_WV?$string_output_adapter@_W@__crt_stdio_output@@V?$positional_parameter_base@_WV?$string_output_adapter@_W@__crt_stdio_output@@@2@@__crt_stdio_output@@QAEHXZ 100316d8 f i libucrt:output.obj
 0001:00030890       ?process@?$output_processor@_WV?$string_output_adapter@_W@__crt_stdio_output@@V?$standard_base@_WV?$string_output_adapter@_W@__crt_stdio_output@@@2@@__crt_stdio_output@@QAEHXZ 10031890 f i libucrt:output.obj
 0001:000309f8       ?set_flag@?$output_processor@DV?$stream_output_adapter@D@__crt_stdio_output@@V?$format_validation_base@DV?$stream_output_adapter@D@__crt_stdio_output@@@2@@__crt_stdio_output@@AAEXI@Z 100319f8 f i libucrt:output.obj
 0001:00030a0a       ?set_flag@?$output_processor@DV?$stream_output_adapter@D@__crt_stdio_output@@V?$positional_parameter_base@DV?$stream_output_adapter@D@__crt_stdio_output@@@2@@__crt_stdio_output@@AAEXI@Z 10031a0a f i libucrt:output.obj
 0001:00030a1c       ?set_flag@?$output_processor@DV?$stream_output_adapter@D@__crt_stdio_output@@V?$standard_base@DV?$stream_output_adapter@D@__crt_stdio_output@@@2@@__crt_stdio_output@@AAEXI@Z 10031a1c f i libucrt:output.obj
 0001:00030a2e       ?set_flag@?$output_processor@DV?$string_output_adapter@D@__crt_stdio_output@@V?$format_validation_base@DV?$string_output_adapter@D@__crt_stdio_output@@@2@@__crt_stdio_output@@AAEXI@Z 10031a2e f i libucrt:output.obj
 0001:00030a40       ?set_flag@?$output_processor@DV?$string_output_adapter@D@__crt_stdio_output@@V?$positional_parameter_base@DV?$string_output_adapter@D@__crt_stdio_output@@@2@@__crt_stdio_output@@AAEXI@Z 10031a40 f i libucrt:output.obj
 0001:00030a52       ?set_flag@?$output_processor@DV?$string_output_adapter@D@__crt_stdio_output@@V?$standard_base@DV?$string_output_adapter@D@__crt_stdio_output@@@2@@__crt_stdio_output@@AAEXI@Z 10031a52 f i libucrt:output.obj
 0001:00030a64       ?set_flag@?$output_processor@_WV?$stream_output_adapter@_W@__crt_stdio_output@@V?$format_validation_base@_WV?$stream_output_adapter@_W@__crt_stdio_output@@@2@@__crt_stdio_output@@AAEXI@Z 10031a64 f i libucrt:output.obj
 0001:00030a76       ?set_flag@?$output_processor@_WV?$stream_output_adapter@_W@__crt_stdio_output@@V?$positional_parameter_base@_WV?$stream_output_adapter@_W@__crt_stdio_output@@@2@@__crt_stdio_output@@AAEXI@Z 10031a76 f i libucrt:output.obj
 0001:00030a88       ?set_flag@?$output_processor@_WV?$stream_output_adapter@_W@__crt_stdio_output@@V?$standard_base@_WV?$stream_output_adapter@_W@__crt_stdio_output@@@2@@__crt_stdio_output@@AAEXI@Z 10031a88 f i libucrt:output.obj
 0001:00030a9a       ?set_flag@?$output_processor@_WV?$string_output_adapter@_W@__crt_stdio_output@@V?$format_validation_base@_WV?$string_output_adapter@_W@__crt_stdio_output@@@2@@__crt_stdio_output@@AAEXI@Z 10031a9a f i libucrt:output.obj
 0001:00030aac       ?set_flag@?$output_processor@_WV?$string_output_adapter@_W@__crt_stdio_output@@V?$positional_parameter_base@_WV?$string_output_adapter@_W@__crt_stdio_output@@@2@@__crt_stdio_output@@AAEXI@Z 10031aac f i libucrt:output.obj
 0001:00030abe       ?set_flag@?$output_processor@_WV?$string_output_adapter@_W@__crt_stdio_output@@V?$standard_base@_WV?$string_output_adapter@_W@__crt_stdio_output@@@2@@__crt_stdio_output@@AAEXI@Z 10031abe f i libucrt:output.obj
 0001:00030ad0       ?should_format@?$positional_parameter_base@DV?$stream_output_adapter@D@__crt_stdio_output@@@__crt_stdio_output@@IAE_NXZ 10031ad0 f i libucrt:output.obj
 0001:00030aeb       ?should_format@?$positional_parameter_base@DV?$string_output_adapter@D@__crt_stdio_output@@@__crt_stdio_output@@IAE_NXZ 10031aeb f i libucrt:output.obj
 0001:00030b06       ?should_format@?$positional_parameter_base@_WV?$stream_output_adapter@_W@__crt_stdio_output@@@__crt_stdio_output@@IAE_NXZ 10031b06 f i libucrt:output.obj
 0001:00030b21       ?should_format@?$positional_parameter_base@_WV?$string_output_adapter@_W@__crt_stdio_output@@@__crt_stdio_output@@IAE_NXZ 10031b21 f i libucrt:output.obj
 0001:00030b3c       ?should_format@?$standard_base@DV?$stream_output_adapter@D@__crt_stdio_output@@@__crt_stdio_output@@IAE_NXZ 10031b3c f i libucrt:output.obj
 0001:00030b3f       ?should_format@?$standard_base@DV?$string_output_adapter@D@__crt_stdio_output@@@__crt_stdio_output@@IAE_NXZ 10031b3f f i libucrt:output.obj
 0001:00030b42       ?should_format@?$standard_base@_WV?$stream_output_adapter@_W@__crt_stdio_output@@@__crt_stdio_output@@IAE_NXZ 10031b42 f i libucrt:output.obj
 0001:00030b45       ?should_format@?$standard_base@_WV?$string_output_adapter@_W@__crt_stdio_output@@@__crt_stdio_output@@IAE_NXZ 10031b45 f i libucrt:output.obj
 0001:00030b48       ?should_skip_normal_state_processing@?$positional_parameter_base@DV?$stream_output_adapter@D@__crt_stdio_output@@@__crt_stdio_output@@IAE_NXZ 10031b48 f i libucrt:output.obj
 0001:00030b7a       ?should_skip_normal_state_processing@?$positional_parameter_base@DV?$string_output_adapter@D@__crt_stdio_output@@@__crt_stdio_output@@IAE_NXZ 10031b7a f i libucrt:output.obj
 0001:00030bac       ?should_skip_normal_state_processing@?$positional_parameter_base@_WV?$stream_output_adapter@_W@__crt_stdio_output@@@__crt_stdio_output@@IAE_NXZ 10031bac f i libucrt:output.obj
 0001:00030bde       ?should_skip_normal_state_processing@?$positional_parameter_base@_WV?$string_output_adapter@_W@__crt_stdio_output@@@__crt_stdio_output@@IAE_NXZ 10031bde f i libucrt:output.obj
 0001:00030c10       ?should_skip_normal_state_processing@?$standard_base@DV?$stream_output_adapter@D@__crt_stdio_output@@@__crt_stdio_output@@IAE_NXZ 10031c10 f i libucrt:output.obj
 0001:00030c13       ?should_skip_normal_state_processing@?$standard_base@DV?$string_output_adapter@D@__crt_stdio_output@@@__crt_stdio_output@@IAE_NXZ 10031c13 f i libucrt:output.obj
 0001:00030c16       ?should_skip_normal_state_processing@?$standard_base@_WV?$stream_output_adapter@_W@__crt_stdio_output@@@__crt_stdio_output@@IAE_NXZ 10031c16 f i libucrt:output.obj
 0001:00030c19       ?should_skip_normal_state_processing@?$standard_base@_WV?$string_output_adapter@_W@__crt_stdio_output@@@__crt_stdio_output@@IAE_NXZ 10031c19 f i libucrt:output.obj
 0001:00030c1c       ?should_skip_type_state_output@?$positional_parameter_base@DV?$stream_output_adapter@D@__crt_stdio_output@@@__crt_stdio_output@@IBE_NXZ 10031c1c f i libucrt:output.obj
 0001:00030c38       ?should_skip_type_state_output@?$positional_parameter_base@DV?$string_output_adapter@D@__crt_stdio_output@@@__crt_stdio_output@@IBE_NXZ 10031c38 f i libucrt:output.obj
 0001:00030c54       ?should_skip_type_state_output@?$positional_parameter_base@_WV?$stream_output_adapter@_W@__crt_stdio_output@@@__crt_stdio_output@@IBE_NXZ 10031c54 f i libucrt:output.obj
 0001:00030c70       ?should_skip_type_state_output@?$positional_parameter_base@_WV?$string_output_adapter@_W@__crt_stdio_output@@@__crt_stdio_output@@IBE_NXZ 10031c70 f i libucrt:output.obj
 0001:00030c8c       ?should_skip_type_state_output@?$standard_base@DV?$stream_output_adapter@D@__crt_stdio_output@@@__crt_stdio_output@@IBE_NXZ 10031c8c f i libucrt:output.obj
 0001:00030c8f       ?should_skip_type_state_output@?$standard_base@DV?$string_output_adapter@D@__crt_stdio_output@@@__crt_stdio_output@@IBE_NXZ 10031c8f f i libucrt:output.obj
 0001:00030c92       ?should_skip_type_state_output@?$standard_base@_WV?$stream_output_adapter@_W@__crt_stdio_output@@@__crt_stdio_output@@IBE_NXZ 10031c92 f i libucrt:output.obj
 0001:00030c95       ?should_skip_type_state_output@?$standard_base@_WV?$string_output_adapter@_W@__crt_stdio_output@@@__crt_stdio_output@@IBE_NXZ 10031c95 f i libucrt:output.obj
 0001:00030c98       ?state_case_dot@?$output_processor@DV?$stream_output_adapter@D@__crt_stdio_output@@V?$format_validation_base@DV?$stream_output_adapter@D@__crt_stdio_output@@@2@@__crt_stdio_output@@AAE_NXZ 10031c98 f i libucrt:output.obj
 0001:00030c9f       ?state_case_dot@?$output_processor@DV?$stream_output_adapter@D@__crt_stdio_output@@V?$positional_parameter_base@DV?$stream_output_adapter@D@__crt_stdio_output@@@2@@__crt_stdio_output@@AAE_NXZ 10031c9f f i libucrt:output.obj
 0001:00030ca6       ?state_case_dot@?$output_processor@DV?$stream_output_adapter@D@__crt_stdio_output@@V?$standard_base@DV?$stream_output_adapter@D@__crt_stdio_output@@@2@@__crt_stdio_output@@AAE_NXZ 10031ca6 f i libucrt:output.obj
 0001:00030cad       ?state_case_dot@?$output_processor@DV?$string_output_adapter@D@__crt_stdio_output@@V?$format_validation_base@DV?$string_output_adapter@D@__crt_stdio_output@@@2@@__crt_stdio_output@@AAE_NXZ 10031cad f i libucrt:output.obj
 0001:00030cb4       ?state_case_dot@?$output_processor@DV?$string_output_adapter@D@__crt_stdio_output@@V?$positional_parameter_base@DV?$string_output_adapter@D@__crt_stdio_output@@@2@@__crt_stdio_output@@AAE_NXZ 10031cb4 f i libucrt:output.obj
 0001:00030cbb       ?state_case_dot@?$output_processor@DV?$string_output_adapter@D@__crt_stdio_output@@V?$standard_base@DV?$string_output_adapter@D@__crt_stdio_output@@@2@@__crt_stdio_output@@AAE_NXZ 10031cbb f i libucrt:output.obj
 0001:00030cc2       ?state_case_dot@?$output_processor@_WV?$stream_output_adapter@_W@__crt_stdio_output@@V?$format_validation_base@_WV?$stream_output_adapter@_W@__crt_stdio_output@@@2@@__crt_stdio_output@@AAE_NXZ 10031cc2 f i libucrt:output.obj
 0001:00030cc9       ?state_case_dot@?$output_processor@_WV?$stream_output_adapter@_W@__crt_stdio_output@@V?$positional_parameter_base@_WV?$stream_output_adapter@_W@__crt_stdio_output@@@2@@__crt_stdio_output@@AAE_NXZ 10031cc9 f i libucrt:output.obj
 0001:00030cd0       ?state_case_dot@?$output_processor@_WV?$stream_output_adapter@_W@__crt_stdio_output@@V?$standard_base@_WV?$stream_output_adapter@_W@__crt_stdio_output@@@2@@__crt_stdio_output@@AAE_NXZ 10031cd0 f i libucrt:output.obj
 0001:00030cd7       ?state_case_dot@?$output_processor@_WV?$string_output_adapter@_W@__crt_stdio_output@@V?$format_validation_base@_WV?$string_output_adapter@_W@__crt_stdio_output@@@2@@__crt_stdio_output@@AAE_NXZ 10031cd7 f i libucrt:output.obj
 0001:00030cde       ?state_case_dot@?$output_processor@_WV?$string_output_adapter@_W@__crt_stdio_output@@V?$positional_parameter_base@_WV?$string_output_adapter@_W@__crt_stdio_output@@@2@@__crt_stdio_output@@AAE_NXZ 10031cde f i libucrt:output.obj
 0001:00030ce5       ?state_case_dot@?$output_processor@_WV?$string_output_adapter@_W@__crt_stdio_output@@V?$standard_base@_WV?$string_output_adapter@_W@__crt_stdio_output@@@2@@__crt_stdio_output@@AAE_NXZ 10031ce5 f i libucrt:output.obj
 0001:00030cec       ?state_case_flag@?$output_processor@DV?$stream_output_adapter@D@__crt_stdio_output@@V?$format_validation_base@DV?$stream_output_adapter@D@__crt_stdio_output@@@2@@__crt_stdio_output@@AAE_NXZ 10031cec f i libucrt:output.obj
 0001:00030d38       ?state_case_flag@?$output_processor@DV?$stream_output_adapter@D@__crt_stdio_output@@V?$positional_parameter_base@DV?$stream_output_adapter@D@__crt_stdio_output@@@2@@__crt_stdio_output@@AAE_NXZ 10031d38 f i libucrt:output.obj
 0001:00030d84       ?state_case_flag@?$output_processor@DV?$stream_output_adapter@D@__crt_stdio_output@@V?$standard_base@DV?$stream_output_adapter@D@__crt_stdio_output@@@2@@__crt_stdio_output@@AAE_NXZ 10031d84 f i libucrt:output.obj
 0001:00030dd0       ?state_case_flag@?$output_processor@DV?$string_output_adapter@D@__crt_stdio_output@@V?$format_validation_base@DV?$string_output_adapter@D@__crt_stdio_output@@@2@@__crt_stdio_output@@AAE_NXZ 10031dd0 f i libucrt:output.obj
 0001:00030e1c       ?state_case_flag@?$output_processor@DV?$string_output_adapter@D@__crt_stdio_output@@V?$positional_parameter_base@DV?$string_output_adapter@D@__crt_stdio_output@@@2@@__crt_stdio_output@@AAE_NXZ 10031e1c f i libucrt:output.obj
 0001:00030e68       ?state_case_flag@?$output_processor@DV?$string_output_adapter@D@__crt_stdio_output@@V?$standard_base@DV?$string_output_adapter@D@__crt_stdio_output@@@2@@__crt_stdio_output@@AAE_NXZ 10031e68 f i libucrt:output.obj
 0001:00030eb4       ?state_case_flag@?$output_processor@_WV?$stream_output_adapter@_W@__crt_stdio_output@@V?$format_validation_base@_WV?$stream_output_adapter@_W@__crt_stdio_output@@@2@@__crt_stdio_output@@AAE_NXZ 10031eb4 f i libucrt:output.obj
 0001:00030f00       ?state_case_flag@?$output_processor@_WV?$stream_output_adapter@_W@__crt_stdio_output@@V?$positional_parameter_base@_WV?$stream_output_adapter@_W@__crt_stdio_output@@@2@@__crt_stdio_output@@AAE_NXZ 10031f00 f i libucrt:output.obj
 0001:00030f4c       ?state_case_flag@?$output_processor@_WV?$stream_output_adapter@_W@__crt_stdio_output@@V?$standard_base@_WV?$stream_output_adapter@_W@__crt_stdio_output@@@2@@__crt_stdio_output@@AAE_NXZ 10031f4c f i libucrt:output.obj
 0001:00030f98       ?state_case_flag@?$output_processor@_WV?$string_output_adapter@_W@__crt_stdio_output@@V?$format_validation_base@_WV?$string_output_adapter@_W@__crt_stdio_output@@@2@@__crt_stdio_output@@AAE_NXZ 10031f98 f i libucrt:output.obj
 0001:00030fe4       ?state_case_flag@?$output_processor@_WV?$string_output_adapter@_W@__crt_stdio_output@@V?$positional_parameter_base@_WV?$string_output_adapter@_W@__crt_stdio_output@@@2@@__crt_stdio_output@@AAE_NXZ 10031fe4 f i libucrt:output.obj
 0001:00031030       ?state_case_flag@?$output_processor@_WV?$string_output_adapter@_W@__crt_stdio_output@@V?$standard_base@_WV?$string_output_adapter@_W@__crt_stdio_output@@@2@@__crt_stdio_output@@AAE_NXZ 10032030 f i libucrt:output.obj
 0001:0003107c       ?state_case_normal@?$output_processor@DV?$stream_output_adapter@D@__crt_stdio_output@@V?$format_validation_base@DV?$stream_output_adapter@D@__crt_stdio_output@@@2@@__crt_stdio_output@@AAE_NXZ 1003207c f i libucrt:output.obj
 0001:000310a2       ?state_case_normal@?$output_processor@DV?$stream_output_adapter@D@__crt_stdio_output@@V?$positional_parameter_base@DV?$stream_output_adapter@D@__crt_stdio_output@@@2@@__crt_stdio_output@@AAE_NXZ 100320a2 f i libucrt:output.obj
 0001:000310df       ?state_case_normal@?$output_processor@DV?$stream_output_adapter@D@__crt_stdio_output@@V?$standard_base@DV?$stream_output_adapter@D@__crt_stdio_output@@@2@@__crt_stdio_output@@AAE_NXZ 100320df f i libucrt:output.obj
 0001:00031105       ?state_case_normal@?$output_processor@DV?$string_output_adapter@D@__crt_stdio_output@@V?$format_validation_base@DV?$string_output_adapter@D@__crt_stdio_output@@@2@@__crt_stdio_output@@AAE_NXZ 10032105 f i libucrt:output.obj
 0001:0003112b       ?state_case_normal@?$output_processor@DV?$string_output_adapter@D@__crt_stdio_output@@V?$positional_parameter_base@DV?$string_output_adapter@D@__crt_stdio_output@@@2@@__crt_stdio_output@@AAE_NXZ 1003212b f i libucrt:output.obj
 0001:00031168       ?state_case_normal@?$output_processor@DV?$string_output_adapter@D@__crt_stdio_output@@V?$standard_base@DV?$string_output_adapter@D@__crt_stdio_output@@@2@@__crt_stdio_output@@AAE_NXZ 10032168 f i libucrt:output.obj
 0001:0003118e       ?state_case_normal@?$output_processor@_WV?$stream_output_adapter@_W@__crt_stdio_output@@V?$format_validation_base@_WV?$stream_output_adapter@_W@__crt_stdio_output@@@2@@__crt_stdio_output@@AAE_NXZ 1003218e f i libucrt:output.obj
 0001:000311b4       ?state_case_normal@?$output_processor@_WV?$stream_output_adapter@_W@__crt_stdio_output@@V?$positional_parameter_base@_WV?$stream_output_adapter@_W@__crt_stdio_output@@@2@@__crt_stdio_output@@AAE_NXZ 100321b4 f i libucrt:output.obj
 0001:000311f1       ?state_case_normal@?$output_processor@_WV?$stream_output_adapter@_W@__crt_stdio_output@@V?$standard_base@_WV?$stream_output_adapter@_W@__crt_stdio_output@@@2@@__crt_stdio_output@@AAE_NXZ 100321f1 f i libucrt:output.obj
 0001:00031217       ?state_case_normal@?$output_processor@_WV?$string_output_adapter@_W@__crt_stdio_output@@V?$format_validation_base@_WV?$string_output_adapter@_W@__crt_stdio_output@@@2@@__crt_stdio_output@@AAE_NXZ 10032217 f i libucrt:output.obj
 0001:0003123d       ?state_case_normal@?$output_processor@_WV?$string_output_adapter@_W@__crt_stdio_output@@V?$positional_parameter_base@_WV?$string_output_adapter@_W@__crt_stdio_output@@@2@@__crt_stdio_output@@AAE_NXZ 1003223d f i libucrt:output.obj
 0001:0003127a       ?state_case_normal@?$output_processor@_WV?$string_output_adapter@_W@__crt_stdio_output@@V?$standard_base@_WV?$string_output_adapter@_W@__crt_stdio_output@@@2@@__crt_stdio_output@@AAE_NXZ 1003227a f i libucrt:output.obj
 0001:000312a0       ?state_case_normal_common@?$output_processor@DV?$stream_output_adapter@D@__crt_stdio_output@@V?$format_validation_base@DV?$stream_output_adapter@D@__crt_stdio_output@@@2@@__crt_stdio_output@@AAE_NXZ 100322a0 f i libucrt:output.obj
 0001:000312eb       ?state_case_normal_common@?$output_processor@DV?$stream_output_adapter@D@__crt_stdio_output@@V?$positional_parameter_base@DV?$stream_output_adapter@D@__crt_stdio_output@@@2@@__crt_stdio_output@@AAE_NXZ 100322eb f i libucrt:output.obj
 0001:00031336       ?state_case_normal_common@?$output_processor@DV?$stream_output_adapter@D@__crt_stdio_output@@V?$standard_base@DV?$stream_output_adapter@D@__crt_stdio_output@@@2@@__crt_stdio_output@@AAE_NXZ 10032336 f i libucrt:output.obj
 0001:00031381       ?state_case_normal_common@?$output_processor@DV?$string_output_adapter@D@__crt_stdio_output@@V?$format_validation_base@DV?$string_output_adapter@D@__crt_stdio_output@@@2@@__crt_stdio_output@@AAE_NXZ 10032381 f i libucrt:output.obj
 0001:000313b5       ?state_case_normal_common@?$output_processor@DV?$string_output_adapter@D@__crt_stdio_output@@V?$positional_parameter_base@DV?$string_output_adapter@D@__crt_stdio_output@@@2@@__crt_stdio_output@@AAE_NXZ 100323b5 f i libucrt:output.obj
 0001:000313e9       ?state_case_normal_common@?$output_processor@DV?$string_output_adapter@D@__crt_stdio_output@@V?$standard_base@DV?$string_output_adapter@D@__crt_stdio_output@@@2@@__crt_stdio_output@@AAE_NXZ 100323e9 f i libucrt:output.obj
 0001:0003141d       ?state_case_normal_common@?$output_processor@_WV?$stream_output_adapter@_W@__crt_stdio_output@@V?$format_validation_base@_WV?$stream_output_adapter@_W@__crt_stdio_output@@@2@@__crt_stdio_output@@AAE_NXZ 1003241d f i libucrt:output.obj
 0001:00031451       ?state_case_normal_common@?$output_processor@_WV?$stream_output_adapter@_W@__crt_stdio_output@@V?$positional_parameter_base@_WV?$stream_output_adapter@_W@__crt_stdio_output@@@2@@__crt_stdio_output@@AAE_NXZ 10032451 f i libucrt:output.obj
 0001:00031485       ?state_case_normal_common@?$output_processor@_WV?$stream_output_adapter@_W@__crt_stdio_output@@V?$standard_base@_WV?$stream_output_adapter@_W@__crt_stdio_output@@@2@@__crt_stdio_output@@AAE_NXZ 10032485 f i libucrt:output.obj
 0001:000314b9       ?state_case_normal_common@?$output_processor@_WV?$string_output_adapter@_W@__crt_stdio_output@@V?$format_validation_base@_WV?$string_output_adapter@_W@__crt_stdio_output@@@2@@__crt_stdio_output@@AAE_NXZ 100324b9 f i libucrt:output.obj
 0001:000314da       ?state_case_normal_common@?$output_processor@_WV?$string_output_adapter@_W@__crt_stdio_output@@V?$positional_parameter_base@_WV?$string_output_adapter@_W@__crt_stdio_output@@@2@@__crt_stdio_output@@AAE_NXZ 100324da f i libucrt:output.obj
 0001:000314fb       ?state_case_normal_common@?$output_processor@_WV?$string_output_adapter@_W@__crt_stdio_output@@V?$standard_base@_WV?$string_output_adapter@_W@__crt_stdio_output@@@2@@__crt_stdio_output@@AAE_NXZ 100324fb f i libucrt:output.obj
 0001:0003151c       ?state_case_normal_tchar@?$output_processor@DV?$stream_output_adapter@D@__crt_stdio_output@@V?$format_validation_base@DV?$stream_output_adapter@D@__crt_stdio_output@@@2@@__crt_stdio_output@@AAE_ND@Z 1003251c f i libucrt:output.obj
 0001:00031596       ?state_case_normal_tchar@?$output_processor@DV?$stream_output_adapter@D@__crt_stdio_output@@V?$positional_parameter_base@DV?$stream_output_adapter@D@__crt_stdio_output@@@2@@__crt_stdio_output@@AAE_ND@Z 10032596 f i libucrt:output.obj
 0001:00031610       ?state_case_normal_tchar@?$output_processor@DV?$stream_output_adapter@D@__crt_stdio_output@@V?$standard_base@DV?$stream_output_adapter@D@__crt_stdio_output@@@2@@__crt_stdio_output@@AAE_ND@Z 10032610 f i libucrt:output.obj
 0001:0003168a       ?state_case_normal_tchar@?$output_processor@DV?$string_output_adapter@D@__crt_stdio_output@@V?$format_validation_base@DV?$string_output_adapter@D@__crt_stdio_output@@@2@@__crt_stdio_output@@AAE_ND@Z 1003268a f i libucrt:output.obj
 0001:000316f9       ?state_case_normal_tchar@?$output_processor@DV?$string_output_adapter@D@__crt_stdio_output@@V?$positional_parameter_base@DV?$string_output_adapter@D@__crt_stdio_output@@@2@@__crt_stdio_output@@AAE_ND@Z 100326f9 f i libucrt:output.obj
 0001:00031768       ?state_case_normal_tchar@?$output_processor@DV?$string_output_adapter@D@__crt_stdio_output@@V?$standard_base@DV?$string_output_adapter@D@__crt_stdio_output@@@2@@__crt_stdio_output@@AAE_ND@Z 10032768 f i libucrt:output.obj
 0001:000317d7       ?state_case_normal_tchar@?$output_processor@_WV?$stream_output_adapter@_W@__crt_stdio_output@@V?$format_validation_base@_WV?$stream_output_adapter@_W@__crt_stdio_output@@@2@@__crt_stdio_output@@AAE_N_W@Z 100327d7 f i libucrt:output.obj
 0001:000317e2       ?state_case_normal_tchar@?$output_processor@_WV?$stream_output_adapter@_W@__crt_stdio_output@@V?$positional_parameter_base@_WV?$stream_output_adapter@_W@__crt_stdio_output@@@2@@__crt_stdio_output@@AAE_N_W@Z 100327e2 f i libucrt:output.obj
 0001:000317ed       ?state_case_normal_tchar@?$output_processor@_WV?$stream_output_adapter@_W@__crt_stdio_output@@V?$standard_base@_WV?$stream_output_adapter@_W@__crt_stdio_output@@@2@@__crt_stdio_output@@AAE_N_W@Z 100327ed f i libucrt:output.obj
 0001:000317f8       ?state_case_normal_tchar@?$output_processor@_WV?$string_output_adapter@_W@__crt_stdio_output@@V?$format_validation_base@_WV?$string_output_adapter@_W@__crt_stdio_output@@@2@@__crt_stdio_output@@AAE_N_W@Z 100327f8 f i libucrt:output.obj
 0001:00031803       ?state_case_normal_tchar@?$output_processor@_WV?$string_output_adapter@_W@__crt_stdio_output@@V?$positional_parameter_base@_WV?$string_output_adapter@_W@__crt_stdio_output@@@2@@__crt_stdio_output@@AAE_N_W@Z 10032803 f i libucrt:output.obj
 0001:0003180e       ?state_case_normal_tchar@?$output_processor@_WV?$string_output_adapter@_W@__crt_stdio_output@@V?$standard_base@_WV?$string_output_adapter@_W@__crt_stdio_output@@@2@@__crt_stdio_output@@AAE_N_W@Z 1003280e f i libucrt:output.obj
 0001:00031819       ?state_case_percent@?$output_processor@DV?$stream_output_adapter@D@__crt_stdio_output@@V?$format_validation_base@DV?$stream_output_adapter@D@__crt_stdio_output@@@2@@__crt_stdio_output@@AAE_NXZ 10032819 f i libucrt:output.obj
 0001:00031837       ?state_case_percent@?$output_processor@DV?$stream_output_adapter@D@__crt_stdio_output@@V?$positional_parameter_base@DV?$stream_output_adapter@D@__crt_stdio_output@@@2@@__crt_stdio_output@@AAE_NXZ 10032837 f i libucrt:output.obj
 0001:00031855       ?state_case_percent@?$output_processor@DV?$stream_output_adapter@D@__crt_stdio_output@@V?$standard_base@DV?$stream_output_adapter@D@__crt_stdio_output@@@2@@__crt_stdio_output@@AAE_NXZ 10032855 f i libucrt:output.obj
 0001:00031873       ?state_case_percent@?$output_processor@DV?$string_output_adapter@D@__crt_stdio_output@@V?$format_validation_base@DV?$string_output_adapter@D@__crt_stdio_output@@@2@@__crt_stdio_output@@AAE_NXZ 10032873 f i libucrt:output.obj
 0001:00031891       ?state_case_percent@?$output_processor@DV?$string_output_adapter@D@__crt_stdio_output@@V?$positional_parameter_base@DV?$string_output_adapter@D@__crt_stdio_output@@@2@@__crt_stdio_output@@AAE_NXZ 10032891 f i libucrt:output.obj
 0001:000318af       ?state_case_percent@?$output_processor@DV?$string_output_adapter@D@__crt_stdio_output@@V?$standard_base@DV?$string_output_adapter@D@__crt_stdio_output@@@2@@__crt_stdio_output@@AAE_NXZ 100328af f i libucrt:output.obj
 0001:000318cd       ?state_case_percent@?$output_processor@_WV?$stream_output_adapter@_W@__crt_stdio_output@@V?$format_validation_base@_WV?$stream_output_adapter@_W@__crt_stdio_output@@@2@@__crt_stdio_output@@AAE_NXZ 100328cd f i libucrt:output.obj
 0001:000318eb       ?state_case_percent@?$output_processor@_WV?$stream_output_adapter@_W@__crt_stdio_output@@V?$positional_parameter_base@_WV?$stream_output_adapter@_W@__crt_stdio_output@@@2@@__crt_stdio_output@@AAE_NXZ 100328eb f i libucrt:output.obj
 0001:00031909       ?state_case_percent@?$output_processor@_WV?$stream_output_adapter@_W@__crt_stdio_output@@V?$standard_base@_WV?$stream_output_adapter@_W@__crt_stdio_output@@@2@@__crt_stdio_output@@AAE_NXZ 10032909 f i libucrt:output.obj
 0001:00031927       ?state_case_percent@?$output_processor@_WV?$string_output_adapter@_W@__crt_stdio_output@@V?$format_validation_base@_WV?$string_output_adapter@_W@__crt_stdio_output@@@2@@__crt_stdio_output@@AAE_NXZ 10032927 f i libucrt:output.obj
 0001:00031945       ?state_case_percent@?$output_processor@_WV?$string_output_adapter@_W@__crt_stdio_output@@V?$positional_parameter_base@_WV?$string_output_adapter@_W@__crt_stdio_output@@@2@@__crt_stdio_output@@AAE_NXZ 10032945 f i libucrt:output.obj
 0001:00031963       ?state_case_percent@?$output_processor@_WV?$string_output_adapter@_W@__crt_stdio_output@@V?$standard_base@_WV?$string_output_adapter@_W@__crt_stdio_output@@@2@@__crt_stdio_output@@AAE_NXZ 10032963 f i libucrt:output.obj
 0001:00031981       ?state_case_precision@?$output_processor@DV?$stream_output_adapter@D@__crt_stdio_output@@V?$format_validation_base@DV?$stream_output_adapter@D@__crt_stdio_output@@@2@@__crt_stdio_output@@AAE_NXZ 10032981 f i libucrt:output.obj
 0001:000319b0       ?state_case_precision@?$output_processor@DV?$stream_output_adapter@D@__crt_stdio_output@@V?$positional_parameter_base@DV?$stream_output_adapter@D@__crt_stdio_output@@@2@@__crt_stdio_output@@AAE_NXZ 100329b0 f i libucrt:output.obj
 0001:000319f8       ?state_case_precision@?$output_processor@DV?$stream_output_adapter@D@__crt_stdio_output@@V?$standard_base@DV?$stream_output_adapter@D@__crt_stdio_output@@@2@@__crt_stdio_output@@AAE_NXZ 100329f8 f i libucrt:output.obj
 0001:00031a27       ?state_case_precision@?$output_processor@DV?$string_output_adapter@D@__crt_stdio_output@@V?$format_validation_base@DV?$string_output_adapter@D@__crt_stdio_output@@@2@@__crt_stdio_output@@AAE_NXZ 10032a27 f i libucrt:output.obj
 0001:00031a56       ?state_case_precision@?$output_processor@DV?$string_output_adapter@D@__crt_stdio_output@@V?$positional_parameter_base@DV?$string_output_adapter@D@__crt_stdio_output@@@2@@__crt_stdio_output@@AAE_NXZ 10032a56 f i libucrt:output.obj
 0001:00031a9e       ?state_case_precision@?$output_processor@DV?$string_output_adapter@D@__crt_stdio_output@@V?$standard_base@DV?$string_output_adapter@D@__crt_stdio_output@@@2@@__crt_stdio_output@@AAE_NXZ 10032a9e f i libucrt:output.obj
 0001:00031acd       ?state_case_precision@?$output_processor@_WV?$stream_output_adapter@_W@__crt_stdio_output@@V?$format_validation_base@_WV?$stream_output_adapter@_W@__crt_stdio_output@@@2@@__crt_stdio_output@@AAE_NXZ 10032acd f i libucrt:output.obj
 0001:00031afd       ?state_case_precision@?$output_processor@_WV?$stream_output_adapter@_W@__crt_stdio_output@@V?$positional_parameter_base@_WV?$stream_output_adapter@_W@__crt_stdio_output@@@2@@__crt_stdio_output@@AAE_NXZ 10032afd f i libucrt:output.obj
 0001:00031b46       ?state_case_precision@?$output_processor@_WV?$stream_output_adapter@_W@__crt_stdio_output@@V?$standard_base@_WV?$stream_output_adapter@_W@__crt_stdio_output@@@2@@__crt_stdio_output@@AAE_NXZ 10032b46 f i libucrt:output.obj
 0001:00031b76       ?state_case_precision@?$output_processor@_WV?$string_output_adapter@_W@__crt_stdio_output@@V?$format_validation_base@_WV?$string_output_adapter@_W@__crt_stdio_output@@@2@@__crt_stdio_output@@AAE_NXZ 10032b76 f i libucrt:output.obj
 0001:00031ba6       ?state_case_precision@?$output_processor@_WV?$string_output_adapter@_W@__crt_stdio_output@@V?$positional_parameter_base@_WV?$string_output_adapter@_W@__crt_stdio_output@@@2@@__crt_stdio_output@@AAE_NXZ 10032ba6 f i libucrt:output.obj
 0001:00031bef       ?state_case_precision@?$output_processor@_WV?$string_output_adapter@_W@__crt_stdio_output@@V?$standard_base@_WV?$string_output_adapter@_W@__crt_stdio_output@@@2@@__crt_stdio_output@@AAE_NXZ 10032bef f i libucrt:output.obj
 0001:00031c1f       ?state_case_size@?$output_processor@DV?$stream_output_adapter@D@__crt_stdio_output@@V?$format_validation_base@DV?$stream_output_adapter@D@__crt_stdio_output@@@2@@__crt_stdio_output@@AAE_NXZ 10032c1f f i libucrt:output.obj
 0001:00031dcf       ?state_case_size@?$output_processor@DV?$stream_output_adapter@D@__crt_stdio_output@@V?$positional_parameter_base@DV?$stream_output_adapter@D@__crt_stdio_output@@@2@@__crt_stdio_output@@AAE_NXZ 10032dcf f i libucrt:output.obj
 0001:00031f7f       ?state_case_size@?$output_processor@DV?$stream_output_adapter@D@__crt_stdio_output@@V?$standard_base@DV?$stream_output_adapter@D@__crt_stdio_output@@@2@@__crt_stdio_output@@AAE_NXZ 10032f7f f i libucrt:output.obj
 0001:0003212f       ?state_case_size@?$output_processor@DV?$string_output_adapter@D@__crt_stdio_output@@V?$format_validation_base@DV?$string_output_adapter@D@__crt_stdio_output@@@2@@__crt_stdio_output@@AAE_NXZ 1003312f f i libucrt:output.obj
 0001:000322df       ?state_case_size@?$output_processor@DV?$string_output_adapter@D@__crt_stdio_output@@V?$positional_parameter_base@DV?$string_output_adapter@D@__crt_stdio_output@@@2@@__crt_stdio_output@@AAE_NXZ 100332df f i libucrt:output.obj
 0001:0003248f       ?state_case_size@?$output_processor@DV?$string_output_adapter@D@__crt_stdio_output@@V?$standard_base@DV?$string_output_adapter@D@__crt_stdio_output@@@2@@__crt_stdio_output@@AAE_NXZ 1003348f f i libucrt:output.obj
 0001:0003263f       ?state_case_size@?$output_processor@_WV?$stream_output_adapter@_W@__crt_stdio_output@@V?$format_validation_base@_WV?$stream_output_adapter@_W@__crt_stdio_output@@@2@@__crt_stdio_output@@AAE_NXZ 1003363f f i libucrt:output.obj
 0001:00032807       ?state_case_size@?$output_processor@_WV?$stream_output_adapter@_W@__crt_stdio_output@@V?$positional_parameter_base@_WV?$stream_output_adapter@_W@__crt_stdio_output@@@2@@__crt_stdio_output@@AAE_NXZ 10033807 f i libucrt:output.obj
 0001:000329cf       ?state_case_size@?$output_processor@_WV?$stream_output_adapter@_W@__crt_stdio_output@@V?$standard_base@_WV?$stream_output_adapter@_W@__crt_stdio_output@@@2@@__crt_stdio_output@@AAE_NXZ 100339cf f i libucrt:output.obj
 0001:00032b97       ?state_case_size@?$output_processor@_WV?$string_output_adapter@_W@__crt_stdio_output@@V?$format_validation_base@_WV?$string_output_adapter@_W@__crt_stdio_output@@@2@@__crt_stdio_output@@AAE_NXZ 10033b97 f i libucrt:output.obj
 0001:00032d5f       ?state_case_size@?$output_processor@_WV?$string_output_adapter@_W@__crt_stdio_output@@V?$positional_parameter_base@_WV?$string_output_adapter@_W@__crt_stdio_output@@@2@@__crt_stdio_output@@AAE_NXZ 10033d5f f i libucrt:output.obj
 0001:00032f27       ?state_case_size@?$output_processor@_WV?$string_output_adapter@_W@__crt_stdio_output@@V?$standard_base@_WV?$string_output_adapter@_W@__crt_stdio_output@@@2@@__crt_stdio_output@@AAE_NXZ 10033f27 f i libucrt:output.obj
 0001:000330ef       ?state_case_type@?$output_processor@DV?$stream_output_adapter@D@__crt_stdio_output@@V?$format_validation_base@DV?$stream_output_adapter@D@__crt_stdio_output@@@2@@__crt_stdio_output@@AAE_NXZ 100340ef f i libucrt:output.obj
 0001:000333a2       ?state_case_type@?$output_processor@DV?$stream_output_adapter@D@__crt_stdio_output@@V?$positional_parameter_base@DV?$stream_output_adapter@D@__crt_stdio_output@@@2@@__crt_stdio_output@@AAE_NXZ 100343a2 f i libucrt:output.obj
 0001:00033663       ?state_case_type@?$output_processor@DV?$stream_output_adapter@D@__crt_stdio_output@@V?$standard_base@DV?$stream_output_adapter@D@__crt_stdio_output@@@2@@__crt_stdio_output@@AAE_NXZ 10034663 f i libucrt:output.obj
 0001:00033916       ?state_case_type@?$output_processor@DV?$string_output_adapter@D@__crt_stdio_output@@V?$format_validation_base@DV?$string_output_adapter@D@__crt_stdio_output@@@2@@__crt_stdio_output@@AAE_NXZ 10034916 f i libucrt:output.obj
 0001:00033bc9       ?state_case_type@?$output_processor@DV?$string_output_adapter@D@__crt_stdio_output@@V?$positional_parameter_base@DV?$string_output_adapter@D@__crt_stdio_output@@@2@@__crt_stdio_output@@AAE_NXZ 10034bc9 f i libucrt:output.obj
 0001:00033e8a       ?state_case_type@?$output_processor@DV?$string_output_adapter@D@__crt_stdio_output@@V?$standard_base@DV?$string_output_adapter@D@__crt_stdio_output@@@2@@__crt_stdio_output@@AAE_NXZ 10034e8a f i libucrt:output.obj
 0001:0003413d       ?state_case_type@?$output_processor@_WV?$stream_output_adapter@_W@__crt_stdio_output@@V?$format_validation_base@_WV?$stream_output_adapter@_W@__crt_stdio_output@@@2@@__crt_stdio_output@@AAE_NXZ 1003513d f i libucrt:output.obj
 0001:0003443d       ?state_case_type@?$output_processor@_WV?$stream_output_adapter@_W@__crt_stdio_output@@V?$positional_parameter_base@_WV?$stream_output_adapter@_W@__crt_stdio_output@@@2@@__crt_stdio_output@@AAE_NXZ 1003543d f i libucrt:output.obj
 0001:00034750       ?state_case_type@?$output_processor@_WV?$stream_output_adapter@_W@__crt_stdio_output@@V?$standard_base@_WV?$stream_output_adapter@_W@__crt_stdio_output@@@2@@__crt_stdio_output@@AAE_NXZ 10035750 f i libucrt:output.obj
 0001:00034a50       ?state_case_type@?$output_processor@_WV?$string_output_adapter@_W@__crt_stdio_output@@V?$format_validation_base@_WV?$string_output_adapter@_W@__crt_stdio_output@@@2@@__crt_stdio_output@@AAE_NXZ 10035a50 f i libucrt:output.obj
 0001:00034d50       ?state_case_type@?$output_processor@_WV?$string_output_adapter@_W@__crt_stdio_output@@V?$positional_parameter_base@_WV?$string_output_adapter@_W@__crt_stdio_output@@@2@@__crt_stdio_output@@AAE_NXZ 10035d50 f i libucrt:output.obj
 0001:00035063       ?state_case_type@?$output_processor@_WV?$string_output_adapter@_W@__crt_stdio_output@@V?$standard_base@_WV?$string_output_adapter@_W@__crt_stdio_output@@@2@@__crt_stdio_output@@AAE_NXZ 10036063 f i libucrt:output.obj
 0001:00035363       ?state_case_width@?$output_processor@DV?$stream_output_adapter@D@__crt_stdio_output@@V?$format_validation_base@DV?$stream_output_adapter@D@__crt_stdio_output@@@2@@__crt_stdio_output@@AAE_NXZ 10036363 f i libucrt:output.obj
 0001:00035398       ?state_case_width@?$output_processor@DV?$stream_output_adapter@D@__crt_stdio_output@@V?$positional_parameter_base@DV?$stream_output_adapter@D@__crt_stdio_output@@@2@@__crt_stdio_output@@AAE_NXZ 10036398 f i libucrt:output.obj
 0001:000353e8       ?state_case_width@?$output_processor@DV?$stream_output_adapter@D@__crt_stdio_output@@V?$standard_base@DV?$stream_output_adapter@D@__crt_stdio_output@@@2@@__crt_stdio_output@@AAE_NXZ 100363e8 f i libucrt:output.obj
 0001:0003541d       ?state_case_width@?$output_processor@DV?$string_output_adapter@D@__crt_stdio_output@@V?$format_validation_base@DV?$string_output_adapter@D@__crt_stdio_output@@@2@@__crt_stdio_output@@AAE_NXZ 1003641d f i libucrt:output.obj
 0001:00035452       ?state_case_width@?$output_processor@DV?$string_output_adapter@D@__crt_stdio_output@@V?$positional_parameter_base@DV?$string_output_adapter@D@__crt_stdio_output@@@2@@__crt_stdio_output@@AAE_NXZ 10036452 f i libucrt:output.obj
 0001:000354a2       ?state_case_width@?$output_processor@DV?$string_output_adapter@D@__crt_stdio_output@@V?$standard_base@DV?$string_output_adapter@D@__crt_stdio_output@@@2@@__crt_stdio_output@@AAE_NXZ 100364a2 f i libucrt:output.obj
 0001:000354d7       ?state_case_width@?$output_processor@_WV?$stream_output_adapter@_W@__crt_stdio_output@@V?$format_validation_base@_WV?$stream_output_adapter@_W@__crt_stdio_output@@@2@@__crt_stdio_output@@AAE_NXZ 100364d7 f i libucrt:output.obj
 0001:0003550e       ?state_case_width@?$output_processor@_WV?$stream_output_adapter@_W@__crt_stdio_output@@V?$positional_parameter_base@_WV?$stream_output_adapter@_W@__crt_stdio_output@@@2@@__crt_stdio_output@@AAE_NXZ 1003650e f i libucrt:output.obj
 0001:0003555f       ?state_case_width@?$output_processor@_WV?$stream_output_adapter@_W@__crt_stdio_output@@V?$standard_base@_WV?$stream_output_adapter@_W@__crt_stdio_output@@@2@@__crt_stdio_output@@AAE_NXZ 1003655f f i libucrt:output.obj
 0001:00035596       ?state_case_width@?$output_processor@_WV?$string_output_adapter@_W@__crt_stdio_output@@V?$format_validation_base@_WV?$string_output_adapter@_W@__crt_stdio_output@@@2@@__crt_stdio_output@@AAE_NXZ 10036596 f i libucrt:output.obj
 0001:000355cd       ?state_case_width@?$output_processor@_WV?$string_output_adapter@_W@__crt_stdio_output@@V?$positional_parameter_base@_WV?$string_output_adapter@_W@__crt_stdio_output@@@2@@__crt_stdio_output@@AAE_NXZ 100365cd f i libucrt:output.obj
 0001:0003561e       ?state_case_width@?$output_processor@_WV?$string_output_adapter@_W@__crt_stdio_output@@V?$standard_base@_WV?$string_output_adapter@_W@__crt_stdio_output@@@2@@__crt_stdio_output@@AAE_NXZ 1003661e f i libucrt:output.obj
 0001:00035655       ?state_count@?$format_validation_base@DV?$stream_output_adapter@D@__crt_stdio_output@@@__crt_stdio_output@@KAIXZ 10036655 f i libucrt:output.obj
 0001:00035659       ?state_count@?$format_validation_base@DV?$string_output_adapter@D@__crt_stdio_output@@@__crt_stdio_output@@KAIXZ 10036659 f i libucrt:output.obj
 0001:0003565d       ?state_count@?$format_validation_base@_WV?$stream_output_adapter@_W@__crt_stdio_output@@@__crt_stdio_output@@KAIXZ 1003665d f i libucrt:output.obj
 0001:00035661       ?state_count@?$format_validation_base@_WV?$string_output_adapter@_W@__crt_stdio_output@@@__crt_stdio_output@@KAIXZ 10036661 f i libucrt:output.obj
 0001:00035665       ?state_count@?$standard_base@DV?$stream_output_adapter@D@__crt_stdio_output@@@__crt_stdio_output@@KAIXZ 10036665 f i libucrt:output.obj
 0001:00035669       ?state_count@?$standard_base@DV?$string_output_adapter@D@__crt_stdio_output@@@__crt_stdio_output@@KAIXZ 10036669 f i libucrt:output.obj
 0001:0003566d       ?state_count@?$standard_base@_WV?$stream_output_adapter@_W@__crt_stdio_output@@@__crt_stdio_output@@KAIXZ 1003666d f i libucrt:output.obj
 0001:00035671       ?state_count@?$standard_base@_WV?$string_output_adapter@_W@__crt_stdio_output@@@__crt_stdio_output@@KAIXZ 10036671 f i libucrt:output.obj
 0001:00035675       ?state_transition_table@?$format_validation_base@DV?$stream_output_adapter@D@__crt_stdio_output@@@__crt_stdio_output@@KAPBEXZ 10036675 f i libucrt:output.obj
 0001:0003567b       ?state_transition_table@?$format_validation_base@DV?$string_output_adapter@D@__crt_stdio_output@@@__crt_stdio_output@@KAPBEXZ 1003667b f i libucrt:output.obj
 0001:00035681       ?state_transition_table@?$format_validation_base@_WV?$stream_output_adapter@_W@__crt_stdio_output@@@__crt_stdio_output@@KAPBEXZ 10036681 f i libucrt:output.obj
 0001:00035687       ?state_transition_table@?$format_validation_base@_WV?$string_output_adapter@_W@__crt_stdio_output@@@__crt_stdio_output@@KAPBEXZ 10036687 f i libucrt:output.obj
 0001:0003568d       ?state_transition_table@?$standard_base@DV?$stream_output_adapter@D@__crt_stdio_output@@@__crt_stdio_output@@KAPBEXZ 1003668d f i libucrt:output.obj
 0001:00035693       ?state_transition_table@?$standard_base@DV?$string_output_adapter@D@__crt_stdio_output@@@__crt_stdio_output@@KAPBEXZ 10036693 f i libucrt:output.obj
 0001:00035699       ?state_transition_table@?$standard_base@_WV?$stream_output_adapter@_W@__crt_stdio_output@@@__crt_stdio_output@@KAPBEXZ 10036699 f i libucrt:output.obj
 0001:0003569f       ?state_transition_table@?$standard_base@_WV?$string_output_adapter@_W@__crt_stdio_output@@@__crt_stdio_output@@KAPBEXZ 1003669f f i libucrt:output.obj
 0001:000356a5       ?tchar_string@?$common_data@D@__crt_stdio_output@@IAEAAPADD@Z 100366a5 f i libucrt:output.obj
 0001:000356ab       ?tchar_string@?$common_data@D@__crt_stdio_output@@IAEAAPADXZ 100366ab f i libucrt:output.obj
 0001:000356af       ?tchar_string@?$common_data@_W@__crt_stdio_output@@IAEAAPA_WXZ 100366af f i libucrt:output.obj
 0001:000356b3       ?tchar_string@?$common_data@_W@__crt_stdio_output@@IAEAAPA_W_W@Z 100366b3 f i libucrt:output.obj
 0001:000356b9       ?to_integer_size@__crt_stdio_output@@YAIW4length_modifier@1@@Z 100366b9 f i libucrt:output.obj
 0001:0003572c       ?type_case_X@?$output_processor@DV?$stream_output_adapter@D@__crt_stdio_output@@V?$format_validation_base@DV?$stream_output_adapter@D@__crt_stdio_output@@@2@@__crt_stdio_output@@AAE_NXZ 1003672c f i libucrt:output.obj
 0001:00035738       ?type_case_X@?$output_processor@DV?$stream_output_adapter@D@__crt_stdio_output@@V?$positional_parameter_base@DV?$stream_output_adapter@D@__crt_stdio_output@@@2@@__crt_stdio_output@@AAE_NXZ 10036738 f i libucrt:output.obj
 0001:00035744       ?type_case_X@?$output_processor@DV?$stream_output_adapter@D@__crt_stdio_output@@V?$standard_base@DV?$stream_output_adapter@D@__crt_stdio_output@@@2@@__crt_stdio_output@@AAE_NXZ 10036744 f i libucrt:output.obj
 0001:00035750       ?type_case_X@?$output_processor@DV?$string_output_adapter@D@__crt_stdio_output@@V?$format_validation_base@DV?$string_output_adapter@D@__crt_stdio_output@@@2@@__crt_stdio_output@@AAE_NXZ 10036750 f i libucrt:output.obj
 0001:0003575c       ?type_case_X@?$output_processor@DV?$string_output_adapter@D@__crt_stdio_output@@V?$positional_parameter_base@DV?$string_output_adapter@D@__crt_stdio_output@@@2@@__crt_stdio_output@@AAE_NXZ 1003675c f i libucrt:output.obj
 0001:00035768       ?type_case_X@?$output_processor@DV?$string_output_adapter@D@__crt_stdio_output@@V?$standard_base@DV?$string_output_adapter@D@__crt_stdio_output@@@2@@__crt_stdio_output@@AAE_NXZ 10036768 f i libucrt:output.obj
 0001:00035774       ?type_case_X@?$output_processor@_WV?$stream_output_adapter@_W@__crt_stdio_output@@V?$format_validation_base@_WV?$stream_output_adapter@_W@__crt_stdio_output@@@2@@__crt_stdio_output@@AAE_NXZ 10036774 f i libucrt:output.obj
 0001:00035780       ?type_case_X@?$output_processor@_WV?$stream_output_adapter@_W@__crt_stdio_output@@V?$positional_parameter_base@_WV?$stream_output_adapter@_W@__crt_stdio_output@@@2@@__crt_stdio_output@@AAE_NXZ 10036780 f i libucrt:output.obj
 0001:0003578c       ?type_case_X@?$output_processor@_WV?$stream_output_adapter@_W@__crt_stdio_output@@V?$standard_base@_WV?$stream_output_adapter@_W@__crt_stdio_output@@@2@@__crt_stdio_output@@AAE_NXZ 1003678c f i libucrt:output.obj
 0001:00035798       ?type_case_X@?$output_processor@_WV?$string_output_adapter@_W@__crt_stdio_output@@V?$format_validation_base@_WV?$string_output_adapter@_W@__crt_stdio_output@@@2@@__crt_stdio_output@@AAE_NXZ 10036798 f i libucrt:output.obj
 0001:000357a4       ?type_case_X@?$output_processor@_WV?$string_output_adapter@_W@__crt_stdio_output@@V?$positional_parameter_base@_WV?$string_output_adapter@_W@__crt_stdio_output@@@2@@__crt_stdio_output@@AAE_NXZ 100367a4 f i libucrt:output.obj
 0001:000357b0       ?type_case_X@?$output_processor@_WV?$string_output_adapter@_W@__crt_stdio_output@@V?$standard_base@_WV?$string_output_adapter@_W@__crt_stdio_output@@@2@@__crt_stdio_output@@AAE_NXZ 100367b0 f i libucrt:output.obj
 0001:000357bc       ?type_case_Z@?$output_processor@DV?$stream_output_adapter@D@__crt_stdio_output@@V?$format_validation_base@DV?$stream_output_adapter@D@__crt_stdio_output@@@2@@__crt_stdio_output@@AAE_NXZ 100367bc f i libucrt:output.obj
 0001:00035835       ?type_case_Z@?$output_processor@DV?$stream_output_adapter@D@__crt_stdio_output@@V?$positional_parameter_base@DV?$stream_output_adapter@D@__crt_stdio_output@@@2@@__crt_stdio_output@@AAE_NXZ 10036835 f i libucrt:output.obj
 0001:0003594b       ?type_case_Z@?$output_processor@DV?$stream_output_adapter@D@__crt_stdio_output@@V?$standard_base@DV?$stream_output_adapter@D@__crt_stdio_output@@@2@@__crt_stdio_output@@AAE_NXZ 1003694b f i libucrt:output.obj
 0001:000359c4       ?type_case_Z@?$output_processor@DV?$string_output_adapter@D@__crt_stdio_output@@V?$format_validation_base@DV?$string_output_adapter@D@__crt_stdio_output@@@2@@__crt_stdio_output@@AAE_NXZ 100369c4 f i libucrt:output.obj
 0001:00035a3d       ?type_case_Z@?$output_processor@DV?$string_output_adapter@D@__crt_stdio_output@@V?$positional_parameter_base@DV?$string_output_adapter@D@__crt_stdio_output@@@2@@__crt_stdio_output@@AAE_NXZ 10036a3d f i libucrt:output.obj
 0001:00035b53       ?type_case_Z@?$output_processor@DV?$string_output_adapter@D@__crt_stdio_output@@V?$standard_base@DV?$string_output_adapter@D@__crt_stdio_output@@@2@@__crt_stdio_output@@AAE_NXZ 10036b53 f i libucrt:output.obj
 0001:00035bcc       ?type_case_Z@?$output_processor@_WV?$stream_output_adapter@_W@__crt_stdio_output@@V?$format_validation_base@_WV?$stream_output_adapter@_W@__crt_stdio_output@@@2@@__crt_stdio_output@@AAE_NXZ 10036bcc f i libucrt:output.obj
 0001:00035c45       ?type_case_Z@?$output_processor@_WV?$stream_output_adapter@_W@__crt_stdio_output@@V?$positional_parameter_base@_WV?$stream_output_adapter@_W@__crt_stdio_output@@@2@@__crt_stdio_output@@AAE_NXZ 10036c45 f i libucrt:output.obj
 0001:00035d5b       ?type_case_Z@?$output_processor@_WV?$stream_output_adapter@_W@__crt_stdio_output@@V?$standard_base@_WV?$stream_output_adapter@_W@__crt_stdio_output@@@2@@__crt_stdio_output@@AAE_NXZ 10036d5b f i libucrt:output.obj
 0001:00035dd4       ?type_case_Z@?$output_processor@_WV?$string_output_adapter@_W@__crt_stdio_output@@V?$format_validation_base@_WV?$string_output_adapter@_W@__crt_stdio_output@@@2@@__crt_stdio_output@@AAE_NXZ 10036dd4 f i libucrt:output.obj
 0001:00035e4d       ?type_case_Z@?$output_processor@_WV?$string_output_adapter@_W@__crt_stdio_output@@V?$positional_parameter_base@_WV?$string_output_adapter@_W@__crt_stdio_output@@@2@@__crt_stdio_output@@AAE_NXZ 10036e4d f i libucrt:output.obj
 0001:00035f63       ?type_case_Z@?$output_processor@_WV?$string_output_adapter@_W@__crt_stdio_output@@V?$standard_base@_WV?$string_output_adapter@_W@__crt_stdio_output@@@2@@__crt_stdio_output@@AAE_NXZ 10036f63 f i libucrt:output.obj
 0001:00035fdc       ?type_case_a@?$output_processor@DV?$stream_output_adapter@D@__crt_stdio_output@@V?$format_validation_base@DV?$stream_output_adapter@D@__crt_stdio_output@@@2@@__crt_stdio_output@@AAE_NXZ 10036fdc f i libucrt:output.obj
 0001:0003618b       ?type_case_a@?$output_processor@DV?$stream_output_adapter@D@__crt_stdio_output@@V?$positional_parameter_base@DV?$stream_output_adapter@D@__crt_stdio_output@@@2@@__crt_stdio_output@@AAE_NXZ 1003718b f i libucrt:output.obj
 0001:00036361       ?type_case_a@?$output_processor@DV?$stream_output_adapter@D@__crt_stdio_output@@V?$standard_base@DV?$stream_output_adapter@D@__crt_stdio_output@@@2@@__crt_stdio_output@@AAE_NXZ 10037361 f i libucrt:output.obj
 0001:00036510       ?type_case_a@?$output_processor@DV?$string_output_adapter@D@__crt_stdio_output@@V?$format_validation_base@DV?$string_output_adapter@D@__crt_stdio_output@@@2@@__crt_stdio_output@@AAE_NXZ 10037510 f i libucrt:output.obj
 0001:000366bf       ?type_case_a@?$output_processor@DV?$string_output_adapter@D@__crt_stdio_output@@V?$positional_parameter_base@DV?$string_output_adapter@D@__crt_stdio_output@@@2@@__crt_stdio_output@@AAE_NXZ 100376bf f i libucrt:output.obj
 0001:00036895       ?type_case_a@?$output_processor@DV?$string_output_adapter@D@__crt_stdio_output@@V?$standard_base@DV?$string_output_adapter@D@__crt_stdio_output@@@2@@__crt_stdio_output@@AAE_NXZ 10037895 f i libucrt:output.obj
 0001:00036a44       ?type_case_a@?$output_processor@_WV?$stream_output_adapter@_W@__crt_stdio_output@@V?$format_validation_base@_WV?$stream_output_adapter@_W@__crt_stdio_output@@@2@@__crt_stdio_output@@AAE_NXZ 10037a44 f i libucrt:output.obj
 0001:00036c0e       ?type_case_a@?$output_processor@_WV?$stream_output_adapter@_W@__crt_stdio_output@@V?$positional_parameter_base@_WV?$stream_output_adapter@_W@__crt_stdio_output@@@2@@__crt_stdio_output@@AAE_NXZ 10037c0e f i libucrt:output.obj
 0001:00036dff       ?type_case_a@?$output_processor@_WV?$stream_output_adapter@_W@__crt_stdio_output@@V?$standard_base@_WV?$stream_output_adapter@_W@__crt_stdio_output@@@2@@__crt_stdio_output@@AAE_NXZ 10037dff f i libucrt:output.obj
 0001:00036fc9       ?type_case_a@?$output_processor@_WV?$string_output_adapter@_W@__crt_stdio_output@@V?$format_validation_base@_WV?$string_output_adapter@_W@__crt_stdio_output@@@2@@__crt_stdio_output@@AAE_NXZ 10037fc9 f i libucrt:output.obj
 0001:00037193       ?type_case_a@?$output_processor@_WV?$string_output_adapter@_W@__crt_stdio_output@@V?$positional_parameter_base@_WV?$string_output_adapter@_W@__crt_stdio_output@@@2@@__crt_stdio_output@@AAE_NXZ 10038193 f i libucrt:output.obj
 0001:00037384       ?type_case_a@?$output_processor@_WV?$string_output_adapter@_W@__crt_stdio_output@@V?$standard_base@_WV?$string_output_adapter@_W@__crt_stdio_output@@@2@@__crt_stdio_output@@AAE_NXZ 10038384 f i libucrt:output.obj
 0001:0003754e       ?type_case_c@?$output_processor@DV?$stream_output_adapter@D@__crt_stdio_output@@V?$format_validation_base@DV?$stream_output_adapter@D@__crt_stdio_output@@@2@@__crt_stdio_output@@AAE_NXZ 1003854e f i libucrt:output.obj
 0001:00037558       ?type_case_c@?$output_processor@DV?$stream_output_adapter@D@__crt_stdio_output@@V?$positional_parameter_base@DV?$stream_output_adapter@D@__crt_stdio_output@@@2@@__crt_stdio_output@@AAE_NXZ 10038558 f i libucrt:output.obj
 0001:00037562       ?type_case_c@?$output_processor@DV?$stream_output_adapter@D@__crt_stdio_output@@V?$standard_base@DV?$stream_output_adapter@D@__crt_stdio_output@@@2@@__crt_stdio_output@@AAE_NXZ 10038562 f i libucrt:output.obj
 0001:0003756c       ?type_case_c@?$output_processor@DV?$string_output_adapter@D@__crt_stdio_output@@V?$format_validation_base@DV?$string_output_adapter@D@__crt_stdio_output@@@2@@__crt_stdio_output@@AAE_NXZ 1003856c f i libucrt:output.obj
 0001:00037576       ?type_case_c@?$output_processor@DV?$string_output_adapter@D@__crt_stdio_output@@V?$positional_parameter_base@DV?$string_output_adapter@D@__crt_stdio_output@@@2@@__crt_stdio_output@@AAE_NXZ 10038576 f i libucrt:output.obj
 0001:00037580       ?type_case_c@?$output_processor@DV?$string_output_adapter@D@__crt_stdio_output@@V?$standard_base@DV?$string_output_adapter@D@__crt_stdio_output@@@2@@__crt_stdio_output@@AAE_NXZ 10038580 f i libucrt:output.obj
 0001:0003758a       ?type_case_c@?$output_processor@_WV?$stream_output_adapter@_W@__crt_stdio_output@@V?$format_validation_base@_WV?$stream_output_adapter@_W@__crt_stdio_output@@@2@@__crt_stdio_output@@AAE_NXZ 1003858a f i libucrt:output.obj
 0001:00037594       ?type_case_c@?$output_processor@_WV?$stream_output_adapter@_W@__crt_stdio_output@@V?$positional_parameter_base@_WV?$stream_output_adapter@_W@__crt_stdio_output@@@2@@__crt_stdio_output@@AAE_NXZ 10038594 f i libucrt:output.obj
 0001:0003759e       ?type_case_c@?$output_processor@_WV?$stream_output_adapter@_W@__crt_stdio_output@@V?$standard_base@_WV?$stream_output_adapter@_W@__crt_stdio_output@@@2@@__crt_stdio_output@@AAE_NXZ 1003859e f i libucrt:output.obj
 0001:000375a8       ?type_case_c@?$output_processor@_WV?$string_output_adapter@_W@__crt_stdio_output@@V?$format_validation_base@_WV?$string_output_adapter@_W@__crt_stdio_output@@@2@@__crt_stdio_output@@AAE_NXZ 100385a8 f i libucrt:output.obj
 0001:000375b2       ?type_case_c@?$output_processor@_WV?$string_output_adapter@_W@__crt_stdio_output@@V?$positional_parameter_base@_WV?$string_output_adapter@_W@__crt_stdio_output@@@2@@__crt_stdio_output@@AAE_NXZ 100385b2 f i libucrt:output.obj
 0001:000375bc       ?type_case_c@?$output_processor@_WV?$string_output_adapter@_W@__crt_stdio_output@@V?$standard_base@_WV?$string_output_adapter@_W@__crt_stdio_output@@@2@@__crt_stdio_output@@AAE_NXZ 100385bc f i libucrt:output.obj
 0001:000375c6       ?type_case_c_tchar@?$output_processor@DV?$stream_output_adapter@D@__crt_stdio_output@@V?$format_validation_base@DV?$stream_output_adapter@D@__crt_stdio_output@@@2@@__crt_stdio_output@@AAE_ND@Z 100385c6 f i libucrt:output.obj
 0001:0003767a       ?type_case_c_tchar@?$output_processor@DV?$stream_output_adapter@D@__crt_stdio_output@@V?$positional_parameter_base@DV?$stream_output_adapter@D@__crt_stdio_output@@@2@@__crt_stdio_output@@AAE_ND@Z 1003867a f i libucrt:output.obj
 0001:0003776a       ?type_case_c_tchar@?$output_processor@DV?$stream_output_adapter@D@__crt_stdio_output@@V?$standard_base@DV?$stream_output_adapter@D@__crt_stdio_output@@@2@@__crt_stdio_output@@AAE_ND@Z 1003876a f i libucrt:output.obj
 0001:0003781e       ?type_case_c_tchar@?$output_processor@DV?$string_output_adapter@D@__crt_stdio_output@@V?$format_validation_base@DV?$string_output_adapter@D@__crt_stdio_output@@@2@@__crt_stdio_output@@AAE_ND@Z 1003881e f i libucrt:output.obj
 0001:000378d2       ?type_case_c_tchar@?$output_processor@DV?$string_output_adapter@D@__crt_stdio_output@@V?$positional_parameter_base@DV?$string_output_adapter@D@__crt_stdio_output@@@2@@__crt_stdio_output@@AAE_ND@Z 100388d2 f i libucrt:output.obj
 0001:000379c2       ?type_case_c_tchar@?$output_processor@DV?$string_output_adapter@D@__crt_stdio_output@@V?$standard_base@DV?$string_output_adapter@D@__crt_stdio_output@@@2@@__crt_stdio_output@@AAE_ND@Z 100389c2 f i libucrt:output.obj
 0001:00037a76       ?type_case_c_tchar@?$output_processor@_WV?$stream_output_adapter@_W@__crt_stdio_output@@V?$format_validation_base@_WV?$stream_output_adapter@_W@__crt_stdio_output@@@2@@__crt_stdio_output@@AAE_N_W@Z 10038a76 f i libucrt:output.obj
 0001:00037b34       ?type_case_c_tchar@?$output_processor@_WV?$stream_output_adapter@_W@__crt_stdio_output@@V?$positional_parameter_base@_WV?$stream_output_adapter@_W@__crt_stdio_output@@@2@@__crt_stdio_output@@AAE_N_W@Z 10038b34 f i libucrt:output.obj
 0001:00037c0e       ?type_case_c_tchar@?$output_processor@_WV?$stream_output_adapter@_W@__crt_stdio_output@@V?$standard_base@_WV?$stream_output_adapter@_W@__crt_stdio_output@@@2@@__crt_stdio_output@@AAE_N_W@Z 10038c0e f i libucrt:output.obj
 0001:00037ccc       ?type_case_c_tchar@?$output_processor@_WV?$string_output_adapter@_W@__crt_stdio_output@@V?$format_validation_base@_WV?$string_output_adapter@_W@__crt_stdio_output@@@2@@__crt_stdio_output@@AAE_N_W@Z 10038ccc f i libucrt:output.obj
 0001:00037d8a       ?type_case_c_tchar@?$output_processor@_WV?$string_output_adapter@_W@__crt_stdio_output@@V?$positional_parameter_base@_WV?$string_output_adapter@_W@__crt_stdio_output@@@2@@__crt_stdio_output@@AAE_N_W@Z 10038d8a f i libucrt:output.obj
 0001:00037e64       ?type_case_c_tchar@?$output_processor@_WV?$string_output_adapter@_W@__crt_stdio_output@@V?$standard_base@_WV?$string_output_adapter@_W@__crt_stdio_output@@@2@@__crt_stdio_output@@AAE_N_W@Z 10038e64 f i libucrt:output.obj
 0001:00037f22       ?type_case_d@?$output_processor@DV?$stream_output_adapter@D@__crt_stdio_output@@V?$format_validation_base@DV?$stream_output_adapter@D@__crt_stdio_output@@@2@@__crt_stdio_output@@AAE_NXZ 10038f22 f i libucrt:output.obj
 0001:00037f33       ?type_case_d@?$output_processor@DV?$stream_output_adapter@D@__crt_stdio_output@@V?$positional_parameter_base@DV?$stream_output_adapter@D@__crt_stdio_output@@@2@@__crt_stdio_output@@AAE_NXZ 10038f33 f i libucrt:output.obj
 0001:00037f44       ?type_case_d@?$output_processor@DV?$stream_output_adapter@D@__crt_stdio_output@@V?$standard_base@DV?$stream_output_adapter@D@__crt_stdio_output@@@2@@__crt_stdio_output@@AAE_NXZ 10038f44 f i libucrt:output.obj
 0001:00037f55       ?type_case_d@?$output_processor@DV?$string_output_adapter@D@__crt_stdio_output@@V?$format_validation_base@DV?$string_output_adapter@D@__crt_stdio_output@@@2@@__crt_stdio_output@@AAE_NXZ 10038f55 f i libucrt:output.obj
 0001:00037f66       ?type_case_d@?$output_processor@DV?$string_output_adapter@D@__crt_stdio_output@@V?$positional_parameter_base@DV?$string_output_adapter@D@__crt_stdio_output@@@2@@__crt_stdio_output@@AAE_NXZ 10038f66 f i libucrt:output.obj
 0001:00037f77       ?type_case_d@?$output_processor@DV?$string_output_adapter@D@__crt_stdio_output@@V?$standard_base@DV?$string_output_adapter@D@__crt_stdio_output@@@2@@__crt_stdio_output@@AAE_NXZ 10038f77 f i libucrt:output.obj
 0001:00037f88       ?type_case_d@?$output_processor@_WV?$stream_output_adapter@_W@__crt_stdio_output@@V?$format_validation_base@_WV?$stream_output_adapter@_W@__crt_stdio_output@@@2@@__crt_stdio_output@@AAE_NXZ 10038f88 f i libucrt:output.obj
 0001:00037f99       ?type_case_d@?$output_processor@_WV?$stream_output_adapter@_W@__crt_stdio_output@@V?$positional_parameter_base@_WV?$stream_output_adapter@_W@__crt_stdio_output@@@2@@__crt_stdio_output@@AAE_NXZ 10038f99 f i libucrt:output.obj
 0001:00037faa       ?type_case_d@?$output_processor@_WV?$stream_output_adapter@_W@__crt_stdio_output@@V?$standard_base@_WV?$stream_output_adapter@_W@__crt_stdio_output@@@2@@__crt_stdio_output@@AAE_NXZ 10038faa f i libucrt:output.obj
 0001:00037fbb       ?type_case_d@?$output_processor@_WV?$string_output_adapter@_W@__crt_stdio_output@@V?$format_validation_base@_WV?$string_output_adapter@_W@__crt_stdio_output@@@2@@__crt_stdio_output@@AAE_NXZ 10038fbb f i libucrt:output.obj
 0001:00037fcc       ?type_case_d@?$output_processor@_WV?$string_output_adapter@_W@__crt_stdio_output@@V?$positional_parameter_base@_WV?$string_output_adapter@_W@__crt_stdio_output@@@2@@__crt_stdio_output@@AAE_NXZ 10038fcc f i libucrt:output.obj
 0001:00037fdd       ?type_case_d@?$output_processor@_WV?$string_output_adapter@_W@__crt_stdio_output@@V?$standard_base@_WV?$string_output_adapter@_W@__crt_stdio_output@@@2@@__crt_stdio_output@@AAE_NXZ 10038fdd f i libucrt:output.obj
 0001:00037fee       ?type_case_integer@?$output_processor@DV?$stream_output_adapter@D@__crt_stdio_output@@V?$format_validation_base@DV?$stream_output_adapter@D@__crt_stdio_output@@@2@@__crt_stdio_output@@AAE_NI_N@Z 10038fee f i libucrt:output.obj
 0001:00038195       ?type_case_integer@?$output_processor@DV?$stream_output_adapter@D@__crt_stdio_output@@V?$positional_parameter_base@DV?$stream_output_adapter@D@__crt_stdio_output@@@2@@__crt_stdio_output@@AAE_NI_N@Z 10039195 f i libucrt:output.obj
 0001:00038378       ?type_case_integer@?$output_processor@DV?$stream_output_adapter@D@__crt_stdio_output@@V?$standard_base@DV?$stream_output_adapter@D@__crt_stdio_output@@@2@@__crt_stdio_output@@AAE_NI_N@Z 10039378 f i libucrt:output.obj
 0001:0003851f       ?type_case_integer@?$output_processor@DV?$string_output_adapter@D@__crt_stdio_output@@V?$format_validation_base@DV?$string_output_adapter@D@__crt_stdio_output@@@2@@__crt_stdio_output@@AAE_NI_N@Z 1003951f f i libucrt:output.obj
 0001:000386c6       ?type_case_integer@?$output_processor@DV?$string_output_adapter@D@__crt_stdio_output@@V?$positional_parameter_base@DV?$string_output_adapter@D@__crt_stdio_output@@@2@@__crt_stdio_output@@AAE_NI_N@Z 100396c6 f i libucrt:output.obj
 0001:000388a9       ?type_case_integer@?$output_processor@DV?$string_output_adapter@D@__crt_stdio_output@@V?$standard_base@DV?$string_output_adapter@D@__crt_stdio_output@@@2@@__crt_stdio_output@@AAE_NI_N@Z 100398a9 f i libucrt:output.obj
 0001:00038a50       ?type_case_integer@?$output_processor@_WV?$stream_output_adapter@_W@__crt_stdio_output@@V?$format_validation_base@_WV?$stream_output_adapter@_W@__crt_stdio_output@@@2@@__crt_stdio_output@@AAE_NI_N@Z 10039a50 f i libucrt:output.obj
 0001:00038bfc       ?type_case_integer@?$output_processor@_WV?$stream_output_adapter@_W@__crt_stdio_output@@V?$positional_parameter_base@_WV?$stream_output_adapter@_W@__crt_stdio_output@@@2@@__crt_stdio_output@@AAE_NI_N@Z 10039bfc f i libucrt:output.obj
 0001:00038de4       ?type_case_integer@?$output_processor@_WV?$stream_output_adapter@_W@__crt_stdio_output@@V?$standard_base@_WV?$stream_output_adapter@_W@__crt_stdio_output@@@2@@__crt_stdio_output@@AAE_NI_N@Z 10039de4 f i libucrt:output.obj
 0001:00038f90       ?type_case_integer@?$output_processor@_WV?$string_output_adapter@_W@__crt_stdio_output@@V?$format_validation_base@_WV?$string_output_adapter@_W@__crt_stdio_output@@@2@@__crt_stdio_output@@AAE_NI_N@Z 10039f90 f i libucrt:output.obj
 0001:0003913c       ?type_case_integer@?$output_processor@_WV?$string_output_adapter@_W@__crt_stdio_output@@V?$positional_parameter_base@_WV?$string_output_adapter@_W@__crt_stdio_output@@@2@@__crt_stdio_output@@AAE_NI_N@Z 1003a13c f i libucrt:output.obj
 0001:00039324       ?type_case_integer@?$output_processor@_WV?$string_output_adapter@_W@__crt_stdio_output@@V?$standard_base@_WV?$string_output_adapter@_W@__crt_stdio_output@@@2@@__crt_stdio_output@@AAE_NI_N@Z 1003a324 f i libucrt:output.obj
 0001:000394d0       ?type_case_n@?$output_processor@DV?$stream_output_adapter@D@__crt_stdio_output@@V?$format_validation_base@DV?$stream_output_adapter@D@__crt_stdio_output@@@2@@__crt_stdio_output@@AAE_NXZ 1003a4d0 f i libucrt:output.obj
 0001:00039561       ?type_case_n@?$output_processor@DV?$stream_output_adapter@D@__crt_stdio_output@@V?$positional_parameter_base@DV?$stream_output_adapter@D@__crt_stdio_output@@@2@@__crt_stdio_output@@AAE_NXZ 1003a561 f i libucrt:output.obj
 0001:00039620       ?type_case_n@?$output_processor@DV?$stream_output_adapter@D@__crt_stdio_output@@V?$standard_base@DV?$stream_output_adapter@D@__crt_stdio_output@@@2@@__crt_stdio_output@@AAE_NXZ 1003a620 f i libucrt:output.obj
 0001:000396b1       ?type_case_n@?$output_processor@DV?$string_output_adapter@D@__crt_stdio_output@@V?$format_validation_base@DV?$string_output_adapter@D@__crt_stdio_output@@@2@@__crt_stdio_output@@AAE_NXZ 1003a6b1 f i libucrt:output.obj
 0001:00039742       ?type_case_n@?$output_processor@DV?$string_output_adapter@D@__crt_stdio_output@@V?$positional_parameter_base@DV?$string_output_adapter@D@__crt_stdio_output@@@2@@__crt_stdio_output@@AAE_NXZ 1003a742 f i libucrt:output.obj
 0001:00039801       ?type_case_n@?$output_processor@DV?$string_output_adapter@D@__crt_stdio_output@@V?$standard_base@DV?$string_output_adapter@D@__crt_stdio_output@@@2@@__crt_stdio_output@@AAE_NXZ 1003a801 f i libucrt:output.obj
 0001:00039892       ?type_case_n@?$output_processor@_WV?$stream_output_adapter@_W@__crt_stdio_output@@V?$format_validation_base@_WV?$stream_output_adapter@_W@__crt_stdio_output@@@2@@__crt_stdio_output@@AAE_NXZ 1003a892 f i libucrt:output.obj
 0001:00039923       ?type_case_n@?$output_processor@_WV?$stream_output_adapter@_W@__crt_stdio_output@@V?$positional_parameter_base@_WV?$stream_output_adapter@_W@__crt_stdio_output@@@2@@__crt_stdio_output@@AAE_NXZ 1003a923 f i libucrt:output.obj
 0001:000399e2       ?type_case_n@?$output_processor@_WV?$stream_output_adapter@_W@__crt_stdio_output@@V?$standard_base@_WV?$stream_output_adapter@_W@__crt_stdio_output@@@2@@__crt_stdio_output@@AAE_NXZ 1003a9e2 f i libucrt:output.obj
 0001:00039a73       ?type_case_n@?$output_processor@_WV?$string_output_adapter@_W@__crt_stdio_output@@V?$format_validation_base@_WV?$string_output_adapter@_W@__crt_stdio_output@@@2@@__crt_stdio_output@@AAE_NXZ 1003aa73 f i libucrt:output.obj
 0001:00039b04       ?type_case_n@?$output_processor@_WV?$string_output_adapter@_W@__crt_stdio_output@@V?$positional_parameter_base@_WV?$string_output_adapter@_W@__crt_stdio_output@@@2@@__crt_stdio_output@@AAE_NXZ 1003ab04 f i libucrt:output.obj
 0001:00039bc3       ?type_case_n@?$output_processor@_WV?$string_output_adapter@_W@__crt_stdio_output@@V?$standard_base@_WV?$string_output_adapter@_W@__crt_stdio_output@@@2@@__crt_stdio_output@@AAE_NXZ 1003abc3 f i libucrt:output.obj
 0001:00039c54       ?type_case_o@?$output_processor@DV?$stream_output_adapter@D@__crt_stdio_output@@V?$format_validation_base@DV?$stream_output_adapter@D@__crt_stdio_output@@@2@@__crt_stdio_output@@AAE_NXZ 1003ac54 f i libucrt:output.obj
 0001:00039c7a       ?type_case_o@?$output_processor@DV?$stream_output_adapter@D@__crt_stdio_output@@V?$positional_parameter_base@DV?$stream_output_adapter@D@__crt_stdio_output@@@2@@__crt_stdio_output@@AAE_NXZ 1003ac7a f i libucrt:output.obj
 0001:00039ca0       ?type_case_o@?$output_processor@DV?$stream_output_adapter@D@__crt_stdio_output@@V?$standard_base@DV?$stream_output_adapter@D@__crt_stdio_output@@@2@@__crt_stdio_output@@AAE_NXZ 1003aca0 f i libucrt:output.obj
 0001:00039cc6       ?type_case_o@?$output_processor@DV?$string_output_adapter@D@__crt_stdio_output@@V?$format_validation_base@DV?$string_output_adapter@D@__crt_stdio_output@@@2@@__crt_stdio_output@@AAE_NXZ 1003acc6 f i libucrt:output.obj
 0001:00039cec       ?type_case_o@?$output_processor@DV?$string_output_adapter@D@__crt_stdio_output@@V?$positional_parameter_base@DV?$string_output_adapter@D@__crt_stdio_output@@@2@@__crt_stdio_output@@AAE_NXZ 1003acec f i libucrt:output.obj
 0001:00039d12       ?type_case_o@?$output_processor@DV?$string_output_adapter@D@__crt_stdio_output@@V?$standard_base@DV?$string_output_adapter@D@__crt_stdio_output@@@2@@__crt_stdio_output@@AAE_NXZ 1003ad12 f i libucrt:output.obj
 0001:00039d38       ?type_case_o@?$output_processor@_WV?$stream_output_adapter@_W@__crt_stdio_output@@V?$format_validation_base@_WV?$stream_output_adapter@_W@__crt_stdio_output@@@2@@__crt_stdio_output@@AAE_NXZ 1003ad38 f i libucrt:output.obj
 0001:00039d5e       ?type_case_o@?$output_processor@_WV?$stream_output_adapter@_W@__crt_stdio_output@@V?$positional_parameter_base@_WV?$stream_output_adapter@_W@__crt_stdio_output@@@2@@__crt_stdio_output@@AAE_NXZ 1003ad5e f i libucrt:output.obj
 0001:00039d84       ?type_case_o@?$output_processor@_WV?$stream_output_adapter@_W@__crt_stdio_output@@V?$standard_base@_WV?$stream_output_adapter@_W@__crt_stdio_output@@@2@@__crt_stdio_output@@AAE_NXZ 1003ad84 f i libucrt:output.obj
 0001:00039daa       ?type_case_o@?$output_processor@_WV?$string_output_adapter@_W@__crt_stdio_output@@V?$format_validation_base@_WV?$string_output_adapter@_W@__crt_stdio_output@@@2@@__crt_stdio_output@@AAE_NXZ 1003adaa f i libucrt:output.obj
 0001:00039dd0       ?type_case_o@?$output_processor@_WV?$string_output_adapter@_W@__crt_stdio_output@@V?$positional_parameter_base@_WV?$string_output_adapter@_W@__crt_stdio_output@@@2@@__crt_stdio_output@@AAE_NXZ 1003add0 f i libucrt:output.obj
 0001:00039df6       ?type_case_o@?$output_processor@_WV?$string_output_adapter@_W@__crt_stdio_output@@V?$standard_base@_WV?$string_output_adapter@_W@__crt_stdio_output@@@2@@__crt_stdio_output@@AAE_NXZ 1003adf6 f i libucrt:output.obj
 0001:00039e1c       ?type_case_p@?$output_processor@DV?$stream_output_adapter@D@__crt_stdio_output@@V?$format_validation_base@DV?$stream_output_adapter@D@__crt_stdio_output@@@2@@__crt_stdio_output@@AAE_NXZ 1003ae1c f i libucrt:output.obj
 0001:00039e3a       ?type_case_p@?$output_processor@DV?$stream_output_adapter@D@__crt_stdio_output@@V?$positional_parameter_base@DV?$stream_output_adapter@D@__crt_stdio_output@@@2@@__crt_stdio_output@@AAE_NXZ 1003ae3a f i libucrt:output.obj
 0001:00039e58       ?type_case_p@?$output_processor@DV?$stream_output_adapter@D@__crt_stdio_output@@V?$standard_base@DV?$stream_output_adapter@D@__crt_stdio_output@@@2@@__crt_stdio_output@@AAE_NXZ 1003ae58 f i libucrt:output.obj
 0001:00039e76       ?type_case_p@?$output_processor@DV?$string_output_adapter@D@__crt_stdio_output@@V?$format_validation_base@DV?$string_output_adapter@D@__crt_stdio_output@@@2@@__crt_stdio_output@@AAE_NXZ 1003ae76 f i libucrt:output.obj
 0001:00039e94       ?type_case_p@?$output_processor@DV?$string_output_adapter@D@__crt_stdio_output@@V?$positional_parameter_base@DV?$string_output_adapter@D@__crt_stdio_output@@@2@@__crt_stdio_output@@AAE_NXZ 1003ae94 f i libucrt:output.obj
 0001:00039eb2       ?type_case_p@?$output_processor@DV?$string_output_adapter@D@__crt_stdio_output@@V?$standard_base@DV?$string_output_adapter@D@__crt_stdio_output@@@2@@__crt_stdio_output@@AAE_NXZ 1003aeb2 f i libucrt:output.obj
 0001:00039ed0       ?type_case_p@?$output_processor@_WV?$stream_output_adapter@_W@__crt_stdio_output@@V?$format_validation_base@_WV?$stream_output_adapter@_W@__crt_stdio_output@@@2@@__crt_stdio_output@@AAE_NXZ 1003aed0 f i libucrt:output.obj
 0001:00039eee       ?type_case_p@?$output_processor@_WV?$stream_output_adapter@_W@__crt_stdio_output@@V?$positional_parameter_base@_WV?$stream_output_adapter@_W@__crt_stdio_output@@@2@@__crt_stdio_output@@AAE_NXZ 1003aeee f i libucrt:output.obj
 0001:00039f0c       ?type_case_p@?$output_processor@_WV?$stream_output_adapter@_W@__crt_stdio_output@@V?$standard_base@_WV?$stream_output_adapter@_W@__crt_stdio_output@@@2@@__crt_stdio_output@@AAE_NXZ 1003af0c f i libucrt:output.obj
 0001:00039f2a       ?type_case_p@?$output_processor@_WV?$string_output_adapter@_W@__crt_stdio_output@@V?$format_validation_base@_WV?$string_output_adapter@_W@__crt_stdio_output@@@2@@__crt_stdio_output@@AAE_NXZ 1003af2a f i libucrt:output.obj
 0001:00039f48       ?type_case_p@?$output_processor@_WV?$string_output_adapter@_W@__crt_stdio_output@@V?$positional_parameter_base@_WV?$string_output_adapter@_W@__crt_stdio_output@@@2@@__crt_stdio_output@@AAE_NXZ 1003af48 f i libucrt:output.obj
 0001:00039f66       ?type_case_p@?$output_processor@_WV?$string_output_adapter@_W@__crt_stdio_output@@V?$standard_base@_WV?$string_output_adapter@_W@__crt_stdio_output@@@2@@__crt_stdio_output@@AAE_NXZ 1003af66 f i libucrt:output.obj
 0001:00039f84       ?type_case_s@?$output_processor@DV?$stream_output_adapter@D@__crt_stdio_output@@V?$format_validation_base@DV?$stream_output_adapter@D@__crt_stdio_output@@@2@@__crt_stdio_output@@AAE_NXZ 1003af84 f i libucrt:output.obj
 0001:0003a011       ?type_case_s@?$output_processor@DV?$stream_output_adapter@D@__crt_stdio_output@@V?$positional_parameter_base@DV?$stream_output_adapter@D@__crt_stdio_output@@@2@@__crt_stdio_output@@AAE_NXZ 1003b011 f i libucrt:output.obj
 0001:0003a0ae       ?type_case_s@?$output_processor@DV?$stream_output_adapter@D@__crt_stdio_output@@V?$standard_base@DV?$stream_output_adapter@D@__crt_stdio_output@@@2@@__crt_stdio_output@@AAE_NXZ 1003b0ae f i libucrt:output.obj
 0001:0003a13b       ?type_case_s@?$output_processor@DV?$string_output_adapter@D@__crt_stdio_output@@V?$format_validation_base@DV?$string_output_adapter@D@__crt_stdio_output@@@2@@__crt_stdio_output@@AAE_NXZ 1003b13b f i libucrt:output.obj
 0001:0003a1c8       ?type_case_s@?$output_processor@DV?$string_output_adapter@D@__crt_stdio_output@@V?$positional_parameter_base@DV?$string_output_adapter@D@__crt_stdio_output@@@2@@__crt_stdio_output@@AAE_NXZ 1003b1c8 f i libucrt:output.obj
 0001:0003a265       ?type_case_s@?$output_processor@DV?$string_output_adapter@D@__crt_stdio_output@@V?$standard_base@DV?$string_output_adapter@D@__crt_stdio_output@@@2@@__crt_stdio_output@@AAE_NXZ 1003b265 f i libucrt:output.obj
 0001:0003a2f2       ?type_case_s@?$output_processor@_WV?$stream_output_adapter@_W@__crt_stdio_output@@V?$format_validation_base@_WV?$stream_output_adapter@_W@__crt_stdio_output@@@2@@__crt_stdio_output@@AAE_NXZ 1003b2f2 f i libucrt:output.obj
 0001:0003a381       ?type_case_s@?$output_processor@_WV?$stream_output_adapter@_W@__crt_stdio_output@@V?$positional_parameter_base@_WV?$stream_output_adapter@_W@__crt_stdio_output@@@2@@__crt_stdio_output@@AAE_NXZ 1003b381 f i libucrt:output.obj
 0001:0003a421       ?type_case_s@?$output_processor@_WV?$stream_output_adapter@_W@__crt_stdio_output@@V?$standard_base@_WV?$stream_output_adapter@_W@__crt_stdio_output@@@2@@__crt_stdio_output@@AAE_NXZ 1003b421 f i libucrt:output.obj
 0001:0003a4b0       ?type_case_s@?$output_processor@_WV?$string_output_adapter@_W@__crt_stdio_output@@V?$format_validation_base@_WV?$string_output_adapter@_W@__crt_stdio_output@@@2@@__crt_stdio_output@@AAE_NXZ 1003b4b0 f i libucrt:output.obj
 0001:0003a53f       ?type_case_s@?$output_processor@_WV?$string_output_adapter@_W@__crt_stdio_output@@V?$positional_parameter_base@_WV?$string_output_adapter@_W@__crt_stdio_output@@@2@@__crt_stdio_output@@AAE_NXZ 1003b53f f i libucrt:output.obj
 0001:0003a5df       ?type_case_s@?$output_processor@_WV?$string_output_adapter@_W@__crt_stdio_output@@V?$standard_base@_WV?$string_output_adapter@_W@__crt_stdio_output@@@2@@__crt_stdio_output@@AAE_NXZ 1003b5df f i libucrt:output.obj
 0001:0003a66e       ?type_case_s_compute_narrow_string_length@?$output_processor@DV?$stream_output_adapter@D@__crt_stdio_output@@V?$format_validation_base@DV?$stream_output_adapter@D@__crt_stdio_output@@@2@@__crt_stdio_output@@ABEHHD@Z 1003b66e f i libucrt:output.obj
 0001:0003a689       ?type_case_s_compute_narrow_string_length@?$output_processor@DV?$stream_output_adapter@D@__crt_stdio_output@@V?$positional_parameter_base@DV?$stream_output_adapter@D@__crt_stdio_output@@@2@@__crt_stdio_output@@ABEHHD@Z 1003b689 f i libucrt:output.obj
 0001:0003a6a4       ?type_case_s_compute_narrow_string_length@?$output_processor@DV?$stream_output_adapter@D@__crt_stdio_output@@V?$standard_base@DV?$stream_output_adapter@D@__crt_stdio_output@@@2@@__crt_stdio_output@@ABEHHD@Z 1003b6a4 f i libucrt:output.obj
 0001:0003a6bf       ?type_case_s_compute_narrow_string_length@?$output_processor@DV?$string_output_adapter@D@__crt_stdio_output@@V?$format_validation_base@DV?$string_output_adapter@D@__crt_stdio_output@@@2@@__crt_stdio_output@@ABEHHD@Z 1003b6bf f i libucrt:output.obj
 0001:0003a6da       ?type_case_s_compute_narrow_string_length@?$output_processor@DV?$string_output_adapter@D@__crt_stdio_output@@V?$positional_parameter_base@DV?$string_output_adapter@D@__crt_stdio_output@@@2@@__crt_stdio_output@@ABEHHD@Z 1003b6da f i libucrt:output.obj
 0001:0003a6f5       ?type_case_s_compute_narrow_string_length@?$output_processor@DV?$string_output_adapter@D@__crt_stdio_output@@V?$standard_base@DV?$string_output_adapter@D@__crt_stdio_output@@@2@@__crt_stdio_output@@ABEHHD@Z 1003b6f5 f i libucrt:output.obj
 0001:0003a710       ?type_case_s_compute_narrow_string_length@?$output_processor@_WV?$stream_output_adapter@_W@__crt_stdio_output@@V?$format_validation_base@_WV?$stream_output_adapter@_W@__crt_stdio_output@@@2@@__crt_stdio_output@@ABEHH_W@Z 1003b710 f i libucrt:output.obj
 0001:0003a75c       ?type_case_s_compute_narrow_string_length@?$output_processor@_WV?$stream_output_adapter@_W@__crt_stdio_output@@V?$positional_parameter_base@_WV?$stream_output_adapter@_W@__crt_stdio_output@@@2@@__crt_stdio_output@@ABEHH_W@Z 1003b75c f i libucrt:output.obj
 0001:0003a7a8       ?type_case_s_compute_narrow_string_length@?$output_processor@_WV?$stream_output_adapter@_W@__crt_stdio_output@@V?$standard_base@_WV?$stream_output_adapter@_W@__crt_stdio_output@@@2@@__crt_stdio_output@@ABEHH_W@Z 1003b7a8 f i libucrt:output.obj
 0001:0003a7f4       ?type_case_s_compute_narrow_string_length@?$output_processor@_WV?$string_output_adapter@_W@__crt_stdio_output@@V?$format_validation_base@_WV?$string_output_adapter@_W@__crt_stdio_output@@@2@@__crt_stdio_output@@ABEHH_W@Z 1003b7f4 f i libucrt:output.obj
 0001:0003a840       ?type_case_s_compute_narrow_string_length@?$output_processor@_WV?$string_output_adapter@_W@__crt_stdio_output@@V?$positional_parameter_base@_WV?$string_output_adapter@_W@__crt_stdio_output@@@2@@__crt_stdio_output@@ABEHH_W@Z 1003b840 f i libucrt:output.obj
 0001:0003a88c       ?type_case_s_compute_narrow_string_length@?$output_processor@_WV?$string_output_adapter@_W@__crt_stdio_output@@V?$standard_base@_WV?$string_output_adapter@_W@__crt_stdio_output@@@2@@__crt_stdio_output@@ABEHH_W@Z 1003b88c f i libucrt:output.obj
 0001:0003a8d8       ?type_case_u@?$output_processor@DV?$stream_output_adapter@D@__crt_stdio_output@@V?$format_validation_base@DV?$stream_output_adapter@D@__crt_stdio_output@@@2@@__crt_stdio_output@@AAE_NXZ 1003b8d8 f i libucrt:output.obj
 0001:0003a8e4       ?type_case_u@?$output_processor@DV?$stream_output_adapter@D@__crt_stdio_output@@V?$positional_parameter_base@DV?$stream_output_adapter@D@__crt_stdio_output@@@2@@__crt_stdio_output@@AAE_NXZ 1003b8e4 f i libucrt:output.obj
 0001:0003a8f0       ?type_case_u@?$output_processor@DV?$stream_output_adapter@D@__crt_stdio_output@@V?$standard_base@DV?$stream_output_adapter@D@__crt_stdio_output@@@2@@__crt_stdio_output@@AAE_NXZ 1003b8f0 f i libucrt:output.obj
 0001:0003a8fc       ?type_case_u@?$output_processor@DV?$string_output_adapter@D@__crt_stdio_output@@V?$format_validation_base@DV?$string_output_adapter@D@__crt_stdio_output@@@2@@__crt_stdio_output@@AAE_NXZ 1003b8fc f i libucrt:output.obj
 0001:0003a908       ?type_case_u@?$output_processor@DV?$string_output_adapter@D@__crt_stdio_output@@V?$positional_parameter_base@DV?$string_output_adapter@D@__crt_stdio_output@@@2@@__crt_stdio_output@@AAE_NXZ 1003b908 f i libucrt:output.obj
 0001:0003a914       ?type_case_u@?$output_processor@DV?$string_output_adapter@D@__crt_stdio_output@@V?$standard_base@DV?$string_output_adapter@D@__crt_stdio_output@@@2@@__crt_stdio_output@@AAE_NXZ 1003b914 f i libucrt:output.obj
 0001:0003a920       ?type_case_u@?$output_processor@_WV?$stream_output_adapter@_W@__crt_stdio_output@@V?$format_validation_base@_WV?$stream_output_adapter@_W@__crt_stdio_output@@@2@@__crt_stdio_output@@AAE_NXZ 1003b920 f i libucrt:output.obj
 0001:0003a92c       ?type_case_u@?$output_processor@_WV?$stream_output_adapter@_W@__crt_stdio_output@@V?$positional_parameter_base@_WV?$stream_output_adapter@_W@__crt_stdio_output@@@2@@__crt_stdio_output@@AAE_NXZ 1003b92c f i libucrt:output.obj
 0001:0003a938       ?type_case_u@?$output_processor@_WV?$stream_output_adapter@_W@__crt_stdio_output@@V?$standard_base@_WV?$stream_output_adapter@_W@__crt_stdio_output@@@2@@__crt_stdio_output@@AAE_NXZ 1003b938 f i libucrt:output.obj
 0001:0003a944       ?type_case_u@?$output_processor@_WV?$string_output_adapter@_W@__crt_stdio_output@@V?$format_validation_base@_WV?$string_output_adapter@_W@__crt_stdio_output@@@2@@__crt_stdio_output@@AAE_NXZ 1003b944 f i libucrt:output.obj
 0001:0003a950       ?type_case_u@?$output_processor@_WV?$string_output_adapter@_W@__crt_stdio_output@@V?$positional_parameter_base@_WV?$string_output_adapter@_W@__crt_stdio_output@@@2@@__crt_stdio_output@@AAE_NXZ 1003b950 f i libucrt:output.obj
 0001:0003a95c       ?type_case_u@?$output_processor@_WV?$string_output_adapter@_W@__crt_stdio_output@@V?$standard_base@_WV?$string_output_adapter@_W@__crt_stdio_output@@@2@@__crt_stdio_output@@AAE_NXZ 1003b95c f i libucrt:output.obj
 0001:0003a968       ?type_case_x@?$output_processor@DV?$stream_output_adapter@D@__crt_stdio_output@@V?$format_validation_base@DV?$stream_output_adapter@D@__crt_stdio_output@@@2@@__crt_stdio_output@@AAE_NXZ 1003b968 f i libucrt:output.obj
 0001:0003a974       ?type_case_x@?$output_processor@DV?$stream_output_adapter@D@__crt_stdio_output@@V?$positional_parameter_base@DV?$stream_output_adapter@D@__crt_stdio_output@@@2@@__crt_stdio_output@@AAE_NXZ 1003b974 f i libucrt:output.obj
 0001:0003a980       ?type_case_x@?$output_processor@DV?$stream_output_adapter@D@__crt_stdio_output@@V?$standard_base@DV?$stream_output_adapter@D@__crt_stdio_output@@@2@@__crt_stdio_output@@AAE_NXZ 1003b980 f i libucrt:output.obj
 0001:0003a98c       ?type_case_x@?$output_processor@DV?$string_output_adapter@D@__crt_stdio_output@@V?$format_validation_base@DV?$string_output_adapter@D@__crt_stdio_output@@@2@@__crt_stdio_output@@AAE_NXZ 1003b98c f i libucrt:output.obj
 0001:0003a998       ?type_case_x@?$output_processor@DV?$string_output_adapter@D@__crt_stdio_output@@V?$positional_parameter_base@DV?$string_output_adapter@D@__crt_stdio_output@@@2@@__crt_stdio_output@@AAE_NXZ 1003b998 f i libucrt:output.obj
 0001:0003a9a4       ?type_case_x@?$output_processor@DV?$string_output_adapter@D@__crt_stdio_output@@V?$standard_base@DV?$string_output_adapter@D@__crt_stdio_output@@@2@@__crt_stdio_output@@AAE_NXZ 1003b9a4 f i libucrt:output.obj
 0001:0003a9b0       ?type_case_x@?$output_processor@_WV?$stream_output_adapter@_W@__crt_stdio_output@@V?$format_validation_base@_WV?$stream_output_adapter@_W@__crt_stdio_output@@@2@@__crt_stdio_output@@AAE_NXZ 1003b9b0 f i libucrt:output.obj
 0001:0003a9bc       ?type_case_x@?$output_processor@_WV?$stream_output_adapter@_W@__crt_stdio_output@@V?$positional_parameter_base@_WV?$stream_output_adapter@_W@__crt_stdio_output@@@2@@__crt_stdio_output@@AAE_NXZ 1003b9bc f i libucrt:output.obj
 0001:0003a9c8       ?type_case_x@?$output_processor@_WV?$stream_output_adapter@_W@__crt_stdio_output@@V?$standard_base@_WV?$stream_output_adapter@_W@__crt_stdio_output@@@2@@__crt_stdio_output@@AAE_NXZ 1003b9c8 f i libucrt:output.obj
 0001:0003a9d4       ?type_case_x@?$output_processor@_WV?$string_output_adapter@_W@__crt_stdio_output@@V?$format_validation_base@_WV?$string_output_adapter@_W@__crt_stdio_output@@@2@@__crt_stdio_output@@AAE_NXZ 1003b9d4 f i libucrt:output.obj
 0001:0003a9e0       ?type_case_x@?$output_processor@_WV?$string_output_adapter@_W@__crt_stdio_output@@V?$positional_parameter_base@_WV?$string_output_adapter@_W@__crt_stdio_output@@@2@@__crt_stdio_output@@AAE_NXZ 1003b9e0 f i libucrt:output.obj
 0001:0003a9ec       ?type_case_x@?$output_processor@_WV?$string_output_adapter@_W@__crt_stdio_output@@V?$standard_base@_WV?$string_output_adapter@_W@__crt_stdio_output@@@2@@__crt_stdio_output@@AAE_NXZ 1003b9ec f i libucrt:output.obj
 0001:0003a9f8       ?unset_flag@?$output_processor@DV?$stream_output_adapter@D@__crt_stdio_output@@V?$format_validation_base@DV?$stream_output_adapter@D@__crt_stdio_output@@@2@@__crt_stdio_output@@AAEXI@Z 1003b9f8 f i libucrt:output.obj
 0001:0003aa0d       ?unset_flag@?$output_processor@DV?$stream_output_adapter@D@__crt_stdio_output@@V?$positional_parameter_base@DV?$stream_output_adapter@D@__crt_stdio_output@@@2@@__crt_stdio_output@@AAEXI@Z 1003ba0d f i libucrt:output.obj
 0001:0003aa22       ?unset_flag@?$output_processor@DV?$stream_output_adapter@D@__crt_stdio_output@@V?$standard_base@DV?$stream_output_adapter@D@__crt_stdio_output@@@2@@__crt_stdio_output@@AAEXI@Z 1003ba22 f i libucrt:output.obj
 0001:0003aa37       ?unset_flag@?$output_processor@DV?$string_output_adapter@D@__crt_stdio_output@@V?$format_validation_base@DV?$string_output_adapter@D@__crt_stdio_output@@@2@@__crt_stdio_output@@AAEXI@Z 1003ba37 f i libucrt:output.obj
 0001:0003aa4c       ?unset_flag@?$output_processor@DV?$string_output_adapter@D@__crt_stdio_output@@V?$positional_parameter_base@DV?$string_output_adapter@D@__crt_stdio_output@@@2@@__crt_stdio_output@@AAEXI@Z 1003ba4c f i libucrt:output.obj
 0001:0003aa61       ?unset_flag@?$output_processor@DV?$string_output_adapter@D@__crt_stdio_output@@V?$standard_base@DV?$string_output_adapter@D@__crt_stdio_output@@@2@@__crt_stdio_output@@AAEXI@Z 1003ba61 f i libucrt:output.obj
 0001:0003aa76       ?unset_flag@?$output_processor@_WV?$stream_output_adapter@_W@__crt_stdio_output@@V?$format_validation_base@_WV?$stream_output_adapter@_W@__crt_stdio_output@@@2@@__crt_stdio_output@@AAEXI@Z 1003ba76 f i libucrt:output.obj
 0001:0003aa8b       ?unset_flag@?$output_processor@_WV?$stream_output_adapter@_W@__crt_stdio_output@@V?$positional_parameter_base@_WV?$stream_output_adapter@_W@__crt_stdio_output@@@2@@__crt_stdio_output@@AAEXI@Z 1003ba8b f i libucrt:output.obj
 0001:0003aaa0       ?unset_flag@?$output_processor@_WV?$stream_output_adapter@_W@__crt_stdio_output@@V?$standard_base@_WV?$stream_output_adapter@_W@__crt_stdio_output@@@2@@__crt_stdio_output@@AAEXI@Z 1003baa0 f i libucrt:output.obj
 0001:0003aab5       ?unset_flag@?$output_processor@_WV?$string_output_adapter@_W@__crt_stdio_output@@V?$format_validation_base@_WV?$string_output_adapter@_W@__crt_stdio_output@@@2@@__crt_stdio_output@@AAEXI@Z 1003bab5 f i libucrt:output.obj
 0001:0003aaca       ?unset_flag@?$output_processor@_WV?$string_output_adapter@_W@__crt_stdio_output@@V?$positional_parameter_base@_WV?$string_output_adapter@_W@__crt_stdio_output@@@2@@__crt_stdio_output@@AAEXI@Z 1003baca f i libucrt:output.obj
 0001:0003aadf       ?unset_flag@?$output_processor@_WV?$string_output_adapter@_W@__crt_stdio_output@@V?$standard_base@_WV?$string_output_adapter@_W@__crt_stdio_output@@@2@@__crt_stdio_output@@AAEXI@Z 1003badf f i libucrt:output.obj
 0001:0003aaf4       ?update_field_width@?$positional_parameter_base@DV?$stream_output_adapter@D@__crt_stdio_output@@@__crt_stdio_output@@IAE_NXZ 1003baf4 f i libucrt:output.obj
 0001:0003abd7       ?update_field_width@?$positional_parameter_base@DV?$string_output_adapter@D@__crt_stdio_output@@@__crt_stdio_output@@IAE_NXZ 1003bbd7 f i libucrt:output.obj
 0001:0003acba       ?update_field_width@?$positional_parameter_base@_WV?$stream_output_adapter@_W@__crt_stdio_output@@@__crt_stdio_output@@IAE_NXZ 1003bcba f i libucrt:output.obj
 0001:0003ad9e       ?update_field_width@?$positional_parameter_base@_WV?$string_output_adapter@_W@__crt_stdio_output@@@__crt_stdio_output@@IAE_NXZ 1003bd9e f i libucrt:output.obj
 0001:0003ae82       ?update_field_width@?$standard_base@DV?$stream_output_adapter@D@__crt_stdio_output@@@__crt_stdio_output@@IAE_NXZ 1003be82 f i libucrt:output.obj
 0001:0003ae96       ?update_field_width@?$standard_base@DV?$string_output_adapter@D@__crt_stdio_output@@@__crt_stdio_output@@IAE_NXZ 1003be96 f i libucrt:output.obj
 0001:0003aeaa       ?update_field_width@?$standard_base@_WV?$stream_output_adapter@_W@__crt_stdio_output@@@__crt_stdio_output@@IAE_NXZ 1003beaa f i libucrt:output.obj
 0001:0003aebe       ?update_field_width@?$standard_base@_WV?$string_output_adapter@_W@__crt_stdio_output@@@__crt_stdio_output@@IAE_NXZ 1003bebe f i libucrt:output.obj
 0001:0003aed2       ?update_precision@?$positional_parameter_base@DV?$stream_output_adapter@D@__crt_stdio_output@@@__crt_stdio_output@@IAE_NXZ 1003bed2 f i libucrt:output.obj
 0001:0003afb5       ?update_precision@?$positional_parameter_base@DV?$string_output_adapter@D@__crt_stdio_output@@@__crt_stdio_output@@IAE_NXZ 1003bfb5 f i libucrt:output.obj
 0001:0003b098       ?update_precision@?$positional_parameter_base@_WV?$stream_output_adapter@_W@__crt_stdio_output@@@__crt_stdio_output@@IAE_NXZ 1003c098 f i libucrt:output.obj
 0001:0003b17c       ?update_precision@?$positional_parameter_base@_WV?$string_output_adapter@_W@__crt_stdio_output@@@__crt_stdio_output@@IAE_NXZ 1003c17c f i libucrt:output.obj
 0001:0003b260       ?update_precision@?$standard_base@DV?$stream_output_adapter@D@__crt_stdio_output@@@__crt_stdio_output@@IAE_NXZ 1003c260 f i libucrt:output.obj
 0001:0003b274       ?update_precision@?$standard_base@DV?$string_output_adapter@D@__crt_stdio_output@@@__crt_stdio_output@@IAE_NXZ 1003c274 f i libucrt:output.obj
 0001:0003b288       ?update_precision@?$standard_base@_WV?$stream_output_adapter@_W@__crt_stdio_output@@@__crt_stdio_output@@IAE_NXZ 1003c288 f i libucrt:output.obj
 0001:0003b29c       ?update_precision@?$standard_base@_WV?$string_output_adapter@_W@__crt_stdio_output@@@__crt_stdio_output@@IAE_NXZ 1003c29c f i libucrt:output.obj
 0001:0003b2b0       ?validate@?$stream_output_adapter@D@__crt_stdio_output@@QBE_NXZ 1003c2b0 f i libucrt:output.obj
 0001:0003b2d9       ?validate@?$stream_output_adapter@_W@__crt_stdio_output@@QBE_NXZ 1003c2d9 f i libucrt:output.obj
 0001:0003b2fa       ?validate@?$string_output_adapter@D@__crt_stdio_output@@QBE_NXZ 1003c2fa f i libucrt:output.obj
 0001:0003b31b       ?validate@?$string_output_adapter@_W@__crt_stdio_output@@QBE_NXZ 1003c31b f i libucrt:output.obj
 0001:0003b33c       ?validate_and_store_parameter_data@?$positional_parameter_base@DV?$stream_output_adapter@D@__crt_stdio_output@@@__crt_stdio_output@@AAE_NAAUparameter_data@12@W4parameter_type@12@DW4length_modifier@2@@Z 1003c33c f i libucrt:output.obj
 0001:0003b399       ?validate_and_store_parameter_data@?$positional_parameter_base@DV?$string_output_adapter@D@__crt_stdio_output@@@__crt_stdio_output@@AAE_NAAUparameter_data@12@W4parameter_type@12@DW4length_modifier@2@@Z 1003c399 f i libucrt:output.obj
 0001:0003b3f6       ?validate_and_store_parameter_data@?$positional_parameter_base@_WV?$stream_output_adapter@_W@__crt_stdio_output@@@__crt_stdio_output@@AAE_NAAUparameter_data@12@W4parameter_type@12@_WW4length_modifier@2@@Z 1003c3f6 f i libucrt:output.obj
 0001:0003b456       ?validate_and_store_parameter_data@?$positional_parameter_base@_WV?$string_output_adapter@_W@__crt_stdio_output@@@__crt_stdio_output@@AAE_NAAUparameter_data@12@W4parameter_type@12@_WW4length_modifier@2@@Z 1003c456 f i libucrt:output.obj
 0001:0003b4b6       ?validate_and_update_state_at_beginning_of_format_character@?$positional_parameter_base@DV?$stream_output_adapter@D@__crt_stdio_output@@@__crt_stdio_output@@IAE_NXZ 1003c4b6 f i libucrt:output.obj
 0001:0003b5ee       ?validate_and_update_state_at_beginning_of_format_character@?$positional_parameter_base@DV?$string_output_adapter@D@__crt_stdio_output@@@__crt_stdio_output@@IAE_NXZ 1003c5ee f i libucrt:output.obj
 0001:0003b726       ?validate_and_update_state_at_beginning_of_format_character@?$positional_parameter_base@_WV?$stream_output_adapter@_W@__crt_stdio_output@@@__crt_stdio_output@@IAE_NXZ 1003c726 f i libucrt:output.obj
 0001:0003b869       ?validate_and_update_state_at_beginning_of_format_character@?$positional_parameter_base@_WV?$string_output_adapter@_W@__crt_stdio_output@@@__crt_stdio_output@@IAE_NXZ 1003c869 f i libucrt:output.obj
 0001:0003b9ac       ?validate_and_update_state_at_beginning_of_format_character@?$standard_base@DV?$stream_output_adapter@D@__crt_stdio_output@@@__crt_stdio_output@@IAE_NXZ 1003c9ac f i libucrt:output.obj
 0001:0003b9af       ?validate_and_update_state_at_beginning_of_format_character@?$standard_base@DV?$string_output_adapter@D@__crt_stdio_output@@@__crt_stdio_output@@IAE_NXZ 1003c9af f i libucrt:output.obj
 0001:0003b9b2       ?validate_and_update_state_at_beginning_of_format_character@?$standard_base@_WV?$stream_output_adapter@_W@__crt_stdio_output@@@__crt_stdio_output@@IAE_NXZ 1003c9b2 f i libucrt:output.obj
 0001:0003b9b5       ?validate_and_update_state_at_beginning_of_format_character@?$standard_base@_WV?$string_output_adapter@_W@__crt_stdio_output@@@__crt_stdio_output@@IAE_NXZ 1003c9b5 f i libucrt:output.obj
 0001:0003b9b8       ?validate_and_update_state_at_end_of_format_string@?$format_validation_base@DV?$stream_output_adapter@D@__crt_stdio_output@@@__crt_stdio_output@@IBE_NXZ 1003c9b8 f i libucrt:output.obj
 0001:0003b9e2       ?validate_and_update_state_at_end_of_format_string@?$format_validation_base@DV?$string_output_adapter@D@__crt_stdio_output@@@__crt_stdio_output@@IBE_NXZ 1003c9e2 f i libucrt:output.obj
 0001:0003ba0c       ?validate_and_update_state_at_end_of_format_string@?$format_validation_base@_WV?$stream_output_adapter@_W@__crt_stdio_output@@@__crt_stdio_output@@IBE_NXZ 1003ca0c f i libucrt:output.obj
 0001:0003ba36       ?validate_and_update_state_at_end_of_format_string@?$format_validation_base@_WV?$string_output_adapter@_W@__crt_stdio_output@@@__crt_stdio_output@@IBE_NXZ 1003ca36 f i libucrt:output.obj
 0001:0003ba60       ?validate_and_update_state_at_end_of_format_string@?$positional_parameter_base@DV?$stream_output_adapter@D@__crt_stdio_output@@@__crt_stdio_output@@IAE_NXZ 1003ca60 f i libucrt:output.obj
 0001:0003bb06       ?validate_and_update_state_at_end_of_format_string@?$positional_parameter_base@DV?$string_output_adapter@D@__crt_stdio_output@@@__crt_stdio_output@@IAE_NXZ 1003cb06 f i libucrt:output.obj
 0001:0003bbac       ?validate_and_update_state_at_end_of_format_string@?$positional_parameter_base@_WV?$stream_output_adapter@_W@__crt_stdio_output@@@__crt_stdio_output@@IAE_NXZ 1003cbac f i libucrt:output.obj
 0001:0003bc52       ?validate_and_update_state_at_end_of_format_string@?$positional_parameter_base@_WV?$string_output_adapter@_W@__crt_stdio_output@@@__crt_stdio_output@@IAE_NXZ 1003cc52 f i libucrt:output.obj
 0001:0003bcf8       ?validate_and_update_state_at_end_of_format_string@?$standard_base@DV?$stream_output_adapter@D@__crt_stdio_output@@@__crt_stdio_output@@IBE_NXZ 1003ccf8 f i libucrt:output.obj
 0001:0003bcfb       ?validate_and_update_state_at_end_of_format_string@?$standard_base@DV?$string_output_adapter@D@__crt_stdio_output@@@__crt_stdio_output@@IBE_NXZ 1003ccfb f i libucrt:output.obj
 0001:0003bcfe       ?validate_and_update_state_at_end_of_format_string@?$standard_base@_WV?$stream_output_adapter@_W@__crt_stdio_output@@@__crt_stdio_output@@IBE_NXZ 1003ccfe f i libucrt:output.obj
 0001:0003bd01       ?validate_and_update_state_at_end_of_format_string@?$standard_base@_WV?$string_output_adapter@_W@__crt_stdio_output@@@__crt_stdio_output@@IBE_NXZ 1003cd01 f i libucrt:output.obj
 0001:0003bd04       ?validate_state_for_type_case_a@?$positional_parameter_base@DV?$stream_output_adapter@D@__crt_stdio_output@@@__crt_stdio_output@@IAE_NXZ 1003cd04 f i libucrt:output.obj
 0001:0003bd66       ?validate_state_for_type_case_a@?$positional_parameter_base@DV?$string_output_adapter@D@__crt_stdio_output@@@__crt_stdio_output@@IAE_NXZ 1003cd66 f i libucrt:output.obj
 0001:0003bdc8       ?validate_state_for_type_case_a@?$positional_parameter_base@_WV?$stream_output_adapter@_W@__crt_stdio_output@@@__crt_stdio_output@@IAE_NXZ 1003cdc8 f i libucrt:output.obj
 0001:0003be2a       ?validate_state_for_type_case_a@?$positional_parameter_base@_WV?$string_output_adapter@_W@__crt_stdio_output@@@__crt_stdio_output@@IAE_NXZ 1003ce2a f i libucrt:output.obj
 0001:0003be8c       ?validate_state_for_type_case_a@?$standard_base@DV?$stream_output_adapter@D@__crt_stdio_output@@@__crt_stdio_output@@IBE_NXZ 1003ce8c f i libucrt:output.obj
 0001:0003be8f       ?validate_state_for_type_case_a@?$standard_base@DV?$string_output_adapter@D@__crt_stdio_output@@@__crt_stdio_output@@IBE_NXZ 1003ce8f f i libucrt:output.obj
 0001:0003be92       ?validate_state_for_type_case_a@?$standard_base@_WV?$stream_output_adapter@_W@__crt_stdio_output@@@__crt_stdio_output@@IBE_NXZ 1003ce92 f i libucrt:output.obj
 0001:0003be95       ?validate_state_for_type_case_a@?$standard_base@_WV?$string_output_adapter@_W@__crt_stdio_output@@@__crt_stdio_output@@IBE_NXZ 1003ce95 f i libucrt:output.obj
 0001:0003be98       ?validate_stream_is_ansi_if_required@?$__acrt_stdio_char_traits@D@@SA_NQAU_iobuf@@@Z 1003ce98 f i libucrt:output.obj
 0001:0003bf3f       ?validate_stream_is_ansi_if_required@?$__acrt_stdio_char_traits@_W@@SA_NQAU_iobuf@@@Z 1003cf3f f i libucrt:output.obj
 0001:0003bf42       ?wide_null_string@?$output_processor@DV?$stream_output_adapter@D@__crt_stdio_output@@V?$format_validation_base@DV?$stream_output_adapter@D@__crt_stdio_output@@@2@@__crt_stdio_output@@CAPA_WXZ 1003cf42 f i libucrt:output.obj
 0001:0003bf48       ?wide_null_string@?$output_processor@DV?$stream_output_adapter@D@__crt_stdio_output@@V?$positional_parameter_base@DV?$stream_output_adapter@D@__crt_stdio_output@@@2@@__crt_stdio_output@@CAPA_WXZ 1003cf48 f i libucrt:output.obj
 0001:0003bf4e       ?wide_null_string@?$output_processor@DV?$stream_output_adapter@D@__crt_stdio_output@@V?$standard_base@DV?$stream_output_adapter@D@__crt_stdio_output@@@2@@__crt_stdio_output@@CAPA_WXZ 1003cf4e f i libucrt:output.obj
 0001:0003bf54       ?wide_null_string@?$output_processor@DV?$string_output_adapter@D@__crt_stdio_output@@V?$format_validation_base@DV?$string_output_adapter@D@__crt_stdio_output@@@2@@__crt_stdio_output@@CAPA_WXZ 1003cf54 f i libucrt:output.obj
 0001:0003bf5a       ?wide_null_string@?$output_processor@DV?$string_output_adapter@D@__crt_stdio_output@@V?$positional_parameter_base@DV?$string_output_adapter@D@__crt_stdio_output@@@2@@__crt_stdio_output@@CAPA_WXZ 1003cf5a f i libucrt:output.obj
 0001:0003bf60       ?wide_null_string@?$output_processor@DV?$string_output_adapter@D@__crt_stdio_output@@V?$standard_base@DV?$string_output_adapter@D@__crt_stdio_output@@@2@@__crt_stdio_output@@CAPA_WXZ 1003cf60 f i libucrt:output.obj
 0001:0003bf66       ?wide_null_string@?$output_processor@_WV?$stream_output_adapter@_W@__crt_stdio_output@@V?$format_validation_base@_WV?$stream_output_adapter@_W@__crt_stdio_output@@@2@@__crt_stdio_output@@CAPA_WXZ 1003cf66 f i libucrt:output.obj
 0001:0003bf6c       ?wide_null_string@?$output_processor@_WV?$stream_output_adapter@_W@__crt_stdio_output@@V?$positional_parameter_base@_WV?$stream_output_adapter@_W@__crt_stdio_output@@@2@@__crt_stdio_output@@CAPA_WXZ 1003cf6c f i libucrt:output.obj
 0001:0003bf72       ?wide_null_string@?$output_processor@_WV?$stream_output_adapter@_W@__crt_stdio_output@@V?$standard_base@_WV?$stream_output_adapter@_W@__crt_stdio_output@@@2@@__crt_stdio_output@@CAPA_WXZ 1003cf72 f i libucrt:output.obj
 0001:0003bf78       ?wide_null_string@?$output_processor@_WV?$string_output_adapter@_W@__crt_stdio_output@@V?$format_validation_base@_WV?$string_output_adapter@_W@__crt_stdio_output@@@2@@__crt_stdio_output@@CAPA_WXZ 1003cf78 f i libucrt:output.obj
 0001:0003bf7e       ?wide_null_string@?$output_processor@_WV?$string_output_adapter@_W@__crt_stdio_output@@V?$positional_parameter_base@_WV?$string_output_adapter@_W@__crt_stdio_output@@@2@@__crt_stdio_output@@CAPA_WXZ 1003cf7e f i libucrt:output.obj
 0001:0003bf84       ?wide_null_string@?$output_processor@_WV?$string_output_adapter@_W@__crt_stdio_output@@V?$standard_base@_WV?$string_output_adapter@_W@__crt_stdio_output@@@2@@__crt_stdio_output@@CAPA_WXZ 1003cf84 f i libucrt:output.obj
 0001:0003bf8a       ?write_character@?$output_adapter_common@DV?$stream_output_adapter@D@__crt_stdio_output@@@__crt_stdio_output@@QBEXDQAH@Z 1003cf8a f i libucrt:output.obj
 0001:0003bfb0       ?write_character@?$output_adapter_common@_WV?$stream_output_adapter@_W@__crt_stdio_output@@@__crt_stdio_output@@QBEX_WQAH@Z 1003cfb0 f i libucrt:output.obj
 0001:0003bfd6       ?write_character@?$string_output_adapter@D@__crt_stdio_output@@QBE_NDQAH@Z 1003cfd6 f i libucrt:output.obj
 0001:0003c028       ?write_character@?$string_output_adapter@_W@__crt_stdio_output@@QBE_N_WQAH@Z 1003d028 f i libucrt:output.obj
 0001:0003c07e       ?write_character_without_count_update@?$stream_output_adapter@D@__crt_stdio_output@@QBE_ND@Z 1003d07e f i libucrt:output.obj
 0001:0003c0c0       ?write_character_without_count_update@?$stream_output_adapter@_W@__crt_stdio_output@@QBE_N_W@Z 1003d0c0 f i libucrt:output.obj
 0001:0003c106       ?write_stored_string_tchar@?$output_processor@DV?$stream_output_adapter@D@__crt_stdio_output@@V?$format_validation_base@DV?$stream_output_adapter@D@__crt_stdio_output@@@2@@__crt_stdio_output@@AAE_ND@Z 1003d106 f i libucrt:output.obj
 0001:0003c1d9       ?write_stored_string_tchar@?$output_processor@DV?$stream_output_adapter@D@__crt_stdio_output@@V?$positional_parameter_base@DV?$stream_output_adapter@D@__crt_stdio_output@@@2@@__crt_stdio_output@@AAE_ND@Z 1003d1d9 f i libucrt:output.obj
 0001:0003c2ac       ?write_stored_string_tchar@?$output_processor@DV?$stream_output_adapter@D@__crt_stdio_output@@V?$standard_base@DV?$stream_output_adapter@D@__crt_stdio_output@@@2@@__crt_stdio_output@@AAE_ND@Z 1003d2ac f i libucrt:output.obj
 0001:0003c37f       ?write_stored_string_tchar@?$output_processor@DV?$string_output_adapter@D@__crt_stdio_output@@V?$format_validation_base@DV?$string_output_adapter@D@__crt_stdio_output@@@2@@__crt_stdio_output@@AAE_ND@Z 1003d37f f i libucrt:output.obj
 0001:0003c452       ?write_stored_string_tchar@?$output_processor@DV?$string_output_adapter@D@__crt_stdio_output@@V?$positional_parameter_base@DV?$string_output_adapter@D@__crt_stdio_output@@@2@@__crt_stdio_output@@AAE_ND@Z 1003d452 f i libucrt:output.obj
 0001:0003c525       ?write_stored_string_tchar@?$output_processor@DV?$string_output_adapter@D@__crt_stdio_output@@V?$standard_base@DV?$string_output_adapter@D@__crt_stdio_output@@@2@@__crt_stdio_output@@AAE_ND@Z 1003d525 f i libucrt:output.obj
 0001:0003c5f8       ?write_stored_string_tchar@?$output_processor@_WV?$stream_output_adapter@_W@__crt_stdio_output@@V?$format_validation_base@_WV?$stream_output_adapter@_W@__crt_stdio_output@@@2@@__crt_stdio_output@@AAE_N_W@Z 1003d5f8 f i libucrt:output.obj
 0001:0003c6b2       ?write_stored_string_tchar@?$output_processor@_WV?$stream_output_adapter@_W@__crt_stdio_output@@V?$positional_parameter_base@_WV?$stream_output_adapter@_W@__crt_stdio_output@@@2@@__crt_stdio_output@@AAE_N_W@Z 1003d6b2 f i libucrt:output.obj
 0001:0003c76c       ?write_stored_string_tchar@?$output_processor@_WV?$stream_output_adapter@_W@__crt_stdio_output@@V?$standard_base@_WV?$stream_output_adapter@_W@__crt_stdio_output@@@2@@__crt_stdio_output@@AAE_N_W@Z 1003d76c f i libucrt:output.obj
 0001:0003c826       ?write_stored_string_tchar@?$output_processor@_WV?$string_output_adapter@_W@__crt_stdio_output@@V?$format_validation_base@_WV?$string_output_adapter@_W@__crt_stdio_output@@@2@@__crt_stdio_output@@AAE_N_W@Z 1003d826 f i libucrt:output.obj
 0001:0003c8e0       ?write_stored_string_tchar@?$output_processor@_WV?$string_output_adapter@_W@__crt_stdio_output@@V?$positional_parameter_base@_WV?$string_output_adapter@_W@__crt_stdio_output@@@2@@__crt_stdio_output@@AAE_N_W@Z 1003d8e0 f i libucrt:output.obj
 0001:0003c99a       ?write_stored_string_tchar@?$output_processor@_WV?$string_output_adapter@_W@__crt_stdio_output@@V?$standard_base@_WV?$string_output_adapter@_W@__crt_stdio_output@@@2@@__crt_stdio_output@@AAE_N_W@Z 1003d99a f i libucrt:output.obj
 0001:0003ca54       ?write_string@?$stream_output_adapter@D@__crt_stdio_output@@QBEXQBDHQAHAAV__crt_deferred_errno_cache@@@Z 1003da54 f i libucrt:output.obj
 0001:0003ca89       ?write_string@?$stream_output_adapter@_W@__crt_stdio_output@@QBEXQB_WHQAHAAV__crt_deferred_errno_cache@@@Z 1003da89 f i libucrt:output.obj
 0001:0003cabe       ?write_string@?$string_output_adapter@D@__crt_stdio_output@@QBEXQBDHQAHAAV__crt_deferred_errno_cache@@@Z 1003dabe f i libucrt:output.obj
 0001:0003cb3e       ?write_string@?$string_output_adapter@_W@__crt_stdio_output@@QBEXQB_WHQAHAAV__crt_deferred_errno_cache@@@Z 1003db3e f i libucrt:output.obj
 0001:0003cbcd       ?write_string_impl@?$output_adapter_common@DV?$stream_output_adapter@D@__crt_stdio_output@@@__crt_stdio_output@@IBEXQBDHQAHAAV__crt_deferred_errno_cache@@@Z 1003dbcd f i libucrt:output.obj
 0001:0003cc95       ?write_string_impl@?$output_adapter_common@_WV?$stream_output_adapter@_W@__crt_stdio_output@@@__crt_stdio_output@@IBEXQB_WHQAHAAV__crt_deferred_errno_cache@@@Z 1003dc95 f i libucrt:output.obj
 0001:0003cd60       ___acrt_isleadbyte_l_noupdate 1003dd60 f i libucrt:output.obj
 0001:0003cd81       ___stdio_common_vfprintf   1003dd81 f   libucrt:output.obj
 0001:0003ce27       ___stdio_common_vfprintf_p 1003de27 f   libucrt:output.obj
 0001:0003cecd       ___stdio_common_vfprintf_s 1003decd f   libucrt:output.obj
 0001:0003cf73       ___stdio_common_vfwprintf  1003df73 f   libucrt:output.obj
 0001:0003d019       ___stdio_common_vfwprintf_p 1003e019 f   libucrt:output.obj
 0001:0003d0bf       ___stdio_common_vfwprintf_s 1003e0bf f   libucrt:output.obj
 0001:0003d165       ___stdio_common_vsnprintf_s 1003e165 f   libucrt:output.obj
 0001:0003d195       ___stdio_common_vsnwprintf_s 1003e195 f   libucrt:output.obj
 0001:0003d1c5       ___stdio_common_vsprintf   1003e1c5 f   libucrt:output.obj
 0001:0003d1f2       ___stdio_common_vsprintf_p 1003e1f2 f   libucrt:output.obj
 0001:0003d21f       ___stdio_common_vsprintf_s 1003e21f f   libucrt:output.obj
 0001:0003d24c       ___stdio_common_vswprintf  1003e24c f   libucrt:output.obj
 0001:0003d279       ___stdio_common_vswprintf_p 1003e279 f   libucrt:output.obj
 0001:0003d2a6       ___stdio_common_vswprintf_s 1003e2a6 f   libucrt:output.obj
 0001:0003d2d3       _ldexp                     1003e2d3 f   libucrt:ldexp.obj
 0001:0003d54c       __errcode                  1003e54c f   libucrt:fpexcept.obj
 0001:0003d58d       __except1                  1003e58d f   libucrt:fpexcept.obj
 0001:0003d68e       __except2                  1003e68e f   libucrt:fpexcept.obj
 0001:0003d7d7       __handle_exc               1003e7d7 f   libucrt:fpexcept.obj
 0001:0003da3f       __handle_qnan2             1003ea3f f   libucrt:fpexcept.obj
 0001:0003da4f       __raise_exc                1003ea4f f   libucrt:fpexcept.obj
 0001:0003da7a       __raise_exc_ex             1003ea7a f   libucrt:fpexcept.obj
 0001:0003de2d       __raise_excf               1003ee2d f   libucrt:fpexcept.obj
 0001:0003de58       __set_errno_from_matherr   1003ee58 f   libucrt:fpexcept.obj
 0001:0003de92       __umatherr                 1003ee92 f   libucrt:fpexcept.obj
 0001:0003df5c       __initterm                 1003ef5c f   libucrt:initterm.obj
 0001:0003dfcf       __initterm_e               1003efcf f   libucrt:initterm.obj
 0001:0003e052       __seh_filter_dll           1003f052 f   libucrt:exception_filter.obj
 0001:0003e07a       __seh_filter_exe           1003f07a f   libucrt:exception_filter.obj
 0001:0003e239       ??$?RE@__crt_internal_free_policy@@QBEXQBE@Z 1003f239 f i libucrt:argv_parsing.obj
 0001:0003e24f       ??$?RPAD@__crt_internal_free_policy@@QBEXQBQAD@Z 1003f24f f i libucrt:argv_parsing.obj
 0001:0003e265       ??$?RPA_W@__crt_internal_free_policy@@QBEXQBQA_W@Z 1003f265 f i libucrt:argv_parsing.obj
 0001:0003e57e       ??$get_module_file_name@$$TAAY0BAF@DH@?$__crt_char_traits@D@@SAK$$QA$$TAAY0BAF@D$$QAH@Z 1003f57e f i libucrt:argv_parsing.obj
 0001:0003e5a1       ??$get_module_file_name@$$TAAY0BAF@_WH@?$__crt_char_traits@_W@@SAK$$QA$$TAAY0BAF@_W$$QAH@Z 1003f5a1 f i libucrt:argv_parsing.obj
 0001:0003e994       ??$set_program_name@PAD@?$__crt_char_traits@D@@SAX$$QAPAD@Z 1003f994 f i libucrt:argv_parsing.obj
 0001:0003e9a9       ??$set_program_name@PA_W@?$__crt_char_traits@_W@@SAX$$QAPA_W@Z 1003f9a9 f i libucrt:argv_parsing.obj
 0001:0003e9e6       ??0?$__crt_unique_heap_ptr@EU__crt_internal_free_policy@@@@QAE@QAE@Z 1003f9e6 f i libucrt:argv_parsing.obj
 0001:0003e9fa       ??0?$__crt_unique_heap_ptr@PADU__crt_internal_free_policy@@@@QAE@QAPAD@Z 1003f9fa f i libucrt:argv_parsing.obj
 0001:0003ea0e       ??0?$__crt_unique_heap_ptr@PA_WU__crt_internal_free_policy@@@@QAE@QAPA_W@Z 1003fa0e f i libucrt:argv_parsing.obj
 0001:0003ea22       ??1?$__crt_unique_heap_ptr@EU__crt_internal_free_policy@@@@QAE@XZ 1003fa22 f i libucrt:argv_parsing.obj
 0001:0003ea38       ??1?$__crt_unique_heap_ptr@PADU__crt_internal_free_policy@@@@QAE@XZ 1003fa38 f i libucrt:argv_parsing.obj
 0001:0003ea4e       ??1?$__crt_unique_heap_ptr@PA_WU__crt_internal_free_policy@@@@QAE@XZ 1003fa4e f i libucrt:argv_parsing.obj
 0001:0003ea64       ??B?$__crt_unique_heap_ptr@EU__crt_internal_free_policy@@@@QBE_NXZ 1003fa64 f i libucrt:argv_parsing.obj
 0001:0003eaa1       ?detach@?$__crt_unique_heap_ptr@EU__crt_internal_free_policy@@@@QAEPAEXZ 1003faa1 f i libucrt:argv_parsing.obj
 0001:0003eaa7       ?detach@?$__crt_unique_heap_ptr@PADU__crt_internal_free_policy@@@@QAEPAPADXZ 1003faa7 f i libucrt:argv_parsing.obj
 0001:0003eaad       ?detach@?$__crt_unique_heap_ptr@PA_WU__crt_internal_free_policy@@@@QAEPAPA_WXZ 1003faad f i libucrt:argv_parsing.obj
 0001:0003ead3       ?get@?$__crt_unique_heap_ptr@EU__crt_internal_free_policy@@@@QBEPAEXZ 1003fad3 f i libucrt:argv_parsing.obj
 0001:0003ead6       ?get@?$__crt_unique_heap_ptr@PADU__crt_internal_free_policy@@@@QBEPAPADXZ 1003fad6 f i libucrt:argv_parsing.obj
 0001:0003ead9       ?get@?$__crt_unique_heap_ptr@PA_WU__crt_internal_free_policy@@@@QBEPAPA_WXZ 1003fad9 f i libucrt:argv_parsing.obj
 0001:0003eadc       ?get_address_of@?$__crt_unique_heap_ptr@PADU__crt_internal_free_policy@@@@QAEPAPAPADXZ 1003fadc f i libucrt:argv_parsing.obj
 0001:0003eadf       ?get_address_of@?$__crt_unique_heap_ptr@PA_WU__crt_internal_free_policy@@@@QAEPAPAPA_WXZ 1003fadf f i libucrt:argv_parsing.obj
 0001:0003eafa       ?is_valid@?$__crt_unique_heap_ptr@EU__crt_internal_free_policy@@@@QBE_NXZ 1003fafa f i libucrt:argv_parsing.obj
 0001:0003eb01       ?release@?$__crt_unique_heap_ptr@EU__crt_internal_free_policy@@@@QAEXXZ 1003fb01 f i libucrt:argv_parsing.obj
 0001:0003eb17       ?release@?$__crt_unique_heap_ptr@PADU__crt_internal_free_policy@@@@QAEXXZ 1003fb17 f i libucrt:argv_parsing.obj
 0001:0003eb2d       ?release@?$__crt_unique_heap_ptr@PA_WU__crt_internal_free_policy@@@@QAEXXZ 1003fb2d f i libucrt:argv_parsing.obj
 0001:0003eb62       ___acrt_allocate_buffer_for_argv 1003fb62 f   libucrt:argv_parsing.obj
 0001:0003ebc4       __configure_narrow_argv    1003fbc4 f   libucrt:argv_parsing.obj
 0001:0003ebd1       __configure_wide_argv      1003fbd1 f   libucrt:argv_parsing.obj
 0001:0003ebde       __set_pgmptr               1003fbde f i libucrt:argv_parsing.obj
 0001:0003ebf0       __set_wpgmptr              1003fbf0 f i libucrt:argv_parsing.obj
 0001:0003ec02       ??$?R_W@__crt_internal_free_policy@@QBEXQB_W@Z 1003fc02 f i libucrt:environment_initialization.obj
 0001:0003f0e8       ??$get_environment_from_os@$$V@?$__crt_char_traits@D@@SAPADXZ 100400e8 f i libucrt:environment_initialization.obj
 0001:0003f0ed       ??$get_environment_from_os@$$V@?$__crt_char_traits@_W@@SAPA_WXZ 100400ed f i libucrt:environment_initialization.obj
 0001:0003f23e       ??$set_variable_in_environment_nolock@PADH@?$__crt_char_traits@D@@SAH$$QAPAD$$QAH@Z 1004023e f i libucrt:environment_initialization.obj
 0001:0003f25c       ??$set_variable_in_environment_nolock@PA_WH@?$__crt_char_traits@_W@@SAH$$QAPA_W$$QAH@Z 1004025c f i libucrt:environment_initialization.obj
 0001:0003f27a       ??$tcscpy_s@PADABIAAPAD@?$__crt_char_traits@D@@SAH$$QAPADABIAAPAD@Z 1004027a f i libucrt:environment_initialization.obj
 0001:0003f29f       ??$tcscpy_s@PA_WABIAAPA_W@?$__crt_char_traits@_W@@SAH$$QAPA_WABIAAPA_W@Z 1004029f f i libucrt:environment_initialization.obj
 0001:0003f2c4       ??$tcslen@AAPAD@?$__crt_char_traits@D@@SAIAAPAD@Z 100402c4 f i libucrt:environment_initialization.obj
 0001:0003f2e2       ??$tcslen@AAPA_W@?$__crt_char_traits@_W@@SAIAAPA_W@Z 100402e2 f i libucrt:environment_initialization.obj
 0001:0003f307       ??$uninitialize@A6AXAAPAPAD@Z@?$dual_state_global@PAPAD@__crt_state_management@@QAEXA6AXAAPAPAD@Z@Z 10040307 f i libucrt:environment_initialization.obj
 0001:0003f357       ??$uninitialize@A6AXAAPAPA_W@Z@?$dual_state_global@PAPA_W@__crt_state_management@@QAEXA6AXAAPAPA_W@Z@Z 10040357 f i libucrt:environment_initialization.obj
 0001:0003f3e9       ??0?$__crt_unique_heap_ptr@_WU__crt_internal_free_policy@@@@QAE@QA_W@Z 100403e9 f i libucrt:environment_initialization.obj
 0001:0003f3fd       ??1?$__crt_unique_heap_ptr@_WU__crt_internal_free_policy@@@@QAE@XZ 100403fd f i libucrt:environment_initialization.obj
 0001:0003f413       ??B?$__crt_unique_heap_ptr@PADU__crt_internal_free_policy@@@@QBE_NXZ 10040413 f i libucrt:environment_initialization.obj
 0001:0003f41a       ??B?$__crt_unique_heap_ptr@PA_WU__crt_internal_free_policy@@@@QBE_NXZ 1004041a f i libucrt:environment_initialization.obj
 0001:0003f421       ??B?$__crt_unique_heap_ptr@_WU__crt_internal_free_policy@@@@QBE_NXZ 10040421 f i libucrt:environment_initialization.obj
 0001:0003f428       ?__crt_compute_required_transform_buffer_count@@YAIIQBD@Z 10040428 f i libucrt:environment_initialization.obj
 0001:0003f44b       ?__crt_compute_required_transform_buffer_count@@YAIIQB_W@Z 1004044b f i libucrt:environment_initialization.obj
 0001:0003f470       ?__crt_transform_string@@YAIIQBDQA_WI@Z 10040470 f i libucrt:environment_initialization.obj
 0001:0003f496       ?__crt_transform_string@@YAIIQB_WQADI@Z 10040496 f i libucrt:environment_initialization.obj
 0001:0003f4c0       ?detach@?$__crt_unique_heap_ptr@DU__crt_internal_free_policy@@@@QAEPADXZ 100404c0 f i libucrt:environment_initialization.obj
 0001:0003f4c6       ?detach@?$__crt_unique_heap_ptr@_WU__crt_internal_free_policy@@@@QAEPA_WXZ 100404c6 f i libucrt:environment_initialization.obj
 0001:0003f4cc       ?get@?$__crt_unique_heap_ptr@_WU__crt_internal_free_policy@@@@QBEPA_WXZ 100404cc f i libucrt:environment_initialization.obj
 0001:0003f4cf       ?get_current_state_index@__crt_state_management@@YAIXZ 100404cf f i libucrt:environment_initialization.obj
 0001:0003f4f6       ?initialize@?$dual_state_global@PAPAD@__crt_state_management@@QAEXQAPAD@Z 100404f6 f i libucrt:environment_initialization.obj
 0001:0003f525       ?initialize@?$dual_state_global@PAPA_W@__crt_state_management@@QAEXQAPA_W@Z 10040525 f i libucrt:environment_initialization.obj
 0001:0003f554       ?is_valid@?$__crt_unique_heap_ptr@PADU__crt_internal_free_policy@@@@QBE_NXZ 10040554 f i libucrt:environment_initialization.obj
 0001:0003f55b       ?is_valid@?$__crt_unique_heap_ptr@PA_WU__crt_internal_free_policy@@@@QBE_NXZ 1004055b f i libucrt:environment_initialization.obj
 0001:0003f562       ?is_valid@?$__crt_unique_heap_ptr@_WU__crt_internal_free_policy@@@@QBE_NXZ 10040562 f i libucrt:environment_initialization.obj
 0001:0003f56f       ?release@?$__crt_unique_heap_ptr@_WU__crt_internal_free_policy@@@@QAEXXZ 1004056f f i libucrt:environment_initialization.obj
 0001:0003f585       ?value@?$dual_state_global@PAPAD@__crt_state_management@@QAEAAPAPADXZ 10040585 f i libucrt:environment_initialization.obj
 0001:0003f588       ?value@?$dual_state_global@PAPA_W@__crt_state_management@@QAEAAPAPA_WXZ 10040588 f i libucrt:environment_initialization.obj
 0001:0003f58b       ___dcrt_get_or_create_narrow_environment_nolock 1004058b f   libucrt:environment_initialization.obj
 0001:0003f590       ___dcrt_get_or_create_wide_environment_nolock 10040590 f   libucrt:environment_initialization.obj
 0001:0003f595       ___dcrt_uninitialize_environments_nolock 10040595 f   libucrt:environment_initialization.obj
 0001:0003f5d9       ___p__environ              100405d9 f   libucrt:environment_initialization.obj
 0001:0003f5df       ___p__wenviron             100405df f   libucrt:environment_initialization.obj
 0001:0003f5e5       __get_initial_narrow_environment 100405e5 f   libucrt:environment_initialization.obj
 0001:0003f5fe       __get_initial_wide_environment 100405fe f   libucrt:environment_initialization.obj
 0001:0003f617       __initialize_narrow_environment 10040617 f   libucrt:environment_initialization.obj
 0001:0003f61c       __initialize_wide_environment 1004061c f   libucrt:environment_initialization.obj
 0001:0003f621       ??$?BP6AXXZ@__crt_fast_encoded_nullptr_t@@QBEPAP6AXXZXZ 10040621 f i libucrt:onexit.obj
 0001:0003f63f       ??$?RP6AXXZ@__crt_internal_free_policy@@QBEXQBQ6AXXZ@Z 1004063f f i libucrt:onexit.obj
 0001:0003f783       ??$__crt_fast_encode_pointer@P6AHXZ@@YAP6AHXZQ6AHXZ@Z 10040783 f i libucrt:onexit.obj
 0001:0003f830       ??0?$__crt_unique_heap_ptr@P6AXXZU__crt_internal_free_policy@@@@QAE@QAP6AXXZ@Z 10040830 f i libucrt:onexit.obj
 0001:0003f844       ??1?$__crt_unique_heap_ptr@P6AXXZU__crt_internal_free_policy@@@@QAE@XZ 10040844 f i libucrt:onexit.obj
 0001:0003f85a       ??1scoped_global_state_reset@__crt_state_management@@QAE@XZ 1004085a f i libucrt:onexit.obj
 0001:0003fb85       ?detach@?$__crt_unique_heap_ptr@P6AXXZU__crt_internal_free_policy@@@@QAEPAP6AXXZXZ 10040b85 f i libucrt:onexit.obj
 0001:0003fb8b       ?release@?$__crt_unique_heap_ptr@P6AXXZU__crt_internal_free_policy@@@@QAEXXZ 10040b8b f i libucrt:onexit.obj
 0001:0003fba1       __crt_at_quick_exit        10040ba1 f   libucrt:onexit.obj
 0001:0003fbbc       __crt_atexit               10040bbc f   libucrt:onexit.obj
 0001:0003fbd7       __execute_onexit_table     10040bd7 f   libucrt:onexit.obj
 0001:0003fc11       __initialize_onexit_table  10040c11 f   libucrt:onexit.obj
 0001:0003fc5d       __register_onexit_function 10040c5d f   libucrt:onexit.obj
 0001:0003fe28       ?__acrt_stdio_is_initialized@@YA_NXZ 10040e28 f i libucrt:initialization.obj
 0001:0003fe35       ?initialize@?$dual_state_global@PAU__crt_locale_data@@@__crt_state_management@@QAEXQAU__crt_locale_data@@@Z 10040e35 f i libucrt:initialization.obj
 0001:0003fe64       ___acrt_initialize         10040e64 f   libucrt:initialization.obj
 0001:0003fe7a       ___acrt_thread_attach      10040e7a f   libucrt:initialization.obj
 0001:0003fe87       ___acrt_thread_detach      10040e87 f   libucrt:initialization.obj
 0001:0003fe91       ___acrt_uninitialize       10040e91 f   libucrt:initialization.obj
 0001:0003fecd       ___acrt_uninitialize_critical 10040ecd f   libucrt:initialization.obj
 0001:0003fefe       __get_terminate            10040efe f   libucrt:terminate.obj
 0001:0003ff14       _set_terminate             10040f14 f   libucrt:terminate.obj
 0001:0003ff3c       _terminate                 10040f3c f   libucrt:terminate.obj
 0001:0003fff7       _strcpy_s                  10040ff7 f   libucrt:strcpy_s.obj
 0001:00040067       ??$is_overflow_condition@K@__crt_strtox@@YA_NIK@Z 10041067 f i libucrt:atox.obj
 0001:000400a4       ??$is_overflow_condition@_K@__crt_strtox@@YA_NI_K@Z 100410a4 f i libucrt:atox.obj
 0001:000400f5       ??$make_c_string_character_source@D$$T@__crt_strtox@@YA?AV?$c_string_character_source@D@0@QBD$$T@Z 100410f5 f i libucrt:atox.obj
 0001:00040116       ??$make_c_string_character_source@_W$$T@__crt_strtox@@YA?AV?$c_string_character_source@_W@0@QB_W$$T@Z 10041116 f i libucrt:atox.obj
 0001:00040137       ??$parse_integer@KV?$c_string_character_source@D@__crt_strtox@@@__crt_strtox@@YAKQAU__crt_locale_pointers@@V?$c_string_character_source@D@0@H_N@Z 10041137 f i libucrt:atox.obj
 0001:000403ea       ??$parse_integer@KV?$c_string_character_source@_W@__crt_strtox@@@__crt_strtox@@YAKQAU__crt_locale_pointers@@V?$c_string_character_source@_W@0@H_N@Z 100413ea f i libucrt:atox.obj
 0001:00040bbb       ??$parse_integer@_KV?$c_string_character_source@D@__crt_strtox@@@__crt_strtox@@YA_KQAU__crt_locale_pointers@@V?$c_string_character_source@D@0@H_N@Z 10041bbb f i libucrt:atox.obj
 0001:00040f0b       ??$parse_integer@_KV?$c_string_character_source@_W@__crt_strtox@@@__crt_strtox@@YA_KQAU__crt_locale_pointers@@V?$c_string_character_source@_W@0@H_N@Z 10041f0b f i libucrt:atox.obj
 0001:000417d8       ??$parse_integer_from_string@JD$$T@__crt_strtox@@YAJQBD$$THQAU__crt_locale_pointers@@@Z 100427d8 f i libucrt:atox.obj
 0001:00041810       ??$parse_integer_from_string@J_W$$T@__crt_strtox@@YAJQB_W$$THQAU__crt_locale_pointers@@@Z 10042810 f i libucrt:atox.obj
 0001:00041848       ??$parse_integer_from_string@_JD$$T@__crt_strtox@@YA_JQBD$$THQAU__crt_locale_pointers@@@Z 10042848 f i libucrt:atox.obj
 0001:00041880       ??$parse_integer_from_string@_J_W$$T@__crt_strtox@@YA_JQB_W$$THQAU__crt_locale_pointers@@@Z 10042880 f i libucrt:atox.obj
 0001:000418b8       ??0?$c_string_character_source@D@__crt_strtox@@QAE@QBDQAPBD@Z 100428b8 f i libucrt:atox.obj
 0001:000418db       ??0?$c_string_character_source@_W@__crt_strtox@@QAE@QB_WQAPB_W@Z 100428db f i libucrt:atox.obj
 0001:000418fe       ??1?$c_string_character_source@D@__crt_strtox@@QAE@XZ 100428fe f i libucrt:atox.obj
 0001:0004190d       ??1?$c_string_character_source@_W@__crt_strtox@@QAE@XZ 1004290d f i libucrt:atox.obj
 0001:0004191c       ?get@?$c_string_character_source@D@__crt_strtox@@QAEDXZ 1004291c f i libucrt:atox.obj
 0001:00041926       ?get@?$c_string_character_source@_W@__crt_strtox@@QAE_WXZ 10042926 f i libucrt:atox.obj
 0001:00041933       ?is_space@__crt_strtox@@YA_NDQAU__crt_locale_pointers@@@Z 10042933 f i libucrt:atox.obj
 0001:00041958       ?is_space@__crt_strtox@@YA_N_WPAU__crt_locale_pointers@@@Z 10042958 f i libucrt:atox.obj
 0001:00041976       ?maximum_signed_value@__crt_strtox@@YAJK@Z 10042976 f i libucrt:atox.obj
 0001:0004197c       ?maximum_signed_value@__crt_strtox@@YA_J_K@Z 1004297c f i libucrt:atox.obj
 0001:00041987       ?minimum_signed_value@__crt_strtox@@YAJK@Z 10042987 f i libucrt:atox.obj
 0001:0004198d       ?minimum_signed_value@__crt_strtox@@YA_J_K@Z 1004298d f i libucrt:atox.obj
 0001:00041997       ?parse_digit@__crt_strtox@@YAID@Z 10042997 f i libucrt:atox.obj
 0001:000419df       ?parse_digit@__crt_strtox@@YAI_W@Z 100429df f i libucrt:atox.obj
 0001:00041c50       ?restore_state@?$c_string_character_source@D@__crt_strtox@@QAE_NQBD@Z 10042c50 f i libucrt:atox.obj
 0001:00041c64       ?restore_state@?$c_string_character_source@_W@__crt_strtox@@QAE_NQB_W@Z 10042c64 f i libucrt:atox.obj
 0001:00041c78       ?save_state@?$c_string_character_source@D@__crt_strtox@@QBEPBDXZ 10042c78 f i libucrt:atox.obj
 0001:00041c7b       ?save_state@?$c_string_character_source@_W@__crt_strtox@@QBEPB_WXZ 10042c7b f i libucrt:atox.obj
 0001:00041c7e       ?unget@?$c_string_character_source@D@__crt_strtox@@QAEXD@Z 10042c7e f i libucrt:atox.obj
 0001:00041cb1       ?unget@?$c_string_character_source@_W@__crt_strtox@@QAEX_W@Z 10042cb1 f i libucrt:atox.obj
 0001:00041cea       ?validate@?$c_string_character_source@D@__crt_strtox@@QBE_NXZ 10042cea f i libucrt:atox.obj
 0001:00041d0b       ?validate@?$c_string_character_source@_W@__crt_strtox@@QBE_NXZ 10042d0b f i libucrt:atox.obj
 0001:00041d2c       ?wide_character_to_digit@__crt_strtox@@YAH_W@Z 10042d2c f i libucrt:atox.obj
 0001:00041f35       ___acrt_get_locale_data_prefix 10042f35 f i libucrt:atox.obj
 0001:00041f44       __atoi64                   10042f44 f   libucrt:atox.obj
 0001:00041f72       __atoi64_l                 10042f72 f   libucrt:atox.obj
 0001:00041fa1       __atoi_l                   10042fa1 f   libucrt:atox.obj
 0001:00041fd0       __atol_l                   10042fd0 f   libucrt:atox.obj
 0001:00041fff       __atoll_l                  10042fff f   libucrt:atox.obj
 0001:0004202e       __chvalidchk_l             1004302e f i libucrt:atox.obj
 0001:0004205d       __ischartype_l             1004305d f i libucrt:atox.obj
 0001:0004209c       __wtoi                     1004309c f   libucrt:atox.obj
 0001:000420ca       __wtoi64                   100430ca f   libucrt:atox.obj
 0001:000420f8       __wtoi64_l                 100430f8 f   libucrt:atox.obj
 0001:00042127       __wtoi_l                   10043127 f   libucrt:atox.obj
 0001:00042156       __wtol                     10043156 f   libucrt:atox.obj
 0001:00042184       __wtol_l                   10043184 f   libucrt:atox.obj
 0001:000421b3       __wtoll                    100431b3 f   libucrt:atox.obj
 0001:000421e1       __wtoll_l                  100431e1 f   libucrt:atox.obj
 0001:00042210       _atoi                      10043210 f   libucrt:atox.obj
 0001:0004223e       _atol                      1004323e f   libucrt:atox.obj
 0001:0004226c       _atoll                     1004326c f   libucrt:atox.obj
 0001:000422a0       _strncmp                   100432a0 f   libucrt:strncmp.obj
 0001:00042336       __set_abort_behavior       10043336 f   libucrt:abort.obj
 0001:0004235f       _abort                     1004335f f   libucrt:abort.obj
 0001:000423b4       _wcsncmp                   100433b4 f   libucrt:wcsncmp.obj
 0001:000423fc       __malloc_base              100433fc f   libucrt:malloc_base.obj
 0001:0004245d       __calloc_base              1004345d f   libucrt:calloc_base.obj
 0001:000424d7       __free_base                100434d7 f   libucrt:free_base.obj
 0001:0004251f       ??$__crt_fast_decode_pointer@P6AXPB_W00II@Z@@YAP6AXPB_W00II@ZQ6AX000II@Z@Z 1004351f f i libucrt:invalid_parameter.obj
 0001:0004253a       ??$__crt_fast_encode_pointer@P6AXPB_W00II@Z@@YAP6AXPB_W00II@ZQ6AX000II@Z@Z 1004353a f i libucrt:invalid_parameter.obj
 0001:00042560       ??$initialize_from_array@$$BY00Q6AXPB_W00II@Z@?$dual_state_global@P6AXPB_W00II@Z@__crt_state_management@@QAAXAAY00Q6AXPB_W00II@Z@Z 10043560 f i libucrt:invalid_parameter.obj
 0001:00042575       ?dangerous_get_state_array@?$dual_state_global@P6AXPB_W00II@Z@__crt_state_management@@QAEPAP6AXPB_W00II@ZXZ 10043575 f i libucrt:invalid_parameter.obj
 0001:00042578       ?value@?$dual_state_global@P6AXPB_W00II@Z@__crt_state_management@@QAEAAP6AXPB_W00II@ZXZ 10043578 f i libucrt:invalid_parameter.obj
 0001:0004257b       ___acrt_call_reportfault   1004357b f   libucrt:invalid_parameter.obj
 0001:00042704       ___acrt_initialize_invalid_parameter_handler 10043704 f   libucrt:invalid_parameter.obj
 0001:00042716       __get_invalid_parameter_handler 10043716 f   libucrt:invalid_parameter.obj
 0001:0004272d       __get_thread_local_invalid_parameter_handler 1004372d f   libucrt:invalid_parameter.obj
 0001:00042742       __invalid_parameter        10043742 f   libucrt:invalid_parameter.obj
 0001:000427db       __invalid_parameter_noinfo 100437db f   libucrt:invalid_parameter.obj
 0001:000427ef       __invalid_parameter_noinfo_noreturn 100437ef f   libucrt:invalid_parameter.obj
 0001:00042813       __invoke_watson            10043813 f   libucrt:invalid_parameter.obj
 0001:00042854       __set_invalid_parameter_handler 10043854 f   libucrt:invalid_parameter.obj
 0001:00042890       __set_thread_local_invalid_parameter_handler 10043890 f   libucrt:invalid_parameter.obj
 0001:0004297b       ___acrt_report_runtime_error 1004397b f   libucrt:report_runtime_error.obj
 0001:00042ad5       __query_app_type           10043ad5 f   libucrt:report_runtime_error.obj
 0001:00042adb       __set_app_type             10043adb f   libucrt:report_runtime_error.obj
 0001:00042aed       ___acrt_errno_from_os_error 10043aed f   libucrt:errno.obj
 0001:00042b40       ___acrt_errno_map_os_error 10043b40 f   libucrt:errno.obj
 0001:00042b6b       ___doserrno                10043b6b f   libucrt:errno.obj
 0001:00042b82       __errno                    10043b82 f   libucrt:errno.obj
 0001:00042b99       __get_doserrno             10043b99 f   libucrt:errno.obj
 0001:00042bc7       __get_errno                10043bc7 f   libucrt:errno.obj
 0001:00042bf5       __set_doserrno             10043bf5 f   libucrt:errno.obj
 0001:00042c1e       __set_errno                10043c1e f   libucrt:errno.obj
 0001:0004324c       __i64toa                   1004424c f   libucrt:xtoa.obj
 0001:0004329f       __i64toa_s                 1004429f f   libucrt:xtoa.obj
 0001:000432f0       __i64tow                   100442f0 f   libucrt:xtoa.obj
 0001:00043343       __i64tow_s                 10044343 f   libucrt:xtoa.obj
 0001:00043394       __itoa                     10044394 f   libucrt:xtoa.obj
 0001:000433d8       __itoa_s                   100443d8 f   libucrt:xtoa.obj
 0001:0004341a       __itow                     1004441a f   libucrt:xtoa.obj
 0001:0004345e       __itow_s                   1004445e f   libucrt:xtoa.obj
 0001:000434a0       __ltoa                     100444a0 f   libucrt:xtoa.obj
 0001:000434e4       __ltoa_s                   100444e4 f   libucrt:xtoa.obj
 0001:00043526       __ltow                     10044526 f   libucrt:xtoa.obj
 0001:0004356a       __ltow_s                   1004456a f   libucrt:xtoa.obj
 0001:000435ac       __ui64toa                  100445ac f   libucrt:xtoa.obj
 0001:000435d6       __ui64toa_s                100445d6 f   libucrt:xtoa.obj
 0001:000435fe       __ui64tow                  100445fe f   libucrt:xtoa.obj
 0001:00043628       __ui64tow_s                10044628 f   libucrt:xtoa.obj
 0001:00043650       __ultoa                    10044650 f   libucrt:xtoa.obj
 0001:00043676       __ultoa_s                  10044676 f   libucrt:xtoa.obj
 0001:0004369a       __ultow                    1004469a f   libucrt:xtoa.obj
 0001:000436c0       __ultow_s                  100446c0 f   libucrt:xtoa.obj
 0001:000436e4       __set_error_mode           100446e4 f   libucrt:set_error_mode.obj
 0001:000437c0       _wcscat_s                  100447c0 f   libucrt:wcscat_s.obj
 0001:000438ca       _wcscpy_s                  100448ca f   libucrt:wcscpy_s.obj
 0001:00043a6a       _wcsncat_s                 10044a6a f   libucrt:wcsncat_s.obj
 0001:00043afa       _strcat_s                  10044afa f   libucrt:strcat_s.obj
 0001:00043c81       _strncat_s                 10044c81 f   libucrt:strncat_s.obj
 0001:00043c8e       ___acrt_GetModuleFileNameA 10044c8e f   libucrt:getmodulefilenamea.obj
 0001:00043e46       ??$message_box@$$TABQBDABQBDK@?$__crt_char_traits@D@@SAH$$QA$$TABQBD1$$QAK@Z 10044e46 f i libucrt:crtmbox.obj
 0001:00043e6e       ??$message_box@$$TABQB_WABQB_WK@?$__crt_char_traits@_W@@SAH$$QA$$TABQB_W1$$QAK@Z 10044e6e f i libucrt:crtmbox.obj
 0001:00043e96       ??$message_box@PAUHWND__@@ABQBDABQBDABI@?$__crt_char_traits@D@@SAH$$QAPAUHWND__@@ABQBD1ABI@Z 10044e96 f i libucrt:crtmbox.obj
 0001:00043ebe       ??$message_box@PAUHWND__@@ABQB_WABQB_WABI@?$__crt_char_traits@_W@@SAH$$QAPAUHWND__@@ABQB_W1ABI@Z 10044ebe f i libucrt:crtmbox.obj
 0001:00043ee6       ??$output_debug_string@ABQBD@?$__crt_char_traits@D@@SAXABQBD@Z 10044ee6 f i libucrt:crtmbox.obj
 0001:00043efb       ??$output_debug_string@ABQB_W@?$__crt_char_traits@_W@@SAXABQB_W@Z 10044efb f i libucrt:crtmbox.obj
 0001:00043f11       ___acrt_show_narrow_message_box 10044f11 f   libucrt:crtmbox.obj
 0001:00043f1e       ___acrt_show_wide_message_box 10044f1e f   libucrt:crtmbox.obj
 0001:0004427c       ??0__crt_stdio_stream@@QAE@QAU__crt_stdio_stream_data@@@Z 1004527c f i libucrt:fflush.obj
 0001:000444e5       ___acrt_stdio_flush_nolock 100454e5 f   libucrt:fflush.obj
 0001:00044560       __fflush_nolock            10045560 f   libucrt:fflush.obj
 0001:000445b8       __flushall                 100455b8 f   libucrt:fflush.obj
 0001:000445c3       _fflush                    100455c3 f   libucrt:fflush.obj
 0001:0004482e       _setvbuf                   1004582e f   libucrt:setvbuf.obj
 0001:000448d3       ??$?B$$A6AXH@Z@__crt_fast_encoded_nullptr_t@@QBEP6AXH@ZXZ 100458d3 f i libucrt:signal.obj
 0001:00044993       ??$__crt_fast_decode_pointer@P6AXH@Z@@YAP6AXH@ZQ6AXH@Z@Z 10045993 f i libucrt:signal.obj
 0001:000449ae       ??$__crt_fast_encode_pointer@P6AXH@Z@@YAP6AXH@ZQ6AXH@Z@Z 100459ae f i libucrt:signal.obj
 0001:00044b58       ?initialize@?$dual_state_global@P6AXH@Z@__crt_state_management@@QAEXQ6AXH@Z@Z 10045b58 f i libucrt:signal.obj
 0001:00044c36       ?value@?$dual_state_global@P6AXH@Z@__crt_state_management@@QAEAAP6AXH@ZXZ 10045c36 f i libucrt:signal.obj
 0001:00044c39       ___acrt_get_sigabrt_handler 10045c39 f   libucrt:signal.obj
 0001:00044c6c       ___acrt_initialize_signal_handlers 10045c6c f   libucrt:signal.obj
 0001:00044c91       ___fpecode                 10045c91 f   libucrt:signal.obj
 0001:00044c9c       ___pxcptinfoptrs           10045c9c f   libucrt:signal.obj
 0001:00044ca7       _raise                     10045ca7 f   libucrt:signal.obj
 0001:00044f29       _signal                    10045f29 f   libucrt:signal.obj
 0001:00045146       __realloc_base             10046146 f   libucrt:realloc_base.obj
 0001:000451c9       ___acrt_initialize_locks   100461c9 f   libucrt:locks.obj
 0001:0004521a       ___acrt_lock               1004621a f   libucrt:locks.obj
 0001:00045236       ___acrt_uninitialize_locks 10046236 f   libucrt:locks.obj
 0001:00045273       ___acrt_unlock             10046273 f   libucrt:locks.obj
 0001:0004528f       __lock_locales             1004628f f   libucrt:locks.obj
 0001:000452a0       __unlock_locales           100462a0 f   libucrt:locks.obj
 0001:000454be       ___acrt_get_begin_thread_init_policy 100464be f   libucrt:win_policies.obj
 0001:00045514       ___acrt_get_developer_information_policy 10046514 f   libucrt:win_policies.obj
 0001:0004556a       ___acrt_get_process_end_policy 1004656a f   libucrt:win_policies.obj
 0001:000455a9       ___acrt_get_windowing_model_policy 100465a9 f   libucrt:win_policies.obj
 0001:0004562d       ??$?B$$A6GHPA_WKJ@Z@__crt_fast_encoded_nullptr_t@@QBEP6GHPA_WKJ@ZXZ 1004662d f i libucrt:winapi_thunks.obj
 0001:00045727       ??$__crt_fast_decode_pointer@P6GHPA_WKJ@Z@@YAP6GHPA_WKJ@ZQ6GH0KJ@Z@Z 10046727 f i libucrt:winapi_thunks.obj
 0001:00045742       ??$__crt_fast_encode_pointer@P6GHPA_WKJ@Z@@YAP6GHPA_WKJ@ZQ6GH0KJ@Z@Z 10046742 f i libucrt:winapi_thunks.obj
 0001:00045fa1       _GetCurrentThreadEffectiveToken 10046fa1 f i libucrt:winapi_thunks.obj
 0001:00045fa5       ___acrt_AppPolicyGetProcessTerminationMethodInternal@4 10046fa5 f   libucrt:winapi_thunks.obj
 0001:00046011       ___acrt_AppPolicyGetShowDeveloperDiagnosticInternal@4 10047011 f   libucrt:winapi_thunks.obj
 0001:0004607d       ___acrt_AppPolicyGetThreadInitializationTypeInternal@4 1004707d f   libucrt:winapi_thunks.obj
 0001:000460e9       ___acrt_AppPolicyGetWindowingModelInternal@4 100470e9 f   libucrt:winapi_thunks.obj
 0001:00046155       ___acrt_AreFileApisANSI@0  10047155 f   libucrt:winapi_thunks.obj
 0001:0004619d       ___acrt_CompareStringEx@36 1004719d f   libucrt:winapi_thunks.obj
 0001:0004622e       ___acrt_EnumSystemLocalesEx@16 1004722e f   libucrt:winapi_thunks.obj
 0001:000462b2       ___acrt_FlsAlloc@4         100472b2 f   libucrt:winapi_thunks.obj
 0001:0004631d       ___acrt_FlsFree@4          1004731d f   libucrt:winapi_thunks.obj
 0001:00046388       ___acrt_FlsGetValue@4      10047388 f   libucrt:winapi_thunks.obj
 0001:000463f3       ___acrt_FlsSetValue@8      100473f3 f   libucrt:winapi_thunks.obj
 0001:00046462       ___acrt_GetDateFormatEx@28 10047462 f   libucrt:winapi_thunks.obj
 0001:000464eb       ___acrt_GetEnabledXStateFeatures@0 100474eb f   libucrt:winapi_thunks.obj
 0001:0004654d       ___acrt_GetLocaleInfoEx@16 1004754d f   libucrt:winapi_thunks.obj
 0001:000465b8       ___acrt_GetSystemTimePreciseAsFileTime@4 100475b8 f   libucrt:winapi_thunks.obj
 0001:00046623       ___acrt_GetTimeFormatEx@24 10047623 f   libucrt:winapi_thunks.obj
 0001:00046696       ___acrt_GetUserDefaultLocaleName@8 10047696 f   libucrt:winapi_thunks.obj
 0001:000466fd       ___acrt_GetXStateFeaturesMask@8 100476fd f   libucrt:winapi_thunks.obj
 0001:00046769       ___acrt_InitializeCriticalSectionEx@12 10047769 f   libucrt:winapi_thunks.obj
 0001:000467e3       ___acrt_IsValidLocaleName@4 100477e3 f   libucrt:winapi_thunks.obj
 0001:00046845       ___acrt_LCIDToLocaleName@16 10047845 f   libucrt:winapi_thunks.obj
 0001:000468b0       ___acrt_LCMapStringEx@36   100478b0 f   libucrt:winapi_thunks.obj
 0001:00046941       ___acrt_LocaleNameToLCID@8 10047941 f   libucrt:winapi_thunks.obj
 0001:0004699b       ___acrt_LocateXStateFeature@12 1004799b f   libucrt:winapi_thunks.obj
 0001:000469f2       ___acrt_MessageBoxA@16     100479f2 f   libucrt:winapi_thunks.obj
 0001:00046a4d       ___acrt_MessageBoxW@16     10047a4d f   libucrt:winapi_thunks.obj
 0001:00046aa8       ___acrt_RoInitialize@4     10047aa8 f   libucrt:winapi_thunks.obj
 0001:00046b0e       ___acrt_RoUninitialize@0   10047b0e f   libucrt:winapi_thunks.obj
 0001:00046b69       ___acrt_RtlGenRandom@8     10047b69 f   libucrt:winapi_thunks.obj
 0001:00046bd5       ___acrt_SetThreadStackGuarantee@4 10047bd5 f   libucrt:winapi_thunks.obj
 0001:00046c3b       ___acrt_can_show_message_box 10047c3b f   libucrt:winapi_thunks.obj
 0001:00046c6b       ___acrt_can_use_vista_locale_apis 10047c6b f   libucrt:winapi_thunks.obj
 0001:00046c78       ___acrt_can_use_xstate_apis 10047c78 f   libucrt:winapi_thunks.obj
 0001:00046c85       ___acrt_eagerly_load_locale_apis 10047c85 f   libucrt:winapi_thunks.obj
 0001:00046cc9       ___acrt_get_parent_window  10047cc9 f   libucrt:winapi_thunks.obj
 0001:00046d67       ___acrt_initialize_winapi_thunks 10047d67 f   libucrt:winapi_thunks.obj
 0001:00046db2       ___acrt_is_interactive     10047db2 f   libucrt:winapi_thunks.obj
 0001:00046e81       ___acrt_uninitialize_winapi_thunks 10047e81 f   libucrt:winapi_thunks.obj
 0001:00046ec4       __fcloseall                10047ec4 f   libucrt:closeall.obj
 0001:00046f8c       ?has_crt_buffer@__crt_stdio_stream@@QBE_NXZ 10047f8c f i libucrt:_freebuf.obj
 0001:00046f99       ___acrt_stdio_free_buffer_nolock 10047f99 f   libucrt:_freebuf.obj
 0001:000471d7       ___acrt_initialize_lowio   100481d7 f   libucrt:ioinit.obj
 0001:00047242       ___acrt_uninitialize_lowio 10048242 f   libucrt:ioinit.obj
 0001:0004746e       __close                    1004846e f   libucrt:close.obj
 0001:00047520       __close_nolock             10048520 f   libucrt:close.obj
 0001:000475e3       ?lowio_handle@__crt_stdio_stream@@QBEHXZ 100485e3 f i libucrt:fileno.obj
 0001:000475e9       __fileno                   100485e9 f   libucrt:fileno.obj
 0001:00047618       ??$?RU__crt_stdio_stream_data@@@__crt_internal_free_policy@@QBEXQBU__crt_stdio_stream_data@@@Z 10048618 f i libucrt:stream.obj
 0001:0004762e       ??0?$__crt_unique_heap_ptr@U__crt_stdio_stream_data@@U__crt_internal_free_policy@@@@QAE@QAU__crt_stdio_stream_data@@@Z 1004862e f i libucrt:stream.obj
 0001:00047642       ??0__crt_stdio_stream@@QAE@XZ 10048642 f i libucrt:stream.obj
 0001:00047648       ??1?$__crt_unique_heap_ptr@U__crt_stdio_stream_data@@U__crt_internal_free_policy@@@@QAE@XZ 10048648 f i libucrt:stream.obj
 0001:0004765e       ?__acrt_stdio_allocate_stream@@YA?AV__crt_stdio_stream@@XZ 1004865e f   libucrt:stream.obj
 0001:000476d4       ?__acrt_stdio_free_stream@@YAXV__crt_stdio_stream@@@Z 100486d4 f   libucrt:stream.obj
 0001:0004771d       ?deallocate@__crt_stdio_stream@@QAEXXZ 1004871d f i libucrt:stream.obj
 0001:00047729       ?detach@?$__crt_unique_heap_ptr@U__crt_stdio_stream_data@@U__crt_internal_free_policy@@@@QAEPAU__crt_stdio_stream_data@@XZ 10048729 f i libucrt:stream.obj
 0001:00047822       ?lock@__crt_stdio_stream@@QBEXXZ 10048822 f i libucrt:stream.obj
 0001:0004782d       ?release@?$__crt_unique_heap_ptr@U__crt_stdio_stream_data@@U__crt_internal_free_policy@@@@QAEXXZ 1004882d f i libucrt:stream.obj
 0001:00047843       ?try_allocate@__crt_stdio_stream@@QAE_NXZ 10048843 f i libucrt:stream.obj
 0001:0004786b       ??$__acrt_stdio_parse_mode@D@@YA?AU__acrt_stdio_stream_mode@@QBD@Z 1004886b f i libucrt:openfile.obj
 0001:00047b25       ??$__acrt_stdio_parse_mode@_W@@YA?AU__acrt_stdio_stream_mode@@QB_W@Z 10048b25 f i libucrt:openfile.obj
 0001:00047f7a       ??$tcsncmp@AAPBDAAY02$$CBDI@?$__crt_char_traits@D@@SAHAAPBDAAY02$$CBD$$QAI@Z 10048f7a f i libucrt:openfile.obj
 0001:00047f9d       ??$tcsncmp@AAPB_WAAY02$$CB_WI@?$__crt_char_traits@_W@@SAHAAPB_WAAY02$$CB_W$$QAI@Z 10048f9d f i libucrt:openfile.obj
 0001:00047fc0       ??$tcsnicmp@AAPBDAAY04$$CBDI@?$__crt_char_traits@D@@SAHAAPBDAAY04$$CBD$$QAI@Z 10048fc0 f i libucrt:openfile.obj
 0001:00047fe3       ??$tcsnicmp@AAPBDAAY06$$CBDI@?$__crt_char_traits@D@@SAHAAPBDAAY06$$CBD$$QAI@Z 10048fe3 f i libucrt:openfile.obj
 0001:00048006       ??$tcsnicmp@AAPBDAAY07$$CBDI@?$__crt_char_traits@D@@SAHAAPBDAAY07$$CBD$$QAI@Z 10049006 f i libucrt:openfile.obj
 0001:00048029       ??$tcsnicmp@AAPB_WAAY04$$CB_WI@?$__crt_char_traits@_W@@SAHAAPB_WAAY04$$CB_W$$QAI@Z 10049029 f i libucrt:openfile.obj
 0001:0004804c       ??$tcsnicmp@AAPB_WAAY06$$CB_WI@?$__crt_char_traits@_W@@SAHAAPB_WAAY06$$CB_W$$QAI@Z 1004904c f i libucrt:openfile.obj
 0001:0004806f       ??$tcsnicmp@AAPB_WAAY07$$CB_WI@?$__crt_char_traits@_W@@SAHAAPB_WAAY07$$CB_W$$QAI@Z 1004906f f i libucrt:openfile.obj
 0001:00048092       ??$tsopen_s@PAHABQBDABHABHH@?$__crt_char_traits@D@@SAH$$QAPAHABQBDABH2$$QAH@Z 10049092 f i libucrt:openfile.obj
 0001:000480c4       ??$tsopen_s@PAHABQB_WABHABHH@?$__crt_char_traits@_W@@SAH$$QAPAHABQB_WABH2$$QAH@Z 100490c4 f i libucrt:openfile.obj
 0001:000480f6       ?__acrt_stdio_parse_mode_D@@YA_NAAU__acrt_stdio_stream_mode@@@Z 100490f6 f i libucrt:openfile.obj
 0001:00048117       ?__acrt_stdio_parse_mode_N@@YA_NAAU__acrt_stdio_stream_mode@@@Z 10049117 f i libucrt:openfile.obj
 0001:0004812d       ?__acrt_stdio_parse_mode_R@@YA_NAAU__acrt_stdio_stream_mode@@AA_N@Z 1004912d f i libucrt:openfile.obj
 0001:00048152       ?__acrt_stdio_parse_mode_S@@YA_NAAU__acrt_stdio_stream_mode@@AA_N@Z 10049152 f i libucrt:openfile.obj
 0001:00048177       ?__acrt_stdio_parse_mode_T@@YA_NAAU__acrt_stdio_stream_mode@@@Z 10049177 f i libucrt:openfile.obj
 0001:0004819d       ?__acrt_stdio_parse_mode_b@@YA_NAAU__acrt_stdio_stream_mode@@@Z 1004919d f i libucrt:openfile.obj
 0001:000481c5       ?__acrt_stdio_parse_mode_c@@YA_NAAU__acrt_stdio_stream_mode@@AA_N@Z 100491c5 f i libucrt:openfile.obj
 0001:000481ef       ?__acrt_stdio_parse_mode_n@@YA_NAAU__acrt_stdio_stream_mode@@AA_N@Z 100491ef f i libucrt:openfile.obj
 0001:00048219       ?__acrt_stdio_parse_mode_plus@@YA_NAAU__acrt_stdio_stream_mode@@AA_N@Z 10049219 f i libucrt:openfile.obj
 0001:0004825b       ?__acrt_stdio_parse_mode_t@@YA_NAAU__acrt_stdio_stream_mode@@@Z 1004925b f i libucrt:openfile.obj
 0001:00048283       ?__acrt_stdio_parse_mode_x@@YA_NAAU__acrt_stdio_stream_mode@@@Z 10049283 f i libucrt:openfile.obj
 0001:000482ab       __openfile                 100492ab f   libucrt:openfile.obj
 0001:000482b8       __wopenfile                100492b8 f   libucrt:openfile.obj
 0001:0004898b       __read                     1004998b f   libucrt:read.obj
 0001:00048ad7       __read_nolock              10049ad7 f   libucrt:read.obj
 0001:00048f75       __utf8_no_of_trailbytes    10049f75 f i libucrt:read.obj
 0001:00049494       ___acrt_stdio_refill_and_read_narrow_nolock 1004a494 f   libucrt:_filbuf.obj
 0001:000494a1       ___acrt_stdio_refill_and_read_wide_nolock 1004a4a1 f   libucrt:_filbuf.obj
 0001:00049c23       __write                    1004ac23 f   libucrt:write.obj
 0001:00049d45       __write_nolock             1004ad45 f   libucrt:write.obj
 0001:0004a487       ___acrt_stdio_flush_and_write_narrow_nolock 1004b487 f   libucrt:_flsbuf.obj
 0001:0004a494       ___acrt_stdio_flush_and_write_wide_nolock 1004b494 f   libucrt:_flsbuf.obj
 0001:0004a4a1       ?has_temporary_buffer@__crt_stdio_stream@@QBE_NXZ 1004b4a1 f i libucrt:_sftbuf.obj
 0001:0004a4ae       ___acrt_stdio_begin_temporary_buffering_nolock 1004b4ae f   libucrt:_sftbuf.obj
 0001:0004a590       ___acrt_stdio_end_temporary_buffering_nolock 1004b590 f   libucrt:_sftbuf.obj
 0001:0004a659       ___acrt_MultiByteToWideChar 1004b659 f   libucrt:multibytetowidechar.obj
 0001:0004a6f4       ??$?RU__acrt_ptd@@@__crt_internal_free_policy@@QBEXQBU__acrt_ptd@@@Z 1004b6f4 f i libucrt:per_thread_data.obj
 0001:0004aa6d       ??0?$__crt_unique_heap_ptr@U__acrt_ptd@@U__crt_internal_free_policy@@@@QAE@QAU__acrt_ptd@@@Z 1004ba6d f i libucrt:per_thread_data.obj
 0001:0004aa81       ??0__crt_scoped_get_last_error_reset@@QAE@XZ 1004ba81 f i libucrt:per_thread_data.obj
 0001:0004aa96       ??1?$__crt_unique_heap_ptr@U__acrt_ptd@@U__crt_internal_free_policy@@@@QAE@XZ 1004ba96 f i libucrt:per_thread_data.obj
 0001:0004aaac       ??1__crt_scoped_get_last_error_reset@@QAE@XZ 1004baac f i libucrt:per_thread_data.obj
 0001:0004aab7       ??B?$__crt_unique_heap_ptr@U__acrt_ptd@@U__crt_internal_free_policy@@@@QBE_NXZ 1004bab7 f i libucrt:per_thread_data.obj
 0001:0004ac54       ?dangerous_get_state_array@?$dual_state_global@PAU__crt_locale_data@@@__crt_state_management@@QAEPAPAU__crt_locale_data@@XZ 1004bc54 f i libucrt:per_thread_data.obj
 0001:0004ad87       ?detach@?$__crt_unique_heap_ptr@U__acrt_ptd@@U__crt_internal_free_policy@@@@QAEPAU__acrt_ptd@@XZ 1004bd87 f i libucrt:per_thread_data.obj
 0001:0004ad8d       ?get@?$__crt_unique_heap_ptr@U__acrt_ptd@@U__crt_internal_free_policy@@@@QBEPAU__acrt_ptd@@XZ 1004bd8d f i libucrt:per_thread_data.obj
 0001:0004ad90       ?get_current_state_index@__crt_state_management@@YAIABV__crt_scoped_get_last_error_reset@@@Z 1004bd90 f i libucrt:per_thread_data.obj
 0001:0004af16       ?is_valid@?$__crt_unique_heap_ptr@U__acrt_ptd@@U__crt_internal_free_policy@@@@QBE_NXZ 1004bf16 f i libucrt:per_thread_data.obj
 0001:0004af1d       ?release@?$__crt_unique_heap_ptr@U__acrt_ptd@@U__crt_internal_free_policy@@@@QAEXXZ 1004bf1d f i libucrt:per_thread_data.obj
 0001:0004afa9       ?value@?$dual_state_global@PAU__crt_locale_data@@@__crt_state_management@@QAEAAPAU__crt_locale_data@@XZ 1004bfa9 f i libucrt:per_thread_data.obj
 0001:0004afac       ___acrt_freeptd            1004bfac f   libucrt:per_thread_data.obj
 0001:0004afe3       ___acrt_getptd             1004bfe3 f   libucrt:per_thread_data.obj
 0001:0004b0c7       ___acrt_getptd_head        1004c0c7 f   libucrt:per_thread_data.obj
 0001:0004b187       ___acrt_getptd_noexit      1004c187 f   libucrt:per_thread_data.obj
 0001:0004b25f       ___acrt_initialize_ptd     1004c25f f   libucrt:per_thread_data.obj
 0001:0004b296       ___acrt_uninitialize_ptd   1004c296 f   libucrt:per_thread_data.obj
 0001:0004b2b6       ___threadhandle            1004c2b6 f   libucrt:per_thread_data.obj
 0001:0004b2bc       ___threadid                1004c2bc f   libucrt:per_thread_data.obj
 0001:0004b2c2       ?value@?$dual_state_global@PAU__crt_multibyte_data@@@__crt_state_management@@QAEAAPAU__crt_multibyte_data@@XZ 1004c2c2 f i libucrt:locale_update.obj
 0001:0004b2c5       ___acrt_update_locale_info 1004c2c5 f   libucrt:locale_update.obj
 0001:0004b2fd       ___acrt_update_multibyte_info 1004c2fd f   libucrt:locale_update.obj
 0001:0004b335       __wremove                  1004c335 f   libucrt:wunlink.obj
 0001:0004b367       __wunlink                  1004c367 f   libucrt:wunlink.obj
 0001:0004b377       ??$?RU__crt_locale_data@@@__crt_internal_free_policy@@QBEXQBU__crt_locale_data@@@Z 1004c377 f i libucrt:wsetlocale.obj
 0001:0004b38d       ??$?RU__crt_locale_pointers@@@__crt_internal_free_policy@@QBEXQBU__crt_locale_pointers@@@Z 1004c38d f i libucrt:wsetlocale.obj
 0001:0004b3a3       ??$?RU__crt_multibyte_data@@@__crt_internal_free_policy@@QBEXQBU__crt_multibyte_data@@@Z 1004c3a3 f i libucrt:wsetlocale.obj
 0001:0004b673       ??$__vcrt_va_start_verify_argument_type@H@@YAXXZ 1004c673 f i libucrt:wsetlocale.obj
 0001:0004b7fe       ??0?$__crt_unique_heap_ptr@U__crt_locale_data@@U__crt_internal_free_policy@@@@QAE@QAU__crt_locale_data@@@Z 1004c7fe f i libucrt:wsetlocale.obj
 0001:0004b812       ??0?$__crt_unique_heap_ptr@U__crt_locale_pointers@@U__crt_internal_free_policy@@@@QAE@QAU__crt_locale_pointers@@@Z 1004c812 f i libucrt:wsetlocale.obj
 0001:0004b826       ??0?$__crt_unique_heap_ptr@U__crt_multibyte_data@@U__crt_internal_free_policy@@@@QAE@QAU__crt_multibyte_data@@@Z 1004c826 f i libucrt:wsetlocale.obj
 0001:0004b83a       ??1?$__crt_unique_heap_ptr@U__crt_locale_data@@U__crt_internal_free_policy@@@@QAE@XZ 1004c83a f i libucrt:wsetlocale.obj
 0001:0004b850       ??1?$__crt_unique_heap_ptr@U__crt_locale_pointers@@U__crt_internal_free_policy@@@@QAE@XZ 1004c850 f i libucrt:wsetlocale.obj
 0001:0004b866       ??1?$__crt_unique_heap_ptr@U__crt_multibyte_data@@U__crt_internal_free_policy@@@@QAE@XZ 1004c866 f i libucrt:wsetlocale.obj
 0001:0004b87c       ??B?$__crt_unique_heap_ptr@U__crt_locale_data@@U__crt_internal_free_policy@@@@QBE_NXZ 1004c87c f i libucrt:wsetlocale.obj
 0001:0004b883       ??B?$__crt_unique_heap_ptr@U__crt_locale_pointers@@U__crt_internal_free_policy@@@@QBE_NXZ 1004c883 f i libucrt:wsetlocale.obj
 0001:0004b88a       ??B?$__crt_unique_heap_ptr@U__crt_multibyte_data@@U__crt_internal_free_policy@@@@QBE_NXZ 1004c88a f i libucrt:wsetlocale.obj
 0001:0004bb2c       ?detach@?$__crt_unique_heap_ptr@U__crt_locale_data@@U__crt_internal_free_policy@@@@QAEPAU__crt_locale_data@@XZ 1004cb2c f i libucrt:wsetlocale.obj
 0001:0004bb32       ?detach@?$__crt_unique_heap_ptr@U__crt_locale_pointers@@U__crt_internal_free_policy@@@@QAEPAU__crt_locale_pointers@@XZ 1004cb32 f i libucrt:wsetlocale.obj
 0001:0004bb38       ?detach@?$__crt_unique_heap_ptr@U__crt_multibyte_data@@U__crt_internal_free_policy@@@@QAEPAU__crt_multibyte_data@@XZ 1004cb38 f i libucrt:wsetlocale.obj
 0001:0004bb3e       ?get@?$__crt_unique_heap_ptr@U__crt_locale_data@@U__crt_internal_free_policy@@@@QBEPAU__crt_locale_data@@XZ 1004cb3e f i libucrt:wsetlocale.obj
 0001:0004bb41       ?get@?$__crt_unique_heap_ptr@U__crt_locale_pointers@@U__crt_internal_free_policy@@@@QBEPAU__crt_locale_pointers@@XZ 1004cb41 f i libucrt:wsetlocale.obj
 0001:0004bb44       ?get@?$__crt_unique_heap_ptr@U__crt_multibyte_data@@U__crt_internal_free_policy@@@@QBEPAU__crt_multibyte_data@@XZ 1004cb44 f i libucrt:wsetlocale.obj
 0001:0004bb47       ?is_valid@?$__crt_unique_heap_ptr@U__crt_locale_data@@U__crt_internal_free_policy@@@@QBE_NXZ 1004cb47 f i libucrt:wsetlocale.obj
 0001:0004bb4e       ?is_valid@?$__crt_unique_heap_ptr@U__crt_locale_pointers@@U__crt_internal_free_policy@@@@QBE_NXZ 1004cb4e f i libucrt:wsetlocale.obj
 0001:0004bb55       ?is_valid@?$__crt_unique_heap_ptr@U__crt_multibyte_data@@U__crt_internal_free_policy@@@@QBE_NXZ 1004cb55 f i libucrt:wsetlocale.obj
 0001:0004bb5c       ?release@?$__crt_unique_heap_ptr@U__crt_locale_data@@U__crt_internal_free_policy@@@@QAEXXZ 1004cb5c f i libucrt:wsetlocale.obj
 0001:0004bb72       ?release@?$__crt_unique_heap_ptr@U__crt_locale_pointers@@U__crt_internal_free_policy@@@@QAEXXZ 1004cb72 f i libucrt:wsetlocale.obj
 0001:0004bb88       ?release@?$__crt_unique_heap_ptr@U__crt_multibyte_data@@U__crt_internal_free_policy@@@@QAEXXZ 1004cb88 f i libucrt:wsetlocale.obj
 0001:0004bb9e       ___acrt_copy_locale_name   1004cb9e f   libucrt:wsetlocale.obj
 0001:0004bc1d       ___acrt_set_locale_changed 1004cc1d f   libucrt:wsetlocale.obj
 0001:0004bc2a       ___acrt_uninitialize_locale 1004cc2a f   libucrt:wsetlocale.obj
 0001:0004bc5d       ___lc_lctowcs              1004cc5d f   libucrt:wsetlocale.obj
 0001:0004bce9       ___lc_wcstolc              1004cce9 f   libucrt:wsetlocale.obj
 0001:0004be89       __configthreadlocale       1004ce89 f   libucrt:wsetlocale.obj
 0001:0004bf3d       __create_locale            1004cf3d f   libucrt:wsetlocale.obj
 0001:0004bfbc       __expandlocale             1004cfbc f   libucrt:wsetlocale.obj
 0001:0004c490       __free_locale              1004d490 f   libucrt:wsetlocale.obj
 0001:0004c576       __get_current_locale       1004d576 f   libucrt:wsetlocale.obj
 0001:0004c63a       __wcreate_locale           1004d63a f   libucrt:wsetlocale.obj
 0001:0004c785       __wcscats                  1004d785 f   libucrt:wsetlocale.obj
 0001:0004c7d6       __wsetlocale               1004d7d6 f   libucrt:wsetlocale.obj
 0001:0004d30d       ___p___mb_cur_max          1004e30d f   libucrt:nlsdata.obj
 0001:0004d79d       __lseek                    1004e79d f   libucrt:lseek.obj
 0001:0004d7aa       __lseek_nolock             1004e7aa f   libucrt:lseek.obj
 0001:0004d7b7       __lseeki64                 1004e7b7 f   libucrt:lseek.obj
 0001:0004d7d8       __lseeki64_nolock          1004e7d8 f   libucrt:lseek.obj
 0001:0004d815       ___isascii                 1004e815 f i libucrt:_ctype.obj
 0001:0004d82b       ___iscsym                  1004e82b f i libucrt:_ctype.obj
 0001:0004d855       ___iscsymf                 1004e855 f i libucrt:_ctype.obj
 0001:0004d87b       ___toascii                 1004e87b f i libucrt:_ctype.obj
 0001:0004d88b       __isalnum_l                1004e88b f i libucrt:_ctype.obj
 0001:0004d8d4       __isalpha_l                1004e8d4 f i libucrt:_ctype.obj
 0001:0004d91d       __isblank_l                1004e91d f i libucrt:_ctype.obj
 0001:0004d970       __iscntrl_l                1004e970 f i libucrt:_ctype.obj
 0001:0004d9b6       __iscsym_l                 1004e9b6 f i libucrt:_ctype.obj
 0001:0004d9e1       __iscsymf_l                1004e9e1 f i libucrt:_ctype.obj
 0001:0004da0c       __isdigit_l                1004ea0c f i libucrt:_ctype.obj
 0001:0004da52       __isgraph_l                1004ea52 f i libucrt:_ctype.obj
 0001:0004da9b       __islower_l                1004ea9b f i libucrt:_ctype.obj
 0001:0004dae1       __isprint_l                1004eae1 f i libucrt:_ctype.obj
 0001:0004db2a       __ispunct_l                1004eb2a f i libucrt:_ctype.obj
 0001:0004db70       __isspace_l                1004eb70 f i libucrt:_ctype.obj
 0001:0004dbb6       __isupper_l                1004ebb6 f i libucrt:_ctype.obj
 0001:0004dbfc       __isxdigit_l               1004ebfc f i libucrt:_ctype.obj
 0001:0004dc45       _isalnum                   1004ec45 f i libucrt:_ctype.obj
 0001:0004dc81       _isalpha                   1004ec81 f i libucrt:_ctype.obj
 0001:0004dcbd       _isblank                   1004ecbd f i libucrt:_ctype.obj
 0001:0004dd05       _iscntrl                   1004ed05 f i libucrt:_ctype.obj
 0001:0004dd3e       _isdigit                   1004ed3e f i libucrt:_ctype.obj
 0001:0004dd77       _isgraph                   1004ed77 f i libucrt:_ctype.obj
 0001:0004ddb3       _islower                   1004edb3 f i libucrt:_ctype.obj
 0001:0004ddec       _isprint                   1004edec f i libucrt:_ctype.obj
 0001:0004de28       _ispunct                   1004ee28 f i libucrt:_ctype.obj
 0001:0004de61       _isspace                   1004ee61 f i libucrt:_ctype.obj
 0001:0004de9a       _isupper                   1004ee9a f i libucrt:_ctype.obj
 0001:0004ded3       _isxdigit                  1004eed3 f i libucrt:_ctype.obj
 0001:0004e2cb       __tolower                  1004f2cb f   libucrt:tolower_toupper.obj
 0001:0004e2db       __tolower_l                1004f2db f   libucrt:tolower_toupper.obj
 0001:0004e2fb       __toupper                  1004f2fb f   libucrt:tolower_toupper.obj
 0001:0004e30b       __toupper_l                1004f30b f   libucrt:tolower_toupper.obj
 0001:0004e32b       _tolower                   1004f32b f   libucrt:tolower_toupper.obj
 0001:0004e367       _toupper                   1004f367 f   libucrt:tolower_toupper.obj
 0001:0004e3a3       ??$make_c_string_character_source@DPAPAD@__crt_strtox@@YA?AV?$c_string_character_source@D@0@QBDQAPAD@Z 1004f3a3 f i libucrt:strtox.obj
 0001:0004e3c4       ??$make_c_string_character_source@_WPAPA_W@__crt_strtox@@YA?AV?$c_string_character_source@_W@0@QB_WQAPA_W@Z 1004f3c4 f i libucrt:strtox.obj
 0001:0004e3e5       ??$parse_integer_from_string@JDPAPAD@__crt_strtox@@YAJQBDQAPADHQAU__crt_locale_pointers@@@Z 1004f3e5 f i libucrt:strtox.obj
 0001:0004e41d       ??$parse_integer_from_string@J_WPAPA_W@__crt_strtox@@YAJQB_WQAPA_WHQAU__crt_locale_pointers@@@Z 1004f41d f i libucrt:strtox.obj
 0001:0004e455       ??$parse_integer_from_string@KDPAPAD@__crt_strtox@@YAKQBDQAPADHQAU__crt_locale_pointers@@@Z 1004f455 f i libucrt:strtox.obj
 0001:0004e48d       ??$parse_integer_from_string@K_WPAPA_W@__crt_strtox@@YAKQB_WQAPA_WHQAU__crt_locale_pointers@@@Z 1004f48d f i libucrt:strtox.obj
 0001:0004e4c5       ??$parse_integer_from_string@_JDPAPAD@__crt_strtox@@YA_JQBDQAPADHQAU__crt_locale_pointers@@@Z 1004f4c5 f i libucrt:strtox.obj
 0001:0004e4fd       ??$parse_integer_from_string@_J_WPAPA_W@__crt_strtox@@YA_JQB_WQAPA_WHQAU__crt_locale_pointers@@@Z 1004f4fd f i libucrt:strtox.obj
 0001:0004e535       ??$parse_integer_from_string@_KDPAPAD@__crt_strtox@@YA_KQBDQAPADHQAU__crt_locale_pointers@@@Z 1004f535 f i libucrt:strtox.obj
 0001:0004e56d       ??$parse_integer_from_string@_K_WPAPA_W@__crt_strtox@@YA_KQB_WQAPA_WHQAU__crt_locale_pointers@@@Z 1004f56d f i libucrt:strtox.obj
 0001:0004e5a5       __strtoi64                 1004f5a5 f   libucrt:strtox.obj
 0001:0004e5dc       __strtoi64_l               1004f5dc f   libucrt:strtox.obj
 0001:0004e614       __strtoimax_l              1004f614 f   libucrt:strtox.obj
 0001:0004e64c       __strtol_l                 1004f64c f   libucrt:strtox.obj
 0001:0004e684       __strtoll_l                1004f684 f   libucrt:strtox.obj
 0001:0004e6bc       __strtoui64                1004f6bc f   libucrt:strtox.obj
 0001:0004e6f3       __strtoui64_l              1004f6f3 f   libucrt:strtox.obj
 0001:0004e72b       __strtoul_l                1004f72b f   libucrt:strtox.obj
 0001:0004e763       __strtoull_l               1004f763 f   libucrt:strtox.obj
 0001:0004e79b       __strtoumax_l              1004f79b f   libucrt:strtox.obj
 0001:0004e7d3       __wcstoi64                 1004f7d3 f   libucrt:strtox.obj
 0001:0004e80a       __wcstoi64_l               1004f80a f   libucrt:strtox.obj
 0001:0004e842       __wcstoimax_l              1004f842 f   libucrt:strtox.obj
 0001:0004e87a       __wcstol_l                 1004f87a f   libucrt:strtox.obj
 0001:0004e8b2       __wcstoll_l                1004f8b2 f   libucrt:strtox.obj
 0001:0004e8ea       __wcstoui64                1004f8ea f   libucrt:strtox.obj
 0001:0004e921       __wcstoui64_l              1004f921 f   libucrt:strtox.obj
 0001:0004e959       __wcstoul_l                1004f959 f   libucrt:strtox.obj
 0001:0004e991       __wcstoull_l               1004f991 f   libucrt:strtox.obj
 0001:0004e9c9       __wcstoumax_l              1004f9c9 f   libucrt:strtox.obj
 0001:0004ea01       _strtoimax                 1004fa01 f   libucrt:strtox.obj
 0001:0004ea38       _strtol                    1004fa38 f   libucrt:strtox.obj
 0001:0004ea6f       _strtoll                   1004fa6f f   libucrt:strtox.obj
 0001:0004eaa6       _strtoul                   1004faa6 f   libucrt:strtox.obj
 0001:0004eadd       _strtoull                  1004fadd f   libucrt:strtox.obj
 0001:0004eb14       _strtoumax                 1004fb14 f   libucrt:strtox.obj
 0001:0004eb4b       _wcstoimax                 1004fb4b f   libucrt:strtox.obj
 0001:0004eb82       _wcstol                    1004fb82 f   libucrt:strtox.obj
 0001:0004ebb9       _wcstoll                   1004fbb9 f   libucrt:strtox.obj
 0001:0004ebf0       _wcstoul                   1004fbf0 f   libucrt:strtox.obj
 0001:0004ec27       _wcstoull                  1004fc27 f   libucrt:strtox.obj
 0001:0004ec5e       _wcstoumax                 1004fc5e f   libucrt:strtox.obj
 0001:0004ec95       __mbtowc_l                 1004fc95 f   libucrt:mbtowc.obj
 0001:0004ee2a       _mbtowc                    1004fe2a f   libucrt:mbtowc.obj
 0001:0004ee4a       __wctomb_l                 1004fe4a f   libucrt:wctomb.obj
 0001:0004eeb1       __wctomb_s_l               1004feb1 f   libucrt:wctomb.obj
 0001:0004f01c       _wctomb                    1005001c f   libucrt:wctomb.obj
 0001:0004f05d       _wctomb_s                  1005005d f   libucrt:wctomb.obj
 0001:0004fa7a       ??1?$__crt_simd_cleanup_guard@$00@@QAE@XZ 10050a7a f i libucrt:strnlen.obj
 0001:0004fa7e       ??1?$__crt_simd_cleanup_guard@$0A@@@QAE@XZ 10050a7e f i libucrt:strnlen.obj
 0001:0004fa7f       ?compare_equals@?$__crt_simd_traits@$00E@@SA?AT__m256i@@T2@0@Z 10050a7f f i libucrt:strnlen.obj
 0001:0004fa84       ?compare_equals@?$__crt_simd_traits@$00G@@SA?AT__m256i@@T2@0@Z 10050a84 f i libucrt:strnlen.obj
 0001:0004fa89       ?compare_equals@?$__crt_simd_traits@$0A@E@@SA?AT__m128i@@T2@0@Z 10050a89 f i libucrt:strnlen.obj
 0001:0004fa8e       ?compare_equals@?$__crt_simd_traits@$0A@G@@SA?AT__m128i@@T2@0@Z 10050a8e f i libucrt:strnlen.obj
 0001:0004fa93       ?compute_byte_mask@?$__crt_simd_pack_traits@$00@@SAHT__m256i@@@Z 10050a93 f i libucrt:strnlen.obj
 0001:0004fa98       ?compute_byte_mask@?$__crt_simd_pack_traits@$0A@@@SAHT__m128i@@@Z 10050a98 f i libucrt:strnlen.obj
 0001:0004fa9d       ?get_zero_pack@?$__crt_simd_pack_traits@$00@@SA?AT__m256i@@XZ 10050a9d f i libucrt:strnlen.obj
 0001:0004faa2       ?get_zero_pack@?$__crt_simd_pack_traits@$0A@@@SA?AT__m128i@@XZ 10050aa2 f i libucrt:strnlen.obj
 0001:0004faa6       _strnlen                   10050aa6 f   libucrt:strnlen.obj
 0001:0004fc10       _wcslen                    10050c10 f   libucrt:strnlen.obj
 0001:0004fd82       _wcsnlen                   10050d82 f   libucrt:strnlen.obj
 0001:0004ff9e       ?__acrt_fp_classify@@YA?AW4__acrt_fp_class@@ABN@Z 10050f9e f i libucrt:cvt.obj
 0001:00050018       ?__acrt_fp_is_negative@@YA_NABN@Z 10051018 f i libucrt:cvt.obj
 0001:00050a9d       ?strrchr@@YAPADQADH@Z      10051a9d f i libucrt:cvt.obj
 0001:00050aaa       ___acrt_fp_format          10051aaa f   libucrt:cvt.obj
 0001:00050c72       __fputwc_nolock            10051c72 f   libucrt:fputwc.obj
 0001:00050de6       __fputwchar                10051de6 f   libucrt:fputwc.obj
 0001:00050e06       __putwc_nolock             10051e06 f   libucrt:fputwc.obj
 0001:00050e13       _fputwc                    10051e13 f   libucrt:fputwc.obj
 0001:00050ea4       _putwc                     10051ea4 f   libucrt:fputwc.obj
 0001:00050eb1       _putwchar                  10051eb1 f   libucrt:fputwc.obj
 0001:00050ebe       __fputc_nolock             10051ebe f   libucrt:fputc.obj
 0001:00050ef1       __fputchar                 10051ef1 f   libucrt:fputc.obj
 0001:00050f11       __putc_nolock              10051f11 f   libucrt:fputc.obj
 0001:00050f1e       _fputc                     10051f1e f   libucrt:fputc.obj
 0001:0005105c       _putc                      1005205c f   libucrt:fputc.obj
 0001:00051069       _putchar                   10052069 f   libucrt:fputc.obj
 0001:00051076       __get_printf_count_output  10052076 f   libucrt:printf_count_output.obj
 0001:00051090       __set_printf_count_output  10052090 f   libucrt:printf_count_output.obj
 0001:000510c4       __chgsign                  100520c4 f   libucrt:ieeemisc.obj
 0001:000510fe       __chgsignf                 100520fe f   libucrt:ieeemisc.obj
 0001:00051129       __copysign                 10052129 f   libucrt:ieeemisc.obj
 0001:0005115d       __copysignf                1005215d f   libucrt:ieeemisc.obj
 0001:00051182       __finite                   10052182 f   libucrt:ieeemisc.obj
 0001:000511a2       __fpclass                  100521a2 f   libucrt:ieeemisc.obj
 0001:0005126f       __isnan                    1005226f f   libucrt:ieeemisc.obj
 0001:000512b2       __logb                     100522b2 f   libucrt:ieeemisc.obj
 0001:000513b7       __nextafter                100523b7 f   libucrt:ieeemisc.obj
 0001:000513dd       __scalb                    100523dd f   libucrt:ieeemisc.obj
 0001:000513fd       __add_exp                  100523fd f   libucrt:util.obj
 0001:00051437       __decomp                   10052437 f   libucrt:util.obj
 0001:0005154c       __get_exp                  1005254c f   libucrt:util.obj
 0001:0005156a       __set_bexp                 1005256a f   libucrt:util.obj
 0001:0005159d       __set_exp                  1005259d f   libucrt:util.obj
 0001:000515d7       __sptype                   100525d7 f   libucrt:util.obj
 0001:0005164c       ___clrfp_sse2              1005264c f   libucrt:fpctrl.obj
 0001:00051675       ___ctrlfp_sse2             10052675 f   libucrt:fpctrl.obj
 0001:000516be       ___fclrf_sse2              100526be f   libucrt:fpctrl.obj
 0001:000516e4       ___get_fpsr_sse2           100526e4 f   libucrt:fpctrl.obj
 0001:00051709       ___set_fpsr_sse2           10052709 f   libucrt:fpctrl.obj
 0001:0005179c       ___set_statfp_sse2         1005279c f   libucrt:fpctrl.obj
 0001:000517bd       ___statfp_sse2             100527bd f   libucrt:fpctrl.obj
 0001:000517d7       __clrfp                    100527d7 f   libucrt:fpctrl.obj
 0001:000517ee       __ctrlfp                   100527ee f   libucrt:fpctrl.obj
 0001:00051825       __set_statfp               10052825 f   libucrt:fpctrl.obj
 0001:00051896       __statfp                   10052896 f   libucrt:fpctrl.obj
 0001:000518ac       ??$__crt_fast_decode_pointer@P6AHPAU_exception@@@Z@@YAP6AHPAU_exception@@@ZQ6AH0@Z@Z 100528ac f i libucrt:matherr.obj
 0001:000518c7       ??$__crt_fast_encode_pointer@P6AHPAU_exception@@@Z@@YAP6AHPAU_exception@@@ZQ6AH0@Z@Z 100528c7 f i libucrt:matherr.obj
 0001:000518ed       ?initialize@?$dual_state_global@P6AHPAU_exception@@@Z@__crt_state_management@@QAEXQ6AHPAU_exception@@@Z@Z 100528ed f i libucrt:matherr.obj
 0001:0005191c       ?value@?$dual_state_global@P6AHPAU_exception@@@Z@__crt_state_management@@QAEAAP6AHPAU_exception@@@ZXZ 1005291c f i libucrt:matherr.obj
 0001:0005191f       ___acrt_has_user_matherr   1005291f f   libucrt:matherr.obj
 0001:0005193d       ___acrt_initialize_user_matherr 1005293d f   libucrt:matherr.obj
 0001:0005194f       ___acrt_invoke_user_matherr 1005294f f   libucrt:matherr.obj
 0001:000519aa       ___setusermatherr          100529aa f   libucrt:matherr.obj
 0001:000524b5       ??$find_first_file_ex@ABQADW4_FINDEX_INFO_LEVELS@@PAU_WIN32_FIND_DATAA@@W4_FINDEX_SEARCH_OPS@@$$TH@?$__crt_char_traits@D@@SAPAXABQAD$$QAW4_FINDEX_INFO_LEVELS@@$$QAPAU_WIN32_FIND_DATAA@@$$QAW4_FINDEX_SEARCH_OPS@@$$QA$$T$$QAH@Z 100534b5 f i libucrt:argv_wildcards.obj
 0001:000524ed       ??$find_first_file_ex@ABQA_WW4_FINDEX_INFO_LEVELS@@PAU_WIN32_FIND_DATAW@@W4_FINDEX_SEARCH_OPS@@$$TH@?$__crt_char_traits@_W@@SAPAXABQA_W$$QAW4_FINDEX_INFO_LEVELS@@$$QAPAU_WIN32_FIND_DATAW@@$$QAW4_FINDEX_SEARCH_OPS@@$$QA$$T$$QAH@Z 100534ed f i libucrt:argv_wildcards.obj
 0001:00052522       ??$find_next_file@PAXPAU_WIN32_FIND_DATAA@@@?$__crt_char_traits@D@@SAH$$QAPAX$$QAPAU_WIN32_FIND_DATAA@@@Z 10053522 f i libucrt:argv_wildcards.obj
 0001:00052540       ??$find_next_file@PAXPAU_WIN32_FIND_DATAW@@@?$__crt_char_traits@_W@@SAH$$QAPAX$$QAPAU_WIN32_FIND_DATAW@@@Z 10053540 f i libucrt:argv_wildcards.obj
 0001:0005255c       ??$tcsncpy_s@AAPADIAAPADABI@?$__crt_char_traits@D@@SAHAAPAD$$QAI0ABI@Z 1005355c f i libucrt:argv_wildcards.obj
 0001:00052587       ??$tcsncpy_s@AAPA_WIAAPA_WABI@?$__crt_char_traits@_W@@SAHAAPA_W$$QAI0ABI@Z 10053587 f i libucrt:argv_wildcards.obj
 0001:000525b2       ??$tcsncpy_s@PADABIABQBDABI@?$__crt_char_traits@D@@SAH$$QAPADABIABQBD1@Z 100535b2 f i libucrt:argv_wildcards.obj
 0001:000525dd       ??$tcsncpy_s@PADIABQBDABI@?$__crt_char_traits@D@@SAH$$QAPAD$$QAIABQBDABI@Z 100535dd f i libucrt:argv_wildcards.obj
 0001:00052608       ??$tcsncpy_s@PA_WABIABQB_WABI@?$__crt_char_traits@_W@@SAH$$QAPA_WABIABQB_W1@Z 10053608 f i libucrt:argv_wildcards.obj
 0001:00052633       ??$tcsncpy_s@PA_WIABQB_WABI@?$__crt_char_traits@_W@@SAH$$QAPA_W$$QAIABQB_WABI@Z 10053633 f i libucrt:argv_wildcards.obj
 0001:0005265e       ??$tcspbrk@AAPADAAY02$$CBD@?$__crt_char_traits@D@@SAPADAAPADAAY02$$CBD@Z 1005365e f i libucrt:argv_wildcards.obj
 0001:00052679       ??$tcspbrk@AAPA_WAAY02$$CB_W@?$__crt_char_traits@_W@@SAPA_WAAPA_WAAY02$$CB_W@Z 10053679 f i libucrt:argv_wildcards.obj
 0001:00052694       ??0?$__crt_unique_handle_t@U__crt_findfile_traits@@@@QAE@QAX@Z 10053694 f i libucrt:argv_wildcards.obj
 0001:000526c8       ??1?$__crt_unique_handle_t@U__crt_findfile_traits@@@@QAE@XZ 100536c8 f i libucrt:argv_wildcards.obj
 0001:00052872       ?close@?$__crt_unique_handle_t@U__crt_findfile_traits@@@@QAEXXZ 10053872 f i libucrt:argv_wildcards.obj
 0001:0005288e       ?close@__crt_findfile_traits@@SA_NPAX@Z 1005388e f i libucrt:argv_wildcards.obj
 0001:00052a00       ?get@?$__crt_unique_handle_t@U__crt_findfile_traits@@@@QBEPAXXZ 10053a00 f i libucrt:argv_wildcards.obj
 0001:00052a03       ?get_invalid_value@__crt_findfile_traits@@SAPAXXZ 10053a03 f i libucrt:argv_wildcards.obj
 0001:00052a3a       ?strpbrk@@YAPADQADQBD@Z    10053a3a f i libucrt:argv_wildcards.obj
 0001:00052a47       ?wcspbrk@@YAPA_WPA_WPB_W@Z 10053a47 f i libucrt:argv_wildcards.obj
 0001:00052a54       ___acrt_expand_narrow_argv_wildcards 10053a54 f   libucrt:argv_wildcards.obj
 0001:00052a61       ___acrt_expand_wide_argv_wildcards 10053a61 f   libucrt:argv_wildcards.obj
 0001:00052af3       ??$initialize_from_array@$$BY10BAA@E@?$dual_state_global@PAE@__crt_state_management@@QAAXAAY10BAA@E@Z 10053af3 f i libucrt:mbctype.obj
 0001:00052b05       ??$initialize_from_array@$$BY10BAB@E@?$dual_state_global@PAE@__crt_state_management@@QAAXAAY10BAB@E@Z 10053b05 f i libucrt:mbctype.obj
 0001:00052c64       ?dangerous_get_state_array@?$dual_state_global@PAE@__crt_state_management@@QAEPAPAEXZ 10053c64 f i libucrt:mbctype.obj
 0001:00052c67       ?dangerous_get_state_array@?$dual_state_global@PAU__crt_multibyte_data@@@__crt_state_management@@QAEPAPAU__crt_multibyte_data@@XZ 10053c67 f i libucrt:mbctype.obj
 0001:00052cf9       ?initialize@?$dual_state_global@PAU__crt_multibyte_data@@@__crt_state_management@@QAEXQAU__crt_multibyte_data@@@Z 10053cf9 f i libucrt:mbctype.obj
 0001:000531e8       ?value@?$dual_state_global@PAE@__crt_state_management@@QAEAAPAEXZ 100541e8 f i libucrt:mbctype.obj
 0001:000531eb       ___acrt_initialize_multibyte 100541eb f   libucrt:mbctype.obj
 0001:00053245       ___acrt_update_thread_multibyte_data 10054245 f   libucrt:mbctype.obj
 0001:0005325c       ___p__mbcasemap            1005425c f   libucrt:mbctype.obj
 0001:00053262       ___p__mbctype              10054262 f   libucrt:mbctype.obj
 0001:00053268       __getmbcp                  10054268 f   libucrt:mbctype.obj
 0001:000532ab       __setmbcp                  100542ab f   libucrt:mbctype.obj
 0001:000532d1       __setmbcp_nolock           100542d1 f   libucrt:mbctype.obj
 0001:0005365a       __ismbbalnum               1005465a f   libucrt:ismbbyte.obj
 0001:0005367b       __ismbbalnum_l             1005467b f   libucrt:ismbbyte.obj
 0001:0005369e       __ismbbalpha               1005469e f   libucrt:ismbbyte.obj
 0001:000536bf       __ismbbalpha_l             100546bf f   libucrt:ismbbyte.obj
 0001:000536e2       __ismbbblank               100546e2 f   libucrt:ismbbyte.obj
 0001:0005370d       __ismbbblank_l             1005470d f   libucrt:ismbbyte.obj
 0001:0005373a       __ismbbgraph               1005473a f   libucrt:ismbbyte.obj
 0001:0005375b       __ismbbgraph_l             1005475b f   libucrt:ismbbyte.obj
 0001:0005377e       __ismbbkalnum              1005477e f   libucrt:ismbbyte.obj
 0001:0005379c       __ismbbkalnum_l            1005479c f   libucrt:ismbbyte.obj
 0001:000537bb       __ismbbkana                100547bb f   libucrt:ismbbyte.obj
 0001:000537d2       __ismbbkana_l              100547d2 f   libucrt:ismbbyte.obj
 0001:00053837       __ismbbkprint              10054837 f   libucrt:ismbbyte.obj
 0001:00053855       __ismbbkprint_l            10054855 f   libucrt:ismbbyte.obj
 0001:00053874       __ismbbkpunct              10054874 f   libucrt:ismbbyte.obj
 0001:00053892       __ismbbkpunct_l            10054892 f   libucrt:ismbbyte.obj
 0001:000538b1       __ismbblead                100548b1 f   libucrt:ismbbyte.obj
 0001:000538cf       __ismbblead_l              100548cf f   libucrt:ismbbyte.obj
 0001:000538ee       __ismbbprint               100548ee f   libucrt:ismbbyte.obj
 0001:0005390f       __ismbbprint_l             1005490f f   libucrt:ismbbyte.obj
 0001:00053932       __ismbbpunct               10054932 f   libucrt:ismbbyte.obj
 0001:00053950       __ismbbpunct_l             10054950 f   libucrt:ismbbyte.obj
 0001:0005396f       __ismbbtrail               1005496f f   libucrt:ismbbyte.obj
 0001:0005398d       __ismbbtrail_l             1005498d f   libucrt:ismbbyte.obj
 0001:000539ac       ___acrt_initialize_command_line 100549ac f   libucrt:argv_data.obj
 0001:000539cb       ___acrt_uninitialize_command_line 100549cb f   libucrt:argv_data.obj
 0001:000539ce       ___p___argc                100549ce f   libucrt:argv_data.obj
 0001:000539d4       ___p___argv                100549d4 f   libucrt:argv_data.obj
 0001:000539da       ___p___wargv               100549da f   libucrt:argv_data.obj
 0001:000539e0       ___p__acmdln               100549e0 f   libucrt:argv_data.obj
 0001:000539e6       ___p__pgmptr               100549e6 f   libucrt:argv_data.obj
 0001:000539ec       ___p__wcmdln               100549ec f   libucrt:argv_data.obj
 0001:000539f2       ___p__wpgmptr              100549f2 f   libucrt:argv_data.obj
 0001:000539f8       __get_pgmptr               100549f8 f   libucrt:argv_data.obj
 0001:00053a35       __get_wpgmptr              10054a35 f   libucrt:argv_data.obj
 0001:00053af0       ___acrt_WideCharToMultiByte 10054af0 f   libucrt:widechartomultibyte.obj
 0001:00053c82       ___dcrt_get_narrow_environment_from_os 10054c82 f   libucrt:get_environment_from_os.obj
 0001:00053d29       ___dcrt_get_wide_environment_from_os 10054d29 f   libucrt:get_environment_from_os.obj
 0001:0005462d       ??$get_or_create_environment_nolock@$$V@?$__crt_char_traits@D@@SAPAPADXZ 1005562d f i libucrt:setenv.obj
 0001:00054632       ??$get_or_create_environment_nolock@$$V@?$__crt_char_traits@_W@@SAPAPA_WXZ 10055632 f i libucrt:setenv.obj
 0001:00054637       ??$set_environment_variable@ABQADQAD@?$__crt_char_traits@D@@SAHABQAD$$QBQAD@Z 10055637 f i libucrt:setenv.obj
 0001:00054655       ??$set_environment_variable@ABQA_WQA_W@?$__crt_char_traits@_W@@SAHABQA_W$$QBQA_W@Z 10055655 f i libucrt:setenv.obj
 0001:00054671       ??$tcschr@ABQADD@?$__crt_char_traits@D@@SAPADABQAD$$QAD@Z 10055671 f i libucrt:setenv.obj
 0001:00054691       ??$tcschr@ABQA_WD@?$__crt_char_traits@_W@@SAPA_WABQA_W$$QAD@Z 10055691 f i libucrt:setenv.obj
 0001:000546b6       ??$tcscpy_s@AAPADABIAAPAD@?$__crt_char_traits@D@@SAHAAPADABI0@Z 100556b6 f i libucrt:setenv.obj
 0001:000546db       ??$tcscpy_s@AAPA_WABIAAPA_W@?$__crt_char_traits@_W@@SAHAAPA_WABI0@Z 100556db f i libucrt:setenv.obj
 0001:00054700       ??$tcscpy_s@ABQADABIABQAD@?$__crt_char_traits@D@@SAHABQADABI0@Z 10055700 f i libucrt:setenv.obj
 0001:00054725       ??$tcscpy_s@ABQA_WABIABQA_W@?$__crt_char_traits@_W@@SAHABQA_WABI0@Z 10055725 f i libucrt:setenv.obj
 0001:0005474a       ??$tcsnicoll@ABQBDAAPADABI@?$__crt_char_traits@D@@SAHABQBDAAPADABI@Z 1005574a f i libucrt:setenv.obj
 0001:0005476f       ??$tcsnicoll@ABQB_WAAPA_WABI@?$__crt_char_traits@_W@@SAHABQB_WAAPA_WABI@Z 1005576f f i libucrt:setenv.obj
 0001:000547b8       ?strchr@@YAPADQADH@Z       100557b8 f i libucrt:setenv.obj
 0001:000547c5       ?wcschr@@YAPA_WPA_W_W@Z    100557c5 f i libucrt:setenv.obj
 0001:000547d2       ___dcrt_set_variable_in_narrow_environment_nolock 100557d2 f   libucrt:setenv.obj
 0001:000547df       ___dcrt_set_variable_in_wide_environment_nolock 100557df f   libucrt:setenv.obj
 0001:000547ec       __recalloc                 100557ec f   libucrt:recalloc.obj
 0001:000547f9       __recalloc_base            100557f9 f   libucrt:recalloc.obj
 0001:00054881       ___acrt_getheap            10055881 f   libucrt:heap_handle.obj
 0001:00054887       ___acrt_initialize_heap    10055887 f   libucrt:heap_handle.obj
 0001:0005489c       ___acrt_uninitialize_heap  1005589c f   libucrt:heap_handle.obj
 0001:000548a8       __get_heap_handle          100558a8 f   libucrt:heap_handle.obj
 0001:000548ae       ___acrt_execute_initializers 100558ae f   libucrt:shared_initialization.obj
 0001:00054951       ___acrt_execute_uninitializers 10055951 f   libucrt:shared_initialization.obj
 0001:000549ab       ??$?B$$A6AHI@Z@__crt_fast_encoded_nullptr_t@@QBEP6AHI@ZXZ 100559ab f i libucrt:new_handler.obj
 0001:000549c9       ??$__crt_fast_decode_pointer@P6AHI@Z@@YAP6AHI@ZQ6AHI@Z@Z 100559c9 f i libucrt:new_handler.obj
 0001:000549e4       ??$__crt_fast_encode_pointer@P6AHI@Z@@YAP6AHI@ZQ6AHI@Z@Z 100559e4 f i libucrt:new_handler.obj
 0001:00054a0a       ?_set_new_handler@@YAP6AHI@ZH@Z 10055a0a f   libucrt:new_handler.obj
 0001:00054a30       ?initialize@?$dual_state_global@P6AHI@Z@__crt_state_management@@QAEXQ6AHI@Z@Z 10055a30 f i libucrt:new_handler.obj
 0001:00054a5f       ?value@?$dual_state_global@P6AHI@Z@__crt_state_management@@QAEAAP6AHI@ZXZ 10055a5f f i libucrt:new_handler.obj
 0001:00054a62       ___acrt_initialize_new_handler 10055a62 f   libucrt:new_handler.obj
 0001:00054a74       __callnewh                 10055a74 f   libucrt:new_handler.obj
 0001:00054ac9       __query_new_handler        10055ac9 f   libucrt:new_handler.obj
 0001:00054b2f       __set_new_handler          10055b2f f   libucrt:new_handler.obj
 0001:00054ba7       ___pctype_func             10055ba7 f   libucrt:ctype.obj
 0001:00054bd6       ___pwctype_func            10055bd6 f   libucrt:ctype.obj
 0001:00054bdc       __iswctype_l               10055bdc f   libucrt:iswctype.obj
 0001:00054bf5       _iswctype                  10055bf5 f   libucrt:iswctype.obj
 0001:00054c7a       __isctype                  10055c7a f   libucrt:isctype.obj
 0001:00054cb8       __isctype_l                10055cb8 f   libucrt:isctype.obj
 0001:00054dc6       ?value@?$dual_state_global@J@__crt_state_management@@QAEAAJXZ 10055dc6 f i libucrt:new_mode.obj
 0001:00054dc9       __query_new_mode           10055dc9 f   libucrt:new_mode.obj
 0001:00054dcf       __set_new_mode             10055dcf f   libucrt:new_mode.obj
 0001:00054f08       _wcsncpy_s                 10055f08 f   libucrt:wcsncpy_s.obj
 0001:00055123       __mbstowcs_l               10056123 f   libucrt:mbstowcs.obj
 0001:00055130       __mbstowcs_s_l             10056130 f   libucrt:mbstowcs.obj
 0001:0005524a       _mbstowcs                  1005624a f   libucrt:mbstowcs.obj
 0001:0005527e       _mbstowcs_s                1005627e f   libucrt:mbstowcs.obj
 0001:000552a6       ___acrt_OutputDebugStringA@4 100562a6 f   libucrt:outputdebugstringa.obj
 0001:000554e3       __commit                   100564e3 f   libucrt:commit.obj
 0001:0005572d       ___acrt_DownlevelLCIDToLocaleName 1005672d f   libucrt:lcidtoname_downlevel.obj
 0001:00055801       ___acrt_DownlevelLocaleNameToLCID 10056801 f   libucrt:lcidtoname_downlevel.obj
 0001:00055838       ??$?RU__crt_lowio_handle_data@@@__crt_internal_free_policy@@QBEXQBU__crt_lowio_handle_data@@@Z 10056838 f i libucrt:osfinfo.obj
 0001:0005584e       ??0?$__crt_unique_heap_ptr@U__crt_lowio_handle_data@@U__crt_internal_free_policy@@@@QAE@QAU__crt_lowio_handle_data@@@Z 1005684e f i libucrt:osfinfo.obj
 0001:00055862       ??1?$__crt_unique_heap_ptr@U__crt_lowio_handle_data@@U__crt_internal_free_policy@@@@QAE@XZ 10056862 f i libucrt:osfinfo.obj
 0001:00055878       ??B?$__crt_unique_heap_ptr@U__crt_lowio_handle_data@@U__crt_internal_free_policy@@@@QBE_NXZ 10056878 f i libucrt:osfinfo.obj
 0001:0005587f       ?detach@?$__crt_unique_heap_ptr@U__crt_lowio_handle_data@@U__crt_internal_free_policy@@@@QAEPAU__crt_lowio_handle_data@@XZ 1005687f f i libucrt:osfinfo.obj
 0001:00055885       ?get@?$__crt_unique_heap_ptr@U__crt_lowio_handle_data@@U__crt_internal_free_policy@@@@QBEPAU__crt_lowio_handle_data@@XZ 10056885 f i libucrt:osfinfo.obj
 0001:00055888       ?is_valid@?$__crt_unique_heap_ptr@U__crt_lowio_handle_data@@U__crt_internal_free_policy@@@@QBE_NXZ 10056888 f i libucrt:osfinfo.obj
 0001:0005588f       ?release@?$__crt_unique_heap_ptr@U__crt_lowio_handle_data@@U__crt_internal_free_policy@@@@QAEXXZ 1005688f f i libucrt:osfinfo.obj
 0001:000558a5       ___acrt_lowio_create_handle_array 100568a5 f   libucrt:osfinfo.obj
 0001:0005593d       ___acrt_lowio_destroy_handle_array 1005693d f   libucrt:osfinfo.obj
 0001:0005597f       ___acrt_lowio_ensure_fh_exists 1005697f f   libucrt:osfinfo.obj
 0001:00055a38       ___acrt_lowio_lock_fh      10056a38 f   libucrt:osfinfo.obj
 0001:00055a63       ___acrt_lowio_set_os_handle 10056a63 f   libucrt:osfinfo.obj
 0001:00055b1c       ___acrt_lowio_unlock_fh    10056b1c f   libucrt:osfinfo.obj
 0001:00055b47       __alloc_osfhnd             10056b47 f   libucrt:osfinfo.obj
 0001:00055c92       __free_osfhnd              10056c92 f   libucrt:osfinfo.obj
 0001:00055d47       __get_osfhandle            10056d47 f   libucrt:osfinfo.obj
 0001:00055dcb       __open_osfhandle           10056dcb f   libucrt:osfinfo.obj
 0001:00055f1a       __wcsnicmp                 10056f1a f   libucrt:wcsnicmp.obj
 0001:00055ff7       __wcsnicmp_l               10056ff7 f   libucrt:wcsnicmp.obj
 0001:00056133       __strnicmp                 10057133 f   libucrt:strnicmp.obj
 0001:000561bb       __strnicmp_l               100571bb f   libucrt:strnicmp.obj
 0001:00056344       ??$__vcrt_va_start_verify_argument_type@$$CBH@@YAXXZ 10057344 f i libucrt:open.obj
 0001:000566b5       ??$tsopen_nolock@PAHABQAHABQBDABHABHABHABH@?$__crt_char_traits@D@@SAH$$QAPAHABQAHABQBDABH333@Z 100576b5 f i libucrt:open.obj
 0001:000566f3       ??$tsopen_nolock@PAHABQAHABQB_WABHABHABHABH@?$__crt_char_traits@_W@@SAH$$QAPAHABQAHABQB_WABH333@Z 100576f3 f i libucrt:open.obj
 0001:00056731       ??$tsopen_nolock@PAHPAHABQBDABHHABHH@?$__crt_char_traits@D@@SAH$$QAPAH0ABQBDABH$$QAH23@Z 10057731 f i libucrt:open.obj
 0001:0005676f       ??$tsopen_nolock@PAHPAHABQB_WABHHABHH@?$__crt_char_traits@_W@@SAH$$QAPAH0ABQB_WABH$$QAH23@Z 1005776f f i libucrt:open.obj
 0001:00056f61       __open                     10057f61 f   libucrt:open.obj
 0001:00056f7f       __sopen                    10057f7f f   libucrt:open.obj
 0001:00056fc1       __sopen_dispatch           10057fc1 f   libucrt:open.obj
 0001:00056fce       __sopen_nolock             10057fce f   libucrt:open.obj
 0001:0005705a       __sopen_s                  1005805a f   libucrt:open.obj
 0001:00057082       __wopen                    10058082 f   libucrt:open.obj
 0001:000570a0       __wsopen                   100580a0 f   libucrt:open.obj
 0001:000570e2       __wsopen_dispatch          100580e2 f   libucrt:open.obj
 0001:000570ef       __wsopen_nolock            100580ef f   libucrt:open.obj
 0001:000574e6       __wsopen_s                 100584e6 f   libucrt:open.obj
 0001:0005750e       ___p__commode              1005850e f   libucrt:ncommode.obj
 0001:00057514       __isatty                   10058514 f   libucrt:isatty.obj
 0001:0005757f       ___acrt_stdio_allocate_buffer_nolock 1005857f f   libucrt:_getbuf.obj
 0001:000576fb       __putwch                   100586fb f   libucrt:putwch.obj
 0001:00057735       __putwch_nolock            10058735 f   libucrt:putwch.obj
 0001:00057776       ___acrt_add_locale_ref     10058776 f   libucrt:locale_refcounting.obj
 0001:00057812       ___acrt_free_locale        10058812 f   libucrt:locale_refcounting.obj
 0001:000579ae       ___acrt_locale_add_lc_time_reference 100589ae f   libucrt:locale_refcounting.obj
 0001:000579e1       ___acrt_locale_free_lc_time_if_unreferenced 100589e1 f   libucrt:locale_refcounting.obj
 0001:00057a1d       ___acrt_locale_release_lc_time_reference 10058a1d f   libucrt:locale_refcounting.obj
 0001:00057a50       ___acrt_release_locale_ref 10058a50 f   libucrt:locale_refcounting.obj
 0001:00057af1       ___acrt_update_thread_locale_data 10058af1 f   libucrt:locale_refcounting.obj
 0001:00057b85       __updatetlocinfoEx_nolock  10058b85 f   libucrt:locale_refcounting.obj
 0001:00057be9       ??$?RG@__crt_internal_free_policy@@QBEXQBG@Z 10058be9 f i libucrt:initctype.obj
 0001:00057bff       ??$?RJ@__crt_internal_free_policy@@QBEXQBJ@Z 10058bff f i libucrt:initctype.obj
 0001:00057c15       ??0?$__crt_unique_heap_ptr@GU__crt_internal_free_policy@@@@QAE@QAG@Z 10058c15 f i libucrt:initctype.obj
 0001:00057c29       ??0?$__crt_unique_heap_ptr@JU__crt_internal_free_policy@@@@QAE@QAJ@Z 10058c29 f i libucrt:initctype.obj
 0001:00057c3d       ??1?$__crt_unique_heap_ptr@GU__crt_internal_free_policy@@@@QAE@XZ 10058c3d f i libucrt:initctype.obj
 0001:00057c53       ??1?$__crt_unique_heap_ptr@JU__crt_internal_free_policy@@@@QAE@XZ 10058c53 f i libucrt:initctype.obj
 0001:00057c69       ?detach@?$__crt_unique_heap_ptr@GU__crt_internal_free_policy@@@@QAEPAGXZ 10058c69 f i libucrt:initctype.obj
 0001:00057c6f       ?detach@?$__crt_unique_heap_ptr@JU__crt_internal_free_policy@@@@QAEPAJXZ 10058c6f f i libucrt:initctype.obj
 0001:00057c75       ?release@?$__crt_unique_heap_ptr@GU__crt_internal_free_policy@@@@QAEXXZ 10058c75 f i libucrt:initctype.obj
 0001:00057c8b       ?release@?$__crt_unique_heap_ptr@JU__crt_internal_free_policy@@@@QAEXXZ 10058c8b f i libucrt:initctype.obj
 0001:00057ca1       ____lc_codepage_func       10058ca1 f   libucrt:initctype.obj
 0001:00057cd1       ____lc_collate_cp_func     10058cd1 f   libucrt:initctype.obj
 0001:00057d01       ____lc_locale_name_func    10058d01 f   libucrt:initctype.obj
 0001:00057d34       ____mb_cur_max_func        10058d34 f   libucrt:initctype.obj
 0001:00057d64       ____mb_cur_max_l_func      10058d64 f   libucrt:initctype.obj
 0001:00057d83       ___acrt_locale_initialize_ctype 10058d83 f   libucrt:initctype.obj
 0001:000582c4       ??$?RUlconv@@@__crt_internal_free_policy@@QBEXQBUlconv@@@Z 100592c4 f i libucrt:initmon.obj
 0001:000582da       ??0?$__crt_unique_heap_ptr@Ulconv@@U__crt_internal_free_policy@@@@QAE@QAUlconv@@@Z 100592da f i libucrt:initmon.obj
 0001:000582ee       ??1?$__crt_unique_heap_ptr@Ulconv@@U__crt_internal_free_policy@@@@QAE@XZ 100592ee f i libucrt:initmon.obj
 0001:00058304       ?detach@?$__crt_unique_heap_ptr@Ulconv@@U__crt_internal_free_policy@@@@QAEPAUlconv@@XZ 10059304 f i libucrt:initmon.obj
 0001:0005830a       ?release@?$__crt_unique_heap_ptr@Ulconv@@U__crt_internal_free_policy@@@@QAEXXZ 1005930a f i libucrt:initmon.obj
 0001:00058320       ___acrt_locale_free_monetary 10059320 f   libucrt:initmon.obj
 0001:0005845d       ___acrt_locale_initialize_monetary 1005945d f   libucrt:initmon.obj
 0001:0005894a       ___acrt_locale_free_numeric 1005994a f   libucrt:initnum.obj
 0001:000589cd       ___acrt_locale_initialize_numeric 100599cd f   libucrt:initnum.obj
 0001:00058ca8       ??$?RU__crt_lc_time_data@@@__crt_internal_free_policy@@QBEXQBU__crt_lc_time_data@@@Z 10059ca8 f i libucrt:inittime.obj
 0001:00058d48       ??0?$__crt_unique_heap_ptr@U__crt_lc_time_data@@U__crt_internal_free_policy@@@@QAE@QAU__crt_lc_time_data@@@Z 10059d48 f i libucrt:inittime.obj
 0001:00058d5c       ??1?$__crt_unique_heap_ptr@U__crt_lc_time_data@@U__crt_internal_free_policy@@@@QAE@XZ 10059d5c f i libucrt:inittime.obj
 0001:00058d72       ??B?$__crt_unique_heap_ptr@U__crt_lc_time_data@@U__crt_internal_free_policy@@@@QBE_NXZ 10059d72 f i libucrt:inittime.obj
 0001:00058d79       ?detach@?$__crt_unique_heap_ptr@U__crt_lc_time_data@@U__crt_internal_free_policy@@@@QAEPAU__crt_lc_time_data@@XZ 10059d79 f i libucrt:inittime.obj
 0001:00058dc5       ?get@?$__crt_unique_heap_ptr@U__crt_lc_time_data@@U__crt_internal_free_policy@@@@QBEPAU__crt_lc_time_data@@XZ 10059dc5 f i libucrt:inittime.obj
 0001:0005915e       ?is_valid@?$__crt_unique_heap_ptr@U__crt_lc_time_data@@U__crt_internal_free_policy@@@@QBE_NXZ 1005a15e f i libucrt:inittime.obj
 0001:00059165       ?release@?$__crt_unique_heap_ptr@U__crt_lc_time_data@@U__crt_internal_free_policy@@@@QAEXXZ 1005a165 f i libucrt:inittime.obj
 0001:0005917b       ___acrt_locale_free_time   1005a17b f   libucrt:inittime.obj
 0001:00059298       ___acrt_locale_initialize_time 1005a298 f   libucrt:inittime.obj
 0001:00059331       _wcscspn                   1005a331 f   libucrt:wcscspn.obj
 0001:000593a2       _wcspbrk                   1005a3a2 f   libucrt:wcspbrk.obj
 0001:00059403       __wcsicmp                  1005a403 f   libucrt:wcsicmp.obj
 0001:000594b4       __wcsicmp_l                1005a4b4 f   libucrt:wcsicmp.obj
 0001:000595c8       ??0?$__crt_scoped_stack_ptr@_W@@QAE@U?$__crt_scoped_stack_ptr_tag@_W@@@Z 1005a5c8 f i libucrt:getstringtypea.obj
 0001:000595dc       ??0?$__crt_scoped_stack_ptr_tag@_W@@QAE@QA_W@Z 1005a5dc f i libucrt:getstringtypea.obj
 0001:000595f0       ??1?$__crt_scoped_stack_ptr@_W@@QAE@XZ 1005a5f0 f i libucrt:getstringtypea.obj
 0001:000595fb       ?get@?$__crt_scoped_stack_ptr@_W@@QBEPA_WXZ 1005a5fb f i libucrt:getstringtypea.obj
 0001:000595fe       __MallocaComputeSize       1005a5fe f i libucrt:getstringtypea.obj
 0001:00059615       __MarkAllocaS              1005a615 f i libucrt:getstringtypea.obj
 0001:00059630       ___acrt_GetStringTypeA     1005a630 f   libucrt:getstringtypea.obj
 0001:00059776       __freea_crt                1005a776 f i libucrt:getstringtypea.obj
 0001:0005a0cd       ___acrt_get_qualified_locale 1005b0cd f   libucrt:get_qualified_locale.obj
 0001:0005acbb       ___acrt_get_qualified_locale_downlevel 1005bcbb f   libucrt:getqloc_downlevel.obj
 0001:0005af2f       _localeconv                1005bf2f f   libucrt:localeconv.obj
 0001:0005af63       ___iswcsym                 1005bf63 f i libucrt:_wctype.obj
 0001:0005af92       ___iswcsymf                1005bf92 f i libucrt:_wctype.obj
 0001:0005afc1       __isleadbyte_l             1005bfc1 f i libucrt:_wctype.obj
 0001:0005b008       __iswalnum_l               1005c008 f i libucrt:_wctype.obj
 0001:0005b023       __iswalpha_l               1005c023 f i libucrt:_wctype.obj
 0001:0005b03e       __iswblank_l               1005c03e f i libucrt:_wctype.obj
 0001:0005b062       __iswcntrl_l               1005c062 f i libucrt:_wctype.obj
 0001:0005b079       __iswcsym_l                1005c079 f i libucrt:_wctype.obj
 0001:0005b0a8       __iswcsymf_l               1005c0a8 f i libucrt:_wctype.obj
 0001:0005b0d7       __iswdigit_l               1005c0d7 f i libucrt:_wctype.obj
 0001:0005b0ee       __iswgraph_l               1005c0ee f i libucrt:_wctype.obj
 0001:0005b109       __iswlower_l               1005c109 f i libucrt:_wctype.obj
 0001:0005b120       __iswprint_l               1005c120 f i libucrt:_wctype.obj
 0001:0005b13b       __iswpunct_l               1005c13b f i libucrt:_wctype.obj
 0001:0005b152       __iswspace_l               1005c152 f i libucrt:_wctype.obj
 0001:0005b169       __iswupper_l               1005c169 f i libucrt:_wctype.obj
 0001:0005b180       __iswxdigit_l              1005c180 f i libucrt:_wctype.obj
 0001:0005b19b       _isleadbyte                1005c19b f i libucrt:_wctype.obj
 0001:0005b1b2       _iswalnum                  1005c1b2 f i libucrt:_wctype.obj
 0001:0005b1cd       _iswalpha                  1005c1cd f i libucrt:_wctype.obj
 0001:0005b1e8       _iswascii                  1005c1e8 f i libucrt:_wctype.obj
 0001:0005b201       _iswblank                  1005c201 f i libucrt:_wctype.obj
 0001:0005b225       _iswcntrl                  1005c225 f i libucrt:_wctype.obj
 0001:0005b23c       _iswdigit                  1005c23c f i libucrt:_wctype.obj
 0001:0005b253       _iswgraph                  1005c253 f i libucrt:_wctype.obj
 0001:0005b26e       _iswlower                  1005c26e f i libucrt:_wctype.obj
 0001:0005b285       _iswprint                  1005c285 f i libucrt:_wctype.obj
 0001:0005b2a0       _iswpunct                  1005c2a0 f i libucrt:_wctype.obj
 0001:0005b2b7       _iswspace                  1005c2b7 f i libucrt:_wctype.obj
 0001:0005b2ce       _iswupper                  1005c2ce f i libucrt:_wctype.obj
 0001:0005b2e5       _iswxdigit                 1005c2e5 f i libucrt:_wctype.obj
 0001:0005b300       ??B?$__crt_scoped_stack_ptr@_W@@QBE_NXZ 1005c300 f i libucrt:lcmapstringa.obj
 0001:0005b56e       ___acrt_LCMapStringA       1005c56e f   libucrt:lcmapstringa.obj
 0001:0005b602       ?__mbrtowc_utf8@__crt_mbstring@@YAIPA_WPBDIPAU_Mbstatet@@@Z 1005c602 f   libucrt:mbrtowc.obj
 0001:0005b654       ?__mbsrtowcs_utf8@__crt_mbstring@@YAIPA_WPAPBDIPAU_Mbstatet@@@Z 1005c654 f   libucrt:mbrtowc.obj
 0001:0005bb71       _btowc                     1005cb71 f   libucrt:mbrtowc.obj
 0001:0005bbe1       _mbrlen                    1005cbe1 f   libucrt:mbrtowc.obj
 0001:0005bc22       _mbrtowc                   1005cc22 f   libucrt:mbrtowc.obj
 0001:0005bc89       _mbsrtowcs                 1005cc89 f   libucrt:mbrtowc.obj
 0001:0005bc96       _mbsrtowcs_s               1005cc96 f   libucrt:mbrtowc.obj
 0001:0005bd61       ___acrt_fp_strflt_to_string 1005cd61 f   libucrt:_fptostr.obj
 0001:0005d680       ??0big_integer@__crt_strtox@@QAE@ABU01@@Z 1005e680 f i libucrt:cfout.obj
 0001:0005d6c0       ??0big_integer@__crt_strtox@@QAE@XZ 1005e6c0 f i libucrt:cfout.obj
 0001:0005d720       ??4big_integer@__crt_strtox@@QAEAAU01@ABU01@@Z 1005e720 f i libucrt:cfout.obj
 0001:0005d760       ??8__crt_strtox@@YA_NABUbig_integer@0@0@Z 1005e760 f i libucrt:cfout.obj
 0001:0005d7b0       ??9__crt_strtox@@YA_NABUbig_integer@0@0@Z 1005e7b0 f i libucrt:cfout.obj
 0001:0005d800       ?add_carry@__crt_strtox@@YAIAAIII@Z 1005e800 f i libucrt:cfout.obj
 0001:0005d830       ?add_multiply_carry@__crt_strtox@@YAIAAIIII@Z 1005e830 f i libucrt:cfout.obj
 0001:0005d860       ?bit_scan_reverse@__crt_strtox@@YAII@Z 1005e860 f i libucrt:cfout.obj
 0001:0005d890       ?count_sequential_high_zeroes@__crt_strtox@@YAII@Z 1005e890 f i libucrt:cfout.obj
 0001:0005d8c0       ?divide@__crt_strtox@@YA_KAAUbig_integer@1@ABU21@@Z 1005e8c0 f i libucrt:cfout.obj
 0001:0005de70       ?is_zero@__crt_strtox@@YA_NABUbig_integer@1@@Z 1005ee70 f i libucrt:cfout.obj
 0001:0005de90       ?make_big_integer@__crt_strtox@@YA?AUbig_integer@1@_K@Z 1005ee90 f i libucrt:cfout.obj
 0001:0005dec0       ?make_big_integer_power_of_two@__crt_strtox@@YA?AUbig_integer@1@I@Z 1005eec0 f i libucrt:cfout.obj
 0001:0005df20       ?multiply@__crt_strtox@@YA_NAAUbig_integer@1@ABU21@@Z 1005ef20 f i libucrt:cfout.obj
 0001:0005e330       ?multiply@__crt_strtox@@YA_NAAUbig_integer@1@I@Z 1005f330 f i libucrt:cfout.obj
 0001:0005e430       ?multiply_64_32@__crt_strtox@@YA_K_KI@Z 1005f430 f i libucrt:cfout.obj
 0001:0005e450       ?multiply_by_power_of_ten@__crt_strtox@@YA_NAAUbig_integer@1@I@Z 1005f450 f i libucrt:cfout.obj
 0001:0005eac0       ?multiply_core@__crt_strtox@@YAIQAIII@Z 1005fac0 f i libucrt:cfout.obj
 0001:0005eb10       ?shift_left@__crt_strtox@@YA_NAAUbig_integer@1@I@Z 1005fb10 f i libucrt:cfout.obj
 0001:0005ecbb       ___acrt_fltout             1005fcbb f   libucrt:cfout.obj
 0001:000605a6       _nextafter                 100615a6 f   libucrt:nextafter.obj
 0001:000606e0       _qsort                     100616e0 f   libucrt:qsort.obj
 0001:00060d11       _strncpy_s                 10061d11 f   libucrt:strncpy_s.obj
 0001:00060d20       _strpbrk                   10061d20 f   libucrt:strpbrk.obj
 0001:00060d70       ??$__acrt_convert_wcs_mbs@D_W$$A6AIPA_WPBDIPAU__crt_locale_pointers@@@ZU__crt_win32_buffer_internal_dynamic_resizing@@@@YAHQBDAAV?$__crt_win32_buffer@_WU__crt_win32_buffer_internal_dynamic_resizing@@@@A6AIPA_WPBDIPAU__crt_locale_pointers@@@Z4@Z 10061d70 f i libucrt:findfirstfileexa.obj
 0001:00060e39       ??$__acrt_mbs_to_wcs@U__crt_win32_buffer_internal_dynamic_resizing@@@@YAHQBDAAV?$__crt_win32_buffer@_WU__crt_win32_buffer_internal_dynamic_resizing@@@@PAU__crt_locale_pointers@@@Z 10061e39 f i libucrt:findfirstfileexa.obj
 0001:00060e5d       ?set_to_nullptr@?$__crt_win32_buffer@_WU__crt_win32_buffer_internal_dynamic_resizing@@@@QAEXXZ 10061e5d f i libucrt:findfirstfileexa.obj
 0001:00060e79       ___acrt_FindFirstFileExA   10061e79 f   libucrt:findfirstfileexa.obj
 0001:00060ef8       ??$?0$0BAE@@?$__crt_win32_buffer@DU__crt_win32_buffer_no_resizing@@@@QAE@AAY0BAE@D@Z 10061ef8 f i libucrt:findnextfilea.obj
 0001:00060f27       ??$?0$0O@@?$__crt_win32_buffer@DU__crt_win32_buffer_no_resizing@@@@QAE@AAY0O@D@Z 10061f27 f i libucrt:findnextfilea.obj
 0001:00060f54       ??$__acrt_convert_wcs_mbs@_WD$$A6AIPADPB_WIPAU__crt_locale_pointers@@@ZU__crt_win32_buffer_no_resizing@@@@YAHQB_WAAV?$__crt_win32_buffer@DU__crt_win32_buffer_no_resizing@@@@A6AIPADPB_WIPAU__crt_locale_pointers@@@Z4@Z 10061f54 f i libucrt:findnextfilea.obj
 0001:0006101e       ??$__acrt_wcs_to_mbs@U__crt_win32_buffer_no_resizing@@@@YAHQB_WAAV?$__crt_win32_buffer@DU__crt_win32_buffer_no_resizing@@@@PAU__crt_locale_pointers@@@Z 1006201e f i libucrt:findnextfilea.obj
 0001:00061042       ??1?$__crt_win32_buffer@DU__crt_win32_buffer_no_resizing@@@@QAE@XZ 10062042 f i libucrt:findnextfilea.obj
 0001:0006104f       ?_deallocate@?$__crt_win32_buffer@DU__crt_win32_buffer_no_resizing@@@@AAEXXZ 1006204f f i libucrt:findnextfilea.obj
 0001:0006105c       ?allocate@?$__crt_win32_buffer@DU__crt_win32_buffer_no_resizing@@@@QAEHI@Z 1006205c f i libucrt:findnextfilea.obj
 0001:0006108c       ?allocate@__crt_win32_buffer_no_resizing@@SAHQAPAXIABV__crt_win32_buffer_empty_debug_info@@@Z 1006208c f i libucrt:findnextfilea.obj
 0001:0006109c       ?capacity@?$__crt_win32_buffer@DU__crt_win32_buffer_no_resizing@@@@QBEIXZ 1006209c f i libucrt:findnextfilea.obj
 0001:000610a0       ?data@?$__crt_win32_buffer@DU__crt_win32_buffer_no_resizing@@@@QAEPADXZ 100620a0 f i libucrt:findnextfilea.obj
 0001:000610a4       ?deallocate@__crt_win32_buffer_no_resizing@@SAXQAXABV__crt_win32_buffer_empty_debug_info@@@Z 100620a4 f i libucrt:findnextfilea.obj
 0001:000610a5       ?debug_info@?$__crt_win32_buffer@DU__crt_win32_buffer_no_resizing@@@@QBEABV__crt_win32_buffer_empty_debug_info@@XZ 100620a5 f i libucrt:findnextfilea.obj
 0001:000610a8       ?set_to_nullptr@?$__crt_win32_buffer@DU__crt_win32_buffer_no_resizing@@@@QAEXXZ 100620a8 f i libucrt:findnextfilea.obj
 0001:000610c1       ?size@?$__crt_win32_buffer@DU__crt_win32_buffer_no_resizing@@@@QAEXI@Z 100620c1 f i libucrt:findnextfilea.obj
 0001:000610d3       ___acrt_FindNextFileA      100620d3 f   libucrt:findnextfilea.obj
 0001:00061264       __mbsdec                   10062264 f   libucrt:mbsdec.obj
 0001:00061280       __mbsdec_l                 10062280 f   libucrt:mbsdec.obj
 0001:00061344       __wcsnicoll                10062344 f   libucrt:wcsnicol.obj
 0001:0006143c       __wcsnicoll_l              1006243c f   libucrt:wcsnicol.obj
 0001:000615a1       __strnicoll                100625a1 f   libucrt:strnicol.obj
 0001:000615d4       __strnicoll_l              100625d4 f   libucrt:strnicol.obj
 0001:000616d0       ___acrt_SetEnvironmentVariableA 100626d0 f   libucrt:setenvironmentvariablea.obj
 0001:0006179f       __msize                    1006279f f   libucrt:msize.obj
 0001:000617ac       __msize_base               100627ac f   libucrt:msize.obj
 0001:000617eb       ___acrt_GetStringTypeW     100627eb f   libucrt:getstringtypew.obj
 0001:0006180a       __towlower_l               1006280a f   libucrt:towlower.obj
 0001:00061905       _towlower                  10062905 f   libucrt:towlower.obj
 0001:00061920       ___ascii_strnicmp          10062920 f   libucrt:_strnicm.obj
 0001:00061999       ??$__crt_interlocked_read@H@@YAHPDH@Z 10062999 f i libucrt:setmode.obj
 0001:000619a8       ?value@?$dual_state_global@H@__crt_state_management@@QAEAAHXZ 100629a8 f i libucrt:setmode.obj
 0001:000619ab       __get_fmode                100629ab f   libucrt:setmode.obj
 0001:000619e2       __set_fmode                100629e2 f   libucrt:setmode.obj
 0001:00061a2e       __setmode                  10062a2e f   libucrt:setmode.obj
 0001:00061b76       __setmode_nolock           10062b76 f   libucrt:setmode.obj
 0001:00061e07       __chsize                   10062e07 f   libucrt:chsize.obj
 0001:00061e2a       __chsize_nolock            10062e2a f   libucrt:chsize.obj
 0001:0006201f       __chsize_s                 1006301f f   libucrt:chsize.obj
 0001:000620f7       __umask                    100630f7 f   libucrt:umask.obj
 0001:00062125       __umask_s                  10063125 f   libucrt:umask.obj
 0001:00062248       ___dcrt_lowio_ensure_console_output_initialized 10063248 f   libucrt:initcon.obj
 0001:0006226e       ___dcrt_terminate_console_output 1006326e f   libucrt:initcon.obj
 0001:0006228a       ___dcrt_write_console      1006328a f   libucrt:initcon.obj
 0001:0006240d       ___acrt_GetLocaleInfoA     1006340d f   libucrt:getlocaleinfoa.obj
 0001:0006262b       ___strncnt                 1006362b f   libucrt:strncnt.obj
 0001:0006264e       ?__mbrtoc32_utf8@__crt_mbstring@@YAIPA_UPBDIPAU_Mbstatet@@@Z 1006364e f   libucrt:mbrtoc32.obj
 0001:0006286f       ?reset_and_return@__crt_mbstring@@YAIIPAU_Mbstatet@@@Z 1006386f f i libucrt:mbrtoc32.obj
 0001:00062888       ?return_illegal_sequence@__crt_mbstring@@YAIPAU_Mbstatet@@@Z 10063888 f i libucrt:mbrtoc32.obj
 0001:000628ae       _mbrtoc32                  100638ae f   libucrt:mbrtoc32.obj
 0001:000628bb       _fegetenv                  100638bb f   libucrt:fegetenv.obj
 0001:000628df       _fesetenv                  100638df f   libucrt:fesetenv.obj
 0001:0006293f       _feholdexcept              1006393f f   libucrt:feholdexcept.obj
 0001:000629b0       __CIlog10                  100639b0 f   libucrt:log10_impl.obj
 0001:000629eb       __CIlog10_default          100639eb f   libucrt:log10_impl.obj
 0001:000629ff       __log10_default            100639ff     libucrt:log10_impl.obj
 0001:00062b10       _ceil                      10063b10 f   libucrt:ceil_pentium4.obj
 0001:00062b50       __ceil_pentium4            10063b50 f   libucrt:ceil_pentium4.obj
 0001:00062c74       _nexttoward                10063c74 f   libucrt:nexttoward.obj
 0001:000631bc       __wcstombs_l               100641bc f   libucrt:wcstombs.obj
 0001:000631c9       __wcstombs_s_l             100641c9 f   libucrt:wcstombs.obj
 0001:000632c9       _wcstombs                  100642c9 f   libucrt:wcstombs.obj
 0001:000632e9       _wcstombs_s                100642e9 f   libucrt:wcstombs.obj
 0001:00063311       ___acrt_CompareStringW     10064311 f   libucrt:comparestringw.obj
 0001:000636a8       ___acrt_CompareStringA     100646a8 f   libucrt:comparestringa.obj
 0001:00063702       ___acrt_LCMapStringW       10064702 f   libucrt:lcmapstringw.obj
 0001:0006374f       ___p__fmode                1006474f f   libucrt:txtmode.obj
 0001:00063755       ??$__acrt_fenv_shift_bits@W4__acrt_fenv_abstract_control@@@@YA?AW4__acrt_fenv_abstract_control@@W40@0I@Z 10064755 f i libucrt:_fenvutils.obj
 0001:0006376b       ??$__acrt_fenv_shift_bits@W4__acrt_fenv_abstract_status@@@@YA?AW4__acrt_fenv_abstract_status@@W40@0I@Z 1006476b f i libucrt:_fenvutils.obj
 0001:00063781       ??$__acrt_fenv_translate_bit@W4__acrt_fenv_abstract_control@@W4__acrt_fenv_machine_sse_control@@@@YA?AW4__acrt_fenv_abstract_control@@W4__acrt_fenv_machine_sse_control@@0W40@1@Z 10064781 f i libucrt:_fenvutils.obj
 0001:0006379f       ??$__acrt_fenv_translate_bit@W4__acrt_fenv_abstract_control@@W4__acrt_fenv_machine_x87_control@@@@YA?AW4__acrt_fenv_abstract_control@@W4__acrt_fenv_machine_x87_control@@0W40@1@Z 1006479f f i libucrt:_fenvutils.obj
 0001:000637bd       ??$__acrt_fenv_translate_bit@W4__acrt_fenv_abstract_status@@W4__acrt_fenv_machine_sse_status@@@@YA?AW4__acrt_fenv_abstract_status@@W4__acrt_fenv_machine_sse_status@@0W40@1@Z 100647bd f i libucrt:_fenvutils.obj
 0001:000637d7       ??$__acrt_fenv_translate_bit@W4__acrt_fenv_abstract_status@@W4__acrt_fenv_machine_x87_status@@@@YA?AW4__acrt_fenv_abstract_status@@W4__acrt_fenv_machine_x87_status@@0W40@1@Z 100647d7 f i libucrt:_fenvutils.obj
 0001:000637f1       ??$__acrt_fenv_translate_bit@W4__acrt_fenv_machine_sse_control@@W4__acrt_fenv_abstract_control@@@@YA?AW4__acrt_fenv_machine_sse_control@@W4__acrt_fenv_abstract_control@@0W40@1@Z 100647f1 f i libucrt:_fenvutils.obj
 0001:0006380d       ??$__acrt_fenv_translate_bit@W4__acrt_fenv_machine_sse_status@@W4__acrt_fenv_abstract_status@@@@YA?AW4__acrt_fenv_machine_sse_status@@W4__acrt_fenv_abstract_status@@0W40@1@Z 1006480d f i libucrt:_fenvutils.obj
 0001:00063827       ??$__acrt_fenv_translate_bit@W4__acrt_fenv_machine_x87_control@@W4__acrt_fenv_abstract_control@@@@YA?AW4__acrt_fenv_machine_x87_control@@W4__acrt_fenv_abstract_control@@0W40@1@Z 10064827 f i libucrt:_fenvutils.obj
 0001:00063843       ??$__acrt_fenv_translate_bit@W4__acrt_fenv_machine_x87_status@@W4__acrt_fenv_abstract_status@@@@YA?AW4__acrt_fenv_machine_x87_status@@W4__acrt_fenv_abstract_status@@0W40@1@Z 10064843 f i libucrt:_fenvutils.obj
 0001:0006385d       ??$__acrt_fenv_unshift_bits@W4__acrt_fenv_abstract_control@@@@YA?AW4__acrt_fenv_abstract_control@@W40@0I@Z 1006485d f i libucrt:_fenvutils.obj
 0001:00063873       ??$__acrt_fenv_unshift_bits@W4__acrt_fenv_abstract_status@@@@YA?AW4__acrt_fenv_abstract_status@@W40@0I@Z 10064873 f i libucrt:_fenvutils.obj
 0001:00063e9e       ??I@YA?AW4__acrt_fenv_abstract_control@@W40@0@Z 10064e9e f i libucrt:_fenvutils.obj
 0001:00063eae       ??I@YA?AW4__acrt_fenv_abstract_status@@W40@0@Z 10064eae f i libucrt:_fenvutils.obj
 0001:00063ebe       ??I@YA?AW4__acrt_fenv_machine_sse_control@@W40@0@Z 10064ebe f i libucrt:_fenvutils.obj
 0001:00063ece       ??I@YA?AW4__acrt_fenv_machine_sse_status@@W40@0@Z 10064ece f i libucrt:_fenvutils.obj
 0001:00063ede       ??I@YA?AW4__acrt_fenv_machine_x87_control@@W40@0@Z 10064ede f i libucrt:_fenvutils.obj
 0001:00063eee       ??I@YA?AW4__acrt_fenv_machine_x87_status@@W40@0@Z 10064eee f i libucrt:_fenvutils.obj
 0001:00063efe       ??U@YA?AW4__acrt_fenv_abstract_control@@W40@0@Z 10064efe f i libucrt:_fenvutils.obj
 0001:00063f0e       ??U@YA?AW4__acrt_fenv_abstract_status@@W40@0@Z 10064f0e f i libucrt:_fenvutils.obj
 0001:00063f1e       ??U@YA?AW4__acrt_fenv_machine_sse_control@@W40@0@Z 10064f1e f i libucrt:_fenvutils.obj
 0001:00063f2e       ??U@YA?AW4__acrt_fenv_machine_x87_control@@W40@0@Z 10064f2e f i libucrt:_fenvutils.obj
 0001:00063f3e       ??_5@YAAAW4__acrt_fenv_abstract_control@@AAW40@W40@@Z 10064f3e f i libucrt:_fenvutils.obj
 0001:00063f50       ??_5@YAAAW4__acrt_fenv_abstract_status@@AAW40@W40@@Z 10064f50 f i libucrt:_fenvutils.obj
 0001:00063f62       ??_5@YAAAW4__acrt_fenv_machine_sse_control@@AAW40@W40@@Z 10064f62 f i libucrt:_fenvutils.obj
 0001:00063f77       ??_5@YAAAW4__acrt_fenv_machine_sse_status@@AAW40@W40@@Z 10064f77 f i libucrt:_fenvutils.obj
 0001:00063f89       ??_5@YAAAW4__acrt_fenv_machine_x87_control@@AAW40@W40@@Z 10064f89 f i libucrt:_fenvutils.obj
 0001:00063f9e       ??_5@YAAAW4__acrt_fenv_machine_x87_status@@AAW40@W40@@Z 10064f9e f i libucrt:_fenvutils.obj
 0001:00063fb0       ?__acrt_fenv_shift_abstract_sse_control@@YA?AW4__acrt_fenv_abstract_control@@W41@@Z 10064fb0 f i libucrt:_fenvutils.obj
 0001:00063fd4       ?__acrt_fenv_shift_abstract_sse_status@@YA?AW4__acrt_fenv_abstract_status@@W41@@Z 10064fd4 f i libucrt:_fenvutils.obj
 0001:00063fe8       ?__acrt_fenv_shift_abstract_x87_control@@YA?AW4__acrt_fenv_abstract_control@@W41@@Z 10064fe8 f i libucrt:_fenvutils.obj
 0001:0006400c       ?__acrt_fenv_shift_abstract_x87_status@@YA?AW4__acrt_fenv_abstract_status@@W41@@Z 1006500c f i libucrt:_fenvutils.obj
 0001:00064020       ?__acrt_fenv_unshift_abstract_sse_control@@YA?AW4__acrt_fenv_abstract_control@@W41@@Z 10065020 f i libucrt:_fenvutils.obj
 0001:00064046       ?__acrt_fenv_unshift_abstract_sse_status@@YA?AW4__acrt_fenv_abstract_status@@W41@@Z 10065046 f i libucrt:_fenvutils.obj
 0001:0006405a       ?__acrt_fenv_unshift_abstract_x87_control@@YA?AW4__acrt_fenv_abstract_control@@W41@@Z 1006505a f i libucrt:_fenvutils.obj
 0001:00064080       ?__acrt_fenv_unshift_abstract_x87_status@@YA?AW4__acrt_fenv_abstract_status@@W41@@Z 10065080 f i libucrt:_fenvutils.obj
 0001:00064737       ___acrt_fenv_expand_round_control 10065737 f   libucrt:_fenvutils.obj
 0001:0006477a       ___acrt_fenv_get_common_round_control 1006577a f   libucrt:_fenvutils.obj
 0001:000647a4       ___acrt_fenv_get_control   100657a4 f   libucrt:_fenvutils.obj
 0001:00064846       ___acrt_fenv_get_fp_status_word_from_exception_mask 10065846 f   libucrt:_fenvutils.obj
 0001:00064866       ___acrt_fenv_get_status    10065866 f   libucrt:_fenvutils.obj
 0001:00064958       ___acrt_fenv_set_control   10065958 f   libucrt:_fenvutils.obj
 0001:000649dc       ___acrt_fenv_set_status    100659dc f   libucrt:_fenvutils.obj
 0001:00064ca8       ___control87_2             10065ca8 f   libucrt:ieee87.obj
 0001:00065274       ___fpreset_sse2            10066274 f   libucrt:ieee87.obj
 0001:000654bd       __clearfp                  100664bd f   libucrt:ieee87.obj
 0001:000655d5       __control87                100665d5 f   libucrt:ieee87.obj
 0001:00065993       __controlfp                10066993 f   libucrt:ieee87.obj
 0001:000659b3       __fpreset                  100669b3 f   libucrt:ieee87.obj
 0001:00065ab6       __set_controlfp            10066ab6 f   libucrt:ieee87.obj
 0001:00065b4c       __statusfp                 10066b4c f   libucrt:ieee87.obj
 0001:00065c10       __statusfp2                10066c10 f   libucrt:ieee87.obj
 0001:00065c8e       ___acrt_initialize_sse2    10066c8e f   libucrt:mathfcns.obj
 0001:00065ca2       __set_SSE2_enable          10066ca2 f   libucrt:mathfcns.obj
 0001:00065cd0       __CIlog10_pentium4         10066cd0 f   libucrt:log10_pentium4.obj
 0001:00065ce8       __log10_pentium4           10066ce8     libucrt:log10_pentium4.obj
 0001:00066030       __fFEXP                    10067030 f   libucrt:87tran.obj
 0001:00066087       __rtinfpopse               10067087     libucrt:87tran.obj
 0001:00066089       __rtinfnpopse              10067089     libucrt:87tran.obj
 0001:00066099       __fFLN                     10067099     libucrt:87tran.obj
 0001:0006614e       __rtinfpop                 1006714e     libucrt:87tran.obj
 0001:00066150       __rtinfnpop                10067150     libucrt:87tran.obj
 0001:00066160       __rtforexpinf              10067160 f   libucrt:87tran.obj
 0001:0006616d       __ffexpm1                  1006716d     libucrt:87tran.obj
 0001:000662a0       __trandisp1                100672a0 f   libucrt:87disp.obj
 0001:00066315       __trandisp2                10067315 f   libucrt:87disp.obj
 0001:000663af       __rttospopde               100673af     libucrt:87disp.obj
 0001:000663b4       __rttospop                 100673b4     libucrt:87disp.obj
 0001:000663c0       __rtnospop                 100673c0 f   libucrt:87disp.obj
 0001:000663d0       __rttosnpop                100673d0 f   libucrt:87disp.obj
 0001:000663d1       __rtnospopde               100673d1     libucrt:87disp.obj
 0001:000663d8       __rtzeropop                100673d8     libucrt:87disp.obj
 0001:000663da       __rtzeronpop               100673da     libucrt:87disp.obj
 0001:000663e0       __rtzerospop               100673e0 f   libucrt:87disp.obj
 0001:000663ed       __rtonepop                 100673ed     libucrt:87disp.obj
 0001:000663f0       __rtonenpop                100673f0 f   libucrt:87disp.obj
 0001:00066400       __tosnan1                  10067400 f   libucrt:87disp.obj
 0001:00066430       __nosnan2                  10067430 f   libucrt:87disp.obj
 0001:00066440       __tosnan2                  10067440 f   libucrt:87disp.obj
 0001:00066470       __nan2                     10067470 f   libucrt:87disp.obj
 0001:000664b0       __rtindfpop                100674b0 f   libucrt:87disp.obj
 0001:000664b2       __rtindfnpop               100674b2     libucrt:87disp.obj
 0001:000664c3       __rttosnpopde              100674c3     libucrt:87disp.obj
 0001:000664d0       __rtatan2inf               100674d0 f   libucrt:87disp.obj
 0001:000664ed       __rtchsifneg               100674ed     libucrt:87disp.obj
 0001:00066589       ___setfflag                10067589 f   libucrt:fp_flags.obj
 0001:000665b0       __twoToTOS                 100675b0 f   libucrt:common.obj
 0001:000665c5       __load_CW                  100675c5 f   libucrt:common.obj
 0001:000665dc       __convertTOStoQNaN         100675dc f   libucrt:common.obj
 0001:000665f5       __fload_withFB             100675f5 f   libucrt:common.obj
 0001:00066638       __checkTOS_withFB          10067638 f   libucrt:common.obj
 0001:0006664e       __fast_exit                1006764e f   libucrt:common.obj
 0001:0006665b       __math_exit                1006765b f   libucrt:common.obj
 0001:00066685       __check_overflow_exit      10067685 f   libucrt:common.obj
 0001:00066699       __check_range_exit         10067699 f   libucrt:common.obj
 0001:000667a0       __startTwoArgErrorHandling 100677a0 f   libucrt:genexcep.obj
 0001:000667b7       __startOneArgErrorHandling 100677b7 f   libucrt:genexcep.obj
 0001:00066807       ___libm_error_support      10067807 f   libucrt:libm_error.obj
 0001:00066aa5       ___libm_setusermatherr     10067aa5 f   libucrt:libm_error.obj
 0001:00066ad5       __ceil_default             10067ad5 f   libucrt:ceil.obj
 0001:00066c52       __d_int                    10067c52 f   libucrt:_test.obj
 0001:00066d9c       __dtest                    10067d9c f   libucrt:_test.obj
 0001:00066e19       __fd_int                   10067e19 f   libucrt:_test.obj
 0001:00066f1b       __fdtest                   10067f1b f   libucrt:_test.obj
 0001:00066f7c       __fperrraise               10067f7c f   libucrt:_test.obj
 0001:00066fa7       __ld_int                   10067fa7 f   libucrt:_test.obj
 0001:00066fb4       __ldtest                   10067fb4 f   libucrt:_test.obj
 0001:00066fc1       ?__wcsrtombs_utf8@__crt_mbstring@@YAIPADPAPB_WIPAU_Mbstatet@@@Z 10067fc1 f   libucrt:wcrtomb.obj
 0001:0006746b       _wcrtomb                   1006846b f   libucrt:wcrtomb.obj
 0001:000674a8       _wcrtomb_s                 100684a8 f   libucrt:wcrtomb.obj
 0001:0006753f       _wcsrtombs                 1006853f f   libucrt:wcrtomb.obj
 0001:0006754c       _wcsrtombs_s               1006854c f   libucrt:wcrtomb.obj
 0001:0006760b       _wctob                     1006860b f   libucrt:wcrtomb.obj
 0001:0006767f       __controlfp_s              1006867f f   libucrt:contrlfp.obj
 0001:000676f5       __d_inttype                100686f5 f   libucrt:powhlp.obj
 0001:00067779       __powhlp                   10068779 f   libucrt:powhlp.obj
 0001:000678ee       __87except                 100688ee f   libucrt:87except.obj
 0001:00067a3a       __frnd                     10068a3a f   libucrt:frnd.obj
 0001:00067a55       ??_4@YAAAW4__acrt_fenv_abstract_status@@AAW40@W40@@Z 10068a55 f i libucrt:fegetexceptflag.obj
 0001:00067a67       _fegetexceptflag           10068a67 f   libucrt:fegetexceptflag.obj
 0001:00067aa4       ??S@YA?AW4__acrt_fenv_abstract_status@@W40@@Z 10068aa4 f i libucrt:fesetexceptflag.obj
 0001:00067ab3       _fesetexceptflag           10068ab3 f   libucrt:fesetexceptflag.obj
 0001:00067b22       ?__c16rtomb_utf8@__crt_mbstring@@YAIPAD_SPAU_Mbstatet@@@Z 10068b22 f   libucrt:c16rtomb.obj
 0001:00067c7a       _c16rtomb                  10068c7a f   libucrt:c16rtomb.obj
 0001:00067c87       _fetestexcept              10068c87 f   libucrt:fetestexcept.obj
 0001:00067cb1       ?__c32rtomb_utf8@__crt_mbstring@@YAIPAD_UPAU_Mbstatet@@@Z 10068cb1 f   libucrt:c32rtomb.obj
 0001:00067d8b       _c32rtomb                  10068d8b f   libucrt:c32rtomb.obj
 0001:00067da0       __FindPESection            10068da0 f   LIBCMT:pesect.obj
 0001:00067e00       __IsNonwritableInCurrentImage 10068e00 f   LIBCMT:pesect.obj
 0001:00067ef0       __ValidateImageBase        10068ef0 f   LIBCMT:pesect.obj
 0001:00067f2f       __EH_epilog3               10068f2f f   LIBCMT:ehprolg3.obj
 0001:00067f49       __EH_epilog3_GS            10068f49 f   LIBCMT:ehprolg3.obj
 0001:00067f5e       __EH_epilog3_catch_GS      10068f5e f   LIBCMT:ehprolg3.obj
 0001:00067f73       __EH_prolog3               10068f73 f   LIBCMT:ehprolg3.obj
 0001:00067fb4       __EH_prolog3_GS            10068fb4 f   LIBCMT:ehprolg3.obj
 0001:00067ff8       __EH_prolog3_catch         10068ff8 f   LIBCMT:ehprolg3.obj
 0001:0006803c       __EH_prolog3_catch_GS      1006903c f   LIBCMT:ehprolg3.obj
 0001:00068090       __aulldvrm                 10069090 f   LIBCMT:ulldvrm.obj
 0001:0006814a       ??1type_info@@UAE@XZ       1006914a f   LIBCMT:std_type_info_static.obj
 0001:00068151       ??_Gtype_info@@UAEPAXI@Z   10069151 f i LIBCMT:std_type_info_static.obj
 0001:00068151       ??_Etype_info@@UAEPAXI@Z   10069151 f i LIBCMT:std_type_info_static.obj
 0001:0006817c       ??3@YAXPAXI@Z              1006917c f   LIBCMT:delete_scalar_size.obj
 0001:00068190       __SEH_prolog4_GS           10069190 f   LIBCMT:sehprolg4gs.obj
 0001:000681d9       __SEH_epilog4_GS           100691d9 f   LIBCMT:sehprolg4gs.obj
 0001:00068200       __allmul                   10069200 f   LIBCMT:llmul.obj
 0001:00068250       __alloca_probe             10069250 f   LIBCMT:chkstk.obj
 0001:00068250       __chkstk                   10069250 f   LIBCMT:chkstk.obj
 0001:00068290       __alldvrm                  10069290 f   LIBCMT:lldvrm.obj
 0001:000683b0       __aullshr                  100693b0 f   LIBCMT:ullshr.obj
 0001:000683e0       __alloca_probe_16          100693e0 f   LIBCMT:alloca16.obj
 0001:000683f6       __alloca_probe_8           100693f6     LIBCMT:alloca16.obj
 0001:00068420       __allshl                   10069420 f   LIBCMT:llshl.obj
 0001:00068450       __ftol2_sse                10069450 f   LIBCMT:ftol2.obj
 0001:00068459       __ftol2_pentium4           10069459 f   LIBCMT:ftol2.obj
 0001:0006846c       __ftol2_sse_excpt          1006946c f   LIBCMT:ftol2.obj
 0001:00068490       __ftol2                    10069490 f   LIBCMT:ftol2.obj
 0001:00068532       __initialize_default_precision 10069532 f   LIBCMT:default_precision.obj
 0001:0006855b       ??3@YAXPAX@Z               1006955b f   LIBCMT:delete_scalar.obj
 0001:00068560       _InterlockedPushEntrySList@8 10069560 f   kernel32:KERNEL32.dll
 0001:00068566       _InterlockedFlushSList@4   10069566 f   kernel32:KERNEL32.dll
 0001:0006856c       _RtlUnwind@16              1006956c f   kernel32:KERNEL32.dll
 0001:00068572       _GetLastError@0            10069572 f   kernel32:KERNEL32.dll
 0001:00068578       _SetLastError@4            10069578 f   kernel32:KERNEL32.dll
 0001:0006857e       _EnterCriticalSection@4    1006957e f   kernel32:KERNEL32.dll
 0001:00068584       _LeaveCriticalSection@4    10069584 f   kernel32:KERNEL32.dll
 0001:0006858a       _DeleteCriticalSection@4   1006958a f   kernel32:KERNEL32.dll
 0001:00068590       _InitializeCriticalSectionAndSpinCount@8 10069590 f   kernel32:KERNEL32.dll
 0001:00068596       _TlsAlloc@0                10069596 f   kernel32:KERNEL32.dll
 0001:0006859c       _TlsGetValue@4             1006959c f   kernel32:KERNEL32.dll
 0001:000685a2       _TlsSetValue@8             100695a2 f   kernel32:KERNEL32.dll
 0001:000685a8       _TlsFree@4                 100695a8 f   kernel32:KERNEL32.dll
 0001:000685ae       _FreeLibrary@4             100695ae f   kernel32:KERNEL32.dll
 0001:000685b4       _LoadLibraryExW@12         100695b4 f   kernel32:KERNEL32.dll
 0001:000685ba       _EncodePointer@4           100695ba f   kernel32:KERNEL32.dll
 0001:000685c0       _RaiseException@16         100695c0 f   kernel32:KERNEL32.dll
 0001:000685c6       _GetStdHandle@4            100695c6 f   kernel32:KERNEL32.dll
 0001:000685cc       _GetFileType@4             100695cc f   kernel32:KERNEL32.dll
 0001:000685d2       _GetModuleFileNameW@12     100695d2 f   kernel32:KERNEL32.dll
 0001:000685d8       _GetModuleHandleExW@12     100695d8 f   kernel32:KERNEL32.dll
 0001:000685de       _WriteConsoleW@20          100695de f   kernel32:KERNEL32.dll
 0001:000685e4       _ExitProcess@4             100695e4 f   kernel32:KERNEL32.dll
 0001:000685ea       _HeapAlloc@12              100695ea f   kernel32:KERNEL32.dll
 0001:000685f0       _HeapFree@12               100695f0 f   kernel32:KERNEL32.dll
 0001:000685f6       _WriteFile@20              100695f6 f   kernel32:KERNEL32.dll
 0001:000685fc       _OutputDebugStringW@4      100695fc f   kernel32:KERNEL32.dll
 0001:00068602       _SetConsoleCtrlHandler@8   10069602 f   kernel32:KERNEL32.dll
 0001:00068608       _HeapReAlloc@16            10069608 f   kernel32:KERNEL32.dll
 0001:0006860e       _GetDateFormatW@24         1006960e f   kernel32:KERNEL32.dll
 0001:00068614       _GetTimeFormatW@24         10069614 f   kernel32:KERNEL32.dll
 0001:0006861a       _CompareStringW@24         1006961a f   kernel32:KERNEL32.dll
 0001:00068620       _LCMapStringW@24           10069620 f   kernel32:KERNEL32.dll
 0001:00068626       _GetLocaleInfoW@16         10069626 f   kernel32:KERNEL32.dll
 0001:0006862c       _IsValidLocale@8           1006962c f   kernel32:KERNEL32.dll
 0001:00068632       _GetUserDefaultLCID@0      10069632 f   kernel32:KERNEL32.dll
 0001:00068638       _EnumSystemLocalesW@8      10069638 f   kernel32:KERNEL32.dll
 0001:0006863e       _CloseHandle@4             1006963e f   kernel32:KERNEL32.dll
 0001:00068644       _ReadFile@20               10069644 f   kernel32:KERNEL32.dll
 0001:0006864a       _GetConsoleMode@8          1006964a f   kernel32:KERNEL32.dll
 0001:00068650       _ReadConsoleW@20           10069650 f   kernel32:KERNEL32.dll
 0001:00068656       _GetConsoleCP@0            10069656 f   kernel32:KERNEL32.dll
 0001:0006865c       _MultiByteToWideChar@24    1006965c f   kernel32:KERNEL32.dll
 0001:00068662       _GetCurrentThread@0        10069662 f   kernel32:KERNEL32.dll
 0001:00068668       _DeleteFileW@4             10069668 f   kernel32:KERNEL32.dll
 0001:0006866e       _SetFilePointerEx@20       1006966e f   kernel32:KERNEL32.dll
 0001:00068674       _FindClose@4               10069674 f   kernel32:KERNEL32.dll
 0001:0006867a       _FindFirstFileExW@24       1006967a f   kernel32:KERNEL32.dll
 0001:00068680       _FindNextFileW@8           10069680 f   kernel32:KERNEL32.dll
 0001:00068686       _IsValidCodePage@4         10069686 f   kernel32:KERNEL32.dll
 0001:0006868c       _GetACP@0                  1006968c f   kernel32:KERNEL32.dll
 0001:00068692       _GetOEMCP@0                10069692 f   kernel32:KERNEL32.dll
 0001:00068698       _GetCPInfo@8               10069698 f   kernel32:KERNEL32.dll
 0001:0006869e       _GetCommandLineA@0         1006969e f   kernel32:KERNEL32.dll
 0001:000686a4       _GetCommandLineW@0         100696a4 f   kernel32:KERNEL32.dll
 0001:000686aa       _WideCharToMultiByte@32    100696aa f   kernel32:KERNEL32.dll
 0001:000686b0       _GetEnvironmentStringsW@0  100696b0 f   kernel32:KERNEL32.dll
 0001:000686b6       _FreeEnvironmentStringsW@4 100696b6 f   kernel32:KERNEL32.dll
 0001:000686bc       _SetEnvironmentVariableW@8 100696bc f   kernel32:KERNEL32.dll
 0001:000686c2       _GetProcessHeap@0          100696c2 f   kernel32:KERNEL32.dll
 0001:000686c8       _FlushFileBuffers@4        100696c8 f   kernel32:KERNEL32.dll
 0001:000686ce       _SetStdHandle@8            100696ce f   kernel32:KERNEL32.dll
 0001:000686d4       _CreateFileW@28            100696d4 f   kernel32:KERNEL32.dll
 0001:000686da       _GetStringTypeW@16         100696da f   kernel32:KERNEL32.dll
 0001:000686e0       _HeapSize@12               100696e0 f   kernel32:KERNEL32.dll
 0001:000686e6       _SetEndOfFile@4            100696e6 f   kernel32:KERNEL32.dll
 0001:000686ec       _DecodePointer@4           100696ec f   kernel32:KERNEL32.dll
 0001:00068823       _memcmp                    10069823 f   libvcruntime:memcmp.obj
 0001:0006ad10       _strrchr                   1006bd10 f   libvcruntime:strrchr.obj
 0001:0006ae94       _wcschr                    1006be94 f   libvcruntime:wcschr.obj
 0002:00000000       ___xc_a                    10071000     LIBCMT:initializers.obj
 0002:00000104       ___xc_z                    10071104     LIBCMT:initializers.obj
 0002:00000208       ___xi_a                    10071208     LIBCMT:initializers.obj
 0002:0000030c       ___acrt_stdio_initializer  1007130c     libucrt:stdio_initializer.obj
 0002:00000310       ___acrt_multibyte_initializer 10071310     libucrt:multibyte_initializer.obj
 0002:00000314       ___acrt_tran_sse2_initializer 10071314     libucrt:sse2_initializer.obj
 0002:0000041c       ___xi_z                    1007141c     LIBCMT:initializers.obj
 0002:00000520       ___xp_a                    10071520     LIBCMT:initializers.obj
 0002:00000624       ___acrt_locale_terminator  10071624     libucrt:locale_initializer.obj
 0002:00000628       ___dcrt_console_output_terminator 10071628     libucrt:console_output_initializer.obj
 0002:00000730       ___acrt_stdio_terminator   10071730     libucrt:stdio_initializer.obj
 0002:00000834       ___xp_z                    10071834     LIBCMT:initializers.obj
 0002:00000938       ___xt_a                    10071938     LIBCMT:initializers.obj
 0002:00000a3c       ___xt_z                    10071a3c     LIBCMT:initializers.obj
 0002:00000b40       _homing_ldm_M              10071b40     homing_ldm.obj
 0002:00000b44       ??_C@_0BC@OJJPBDHH@FixedStepDiscrete@ 10071b44     homing_ldm.obj
 0002:00000b5c       ??_C@_04EPKDLPPB@tout@     10071b5c     homing_ldm.obj
 0002:00000b62       ??_C@_00CNPNBAHC@@         10071b62     homing_ldm.obj
 0002:00000b64       ??_C@_03HBFGMJOD@rt_@      10071b64     homing_ldm.obj
 0002:00000b68       ??_C@_0M@IJCNLJFC@PCI?96229?5DI@ 10071b68     homing_ldm.obj
 0002:00000b78       ??_C@_0BH@IJEMMBJP@homing_ldm?1PCI?96229?5DI@ 10071b78     homing_ldm.obj
 0002:00000b94       ??_C@_0P@KEKPFIMK@PCI?56229?5ENC?52@ 10071b94     homing_ldm.obj
 0002:00000ba8       ??_C@_0BK@OAILPPOJ@homing_ldm?1PCI?56229?5ENC?52@ 10071ba8     homing_ldm.obj
 0002:00000bc8       ??_C@_0P@LNLEGJIL@PCI?56229?5ENC?53@ 10071bc8     homing_ldm.obj
 0002:00000bdc       ??_C@_0BK@PJJAMOKI@homing_ldm?1PCI?56229?5ENC?53@ 10071bdc     homing_ldm.obj
 0002:00000bfc       ??_C@_0N@DANFLPCO@PCI?96229?5DA4@ 10071bfc     homing_ldm.obj
 0002:00000c0c       ??_C@_0BI@NFAAGAFL@homing_ldm?1PCI?96229?5DA4@ 10071c0c     homing_ldm.obj
 0002:00000c28       ??_C@_0N@CJMOIOGP@PCI?96229?5DA5@ 10071c28     homing_ldm.obj
 0002:00000c38       ??_C@_0BI@MMBLFBBK@homing_ldm?1PCI?96229?5DA5@ 10071c38     homing_ldm.obj
 0002:00000c54       ??_C@_0N@EHDMGGGB@PCI?96229?5DO1@ 10071c54     homing_ldm.obj
 0002:00000c64       ??_C@_0BI@KCOJLJBE@homing_ldm?1PCI?96229?5DO1@ 10071c64     homing_ldm.obj
 0002:00000c80       ??_C@_0O@LGELPGOG@PCI?56229?5ENC?5@ 10071c80     homing_ldm.obj
 0002:00000c90       ??_C@_0BJ@JGMBKGIK@homing_ldm?1PCI?56229?5ENC?5@ 10071c90     homing_ldm.obj
 0002:00000cb0       ??_C@_0P@IPICALAJ@PCI?56229?5ENC?51@ 10071cb0     homing_ldm.obj
 0002:00000cc4       ??_C@_0BK@MLKGKMCK@homing_ldm?1PCI?56229?5ENC?51@ 10071cc4     homing_ldm.obj
 0002:00000ce8       __real@3f50624dd2f1a9fc    10071ce8     homing_ldm.obj
 0002:00000cf8       __real@3fc999999999999a    10071cf8     homing_ldm.obj
 0002:00000d08       __real@3fe0000000000000    10071d08     homing_ldm.obj
 0002:00000d18       __real@3fe1111111111111    10071d18     homing_ldm.obj
 0002:00000d28       __real@3febbbbbbbbbbbbc    10071d28     homing_ldm.obj
 0002:00000d38       __real@3ff0000000000000    10071d38     homing_ldm.obj
 0002:00000d48       __real@3ff3333333333333    10071d48     homing_ldm.obj
 0002:00000d58       __real@4008000000000000    10071d58     homing_ldm.obj
 0002:00000d68       __real@4014000000000000    10071d68     homing_ldm.obj
 0002:00000d78       __real@41f0000000000000    10071d78     homing_ldm.obj
 0002:00000d88       __real@bff0000000000000    10071d88     homing_ldm.obj
 0002:00000d98       __real@bff4cccccccccccd    10071d98     homing_ldm.obj
 0002:00000da8       __real@c000cccccccccccd    10071da8     homing_ldm.obj
 0002:00000db8       __real@c008000000000000    10071db8     homing_ldm.obj
 0002:00000dd0       __xmm@000000e20000002d0000004300000002 10071dd0     homing_ldm.obj
 0002:00000df0       __xmm@3f50624dd2f1a9fc0000000000000000 10071df0     homing_ldm.obj
 0002:00000e10       __xmm@3fe55555555555553fd5555555555555 10071e10     homing_ldm.obj
 0002:00000e30       __xmm@3ff00000000000000000000000000000 10071e30     homing_ldm.obj
 0002:00000e50       __xmm@41f00000000000000000000000000000 10071e50     homing_ldm.obj
 0002:00000e70       __xmm@7fffffffffffffff7fffffffffffffff 10071e70     homing_ldm.obj
 0002:00000e90       __xmm@80000000000000008000000000000000 10071e90     homing_ldm.obj
 0002:00000ea8       __real@3cb0000000000000    10071ea8     rt_matrx.obj
 0002:00001d80       ??_C@_08PAGDBCID@Chart?1p1@ 10072d80     homing_ldm_capi.obj
 0002:00001d8c       ??_C@_08NLEOEBEA@Chart?1p2@ 10072d8c     homing_ldm_capi.obj
 0002:00001d98       ??_C@_08MCFFHAAB@Chart?1p3@ 10072d98     homing_ldm_capi.obj
 0002:00001da4       ??_C@_08INBEOGMG@Chart?1p4@ 10072da4     homing_ldm_capi.obj
 0002:00001db0       ??_C@_08JEAPNHIH@Chart?1p5@ 10072db0     homing_ldm_capi.obj
 0002:00001dbc       ??_C@_08LPCCIEEE@Chart?1p6@ 10072dbc     homing_ldm_capi.obj
 0002:00001dc8       ??_C@_08KGDJLFAF@Chart?1p7@ 10072dc8     homing_ldm_capi.obj
 0002:00001dd4       ??_C@_01MMEEDKFM@X@        10072dd4     homing_ldm_capi.obj
 0002:00001dd8       ??_C@_05DEOOJMJC@Clock@    10072dd8     homing_ldm_capi.obj
 0002:00001de0       ??_C@_09IIHOELEE@Constant1@ 10072de0     homing_ldm_capi.obj
 0002:00001dec       ??_C@_04OMOMKKFL@Gain@     10072dec     homing_ldm_capi.obj
 0002:00001df4       ??_C@_0BD@EPFMCPOH@posizione?5motore?5x@ 10072df4     homing_ldm_capi.obj
 0002:00001e0c       ??_C@_05DKAIGDGE@Gain1@    10072e0c     homing_ldm_capi.obj
 0002:00001e14       ??_C@_0BF@HBPOPMFC@posizione?5carrello?5y@ 10072e14     homing_ldm_capi.obj
 0002:00001e30       ??_C@_05BBCFDAKH@Gain2@    10072e30     homing_ldm_capi.obj
 0002:00001e38       ??_C@_0BD@FGEHBOKG@posizione?5motore?5y@ 10072e38     homing_ldm_capi.obj
 0002:00001e50       ??_C@_05IDOABOG@Gain3@     10072e50     homing_ldm_capi.obj
 0002:00001e58       ??_C@_0BF@GIOFMNBD@posizione?5carrello?5x@ 10072e58     homing_ldm_capi.obj
 0002:00001e74       ??_C@_05EHHPJHCB@Gain4@    10072e74     homing_ldm_capi.obj
 0002:00001e7c       ??_C@_05GMFCMEOC@Gain7@    10072e7c     homing_ldm_capi.obj
 0002:00001e84       ??_C@_05OLMKNICN@Gain8@    10072e84     homing_ldm_capi.obj
 0002:00001e8c       ??_C@_05PCNBOJGM@Gain9@    10072e8c     homing_ldm_capi.obj
 0002:00001e94       ??_C@_0BB@CMNBNJBK@pozione?5motore?5y@ 10072e94     homing_ldm_capi.obj
 0002:00001ea8       ??_C@_0P@HFBNGDFJ@PCI?96229?5DI?1p1@ 10072ea8     homing_ldm_capi.obj
 0002:00001ebc       ??_C@_07OJGKPLCD@fc?5x?5sx@ 10072ebc     homing_ldm_capi.obj
 0002:00001ec8       ??_C@_0P@FODADAJK@PCI?96229?5DI?1p2@ 10072ec8     homing_ldm_capi.obj
 0002:00001edc       ??_C@_07PAADEONG@fc?5x?5dx@ 10072edc     homing_ldm_capi.obj
 0002:00001ee8       ??_C@_0P@EHCLABNL@PCI?96229?5DI?1p3@ 10072ee8     homing_ldm_capi.obj
 0002:00001efc       ??_C@_09CNJIBEEI@fc?5y?5high@ 10072efc     homing_ldm_capi.obj
 0002:00001f08       ??_C@_0P@IGKJHBM@PCI?96229?5DI?1p4@ 10072f08     homing_ldm_capi.obj
 0002:00001f1c       ??_C@_09IHHPKCGD@fc?5y?5down@ 10072f1c     homing_ldm_capi.obj
 0002:00001f28       ??_C@_04LHPAOBFF@Sum2@     10072f28     homing_ldm_capi.obj
 0002:00001f30       ??_C@_04KOOLNABE@Sum3@     10072f30     homing_ldm_capi.obj
 0002:00001f38       ??_C@_04OBKKEGND@Sum4@     10072f38     homing_ldm_capi.obj
 0002:00001f40       ??_C@_04PILBHHJC@Sum5@     10072f40     homing_ldm_capi.obj
 0002:00001f48       ??_C@_0N@BLFBKHKN@Dot?5Product3@ 10072f48     homing_ldm_capi.obj
 0002:00001f58       ??_C@_0N@FEBADBGK@Dot?5Product4@ 10072f58     homing_ldm_capi.obj
 0002:00001f68       ??_C@_0N@ENALAACL@Dot?5Product5@ 10072f68     homing_ldm_capi.obj
 0002:00001f78       ??_C@_0N@GGCGFDOI@Dot?5Product6@ 10072f78     homing_ldm_capi.obj
 0002:00001f88       ??_C@_0BJ@CPBFEPCF@Discrete?5Derivative?1Diff@ 10072f88     homing_ldm_capi.obj
 0002:00001fa8       ??_C@_0BK@BNNBMNBK@Discrete?5Derivative?1TSamp@ 10072fa8     homing_ldm_capi.obj
 0002:00001fc8       ??_C@_0BH@MAOHMDCI@Discrete?5Derivative?1UD@ 10072fc8     homing_ldm_capi.obj
 0002:00001fe4       ??_C@_06CFNEEADJ@U?$CIk?91?$CJ@ 10072fe4     homing_ldm_capi.obj
 0002:00001fec       ??_C@_0BK@EMGMOOMA@Discrete?5Derivative1?1Diff@ 10072fec     homing_ldm_capi.obj
 0002:0000200c       ??_C@_0BL@MNNCKCEM@Discrete?5Derivative1?1TSamp@ 1007300c     homing_ldm_capi.obj
 0002:0000202c       ??_C@_0BI@GHNGGFGE@Discrete?5Derivative1?1UD@ 1007302c     homing_ldm_capi.obj
 0002:00002048       ??_C@_0BK@HNIEPEFN@Discrete?5Derivative2?1Diff@ 10073048     homing_ldm_capi.obj
 0002:00002068       ??_C@_0BL@EDFNKFKP@Discrete?5Derivative2?1TSamp@ 10073068     homing_ldm_capi.obj
 0002:00002088       ??_C@_0BI@CAHGBPLE@Discrete?5Derivative2?1UD@ 10073088     homing_ldm_capi.obj
 0002:000020a4       ??_C@_0BK@NLPDPPOJ@Discrete?5Derivative3?1Diff@ 100730a4     homing_ldm_capi.obj
 0002:000020c4       ??_C@_0BL@IPPHKFDB@Discrete?5Derivative3?1TSamp@ 100730c4     homing_ldm_capi.obj
 0002:000020e4       ??_C@_0BI@BNBGDGAE@Discrete?5Derivative3?1UD@ 100730e4     homing_ldm_capi.obj
 0002:00002100       ??_C@_0BE@OCAEDHHH@Discrete?5Derivative@ 10073100     homing_ldm_capi.obj
 0002:00002118       ??_C@_0BC@DNAKAAEE@ICPrevScaledInput@ 10073118     homing_ldm_capi.obj
 0002:00002130       ??_C@_0BF@INOOHBK@Discrete?5Derivative1@ 10073130     homing_ldm_capi.obj
 0002:0000214c       ??_C@_0BF@CDPDLENJ@Discrete?5Derivative2@ 1007314c     homing_ldm_capi.obj
 0002:00002168       ??_C@_0BF@DKOIIFJI@Discrete?5Derivative3@ 10073168     homing_ldm_capi.obj
 0002:00002184       ??_C@_05LPIJGKJ@Value@     10073184     homing_ldm_capi.obj
 0002:0000218c       ??_C@_02KKFPAPOP@P1@       1007318c     homing_ldm_capi.obj
 0002:00002190       ??_C@_02IBHCFMCM@P2@       10073190     homing_ldm_capi.obj
 0002:00002194       ??_C@_02JIGJGNGN@P3@       10073194     homing_ldm_capi.obj
 0002:00002198       ??_C@_02NHCIPLKK@P4@       10073198     homing_ldm_capi.obj
 0002:0000219c       ??_C@_02MODDMKOL@P5@       1007319c     homing_ldm_capi.obj
 0002:000021a0       ??_C@_02OFBOJJCI@P6@       100731a0     homing_ldm_capi.obj
 0002:000021a4       ??_C@_02PMAFKIGJ@P7@       100731a4     homing_ldm_capi.obj
 0002:000021a8       ??_C@_02HLJNLEKG@P8@       100731a8     homing_ldm_capi.obj
 0002:000021ac       ??_C@_02GCIGIFOH@P9@       100731ac     homing_ldm_capi.obj
 0002:000021b0       ??_C@_03OPFJJGBF@P10@      100731b0     homing_ldm_capi.obj
 0002:000021b4       ??_C@_04GKLBNPCL@WtEt@     100731b4     homing_ldm_capi.obj
 0002:000021bc       ??_C@_06BNJCAIGJ@double@   100731bc     homing_ldm_capi.obj
 0002:000021c4       ??_C@_06CNMIJIPB@real_T@   100731c4     homing_ldm_capi.obj
 0002:000021cc       ??_C@_05KNFBNCOH@float@    100731cc     homing_ldm_capi.obj
 0002:000021d4       _serialfifoground          100731d4     xpc_datatype_ground.obj
 0002:000021e0       _bcmsg1553ground           100731e0     xpc_datatype_ground.obj
 0002:000021f0       _bcstatground              100731f0     xpc_datatype_ground.obj
 0002:00002208       _bmmsg1553ground           10073208     xpc_datatype_ground.obj
 0002:00002244       ??_C@_0BI@INNPNFJN@Memory?5Allocation?5Error@ 10073244     rtw_modelmap_utils.obj
 0002:00002260       ??_C@_1GI@IBKOBJLJ@?$AAC?$AA?3?$AA?2?$AAP?$AAR?$AAO?$AAG?$AAR?$AAA?$AA?$HO?$AA1?$AA?2?$AAM?$AAA?$AAT@ 10073260     rtw_modelmap_utils.obj
 0002:000022dc       ??_C@_1CI@OEAJCJND@?$AAj?$AA?5?$AA?$DN?$AA?$DN?$AA?5?$AAe?$AAn?$AAc?$AAo?$AAd?$AAe?$AAd?$AAP?$AAa?$AAt@ 100732dc     rtw_modelmap_utils.obj
 0002:0000230c       ??_C@_1DC@NFAOIFKB@?$AAe?$AAn?$AAc?$AAo?$AAd?$AAe?$AAd?$AAP?$AAa?$AAt?$AAh?$AA?$FL?$AAj?$AA?9?$AA1@ 1007330c     rtw_modelmap_utils.obj
 0002:00002348       ??_C@_1DI@FLNJGPEE@?$AAs?$AAi?$AAg?$AAC?$AAo?$AAm?$AAp?$AAl?$AAe?$AAx?$AAi?$AAt?$AAy?$AA?$FL?$AA?$CK@ 10073348     rtw_modelmap_utils.obj
 0002:00002390       ??_C@_1KI@OFELMGBG@?$AA?$CI?$AA?$CI?$AA?$CI?$AAd?$AAa?$AAt?$AAa?$AAT?$AAy?$AAp?$AAe?$AAM?$AAa?$AAp?$AA?$CJ@ 10073390     rtw_modelmap_utils.obj
 0002:0000245c       ??_C@_1DA@ILCMPHNE@?$AAf?$AAu?$AAl?$AAl?$AAP?$AAa?$AAt?$AAh?$AA?5?$AA?$CB?$AA?$DN?$AA?5?$AA?$CI?$AA?$CI?$AAv@ 1007345c     rtw_modelmap_utils.obj
 0002:00002498       ??_C@_1CI@OEPPFCCA@?$AAp?$AAa?$AAt?$AAh?$AA?5?$AA?$CB?$AA?$DN?$AA?5?$AA?$CI?$AA?$CI?$AAv?$AAo?$AAi?$AAd?$AA?5@ 10073498     rtw_modelmap_utils.obj
 0002:000024c8       ??_C@_1FK@GLJIMFHB@?$AA?$CI?$AA?$CI?$AAm?$AAm?$AAi?$AA?$CJ?$AA?9?$AA?$DO?$AAI?$AAn?$AAs?$AAt?$AAa?$AAn?$AAc@ 100734c8     rtw_modelmap_utils.obj
 0002:00002534       ??_C@_1DG@HPCJGNCE@?$AAm?$AAm?$AAi?$AAP?$AAa?$AAt?$AAh?$AA?$FL?$AAp?$AAa?$AAt?$AAh?$AAL?$AAe?$AAn@ 10073534     rtw_modelmap_utils.obj
 0002:00002574       ??_C@_1DM@DBAOGGOO@?$AAm?$AAm?$AAi?$AAP?$AAa?$AAt?$AAh?$AA?$FL?$AAm?$AAm?$AAi?$AAP?$AAa?$AAt?$AAh@ 10073574     rtw_modelmap_utils.obj
 0002:000025bc       ??_C@_1DC@LHIAKAFE@?$AAb?$AAl?$AAo?$AAc?$AAk?$AAP?$AAa?$AAt?$AAh?$AA?5?$AA?$CB?$AA?$DN?$AA?5?$AA?$CI?$AA?$CI@ 100735bc     rtw_modelmap_utils.obj
 0002:000025f8       ??_C@_1GI@KIEJKPGC@?$AAf?$AAu?$AAl?$AAl?$AAS?$AAt?$AAa?$AAt?$AAe?$AAB?$AAl?$AAo?$AAc?$AAk?$AAP@ 100735f8     rtw_modelmap_utils.obj
 0002:00002678       ??_C@_1EE@DNPIBJHC@?$AA?$CI?$AA?$CI?$AAd?$AAi?$AAm?$AAM?$AAa?$AAp?$AA?$CJ?$AA?$FL?$AA?$CI?$AAm?$AAa?$AAp?$AAI@ 10073678     rtw_modelmap_utils.obj
 0002:000026cc       ??_C@_06JFOKFOED@CSTATE@   100736cc     rtw_modelmap_utils.obj
 0002:000026d4       ??_C@_06FAENGAMN@DSTATE@   100736d4     rtw_modelmap_utils.obj
 0002:000026dc       ??_C@_1BI@LEBJNOGG@?$AAc?$AAs?$AAv?$AAI?$AAd?$AAx?$AA?5?$AA?$DO?$AA?$DN?$AA?5?$AA0@ 100736dc     rtw_modelmap_utils.obj
 0002:000026f8       ??_C@_1BA@KDMGHCHP@?$AAT?$AAI?$AAD?$AA?$DN?$AA?$DN?$AA?9?$AA1@ 100736f8     rtw_modelmap_utils.obj
 0002:0000270c       ??_C@_1DM@DHGKBPCE@?$AAs?$AAi?$AAg?$AAP?$AAa?$AAt?$AAh?$AA?$FL?$AAs?$AAi?$AAg?$AAP?$AAa?$AAt?$AAh@ 1007370c     rtw_modelmap_utils.obj
 0002:00002fb8       ??_C@_0DJ@FHKINPLE@Unexpected?5itemKind?5?$DN?5DATA_ITEM@ 10073fb8     rt_logging.obj
 0002:00002ffc       ??_C@_0DA@IEHFPFCJ@Unexpected?5itemKind?$DN?$CFd?5in?5rt_Pr@ 10073ffc     rt_logging.obj
 0002:00003038       ??_C@_0DA@IFLHJPBO@Unexpected?5itemKind?$DN?$CFd?5in?5rt_Pr@ 10074038     rt_logging.obj
 0002:00003074       ??_C@_0DA@IAPIIJJL@Unexpected?5itemKind?$DN?$CFd?5in?5rt_Pr@ 10074074     rt_logging.obj
 0002:000030b0       ??_C@_0BE@LCIGPJIG@MATLAB?55?40?5MAT?9file@ 100740b0     rt_logging.obj
 0002:000030c8       ??_C@_0FB@PCJEAJIB@?$CK?$CK?$CK?5Log?5variable?5?$CFs?5has?5wrapped@ 100740c8     rt_logging.obj
 0002:00003130       ??_C@_0MG@NKMLMOGF@?$CK?$CK?$CK?5To?5avoid?5wrapping?0?5explicit@ 10074130     rt_logging.obj
 0002:00003220       ??_C@_0N@IPAEOLLP@_rtw_tmw?4tmw@ 10074220     rt_logging.obj
 0002:00003230       ??_C@_04HDOCAJNK@?$CFs?$CFs@ 10074230     rt_logging.obj
 0002:00003238       ??_C@_03ELIABIOC@w?$CLb@   10074238     rt_logging.obj
 0002:0000323c       ??_C@_0BF@JPILDDFA@?$CK?$CK?$CK?5Error?5opening?5?$CFs@ 1007423c     rt_logging.obj
 0002:00003258       ??_C@_0BK@EEMDELA@unable?5to?5open?5data?5file?6@ 10074258     rt_logging.obj
 0002:00003278       ??_C@_04CGFJFPFD@none@     10074278     rt_logging.obj
 0002:00003280       ??_C@_0EE@LCGFPNON@?$CK?$CK?$CK?5Error?5creating?5signals?5stru@ 10074280     rt_logging.obj
 0002:000032d4       ??_C@_0CE@NHECEDMK@?$CK?$CK?$CK?5Error?5creating?5log?5variable@ 100742d4     rt_logging.obj
 0002:00003300       ??_C@_0DB@IOCGKAGH@?$CK?$CK?$CK?5Errors?5occurred?5when?5starti@ 10074300     rt_logging.obj
 0002:0000333c       ??_C@_0BO@BBLOGEBK@?$CK?$CK?$CK?5Memory?5allocation?5error?4?6@ 1007433c     rt_logging.obj
 0002:00003360       ??_C@_0N@LGFBAGEL@?5?$CIreal?5part?$CJ@ 10074360     rt_logging.obj
 0002:00003370       ??_C@_0KH@CGNMHNFE@?5?5?5?5varName?5?5?5?5?5?5?5?5?5?5?$DN?5?$CFs?$CFs?6?5?5?5@ 10074370     rt_logging.obj
 0002:00003438       ??_C@_0LE@OALKKEFM@?5?5?5?5varName?5?5?5?5?5?5?5?5?5?5?$DN?5?$CFs?5?$CIcomp@ 10074438     rt_logging.obj
 0002:00003510       ??_C@_0KF@JDDLEOKO@?5?5?5?5varName?5?5?5?5?5?5?5?5?5?5?$DN?5?$CFs?6?5?5?5?5n@ 10074510     rt_logging.obj
 0002:000035d8       ??_C@_0DP@HPDMIOFM@?$CK?$CK?$CK?5Using?5a?5default?5buffer?5of?5s@ 100745d8     rt_logging.obj
 0002:00003628       ??_C@_0KE@JEFOLKNF@?6?$CK?$CK?$CK?5Memory?5required?5to?5log?5var@ 10074628     rt_logging.obj
 0002:000036f0       ??_C@_0JP@DKLMHCBI@?$CK?$CK?$CK?5Details?3?6?5?5?5?5?5?5?5varName?5?5?5?5@ 100746f0     rt_logging.obj
 0002:000037b0       ??_C@_0CM@CAMILBED@?$CK?$CK?$CK?5Error?5allocating?5memory?5for@ 100747b0     rt_logging.obj
 0002:000037e4       ??_C@_0DF@BBCNMOPM@?$CK?$CK?$CK?5Error?5allocating?5memory?5for@ 100747e4     rt_logging.obj
 0002:00003828       ??_C@_0JP@DBCLPCCI@?$CK?$CK?$CK?5Details?3?6?5?5?5?5?5?5?5varName?5?5?5?5@ 10074828     rt_logging.obj
 0002:000038e8       ??_C@_0FK@DPGAOBGA@?$CK?$CK?$CK?5Error?5allocating?5memory?5for@ 100748e8     rt_logging.obj
 0002:00003954       ??_C@_0BI@GGDNPHLJ@?$CK?$CK?$CK?5Error?5writing?5to?5?$CFs@ 10074954     rt_logging.obj
 0002:00003970       ??_C@_0CB@IBGJGELG@?$CK?$CK?$CK?5Error?5writing?5?$CFs?5due?5to?3?5?$CFs@ 10074970     rt_logging.obj
 0002:00003998       ??_C@_0CN@FLMCHCPB@?$CK?$CK?$CK?5Error?5writing?5log?5variable?5@ 10074998     rt_logging.obj
 0002:000039d0       ??_C@_0DH@GAJCNOJP@?$CK?$CK?$CK?5Error?5writing?5structure?5log@ 100749d0     rt_logging.obj
 0002:00003a14       ??_C@_0BD@POEALECL@?$CK?$CK?5created?5?$CFs?5?$CK?$CK?6?6@ 10074a14     rt_logging.obj
 0002:00003a30       __real@4020000000000000    10074a30     rt_logging.obj
 0002:00003a40       __real@41dfffffffc00000    10074a40     rt_logging.obj
 0002:00003a50       __real@41efffffffe00000    10074a50     rt_logging.obj
 0002:00003a60       __real@4330000000000000    10074a60     rt_logging.obj
 0002:00003a70       __real@8000000000000000    10074a70     rt_logging.obj
 0002:00003a80       __real@bfbf9add3afd2773    10074a80     rt_logging.obj
 0002:00003a90       __real@c000000000000000    10074a90     rt_logging.obj
 0002:00003aa0       __xmm@20202020202020202020202020202020 10074aa0     rt_logging.obj
 0002:00003ab4       ??_C@_0L@KGENNFBN@homing_ldm@ 10074ab4     xpctarget.obj
 0002:00003ac4       _ptsetfilename             10074ac4     xpctarget.obj
 0002:00003ac8       _xmlfile                   10074ac8     xpctarget.obj
 0002:00003ad0       ??_C@_0L@CHBJKKFC@xpceSetVar@ 10074ad0     xpctarget.obj
 0002:00003ae0       ??_C@_03LADEHNAB@6?46@     10074ae0     xpctarget.obj
 0002:00003ae8       __real@3fb999999999999a    10074ae8     xpctarget.obj
 0002:00003af8       __real@408f400000000000    10074af8     xpctarget.obj
 0002:00003b08       _homing_ldm_BIOMAP         10074b08     appmappingData.obj
 0002:00003d30       _homing_ldm_LBLMAP         10074d30     appmappingData.obj
 0002:00003f58       _homing_ldm_SIDMAP         10074f58     appmappingData.obj
 0002:00004180       _homing_ldm_SBIO           10075180     appmappingData.obj
 0002:00004238       _homing_ldm_SLBL           10075238     appmappingData.obj
 0002:000042f0       _homing_ldm_PTIDSMAP       100752f0     appmappingData.obj
 0002:00004590       _homing_ldm_PTNAMESMAP     10075590     appmappingData.obj
 0002:00004830       _homing_ldm_SPTMAP         10075830     appmappingData.obj
 0002:00004980       _homing_ldm_dtmap          10075980     appmappingData.obj
 0002:00004990       _appInfo                   10075990     appmappingData.obj
 0002:00004cd8       ??_C@_0ED@LKHIFFLC@Wrong?5number?5of?5input?5arguments@ 10075cd8     danipcim.obj
 0002:00004d28       ??_C@_0DB@HFHLNKLE@Channel?5?$CFd?5exceeds?5the?5max?5DA?5c@ 10075d28     danipcim.obj
 0002:00004d64       ??_C@_0CL@GCJHHCMG@Output?5range?5?$CFd?5is?5not?5supporte@ 10075d64     danipcim.obj
 0002:00004d98       ??_C@_0CC@FIFFDAB@?$CFd?5input?5args?5expected?0?5?$CFd?5pass@ 10075d98     encnipcim.obj
 0002:00004dc0       ??_C@_0BN@JIEFLHEB@?$CFs?3?5Too?5many?5M?5series?5boards@ 10075dc0     encnipcim.obj
 0002:00004de4       ??_C@_0M@IMCLKBPP@NI?5PCI?96220@ 10075de4     xpcionim.obj
 0002:00004df4       ??_C@_0M@JFDAJALO@NI?5PCI?96221@ 10075df4     xpcionim.obj
 0002:00004e04       ??_C@_0P@NGCDCNKM@NI?5PCI?96221?137@ 10075e04     xpcionim.obj
 0002:00004e18       ??_C@_0M@OIEHGEPL@NI?5PCI?96224@ 10075e18     xpcionim.obj
 0002:00004e28       ??_C@_0M@PBFMFFLK@NI?5PCI?96225@ 10075e28     xpcionim.obj
 0002:00004e38       ??_C@_0M@FNOJBKLG@NI?5PCI?96229@ 10075e38     xpcionim.obj
 0002:00004e48       ??_C@_0M@INOJMLMI@NI?5PCI?96230@ 10075e48     xpcionim.obj
 0002:00004e58       ??_C@_0M@LPNPKJEK@NI?5PCI?96232@ 10075e58     xpcionim.obj
 0002:00004e68       ??_C@_0M@KGMEJIAL@NI?5PCI?96233@ 10075e68     xpcionim.obj
 0002:00004e78       ??_C@_0M@NLLDGMEO@NI?5PCI?96236@ 10075e78     xpcionim.obj
 0002:00004e88       ??_C@_0M@EFDAEBMA@NI?5PCI?96238@ 10075e88     xpcionim.obj
 0002:00004e98       ??_C@_0M@FMCLHAIB@NI?5PCI?96239@ 10075e98     xpcionim.obj
 0002:00004ea8       ??_C@_0M@IJGELHHK@NI?5PCI?96250@ 10075ea8     xpcionim.obj
 0002:00004eb8       ??_C@_0M@JAHPIGDL@NI?5PCI?96251@ 10075eb8     xpcionim.obj
 0002:00004ec8       ??_C@_0M@ONAIHCHO@NI?5PCI?96254@ 10075ec8     xpcionim.obj
 0002:00004ed8       ??_C@_0M@PEBDEDDP@NI?5PCI?96255@ 10075ed8     xpcionim.obj
 0002:00004ee8       ??_C@_0M@FIKGAMDD@NI?5PCI?96259@ 10075ee8     xpcionim.obj
 0002:00004ef8       ??_C@_0M@IBLMCECJ@NI?5PCI?96280@ 10075ef8     xpcionim.obj
 0002:00004f08       ??_C@_0M@JIKHBFGI@NI?5PCI?96281@ 10075f08     xpcionim.obj
 0002:00004f18       ??_C@_0M@OFNAOBCN@NI?5PCI?96284@ 10075f18     xpcionim.obj
 0002:00004f28       ??_C@_0M@FAHOJPGA@NI?5PCI?96289@ 10075f28     xpcionim.obj
 0002:00004f38       ??_C@_0CI@NFFNBHJA@?$CFs?5?$CIbus?5?$CFd?0?5slot?5?$CFd?$CJ?3?5board?5not@ 10075f38     xpcionim.obj
 0002:00004f68       ??_C@_0CD@MBDNCLAI@NI?5M?5series?3?5Unknown?5board?5type@ 10075f68     xpcionim.obj
 0002:00004f94       ??_C@_0CC@DMFKNLL@VendorId?5?$DN?50x?$CFx?0?5DeviceId?5?$DN?50x?$CF@ 10075f94     xpcruntime:xpcimports.obj
 0002:00004fbc       ??_C@_0DH@OHCBLNMG@Subsystem?5Device?5ID?5?$DN?50x?$CFx?6Subs@ 10075fbc     xpcruntime:xpcimports.obj
 0002:00005000       ??_C@_0BD@MMMMEFCM@Class?5Code?5?$DN?50x?$CFx?6@ 10076000     xpcruntime:xpcimports.obj
 0002:00005018       ??_C@_0BE@OLDDDNHM@InterruptLine?5?$DN?5?$CFd?6@ 10076018     xpcruntime:xpcimports.obj
 0002:00005030       ??_C@_0BF@OLKLEKBD@bus?5?$DN?5?$CFd?0?5slot?5?$DN?5?$CFd?6@ 10076030     xpcruntime:xpcimports.obj
 0002:0000504c       ??_C@_0CE@DGLLGDFH@?5?5?5?5Phys?5?5?5Virtual?5?5?5Length?5IO?1@ 1007604c     xpcruntime:xpcimports.obj
 0002:00005078       ??_C@_0BI@FEOPLEMG@?$CF08x?5?$CF08x?5?$CF08x?5?5?5?5?5?5?$CFc?6@ 10076078     xpcruntime:xpcimports.obj
 0002:00005094       ??_C@_0BB@BNNCEDPC@rl32eScopeExists@ 10076094     xpcruntime:xpcimports.obj
 0002:000050a8       ??_C@_0BM@FJBFEGFG@rl32eScopeExists?5not?5found?6@ 100760a8     xpcruntime:xpcimports.obj
 0002:000050cc       ??_C@_0O@BNNGKJEA@rl32eDefScope@ 100760cc     xpcruntime:xpcimports.obj
 0002:000050dc       ??_C@_0BJ@CDNOENKA@rl32eDefScope?5not?5found?6@ 100760dc     xpcruntime:xpcimports.obj
 0002:000050fc       ??_C@_0P@CKNKILDP@rl32eAddSignal@ 100760fc     xpcruntime:xpcimports.obj
 0002:00005110       ??_C@_0BK@GMJAJBAI@rl32eAddSignal?5not?5found?6@ 10076110     xpcruntime:xpcimports.obj
 0002:00005130       ??_C@_0BB@LDMIHGCE@rl32eGetSignalNo@ 10076130     xpcruntime:xpcimports.obj
 0002:00005144       ??_C@_0BM@LGAMBAID@rl32eGetSignalNo?5not?5found?6@ 10076144     xpcruntime:xpcimports.obj
 0002:00005168       ??_C@_0O@CFDGALBP@rl32eSetScope@ 10076168     xpcruntime:xpcimports.obj
 0002:00005178       ??_C@_0BJ@JCLHHIN@rl32eSetScope?5not?5found?6@ 10076178     xpcruntime:xpcimports.obj
 0002:00005198       ??_C@_0P@IKMCBMHH@xpceFSScopeSet@ 10076198     xpcruntime:xpcimports.obj
 0002:000051ac       ??_C@_0BK@JODJPNNH@xpceFSScopeSet?5not?5found?6@ 100761ac     xpcruntime:xpcimports.obj
 0002:000051cc       ??_C@_0BE@DLACEEJM@rl32eSetTargetScope@ 100761cc     xpcruntime:xpcimports.obj
 0002:000051e4       ??_C@_0BP@JCHFMKPJ@rl32eSetTargetScope?5not?5found?6@ 100761e4     xpcruntime:xpcimports.obj
 0002:0000520c       ??_C@_0BJ@LIDLNDHC@rl32eSetTargetScopeSigFt@ 1007620c     xpcruntime:xpcimports.obj
 0002:0000522c       ??_C@_0CE@JLGHCFHI@rl32eSetTargetScopeSigFt?5not?5fo@ 1007622c     xpcruntime:xpcimports.obj
 0002:00005258       ??_C@_0BI@JAPOIDNG@rl32eRestartAcquisition@ 10076258     xpcruntime:xpcimports.obj
 0002:00005274       ??_C@_0CD@LLBEFFBO@rl32eRestartAcquisition?5not?5fou@ 10076274     xpcruntime:xpcimports.obj
 0002:000052a0       ??_C@_0P@IEIIADJB@xpceScopeAcqOK@ 100762a0     xpcruntime:xpcimports.obj
 0002:000052b4       ??_C@_0BK@NJCKNFPN@xpceScopeAcqOK?5not?5found?6@ 100762b4     xpcruntime:xpcimports.obj
 0002:000052d4       ??_C@_0BA@IJINKAHF@xpceRegisterISR@ 100762d4     xpcruntime:xpcimports.obj
 0002:000052e8       ??_C@_0BL@NNDLOEJE@xpceRegisterISR?5not?5found?6@ 100762e8     xpcruntime:xpcimports.obj
 0002:00005308       ??_C@_0BC@NLBADGKF@xpceDeRegisterISR@ 10076308     xpcruntime:xpcimports.obj
 0002:00005320       ??_C@_0BN@DCAIKFFD@xpceDeRegisterISR?5not?5found?6@ 10076320     xpcruntime:xpcimports.obj
 0002:00005344       ??_C@_07JPMEPILD@xpcInpB@  10076344     xpcruntime:xpcimports.obj
 0002:00005350       ??_C@_0BD@PGABEJOL@xpcInpB?5not?5found?6@ 10076350     xpcruntime:xpcimports.obj
 0002:00005368       ??_C@_07KIHBBOKH@xpcInpW@  10076368     xpcruntime:xpcimports.obj
 0002:00005374       ??_C@_0BD@FPCJFMCC@xpcInpW?5not?5found?6@ 10076374     xpcruntime:xpcimports.obj
 0002:0000538c       ??_C@_08KDIAJBOP@xpcInpDW@ 1007638c     xpcruntime:xpcimports.obj
 0002:00005398       ??_C@_0BE@PIELDNIL@xpcInpDW?5not?5found?6@ 10076398     xpcruntime:xpcimports.obj
 0002:000053b0       ??_C@_08PJFMOIGO@xpcOutpB@ 100763b0     xpcruntime:xpcimports.obj
 0002:000053bc       ??_C@_0BE@HCKNCEKF@xpcOutpB?5not?5found?6@ 100763bc     xpcruntime:xpcimports.obj
 0002:000053d4       ??_C@_08MOOJAOHK@xpcOutpW@ 100763d4     xpcruntime:xpcimports.obj
 0002:000053e0       ??_C@_0BE@NLIFDBGM@xpcOutpW?5not?5found?6@ 100763e0     xpcruntime:xpcimports.obj
 0002:000053f8       ??_C@_09FLIEKHJG@xpcOutpDW@ 100763f8     xpcruntime:xpcimports.obj
 0002:00005404       ??_C@_0BF@GJKLPNHB@xpcOutpDW?5not?5found?6@ 10076404     xpcruntime:xpcimports.obj
 0002:00005420       ??_C@_0BH@EHOLELHH@xpcReserveMemoryRegion@ 10076420     xpcruntime:xpcimports.obj
 0002:0000543c       ??_C@_0CC@KAAAGPI@xpcReserveMemoryRegion?5not?5foun@ 1007643c     xpcruntime:xpcimports.obj
 0002:00005464       ??_C@_0BA@JGPMHGAF@rl32eShowPCIDev@ 10076464     xpcruntime:xpcimports.obj
 0002:00005478       ??_C@_0BL@DDFFLNHI@rl32eShowPCIDev?5not?5found?6@ 10076478     xpcruntime:xpcimports.obj
 0002:00005498       ??_C@_0BB@KBCOJPFB@rl32eShowPCIInfo@ 10076498     xpcruntime:xpcimports.obj
 0002:000054ac       ??_C@_0BM@IFDMAGLO@rl32eShowPCIInfo?5not?5found?6@ 100764ac     xpcruntime:xpcimports.obj
 0002:000054d0       ??_C@_0BA@BGPAADB@rl32eGetPCIInfo@ 100764d0     xpcruntime:xpcimports.obj
 0002:000054e4       ??_C@_0BL@IGOMLDCK@rl32eGetPCIInfo?5not?5found?6@ 100764e4     xpcruntime:xpcimports.obj
 0002:00005504       ??_C@_0BG@NJPFKFDP@rl32eGetPCIInfoAtSlot@ 10076504     xpcruntime:xpcimports.obj
 0002:00005520       ??_C@_0CB@BBKIPMLA@rl32eGetPCIInfoAtSlot?5not?5found@ 10076520     xpcruntime:xpcimports.obj
 0002:00005548       ??_C@_0BH@OKBOPNFG@xpceAssignPCIInterrupt@ 10076548     xpcruntime:xpcimports.obj
 0002:00005564       ??_C@_0CC@CDNDNJBJ@xpceAssignPCIInterrupt?5not?5foun@ 10076564     xpcruntime:xpcimports.obj
 0002:0000558c       ??_C@_0BD@PCKOKHO@xpceGetSignalValue@ 1007658c     xpcruntime:xpcimports.obj
 0002:000055a4       ??_C@_0BO@GCBDJHMB@xpceGetSignalValue?5not?5found?6@ 100765a4     xpcruntime:xpcimports.obj
 0002:000055c8       ??_C@_0BB@BJONJAGA@xpceSetParameter@ 100765c8     xpcruntime:xpcimports.obj
 0002:000055dc       ??_C@_0BM@BJIKDLHA@xpceSetParameter?5not?5found?6@ 100765dc     xpcruntime:xpcimports.obj
 0002:00005600       ??_C@_0BB@GNFDFMCM@xpceGetParameter@ 10076600     xpcruntime:xpcimports.obj
 0002:00005614       ??_C@_0BM@POHNKBC@xpceGetParameter?5not?5found?6@ 10076614     xpcruntime:xpcimports.obj
 0002:00005638       ??_C@_0BB@CEIJLFCD@xpceGetParamDims@ 10076638     xpcruntime:xpcimports.obj
 0002:0000564c       ??_C@_0BM@OABDBKAO@xpceGetParamDims?5not?5found?6@ 1007664c     xpcruntime:xpcimports.obj
 0002:00005670       ??_C@_0L@OCBLLHBM@xpceGetTET@ 10076670     xpcruntime:xpcimports.obj
 0002:00005680       ??_C@_0BG@HNOFBOB@xpceGetTET?5not?5found?6@ 10076680     xpcruntime:xpcimports.obj
 0002:0000569c       ??_C@_0P@OKGNGAGH@xpcIsModelInit@ 1007669c     xpcruntime:xpcimports.obj
 0002:000056b0       ??_C@_0BK@DHEMLBIM@xpcIsModelInit?5not?5found?6@ 100766b0     xpcruntime:xpcimports.obj
 0002:000056d0       ??_C@_0BH@KJJLCAOJ@xpcAllocPhysicalMemory@ 100766d0     xpcruntime:xpcimports.obj
 0002:000056ec       ??_C@_0CC@MOJPNHKL@xpcAllocPhysicalMemory?5not?5foun@ 100766ec     xpcruntime:xpcimports.obj
 0002:00005714       ??_C@_0BG@CBNPGAEL@xpcFreePhysicalMemory@ 10076714     xpcruntime:xpcimports.obj
 0002:00005730       ??_C@_0CB@PKJEBPOG@xpcFreePhysicalMemory?5not?5found@ 10076730     xpcruntime:xpcimports.obj
 0002:00005758       ??_C@_0BC@JGKNLICL@xpcGetElapsedTime@ 10076758     xpcruntime:xpcimports.obj
 0002:00005770       ??_C@_0BN@OEOAHCIO@xpcGetElapsedTime?5not?5found?6@ 10076770     xpcruntime:xpcimports.obj
 0002:00005794       ??_C@_0M@ICBLMODA@xpcBusyWait@ 10076794     xpcruntime:xpcimports.obj
 0002:000057a4       ??_C@_0BH@FBOPECBI@xpcBusyWait?5not?5found?6@ 100767a4     xpcruntime:xpcimports.obj
 0002:000057c0       ??_C@_0N@LKKJEKKA@TBCreateSpin@ 100767c0     xpcruntime:xpcimports.obj
 0002:000057d0       ??_C@_0BI@FHKMLKOE@TBCreateSpin?5not?5found?6@ 100767d0     xpcruntime:xpcimports.obj
 0002:000057ec       ??_C@_0N@HOAJHNBD@TBDeleteSpin@ 100767ec     xpcruntime:xpcimports.obj
 0002:000057fc       ??_C@_0BI@BKCPAAG@TBDeleteSpin?5not?5found?6@ 100767fc     xpcruntime:xpcimports.obj
 0002:00005818       ??_C@_0P@DAHDDBJG@TBTakeSpinFast@ 10076818     xpcruntime:xpcimports.obj
 0002:0000582c       ??_C@_0BK@NKAIBHGB@TBTakeSpinFast?5not?5found?6@ 1007682c     xpcruntime:xpcimports.obj
 0002:0000584c       ??_C@_0P@FKNAAELA@TBGiveSpinFast@ 1007684c     xpcruntime:xpcimports.obj
 0002:00005860       ??_C@_0BK@KGPJBJND@TBGiveSpinFast?5not?5found?6@ 10076860     xpcruntime:xpcimports.obj
 0002:00005880       ??_C@_0BE@IIGBFDHK@xpceCreateSemaphore@ 10076880     xpcruntime:xpcimports.obj
 0002:00005898       ??_C@_0BP@KFBAFFKJ@xpceCreateSemaphore?5not?5found?6@ 10076898     xpcruntime:xpcimports.obj
 0002:000058c0       ??_C@_0BC@IFNIONKJ@xpceWaitSemaphore@ 100768c0     xpcruntime:xpcimports.obj
 0002:000058d8       ??_C@_0BN@NMFAADIO@xpceWaitSemaphore?5not?5found?6@ 100768d8     xpcruntime:xpcimports.obj
 0002:000058fc       ??_C@_0BE@NNDIOBKE@xpceSignalSemaphore@ 100768fc     xpcruntime:xpcimports.obj
 0002:00005914       ??_C@_0BP@LBANMHJP@xpceSignalSemaphore?5not?5found?6@ 10076914     xpcruntime:xpcimports.obj
 0002:0000593c       ??_C@_0BE@MEBEKOIM@xpceDeleteSemaphore@ 1007693c     xpcruntime:xpcimports.obj
 0002:00005954       ??_C@_0BP@OFNCKOJH@xpceDeleteSemaphore?5not?5found?6@ 10076954     xpcruntime:xpcimports.obj
 0002:0000597c       ??_C@_0BD@MFNDMBOF@FindUsbVideoDevice@ 1007697c     xpcruntime:xpcimports.obj
 0002:00005994       ??_C@_0BO@POKLDHMI@FindUsbVideoDevice?5not?5found?6@ 10076994     xpcruntime:xpcimports.obj
 0002:000059b8       ??_C@_0BA@PLPAPNAB@GetVideoConfigs@ 100769b8     xpcruntime:xpcimports.obj
 0002:000059cc       ??_C@_0BL@DALDHKHC@GetVideoConfigs?5not?5found?6@ 100769cc     xpcruntime:xpcimports.obj
 0002:000059ec       ??_C@_0L@GBAEMHMH@StartVideo@ 100769ec     xpcruntime:xpcimports.obj
 0002:000059fc       ??_C@_0BG@HDCELEBP@StartVideo?5not?5found?6@ 100769fc     xpcruntime:xpcimports.obj
 0002:00005a18       ??_C@_0BA@FDNPOCLN@ReadFrameBuffer@ 10076a18     xpcruntime:xpcimports.obj
 0002:00005a2c       ??_C@_0BL@JHGHPNBI@ReadFrameBuffer?5not?5found?6@ 10076a2c     xpcruntime:xpcimports.obj
 0002:00005a4c       ??_C@_09FAHCLKAG@StopVideo@ 10076a4c     xpcruntime:xpcimports.obj
 0002:00005a58       ??_C@_0BF@NKGKKADL@StopVideo?5not?5found?6@ 10076a58     xpcruntime:xpcimports.obj
 0002:00005a74       ??_C@_0O@MCPKDLLL@ConvertUImage@ 10076a74     xpcruntime:xpcimports.obj
 0002:00005a84       ??_C@_0BJ@PHJKOAFL@ConvertUImage?5not?5found?6@ 10076a84     xpcruntime:xpcimports.obj
 0002:00005aa4       ??_C@_0BD@NKCBPBJJ@CreateVideoDisplay@ 10076aa4     xpcruntime:xpcimports.obj
 0002:00005abc       ??_C@_0BO@HPPLLNFP@CreateVideoDisplay?5not?5found?6@ 10076abc     xpcruntime:xpcimports.obj
 0002:00005ae0       ??_C@_0BE@KJCKGPHA@DestroyVideoDisplay@ 10076ae0     xpcruntime:xpcimports.obj
 0002:00005af8       ??_C@_0BP@FMGLJAIJ@DestroyVideoDisplay?5not?5found?6@ 10076af8     xpcruntime:xpcimports.obj
 0002:00005b20       ??_C@_0BC@HCMIMIDN@StartVideoDisplay@ 10076b20     xpcruntime:xpcimports.obj
 0002:00005b38       ??_C@_0BN@EFIEBGOO@StartVideoDisplay?5not?5found?6@ 10076b38     xpcruntime:xpcimports.obj
 0002:00005b5c       ??_C@_0BB@JBBLMILG@StopVideoDisplay@ 10076b5c     xpcruntime:xpcimports.obj
 0002:00005b70       ??_C@_0BM@DBJBPLEL@StopVideoDisplay?5not?5found?6@ 10076b70     xpcruntime:xpcimports.obj
 0002:00005b94       ??_C@_0M@MFJEGMHC@StreamVideo@ 10076b94     xpcruntime:xpcimports.obj
 0002:00005ba4       ??_C@_0BH@OINCDMLA@StreamVideo?5not?5found?6@ 10076ba4     xpcruntime:xpcimports.obj
 0002:00005bc0       ??_C@_0N@IGGLCIGE@xpceaddEvent@ 10076bc0     xpcruntime:xpcimports.obj
 0002:00005bd0       ??_C@_0BI@NHJNFMKH@xpceaddEvent?5not?5found?6@ 10076bd0     xpcruntime:xpcimports.obj
 0002:00005bec       ??_C@_0BB@HDPOIJAB@xpceDAQPostEvent@ 10076bec     xpcruntime:xpcimports.obj
 0002:00005c00       ??_C@_0BM@IHANBKGN@xpceDAQPostEvent?5not?5found?6@ 10076c00     xpcruntime:xpcimports.obj
 0002:00005c24       ??_C@_0BH@MBACMOD@xpceDAQUpdateTimeStamp@ 10076c24     xpcruntime:xpcimports.obj
 0002:00005c40       ??_C@_0CC@DAKBBINL@xpceDAQUpdateTimeStamp?5not?5foun@ 10076c40     xpcruntime:xpcimports.obj
 0002:00005c68       ??_C@_0BN@HJOHIFOM@xpceGetIntTimerGranularityNS@ 10076c68     xpcruntime:xpcimports.obj
 0002:00005c8c       ??_C@_0CI@OADDPMKB@xpceGetIntTimerGranularityNS?5no@ 10076c8c     xpcruntime:xpcimports.obj
 0002:00005cbc       ??_C@_0BG@CCHICKPN@slrteSetStepSizeDelta@ 10076cbc     xpcruntime:xpcimports.obj
 0002:00005cd8       ??_C@_0CB@MKHINEIJ@slrteSetStepSizeDelta?5not?5found@ 10076cd8     xpcruntime:xpcimports.obj
 0002:00005d00       ??_C@_0BI@CLNBLDKJ@slrteGetCurrentStepSize@ 10076d00     xpcruntime:xpcimports.obj
 0002:00005d1c       ??_C@_0CD@GIOJPGJA@slrteGetCurrentStepSize?5not?5fou@ 10076d1c     xpcruntime:xpcimports.obj
 0002:00005d48       ??_C@_0BE@FCLCBOC@registerPTPTimeRead@ 10076d48     xpcruntime:xpcimports.obj
 0002:00005d60       ??_C@_0BP@LHPKAJIP@registerPTPTimeRead?5not?5found?6@ 10076d60     xpcruntime:xpcimports.obj
 0002:00005d88       ??_C@_0BG@KIGCDDJI@unRegisterPTPTimeRead@ 10076d88     xpcruntime:xpcimports.obj
 0002:00005da4       ??_C@_0CB@MLFFBFCM@unRegisterPTPTimeRead?5not?5found@ 10076da4     xpcruntime:xpcimports.obj
 0002:00005dcc       ??_C@_0BB@IPMDDBHK@slTestInitialize@ 10076dcc     xpcruntime:xpcimports.obj
 0002:00005de0       ??_C@_0BM@LAJFCCJH@slTestInitialize?5not?5found?6@ 10076de0     xpcruntime:xpcimports.obj
 0002:00005e04       ??_C@_0BF@OOMPMEBC@slTestLogAssessments@ 10076e04     xpcruntime:xpcimports.obj
 0002:00005e20       ??_C@_0CA@FGJCEBAG@slTestLogAssessments?5not?5found?6@ 10076e20     xpcruntime:xpcimports.obj
 0002:00005e48       ??_C@_0BB@HJHKONHO@slTestEvalOnFail@ 10076e48     xpcruntime:xpcimports.obj
 0002:00005e5c       ??_C@_0BM@JIKCFFNJ@slTestEvalOnFail?5not?5found?6@ 10076e5c     xpcruntime:xpcimports.obj
 0002:00005e80       ??_C@_0BA@LBHLABFP@slTestTerminate@ 10076e80     xpcruntime:xpcimports.obj
 0002:00005e94       ??_C@_0BL@EMFGKAPA@slTestTerminate?5not?5found?6@ 10076e94     xpcruntime:xpcimports.obj
 0002:00005eb4       ??_C@_0BE@JPNPBBEO@slTestRegAssessment@ 10076eb4     xpcruntime:xpcimports.obj
 0002:00005ecc       ??_C@_0BP@FBDEJJJH@slTestRegAssessment?5not?5found?6@ 10076ecc     xpcruntime:xpcimports.obj
 0002:00005ef4       ??_C@_0O@NCLGDNIB@slrteSetupMSI@ 10076ef4     xpcruntime:xpcimports.obj
 0002:00005f04       ??_C@_0BJ@HEFMECLM@slrteSetupMSI?5not?5found?6@ 10076f04     xpcruntime:xpcimports.obj
 0002:00005f24       ??_C@_0BH@BPOLALHD@slrtGetCRBScratchSpace@ 10076f24     xpcruntime:xpcimports.obj
 0002:00005f40       ??_C@_0CC@KCKAJKKJ@slrtGetCRBScratchSpace?5not?5foun@ 10076f40     xpcruntime:xpcimports.obj
 0002:00005f68       ??_C@_0BC@MKFDAKOL@slrtGetSgCRBSpace@ 10076f68     xpcruntime:xpcimports.obj
 0002:00005f80       ??_C@_0BN@JDPHPLHL@slrtGetSgCRBSpace?5not?5found?6@ 10076f80     xpcruntime:xpcimports.obj
 0002:00005fa4       ??_C@_0P@EPAPKLIF@slrtfsOpenFile@ 10076fa4     xpcruntime:xpcimports.obj
 0002:00005fb8       ??_C@_0BK@FIHCBOHG@slrtfsOpenFile?5not?5found?6@ 10076fb8     xpcruntime:xpcimports.obj
 0002:00005fd8       ??_C@_0BA@LILAFDDL@slrtfsCloseFile@ 10076fd8     xpcruntime:xpcimports.obj
 0002:00005fec       ??_C@_0BL@DEGHJFIB@slrtfsCloseFile?5not?5found?6@ 10076fec     xpcruntime:xpcimports.obj
 0002:0000600c       ??_C@_0BC@OKMJDIEH@slrtfsWriteToFile@ 1007700c     xpcruntime:xpcimports.obj
 0002:00006024       ??_C@_0BN@KCFLCLAH@slrtfsWriteToFile?5not?5found?6@ 10077024     xpcruntime:xpcimports.obj
 0002:00006048       ??_C@_0BK@GIPNFFFF@slrtfsGetFileErrorMessage@ 10077048     xpcruntime:xpcimports.obj
 0002:00006068       ??_C@_0CF@BCBLMKLE@slrtfsGetFileErrorMessage?5not?5f@ 10077068     xpcruntime:xpcimports.obj
 0002:00006094       ??_C@_0BD@ICBOKMK@slrtfsGetFileError@ 10077094     xpcruntime:xpcimports.obj
 0002:000060ac       ??_C@_0BO@FNBANAE@slrtfsGetFileError?5not?5found?6@ 100770ac     xpcruntime:xpcimports.obj
 0002:000060d0       ??_C@_0BE@PPAJMHJP@slrtfsOpenFileAsync@ 100770d0     xpcruntime:xpcimports.obj
 0002:000060e8       ??_C@_0BP@HKBMMJOK@slrtfsOpenFileAsync?5not?5found?6@ 100770e8     xpcruntime:xpcimports.obj
 0002:00006110       ??_C@_0BF@IGNDIBPF@slrtfsCloseFileAsync@ 10077110     xpcruntime:xpcimports.obj
 0002:0000612c       ??_C@_0CA@GJPFDBKN@slrtfsCloseFileAsync?5not?5found?6@ 1007712c     xpcruntime:xpcimports.obj
 0002:00006154       ??_C@_0BE@IOLEBNB@slrtfsGetFileStatus@ 10077154     xpcruntime:xpcimports.obj
 0002:0000616c       ??_C@_0BP@PEFHDGHL@slrtfsGetFileStatus?5not?5found?6@ 1007716c     xpcruntime:xpcimports.obj
 0002:00006194       ??_C@_0M@HKIJIMG@slrtfsFread@ 10077194     xpcruntime:xpcimports.obj
 0002:000061a4       ??_C@_0BH@OOKBGONO@slrtfsFread?5not?5found?6@ 100771a4     xpcruntime:xpcimports.obj
 0002:000061c0       ??_C@_0BE@OGCMPLAP@slrtGetDefaultDrive@ 100771c0     xpcruntime:xpcimports.obj
 0002:000061d8       ??_C@_0BP@HKFGLHOE@slrtGetDefaultDrive?5not?5found?6@ 100771d8     xpcruntime:xpcimports.obj
 0002:00006200       ??_C@_0N@NAJIKFFI@slrtLogEvent@ 10077200     xpcruntime:xpcimports.obj
 0002:00006210       ??_C@_0BI@NKCEACND@slrtLogEvent?5not?5found?6@ 10077210     xpcruntime:xpcimports.obj
 0002:0000622c       ??_C@_0N@IDKFJOHI@getlasterror@ 1007722c     xpcruntime:xpcimports.obj
 0002:0000623c       ??_C@_0BI@MIHMCHGL@getlasterror?5not?5found?6@ 1007723c     xpcruntime:xpcimports.obj
 0002:00006258       ??_C@_0P@OKHGKJKN@geterrorstring@ 10077258     xpcruntime:xpcimports.obj
 0002:0000626c       ??_C@_0BK@NOHFDMLP@geterrorstring?5not?5found?6@ 1007726c     xpcruntime:xpcimports.obj
 0002:0000628c       ??_C@_0BD@HNFFKMGJ@slrtGetCPUTCelsius@ 1007728c     xpcruntime:xpcimports.obj
 0002:000062a4       ??_C@_0BO@LHBFKLIH@slrtGetCPUTCelsius?5not?5found?6@ 100772a4     xpcruntime:xpcimports.obj
 0002:000062c8       ??_C@_0M@OONCNCLM@slrtWarning@ 100772c8     xpcruntime:xpcimports.obj
 0002:000062d8       ??_C@_0BH@ICKGIEMB@slrtWarning?5not?5found?6@ 100772d8     xpcruntime:xpcimports.obj
 0002:000062f4       ??_C@_0N@EAAOMIIE@isUsedByRTIP@ 100772f4     xpcruntime:xpcimports.obj
 0002:00006304       ??_C@_0BI@GNHHHICK@isUsedByRTIP?5not?5found?6@ 10077304     xpcruntime:xpcimports.obj
 0002:00006320       ??_C@_0BC@HLDKJAG@SetIPTASKPriority@ 10077320     xpcruntime:xpcimports.obj
 0002:00006338       ??_C@_0BN@OGKMHHAE@SetIPTASKPriority?5not?5found?6@ 10077338     xpcruntime:xpcimports.obj
 0002:0000635c       ??_C@_0O@LHENMBDD@OpenInterface@ 1007735c     xpcruntime:xpcimports.obj
 0002:0000636c       ??_C@_0BJ@PFGDBKHB@OpenInterface?5not?5found?6@ 1007736c     xpcruntime:xpcimports.obj
 0002:0000638c       ??_C@_0P@IINFELKD@CloseInterface@ 1007738c     xpcruntime:xpcimports.obj
 0002:000063a0       ??_C@_0BK@PAPDNDBK@CloseInterface?5not?5found?6@ 100773a0     xpcruntime:xpcimports.obj
 0002:000063c0       ??_C@_05LEFIAAOI@SetIP@    100773c0     xpcruntime:xpcimports.obj
 0002:000063c8       ??_C@_0BB@CGLIBAMM@SetIP?5not?5found?6@ 100773c8     xpcruntime:xpcimports.obj
 0002:000063dc       ??_C@_0BA@HIJJHHMD@AddGatewayRoute@ 100773dc     xpcruntime:xpcimports.obj
 0002:000063f0       ??_C@_0BL@BFCFMDMN@AddGatewayRoute?5not?5found?6@ 100773f0     xpcruntime:xpcimports.obj
 0002:00006410       ??_C@_0M@PHMABFPI@DeleteRoute@ 10077410     xpcruntime:xpcimports.obj
 0002:00006420       ??_C@_0BH@JPJGLLID@DeleteRoute?5not?5found?6@ 10077420     xpcruntime:xpcimports.obj
 0002:0000643c       ??_C@_0BA@FCDIMKIJ@GetHostTarIPAdd@ 1007743c     xpcruntime:xpcimports.obj
 0002:00006450       ??_C@_0BL@MBKDGKBO@GetHostTarIPAdd?5not?5found?6@ 10077450     xpcruntime:xpcimports.obj
 0002:00006470       ??_C@_0M@HPMIPIBI@GetDCUUsage@ 10077470     xpcruntime:xpcimports.obj
 0002:00006480       ??_C@_0BH@EBLJKCJC@GetDCUUsage?5not?5found?6@ 10077480     xpcruntime:xpcimports.obj
 0002:0000649c       ??_C@_06MPKMECK@accept@    1007749c     xpcruntime:xpcimports.obj
 0002:000064a4       ??_C@_0BC@GBGIEMNO@accept?5not?5found?6@ 100774a4     xpcruntime:xpcimports.obj
 0002:000064bc       ??_C@_04NPNJNMMP@bind@     100774bc     xpcruntime:xpcimports.obj
 0002:000064c4       ??_C@_0BA@DAJNENLO@bind?5not?5found?6@ 100774c4     xpcruntime:xpcimports.obj
 0002:000064d8       ??_C@_0L@CKHNIFCM@setsockopt@ 100774d8     xpcruntime:xpcimports.obj
 0002:000064e8       ??_C@_0BG@MFIIOMFE@setsockopt?5not?5found?6@ 100774e8     xpcruntime:xpcimports.obj
 0002:00006504       ??_C@_0M@ODDJDCDK@closesocket@ 10077504     xpcruntime:xpcimports.obj
 0002:00006514       ??_C@_0BH@JHGHMIL@closesocket?5not?5found?6@ 10077514     xpcruntime:xpcimports.obj
 0002:00006530       ??_C@_07KAIBNCHO@connect@  10077530     xpcruntime:xpcimports.obj
 0002:0000653c       ??_C@_0BD@MKLLMBM@connect?5not?5found?6@ 1007753c     xpcruntime:xpcimports.obj
 0002:00006554       ??_C@_0M@PBPOCKDG@ioctlsocket@ 10077554     xpcruntime:xpcimports.obj
 0002:00006564       ??_C@_0BH@NFCNHHIH@ioctlsocket?5not?5found?6@ 10077564     xpcruntime:xpcimports.obj
 0002:00006580       ??_C@_06OODDLKLE@listen@   10077580     xpcruntime:xpcimports.obj
 0002:00006588       ??_C@_0BC@NHBILEKI@listen?5not?5found?6@ 10077588     xpcruntime:xpcimports.obj
 0002:000065a0       ??_C@_08HMBBGFHE@recvfrom@ 100775a0     xpcruntime:xpcimports.obj
 0002:000065ac       ??_C@_0BE@BJAJFFLF@recvfrom?5not?5found?6@ 100775ac     xpcruntime:xpcimports.obj
 0002:000065c4       ??_C@_06MEPBGKEC@sendto@   100775c4     xpcruntime:xpcimports.obj
 0002:000065cc       ??_C@_0BC@BHPIMDJO@sendto?5not?5found?6@ 100775cc     xpcruntime:xpcimports.obj
 0002:000065e4       ??_C@_09JKBDEEOB@inet_addr@ 100775e4     xpcruntime:xpcimports.obj
 0002:000065f0       ??_C@_0BF@HKJPGECN@inet_addr?5not?5found?6@ 100775f0     xpcruntime:xpcimports.obj
 0002:0000660c       ??_C@_06HBELJPBO@socket@   1007760c     xpcruntime:xpcimports.obj
 0002:00006614       ??_C@_0BC@NAGFFJGA@socket?5not?5found?6@ 10077614     xpcruntime:xpcimports.obj
 0002:0000662c       ??_C@_09ICJIFGNC@GetSocket@ 1007762c     xpcruntime:xpcimports.obj
 0002:00006638       ??_C@_0BF@KDBCKMOJ@GetSocket?5not?5found?6@ 10077638     xpcruntime:xpcimports.obj
 0002:00006654       ??_C@_0P@KJEGJMJI@GetSocketState@ 10077654     xpcruntime:xpcimports.obj
 0002:00006668       ??_C@_0BK@IALBJHEB@GetSocketState?5not?5found?6@ 10077668     xpcruntime:xpcimports.obj
 0002:00006688       ??_C@_0L@MEAJHNHB@SocketSend@ 10077688     xpcruntime:xpcimports.obj
 0002:00006698       ??_C@_0BG@EOCMBFJA@SocketSend?5not?5found?6@ 10077698     xpcruntime:xpcimports.obj
 0002:000066b4       ??_C@_0O@PFPCLEMF@SocketReceive@ 100776b4     xpcruntime:xpcimports.obj
 0002:000066c4       ??_C@_0BJ@HIBADDFO@SocketReceive?5not?5found?6@ 100776c4     xpcruntime:xpcimports.obj
 0002:000066e4       ??_C@_0BD@OOGFNAIK@CreateServerSocket@ 100776e4     xpcruntime:xpcimports.obj
 0002:000066fc       ??_C@_0BO@GKIJHIPH@CreateServerSocket?5not?5found?6@ 100776fc     xpcruntime:xpcimports.obj
 0002:00006720       ??_C@_0BB@KGHJGFFO@OpenServerListen@ 10077720     xpcruntime:xpcimports.obj
 0002:00006734       ??_C@_0BM@NFMMLIO@OpenServerListen?5not?5found?6@ 10077734     xpcruntime:xpcimports.obj
 0002:00006758       ??_C@_0BE@BAJLDJAH@ConnectServerSocket@ 10077758     xpcruntime:xpcimports.obj
 0002:00006770       ??_C@_0BP@KJNODIKE@ConnectServerSocket?5not?5found?6@ 10077770     xpcruntime:xpcimports.obj
 0002:00006798       ??_C@_0BC@PLKKJDIM@CloseServerSocket@ 10077798     xpcruntime:xpcimports.obj
 0002:000067b0       ??_C@_0BN@KEJEPNMB@CloseServerSocket?5not?5found?6@ 100777b0     xpcruntime:xpcimports.obj
 0002:000067d4       ??_C@_0BD@MCLPKCPP@CreateClientSocket@ 100777d4     xpcruntime:xpcimports.obj
 0002:000067ec       ??_C@_0BO@DILAGPFN@CreateClientSocket?5not?5found?6@ 100777ec     xpcruntime:xpcimports.obj
 0002:00006810       ??_C@_0BB@DAPKNNLG@BindClientSocket@ 10077810     xpcruntime:xpcimports.obj
 0002:00006824       ??_C@_0BM@LLLMMDFN@BindClientSocket?5not?5found?6@ 10077824     xpcruntime:xpcimports.obj
 0002:00006848       ??_C@_0BE@DMEBELHC@ConnectClientSocket@ 10077848     xpcruntime:xpcimports.obj
 0002:00006860       ??_C@_0BP@PLOHCPAO@ConnectClientSocket?5not?5found?6@ 10077860     xpcruntime:xpcimports.obj
 0002:00006888       ??_C@_0BC@NHHAOBPJ@CloseClientSocket@ 10077888     xpcruntime:xpcimports.obj
 0002:000068a0       ??_C@_0BN@PGKNOKGL@CloseClientSocket?5not?5found?6@ 100778a0     xpcruntime:xpcimports.obj
 0002:00006978       __pRawDllMain              10077978     LIBCMT:dll_dllmain.obj
 0002:00006978       __pDefaultRawDllMain       10077978     LIBCMT:dll_dllmain.obj
 0002:00006b70       ??_C@_08EHJDFFNH@__based?$CI@ 10077b70     libvcruntime:undname.obj
 0002:00006b7c       ??_C@_07KOLFKCDI@__cdecl@  10077b7c     libvcruntime:undname.obj
 0002:00006b88       ??_C@_08GHMPAG@__pascal@   10077b88     libvcruntime:undname.obj
 0002:00006b94       ??_C@_09IFJBGAPI@__stdcall@ 10077b94     libvcruntime:undname.obj
 0002:00006ba0       ??_C@_0L@NPHFGOKO@__thiscall@ 10077ba0     libvcruntime:undname.obj
 0002:00006bb0       ??_C@_0L@JMKHOMEK@__fastcall@ 10077bb0     libvcruntime:undname.obj
 0002:00006bc0       ??_C@_0N@BCKKPABJ@__vectorcall@ 10077bc0     libvcruntime:undname.obj
 0002:00006bd0       ??_C@_09HIJEGCPM@__clrcall@ 10077bd0     libvcruntime:undname.obj
 0002:00006bdc       ??_C@_06GHPCKEAG@__eabi@   10077bdc     libvcruntime:undname.obj
 0002:00006be4       ??_C@_09IOPIDJLG@__swift_1@ 10077be4     libvcruntime:undname.obj
 0002:00006bf0       ??_C@_09KFNFGKHF@__swift_2@ 10077bf0     libvcruntime:undname.obj
 0002:00006bfc       ??_C@_07JOMMBBKO@__ptr64@  10077bfc     libvcruntime:undname.obj
 0002:00006c08       ??_C@_0L@PILCLIHE@__restrict@ 10077c08     libvcruntime:undname.obj
 0002:00006c18       ??_C@_0M@GFIIJFMG@__unaligned@ 10077c18     libvcruntime:undname.obj
 0002:00006c28       ??_C@_09DHDLOLLB@restrict?$CI@ 10077c28     libvcruntime:undname.obj
 0002:00006c34       ??_C@_04NIHEBCM@?5new@     10077c34     libvcruntime:undname.obj
 0002:00006c3c       ??_C@_07FPCDHGMM@?5delete@ 10077c3c     libvcruntime:undname.obj
 0002:00006c48       ??_C@_01NEMOKFLO@?$DN@     10077c48     libvcruntime:undname.obj
 0002:00006c4c       ??_C@_02GPIOPFAK@?$DO?$DO@ 10077c4c     libvcruntime:undname.obj
 0002:00006c50       ??_C@_02FODMEDOG@?$DM?$DM@ 10077c50     libvcruntime:undname.obj
 0002:00006c54       ??_C@_01DCLJPIOD@?$CB@     10077c54     libvcruntime:undname.obj
 0002:00006c58       ??_C@_02EGOFBIJA@?$DN?$DN@ 10077c58     libvcruntime:undname.obj
 0002:00006c5c       ??_C@_02FDNJECIE@?$CB?$DN@ 10077c5c     libvcruntime:undname.obj
 0002:00006c60       ??_C@_02GPECMEKF@?$FL?$FN@ 10077c60     libvcruntime:undname.obj
 0002:00006c64       ??_C@_08LHJFAFGD@operator@ 10077c64     libvcruntime:undname.obj
 0002:00006c70       ??_C@_02HBOOOICD@?9?$DO@   10077c70     libvcruntime:undname.obj
 0002:00006c74       ??_C@_01NBENCBCI@?$CK@     10077c74     libvcruntime:undname.obj
 0002:00006c78       ??_C@_02ECNGHCIF@?$CL?$CL@ 10077c78     libvcruntime:undname.obj
 0002:00006c7c       ??_C@_02BAABKJLB@?9?9@     10077c7c     libvcruntime:undname.obj
 0002:00006c80       ??_C@_01JOAMLHOP@?9@       10077c80     libvcruntime:undname.obj
 0002:00006c84       ??_C@_01MIFGBAGJ@?$CL@     10077c84     libvcruntime:undname.obj
 0002:00006c88       ??_C@_01HNPIGOCE@?$CG@     10077c88     libvcruntime:undname.obj
 0002:00006c8c       ??_C@_03MNHNFDLC@?9?$DO?$CK@ 10077c8c     libvcruntime:undname.obj
 0002:00006c90       ??_C@_01KMDKNFGN@?1@       10077c90     libvcruntime:undname.obj
 0002:00006c94       ??_C@_01FGNFDNOH@?$CF@     10077c94     libvcruntime:undname.obj
 0002:00006c98       ??_C@_01MNNFJEPP@?$DM@     10077c98     libvcruntime:undname.obj
 0002:00006c9c       ??_C@_02EHCHHCKH@?$DM?$DN@ 10077c9c     libvcruntime:undname.obj
 0002:00006ca0       ??_C@_01PPODPGHN@?$DO@     10077ca0     libvcruntime:undname.obj
 0002:00006ca4       ??_C@_02EEKDKGMJ@?$DO?$DN@ 10077ca4     libvcruntime:undname.obj
 0002:00006ca8       ??_C@_01IHBHIGKO@?0@       10077ca8     libvcruntime:undname.obj
 0002:00006cac       ??_C@_02HCKGKOFO@?$CI?$CJ@ 10077cac     libvcruntime:undname.obj
 0002:00006cb0       ??_C@_01PJKLJHI@?$HO@      10077cb0     libvcruntime:undname.obj
 0002:00006cb4       ??_C@_01JKBOJNNK@?$FO@     10077cb4     libvcruntime:undname.obj
 0002:00006cb8       ??_C@_01DNKMNLPK@?$HM@     10077cb8     libvcruntime:undname.obj
 0002:00006cbc       ??_C@_02PPKAJPJL@?$CG?$CG@ 10077cbc     libvcruntime:undname.obj
 0002:00006cc0       ??_C@_02NONPIBCD@?$HM?$HM@ 10077cc0     libvcruntime:undname.obj
 0002:00006cc4       ??_C@_02FPIMKNGF@?$CK?$DN@ 10077cc4     libvcruntime:undname.obj
 0002:00006cc8       ??_C@_02FOEOMHFC@?$CL?$DN@ 10077cc8     libvcruntime:undname.obj
 0002:00006ccc       ??_C@_02FKMDLLOA@?9?$DN@   10077ccc     libvcruntime:undname.obj
 0002:00006cd0       ??_C@_02FJEHGPIO@?1?$DN@   10077cd0     libvcruntime:undname.obj
 0002:00006cd4       ??_C@_02FENAOKFI@?$CF?$DN@ 10077cd4     libvcruntime:undname.obj
 0002:00006cd8       ??_C@_03IKFCCPFF@?$DO?$DO?$DN@ 10077cd8     libvcruntime:undname.obj
 0002:00006cdc       ??_C@_03CDNPDDLA@?$DM?$DM?$DN@ 10077cdc     libvcruntime:undname.obj
 0002:00006ce0       ??_C@_02FGJGFEAB@?$CG?$DN@ 10077ce0     libvcruntime:undname.obj
 0002:00006ce4       ??_C@_02DHLNPPGH@?$HM?$DN@ 10077ce4     libvcruntime:undname.obj
 0002:00006ce8       ??_C@_02MHEGNOJ@?$FO?$DN@  10077ce8     libvcruntime:undname.obj
 0002:00006cec       ??_C@_09IFPLHPGF@?$GAvftable?8@ 10077cec     libvcruntime:undname.obj
 0002:00006cf8       ??_C@_09BLBHBJP@?$GAvbtable?8@ 10077cf8     libvcruntime:undname.obj
 0002:00006d04       ??_C@_07FEEIOKP@?$GAvcall?8@ 10077d04     libvcruntime:undname.obj
 0002:00006d10       ??_C@_08LLFFHHDJ@?$GAtypeof?8@ 10077d10     libvcruntime:undname.obj
 0002:00006d1c       ??_C@_0BF@KDPPACIK@?$GAlocal?5static?5guard?8@ 10077d1c     libvcruntime:undname.obj
 0002:00006d38       ??_C@_08OBABFOLI@?$GAstring?8@ 10077d38     libvcruntime:undname.obj
 0002:00006d44       ??_C@_0BD@JDLKDPAB@?$GAvbase?5destructor?8@ 10077d44     libvcruntime:undname.obj
 0002:00006d5c       ??_C@_0BN@DEGPLNFK@?$GAvector?5deleting?5destructor?8@ 10077d5c     libvcruntime:undname.obj
 0002:00006d80       ??_C@_0BO@OBMKPJIG@?$GAdefault?5constructor?5closure?8@ 10077d80     libvcruntime:undname.obj
 0002:00006da4       ??_C@_0BN@IMDCHIKM@?$GAscalar?5deleting?5destructor?8@ 10077da4     libvcruntime:undname.obj
 0002:00006dc8       ??_C@_0BO@PFGOCPJJ@?$GAvector?5constructor?5iterator?8@ 10077dc8     libvcruntime:undname.obj
 0002:00006dec       ??_C@_0BN@LFPFMEDL@?$GAvector?5destructor?5iterator?8@ 10077dec     libvcruntime:undname.obj
 0002:00006e10       ??_C@_0CE@IKBNEHA@?$GAvector?5vbase?5constructor?5itera@ 10077e10     libvcruntime:undname.obj
 0002:00006e3c       ??_C@_0BL@NILFHHPC@?$GAvirtual?5displacement?5map?8@ 10077e3c     libvcruntime:undname.obj
 0002:00006e5c       ??_C@_0CB@JONCMFFK@?$GAeh?5vector?5constructor?5iterator@ 10077e5c     libvcruntime:undname.obj
 0002:00006e84       ??_C@_0CA@GCEOPDGL@?$GAeh?5vector?5destructor?5iterator?8@ 10077e84     libvcruntime:undname.obj
 0002:00006eac       ??_C@_0CH@OOJPLCPH@?$GAeh?5vector?5vbase?5constructor?5it@ 10077eac     libvcruntime:undname.obj
 0002:00006edc       ??_C@_0BL@LLKPOHJI@?$GAcopy?5constructor?5closure?8@ 10077edc     libvcruntime:undname.obj
 0002:00006efc       ??_C@_0BA@KBCDOMBN@?$GAudt?5returning?8@ 10077efc     libvcruntime:undname.obj
 0002:00006f10       ??_C@_03KLGMFNMG@?$GAEH@   10077f10     libvcruntime:undname.obj
 0002:00006f14       ??_C@_05KHLCHHI@?$GARTTI@  10077f14     libvcruntime:undname.obj
 0002:00006f1c       ??_C@_0BA@KKLDJDLB@?$GAlocal?5vftable?8@ 10077f1c     libvcruntime:undname.obj
 0002:00006f30       ??_C@_0CE@IIHCMGGL@?$GAlocal?5vftable?5constructor?5clos@ 10077f30     libvcruntime:undname.obj
 0002:00006f5c       ??_C@_06FHBGPFGH@?5new?$FL?$FN@ 10077f5c     libvcruntime:undname.obj
 0002:00006f64       ??_C@_09LBNFPBCA@?5delete?$FL?$FN@ 10077f64     libvcruntime:undname.obj
 0002:00006f70       ??_C@_0P@HJKNJFNN@?$GAomni?5callsig?8@ 10077f70     libvcruntime:undname.obj
 0002:00006f84       ??_C@_0BL@CNOONJFP@?$GAplacement?5delete?5closure?8@ 10077f84     libvcruntime:undname.obj
 0002:00006fa4       ??_C@_0BN@CKNJLHMB@?$GAplacement?5delete?$FL?$FN?5closure?8@ 10077fa4     libvcruntime:undname.obj
 0002:00006fc8       ??_C@_0CG@CFDHKGGD@?$GAmanaged?5vector?5constructor?5ite@ 10077fc8     libvcruntime:undname.obj
 0002:00006ff8       ??_C@_0CF@IMGKMJNO@?$GAmanaged?5vector?5destructor?5iter@ 10077ff8     libvcruntime:undname.obj
 0002:00007024       ??_C@_0CG@HLDDJMAG@?$GAeh?5vector?5copy?5constructor?5ite@ 10078024     libvcruntime:undname.obj
 0002:00007054       ??_C@_0CM@FCBBDIGB@?$GAeh?5vector?5vbase?5copy?5construct@ 10078054     libvcruntime:undname.obj
 0002:00007088       ??_C@_0BL@CLIPGLGB@?$GAdynamic?5initializer?5for?5?8@ 10078088     libvcruntime:undname.obj
 0002:000070a8       ??_C@_0CB@PDBIFEP@?$GAdynamic?5atexit?5destructor?5for?5@ 100780a8     libvcruntime:undname.obj
 0002:000070d0       ??_C@_0CD@CGAJBKEJ@?$GAvector?5copy?5constructor?5iterat@ 100780d0     libvcruntime:undname.obj
 0002:000070fc       ??_C@_0CJ@GJELGAMM@?$GAvector?5vbase?5copy?5constructor?5@ 100780fc     libvcruntime:undname.obj
 0002:00007130       ??_C@_0CL@FGIJHLCE@?$GAmanaged?5vector?5copy?5constructo@ 10078130     libvcruntime:undname.obj
 0002:00007164       ??_C@_0BM@PMGGMLDN@?$GAlocal?5static?5thread?5guard?8@ 10078164     libvcruntime:undname.obj
 0002:00007188       ??_C@_0N@BDNMDMOL@operator?5?$CC?$CC?5@ 10078188     libvcruntime:undname.obj
 0002:00007198       ??_C@_0BC@GGEBGALA@operator?5co_await@ 10078198     libvcruntime:undname.obj
 0002:000071b0       ??_C@_0BC@DAFEJGAK@?5Type?5Descriptor?8@ 100781b0     libvcruntime:undname.obj
 0002:000071c8       ??_C@_0BM@LDKODKLH@?5Base?5Class?5Descriptor?5at?5?$CI@ 100781c8     libvcruntime:undname.obj
 0002:000071ec       ??_C@_0BD@LGICGFMM@?5Base?5Class?5Array?8@ 100781ec     libvcruntime:undname.obj
 0002:00007204       ??_C@_0BN@MECKDCOJ@?5Class?5Hierarchy?5Descriptor?8@ 10078204     libvcruntime:undname.obj
 0002:00007228       ??_C@_0BK@CFCOFLF@?5Complete?5Object?5Locator?8@ 10078228     libvcruntime:undname.obj
 0002:00007248       ??_C@_04HEJADOOB@CV?3?5@   10078248     libvcruntime:undname.obj
 0002:00007250       ??_C@_02MOLJINC@?3?3@      10078250     libvcruntime:undname.obj
 0002:00007254       ??_C@_0BE@JAEOCHPE@template?9parameter?9@ 10078254     libvcruntime:undname.obj
 0002:0000726c       ??_C@_0O@KHGCOMHP@generic?9type?9@ 1007826c     libvcruntime:undname.obj
 0002:0000727c       ??_C@_01NLNLIGKH@?$GA@     1007827c     libvcruntime:undname.obj
 0002:00007280       ??_C@_01GEODFPGF@?8@       10078280     libvcruntime:undname.obj
 0002:00007284       ??_C@_0BG@JNJLAMPM@?$GAanonymous?5namespace?8@ 10078284     libvcruntime:undname.obj
 0002:000072a0       ??_C@_02OHHJMEON@?8?8@     100782a0     libvcruntime:undname.obj
 0002:000072a4       ??_C@_0BN@IBLMMFAP@?$GAnon?9type?9template?9parameter@ 100782a4     libvcruntime:undname.obj
 0002:000072c8       ??_C@_04GKJNKENE@void@     100782c8     libvcruntime:undname.obj
 0002:000072d0       ??_C@_0BE@EODMJLIF@?$GAtemplate?9parameter@ 100782d0     libvcruntime:undname.obj
 0002:000072e8       ??_C@_03KHICJKCI@?4?4?4@   100782e8     libvcruntime:undname.obj
 0002:000072ec       ??_C@_04HIBGFPH@NULL@      100782ec     libvcruntime:undname.obj
 0002:000072f4       ??_C@_02DPKJAMEF@?$CFd@    100782f4     libvcruntime:undname.obj
 0002:000072f8       ??_C@_0BK@IHCCFNEL@?$GAtemplate?9type?9parameter?9@ 100782f8     libvcruntime:undname.obj
 0002:00007318       ??_C@_0BK@OFCNNNKO@?$GAgeneric?9class?9parameter?9@ 10078318     libvcruntime:undname.obj
 0002:00007338       ??_C@_0BL@NGJBLFIL@?$GAgeneric?9method?9parameter?9@ 10078338     libvcruntime:undname.obj
 0002:00007358       ??_C@_03OPGICMGF@?$HN?8?5@ 10078358     libvcruntime:undname.obj
 0002:0000735c       ??_C@_02IGFCGPIL@?$HN?8@   1007835c     libvcruntime:undname.obj
 0002:00007360       ??_C@_01CLKCMJKC@?5@       10078360     libvcruntime:undname.obj
 0002:00007364       ??_C@_0N@CBHHHENL@?$GAvtordispex?$HL@ 10078364     libvcruntime:undname.obj
 0002:00007374       ??_C@_0L@GHPFDFH@?$GAvtordisp?$HL@ 10078374     libvcruntime:undname.obj
 0002:00007384       ??_C@_0L@HNGCOGAE@?$GAadjustor?$HL@ 10078384     libvcruntime:undname.obj
 0002:00007394       ??_C@_0CB@KJDOOODE@?$GAlocal?5static?5destructor?5helper@ 10078394     libvcruntime:undname.obj
 0002:000073bc       ??_C@_0DB@ILEFOCIJ@?$GAtemplate?5static?5data?5member?5co@ 100783bc     libvcruntime:undname.obj
 0002:000073f8       ??_C@_0DA@HGFJFBBE@?$GAtemplate?5static?5data?5member?5de@ 100783f8     libvcruntime:undname.obj
 0002:00007434       ??_C@_07PGOEDBHP@static?5@ 10078434     libvcruntime:undname.obj
 0002:00007440       ??_C@_08NIEOINHE@virtual?5@ 10078440     libvcruntime:undname.obj
 0002:0000744c       ??_C@_09LAPHOOG@private?3?5@ 1007844c     libvcruntime:undname.obj
 0002:00007458       ??_C@_0M@GAIFPFIP@protected?3?5@ 10078458     libvcruntime:undname.obj
 0002:00007468       ??_C@_08GPDDCMKI@public?3?5@ 10078468     libvcruntime:undname.obj
 0002:00007474       ??_C@_08KJLFOPNE@?$FLthunk?$FN?3@ 10078474     libvcruntime:undname.obj
 0002:00007480       ??_C@_0M@DHNBOJMP@extern?5?$CCC?$CC?5@ 10078480     libvcruntime:undname.obj
 0002:00007490       ??_C@_02KCKGHPCA@?$CJ?5@   10078490     libvcruntime:undname.obj
 0002:00007494       ??_C@_05CIHEBHNO@char?5@   10078494     libvcruntime:undname.obj
 0002:0000749c       ??_C@_06EHJMALKF@short?5@  1007849c     libvcruntime:undname.obj
 0002:000074a4       ??_C@_04LAHKHJMA@int?5@    100784a4     libvcruntime:undname.obj
 0002:000074ac       ??_C@_05CJIMAING@long?5@   100784ac     libvcruntime:undname.obj
 0002:000074b4       ??_C@_09EBBEKKIH@unsigned?5@ 100784b4     libvcruntime:undname.obj
 0002:000074c0       ??_C@_05BEFAKPML@void?5@   100784c0     libvcruntime:undname.obj
 0002:000074c8       ??_C@_08PABEKFH@volatile@  100784c8     libvcruntime:undname.obj
 0002:000074d4       ??_C@_0BA@LKIJLKPP@std?3?3nullptr_t?5@ 100784d4     libvcruntime:undname.obj
 0002:000074e8       ??_C@_0P@GCOCNKDM@std?3?3nullptr_t@ 100784e8     libvcruntime:undname.obj
 0002:000074fc       ??_C@_0L@EGPHHEKN@?$DMellipsis?$DO@ 100784fc     libvcruntime:undname.obj
 0002:0000750c       ??_C@_04EENFHACM@?0?4?4?4@ 1007850c     libvcruntime:undname.obj
 0002:00007514       ??_C@_0M@ELJOJFFH@?0?$DMellipsis?$DO@ 10078514     libvcruntime:undname.obj
 0002:00007524       ??_C@_09DNHFEOJI@?5noexcept@ 10078524     libvcruntime:undname.obj
 0002:00007530       ??_C@_03PBJBJNON@cpu@      10078530     libvcruntime:undname.obj
 0002:00007534       ??_C@_03DCBBJBAA@amp@      10078534     libvcruntime:undname.obj
 0002:00007538       ??_C@_02KEGNLNML@?0?5@     10078538     libvcruntime:undname.obj
 0002:0000753c       ??_C@_04ENMBGAPA@char@     1007853c     libvcruntime:undname.obj
 0002:00007544       ??_C@_05BFKKPKCG@short@    10078544     libvcruntime:undname.obj
 0002:0000754c       ??_C@_03JBIPMCLC@int@      1007854c     libvcruntime:undname.obj
 0002:00007550       ??_C@_04GOKPGOLB@long@     10078550     libvcruntime:undname.obj
 0002:00007558       ??_C@_04DDKJGDCM@bool@     10078558     libvcruntime:undname.obj
 0002:00007560       ??_C@_06EBGKOKIG@__int8@   10078560     libvcruntime:undname.obj
 0002:00007568       ??_C@_07ICFHOGAF@__int16@  10078568     libvcruntime:undname.obj
 0002:00007574       ??_C@_07OFLPPHGP@__int32@  10078574     libvcruntime:undname.obj
 0002:00007580       ??_C@_07LFCOJCAC@__int64@  10078580     libvcruntime:undname.obj
 0002:0000758c       ??_C@_08GAHOLHEO@__int128@ 1007858c     libvcruntime:undname.obj
 0002:00007598       ??_C@_09EEKGDCPH@?$DMunknown?$DO@ 10078598     libvcruntime:undname.obj
 0002:000075a4       ??_C@_08HBIPOFJB@char16_t@ 100785a4     libvcruntime:undname.obj
 0002:000075b0       ??_C@_08IECNCBKG@char32_t@ 100785b0     libvcruntime:undname.obj
 0002:000075bc       ??_C@_07CLGGIAMF@wchar_t@  100785bc     libvcruntime:undname.obj
 0002:000075c8       ??_C@_06GCICPBLB@__w64?5@  100785c8     libvcruntime:undname.obj
 0002:000075d0       ??_C@_07NFANNNEC@UNKNOWN@  100785d0     libvcruntime:undname.obj
 0002:000075dc       ??_C@_07EDHNAJHC@signed?5@ 100785dc     libvcruntime:undname.obj
 0002:000075e8       ??_C@_05BNCCCJPP@const@    100785e8     libvcruntime:undname.obj
 0002:000075f0       ??_C@_09EFNPDFFP@?5volatile@ 100785f0     libvcruntime:undname.obj
 0002:000075fc       ??_C@_0P@GCIFDJCJ@?$GAunknown?5ecsu?8@ 100785fc     libvcruntime:undname.obj
 0002:00007610       ??_C@_06MOJHIBMG@union?5@  10078610     libvcruntime:undname.obj
 0002:00007618       ??_C@_07DIBCDNGL@struct?5@ 10078618     libvcruntime:undname.obj
 0002:00007624       ??_C@_06LJBABKPM@class?5@  10078624     libvcruntime:undname.obj
 0002:0000762c       ??_C@_08KOFANOFK@coclass?5@ 1007862c     libvcruntime:undname.obj
 0002:00007638       ??_C@_0N@DLIEFKNA@cointerface?5@ 10078638     libvcruntime:undname.obj
 0002:00007648       ??_C@_05LJGMCFOG@enum?5@   10078648     libvcruntime:undname.obj
 0002:00007650       ??_C@_09GAIEOBLP@volatile?5@ 10078650     libvcruntime:undname.obj
 0002:0000765c       ??_C@_06LIJLOJAG@const?5@  1007865c     libvcruntime:undname.obj
 0002:00007664       ??_C@_02KJPKDIBN@?$CG?5@   10078664     libvcruntime:undname.obj
 0002:00007668       ??_C@_03PCKGMOPB@?$CG?$CG?5@ 10078668     libvcruntime:undname.obj
 0002:0000766c       ??_C@_0M@EALIELKG@cli?3?3array?$DM@ 1007866c     libvcruntime:undname.obj
 0002:0000767c       ??_C@_0O@GKABPPIF@cli?3?3pin_ptr?$DM@ 1007867c     libvcruntime:undname.obj
 0002:0000768c       ??_C@_02GOGNNPBN@?$CJ?$FL@ 1007868c     libvcruntime:undname.obj
 0002:00007690       ??_C@_06EEGAIFAK@?$HLflat?$HN@ 10078690     libvcruntime:undname.obj
 0002:00007698       ??_C@_05JIBOFOHK@?$HLfor?5@ 10078698     libvcruntime:undname.obj
 0002:000076a0       ??_C@_02MDINNEEG@s?5@      100786a0     libvcruntime:undname.obj
 0002:000076a8       ??_7DNameNode@@6B@         100786a8     libvcruntime:undname.obj
 0002:000076bc       ??_7charNode@@6B@          100786bc     libvcruntime:undname.obj
 0002:000076d0       ??_7pcharNode@@6B@         100786d0     libvcruntime:undname.obj
 0002:000076e4       ??_7pDNameNode@@6B@        100786e4     libvcruntime:undname.obj
 0002:000076f8       ??_7DNameStatusNode@@6B@   100786f8     libvcruntime:undname.obj
 0002:0000770c       ??_7pairNode@@6B@          1007870c     libvcruntime:undname.obj
 0002:0000771c       ??_C@_04OKOHEJBO@?5?$DP?$DP?5@ 1007871c     libvcruntime:undname.obj
 0002:00007724       ?nodes@?1??make@DNameStatusNode@@SAPBV2@W4DNameStatus@@@Z@4QBV2@B 10078724     libvcruntime:undname.obj
 0002:00007770       ??_C@_1DM@KHCHBNEB@?$AAa?$AAp?$AAi?$AA?9?$AAm?$AAs?$AA?9?$AAw?$AAi?$AAn?$AA?9?$AAc?$AAo?$AAr?$AAe@ 10078770     libvcruntime:winapi_downlevel.obj
 0002:000077b8       ??_C@_1DK@LPPGFMPP@?$AAa?$AAp?$AAi?$AA?9?$AAm?$AAs?$AA?9?$AAw?$AAi?$AAn?$AA?9?$AAc?$AAo?$AAr?$AAe@ 100787b8     libvcruntime:winapi_downlevel.obj
 0002:00007800       ??_C@_1BC@GDMECMAK@?$AAk?$AAe?$AAr?$AAn?$AAe?$AAl?$AA3?$AA2@ 10078800     libvcruntime:winapi_downlevel.obj
 0002:00007818       ??_C@_1BA@PFFKHIOG@?$AAa?$AAp?$AAi?$AA?9?$AAm?$AAs?$AA?9@ 10078818     libvcruntime:winapi_downlevel.obj
 0002:0000782c       ??_C@_1BA@IAIFMGEF@?$AAe?$AAx?$AAt?$AA?9?$AAm?$AAs?$AA?9@ 1007882c     libvcruntime:winapi_downlevel.obj
 0002:0000784c       ??_C@_08KNHFBNJ@FlsAlloc@  1007884c     libvcruntime:winapi_downlevel.obj
 0002:00007864       ??_C@_07PEJMOBNF@FlsFree@  10078864     libvcruntime:winapi_downlevel.obj
 0002:0000787c       ??_C@_0M@GDNOONDI@FlsGetValue@ 1007887c     libvcruntime:winapi_downlevel.obj
 0002:00007898       ??_C@_0M@JCPCPOEF@FlsSetValue@ 10078898     libvcruntime:winapi_downlevel.obj
 0002:000078b4       ??_C@_0BM@HCFOFFN@InitializeCriticalSectionEx@ 100788b4     libvcruntime:winapi_downlevel.obj
 0002:000078dc       ??_7exception@std@@6B@     100788dc     libvcruntime:frame.obj
 0002:000078e8       ??_C@_0BC@EOODALEL@Unknown?5exception@ 100788e8     libvcruntime:frame.obj
 0002:00007904       ??_7bad_exception@std@@6B@ 10078904     libvcruntime:frame.obj
 0002:00007910       ??_C@_0O@DPKOEFFH@bad?5exception@ 10078910     libvcruntime:frame.obj
 0002:00007920       __pDestructExceptionObject 10078920     libvcruntime:ehhelpers.obj
 0002:0000794c       ??_C@_0CK@CFPGFGGO@Assertion?5failed?3?5?$CFTs?0?5file?5?$CFTs?0@ 1007894c     libucrt:assert.obj
 0002:00007980       ??_C@_1FE@LHBLIKM@?$AAA?$AAs?$AAs?$AAe?$AAr?$AAt?$AAi?$AAo?$AAn?$AA?5?$AAf?$AAa?$AAi?$AAl?$AAe?$AAd?$AA?3?$AA?5?$AA?$CF?$AAT?$AAs?$AA?0?$AA?5?$AAf?$AAi?$AAl?$AAe?$AA?5?$AA?$CF?$AAT?$AAs?$AA?0@ 10078980     libucrt:assert.obj
 0002:000079e4       ??_C@_0CF@GOGNBNAK@Microsoft?5Visual?5C?$CL?$CL?5Runtime?5Lib@ 100789e4     libucrt:assert.obj
 0002:00007a10       ??_C@_1EK@MBDPDCGA@?$AAM?$AAi?$AAc?$AAr?$AAo?$AAs?$AAo?$AAf?$AAt?$AA?5?$AAV?$AAi?$AAs?$AAu?$AAa?$AAl?$AA?5?$AAC?$AA?$CL?$AA?$CL?$AA?5?$AAR?$AAu?$AAn?$AAt?$AAi?$AAm?$AAe?$AA?5?$AAL?$AAi?$AAb@ 10078a10     libucrt:assert.obj
 0002:00007a68       ??_C@_0BC@LAIDCHCH@Assertion?5failed?$CB?$AA@ 10078a68     libucrt:assert.obj
 0002:00007a80       ??_C@_1CE@OJBNHDMO@?$AAA?$AAs?$AAs?$AAe?$AAr?$AAt?$AAi?$AAo?$AAn?$AA?5?$AAf?$AAa?$AAi?$AAl?$AAe?$AAd?$AA?$CB?$AA?$AA@ 10078a80     libucrt:assert.obj
 0002:00007aac       ??_C@_09KLGCKDOD@Program?3?5?$AA@ 10078aac     libucrt:assert.obj
 0002:00007ab8       ??_C@_1BE@PHKBBGE@?$AAP?$AAr?$AAo?$AAg?$AAr?$AAa?$AAm?$AA?3?$AA?5?$AA?$AA@ 10078ab8     libucrt:assert.obj
 0002:00007ad0       ??_C@_06IGPBOHMJ@File?3?5?$AA@ 10078ad0     libucrt:assert.obj
 0002:00007ad8       ??_C@_1O@HEMHKNDC@?$AAF?$AAi?$AAl?$AAe?$AA?3?$AA?5?$AA?$AA@ 10078ad8     libucrt:assert.obj
 0002:00007ae8       ??_C@_06FIEBOLOH@Line?3?5?$AA@ 10078ae8     libucrt:assert.obj
 0002:00007af0       ??_C@_1O@KCAFKHJE@?$AAL?$AAi?$AAn?$AAe?$AA?3?$AA?5?$AA?$AA@ 10078af0     libucrt:assert.obj
 0002:00007b00       ??_C@_0N@MEECIJGN@Expression?3?5?$AA@ 10078b00     libucrt:assert.obj
 0002:00007b10       ??_C@_1BK@PEDCIPMA@?$AAE?$AAx?$AAp?$AAr?$AAe?$AAs?$AAs?$AAi?$AAo?$AAn?$AA?3?$AA?5?$AA?$AA@ 10078b10     libucrt:assert.obj
 0002:00007b30       ??_C@_0HA@OJHAGA@For?5information?5on?5how?5your?5prog@ 10078b30     libucrt:assert.obj
 0002:00007bb8       ??_C@_1OA@EGMLFBHJ@?$AAF?$AAo?$AAr?$AA?5?$AAi?$AAn?$AAf?$AAo?$AAr?$AAm?$AAa?$AAt?$AAi?$AAo?$AAn?$AA?5?$AAo?$AAn?$AA?5?$AAh?$AAo?$AAw?$AA?5?$AAy?$AAo?$AAu?$AAr?$AA?5?$AAp?$AAr?$AAo?$AAg@ 10078bb8     libucrt:assert.obj
 0002:00007cc4       ??_C@_0DN@EBBNMLME@?$CIPress?5Retry?5to?5debug?5the?5applic@ 10078cc4     libucrt:assert.obj
 0002:00007d10       ??_C@_1HK@POCJMFGK@?$AA?$CI?$AAP?$AAr?$AAe?$AAs?$AAs?$AA?5?$AAR?$AAe?$AAt?$AAr?$AAy?$AA?5?$AAt?$AAo?$AA?5?$AAd?$AAe?$AAb?$AAu?$AAg?$AA?5?$AAt?$AAh?$AAe?$AA?5?$AAa?$AAp?$AAp?$AAl?$AAi?$AAc@ 10078d10     libucrt:assert.obj
 0002:00007da4       ??_C@_03KHICJKCI@?4?4?4?$AA@ 10078da4     libucrt:assert.obj
 0002:00007da8       ??_C@_17LGKOMLJ@?$AA?4?$AA?4?$AA?4?$AA?$AA@ 10078da8     libucrt:assert.obj
 0002:00007db4       ??_C@_01EEMJAFIK@?6?$AA@   10078db4     libucrt:assert.obj
 0002:00007db8       ??_C@_13LBAGMAIH@?$AA?6?$AA?$AA@ 10078db8     libucrt:assert.obj
 0002:00007dbc       ??_C@_02PHMGELLB@?6?6?$AA@ 10078dbc     libucrt:assert.obj
 0002:00007dc0       ??_C@_15IABLJNFO@?$AA?6?$AA?6?$AA?$AA@ 10078dc0     libucrt:assert.obj
 0002:00007dc8       ??_C@_0BH@DNAGHKFM@?$DMprogram?5name?5unknown?$DO?$AA@ 10078dc8     libucrt:assert.obj
 0002:00007de4       ??_C@_1CO@EAEJAADC@?$AA?$DM?$AAp?$AAr?$AAo?$AAg?$AAr?$AAa?$AAm?$AA?5?$AAn?$AAa?$AAm?$AAe?$AA?5?$AAu?$AAn?$AAk?$AAn?$AAo?$AAw?$AAn?$AA?$DO?$AA?$AA@ 10078de4     libucrt:assert.obj
 0002:00007e1c       _RtlNtPathSeperatorString  10078e1c     libucrt:exit.obj
 0002:00007e28       ??_C@_13FPGAJAPJ@?$AA?2?$AA?$AA@ 10078e28     libucrt:exit.obj
 0002:00007e2c       _RtlDosPathSeperatorsString 10078e2c     libucrt:exit.obj
 0002:00007e38       ??_C@_15MNCACJLI@?$AA?2?$AA?1?$AA?$AA@ 10078e38     libucrt:exit.obj
 0002:00007e40       _RtlAlternateDosPathSeperatorString 10078e40     libucrt:exit.obj
 0002:00007e4c       ??_C@_13CGOKJPIL@?$AA?1?$AA?$AA@ 10078e4c     libucrt:exit.obj
 0002:00007e50       ??_C@_1BI@BGOHAHKC@?$AAm?$AAs?$AAc?$AAo?$AAr?$AAe?$AAe?$AA?4?$AAd?$AAl?$AAl?$AA?$AA@ 10078e50     libucrt:exit.obj
 0002:00007e6c       ??_C@_0P@MIGLKIOC@CorExitProcess?$AA@ 10078e6c     libucrt:exit.obj
 0002:00007e80       _standard_lookup_table     10078e80     libucrt:output.obj
 0002:00007ef0       _format_validation_lookup_table 10078ef0     libucrt:output.obj
 0002:00007f60       ??_C@_1O@CEDCILHN@?$AA?$CI?$AAn?$AAu?$AAl?$AAl?$AA?$CJ?$AA?$AA@ 10078f60     libucrt:output.obj
 0002:00007f70       ??_C@_06OJHGLDPL@?$CInull?$CJ?$AA@ 10078f70     libucrt:output.obj
 0002:00007f78       __real@0000000000000000    10078f78     libucrt:ldexp.obj
 0002:000080a0       ??_C@_03KHJOGHMM@exp?$AA@  100790a0     libucrt:fpexcept.obj
 0002:000080a4       ??_C@_03JGHBODFD@pow?$AA@  100790a4     libucrt:fpexcept.obj
 0002:000080a8       ??_C@_03MGHMBJCF@log?$AA@  100790a8     libucrt:fpexcept.obj
 0002:000080ac       ??_C@_05HGHHAHAP@log10?$AA@ 100790ac     libucrt:fpexcept.obj
 0002:000080b4       ??_C@_04COOMCNPB@sinh?$AA@ 100790b4     libucrt:fpexcept.obj
 0002:000080bc       ??_C@_04HPJJNFIM@cosh?$AA@ 100790bc     libucrt:fpexcept.obj
 0002:000080c4       ??_C@_04FJHINJAO@tanh?$AA@ 100790c4     libucrt:fpexcept.obj
 0002:000080cc       ??_C@_04FIHNOPOL@asin?$AA@ 100790cc     libucrt:fpexcept.obj
 0002:000080d4       ??_C@_04PDIFKINK@acos?$AA@ 100790d4     libucrt:fpexcept.obj
 0002:000080dc       ??_C@_04MLLJIGOK@atan?$AA@ 100790dc     libucrt:fpexcept.obj
 0002:000080e4       ??_C@_05KNGEOGJB@atan2?$AA@ 100790e4     libucrt:fpexcept.obj
 0002:000080ec       ??_C@_04EIAKFFMI@sqrt?$AA@ 100790ec     libucrt:fpexcept.obj
 0002:000080f4       ??_C@_03BLEJJJBH@sin?$AA@  100790f4     libucrt:fpexcept.obj
 0002:000080f8       ??_C@_03LALBNOCG@cos?$AA@  100790f8     libucrt:fpexcept.obj
 0002:000080fc       ??_C@_03IIINPABG@tan?$AA@  100790fc     libucrt:fpexcept.obj
 0002:00008100       ??_C@_04GFPJNGEK@ceil?$AA@ 10079100     libucrt:fpexcept.obj
 0002:00008108       ??_C@_05PBJFFIGL@floor?$AA@ 10079108     libucrt:fpexcept.obj
 0002:00008110       ??_C@_04ODHECPBC@fabs?$AA@ 10079110     libucrt:fpexcept.obj
 0002:00008118       ??_C@_04EHEDPDJG@modf?$AA@ 10079118     libucrt:fpexcept.obj
 0002:00008120       ??_C@_05CEJMAHNP@ldexp?$AA@ 10079120     libucrt:fpexcept.obj
 0002:00008128       ??_C@_05KBKMEMPO@_cabs?$AA@ 10079128     libucrt:fpexcept.obj
 0002:00008130       ??_C@_06MEIMCGCF@_hypot?$AA@ 10079130     libucrt:fpexcept.obj
 0002:00008138       ??_C@_04KEPJIHGP@fmod?$AA@ 10079138     libucrt:fpexcept.obj
 0002:00008140       ??_C@_05GKKHEGJL@frexp?$AA@ 10079140     libucrt:fpexcept.obj
 0002:00008148       ??_C@_03MJLDFKDL@_y0?$AA@  10079148     libucrt:fpexcept.obj
 0002:0000814c       ??_C@_03NAKIGLHK@_y1?$AA@  1007914c     libucrt:fpexcept.obj
 0002:00008150       ??_C@_03ONILCKOB@_yn?$AA@  10079150     libucrt:fpexcept.obj
 0002:00008154       ??_C@_05JGDBENOH@_logb?$AA@ 10079154     libucrt:fpexcept.obj
 0002:0000815c       ??_C@_0L@KDOEJCKC@_nextafter?$AA@ 1007915c     libucrt:fpexcept.obj
 0002:00008170       ___acrt_exception_action_table 10079170     libucrt:exception_filter.obj
 0002:0000821c       ___acrt_signal_action_table_count 1007921c     libucrt:exception_filter.obj
 0002:00008220       ___acrt_signal_action_table_size 10079220     libucrt:exception_filter.obj
 0002:00008224       ___acrt_signal_action_first_fpe_index 10079224     libucrt:exception_filter.obj
 0002:00008228       ___acrt_signal_action_fpe_count 10079228     libucrt:exception_filter.obj
 0002:000082cc       __Fenv1                    100792cc     libucrt:atox.obj
 0002:000082d8       ??_C@_1DE@JNGNBFGO@?$AAR?$AAu?$AAn?$AAt?$AAi?$AAm?$AAe?$AA?5?$AAE?$AAr?$AAr?$AAo?$AAr?$AA?$CB?$AA?6?$AA?6?$AAP?$AAr?$AAo?$AAg?$AAr?$AAa?$AAm?$AA?3?$AA?5?$AA?$AA@ 100792d8     libucrt:report_runtime_error.obj
 0002:00008520       ??_C@_1EA@JGEFHKEI@?$AAa?$AAp?$AAi?$AA?9?$AAm?$AAs?$AA?9?$AAw?$AAi?$AAn?$AA?9?$AAc?$AAo?$AAr?$AAe?$AA?9?$AAd?$AAa?$AAt?$AAe?$AAt?$AAi?$AAm?$AAe?$AA?9?$AAl?$AA1?$AA?9?$AA1?$AA?9?$AA1?$AA?$AA@ 10079520     libucrt:winapi_thunks.obj
 0002:0000856c       ??_C@_1DM@KHCHBNEB@?$AAa?$AAp?$AAi?$AA?9?$AAm?$AAs?$AA?9?$AAw?$AAi?$AAn?$AA?9?$AAc?$AAo?$AAr?$AAe?$AA?9?$AAf?$AAi?$AAb?$AAe?$AAr?$AAs?$AA?9?$AAl?$AA1?$AA?9?$AA1?$AA?9?$AA1?$AA?$AA@ 1007956c     libucrt:winapi_thunks.obj
 0002:000085b4       ??_C@_1DI@IJCEHOCB@?$AAa?$AAp?$AAi?$AA?9?$AAm?$AAs?$AA?9?$AAw?$AAi?$AAn?$AA?9?$AAc?$AAo?$AAr?$AAe?$AA?9?$AAf?$AAi?$AAl?$AAe?$AA?9?$AAl?$AA1?$AA?9?$AA2?$AA?9?$AA2?$AA?$AA@ 100795b4     libucrt:winapi_thunks.obj
 0002:000085f8       ??_C@_1EI@MPIAOHOC@?$AAa?$AAp?$AAi?$AA?9?$AAm?$AAs?$AA?9?$AAw?$AAi?$AAn?$AA?9?$AAc?$AAo?$AAr?$AAe?$AA?9?$AAl?$AAo?$AAc?$AAa?$AAl?$AAi?$AAz?$AAa?$AAt?$AAi?$AAo?$AAn?$AA?9?$AAl?$AA1?$AA?9@ 100795f8     libucrt:winapi_thunks.obj
 0002:00008650       ??_C@_1FK@FPHCKFIE@?$AAa?$AAp?$AAi?$AA?9?$AAm?$AAs?$AA?9?$AAw?$AAi?$AAn?$AA?9?$AAc?$AAo?$AAr?$AAe?$AA?9?$AAl?$AAo?$AAc?$AAa?$AAl?$AAi?$AAz?$AAa?$AAt?$AAi?$AAo?$AAn?$AA?9?$AAo?$AAb?$AAs@ 10079650     libucrt:winapi_thunks.obj
 0002:000086c0       ??_C@_1EM@DILCGIIO@?$AAa?$AAp?$AAi?$AA?9?$AAm?$AAs?$AA?9?$AAw?$AAi?$AAn?$AA?9?$AAc?$AAo?$AAr?$AAe?$AA?9?$AAp?$AAr?$AAo?$AAc?$AAe?$AAs?$AAs?$AAt?$AAh?$AAr?$AAe?$AAa?$AAd?$AAs?$AA?9?$AAl@ 100796c0     libucrt:winapi_thunks.obj
 0002:0000871c       ??_C@_1DM@LNCGDDPN@?$AAa?$AAp?$AAi?$AA?9?$AAm?$AAs?$AA?9?$AAw?$AAi?$AAn?$AA?9?$AAc?$AAo?$AAr?$AAe?$AA?9?$AAs?$AAt?$AAr?$AAi?$AAn?$AAg?$AA?9?$AAl?$AA1?$AA?9?$AA1?$AA?9?$AA0?$AA?$AA@ 1007971c     libucrt:winapi_thunks.obj
 0002:00008764       ??_C@_1DK@LPPGFMPP@?$AAa?$AAp?$AAi?$AA?9?$AAm?$AAs?$AA?9?$AAw?$AAi?$AAn?$AA?9?$AAc?$AAo?$AAr?$AAe?$AA?9?$AAs?$AAy?$AAn?$AAc?$AAh?$AA?9?$AAl?$AA1?$AA?9?$AA2?$AA?9?$AA0?$AA?$AA@ 10079764     libucrt:winapi_thunks.obj
 0002:000087ac       ??_C@_1DO@FPAPJEMD@?$AAa?$AAp?$AAi?$AA?9?$AAm?$AAs?$AA?9?$AAw?$AAi?$AAn?$AA?9?$AAc?$AAo?$AAr?$AAe?$AA?9?$AAs?$AAy?$AAs?$AAi?$AAn?$AAf?$AAo?$AA?9?$AAl?$AA1?$AA?9?$AA2?$AA?9?$AA1?$AA?$AA@ 100797ac     libucrt:winapi_thunks.obj
 0002:000087f8       ??_C@_1DK@NDHNAHIO@?$AAa?$AAp?$AAi?$AA?9?$AAm?$AAs?$AA?9?$AAw?$AAi?$AAn?$AA?9?$AAc?$AAo?$AAr?$AAe?$AA?9?$AAw?$AAi?$AAn?$AAr?$AAt?$AA?9?$AAl?$AA1?$AA?9?$AA1?$AA?9?$AA0?$AA?$AA@ 100797f8     libucrt:winapi_thunks.obj
 0002:00008840       ??_C@_1DM@KGHDGBCM@?$AAa?$AAp?$AAi?$AA?9?$AAm?$AAs?$AA?9?$AAw?$AAi?$AAn?$AA?9?$AAc?$AAo?$AAr?$AAe?$AA?9?$AAx?$AAs?$AAt?$AAa?$AAt?$AAe?$AA?9?$AAl?$AA2?$AA?9?$AA1?$AA?9?$AA0?$AA?$AA@ 10079840     libucrt:winapi_thunks.obj
 0002:00008888       ??_C@_1EO@IJIOEFOH@?$AAa?$AAp?$AAi?$AA?9?$AAm?$AAs?$AA?9?$AAw?$AAi?$AAn?$AA?9?$AAr?$AAt?$AAc?$AAo?$AAr?$AAe?$AA?9?$AAn?$AAt?$AAu?$AAs?$AAe?$AAr?$AA?9?$AAw?$AAi?$AAn?$AAd?$AAo?$AAw?$AA?9@ 10079888     libucrt:winapi_thunks.obj
 0002:000088e8       ??_C@_1FG@HHGEKANL@?$AAa?$AAp?$AAi?$AA?9?$AAm?$AAs?$AA?9?$AAw?$AAi?$AAn?$AA?9?$AAs?$AAe?$AAc?$AAu?$AAr?$AAi?$AAt?$AAy?$AA?9?$AAs?$AAy?$AAs?$AAt?$AAe?$AAm?$AAf?$AAu?$AAn?$AAc?$AAt?$AAi@ 100798e8     libucrt:winapi_thunks.obj
 0002:00008950       ??_C@_1EG@DBIOJECG@?$AAe?$AAx?$AAt?$AA?9?$AAm?$AAs?$AA?9?$AAw?$AAi?$AAn?$AA?9?$AAn?$AAt?$AAu?$AAs?$AAe?$AAr?$AA?9?$AAd?$AAi?$AAa?$AAl?$AAo?$AAg?$AAb?$AAo?$AAx?$AA?9?$AAl?$AA1?$AA?9?$AA1@ 10079950     libucrt:winapi_thunks.obj
 0002:000089a8       ??_C@_1EO@FIHMJCLF@?$AAe?$AAx?$AAt?$AA?9?$AAm?$AAs?$AA?9?$AAw?$AAi?$AAn?$AA?9?$AAn?$AAt?$AAu?$AAs?$AAe?$AAr?$AA?9?$AAw?$AAi?$AAn?$AAd?$AAo?$AAw?$AAs?$AAt?$AAa?$AAt?$AAi?$AAo?$AAn?$AA?9@ 100799a8     libucrt:winapi_thunks.obj
 0002:00008a08       ??_C@_1BC@DNHGCMLG@?$AAa?$AAd?$AAv?$AAa?$AAp?$AAi?$AA3?$AA2?$AA?$AA@ 10079a08     libucrt:winapi_thunks.obj
 0002:00008a20       ??_C@_1BC@GDMECMAK@?$AAk?$AAe?$AAr?$AAn?$AAe?$AAl?$AA3?$AA2?$AA?$AA@ 10079a20     libucrt:winapi_thunks.obj
 0002:00008a38       ??_C@_1M@OAIMIKLP@?$AAn?$AAt?$AAd?$AAl?$AAl?$AA?$AA@ 10079a38     libucrt:winapi_thunks.obj
 0002:00008a48       ??_C@_1EG@DPGNFKGC@?$AAa?$AAp?$AAi?$AA?9?$AAm?$AAs?$AA?9?$AAw?$AAi?$AAn?$AA?9?$AAa?$AAp?$AAp?$AAm?$AAo?$AAd?$AAe?$AAl?$AA?9?$AAr?$AAu?$AAn?$AAt?$AAi?$AAm?$AAe?$AA?9?$AAl?$AA1?$AA?9?$AA1@ 10079a48     libucrt:winapi_thunks.obj
 0002:00008a9c       ??_C@_1O@BCCLBEOE@?$AAu?$AAs?$AAe?$AAr?$AA3?$AA2?$AA?$AA@ 10079a9c     libucrt:winapi_thunks.obj
 0002:00008aac       ??_C@_1BA@PFFKHIOG@?$AAa?$AAp?$AAi?$AA?9?$AAm?$AAs?$AA?9?$AA?$AA@ 10079aac     libucrt:winapi_thunks.obj
 0002:00008ac0       ??_C@_1BA@IAIFMGEF@?$AAe?$AAx?$AAt?$AA?9?$AAm?$AAs?$AA?9?$AA?$AA@ 10079ac0     libucrt:winapi_thunks.obj
 0002:00008ad8       ??_C@_0BA@FHFNEAED@AreFileApisANSI?$AA@ 10079ad8     libucrt:winapi_thunks.obj
 0002:00008af8       ??_C@_0BA@IHGNDAEB@CompareStringEx?$AA@ 10079af8     libucrt:winapi_thunks.obj
 0002:00008b18       ??_C@_0BE@LJANKFHF@EnumSystemLocalesEx?$AA@ 10079b18     libucrt:winapi_thunks.obj
 0002:00008b3c       ??_C@_08KNHFBNJ@FlsAlloc?$AA@ 10079b3c     libucrt:winapi_thunks.obj
 0002:00008b54       ??_C@_07PEJMOBNF@FlsFree?$AA@ 10079b54     libucrt:winapi_thunks.obj
 0002:00008b6c       ??_C@_0M@GDNOONDI@FlsGetValue?$AA@ 10079b6c     libucrt:winapi_thunks.obj
 0002:00008b88       ??_C@_0M@JCPCPOEF@FlsSetValue?$AA@ 10079b88     libucrt:winapi_thunks.obj
 0002:00008ba4       ??_C@_0BA@HNOPNCHB@GetActiveWindow?$AA@ 10079ba4     libucrt:winapi_thunks.obj
 0002:00008bc4       ??_C@_0BA@EPCJIIPD@GetDateFormatEx?$AA@ 10079bc4     libucrt:winapi_thunks.obj
 0002:00008be4       ??_C@_0BJ@DIBIJBHA@GetEnabledXStateFeatures?$AA@ 10079be4     libucrt:winapi_thunks.obj
 0002:00008c10       ??_C@_0BD@HHGDFDBJ@GetLastActivePopup?$AA@ 10079c10     libucrt:winapi_thunks.obj
 0002:00008c34       ??_C@_0BA@ONOKGCMP@GetLocaleInfoEx?$AA@ 10079c34     libucrt:winapi_thunks.obj
 0002:00008c54       ??_C@_0BI@DFKBFLJE@GetProcessWindowStation?$AA@ 10079c54     libucrt:winapi_thunks.obj
 0002:00008c74       ??_C@_0BP@FPNJPEJC@GetSystemTimePreciseAsFileTime?$AA@ 10079c74     libucrt:winapi_thunks.obj
 0002:00008ca8       ??_C@_0BA@CIJJKCJJ@GetTimeFormatEx?$AA@ 10079ca8     libucrt:winapi_thunks.obj
 0002:00008cc8       ??_C@_0BJ@PBCCBIPI@GetUserDefaultLocaleName?$AA@ 10079cc8     libucrt:winapi_thunks.obj
 0002:00008cf4       ??_C@_0BK@DEKFELLI@GetUserObjectInformationW?$AA@ 10079cf4     libucrt:winapi_thunks.obj
 0002:00008d20       ??_C@_0BG@IKLDMBLM@GetXStateFeaturesMask?$AA@ 10079d20     libucrt:winapi_thunks.obj
 0002:00008d48       ??_C@_0BM@HCFOFFN@InitializeCriticalSectionEx?$AA@ 10079d48     libucrt:winapi_thunks.obj
 0002:00008d78       ??_C@_0BC@CELBKLLA@IsValidLocaleName?$AA@ 10079d78     libucrt:winapi_thunks.obj
 0002:00008d9c       ??_C@_0O@KKBNKAPF@LCMapStringEx?$AA@ 10079d9c     libucrt:winapi_thunks.obj
 0002:00008db8       ??_C@_0BB@CDHDDLLP@LCIDToLocaleName?$AA@ 10079db8     libucrt:winapi_thunks.obj
 0002:00008dd8       ??_C@_0BB@HBDEELFH@LocaleNameToLCID?$AA@ 10079dd8     libucrt:winapi_thunks.obj
 0002:00008df8       ??_C@_0BE@KINNKFDA@LocateXStateFeature?$AA@ 10079df8     libucrt:winapi_thunks.obj
 0002:00008e1c       ??_C@_0M@CHKKJDAI@MessageBoxA?$AA@ 10079e1c     libucrt:winapi_thunks.obj
 0002:00008e38       ??_C@_0M@DLDCCGNP@MessageBoxW?$AA@ 10079e38     libucrt:winapi_thunks.obj
 0002:00008e4c       ??_C@_0N@PPOMPGGK@RoInitialize?$AA@ 10079e4c     libucrt:winapi_thunks.obj
 0002:00008e60       ??_C@_0P@LLFHBIJD@RoUninitialize?$AA@ 10079e60     libucrt:winapi_thunks.obj
 0002:00008e78       ??_C@_0CF@OJOFEIGO@AppPolicyGetProcessTerminationMe@ 10079e78     libucrt:winapi_thunks.obj
 0002:00008ea8       ??_C@_0CF@NNDFDCOC@AppPolicyGetThreadInitialization@ 10079ea8     libucrt:winapi_thunks.obj
 0002:00008ed8       ??_C@_0CE@OICFMIKE@AppPolicyGetShowDeveloperDiagnos@ 10079ed8     libucrt:winapi_thunks.obj
 0002:00008f08       ??_C@_0BL@ODDJNEDA@AppPolicyGetWindowingModel?$AA@ 10079f08     libucrt:winapi_thunks.obj
 0002:00008f34       ??_C@_0BI@BKLFFAPO@SetThreadStackGuarantee?$AA@ 10079f34     libucrt:winapi_thunks.obj
 0002:00008f5c       ??_C@_0BC@JEAENNKH@SystemFunction036?$AA@ 10079f5c     libucrt:winapi_thunks.obj
 0002:00008f74       ?ccs@?1???$__acrt_stdio_parse_mode@D@@YA?AU__acrt_stdio_stream_mode@@QBD@Z@4QBDB 10079f74     libucrt:openfile.obj
 0002:00008f78       ?utf8_encoding@?1???$__acrt_stdio_parse_mode@D@@YA?AU__acrt_stdio_stream_mode@@QBD@Z@4QBDB 10079f78     libucrt:openfile.obj
 0002:00008f80       ?utf16_encoding@?1???$__acrt_stdio_parse_mode@D@@YA?AU__acrt_stdio_stream_mode@@QBD@Z@4QBDB 10079f80     libucrt:openfile.obj
 0002:00008f8c       ?unicode_encoding@?1???$__acrt_stdio_parse_mode@D@@YA?AU__acrt_stdio_stream_mode@@QBD@Z@4QBDB 10079f8c     libucrt:openfile.obj
 0002:00008f94       ?ccs@?1???$__acrt_stdio_parse_mode@_W@@YA?AU__acrt_stdio_stream_mode@@QB_W@Z@4QB_WB 10079f94     libucrt:openfile.obj
 0002:00008f9c       ?utf8_encoding@?1???$__acrt_stdio_parse_mode@_W@@YA?AU__acrt_stdio_stream_mode@@QB_W@Z@4QB_WB 10079f9c     libucrt:openfile.obj
 0002:00008fa8       ?utf16_encoding@?1???$__acrt_stdio_parse_mode@_W@@YA?AU__acrt_stdio_stream_mode@@QB_W@Z@4QB_WB 10079fa8     libucrt:openfile.obj
 0002:00008fbc       ?unicode_encoding@?1???$__acrt_stdio_parse_mode@_W@@YA?AU__acrt_stdio_stream_mode@@QB_W@Z@4QB_WB 10079fbc     libucrt:openfile.obj
 0002:00009068       ___lc_category             1007a068     libucrt:wsetlocale.obj
 0002:000090c0       ??_C@_1O@GIFLHMA@?$AAL?$AAC?$AA_?$AAA?$AAL?$AAL?$AA?$AA@ 1007a0c0     libucrt:wsetlocale.obj
 0002:000090d0       ??_C@_1BG@PPOMIBNJ@?$AAL?$AAC?$AA_?$AAC?$AAO?$AAL?$AAL?$AAA?$AAT?$AAE?$AA?$AA@ 1007a0d0     libucrt:wsetlocale.obj
 0002:000090ec       ??_C@_1BC@FFJGAPJM@?$AAL?$AAC?$AA_?$AAC?$AAT?$AAY?$AAP?$AAE?$AA?$AA@ 1007a0ec     libucrt:wsetlocale.obj
 0002:00009104       ??_C@_1BI@PCKFNJFB@?$AAL?$AAC?$AA_?$AAM?$AAO?$AAN?$AAE?$AAT?$AAA?$AAR?$AAY?$AA?$AA@ 1007a104     libucrt:wsetlocale.obj
 0002:00009120       ??_C@_1BG@ENIEDKID@?$AAL?$AAC?$AA_?$AAN?$AAU?$AAM?$AAE?$AAR?$AAI?$AAC?$AA?$AA@ 1007a120     libucrt:wsetlocale.obj
 0002:0000913c       ??_C@_1BA@HAAOMIIG@?$AAL?$AAC?$AA_?$AAT?$AAI?$AAM?$AAE?$AA?$AA@ 1007a13c     libucrt:wsetlocale.obj
 0002:00009150       ??_C@_15NBPDDFIP@?$AA?$DN?$AA?$DL?$AA?$AA@ 1007a150     libucrt:wsetlocale.obj
 0002:00009158       ??_C@_13PJJBFPED@?$AA?$DL?$AA?$AA@ 1007a158     libucrt:wsetlocale.obj
 0002:0000915c       ??_C@_13NMPKAAJP@?$AA?$DN?$AA?$AA@ 1007a15c     libucrt:wsetlocale.obj
 0002:00009160       ??_C@_13FHBKNHDA@?$AAC?$AA?$AA@ 1007a160     libucrt:wsetlocale.obj
 0002:00009164       ??_C@_19MPDNHKDG@?$AAu?$AAt?$AAf?$AA8?$AA?$AA@ 1007a164     libucrt:wsetlocale.obj
 0002:00009170       ??_C@_1M@FPEIIFAM@?$AAu?$AAt?$AAf?$AA?9?$AA8?$AA?$AA@ 1007a170     libucrt:wsetlocale.obj
 0002:00009180       ??_C@_17MBJJLFDM@?$AA_?$AA?4?$AA?0?$AA?$AA@ 1007a180     libucrt:wsetlocale.obj
 0002:0000918c       ??_C@_13ENNFDPBH@?$AA_?$AA?$AA@ 1007a18c     libucrt:wsetlocale.obj
 0002:00009190       ??_C@_13JOFGPIOO@?$AA?4?$AA?$AA@ 1007a190     libucrt:wsetlocale.obj
 0002:00009198       ___lc_time_c               1007a198     libucrt:nlsdata.obj
 0002:00009344       ??_C@_03KOEHGMDN@Sun?$AA@  1007a344     libucrt:nlsdata.obj
 0002:00009348       ??_C@_03PDAGKDH@Mon?$AA@   1007a348     libucrt:nlsdata.obj
 0002:0000934c       ??_C@_03NAGEINEP@Tue?$AA@  1007a34c     libucrt:nlsdata.obj
 0002:00009350       ??_C@_03MHOMLAJA@Wed?$AA@  1007a350     libucrt:nlsdata.obj
 0002:00009354       ??_C@_03IOFIKPDN@Thu?$AA@  1007a354     libucrt:nlsdata.obj
 0002:00009358       ??_C@_03IDIOELNC@Fri?$AA@  1007a358     libucrt:nlsdata.obj
 0002:0000935c       ??_C@_03FEFJNEK@Sat?$AA@   1007a35c     libucrt:nlsdata.obj
 0002:00009360       ??_C@_06OOPIFAJ@Sunday?$AA@ 1007a360     libucrt:nlsdata.obj
 0002:00009368       ??_C@_06JLEDEDGH@Monday?$AA@ 1007a368     libucrt:nlsdata.obj
 0002:00009370       ??_C@_07BAAGCFCM@Tuesday?$AA@ 1007a370     libucrt:nlsdata.obj
 0002:0000937c       ??_C@_09DLIGFAKA@Wednesday?$AA@ 1007a37c     libucrt:nlsdata.obj
 0002:00009388       ??_C@_08HACCIKIA@Thursday?$AA@ 1007a388     libucrt:nlsdata.obj
 0002:00009394       ??_C@_06JECMNKMI@Friday?$AA@ 1007a394     libucrt:nlsdata.obj
 0002:0000939c       ??_C@_08INBOOONO@Saturday?$AA@ 1007a39c     libucrt:nlsdata.obj
 0002:000093a8       ??_C@_03JIHJHPIE@Jan?$AA@  1007a3a8     libucrt:nlsdata.obj
 0002:000093ac       ??_C@_03HJBDCHOM@Feb?$AA@  1007a3ac     libucrt:nlsdata.obj
 0002:000093b0       ??_C@_03ODNJBKGA@Mar?$AA@  1007a3b0     libucrt:nlsdata.obj
 0002:000093b4       ??_C@_03LEOLGMJP@Apr?$AA@  1007a3b4     libucrt:nlsdata.obj
 0002:000093b8       ??_C@_03CNMDKL@May?$AA@    1007a3b8     libucrt:nlsdata.obj
 0002:000093bc       ??_C@_03IDFGHECI@Jun?$AA@  1007a3bc     libucrt:nlsdata.obj
 0002:000093c0       ??_C@_03LBGABGKK@Jul?$AA@  1007a3c0     libucrt:nlsdata.obj
 0002:000093c4       ??_C@_03IFJFEIGA@Aug?$AA@  1007a3c4     libucrt:nlsdata.obj
 0002:000093c8       ??_C@_03GGCAPAJC@Sep?$AA@  1007a3c8     libucrt:nlsdata.obj
 0002:000093cc       ??_C@_03BMAOKBAD@Oct?$AA@  1007a3cc     libucrt:nlsdata.obj
 0002:000093d0       ??_C@_03JPJOFNIA@Nov?$AA@  1007a3d0     libucrt:nlsdata.obj
 0002:000093d4       ??_C@_03MKABNOCG@Dec?$AA@  1007a3d4     libucrt:nlsdata.obj
 0002:000093d8       ??_C@_07CGJPFGJA@January?$AA@ 1007a3d8     libucrt:nlsdata.obj
 0002:000093e4       ??_C@_08GNJGEPFN@February?$AA@ 1007a3e4     libucrt:nlsdata.obj
 0002:000093f0       ??_C@_05HPCKOFNC@March?$AA@ 1007a3f0     libucrt:nlsdata.obj
 0002:000093f8       ??_C@_05DMJDNLEJ@April?$AA@ 1007a3f8     libucrt:nlsdata.obj
 0002:00009400       ??_C@_04CNLMGBGM@June?$AA@ 1007a400     libucrt:nlsdata.obj
 0002:00009408       ??_C@_04MIEPOIFP@July?$AA@ 1007a408     libucrt:nlsdata.obj
 0002:00009410       ??_C@_06LBBHFDDG@August?$AA@ 1007a410     libucrt:nlsdata.obj
 0002:00009418       ??_C@_09BHHEALKD@September?$AA@ 1007a418     libucrt:nlsdata.obj
 0002:00009424       ??_C@_07JJNFCEND@October?$AA@ 1007a424     libucrt:nlsdata.obj
 0002:00009430       ??_C@_08HCHEGEOA@November?$AA@ 1007a430     libucrt:nlsdata.obj
 0002:0000943c       ??_C@_08EDHMEBNP@December?$AA@ 1007a43c     libucrt:nlsdata.obj
 0002:00009448       ??_C@_02DEDBPAFC@AM?$AA@   1007a448     libucrt:nlsdata.obj
 0002:0000944c       ??_C@_02CJNFDJBF@PM?$AA@   1007a44c     libucrt:nlsdata.obj
 0002:00009450       ??_C@_08BPBNCDIB@MM?1dd?1yy?$AA@ 1007a450     libucrt:nlsdata.obj
 0002:0000945c       ??_C@_0BE@CKGJFCPC@dddd?0?5MMMM?5dd?0?5yyyy?$AA@ 1007a45c     libucrt:nlsdata.obj
 0002:00009474       ??_C@_08JCCMCCIL@HH?3mm?3ss?$AA@ 1007a474     libucrt:nlsdata.obj
 0002:00009480       ??_C@_17MBGCMIPB@?$AAS?$AAu?$AAn?$AA?$AA@ 1007a480     libucrt:nlsdata.obj
 0002:0000948c       ??_C@_17KBOMKBF@?$AAM?$AAo?$AAn?$AA?$AA@ 1007a48c     libucrt:nlsdata.obj
 0002:00009498       ??_C@_17BMKGEGOJ@?$AAT?$AAu?$AAe?$AA?$AA@ 1007a498     libucrt:nlsdata.obj
 0002:000094a4       ??_C@_17CJEDCEPE@?$AAW?$AAe?$AAd?$AA?$AA@ 1007a4a4     libucrt:nlsdata.obj
 0002:000094b0       ??_C@_17PDPHAADD@?$AAT?$AAh?$AAu?$AA?$AA@ 1007a4b0     libucrt:nlsdata.obj
 0002:000094bc       ??_C@_17HFOLPPLP@?$AAF?$AAr?$AAi?$AA?$AA@ 1007a4bc     libucrt:nlsdata.obj
 0002:000094c8       ??_C@_17GGIBDPIH@?$AAS?$AAa?$AAt?$AA?$AA@ 1007a4c8     libucrt:nlsdata.obj
 0002:000094d4       ??_C@_1O@IHNHDHPB@?$AAS?$AAu?$AAn?$AAd?$AAa?$AAy?$AA?$AA@ 1007a4d4     libucrt:nlsdata.obj
 0002:000094e4       ??_C@_1O@MMNBFLIA@?$AAM?$AAo?$AAn?$AAd?$AAa?$AAy?$AA?$AA@ 1007a4e4     libucrt:nlsdata.obj
 0002:000094f4       ??_C@_1BA@ENFBFFEK@?$AAT?$AAu?$AAe?$AAs?$AAd?$AAa?$AAy?$AA?$AA@ 1007a4f4     libucrt:nlsdata.obj
 0002:00009508       ??_C@_1BE@EBOGMDOH@?$AAW?$AAe?$AAd?$AAn?$AAe?$AAs?$AAd?$AAa?$AAy?$AA?$AA@ 1007a508     libucrt:nlsdata.obj
 0002:00009520       ??_C@_1BC@HHMNLIHE@?$AAT?$AAh?$AAu?$AAr?$AAs?$AAd?$AAa?$AAy?$AA?$AA@ 1007a520     libucrt:nlsdata.obj
 0002:00009538       ??_C@_1O@PDICJHAG@?$AAF?$AAr?$AAi?$AAd?$AAa?$AAy?$AA?$AA@ 1007a538     libucrt:nlsdata.obj
 0002:00009548       ??_C@_1BC@ENMNNPAJ@?$AAS?$AAa?$AAt?$AAu?$AAr?$AAd?$AAa?$AAy?$AA?$AA@ 1007a548     libucrt:nlsdata.obj
 0002:00009560       ??_C@_17DKNBKCHM@?$AAJ?$AAa?$AAn?$AA?$AA@ 1007a560     libucrt:nlsdata.obj
 0002:0000956c       ??_C@_17LMDJEKJN@?$AAF?$AAe?$AAb?$AA?$AA@ 1007a56c     libucrt:nlsdata.obj
 0002:00009578       ??_C@_17CKNLEDEC@?$AAM?$AAa?$AAr?$AA?$AA@ 1007a578     libucrt:nlsdata.obj
 0002:00009584       ??_C@_17LFPOIHDD@?$AAA?$AAp?$AAr?$AA?$AA@ 1007a584     libucrt:nlsdata.obj
 0002:00009590       ??_C@_17PNNKMEED@?$AAM?$AAa?$AAy?$AA?$AA@ 1007a590     libucrt:nlsdata.obj
 0002:0000959c       ??_C@_17KCJGOCPB@?$AAJ?$AAu?$AAn?$AA?$AA@ 1007a59c     libucrt:nlsdata.obj
 0002:000095a8       ??_C@_17IJPCKHK@?$AAJ?$AAu?$AAl?$AA?$AA@ 1007a5a8     libucrt:nlsdata.obj
 0002:000095b4       ??_C@_17ICPELBCN@?$AAA?$AAu?$AAg?$AA?$AA@ 1007a5b4     libucrt:nlsdata.obj
 0002:000095c0       ??_C@_17HCHCOKMG@?$AAS?$AAe?$AAp?$AA?$AA@ 1007a5c0     libucrt:nlsdata.obj
 0002:000095cc       ??_C@_17FNLKOI@?$AAO?$AAc?$AAt?$AA?$AA@ 1007a5cc     libucrt:nlsdata.obj
 0002:000095d8       ??_C@_17BBDMLCIG@?$AAN?$AAo?$AAv?$AA?$AA@ 1007a5d8     libucrt:nlsdata.obj
 0002:000095e4       ??_C@_17EGKACKIF@?$AAD?$AAe?$AAc?$AA?$AA@ 1007a5e4     libucrt:nlsdata.obj
 0002:000095f0       ??_C@_1BA@EFMEIEBA@?$AAJ?$AAa?$AAn?$AAu?$AAa?$AAr?$AAy?$AA?$AA@ 1007a5f0     libucrt:nlsdata.obj
 0002:00009604       ??_C@_1BC@JGDDFFAM@?$AAF?$AAe?$AAb?$AAr?$AAu?$AAa?$AAr?$AAy?$AA?$AA@ 1007a604     libucrt:nlsdata.obj
 0002:0000961c       ??_C@_1M@IKEENEDF@?$AAM?$AAa?$AAr?$AAc?$AAh?$AA?$AA@ 1007a61c     libucrt:nlsdata.obj
 0002:0000962c       ??_C@_1M@GJNLMHFD@?$AAA?$AAp?$AAr?$AAi?$AAl?$AA?$AA@ 1007a62c     libucrt:nlsdata.obj
 0002:0000963c       ??_C@_19EPFLPGAP@?$AAJ?$AAu?$AAn?$AAe?$AA?$AA@ 1007a63c     libucrt:nlsdata.obj
 0002:00009648       ??_C@_19BIFMLPCD@?$AAJ?$AAu?$AAl?$AAy?$AA?$AA@ 1007a648     libucrt:nlsdata.obj
 0002:00009654       ??_C@_1O@PAHLKOAC@?$AAA?$AAu?$AAg?$AAu?$AAs?$AAt?$AA?$AA@ 1007a654     libucrt:nlsdata.obj
 0002:00009664       ??_C@_1BE@DKAAMBJL@?$AAS?$AAe?$AAp?$AAt?$AAe?$AAm?$AAb?$AAe?$AAr?$AA?$AA@ 1007a664     libucrt:nlsdata.obj
 0002:0000967c       ??_C@_1BA@EPANDLNG@?$AAO?$AAc?$AAt?$AAo?$AAb?$AAe?$AAr?$AA?$AA@ 1007a67c     libucrt:nlsdata.obj
 0002:00009690       ??_C@_1BC@BGLIFPF@?$AAN?$AAo?$AAv?$AAe?$AAm?$AAb?$AAe?$AAr?$AA?$AA@ 1007a690     libucrt:nlsdata.obj
 0002:000096a8       ??_C@_1BC@FEMKIFH@?$AAD?$AAe?$AAc?$AAe?$AAm?$AAb?$AAe?$AAr?$AA?$AA@ 1007a6a8     libucrt:nlsdata.obj
 0002:000096c0       ??_C@_15ODEHAHHF@?$AAA?$AAM?$AA?$AA@ 1007a6c0     libucrt:nlsdata.obj
 0002:000096c8       ??_C@_15CLMNNGEL@?$AAP?$AAM?$AA?$AA@ 1007a6c8     libucrt:nlsdata.obj
 0002:000096d0       ??_C@_1BC@IEBCMHCM@?$AAM?$AAM?$AA?1?$AAd?$AAd?$AA?1?$AAy?$AAy?$AA?$AA@ 1007a6d0     libucrt:nlsdata.obj
 0002:000096e8       ??_C@_1CI@KNAKOEBC@?$AAd?$AAd?$AAd?$AAd?$AA?0?$AA?5?$AAM?$AAM?$AAM?$AAM?$AA?5?$AAd?$AAd?$AA?0?$AA?5?$AAy?$AAy?$AAy?$AAy?$AA?$AA@ 1007a6e8     libucrt:nlsdata.obj
 0002:00009718       ??_C@_1BC@GDGBMEMK@?$AAH?$AAH?$AA?3?$AAm?$AAm?$AA?3?$AAs?$AAs?$AA?$AA@ 1007a718     libucrt:nlsdata.obj
 0002:00009730       ??_C@_1M@BMHNFIME@?$AAe?$AAn?$AA?9?$AAU?$AAS?$AA?$AA@ 1007a730     libucrt:nlsdata.obj
 0002:00009740       ??_C@_03OEIAHPBN@INF?$AA@  1007a740     libucrt:cvt.obj
 0002:00009744       ??_C@_03OJHLLCGB@inf?$AA@  1007a744     libucrt:cvt.obj
 0002:00009748       ??_C@_03LKNCIKJB@NAN?$AA@  1007a748     libucrt:cvt.obj
 0002:0000974c       ??_C@_03LHCJEHON@nan?$AA@  1007a74c     libucrt:cvt.obj
 0002:00009750       ??_C@_09OFJJIMPC@NAN?$CISNAN?$CJ?$AA@ 1007a750     libucrt:cvt.obj
 0002:0000975c       ??_C@_09IPFBKMDL@nan?$CIsnan?$CJ?$AA@ 1007a75c     libucrt:cvt.obj
 0002:00009768       ??_C@_08IKHNHAJ@NAN?$CIIND?$CJ?$AA@ 1007a768     libucrt:cvt.obj
 0002:00009774       ??_C@_08OFCDMILK@nan?$CIind?$CJ?$AA@ 1007a774     libucrt:cvt.obj
 0002:00009780       ??_C@_05KLBDPFGC@e?$CL000?$AA@ 1007a780     libucrt:cvt.obj
 0002:00009788       __d_inf                    1007a788     libucrt:util.obj
 0002:00009798       __d_ind                    1007a798     libucrt:util.obj
 0002:000097a8       __d_max                    1007a7a8     libucrt:util.obj
 0002:000097b8       __d_min                    1007a7b8     libucrt:util.obj
 0002:000097c8       __d_mzero                  1007a7c8     libucrt:util.obj
 0002:00009808       ??_C@_1M@HPNHIDJI@?$AAj?$AAa?$AA?9?$AAJ?$AAP?$AA?$AA@ 1007a808     libucrt:mbctype.obj
 0002:00009818       ??_C@_1M@BIBDDEMK@?$AAz?$AAh?$AA?9?$AAC?$AAN?$AA?$AA@ 1007a818     libucrt:mbctype.obj
 0002:00009828       ??_C@_1M@JLOOOEGK@?$AAk?$AAo?$AA?9?$AAK?$AAR?$AA?$AA@ 1007a828     libucrt:mbctype.obj
 0002:00009838       ??_C@_1M@CLNBBOPM@?$AAz?$AAh?$AA?9?$AAT?$AAW?$AA?$AA@ 1007a838     libucrt:mbctype.obj
 0002:00009848       ___newctype                1007a848     libucrt:ctype.obj
 0002:00009be8       ___newclmap                1007abe8     libucrt:ctype.obj
 0002:00009db8       ___newcumap                1007adb8     libucrt:ctype.obj
 0002:00009f88       __wctype                   1007af88     libucrt:ctype.obj
 0002:0000aa84       ??_C@_15EMKDOKLE@?$AAa?$AAr?$AA?$AA@ 1007ba84     libucrt:lcidtoname_downlevel.obj
 0002:0000aa8c       ??_C@_15KNPADPLH@?$AAb?$AAg?$AA?$AA@ 1007ba8c     libucrt:lcidtoname_downlevel.obj
 0002:0000aa94       ??_C@_15EDMHLDMO@?$AAc?$AAa?$AA?$AA@ 1007ba94     libucrt:lcidtoname_downlevel.obj
 0002:0000aa9c       ??_C@_1O@BPEAJADD@?$AAz?$AAh?$AA?9?$AAC?$AAH?$AAS?$AA?$AA@ 1007ba9c     libucrt:lcidtoname_downlevel.obj
 0002:0000aaac       ??_C@_15LJNHCMNK@?$AAc?$AAs?$AA?$AA@ 1007baac     libucrt:lcidtoname_downlevel.obj
 0002:0000aab4       ??_C@_15FOMCIDHG@?$AAd?$AAa?$AA?$AA@ 1007bab4     libucrt:lcidtoname_downlevel.obj
 0002:0000aabc       ??_C@_15NBKABECB@?$AAd?$AAe?$AA?$AA@ 1007babc     libucrt:lcidtoname_downlevel.obj
 0002:0000aac4       ??_C@_15GHPEIIAO@?$AAe?$AAl?$AA?$AA@ 1007bac4     libucrt:lcidtoname_downlevel.obj
 0002:0000aacc       ??_C@_15MNPNEAIF@?$AAe?$AAn?$AA?$AA@ 1007bacc     libucrt:lcidtoname_downlevel.obj
 0002:0000aad4       ??_C@_15GPIOMPMH@?$AAe?$AAs?$AA?$AA@ 1007bad4     libucrt:lcidtoname_downlevel.obj
 0002:0000aadc       ??_C@_15NGLOAKJC@?$AAf?$AAi?$AA?$AA@ 1007badc     libucrt:lcidtoname_downlevel.obj
 0002:0000aae4       ??_C@_15FBKGNKAM@?$AAf?$AAr?$AA?$AA@ 1007bae4     libucrt:lcidtoname_downlevel.obj
 0002:0000aaec       ??_C@_15KGGCNEFK@?$AAh?$AAe?$AA?$AA@ 1007baec     libucrt:lcidtoname_downlevel.obj
 0002:0000aaf4       ??_C@_15PGHLIDMF@?$AAh?$AAu?$AA?$AA@ 1007baf4     libucrt:lcidtoname_downlevel.obj
 0002:0000aafc       ??_C@_15BIEMAPLM@?$AAi?$AAs?$AA?$AA@ 1007bafc     libucrt:lcidtoname_downlevel.obj
 0002:0000ab04       ??_C@_15IFJLDHAF@?$AAi?$AAt?$AA?$AA@ 1007bb04     libucrt:lcidtoname_downlevel.obj
 0002:0000ab0c       ??_C@_15GEMIOCAG@?$AAj?$AAa?$AA?$AA@ 1007bb0c     libucrt:lcidtoname_downlevel.obj
 0002:0000ab14       ??_C@_15EPELEGJA@?$AAk?$AAo?$AA?$AA@ 1007bb14     libucrt:lcidtoname_downlevel.obj
 0002:0000ab1c       ??_C@_15NDDHIMN@?$AAn?$AAl?$AA?$AA@ 1007bb1c     libucrt:lcidtoname_downlevel.obj
 0002:0000ab24       ??_C@_15BPIGNHCD@?$AAn?$AAo?$AA?$AA@ 1007bb24     libucrt:lcidtoname_downlevel.obj
 0002:0000ab2c       ??_C@_15DEOPBLCG@?$AAp?$AAl?$AA?$AA@ 1007bb2c     libucrt:lcidtoname_downlevel.obj
 0002:0000ab34       ??_C@_15KBECGEFG@?$AAp?$AAt?$AA?$AA@ 1007bb34     libucrt:lcidtoname_downlevel.obj
 0002:0000ab3c       ??_C@_15GLJCBFMD@?$AAr?$AAo?$AA?$AA@ 1007bb3c     libucrt:lcidtoname_downlevel.obj
 0002:0000ab44       ??_C@_15FEDGKCDI@?$AAr?$AAu?$AA?$AA@ 1007bb44     libucrt:lcidtoname_downlevel.obj
 0002:0000ab4c       ??_C@_15GLKMLLHM@?$AAh?$AAr?$AA?$AA@ 1007bb4c     libucrt:lcidtoname_downlevel.obj
 0002:0000ab54       ??_C@_15CPKMFBDB@?$AAs?$AAk?$AA?$AA@ 1007bb54     libucrt:lcidtoname_downlevel.obj
 0002:0000ab5c       ??_C@_15BAAIOGMK@?$AAs?$AAq?$AA?$AA@ 1007bb5c     libucrt:lcidtoname_downlevel.obj
 0002:0000ab64       ??_C@_15INNPNOHD@?$AAs?$AAv?$AA?$AA@ 1007bb64     libucrt:lcidtoname_downlevel.obj
 0002:0000ab6c       ??_C@_15CABMMOGH@?$AAt?$AAh?$AA?$AA@ 1007bb6c     libucrt:lcidtoname_downlevel.obj
 0002:0000ab74       ??_C@_15BPLIHJJM@?$AAt?$AAr?$AA?$AA@ 1007bb74     libucrt:lcidtoname_downlevel.obj
 0002:0000ab7c       ??_C@_15NEOEKKDJ@?$AAu?$AAr?$AA?$AA@ 1007bb7c     libucrt:lcidtoname_downlevel.obj
 0002:0000ab84       ??_C@_15NFICGAJK@?$AAi?$AAd?$AA?$AA@ 1007bb84     libucrt:lcidtoname_downlevel.obj
 0002:0000ab8c       ??_C@_15PJPFLCCM@?$AAu?$AAk?$AA?$AA@ 1007bb8c     libucrt:lcidtoname_downlevel.obj
 0002:0000ab94       ??_C@_15HPJPHDM@?$AAb?$AAe?$AA?$AA@ 1007bb94     libucrt:lcidtoname_downlevel.obj
 0002:0000ab9c       ??_C@_15LCHLGJII@?$AAs?$AAl?$AA?$AA@ 1007bb9c     libucrt:lcidtoname_downlevel.obj
 0002:0000aba4       ??_C@_15PCFJPHHO@?$AAe?$AAt?$AA?$AA@ 1007bba4     libucrt:lcidtoname_downlevel.obj
 0002:0000abac       ??_C@_15HPFPGODN@?$AAl?$AAv?$AA?$AA@ 1007bbac     libucrt:lcidtoname_downlevel.obj
 0002:0000abb4       ??_C@_15NFFGKGLG@?$AAl?$AAt?$AA?$AA@ 1007bbb4     libucrt:lcidtoname_downlevel.obj
 0002:0000abbc       ??_C@_15BDAKCCHN@?$AAf?$AAa?$AA?$AA@ 1007bbbc     libucrt:lcidtoname_downlevel.obj
 0002:0000abc4       ??_C@_15NFGIAIAJ@?$AAv?$AAi?$AA?$AA@ 1007bbc4     libucrt:lcidtoname_downlevel.obj
 0002:0000abcc       ??_C@_15LMKNDMHN@?$AAh?$AAy?$AA?$AA@ 1007bbcc     libucrt:lcidtoname_downlevel.obj
 0002:0000abd4       ??_C@_15IJBHMCFL@?$AAa?$AAz?$AA?$AA@ 1007bbd4     libucrt:lcidtoname_downlevel.obj
 0002:0000abdc       ??_C@_15EKOFJABL@?$AAe?$AAu?$AA?$AA@ 1007bbdc     libucrt:lcidtoname_downlevel.obj
 0002:0000abe4       ??_C@_15BGHADCNK@?$AAm?$AAk?$AA?$AA@ 1007bbe4     libucrt:lcidtoname_downlevel.obj
 0002:0000abec       ??_C@_15JDNICKHM@?$AAa?$AAf?$AA?$AA@ 1007bbec     libucrt:lcidtoname_downlevel.obj
 0002:0000abf4       ??_C@_15KPJEDBKD@?$AAk?$AAa?$AA?$AA@ 1007bbf4     libucrt:lcidtoname_downlevel.obj
 0002:0000abfc       ??_C@_15PDNFFFEO@?$AAf?$AAo?$AA?$AA@ 1007bbfc     libucrt:lcidtoname_downlevel.obj
 0002:0000ac04       ??_C@_15OMLEGLOC@?$AAh?$AAi?$AA?$AA@ 1007bc04     libucrt:lcidtoname_downlevel.obj
 0002:0000ac0c       ??_C@_15IDNNENKK@?$AAm?$AAs?$AA?$AA@ 1007bc0c     libucrt:lcidtoname_downlevel.obj
 0002:0000ac14       ??_C@_15MACJNBMH@?$AAk?$AAk?$AA?$AA@ 1007bc14     libucrt:lcidtoname_downlevel.obj
 0002:0000ac1c       ??_C@_15DKDJEOND@?$AAk?$AAy?$AA?$AA@ 1007bc1c     libucrt:lcidtoname_downlevel.obj
 0002:0000ac24       ??_C@_15DFGDLJBG@?$AAs?$AAw?$AA?$AA@ 1007bc24     libucrt:lcidtoname_downlevel.obj
 0002:0000ac2c       ??_C@_15BBFAICNG@?$AAu?$AAz?$AA?$AA@ 1007bc2c     libucrt:lcidtoname_downlevel.obj
 0002:0000ac34       ??_C@_15DKNDCGEA@?$AAt?$AAt?$AA?$AA@ 1007bc34     libucrt:lcidtoname_downlevel.obj
 0002:0000ac3c       ??_C@_15MGIFMDPL@?$AAp?$AAa?$AA?$AA@ 1007bc3c     libucrt:lcidtoname_downlevel.obj
 0002:0000ac44       ??_C@_15HCNDBBA@?$AAg?$AAu?$AA?$AA@ 1007bc44     libucrt:lcidtoname_downlevel.obj
 0002:0000ac4c       ??_C@_15FNBEIBON@?$AAt?$AAa?$AA?$AA@ 1007bc4c     libucrt:lcidtoname_downlevel.obj
 0002:0000ac54       ??_C@_15NCHGBGLK@?$AAt?$AAe?$AA?$AA@ 1007bc54     libucrt:lcidtoname_downlevel.obj
 0002:0000ac5c       ??_C@_15PHPHCBPF@?$AAk?$AAn?$AA?$AA@ 1007bc5c     libucrt:lcidtoname_downlevel.obj
 0002:0000ac64       ??_C@_15DLGBCKMP@?$AAm?$AAr?$AA?$AA@ 1007bc64     libucrt:lcidtoname_downlevel.obj
 0002:0000ac6c       ??_C@_15EABBLBFF@?$AAs?$AAa?$AA?$AA@ 1007bc6c     libucrt:lcidtoname_downlevel.obj
 0002:0000ac74       ??_C@_15CBKOMCOI@?$AAm?$AAn?$AA?$AA@ 1007bc74     libucrt:lcidtoname_downlevel.obj
 0002:0000ac7c       ??_C@_15CKDMCJAF@?$AAg?$AAl?$AA?$AA@ 1007bc7c     libucrt:lcidtoname_downlevel.obj
 0002:0000ac84       ??_C@_17CNJFBPG@?$AAk?$AAo?$AAk?$AA?$AA@ 1007bc84     libucrt:lcidtoname_downlevel.obj
 0002:0000ac90       ??_C@_17FFBJICPL@?$AAs?$AAy?$AAr?$AA?$AA@ 1007bc90     libucrt:lcidtoname_downlevel.obj
 0002:0000ac9c       ??_C@_17KPNDCPAF@?$AAd?$AAi?$AAv?$AA?$AA@ 1007bc9c     libucrt:lcidtoname_downlevel.obj
 0002:0000aca8       ??_C@_11LOCGONAA@?$AA?$AA@ 1007bca8     libucrt:lcidtoname_downlevel.obj
 0002:0000acac       ??_C@_1M@OKAHONE@?$AAa?$AAr?$AA?9?$AAS?$AAA?$AA?$AA@ 1007bcac     libucrt:lcidtoname_downlevel.obj
 0002:0000acbc       ??_C@_1M@FFFIGIGK@?$AAb?$AAg?$AA?9?$AAB?$AAG?$AA?$AA@ 1007bcbc     libucrt:lcidtoname_downlevel.obj
 0002:0000accc       ??_C@_1M@BJNKEDC@?$AAc?$AAa?$AA?9?$AAE?$AAS?$AA?$AA@ 1007bccc     libucrt:lcidtoname_downlevel.obj
 0002:0000acdc       ??_C@_1M@IJJHFJHA@?$AAc?$AAs?$AA?9?$AAC?$AAZ?$AA?$AA@ 1007bcdc     libucrt:lcidtoname_downlevel.obj
 0002:0000acec       ??_C@_1M@CLPEOBGI@?$AAd?$AAa?$AA?9?$AAD?$AAK?$AA?$AA@ 1007bcec     libucrt:lcidtoname_downlevel.obj
 0002:0000acfc       ??_C@_1M@MCMADGCB@?$AAd?$AAe?$AA?9?$AAD?$AAE?$AA?$AA@ 1007bcfc     libucrt:lcidtoname_downlevel.obj
 0002:0000ad0c       ??_C@_1M@OOCKEMAM@?$AAe?$AAl?$AA?9?$AAG?$AAR?$AA?$AA@ 1007bd0c     libucrt:lcidtoname_downlevel.obj
 0002:0000ad1c       ??_C@_1M@DDNJFGID@?$AAf?$AAi?$AA?9?$AAF?$AAI?$AA?$AA@ 1007bd1c     libucrt:lcidtoname_downlevel.obj
 0002:0000ad2c       ??_C@_1M@GLIPPMAC@?$AAf?$AAr?$AA?9?$AAF?$AAR?$AA?$AA@ 1007bd2c     libucrt:lcidtoname_downlevel.obj
 0002:0000ad3c       ??_C@_1M@GFMCHPE@?$AAh?$AAe?$AA?9?$AAI?$AAL?$AA?$AA@ 1007bd3c     libucrt:lcidtoname_downlevel.obj
 0002:0000ad4c       ??_C@_1M@MHLPGNKM@?$AAh?$AAu?$AA?9?$AAH?$AAU?$AA?$AA@ 1007bd4c     libucrt:lcidtoname_downlevel.obj
 0002:0000ad5c       ??_C@_1M@LPDDNNPN@?$AAi?$AAs?$AA?9?$AAI?$AAS?$AA?$AA@ 1007bd5c     libucrt:lcidtoname_downlevel.obj
 0002:0000ad6c       ??_C@_1M@MADIPODN@?$AAi?$AAt?$AA?9?$AAI?$AAT?$AA?$AA@ 1007bd6c     libucrt:lcidtoname_downlevel.obj
 0002:0000ad7c       ??_C@_1M@IHBJJGG@?$AAn?$AAl?$AA?9?$AAN?$AAL?$AA?$AA@ 1007bd7c     libucrt:lcidtoname_downlevel.obj
 0002:0000ad8c       ??_C@_1M@EANAGDL@?$AAn?$AAb?$AA?9?$AAN?$AAO?$AA?$AA@ 1007bd8c     libucrt:lcidtoname_downlevel.obj
 0002:0000ad9c       ??_C@_1M@NEIEMEGP@?$AAp?$AAl?$AA?9?$AAP?$AAL?$AA?$AA@ 1007bd9c     libucrt:lcidtoname_downlevel.obj
 0002:0000adac       ??_C@_1M@BOCFIGEP@?$AAp?$AAt?$AA?9?$AAB?$AAR?$AA?$AA@ 1007bdac     libucrt:lcidtoname_downlevel.obj
 0002:0000adbc       ??_C@_1M@IMPFOPBG@?$AAr?$AAo?$AA?9?$AAR?$AAO?$AA?$AA@ 1007bdbc     libucrt:lcidtoname_downlevel.obj
 0002:0000adcc       ??_C@_1M@IDNNEJMM@?$AAr?$AAu?$AA?9?$AAR?$AAU?$AA?$AA@ 1007bdcc     libucrt:lcidtoname_downlevel.obj
 0002:0000addc       ??_C@_1M@LILEEOGM@?$AAh?$AAr?$AA?9?$AAH?$AAR?$AA?$AA@ 1007bddc     libucrt:lcidtoname_downlevel.obj
 0002:0000adec       ??_C@_1M@FKIFEHPB@?$AAs?$AAk?$AA?9?$AAS?$AAK?$AA?$AA@ 1007bdec     libucrt:lcidtoname_downlevel.obj
 0002:0000adfc       ??_C@_1M@LJMAMNPJ@?$AAs?$AAq?$AA?9?$AAA?$AAL?$AA?$AA@ 1007bdfc     libucrt:lcidtoname_downlevel.obj
 0002:0000ae0c       ??_C@_1M@GIAKDKJK@?$AAs?$AAv?$AA?9?$AAS?$AAE?$AA?$AA@ 1007be0c     libucrt:lcidtoname_downlevel.obj
 0002:0000ae1c       ??_C@_1M@MKJKIKCL@?$AAt?$AAh?$AA?9?$AAT?$AAH?$AA?$AA@ 1007be1c     libucrt:lcidtoname_downlevel.obj
 0002:0000ae2c       ??_C@_1M@MFLCCMPB@?$AAt?$AAr?$AA?9?$AAT?$AAR?$AA?$AA@ 1007be2c     libucrt:lcidtoname_downlevel.obj
 0002:0000ae3c       ??_C@_1M@OIJHDKJN@?$AAu?$AAr?$AA?9?$AAP?$AAK?$AA?$AA@ 1007be3c     libucrt:lcidtoname_downlevel.obj
 0002:0000ae4c       ??_C@_1M@LHIPCIEK@?$AAi?$AAd?$AA?9?$AAI?$AAD?$AA?$AA@ 1007be4c     libucrt:lcidtoname_downlevel.obj
 0002:0000ae5c       ??_C@_1M@MFMOBGI@?$AAu?$AAk?$AA?9?$AAU?$AAA?$AA?$AA@ 1007be5c     libucrt:lcidtoname_downlevel.obj
 0002:0000ae6c       ??_C@_1M@OBGLJIPL@?$AAb?$AAe?$AA?9?$AAB?$AAY?$AA?$AA@ 1007be6c     libucrt:lcidtoname_downlevel.obj
 0002:0000ae7c       ??_C@_1M@BCFAJEAD@?$AAs?$AAl?$AA?9?$AAS?$AAI?$AA?$AA@ 1007be7c     libucrt:lcidtoname_downlevel.obj
 0002:0000ae8c       ??_C@_1M@FKFFEDDN@?$AAe?$AAt?$AA?9?$AAE?$AAE?$AA?$AA@ 1007be8c     libucrt:lcidtoname_downlevel.obj
 0002:0000ae9c       ??_C@_1M@KGKKAACI@?$AAl?$AAv?$AA?9?$AAL?$AAV?$AA?$AA@ 1007be9c     libucrt:lcidtoname_downlevel.obj
 0002:0000aeac       ??_C@_1M@IFGBIJO@?$AAl?$AAt?$AA?9?$AAL?$AAT?$AA?$AA@ 1007beac     libucrt:lcidtoname_downlevel.obj
 0002:0000aebc       ??_C@_1M@FGEAHEDM@?$AAf?$AAa?$AA?9?$AAI?$AAR?$AA?$AA@ 1007bebc     libucrt:lcidtoname_downlevel.obj
 0002:0000aecc       ??_C@_1M@KBMAIBFN@?$AAv?$AAi?$AA?9?$AAV?$AAN?$AA?$AA@ 1007becc     libucrt:lcidtoname_downlevel.obj
 0002:0000aedc       ??_C@_1M@GPCBKDJK@?$AAh?$AAy?$AA?9?$AAA?$AAM?$AA?$AA@ 1007bedc     libucrt:lcidtoname_downlevel.obj
 0002:0000aeec       ??_C@_1BG@BECMDDJB@?$AAa?$AAz?$AA?9?$AAA?$AAZ?$AA?9?$AAL?$AAa?$AAt?$AAn?$AA?$AA@ 1007beec     libucrt:lcidtoname_downlevel.obj
 0002:0000af08       ??_C@_1M@MAOFCAEA@?$AAe?$AAu?$AA?9?$AAE?$AAS?$AA?$AA@ 1007bf08     libucrt:lcidtoname_downlevel.obj
 0002:0000af18       ??_C@_1M@IGHABKPI@?$AAm?$AAk?$AA?9?$AAM?$AAK?$AA?$AA@ 1007bf18     libucrt:lcidtoname_downlevel.obj
 0002:0000af28       ??_C@_1M@IAIGNEJG@?$AAt?$AAn?$AA?9?$AAZ?$AAA?$AA?$AA@ 1007bf28     libucrt:lcidtoname_downlevel.obj
 0002:0000af38       ??_C@_1M@IIJCOJFA@?$AAx?$AAh?$AA?9?$AAZ?$AAA?$AA?$AA@ 1007bf38     libucrt:lcidtoname_downlevel.obj
 0002:0000af48       ??_C@_1M@LGPJHNJH@?$AAz?$AAu?$AA?9?$AAZ?$AAA?$AA?$AA@ 1007bf48     libucrt:lcidtoname_downlevel.obj
 0002:0000af58       ??_C@_1M@HOKAOIO@?$AAa?$AAf?$AA?9?$AAZ?$AAA?$AA?$AA@ 1007bf58     libucrt:lcidtoname_downlevel.obj
 0002:0000af68       ??_C@_1M@DPCLHLIE@?$AAk?$AAa?$AA?9?$AAG?$AAE?$AA?$AA@ 1007bf68     libucrt:lcidtoname_downlevel.obj
 0002:0000af78       ??_C@_1M@BLKMHJBI@?$AAf?$AAo?$AA?9?$AAF?$AAO?$AA?$AA@ 1007bf78     libucrt:lcidtoname_downlevel.obj
 0002:0000af88       ??_C@_1M@LGGJAPPB@?$AAh?$AAi?$AA?9?$AAI?$AAN?$AA?$AA@ 1007bf88     libucrt:lcidtoname_downlevel.obj
 0002:0000af98       ??_C@_1M@FIKPIHFE@?$AAm?$AAt?$AA?9?$AAM?$AAT?$AA?$AA@ 1007bf98     libucrt:lcidtoname_downlevel.obj
 0002:0000afa8       ??_C@_1M@HEGGPBFA@?$AAs?$AAe?$AA?9?$AAN?$AAO?$AA?$AA@ 1007bfa8     libucrt:lcidtoname_downlevel.obj
 0002:0000afb8       ??_C@_1M@EIBJEEPA@?$AAm?$AAs?$AA?9?$AAM?$AAY?$AA?$AA@ 1007bfb8     libucrt:lcidtoname_downlevel.obj
 0002:0000afc8       ??_C@_1M@FHLBGMPP@?$AAk?$AAk?$AA?9?$AAK?$AAZ?$AA?$AA@ 1007bfc8     libucrt:lcidtoname_downlevel.obj
 0002:0000afd8       ??_C@_1M@NGJJLCGI@?$AAk?$AAy?$AA?9?$AAK?$AAG?$AA?$AA@ 1007bfd8     libucrt:lcidtoname_downlevel.obj
 0002:0000afe8       ??_C@_1M@GIENNBFC@?$AAs?$AAw?$AA?9?$AAK?$AAE?$AA?$AA@ 1007bfe8     libucrt:lcidtoname_downlevel.obj
 0002:0000aff8       ??_C@_1BG@NDGMJIMJ@?$AAu?$AAz?$AA?9?$AAU?$AAZ?$AA?9?$AAL?$AAa?$AAt?$AAn?$AA?$AA@ 1007bff8     libucrt:lcidtoname_downlevel.obj
 0002:0000b014       ??_C@_1M@IDCCIHBC@?$AAt?$AAt?$AA?9?$AAR?$AAU?$AA?$AA@ 1007c014     libucrt:lcidtoname_downlevel.obj
 0002:0000b024       ??_C@_1M@LOICPMOJ@?$AAb?$AAn?$AA?9?$AAI?$AAN?$AA?$AA@ 1007c024     libucrt:lcidtoname_downlevel.obj
 0002:0000b034       ??_C@_1M@KPKKNEAH@?$AAp?$AAa?$AA?9?$AAI?$AAN?$AA?$AA@ 1007c034     libucrt:lcidtoname_downlevel.obj
 0002:0000b044       ??_C@_1M@PJGPPBOG@?$AAg?$AAu?$AA?9?$AAI?$AAN?$AA?$AA@ 1007c044     libucrt:lcidtoname_downlevel.obj
 0002:0000b054       ??_C@_1M@KMKMOPHI@?$AAt?$AAa?$AA?9?$AAI?$AAN?$AA?$AA@ 1007c054     libucrt:lcidtoname_downlevel.obj
 0002:0000b064       ??_C@_1M@KFEHEPAC@?$AAt?$AAe?$AA?9?$AAI?$AAN?$AA?$AA@ 1007c064     libucrt:lcidtoname_downlevel.obj
 0002:0000b074       ??_C@_1M@CDCLMGHI@?$AAk?$AAn?$AA?9?$AAI?$AAN?$AA?$AA@ 1007c074     libucrt:lcidtoname_downlevel.obj
 0002:0000b084       ??_C@_1M@MIODLDKF@?$AAm?$AAl?$AA?9?$AAI?$AAN?$AA?$AA@ 1007c084     libucrt:lcidtoname_downlevel.obj
 0002:0000b094       ??_C@_1M@PBIEACPO@?$AAm?$AAr?$AA?9?$AAI?$AAN?$AA?$AA@ 1007c094     libucrt:lcidtoname_downlevel.obj
 0002:0000b0a4       ??_C@_1M@NIDEAGPH@?$AAs?$AAa?$AA?9?$AAI?$AAN?$AA?$AA@ 1007c0a4     libucrt:lcidtoname_downlevel.obj
 0002:0000b0b4       ??_C@_1M@FHIHCBIO@?$AAm?$AAn?$AA?9?$AAM?$AAN?$AA?$AA@ 1007c0b4     libucrt:lcidtoname_downlevel.obj
 0002:0000b0c4       ??_C@_1M@JAIJPENP@?$AAc?$AAy?$AA?9?$AAG?$AAB?$AA?$AA@ 1007c0c4     libucrt:lcidtoname_downlevel.obj
 0002:0000b0d4       ??_C@_1M@PHGFBEPN@?$AAg?$AAl?$AA?9?$AAE?$AAS?$AA?$AA@ 1007c0d4     libucrt:lcidtoname_downlevel.obj
 0002:0000b0e4       ??_C@_1O@KPIPDNCP@?$AAk?$AAo?$AAk?$AA?9?$AAI?$AAN?$AA?$AA@ 1007c0e4     libucrt:lcidtoname_downlevel.obj
 0002:0000b0f4       ??_C@_1O@KNHJLDJA@?$AAs?$AAy?$AAr?$AA?9?$AAS?$AAY?$AA?$AA@ 1007c0f4     libucrt:lcidtoname_downlevel.obj
 0002:0000b104       ??_C@_1O@MKEKBLAH@?$AAd?$AAi?$AAv?$AA?9?$AAM?$AAV?$AA?$AA@ 1007c104     libucrt:lcidtoname_downlevel.obj
 0002:0000b114       ??_C@_1O@OHDCKDDF@?$AAq?$AAu?$AAz?$AA?9?$AAB?$AAO?$AA?$AA@ 1007c114     libucrt:lcidtoname_downlevel.obj
 0002:0000b124       ??_C@_1M@LEPJNLFD@?$AAn?$AAs?$AA?9?$AAZ?$AAA?$AA?$AA@ 1007c124     libucrt:lcidtoname_downlevel.obj
 0002:0000b134       ??_C@_1M@OMLEIIJB@?$AAm?$AAi?$AA?9?$AAN?$AAZ?$AA?$AA@ 1007c134     libucrt:lcidtoname_downlevel.obj
 0002:0000b144       ??_C@_1M@PMPEAILG@?$AAa?$AAr?$AA?9?$AAI?$AAQ?$AA?$AA@ 1007c144     libucrt:lcidtoname_downlevel.obj
 0002:0000b154       ??_C@_1M@CNKPNOEE@?$AAd?$AAe?$AA?9?$AAC?$AAH?$AA?$AA@ 1007c154     libucrt:lcidtoname_downlevel.obj
 0002:0000b164       ??_C@_1M@LKMGMLKO@?$AAe?$AAn?$AA?9?$AAG?$AAB?$AA?$AA@ 1007c164     libucrt:lcidtoname_downlevel.obj
 0002:0000b174       ??_C@_1M@PGKJFFGL@?$AAe?$AAs?$AA?9?$AAM?$AAX?$AA?$AA@ 1007c174     libucrt:lcidtoname_downlevel.obj
 0002:0000b184       ??_C@_1M@DNNANBDC@?$AAf?$AAr?$AA?9?$AAB?$AAE?$AA?$AA@ 1007c184     libucrt:lcidtoname_downlevel.obj
 0002:0000b194       ??_C@_1M@HLGMDFHM@?$AAi?$AAt?$AA?9?$AAC?$AAH?$AA?$AA@ 1007c194     libucrt:lcidtoname_downlevel.obj
 0002:0000b1a4       ??_C@_1M@CLLBGJH@?$AAn?$AAl?$AA?9?$AAB?$AAE?$AA?$AA@ 1007c1a4     libucrt:lcidtoname_downlevel.obj
 0002:0000b1b4       ??_C@_1M@BODBOGLF@?$AAn?$AAn?$AA?9?$AAN?$AAO?$AA?$AA@ 1007c1b4     libucrt:lcidtoname_downlevel.obj
 0002:0000b1c4       ??_C@_1M@HFFAHKAD@?$AAp?$AAt?$AA?9?$AAP?$AAT?$AA?$AA@ 1007c1c4     libucrt:lcidtoname_downlevel.obj
 0002:0000b1d4       ??_C@_1BG@LNOAKHIE@?$AAs?$AAr?$AA?9?$AAS?$AAP?$AA?9?$AAL?$AAa?$AAt?$AAn?$AA?$AA@ 1007c1d4     libucrt:lcidtoname_downlevel.obj
 0002:0000b1f0       ??_C@_1M@HBMHBGAK@?$AAs?$AAv?$AA?9?$AAF?$AAI?$AA?$AA@ 1007c1f0     libucrt:lcidtoname_downlevel.obj
 0002:0000b200       ??_C@_1BG@DGCJGJBE@?$AAa?$AAz?$AA?9?$AAA?$AAZ?$AA?9?$AAC?$AAy?$AAr?$AAl?$AA?$AA@ 1007c200     libucrt:lcidtoname_downlevel.obj
 0002:0000b21c       ??_C@_1M@KEJDAAHB@?$AAs?$AAe?$AA?9?$AAS?$AAE?$AA?$AA@ 1007c21c     libucrt:lcidtoname_downlevel.obj
 0002:0000b22c       ??_C@_1M@HEIBJJAD@?$AAm?$AAs?$AA?9?$AAB?$AAN?$AA?$AA@ 1007c22c     libucrt:lcidtoname_downlevel.obj
 0002:0000b23c       ??_C@_1BG@PBGJMCEM@?$AAu?$AAz?$AA?9?$AAU?$AAZ?$AA?9?$AAC?$AAy?$AAr?$AAl?$AA?$AA@ 1007c23c     libucrt:lcidtoname_downlevel.obj
 0002:0000b258       ??_C@_1O@LAOBCMDF@?$AAq?$AAu?$AAz?$AA?9?$AAE?$AAC?$AA?$AA@ 1007c258     libucrt:lcidtoname_downlevel.obj
 0002:0000b268       ??_C@_1M@POEEMAIO@?$AAa?$AAr?$AA?9?$AAE?$AAG?$AA?$AA@ 1007c268     libucrt:lcidtoname_downlevel.obj
 0002:0000b278       ??_C@_1M@EFAKDEDL@?$AAz?$AAh?$AA?9?$AAH?$AAK?$AA?$AA@ 1007c278     libucrt:lcidtoname_downlevel.obj
 0002:0000b288       ??_C@_1M@HKKIJHGI@?$AAd?$AAe?$AA?9?$AAA?$AAT?$AA?$AA@ 1007c288     libucrt:lcidtoname_downlevel.obj
 0002:0000b298       ??_C@_1M@KBFBEHJF@?$AAe?$AAn?$AA?9?$AAA?$AAU?$AA?$AA@ 1007c298     libucrt:lcidtoname_downlevel.obj
 0002:0000b2a8       ??_C@_1M@MNPLFAAH@?$AAe?$AAs?$AA?9?$AAE?$AAS?$AA?$AA@ 1007c2a8     libucrt:lcidtoname_downlevel.obj
 0002:0000b2b8       ??_C@_1M@HJOOJFMA@?$AAf?$AAr?$AA?9?$AAC?$AAA?$AA?$AA@ 1007c2b8     libucrt:lcidtoname_downlevel.obj
 0002:0000b2c8       ??_C@_1BG@JPOFPNAB@?$AAs?$AAr?$AA?9?$AAS?$AAP?$AA?9?$AAC?$AAy?$AAr?$AAl?$AA?$AA@ 1007c2c8     libucrt:lcidtoname_downlevel.obj
 0002:0000b2e4       ??_C@_1M@LNFOCMOB@?$AAs?$AAe?$AA?9?$AAF?$AAI?$AA?$AA@ 1007c2e4     libucrt:lcidtoname_downlevel.obj
 0002:0000b2f4       ??_C@_1O@MGJBOAMB@?$AAq?$AAu?$AAz?$AA?9?$AAP?$AAE?$AA?$AA@ 1007c2f4     libucrt:lcidtoname_downlevel.obj
 0002:0000b304       ??_C@_1M@GJINLBOK@?$AAa?$AAr?$AA?9?$AAL?$AAY?$AA?$AA@ 1007c304     libucrt:lcidtoname_downlevel.obj
 0002:0000b314       ??_C@_1M@GGMNHJNL@?$AAz?$AAh?$AA?9?$AAS?$AAG?$AA?$AA@ 1007c314     libucrt:lcidtoname_downlevel.obj
 0002:0000b324       ??_C@_1M@HOIKODND@?$AAd?$AAe?$AA?9?$AAL?$AAU?$AA?$AA@ 1007c324     libucrt:lcidtoname_downlevel.obj
 0002:0000b334       ??_C@_1M@DDOCCGFG@?$AAe?$AAn?$AA?9?$AAC?$AAA?$AA?$AA@ 1007c334     libucrt:lcidtoname_downlevel.obj
 0002:0000b344       ??_C@_1M@BNOEMJLF@?$AAe?$AAs?$AA?9?$AAG?$AAT?$AA?$AA@ 1007c344     libucrt:lcidtoname_downlevel.obj
 0002:0000b354       ??_C@_1M@EOGNKEK@?$AAf?$AAr?$AA?9?$AAC?$AAH?$AA?$AA@ 1007c354     libucrt:lcidtoname_downlevel.obj
 0002:0000b364       ??_C@_1M@FLIDJFHL@?$AAh?$AAr?$AA?9?$AAB?$AAA?$AA?$AA@ 1007c364     libucrt:lcidtoname_downlevel.obj
 0002:0000b374       ??_C@_1O@FMCELNAJ@?$AAs?$AAm?$AAj?$AA?9?$AAN?$AAO?$AA?$AA@ 1007c374     libucrt:lcidtoname_downlevel.obj
 0002:0000b384       ??_C@_1M@JHGLJMGJ@?$AAa?$AAr?$AA?9?$AAD?$AAZ?$AA?$AA@ 1007c384     libucrt:lcidtoname_downlevel.obj
 0002:0000b394       ??_C@_1M@JKKFDCNP@?$AAz?$AAh?$AA?9?$AAM?$AAO?$AA?$AA@ 1007c394     libucrt:lcidtoname_downlevel.obj
 0002:0000b3a4       ??_C@_1M@GEEFALPE@?$AAd?$AAe?$AA?9?$AAL?$AAI?$AA?$AA@ 1007c3a4     libucrt:lcidtoname_downlevel.obj
 0002:0000b3b4       ??_C@_1M@IGEOFBG@?$AAe?$AAn?$AA?9?$AAN?$AAZ?$AA?$AA@ 1007c3b4     libucrt:lcidtoname_downlevel.obj
 0002:0000b3c4       ??_C@_1M@KDBONEHP@?$AAe?$AAs?$AA?9?$AAC?$AAR?$AA?$AA@ 1007c3c4     libucrt:lcidtoname_downlevel.obj
 0002:0000b3d4       ??_C@_1M@FHMDOHNN@?$AAf?$AAr?$AA?9?$AAL?$AAU?$AA?$AA@ 1007c3d4     libucrt:lcidtoname_downlevel.obj
 0002:0000b3e4       ??_C@_1BG@NFKKMAFG@?$AAb?$AAs?$AA?9?$AAB?$AAA?$AA?9?$AAL?$AAa?$AAt?$AAn?$AA?$AA@ 1007c3e4     libucrt:lcidtoname_downlevel.obj
 0002:0000b400       ??_C@_1O@IMNBEMCI@?$AAs?$AAm?$AAj?$AA?9?$AAS?$AAE?$AA?$AA@ 1007c400     libucrt:lcidtoname_downlevel.obj
 0002:0000b410       ??_C@_1M@DHHMBNDP@?$AAa?$AAr?$AA?9?$AAM?$AAA?$AA?$AA@ 1007c410     libucrt:lcidtoname_downlevel.obj
 0002:0000b420       ??_C@_1M@BNBLJCGH@?$AAe?$AAn?$AA?9?$AAI?$AAE?$AA?$AA@ 1007c420     libucrt:lcidtoname_downlevel.obj
 0002:0000b430       ??_C@_1M@GEPAFMDL@?$AAe?$AAs?$AA?9?$AAP?$AAA?$AA?$AA@ 1007c430     libucrt:lcidtoname_downlevel.obj
 0002:0000b440       ??_C@_1M@OJONDMDL@?$AAf?$AAr?$AA?9?$AAM?$AAC?$AA?$AA@ 1007c440     libucrt:lcidtoname_downlevel.obj
 0002:0000b450       ??_C@_1BG@OBCNFJB@?$AAs?$AAr?$AA?9?$AAB?$AAA?$AA?9?$AAL?$AAa?$AAt?$AAn?$AA?$AA@ 1007c450     libucrt:lcidtoname_downlevel.obj
 0002:0000b46c       ??_C@_1O@KEMEEGPO@?$AAs?$AAm?$AAa?$AA?9?$AAN?$AAO?$AA?$AA@ 1007c46c     libucrt:lcidtoname_downlevel.obj
 0002:0000b47c       ??_C@_1M@ELMGFODK@?$AAa?$AAr?$AA?9?$AAT?$AAN?$AA?$AA@ 1007c47c     libucrt:lcidtoname_downlevel.obj
 0002:0000b48c       ??_C@_1M@BHDLHFAF@?$AAe?$AAn?$AA?9?$AAZ?$AAA?$AA?$AA@ 1007c48c     libucrt:lcidtoname_downlevel.obj
 0002:0000b49c       ??_C@_1M@BMGIGLIF@?$AAe?$AAs?$AA?9?$AAD?$AAO?$AA?$AA@ 1007c49c     libucrt:lcidtoname_downlevel.obj
 0002:0000b4ac       ??_C@_1BG@CMBHIPBE@?$AAs?$AAr?$AA?9?$AAB?$AAA?$AA?9?$AAC?$AAy?$AAr?$AAl?$AA?$AA@ 1007c4ac     libucrt:lcidtoname_downlevel.obj
 0002:0000b4c8       ??_C@_1O@HEDBLHNP@?$AAs?$AAm?$AAa?$AA?9?$AAS?$AAE?$AA?$AA@ 1007c4c8     libucrt:lcidtoname_downlevel.obj
 0002:0000b4d8       ??_C@_1M@DAGCADIM@?$AAa?$AAr?$AA?9?$AAO?$AAM?$AA?$AA@ 1007c4d8     libucrt:lcidtoname_downlevel.obj
 0002:0000b4e8       ??_C@_1M@FODLMICG@?$AAe?$AAn?$AA?9?$AAJ?$AAM?$AA?$AA@ 1007c4e8     libucrt:lcidtoname_downlevel.obj
 0002:0000b4f8       ??_C@_1M@DNMLCIHB@?$AAe?$AAs?$AA?9?$AAV?$AAE?$AA?$AA@ 1007c4f8     libucrt:lcidtoname_downlevel.obj
 0002:0000b508       ??_C@_1O@EOKHMKJK@?$AAs?$AAm?$AAs?$AA?9?$AAF?$AAI?$AA?$AA@ 1007c508     libucrt:lcidtoname_downlevel.obj
 0002:0000b518       ??_C@_1M@CAFJMKOF@?$AAa?$AAr?$AA?9?$AAY?$AAE?$AA?$AA@ 1007c518     libucrt:lcidtoname_downlevel.obj
 0002:0000b528       ??_C@_1M@CBFHIJLI@?$AAe?$AAn?$AA?9?$AAC?$AAB?$AA?$AA@ 1007c528     libucrt:lcidtoname_downlevel.obj
 0002:0000b538       ??_C@_1M@BGNFLDN@?$AAe?$AAs?$AA?9?$AAC?$AAO?$AA?$AA@ 1007c538     libucrt:lcidtoname_downlevel.obj
 0002:0000b548       ??_C@_1O@JMPHMAMC@?$AAs?$AAm?$AAn?$AA?9?$AAF?$AAI?$AA?$AA@ 1007c548     libucrt:lcidtoname_downlevel.obj
 0002:0000b558       ??_C@_1M@JLANABKE@?$AAa?$AAr?$AA?9?$AAS?$AAY?$AA?$AA@ 1007c558     libucrt:lcidtoname_downlevel.obj
 0002:0000b568       ??_C@_1M@HPKGCFGN@?$AAe?$AAn?$AA?9?$AAB?$AAZ?$AA?$AA@ 1007c568     libucrt:lcidtoname_downlevel.obj
 0002:0000b578       ??_C@_1M@OLJCMLGM@?$AAe?$AAs?$AA?9?$AAP?$AAE?$AA?$AA@ 1007c578     libucrt:lcidtoname_downlevel.obj
 0002:0000b588       ??_C@_1M@MKKGFKLE@?$AAa?$AAr?$AA?9?$AAJ?$AAO?$AA?$AA@ 1007c588     libucrt:lcidtoname_downlevel.obj
 0002:0000b598       ??_C@_1M@EKPGLDNI@?$AAe?$AAn?$AA?9?$AAT?$AAT?$AA?$AA@ 1007c598     libucrt:lcidtoname_downlevel.obj
 0002:0000b5a8       ??_C@_1M@OONGHFHE@?$AAe?$AAs?$AA?9?$AAA?$AAR?$AA?$AA@ 1007c5a8     libucrt:lcidtoname_downlevel.obj
 0002:0000b5b8       ??_C@_1M@OOJFGBHE@?$AAa?$AAr?$AA?9?$AAL?$AAB?$AA?$AA@ 1007c5b8     libucrt:lcidtoname_downlevel.obj
 0002:0000b5c8       ??_C@_1M@GCEJHNEG@?$AAe?$AAn?$AA?9?$AAZ?$AAW?$AA?$AA@ 1007c5c8     libucrt:lcidtoname_downlevel.obj
 0002:0000b5d8       ??_C@_1M@JNOCAHJI@?$AAe?$AAs?$AA?9?$AAE?$AAC?$AA?$AA@ 1007c5d8     libucrt:lcidtoname_downlevel.obj
 0002:0000b5e8       ??_C@_1M@JEFHPGGB@?$AAa?$AAr?$AA?9?$AAK?$AAW?$AA?$AA@ 1007c5e8     libucrt:lcidtoname_downlevel.obj
 0002:0000b5f8       ??_C@_1M@MLKIBJOJ@?$AAe?$AAn?$AA?9?$AAP?$AAH?$AA?$AA@ 1007c5f8     libucrt:lcidtoname_downlevel.obj
 0002:0000b608       ??_C@_1M@BDNIPEND@?$AAe?$AAs?$AA?9?$AAC?$AAL?$AA?$AA@ 1007c608     libucrt:lcidtoname_downlevel.obj
 0002:0000b618       ??_C@_1M@MPNMEKBD@?$AAa?$AAr?$AA?9?$AAA?$AAE?$AA?$AA@ 1007c618     libucrt:lcidtoname_downlevel.obj
 0002:0000b628       ??_C@_1M@KBJALCPI@?$AAe?$AAs?$AA?9?$AAU?$AAY?$AA?$AA@ 1007c628     libucrt:lcidtoname_downlevel.obj
 0002:0000b638       ??_C@_1M@LLCCOAGA@?$AAa?$AAr?$AA?9?$AAB?$AAH?$AA?$AA@ 1007c638     libucrt:lcidtoname_downlevel.obj
 0002:0000b648       ??_C@_1M@PBFNCDEL@?$AAe?$AAs?$AA?9?$AAP?$AAY?$AA?$AA@ 1007c648     libucrt:lcidtoname_downlevel.obj
 0002:0000b658       ??_C@_1M@EDGINPNP@?$AAa?$AAr?$AA?9?$AAQ?$AAA?$AA?$AA@ 1007c658     libucrt:lcidtoname_downlevel.obj
 0002:0000b668       ??_C@_1M@MKDBIIJI@?$AAe?$AAs?$AA?9?$AAB?$AAO?$AA?$AA@ 1007c668     libucrt:lcidtoname_downlevel.obj
 0002:0000b678       ??_C@_1M@CPKKEBLD@?$AAe?$AAs?$AA?9?$AAS?$AAV?$AA?$AA@ 1007c678     libucrt:lcidtoname_downlevel.obj
 0002:0000b688       ??_C@_1M@NDBGMMJL@?$AAe?$AAs?$AA?9?$AAH?$AAN?$AA?$AA@ 1007c688     libucrt:lcidtoname_downlevel.obj
 0002:0000b698       ??_C@_1M@JIJIBHDP@?$AAe?$AAs?$AA?9?$AAN?$AAI?$AA?$AA@ 1007c698     libucrt:lcidtoname_downlevel.obj
 0002:0000b6a8       ??_C@_1M@CGFMKEEK@?$AAe?$AAs?$AA?9?$AAP?$AAR?$AA?$AA@ 1007c6a8     libucrt:lcidtoname_downlevel.obj
 0002:0000b6b8       ??_C@_1O@ICJHKIIK@?$AAz?$AAh?$AA?9?$AAC?$AAH?$AAT?$AA?$AA@ 1007c6b8     libucrt:lcidtoname_downlevel.obj
 0002:0000b6c8       ??_C@_15CLNEJCE@?$AAs?$AAr?$AA?$AA@ 1007c6c8     libucrt:lcidtoname_downlevel.obj
 0002:0000bf5c       ??_C@_1M@KAHEKEIG@?$AAa?$AAf?$AA?9?$AAz?$AAa?$AA?$AA@ 1007cf5c     libucrt:lcidtoname_downlevel.obj
 0002:0000bf6c       ??_C@_1M@GIECOABL@?$AAa?$AAr?$AA?9?$AAa?$AAe?$AA?$AA@ 1007cf6c     libucrt:lcidtoname_downlevel.obj
 0002:0000bf7c       ??_C@_1M@BMLMEKGI@?$AAa?$AAr?$AA?9?$AAb?$AAh?$AA?$AA@ 1007cf7c     libucrt:lcidtoname_downlevel.obj
 0002:0000bf8c       ??_C@_1M@DAPFDGGB@?$AAa?$AAr?$AA?9?$AAd?$AAz?$AA?$AA@ 1007cf8c     libucrt:lcidtoname_downlevel.obj
 0002:0000bf9c       ??_C@_1M@FJNKGKIG@?$AAa?$AAr?$AA?9?$AAe?$AAg?$AA?$AA@ 1007cf9c     libucrt:lcidtoname_downlevel.obj
 0002:0000bfac       ??_C@_1M@FLGKKCLO@?$AAa?$AAr?$AA?9?$AAi?$AAq?$AA?$AA@ 1007cfac     libucrt:lcidtoname_downlevel.obj
 0002:0000bfbc       ??_C@_1M@GNDIPALM@?$AAa?$AAr?$AA?9?$AAj?$AAo?$AA?$AA@ 1007cfbc     libucrt:lcidtoname_downlevel.obj
 0002:0000bfcc       ??_C@_1M@DDMJFMGJ@?$AAa?$AAr?$AA?9?$AAk?$AAw?$AA?$AA@ 1007cfcc     libucrt:lcidtoname_downlevel.obj
 0002:0000bfdc       ??_C@_1M@EJALMLHM@?$AAa?$AAr?$AA?9?$AAl?$AAb?$AA?$AA@ 1007cfdc     libucrt:lcidtoname_downlevel.obj
 0002:0000bfec       ??_C@_1M@MOBDBLOC@?$AAa?$AAr?$AA?9?$AAl?$AAy?$AA?$AA@ 1007cfec     libucrt:lcidtoname_downlevel.obj
 0002:0000bffc       ??_C@_1M@JAOCLHDH@?$AAa?$AAr?$AA?9?$AAm?$AAa?$AA?$AA@ 1007cffc     libucrt:lcidtoname_downlevel.obj
 0002:0000c00c       ??_C@_1M@JHPMKJIE@?$AAa?$AAr?$AA?9?$AAo?$AAm?$AA?$AA@ 1007d00c     libucrt:lcidtoname_downlevel.obj
 0002:0000c01c       ??_C@_1M@OEPGHFNH@?$AAa?$AAr?$AA?9?$AAq?$AAa?$AA?$AA@ 1007d01c     libucrt:lcidtoname_downlevel.obj
 0002:0000c02c       ??_C@_1M@KJDONENM@?$AAa?$AAr?$AA?9?$AAs?$AAa?$AA?$AA@ 1007d02c     libucrt:lcidtoname_downlevel.obj
 0002:0000c03c       ??_C@_1M@DMJDKLKM@?$AAa?$AAr?$AA?9?$AAs?$AAy?$AA?$AA@ 1007d03c     libucrt:lcidtoname_downlevel.obj
 0002:0000c04c       ??_C@_1M@OMFIPEDC@?$AAa?$AAr?$AA?9?$AAt?$AAn?$AA?$AA@ 1007d04c     libucrt:lcidtoname_downlevel.obj
 0002:0000c05c       ??_C@_1M@IHMHGAON@?$AAa?$AAr?$AA?9?$AAy?$AAe?$AA?$AA@ 1007d05c     libucrt:lcidtoname_downlevel.obj
 0002:0000c06c       ??_C@_1BG@KDCPGJGB@?$AAa?$AAz?$AA?9?$AAa?$AAz?$AA?9?$AAc?$AAy?$AAr?$AAl?$AA?$AA@ 1007d06c     libucrt:lcidtoname_downlevel.obj
 0002:0000c088       ??_C@_1BG@IBCKDDOE@?$AAa?$AAz?$AA?9?$AAa?$AAz?$AA?9?$AAl?$AAa?$AAt?$AAn?$AA?$AA@ 1007d088     libucrt:lcidtoname_downlevel.obj
 0002:0000c0a4       ??_C@_1M@EGPFDCPD@?$AAb?$AAe?$AA?9?$AAb?$AAy?$AA?$AA@ 1007d0a4     libucrt:lcidtoname_downlevel.obj
 0002:0000c0b4       ??_C@_1M@PCMGMCGC@?$AAb?$AAg?$AA?9?$AAb?$AAg?$AA?$AA@ 1007d0b4     libucrt:lcidtoname_downlevel.obj
 0002:0000c0c4       ??_C@_1M@BJBMFGOB@?$AAb?$AAn?$AA?9?$AAi?$AAn?$AA?$AA@ 1007d0c4     libucrt:lcidtoname_downlevel.obj
 0002:0000c0d4       ??_C@_1BG@EAKMMACD@?$AAb?$AAs?$AA?9?$AAb?$AAa?$AA?9?$AAl?$AAa?$AAt?$AAn?$AA?$AA@ 1007d0d4     libucrt:lcidtoname_downlevel.obj
 0002:0000c0f0       ??_C@_1M@KGADAODK@?$AAc?$AAa?$AA?9?$AAe?$AAs?$AA?$AA@ 1007d0f0     libucrt:lcidtoname_downlevel.obj
 0002:0000c100       ??_C@_1M@COAJPDHI@?$AAc?$AAs?$AA?9?$AAc?$AAz?$AA?$AA@ 1007d100     libucrt:lcidtoname_downlevel.obj
 0002:0000c110       ??_C@_1M@DHBHFONH@?$AAc?$AAy?$AA?9?$AAg?$AAb?$AA?$AA@ 1007d110     libucrt:lcidtoname_downlevel.obj
 0002:0000c120       ??_C@_1M@IMGKELGA@?$AAd?$AAa?$AA?9?$AAd?$AAk?$AA?$AA@ 1007d120     libucrt:lcidtoname_downlevel.obj
 0002:0000c130       ??_C@_1M@NNDGDNGA@?$AAd?$AAe?$AA?9?$AAa?$AAt?$AA?$AA@ 1007d130     libucrt:lcidtoname_downlevel.obj
 0002:0000c140       ??_C@_1M@IKDBHEEM@?$AAd?$AAe?$AA?9?$AAc?$AAh?$AA?$AA@ 1007d140     libucrt:lcidtoname_downlevel.obj
 0002:0000c150       ??_C@_1M@GFFOJMCJ@?$AAd?$AAe?$AA?9?$AAd?$AAe?$AA?$AA@ 1007d150     libucrt:lcidtoname_downlevel.obj
 0002:0000c160       ??_C@_1M@MDNLKBPM@?$AAd?$AAe?$AA?9?$AAl?$AAi?$AA?$AA@ 1007d160     libucrt:lcidtoname_downlevel.obj
 0002:0000c170       ??_C@_1M@NJBEEJNL@?$AAd?$AAe?$AA?9?$AAl?$AAu?$AA?$AA@ 1007d170     libucrt:lcidtoname_downlevel.obj
 0002:0000c180       ??_C@_1O@GNNELBAP@?$AAd?$AAi?$AAv?$AA?9?$AAm?$AAv?$AA?$AA@ 1007d180     libucrt:lcidtoname_downlevel.obj
 0002:0000c190       ??_C@_1M@EJLEOGAE@?$AAe?$AAl?$AA?9?$AAg?$AAr?$AA?$AA@ 1007d190     libucrt:lcidtoname_downlevel.obj
 0002:0000c1a0       ??_C@_1M@GMPONJN@?$AAe?$AAn?$AA?9?$AAa?$AAu?$AA?$AA@ 1007d1a0     libucrt:lcidtoname_downlevel.obj
 0002:0000c1b0       ??_C@_1M@NIDIIPGF@?$AAe?$AAn?$AA?9?$AAb?$AAz?$AA?$AA@ 1007d1b0     libucrt:lcidtoname_downlevel.obj
 0002:0000c1c0       ??_C@_1M@JEHMIMFO@?$AAe?$AAn?$AA?9?$AAc?$AAa?$AA?$AA@ 1007d1c0     libucrt:lcidtoname_downlevel.obj
 0002:0000c1d0       ??_C@_1M@IGMJCDLA@?$AAe?$AAn?$AA?9?$AAc?$AAb?$AA?$AA@ 1007d1d0     libucrt:lcidtoname_downlevel.obj
 0002:0000c1e0       ??_C@_1M@BNFIGBKG@?$AAe?$AAn?$AA?9?$AAg?$AAb?$AA?$AA@ 1007d1e0     libucrt:lcidtoname_downlevel.obj
 0002:0000c1f0       ??_C@_1M@LKIFDIGP@?$AAe?$AAn?$AA?9?$AAi?$AAe?$AA?$AA@ 1007d1f0     libucrt:lcidtoname_downlevel.obj
 0002:0000c200       ??_C@_1M@PJKFGCCO@?$AAe?$AAn?$AA?9?$AAj?$AAm?$AA?$AA@ 1007d200     libucrt:lcidtoname_downlevel.obj
 0002:0000c210       ??_C@_1M@KPPKEPBO@?$AAe?$AAn?$AA?9?$AAn?$AAz?$AA?$AA@ 1007d210     libucrt:lcidtoname_downlevel.obj
 0002:0000c220       ??_C@_1M@GMDGLDOB@?$AAe?$AAn?$AA?9?$AAp?$AAh?$AA?$AA@ 1007d220     libucrt:lcidtoname_downlevel.obj
 0002:0000c230       ??_C@_1M@ONGIBJNA@?$AAe?$AAn?$AA?9?$AAt?$AAt?$AA?$AA@ 1007d230     libucrt:lcidtoname_downlevel.obj
 0002:0000c240       ??_C@_1M@LLODPCMM@?$AAe?$AAn?$AA?9?$AAu?$AAs?$AA?$AA@ 1007d240     libucrt:lcidtoname_downlevel.obj
 0002:0000c250       ??_C@_1M@LAKFNPAN@?$AAe?$AAn?$AA?9?$AAz?$AAa?$AA?$AA@ 1007d250     libucrt:lcidtoname_downlevel.obj
 0002:0000c260       ??_C@_1M@MFNHNHEO@?$AAe?$AAn?$AA?9?$AAz?$AAw?$AA?$AA@ 1007d260     libucrt:lcidtoname_downlevel.obj
 0002:0000c270       ??_C@_1M@EJEINPHM@?$AAe?$AAs?$AA?9?$AAa?$AAr?$AA?$AA@ 1007d270     libucrt:lcidtoname_downlevel.obj
 0002:0000c280       ??_C@_1M@GNKPCCJA@?$AAe?$AAs?$AA?9?$AAb?$AAo?$AA?$AA@ 1007d280     libucrt:lcidtoname_downlevel.obj
 0002:0000c290       ??_C@_1M@LEEGFONL@?$AAe?$AAs?$AA?9?$AAc?$AAl?$AA?$AA@ 1007d290     libucrt:lcidtoname_downlevel.obj
 0002:0000c2a0       ??_C@_1M@KGPDPBDF@?$AAe?$AAs?$AA?9?$AAc?$AAo?$AA?$AA@ 1007d2a0     libucrt:lcidtoname_downlevel.obj
 0002:0000c2b0       ??_C@_1M@EIAHOHH@?$AAe?$AAs?$AA?9?$AAc?$AAr?$AA?$AA@ 1007d2b0     libucrt:lcidtoname_downlevel.obj
 0002:0000c2c0       ??_C@_1M@LLPGMBIN@?$AAe?$AAs?$AA?9?$AAd?$AAo?$AA?$AA@ 1007d2c0     libucrt:lcidtoname_downlevel.obj
 0002:0000c2d0       ??_C@_1M@DKHMKNJA@?$AAe?$AAs?$AA?9?$AAe?$AAc?$AA?$AA@ 1007d2d0     libucrt:lcidtoname_downlevel.obj
 0002:0000c2e0       ??_C@_1M@GKGFPKAP@?$AAe?$AAs?$AA?9?$AAe?$AAs?$AA?$AA@ 1007d2e0     libucrt:lcidtoname_downlevel.obj
 0002:0000c2f0       ??_C@_1M@LKHKGDLN@?$AAe?$AAs?$AA?9?$AAg?$AAt?$AA?$AA@ 1007d2f0     libucrt:lcidtoname_downlevel.obj
 0002:0000c300       ??_C@_1M@HEIIGGJD@?$AAe?$AAs?$AA?9?$AAh?$AAn?$AA?$AA@ 1007d300     libucrt:lcidtoname_downlevel.obj
 0002:0000c310       ??_C@_1M@FBDHPPGD@?$AAe?$AAs?$AA?9?$AAm?$AAx?$AA?$AA@ 1007d310     libucrt:lcidtoname_downlevel.obj
 0002:0000c320       ??_C@_1M@DPAGLNDH@?$AAe?$AAs?$AA?9?$AAn?$AAi?$AA?$AA@ 1007d320     libucrt:lcidtoname_downlevel.obj
 0002:0000c330       ??_C@_1M@MDGOPGDD@?$AAe?$AAs?$AA?9?$AAp?$AAa?$AA?$AA@ 1007d330     libucrt:lcidtoname_downlevel.obj
 0002:0000c340       ??_C@_1M@EMAMGBGE@?$AAe?$AAs?$AA?9?$AAp?$AAe?$AA?$AA@ 1007d340     libucrt:lcidtoname_downlevel.obj
 0002:0000c350       ??_C@_1M@IBMCAOEC@?$AAe?$AAs?$AA?9?$AAp?$AAr?$AA?$AA@ 1007d350     libucrt:lcidtoname_downlevel.obj
 0002:0000c360       ??_C@_1M@FGMDIJED@?$AAe?$AAs?$AA?9?$AAp?$AAy?$AA?$AA@ 1007d360     libucrt:lcidtoname_downlevel.obj
 0002:0000c370       ??_C@_1M@IIDEOLLL@?$AAe?$AAs?$AA?9?$AAs?$AAv?$AA?$AA@ 1007d370     libucrt:lcidtoname_downlevel.obj
 0002:0000c380       ??_C@_1M@GAOBIPA@?$AAe?$AAs?$AA?9?$AAu?$AAy?$AA?$AA@ 1007d380     libucrt:lcidtoname_downlevel.obj
 0002:0000c390       ??_C@_1M@JKFFICHJ@?$AAe?$AAs?$AA?9?$AAv?$AAe?$AA?$AA@ 1007d390     libucrt:lcidtoname_downlevel.obj
 0002:0000c3a0       ??_C@_1M@PNMLOJDF@?$AAe?$AAt?$AA?9?$AAe?$AAe?$AA?$AA@ 1007d3a0     libucrt:lcidtoname_downlevel.obj
 0002:0000c3b0       ??_C@_1M@GHHLIKEI@?$AAe?$AAu?$AA?9?$AAe?$AAs?$AA?$AA@ 1007d3b0     libucrt:lcidtoname_downlevel.obj
 0002:0000c3c0       ??_C@_1M@PBNONODE@?$AAf?$AAa?$AA?9?$AAi?$AAr?$AA?$AA@ 1007d3c0     libucrt:lcidtoname_downlevel.obj
 0002:0000c3d0       ??_C@_1M@JEEHPMIL@?$AAf?$AAi?$AA?9?$AAf?$AAi?$AA?$AA@ 1007d3d0     libucrt:lcidtoname_downlevel.obj
 0002:0000c3e0       ??_C@_1M@LMDCNDBA@?$AAf?$AAo?$AA?9?$AAf?$AAo?$AA?$AA@ 1007d3e0     libucrt:lcidtoname_downlevel.obj
 0002:0000c3f0       ??_C@_1M@JKEOHLDK@?$AAf?$AAr?$AA?9?$AAb?$AAe?$AA?$AA@ 1007d3f0     libucrt:lcidtoname_downlevel.obj
 0002:0000c400       ??_C@_1M@NOHADPMI@?$AAf?$AAr?$AA?9?$AAc?$AAa?$AA?$AA@ 1007d400     libucrt:lcidtoname_downlevel.obj
 0002:0000c410       ??_C@_1M@KDHIHAEC@?$AAf?$AAr?$AA?9?$AAc?$AAh?$AA?$AA@ 1007d410     libucrt:lcidtoname_downlevel.obj
 0002:0000c420       ??_C@_1M@MMBBFGAK@?$AAf?$AAr?$AA?9?$AAf?$AAr?$AA?$AA@ 1007d420     libucrt:lcidtoname_downlevel.obj
 0002:0000c430       ??_C@_1M@PAFNENNF@?$AAf?$AAr?$AA?9?$AAl?$AAu?$AA?$AA@ 1007d430     libucrt:lcidtoname_downlevel.obj
 0002:0000c440       ??_C@_1M@EOHDJGDD@?$AAf?$AAr?$AA?9?$AAm?$AAc?$AA?$AA@ 1007d440     libucrt:lcidtoname_downlevel.obj
 0002:0000c450       ??_C@_1M@FAPLLOPF@?$AAg?$AAl?$AA?9?$AAe?$AAs?$AA?$AA@ 1007d450     libucrt:lcidtoname_downlevel.obj
