 homing_slrt

 Timestamp is 60f984fd (Thu Jul 22 16:47:25 2021)

 Preferred load address is 10000000

 Start         Length     Name                   Class
 0001:00000000 0006dac5H .text$mn                CODE
 0001:0006dac5 00001085H .text$x                 CODE
 0002:00000000 00000104H .CRT$XCA                DATA
 0002:00000104 00000104H .CRT$XCZ                DATA
 0002:00000208 00000104H .CRT$XIA                DATA
 0002:0000030c 00000110H .CRT$XIC                DATA
 0002:0000041c 00000104H .CRT$XIZ                DATA
 0002:00000520 00000104H .CRT$XPA                DATA
 0002:00000624 0000010cH .CRT$XPX                DATA
 0002:00000730 00000104H .CRT$XPXA               DATA
 0002:00000834 00000104H .CRT$XPZ                DATA
 0002:00000938 00000104H .CRT$XTA                DATA
 0002:00000a3c 00000104H .CRT$XTZ                DATA
 0002:00000b40 0000ecbcH .rdata                  DATA
 0002:0000f7fc 00000444H .rdata$r                DATA
 0002:0000fc40 00000128H .rdata$sxdata           DATA
 0002:0000fd68 0000019cH .rdata$zzzdbg           DATA
 0002:0000ff04 00000104H .rtc$IAA                DATA
 0002:00010008 00000104H .rtc$IZZ                DATA
 0002:0001010c 00000104H .rtc$TAA                DATA
 0002:00010210 00000108H .rtc$TZZ                DATA
 0002:00010318 00000ce8H .xdata$x                DATA
 0002:00011000 000001dfH .edata                  DATA
 0003:00000000 00001df0H .data                   DATA
 0003:00001df0 00000250H .data$r                 DATA
 0003:00002040 0001698cH .bss                    DATA
 0004:00000000 000001b4H .idata$5                DATA
 0004:000001b4 00000014H .idata$2                DATA
 0004:000001c8 00000014H .idata$3                DATA
 0004:000001dc 000001b4H .idata$4                DATA
 0004:00000390 000007a2H .idata$6                DATA
 0005:00000000 00000104H .00cfg                  DATA

  Address         Publics by Value              Rva+Base       Lib:Object

 0000:00000000       ___guard_fids_count        00000000     <absolute>
 0000:00000000       ___hybrid_code_map         00000000     <absolute>
 0000:00000000       ___guard_longjmp_count     00000000     <absolute>
 0000:00000000       __except_list              00000000     <absolute>
 0000:00000000       ___hybrid_auxiliary_iat    00000000     <absolute>
 0000:00000000       ___guard_iat_count         00000000     <absolute>
 0000:00000000       ___hybrid_code_map_count   00000000     <absolute>
 0000:00000000       ___dynamic_value_reloc_table 00000000     <absolute>
 0000:00000000       ___guard_iat_table         00000000     <absolute>
 0000:00000000       ___guard_longjmp_table     00000000     <absolute>
 0000:00000000       ___volatile_metadata       00000000     <absolute>
 0000:00000000       ___enclave_config          00000000     <absolute>
 0000:00000000       ___guard_fids_table        00000000     <absolute>
 0000:00000008       ___safe_se_handler_count   00000008     <absolute>
 0000:00000100       ___guard_flags             00000100     <absolute>
 0000:00000000       ___ImageBase               10000000     <linker-defined>
 0001:00006500       _MdlInitialize             10007500 f   homing.obj
 0001:00006510       _MdlInitializeSampleTimes  10007510 f   homing.obj
 0001:00006520       _MdlInitializeSizes        10007520 f   homing.obj
 0001:00006530       _MdlOutputs                10007530 f   homing.obj
 0001:00006540       _MdlStart                  10007540 f   homing.obj
 0001:00006720       _MdlTerminate              10007720 f   homing.obj
 0001:000067d0       _MdlUpdate                 100077d0 f   homing.obj
 0001:000068b0       _homing                    100078b0 f   homing.obj
 0001:00008c40       _rt_mxCreateCharMatrixFromStrings 10009c40 f   rt_matrx.obj
 0001:00008da0       _rt_mxCreateDoubleMatrix   10009da0 f   rt_matrx.obj
 0001:00008e00       _rt_mxCreateNumericArray   10009e00 f   rt_matrx.obj
 0001:00008e70       _rt_mxCreateString         10009e70 f   rt_matrx.obj
 0001:00008f00       _rt_mxDuplicateArray       10009f00 f   rt_matrx.obj
 0001:00008f60       _rt_mxGetDimensions        10009f60 f   rt_matrx.obj
 0001:00008fa0       _rt_mxGetEps               10009fa0 f   rt_matrx.obj
 0001:00008fb0       _rt_mxGetString            10009fb0 f   rt_matrx.obj
 0001:00009030       _rtPrintfNoOp              1000a030 f   rt_printf.obj
 0001:00009040       _homing_GetCAPIStaticMap   1000a040 f   homing_capi.obj
 0001:00009050       _homing_InitializeDataMapInfo 1000a050 f   homing_capi.obj
 0001:000090e0       _rtGetInf                  1000a0e0 f   rtGetInf.obj
 0001:00009110       _rtGetInfF                 1000a110 f   rtGetInf.obj
 0001:00009130       _rtGetMinusInf             1000a130 f   rtGetInf.obj
 0001:00009160       _rtGetMinusInfF            1000a160 f   rtGetInf.obj
 0001:00009180       _rtGetNaN                  1000a180 f   rtGetNaN.obj
 0001:000091b0       _rtGetNaNF                 1000a1b0 f   rtGetNaN.obj
 0001:000091d0       _rtIsInf                   1000a1d0 f   rt_nonfinite.obj
 0001:00009210       _rtIsInfF                  1000a210 f   rt_nonfinite.obj
 0001:00009250       _rtIsNaN                   1000a250 f   rt_nonfinite.obj
 0001:00009260       _rtIsNaNF                  1000a260 f   rt_nonfinite.obj
 0001:00009270       _rt_InitInfAndNaN          1000a270 f   rt_nonfinite.obj
 0001:000092d0       _rt_CleanUpForStateLogWithMMI 1000a2d0 f   rt_logging_mmi.obj
 0001:000093e0       _rt_FillStateSigInfoFromMMI 1000a3e0 f   rt_logging_mmi.obj
 0001:00009780       _rtwCAPI_CountSysRan       1000a780 f   rtw_modelmap_utils.obj
 0001:00009820       _rtwCAPI_EncodePath        1000a820 f   rtw_modelmap_utils.obj
 0001:00009930       _rtwCAPI_FillSysRan        1000a930 f   rtw_modelmap_utils.obj
 0001:00009a20       _rtwCAPI_FreeFullPaths     1000aa20 f   rtw_modelmap_utils.obj
 0001:00009ab0       _rtwCAPI_GetFullStateBlockPath 1000aab0 f   rtw_modelmap_utils.obj
 0001:00009c40       _rtwCAPI_GetNumContStateRecords 1000ac40 f   rtw_modelmap_utils.obj
 0001:00009d00       _rtwCAPI_GetNumSigLogRecords 1000ad00 f   rtw_modelmap_utils.obj
 0001:00009d50       _rtwCAPI_GetNumSigLogRecordsForRTWLogging 1000ad50 f   rtw_modelmap_utils.obj
 0001:00009df0       _rtwCAPI_GetNumStateRecords 1000adf0 f   rtw_modelmap_utils.obj
 0001:00009e40       _rtwCAPI_GetNumStateRecordsForRTWLogging 1000ae40 f   rtw_modelmap_utils.obj
 0001:00009ee0       _rtwCAPI_GetSigAddrFromMap 1000aee0 f   rtw_modelmap_utils.obj
 0001:00009fa0       _rtwCAPI_GetSigLogRecordInfo 1000afa0 f   rtw_modelmap_utils.obj
 0001:0000a3d0       _rtwCAPI_GetStateRecordInfo 1000b3d0 f   rtw_modelmap_utils.obj
 0001:0000a890       _rtwCAPI_GetStateWidth     1000b890 f   rtw_modelmap_utils.obj
 0001:0000a8f0       _rtwCAPI_HasStates         1000b8f0 f   rtw_modelmap_utils.obj
 0001:0000a950       _rtwCAPI_UpdateFullPaths   1000b950 f   rtw_modelmap_utils.obj
 0001:0000ab30       ___local_stdio_printf_options 1000bb30 f i rt_logging.obj
 0001:0000ab40       __vfprintf_l               1000bb40 f i rt_logging.obj
 0001:0000ab70       __vsnprintf_l              1000bb70 f i rt_logging.obj
 0001:0000abb0       __vsprintf_l               1000bbb0 f i rt_logging.obj
 0001:0000abf0       _fprintf                   1000bbf0 f i rt_logging.obj
 0001:0000b0f0       _printf                    1000c0f0 f i rt_logging.obj
 0001:0000b130       _rt_CreateLogVar           1000c130 f   rt_logging.obj
 0001:0000b1c0       _rt_CreateLogVarWithConvert 1000c1c0 f   rt_logging.obj
 0001:0000baf0       _rt_CreateStructLogVar     1000caf0 f   rt_logging.obj
 0001:0000c870       _rt_GetMxIdFromDTypeId     1000d870 f   rt_logging.obj
 0001:0000c8a0       _rt_GetMxIdFromDTypeIdForRSim 1000d8a0 f   rt_logging.obj
 0001:0000f430       _rt_StartDataLogging       10010430 f   rt_logging.obj
 0001:0000f8f0       _rt_StartDataLoggingWithStartTime 100108f0 f   rt_logging.obj
 0001:0000fd60       _rt_StopDataLogging        10010d60 f   rt_logging.obj
 0001:0000fd80       _rt_StopDataLoggingImpl    10010d80 f   rt_logging.obj
 0001:000101a0       _rt_UpdateLogVar           100111a0 f   rt_logging.obj
 0001:00011330       _rt_UpdateStructLogVar     10012330 f   rt_logging.obj
 0001:000113c0       _rt_UpdateTXXFYLogVars     100123c0 f   rt_logging.obj
 0001:000116f0       _rt_UpdateTXYLogVars       100126f0 f   rt_logging.obj
 0001:00011930       _sprintf                   10012930 f i rt_logging.obj
 0001:00011970       _DllMain@12                10012970 f   xpctarget.obj
 0001:00011980       _SLRTSetErrorStatus        10012980 f   xpctarget.obj
 0001:000119a0       _changeStepSize            100129a0 f   xpctarget.obj
 0001:000119f0       _getDLMVersion             100129f0 f   xpctarget.obj
 0001:00011a00       _getRefMdlPath             10012a00 f   xpctarget.obj
 0001:00011a80       _getRefMdlSignalNumber     10012a80 f   xpctarget.obj
 0001:00011b30       _getrlmdlinfo              10012b30 f   xpctarget.obj
 0001:00011d10       _homing_ChangeStepSize     10012d10 f   xpctarget.obj
 0001:00011d60       _updateDiscreteEvents      10012d60 f   xpctarget.obj
 0001:00011d70       _getNumRef                 10012d70 f   appmappingData.obj
 0001:00011d80       _vprintf                   10012d80 f i legacy_stdio.obj
 0001:00011dc0       _danipcim                  10012dc0 f   danipcim.obj
 0001:00012580       _dinipcim                  10013580 f   dinipcim.obj
 0001:00012940       _donipcim                  10013940 f   donipcim.obj
 0001:00012e50       _encnipcim                 10013e50 f   encnipcim.obj
 0001:00013510       _niMIdentify               10014510 f   xpcionim.obj
 0001:00013680       _niM_AISetup               10014680 f   xpcionim.obj
 0001:00013a90       _niM_AO_Setup              10014a90 f   xpcionim.obj
 0001:00013c20       _niM_Cont_Pulse_Train_Generation 10014c20 f   xpcionim.obj
 0001:00013d60       _niM_Counter_Reset_All     10014d60 f   xpcionim.obj
 0001:00013e10       _niM_CtrArm                10014e10 f   xpcionim.obj
 0001:00013e30       _niM_CtrDisarm             10014e30 f   xpcionim.obj
 0001:00013e50       _niM_CtrReadArm            10014e50 f   xpcionim.obj
 0001:00013e70       _niM_CtrReadDisarm         10014e70 f   xpcionim.obj
 0001:00013e90       _niM_PeriodConfigure       10014e90 f   xpcionim.obj
 0001:00014010       _niM_Private_Data          10015010 f   xpcionim.obj
 0001:000145f0       _niM_SetPFIFilter          100155f0 f   xpcionim.obj
 0001:00014670       _niM_SetPFI_DO             10015670 f   xpcionim.obj
 0001:000146b0       _niM_SetPFI_Select         100156b0 f   xpcionim.obj
 0001:00014730       _niM_aiConfigureChannel    10015730 f   xpcionim.obj
 0001:000147a0       _niM_aiGetScalingCoefficients 100157a0 f   xpcionim.obj
 0001:00014970       _niM_aiPolynomialScaler    10015970 f   xpcionim.obj
 0001:00014aa0       _niM_analogTriggerReset    10015aa0 f   xpcionim.obj
 0001:00014af0       _niM_aoConfigureDAC        10015af0 f   xpcionim.obj
 0001:00014b40       _niM_aoGetScalingCoefficients 10015b40 f   xpcionim.obj
 0001:00014bf0       _niM_aoLinearScaler        10015bf0 f   xpcionim.obj
 0001:00014c20       _niM_configureTimebase     10015c20 f   xpcionim.obj
 0001:00014c40       _niM_eepromReadMSeries     10015c40 f   xpcionim.obj
 0001:00014d10       _niM_pllReset              10015d10 f   xpcionim.obj
 0001:00014d40       _niM_resetCtr              10015d40 f   xpcionim.obj
 0001:00014d60       _niM_whichBank             10015d60 f   xpcionim.obj
 0001:00014da0       _niMconfig                 10015da0 f   xpcionim.obj
 0001:00014e40       _GetPCIDeviceFull          10015e40 f   xpcruntime:xpcimports.obj
 0001:00014e80       _ShowPCIDevice             10015e80 f   xpcruntime:xpcimports.obj
 0001:00015660       _xpcGetPciConfigAtSlot     10016660 f   xpcruntime:xpcimports.obj
 0001:00015970       _xpcInitProcs              10016970 f   xpcruntime:xpcimports.obj
 0001:00016cd0       _xpceuploadevent           10017cd0 f   xpcruntime:xpcimports.obj
 0001:00016ce0       __ftoui3                   10017ce0 f   LIBCMT:ftol3.obj
 0001:00016cef       __ftoul3                   10017cef f   LIBCMT:ftol3.obj
 0001:00016cfe       __ftol3                    10017cfe f   LIBCMT:ftol3.obj
 0001:00016d0b       __ftol3_NaN                10017d0b f   LIBCMT:ftol3.obj
 0001:00016d23       __ftol3_work               10017d23 f   LIBCMT:ftol3.obj
 0001:00016da9       __ftol3_common             10017da9 f   LIBCMT:ftol3.obj
 0001:00016e6b       __ftol3_arg_error          10017e6b f   LIBCMT:ftol3.obj
 0001:00016e7d       __ftol3_except             10017e7d f   LIBCMT:ftol3.obj
 0001:00016ec1       __dtoui3                   10017ec1 f   LIBCMT:ftol3.obj
 0001:00016ed0       __dtoul3                   10017ed0 f   LIBCMT:ftol3.obj
 0001:00016edf       __dtol3                    10017edf f   LIBCMT:ftol3.obj
 0001:00016eec       __dtol3_NaN                10017eec f   LIBCMT:ftol3.obj
 0001:00016f09       __dtol3_work               10017f09 f   LIBCMT:ftol3.obj
 0001:00016ff0       __ultod3                   10017ff0 f   LIBCMT:ftol3.obj
 0001:00017030       __ltod3                    10018030 f   LIBCMT:ftol3.obj
 0001:00017134       ___raise_securityfailure   10018134 f   LIBCMT:gs_report.obj
 0001:00017166       ___report_gsfailure        10018166 f   LIBCMT:gs_report.obj
 0001:0001729d       ___report_rangecheckfailure 1001829d f   LIBCMT:gs_report.obj
 0001:000172ac       ___report_securityfailure  100182ac f   LIBCMT:gs_report.obj
 0001:000173ad       ___report_securityfailureEx 100183ad f   LIBCMT:gs_report.obj
 0001:00017506       @__security_check_cookie@4 10018506 f   LIBCMT:secchk.obj
 0001:0001751b       ___isa_available_init      1001851b f   LIBCMT:cpu_disp.obj
 0001:00017afc       __CRT_INIT@12              10018afc f   LIBCMT:dll_dllmain.obj
 0001:00017b07       __DllMainCRTStartup@12     10018b07 f   LIBCMT:dll_dllmain.obj
 0001:00017b92       ___security_init_cookie    10018b92 f   LIBCMT:gs_support.obj
 0001:00017bef       ?__scrt_initialize_type_info@@YAXXZ 10018bef f   LIBCMT:tncleanup.obj
 0001:00017bfe       ?__scrt_uninitialize_type_info@@YAXXZ 10018bfe f   LIBCMT:tncleanup.obj
 0001:00017c0d       ___local_stdio_scanf_options 10018c0d f i LIBCMT:default_local_stdio_options.obj
 0001:00017c13       ___scrt_initialize_default_local_stdio_options 10018c13 f   LIBCMT:default_local_stdio_options.obj
 0001:00017c37       ??$__crt_fast_decode_pointer@PAP6AXXZ@@YAPAP6AXXZQAP6AXXZ@Z 10018c37 f i LIBCMT:utility.obj
 0001:00017c50       ??$__crt_fast_encode_pointer@PAP6AXXZ@@YAPAP6AXXZQAP6AXXZ@Z 10018c50 f i LIBCMT:utility.obj
 0001:00017c74       ?__crt_rotate_pointer_value@@YAIIH@Z 10018c74 f i LIBCMT:utility.obj
 0001:00017c84       ?configure_argv@__scrt_narrow_argv_policy@@SAHXZ 10018c84 f i LIBCMT:utility.obj
 0001:00017ce9       ?initialize_environment@__scrt_narrow_environment_policy@@SAHXZ 10018ce9 f i LIBCMT:utility.obj
 0001:00017d2f       _NtCurrentTeb              10018d2f f i LIBCMT:utility.obj
 0001:00017d36       ___scrt_acquire_startup_lock 10018d36 f   LIBCMT:utility.obj
 0001:00017d74       ___scrt_dllmain_after_initialize_c 10018d74 f   LIBCMT:utility.obj
 0001:00017da9       ___scrt_dllmain_before_initialize_c 10018da9 f   LIBCMT:utility.obj
 0001:00017dba       ___scrt_dllmain_crt_thread_attach 10018dba f   LIBCMT:utility.obj
 0001:00017de0       ___scrt_dllmain_crt_thread_detach 10018de0 f   LIBCMT:utility.obj
 0001:00017df0       ___scrt_dllmain_exception_filter 10018df0 f   LIBCMT:utility.obj
 0001:00017e31       ___scrt_dllmain_uninitialize_c 10018e31 f   LIBCMT:utility.obj
 0001:00017e5c       ___scrt_dllmain_uninitialize_critical 10018e5c f   LIBCMT:utility.obj
 0001:00017e6c       ___scrt_initialize_crt     10018e6c f   LIBCMT:utility.obj
 0001:00017eb3       ___scrt_initialize_onexit_tables 10018eb3 f   LIBCMT:utility.obj
 0001:00017f81       ___scrt_is_nonwritable_in_current_image 10018f81 f   LIBCMT:utility.obj
 0001:0001803a       ___scrt_release_startup_lock 1001903a f   LIBCMT:utility.obj
 0001:0001805e       ___scrt_uninitialize_crt   1001905e f   LIBCMT:utility.obj
 0001:00018090       __onexit                   10019090 f   LIBCMT:utility.obj
 0001:000180d9       _at_quick_exit             100190d9 f   LIBCMT:utility.obj
 0001:00018116       _atexit                    10019116 f   LIBCMT:utility.obj
 0001:00018130       ___scrt_get_dyn_tls_init_callback 10019130 f   LIBCMT:dyn_tls_init.obj
 0001:00018136       ___scrt_fastfail           10019136 f   LIBCMT:utility_desktop.obj
 0001:00018296       ___scrt_get_show_window_mode 10019296 f   LIBCMT:utility_desktop.obj
 0001:000182d3       ___scrt_initialize_mta     100192d3 f   LIBCMT:utility_desktop.obj
 0001:000182d8       ___scrt_initialize_winrt   100192d8 f   LIBCMT:utility_desktop.obj
 0001:000182db       ___scrt_is_managed_app     100192db f   LIBCMT:utility_desktop.obj
 0001:0001832e       ___scrt_set_unhandled_exception_filter 1001932e f   LIBCMT:utility_desktop.obj
 0001:0001833d       ___scrt_exe_initialize_mta 1001933d f   LIBCMT:utility_desktop.obj
 0001:0001833d       ___scrt_stub_for_initialize_mta 1001933d f   LIBCMT:utility_desktop.obj
 0001:00018340       ___scrt_unhandled_exception_filter@4 10019340 f   LIBCMT:utility_desktop.obj
 0001:00018391       __crt_debugger_hook        10019391 f   LIBCMT:utility_desktop.obj
 0001:0001839b       __RTC_Initialize           1001939b f   LIBCMT:initsect.obj
 0001:000183d2       __RTC_Terminate            100193d2 f   LIBCMT:initsect.obj
 0001:00018410       __SEH_prolog4              10019410 f   LIBCMT:sehprolg4.obj
 0001:00018456       __SEH_epilog4              10019456 f   LIBCMT:sehprolg4.obj
 0001:00018481       @_guard_check_icall_nop@4  10019481 f i LIBCMT:guard_support.obj
 0001:00018482       _ReadNoFence               10019482 f i LIBCMT:guard_support.obj
 0001:0001848e       _ReadPointerNoFence        1001948e f i LIBCMT:guard_support.obj
 0001:0001849a       __guard_icall_checks_enforced 1001949a f i LIBCMT:guard_support.obj
 0001:000184b0       __get_startup_argv_mode    100194b0 f   LIBCMT:argv_mode.obj
 0001:000184b4       ___scrt_is_ucrt_dll_in_use 100194b4 f   LIBCMT:ucrt_detection.obj
 0001:000184c3       _GetModuleHandleA@4        100194c3 f   kernel32:KERNEL32.dll
 0001:000184c9       _GetProcAddress@8          100194c9 f   kernel32:KERNEL32.dll
 0001:000184cf       _UnhandledExceptionFilter@4 100194cf f   kernel32:KERNEL32.dll
 0001:000184d5       _SetUnhandledExceptionFilter@4 100194d5 f   kernel32:KERNEL32.dll
 0001:000184db       _GetCurrentProcess@0       100194db f   kernel32:KERNEL32.dll
 0001:000184e1       _TerminateProcess@8        100194e1 f   kernel32:KERNEL32.dll
 0001:000184e7       _IsProcessorFeaturePresent@4 100194e7 f   kernel32:KERNEL32.dll
 0001:000184ed       _QueryPerformanceCounter@4 100194ed f   kernel32:KERNEL32.dll
 0001:000184f3       _GetCurrentProcessId@0     100194f3 f   kernel32:KERNEL32.dll
 0001:000184f9       _GetCurrentThreadId@0      100194f9 f   kernel32:KERNEL32.dll
 0001:000184ff       _GetSystemTimeAsFileTime@4 100194ff f   kernel32:KERNEL32.dll
 0001:00018505       _InitializeSListHead@4     10019505 f   kernel32:KERNEL32.dll
 0001:0001850b       _IsDebuggerPresent@0       1001950b f   kernel32:KERNEL32.dll
 0001:00018511       _GetStartupInfoW@4         10019511 f   kernel32:KERNEL32.dll
 0001:00018517       _GetModuleHandleW@4        10019517 f   kernel32:KERNEL32.dll
 0001:00018520       _memset                    10019520 f   libvcruntime:memset.obj
 0001:000186d0       _memcpy                    100196d0 f   libvcruntime:memcpy.obj
 0001:00018db0       _strchr                    10019db0 f   libvcruntime:strchr.obj
 0001:00018e1e       ___from_strstr_to_strchr   10019e1e     libvcruntime:strchr.obj
 0001:00018f30       _memmove                   10019f30 f   libvcruntime:memmove.obj
 0001:00019650       __except_handler4          1001a650 f   libvcruntime:chandler4.obj
 0001:0001980c       ??$?RD@__crt_internal_free_policy@@QBEXQBD@Z 1001a80c f i libvcruntime:std_type_info.obj
 0001:00019820       ??$?RX@__crt_internal_free_policy@@QBEXQBX@Z 1001a820 f i libvcruntime:std_type_info.obj
 0001:00019834       ??$__crt_interlocked_compare_exchange_pointer@$$CBDPAD$$T@@YAPBDPDSBDQAD$$T@Z 1001a834 f i libvcruntime:std_type_info.obj
 0001:0001984a       ??$__crt_interlocked_read_pointer@$$CBD@@YAPBDPDSBD@Z 1001a84a f i libvcruntime:std_type_info.obj
 0001:00019856       ??0?$__crt_unique_heap_ptr@DU__crt_internal_free_policy@@@@QAE@QAD@Z 1001a856 f i libvcruntime:std_type_info.obj
 0001:00019867       ??0?$__crt_unique_heap_ptr@XU__crt_internal_free_policy@@@@QAE@QAX@Z 1001a867 f i libvcruntime:std_type_info.obj
 0001:00019878       ??1?$__crt_unique_heap_ptr@DU__crt_internal_free_policy@@@@QAE@XZ 1001a878 f i libvcruntime:std_type_info.obj
 0001:0001988c       ??1?$__crt_unique_heap_ptr@XU__crt_internal_free_policy@@@@QAE@XZ 1001a88c f i libvcruntime:std_type_info.obj
 0001:000198ac       ??B?$__crt_unique_heap_ptr@DU__crt_internal_free_policy@@@@QBE_NXZ 1001a8ac f i libvcruntime:std_type_info.obj
 0001:000198b3       ??B?$__crt_unique_heap_ptr@XU__crt_internal_free_policy@@@@QBE_NXZ 1001a8b3 f i libvcruntime:std_type_info.obj
 0001:000198e2       ?__crt_interlocked_read_32@@YAHPDH@Z 1001a8e2 f i libvcruntime:std_type_info.obj
 0001:000198ee       ?detach@?$__crt_unique_heap_ptr@XU__crt_internal_free_policy@@@@QAEPAXXZ 1001a8ee f i libvcruntime:std_type_info.obj
 0001:000198f4       ?get@?$__crt_unique_heap_ptr@DU__crt_internal_free_policy@@@@QBEPADXZ 1001a8f4 f i libvcruntime:std_type_info.obj
 0001:000198f7       ?get@?$__crt_unique_heap_ptr@XU__crt_internal_free_policy@@@@QBEPAXXZ 1001a8f7 f i libvcruntime:std_type_info.obj
 0001:000198fa       ?is_valid@?$__crt_unique_heap_ptr@DU__crt_internal_free_policy@@@@QBE_NXZ 1001a8fa f i libvcruntime:std_type_info.obj
 0001:00019901       ?is_valid@?$__crt_unique_heap_ptr@XU__crt_internal_free_policy@@@@QBE_NXZ 1001a901 f i libvcruntime:std_type_info.obj
 0001:00019908       ?release@?$__crt_unique_heap_ptr@DU__crt_internal_free_policy@@@@QAEXXZ 1001a908 f i libvcruntime:std_type_info.obj
 0001:0001991c       ?release@?$__crt_unique_heap_ptr@XU__crt_internal_free_policy@@@@QAEXXZ 1001a91c f i libvcruntime:std_type_info.obj
 0001:00019930       ___std_type_info_compare   1001a930 f   libvcruntime:std_type_info.obj
 0001:0001997b       ___std_type_info_destroy_list 1001a97b f   libvcruntime:std_type_info.obj
 0001:000199a6       ___std_type_info_hash      1001a9a6 f   libvcruntime:std_type_info.obj
 0001:000199d5       ___std_type_info_name      1001a9d5 f   libvcruntime:std_type_info.obj
 0001:00019ac8       ___vcrt_initialize         1001aac8 f   libvcruntime:initialization.obj
 0001:00019afb       ___vcrt_thread_attach      1001aafb f   libvcruntime:initialization.obj
 0001:00019b08       ___vcrt_thread_detach      1001ab08 f   libvcruntime:initialization.obj
 0001:00019b15       ___vcrt_uninitialize       1001ab15 f   libvcruntime:initialization.obj
 0001:00019b3b       ___vcrt_uninitialize_critical 1001ab3b f   libvcruntime:initialization.obj
 0001:00019b50       __local_unwind4            1001ab50 f   libvcruntime:exsup4.obj
 0001:00019c28       __seh_longjmp_unwind4@4    1001ac28 f   libvcruntime:exsup4.obj
 0001:00019c50       @_EH4_CallFilterFunc@8     1001ac50 f   libvcruntime:exsup4.obj
 0001:00019c68       @_EH4_TransferToHandler@8  1001ac68 f   libvcruntime:exsup4.obj
 0001:00019c84       @_EH4_GlobalUnwind2@8      1001ac84 f   libvcruntime:exsup4.obj
 0001:00019ca0       @_EH4_LocalUnwind@16       1001aca0 f   libvcruntime:exsup4.obj
 0001:00019d1d       ___except_validate_context_record 1001ad1d f   libvcruntime:jbcxrval.obj
 0001:00019d59       ___except_validate_jump_buffer 1001ad59 f   libvcruntime:jbcxrval.obj
 0001:00019d91       ___except_validate_jump_buffer_common 1001ad91 f i libvcruntime:jbcxrval.obj
 0001:00019dd8       ??0Block@_HeapManager@@QAE@XZ 1001add8 f i libvcruntime:undname.obj
 0001:00019dde       ??0DName@@QAE@AAPBDD@Z     1001adde f   libvcruntime:undname.obj
 0001:00019ebc       ??0DName@@QAE@ABV0@@Z      1001aebc f i libvcruntime:undname.obj
 0001:00019ed7       ??0DName@@QAE@D@Z          1001aed7 f   libvcruntime:undname.obj
 0001:00019f05       ??0DName@@QAE@PAV0@@Z      1001af05 f   libvcruntime:undname.obj
 0001:00019f5f       ??0DName@@QAE@PBD@Z        1001af5f f   libvcruntime:undname.obj
 0001:00019f9e       ??0DName@@QAE@W4DNameStatus@@@Z 1001af9e f   libvcruntime:undname.obj
 0001:00019fee       ??0DName@@QAE@XZ           1001afee f i libvcruntime:undname.obj
 0001:00019ffa       ??0DName@@QAE@_J@Z         1001affa f   libvcruntime:undname.obj
 0001:0001a0a9       ??0DName@@QAE@_K@Z         1001b0a9 f   libvcruntime:undname.obj
 0001:0001a128       ??0DNameNode@@IAE@XZ       1001b128 f i libvcruntime:undname.obj
 0001:0001a133       ??0Replicator@@QAE@XZ      1001b133 f i libvcruntime:undname.obj
 0001:0001a144       ??0UnDecorator@@QAE@PBDP6APADJ@ZK@Z 1001b144 f i libvcruntime:undname.obj
 0001:0001a1a3       ??0charNode@@QAE@D@Z       1001b1a3 f i libvcruntime:undname.obj
 0001:0001a1bd       ??0pDNameNode@@QAE@PAVDName@@@Z 1001b1bd f   libvcruntime:undname.obj
 0001:0001a1ef       ??0pairNode@@QAE@PBVDNameNode@@0@Z 1001b1ef f i libvcruntime:undname.obj
 0001:0001a215       ??0pcharNode@@QAE@PBDH@Z   1001b215 f   libvcruntime:undname.obj
 0001:0001a28b       ??2@YAPAXIAAV_HeapManager@@H@Z 1001b28b f i libvcruntime:undname.obj
 0001:0001a2a5       ??4DName@@QAEAAV0@ABV0@@Z  1001b2a5 f   libvcruntime:undname.obj
 0001:0001a2c0       ??4DName@@QAEAAV0@D@Z      1001b2c0 f i libvcruntime:undname.obj
 0001:0001a2ee       ??4DName@@QAEAAV0@PAV0@@Z  1001b2ee f   libvcruntime:undname.obj
 0001:0001a340       ??4DName@@QAEAAV0@PBD@Z    1001b340 f   libvcruntime:undname.obj
 0001:0001a375       ??4DName@@QAEAAV0@W4DNameStatus@@@Z 1001b375 f   libvcruntime:undname.obj
 0001:0001a3b3       ??AReplicator@@QBE?AVDName@@H@Z 1001b3b3 f   libvcruntime:undname.obj
 0001:0001a40a       ??H@YA?AVDName@@DABV0@@Z   1001b40a f i libvcruntime:undname.obj
 0001:0001a434       ??H@YA?AVDName@@PBDABV0@@Z 1001b434 f i libvcruntime:undname.obj
 0001:0001a45e       ??H@YA?AVDName@@W4DNameStatus@@ABV0@@Z 1001b45e f i libvcruntime:undname.obj
 0001:0001a488       ??HDName@@QBE?AV0@ABV0@@Z  1001b488 f   libvcruntime:undname.obj
 0001:0001a4b2       ??HDName@@QBE?AV0@D@Z      1001b4b2 f   libvcruntime:undname.obj
 0001:0001a4dc       ??HDName@@QBE?AV0@PAV0@@Z  1001b4dc f   libvcruntime:undname.obj
 0001:0001a506       ??HDName@@QBE?AV0@PBD@Z    1001b506 f   libvcruntime:undname.obj
 0001:0001a530       ??HDName@@QBE?AV0@W4DNameStatus@@@Z 1001b530 f   libvcruntime:undname.obj
 0001:0001a55a       ??YDName@@QAEAAV0@ABV0@@Z  1001b55a f   libvcruntime:undname.obj
 0001:0001a5ab       ??YDName@@QAEAAV0@D@Z      1001b5ab f   libvcruntime:undname.obj
 0001:0001a60f       ??YDName@@QAEAAV0@PAV0@@Z  1001b60f f   libvcruntime:undname.obj
 0001:0001a68d       ??YDName@@QAEAAV0@PBD@Z    1001b68d f   libvcruntime:undname.obj
 0001:0001a706       ??YDName@@QAEAAV0@W4DNameStatus@@@Z 1001b706 f   libvcruntime:undname.obj
 0001:0001a756       ??YReplicator@@QAEAAV0@ABVDName@@@Z 1001b756 f   libvcruntime:undname.obj
 0001:0001a7b2       ??_5DName@@QAEAAV0@ABV0@@Z 1001b7b2 f   libvcruntime:undname.obj
 0001:0001a7d5       ?Constructor@_HeapManager@@QAEXP6APAXI@ZP6AXPAX@Z@Z 1001b7d5 f i libvcruntime:undname.obj
 0001:0001a7f9       ?Destructor@_HeapManager@@QAEXXZ 1001b7f9 f i libvcruntime:undname.obj
 0001:0001a83f       ?UScore@UnDecorator@@SAPBDW4Tokens@@@Z 1001b83f f   libvcruntime:undname.obj
 0001:0001a865       ?append@DName@@AAEXPBVDNameNode@@@Z 1001b865 f   libvcruntime:undname.obj
 0001:0001a8bc       ?composeDeclaration@UnDecorator@@CA?AVDName@@ABV2@@Z 1001b8bc f i libvcruntime:undname.obj
 0001:0001b8d0       ?doAccessSpecifiers@UnDecorator@@SAHXZ 1001c8d0 f i libvcruntime:undname.obj
 0001:0001b8e1       ?doAllocationLanguage@UnDecorator@@SAHXZ 1001c8e1 f i libvcruntime:undname.obj
 0001:0001b8f2       ?doAllocationModel@UnDecorator@@SAHXZ 1001c8f2 f i libvcruntime:undname.obj
 0001:0001b903       ?doEcsu@UnDecorator@@SAHXZ 1001c903 f i libvcruntime:undname.obj
 0001:0001b914       ?doEllipsis@UnDecorator@@SAHXZ 1001c914 f i libvcruntime:undname.obj
 0001:0001b925       ?doFunctionReturns@UnDecorator@@SAHXZ 1001c925 f i libvcruntime:undname.obj
 0001:0001b936       ?doMSKeywords@UnDecorator@@SAHXZ 1001c936 f i libvcruntime:undname.obj
 0001:0001b946       ?doMemberTypes@UnDecorator@@SAHXZ 1001c946 f i libvcruntime:undname.obj
 0001:0001b957       ?doNameOnly@UnDecorator@@SAHXZ 1001c957 f i libvcruntime:undname.obj
 0001:0001b964       ?doNoIdentCharCheck@UnDecorator@@SAHXZ 1001c964 f i libvcruntime:undname.obj
 0001:0001b971       ?doPchar@DName@@AAEXPBDH@Z 1001c971 f   libvcruntime:undname.obj
 0001:0001ba18       ?doPtr64@UnDecorator@@SAHXZ 1001ca18 f i libvcruntime:undname.obj
 0001:0001ba29       ?doRestrictionSpec@UnDecorator@@SAHXZ 1001ca29 f i libvcruntime:undname.obj
 0001:0001ba3a       ?doThisTypes@UnDecorator@@SAHXZ 1001ca3a f i libvcruntime:undname.obj
 0001:0001ba50       ?doThrowTypes@UnDecorator@@SAHXZ 1001ca50 f i libvcruntime:undname.obj
 0001:0001ba61       ?doTypeOnly@UnDecorator@@SAHXZ 1001ca61 f i libvcruntime:undname.obj
 0001:0001ba6e       ?doUnderScore@UnDecorator@@SAHXZ 1001ca6e f i libvcruntime:undname.obj
 0001:0001ba7b       ?getArgumentList@UnDecorator@@CA?AVDName@@XZ 1001ca7b f   libvcruntime:undname.obj
 0001:0001bbae       ?getArgumentTypes@UnDecorator@@CA?AVDName@@XZ 1001cbae f   libvcruntime:undname.obj
 0001:0001bcaa       ?getArrayType@UnDecorator@@CA?AVDName@@ABV2@@Z 1001ccaa f i libvcruntime:undname.obj
 0001:0001bec7       ?getBasedType@UnDecorator@@CA?AVDName@@XZ 1001cec7 f   libvcruntime:undname.obj
 0001:0001bf85       ?getBasicDataType@UnDecorator@@CA?AVDName@@ABV2@@Z 1001cf85 f   libvcruntime:undname.obj
 0001:0001c45b       ?getCHPEName@UnDecorator@@QAEPADPADH@Z 1001d45b f i libvcruntime:undname.obj
 0001:0001c571       ?getCallIndex@UnDecorator@@CA?AVDName@@XZ 1001d571 f i libvcruntime:undname.obj
 0001:0001c58a       ?getCallingConvention@UnDecorator@@CA?AVDName@@XZ 1001d58a f   libvcruntime:undname.obj
 0001:0001c691       ?getDataIndirectType@UnDecorator@@CA?AVDName@@ABV2@PBD0H@Z 1001d691 f   libvcruntime:undname.obj
 0001:0001cdf5       ?getDataIndirectType@UnDecorator@@CA?AVDName@@XZ 1001ddf5 f i libvcruntime:undname.obj
 0001:0001ce33       ?getDataType@UnDecorator@@CA?AVDName@@PAV2@@Z 1001de33 f   libvcruntime:undname.obj
 0001:0001cf29       ?getDecoratedName@UnDecorator@@CA?AVDName@@XZ 1001df29 f   libvcruntime:undname.obj
 0001:0001d1fb       ?getDimension@UnDecorator@@CA?AVDName@@_N@Z 1001e1fb f   libvcruntime:undname.obj
 0001:0001d361       ?getDispatchTarget@UnDecorator@@CA?AVDName@@XZ 1001e361 f   libvcruntime:undname.obj
 0001:0001d3ca       ?getDisplacement@UnDecorator@@CA?AVDName@@XZ 1001e3ca f i libvcruntime:undname.obj
 0001:0001d3e3       ?getECSUDataType@UnDecorator@@CA?AVDName@@XZ 1001e3e3 f   libvcruntime:undname.obj
 0001:0001d541       ?getECSUName@UnDecorator@@CA?AVDName@@XZ 1001e541 f i libvcruntime:undname.obj
 0001:0001d556       ?getEnumType@UnDecorator@@CA?AVDName@@XZ 1001e556 f i libvcruntime:undname.obj
 0001:0001d682       ?getExtendedDataIndirectType@UnDecorator@@CA?AVDName@@AAPBDAA_NH@Z 1001e682 f   libvcruntime:undname.obj
 0001:0001d8a6       ?getExternalDataType@UnDecorator@@CA?AVDName@@ABV2@@Z 1001e8a6 f i libvcruntime:undname.obj
 0001:0001d926       ?getFunctionIndirectType@UnDecorator@@CA?AVDName@@ABV2@@Z 1001e926 f   libvcruntime:undname.obj
 0001:0001ddf4       ?getGuardNumber@UnDecorator@@CA?AVDName@@XZ 1001edf4 f i libvcruntime:undname.obj
 0001:0001de0d       ?getLastChar@DName@@QBEDXZ 1001ee0d f i libvcruntime:undname.obj
 0001:0001de35       ?getLastChar@DNameStatusNode@@UBEDXZ 1001ee35 f i libvcruntime:undname.obj
 0001:0001de44       ?getLastChar@charNode@@UBEDXZ 1001ee44 f i libvcruntime:undname.obj
 0001:0001de48       ?getLastChar@pDNameNode@@UBEDXZ 1001ee48 f i libvcruntime:undname.obj
 0001:0001de59       ?getLastChar@pairNode@@UBEDXZ 1001ee59 f i libvcruntime:undname.obj
 0001:0001de9b       ?getLastChar@pcharNode@@UBEDXZ 1001ee9b f i libvcruntime:undname.obj
 0001:0001deb1       ?getLexicalFrame@UnDecorator@@CA?AVDName@@XZ 1001eeb1 f i libvcruntime:undname.obj
 0001:0001deff       ?getMemory@_HeapManager@@QAEPAXIH@Z 1001eeff f   libvcruntime:undname.obj
 0001:0001dfa7       ?getNoexcept@UnDecorator@@CA?AVDName@@XZ 1001efa7 f   libvcruntime:undname.obj
 0001:0001dffd       ?getNumberOfDimensions@UnDecorator@@CAHXZ 1001effd f   libvcruntime:undname.obj
 0001:0001e076       ?getOperatorName@UnDecorator@@CA?AVDName@@_NPA_N@Z 1001f076 f i libvcruntime:undname.obj
 0001:0001e864       ?getPointerType@UnDecorator@@CA?AVDName@@ABV2@0@Z 1001f864 f i libvcruntime:undname.obj
 0001:0001e889       ?getPointerTypeArray@UnDecorator@@CA?AVDName@@ABV2@0@Z 1001f889 f i libvcruntime:undname.obj
 0001:0001e8ae       ?getPrimaryDataType@UnDecorator@@CA?AVDName@@ABV2@@Z 1001f8ae f   libvcruntime:undname.obj
 0001:0001eb0b       ?getPtrRefDataType@UnDecorator@@CA?AVDName@@ABV2@H@Z 1001fb0b f   libvcruntime:undname.obj
 0001:0001ec7e       ?getPtrRefType@UnDecorator@@CA?AVDName@@ABV2@0PBD@Z 1001fc7e f   libvcruntime:undname.obj
 0001:0001edb6       ?getReferenceType@UnDecorator@@CA?AVDName@@ABV2@0PBD@Z 1001fdb6 f i libvcruntime:undname.obj
 0001:0001edd9       ?getRestrictionSpec@UnDecorator@@CA?AVDName@@XZ 1001fdd9 f   libvcruntime:undname.obj
 0001:0001ef10       ?getReturnType@UnDecorator@@CA?AVDName@@PAV2@@Z 1001ff10 f   libvcruntime:undname.obj
 0001:0001ef4a       ?getScope@UnDecorator@@CA?AVDName@@XZ 1001ff4a f   libvcruntime:undname.obj
 0001:0001f3c3       ?getScopedName@UnDecorator@@CA?AVDName@@XZ 100203c3 f   libvcruntime:undname.obj
 0001:0001f4cc       ?getSignedDimension@UnDecorator@@CA?AVDName@@XZ 100204cc f   libvcruntime:undname.obj
 0001:0001f531       ?getStorageConvention@UnDecorator@@CA?AVDName@@XZ 10020531 f i libvcruntime:undname.obj
 0001:0001f546       ?getString@DName@@QBEPADPAD0@Z 10020546 f i libvcruntime:undname.obj
 0001:0001f57e       ?getString@DName@@QBEPADPADH@Z 1002057e f i libvcruntime:undname.obj
 0001:0001f5e9       ?getString@DNameStatusNode@@UBEPADPAD0@Z 100205e9 f i libvcruntime:undname.obj
 0001:0001f619       ?getString@charNode@@UBEPADPAD0@Z 10020619 f i libvcruntime:undname.obj
 0001:0001f633       ?getString@pDNameNode@@UBEPADPAD0@Z 10020633 f i libvcruntime:undname.obj
 0001:0001f64f       ?getString@pairNode@@UBEPADPAD0@Z 1002064f f i libvcruntime:undname.obj
 0001:0001f6a6       ?getString@pcharNode@@UBEPADPAD0@Z 100206a6 f i libvcruntime:undname.obj
 0001:0001f6c7       ?getStringEncoding@UnDecorator@@CA?AVDName@@PBDH@Z 100206c7 f   libvcruntime:undname.obj
 0001:0001f7a3       ?getStringHelper@@YAPADPADPBD1H@Z 100207a3 f i libvcruntime:undname.obj
 0001:0001f7e7       ?getSymbolName@UnDecorator@@CA?AVDName@@XZ 100207e7 f i libvcruntime:undname.obj
 0001:0001f841       ?getTemplateArgumentList@UnDecorator@@CA?AVDName@@XZ 10020841 f   libvcruntime:undname.obj
 0001:0001fb85       ?getTemplateConstant@UnDecorator@@CA?AVDName@@XZ 10020b85 f   libvcruntime:undname.obj
 0001:0001ff83       ?getTemplateName@UnDecorator@@CA?AVDName@@_N@Z 10020f83 f   libvcruntime:undname.obj
 0001:0002013d       ?getThisType@UnDecorator@@CA?AVDName@@XZ 1002113d f i libvcruntime:undname.obj
 0001:0002017c       ?getThrowTypes@UnDecorator@@CA?AVDName@@XZ 1002117c f   libvcruntime:undname.obj
 0001:000201a7       ?getTypeEncoding@UnDecorator@@CAHXZ 100211a7 f i libvcruntime:undname.obj
 0001:00020599       ?getUndecoratedName@UnDecorator@@QAEPADPADH@Z 10021599 f i libvcruntime:undname.obj
 0001:0002068e       ?getVCallThunkType@UnDecorator@@CA?AVDName@@XZ 1002168e f i libvcruntime:undname.obj
 0001:000206e6       ?getVbTableType@UnDecorator@@CA?AVDName@@ABV2@@Z 100216e6 f i libvcruntime:undname.obj
 0001:00020700       ?getVdispMapType@UnDecorator@@CA?AVDName@@ABV2@@Z 10021700 f i libvcruntime:undname.obj
 0001:00020769       ?getVfTableType@UnDecorator@@CA?AVDName@@ABV2@@Z 10021769 f i libvcruntime:undname.obj
 0001:00020924       ?getZName@UnDecorator@@CA?AVDName@@_N0@Z 10021924 f   libvcruntime:undname.obj
 0001:00020ba2       ?haveTemplateParameters@UnDecorator@@SAHXZ 10021ba2 f i libvcruntime:undname.obj
 0001:00020baf       ?isArray@DName@@QBEHXZ     10021baf f i libvcruntime:undname.obj
 0001:00020bbb       ?isComArray@DName@@QBEHXZ  10021bbb f i libvcruntime:undname.obj
 0001:00020bc7       ?isEmpty@DName@@QBEHXZ     10021bc7 f i libvcruntime:undname.obj
 0001:00020bd1       ?isFull@Replicator@@QBEHXZ 10021bd1 f i libvcruntime:undname.obj
 0001:00020bdc       ?isNoTE@DName@@QBEHXZ      10021bdc f i libvcruntime:undname.obj
 0001:00020be8       ?isPinPtr@DName@@QBEHXZ    10021be8 f i libvcruntime:undname.obj
 0001:00020bf4       ?isPtrRef@DName@@QBEHXZ    10021bf4 f i libvcruntime:undname.obj
 0001:00020c00       ?isUDC@DName@@QBEHXZ       10021c00 f i libvcruntime:undname.obj
 0001:00020c15       ?isUDTThunk@DName@@QBEHXZ  10021c15 f i libvcruntime:undname.obj
 0001:00020c2a       ?isVCallThunk@DName@@QBEHXZ 10021c2a f i libvcruntime:undname.obj
 0001:00020c36       ?isValid@DName@@QBEHXZ     10021c36 f i libvcruntime:undname.obj
 0001:00020c42       ?length@DName@@QBEHXZ      10021c42 f i libvcruntime:undname.obj
 0001:00020c68       ?length@DNameStatusNode@@UBEHXZ 10021c68 f i libvcruntime:undname.obj
 0001:00020c6c       ?length@charNode@@UBEHXZ   10021c6c f i libvcruntime:undname.obj
 0001:00020c70       ?length@pDNameNode@@UBEHXZ 10021c70 f i libvcruntime:undname.obj
 0001:00020c81       ?length@pairNode@@UBEHXZ   10021c81 f i libvcruntime:undname.obj
 0001:00020cd8       ?length@pcharNode@@UBEHXZ  10021cd8 f i libvcruntime:undname.obj
 0001:00020cdc       ?make@DNameStatusNode@@SAPBV1@W4DNameStatus@@@Z 10021cdc f i libvcruntime:undname.obj
 0001:00020cff       ?parseDecoratedName@UnDecorator@@CA?AVDName@@XZ 10021cff f   libvcruntime:undname.obj
 0001:00020e28       ?setIsArray@DName@@QAEXXZ  10021e28 f i libvcruntime:undname.obj
 0001:00020e32       ?setIsComArray@DName@@QAEXXZ 10021e32 f i libvcruntime:undname.obj
 0001:00020e3c       ?setIsNoTE@DName@@QAEXXZ   10021e3c f i libvcruntime:undname.obj
 0001:00020e46       ?setIsPinPtr@DName@@QAEXXZ 10021e46 f i libvcruntime:undname.obj
 0001:00020e50       ?setIsUDC@DName@@QAEXXZ    10021e50 f i libvcruntime:undname.obj
 0001:00020e60       ?setIsVCallThunk@DName@@QAEXXZ 10021e60 f i libvcruntime:undname.obj
 0001:00020e6a       ?setPtrRef@DName@@QAEAAV1@XZ 10021e6a f i libvcruntime:undname.obj
 0001:00020e76       ?status@DName@@QBE?AW4DNameStatus@@XZ 10021e76 f i libvcruntime:undname.obj
 0001:00020efb       ___unDName                 10021efb f   libvcruntime:undname.obj
 0001:00020f26       ___unDNameEx               10021f26 f   libvcruntime:undname.obj
 0001:00020fec       __vsprintf_s_l             10021fec f i libvcruntime:undname.obj
 0001:00021024       _sprintf_s                 10022024 f i libvcruntime:undname.obj
 0001:00021047       _unDNameGenerateCHPE       10022047 f   libvcruntime:undname.obj
 0001:000210ba       ??$?RU__vcrt_ptd@@@__crt_internal_free_policy@@QBEXQBU__vcrt_ptd@@@Z 100220ba f i libvcruntime:per_thread_data.obj
 0001:000210ce       ??0?$__crt_unique_heap_ptr@U__vcrt_ptd@@U__crt_internal_free_policy@@@@QAE@QAU__vcrt_ptd@@@Z 100220ce f i libvcruntime:per_thread_data.obj
 0001:000210f1       ??1?$__crt_unique_heap_ptr@U__vcrt_ptd@@U__crt_internal_free_policy@@@@QAE@XZ 100220f1 f i libvcruntime:per_thread_data.obj
 0001:00021110       ??B?$__crt_unique_heap_ptr@U__vcrt_ptd@@U__crt_internal_free_policy@@@@QBE_NXZ 10022110 f i libvcruntime:per_thread_data.obj
 0001:00021117       ?detach@?$__crt_unique_heap_ptr@U__vcrt_ptd@@U__crt_internal_free_policy@@@@QAEPAU__vcrt_ptd@@XZ 10022117 f i libvcruntime:per_thread_data.obj
 0001:0002111d       ?get@?$__crt_unique_heap_ptr@U__vcrt_ptd@@U__crt_internal_free_policy@@@@QBEPAU__vcrt_ptd@@XZ 1002211d f i libvcruntime:per_thread_data.obj
 0001:00021120       ?is_valid@?$__crt_unique_heap_ptr@U__vcrt_ptd@@U__crt_internal_free_policy@@@@QBE_NXZ 10022120 f i libvcruntime:per_thread_data.obj
 0001:00021127       ?release@?$__crt_unique_heap_ptr@U__vcrt_ptd@@U__crt_internal_free_policy@@@@QAEXXZ 10022127 f i libvcruntime:per_thread_data.obj
 0001:0002115b       ___vcrt_freefls@4          1002215b f   libvcruntime:per_thread_data.obj
 0001:0002117e       ___vcrt_freeptd            1002217e f   libvcruntime:per_thread_data.obj
 0001:000211c1       ___vcrt_getptd             100221c1 f   libvcruntime:per_thread_data.obj
 0001:000211d2       ___vcrt_getptd_noexit      100221d2 f   libvcruntime:per_thread_data.obj
 0001:00021288       ___vcrt_getptd_noinit      10022288 f   libvcruntime:per_thread_data.obj
 0001:000212cc       ___vcrt_initialize_ptd     100222cc f   libvcruntime:per_thread_data.obj
 0001:0002130b       ___vcrt_uninitialize_ptd   1002230b f   libvcruntime:per_thread_data.obj
 0001:0002132c       ___vcrt_initialize_locks   1002232c f   libvcruntime:locks.obj
 0001:00021377       ___vcrt_lock               10022377 f   libvcruntime:locks.obj
 0001:00021391       ___vcrt_uninitialize_locks 10022391 f   libvcruntime:locks.obj
 0001:000213cb       ___vcrt_unlock             100223cb f   libvcruntime:locks.obj
 0001:000213e5       ??$?BX@__crt_fast_encoded_nullptr_t@@QBEPAXXZ 100223e5 f i libvcruntime:winapi_downlevel.obj
 0001:000213eb       ??$__crt_fast_decode_pointer@PAX@@YAPAXQAX@Z 100223eb f i libvcruntime:winapi_downlevel.obj
 0001:00021404       ??$__crt_fast_encode_pointer@PAX@@YAPAXQAX@Z 10022404 f i libvcruntime:winapi_downlevel.obj
 0001:00021428       ??$__crt_interlocked_exchange_pointer@UHINSTANCE__@@PAU1@@@YAPAUHINSTANCE__@@PDSAU0@QAU0@@Z 10022428 f i libvcruntime:winapi_downlevel.obj
 0001:00021438       ??$__crt_interlocked_exchange_pointer@UHINSTANCE__@@PAX@@YAPAUHINSTANCE__@@PDSAU0@QAX@Z 10022438 f i libvcruntime:winapi_downlevel.obj
 0001:00021448       ??$__crt_interlocked_exchange_pointer@XPAX@@YAPAXPDSAXQAX@Z 10022448 f i libvcruntime:winapi_downlevel.obj
 0001:00021458       ??$__crt_interlocked_read_pointer@UHINSTANCE__@@@@YAPAUHINSTANCE__@@PDSAU0@@Z 10022458 f i libvcruntime:winapi_downlevel.obj
 0001:00021464       ??$__crt_interlocked_read_pointer@X@@YAPAXPDSAX@Z 10022464 f i libvcruntime:winapi_downlevel.obj
 0001:00021470       ?__crt_fast_encode_pointer@@YA?AU__crt_fast_encoded_nullptr_t@@$$T@Z 10022470 f i libvcruntime:winapi_downlevel.obj
 0001:000217a3       ___vcrt_FlsAlloc           100227a3 f   libvcruntime:winapi_downlevel.obj
 0001:000217ec       ___vcrt_FlsFree            100227ec f   libvcruntime:winapi_downlevel.obj
 0001:00021835       ___vcrt_FlsGetValue        10022835 f   libvcruntime:winapi_downlevel.obj
 0001:0002187e       ___vcrt_FlsSetValue        1002287e f   libvcruntime:winapi_downlevel.obj
 0001:000218cb       ___vcrt_InitializeCriticalSectionEx 100228cb f   libvcruntime:winapi_downlevel.obj
 0001:00021923       ___vcrt_initialize_winapi_thunks 10022923 f   libvcruntime:winapi_downlevel.obj
 0001:00021956       ___vcrt_uninitialize_winapi_thunks 10022956 f   libvcruntime:winapi_downlevel.obj
 0001:00021994       ??$?B$$A6AXXZ@__crt_fast_encoded_nullptr_t@@QBEP6AXXZXZ 10022994 f i libvcruntime:purevirt_data.obj
 0001:0002199a       ??$__crt_fast_encode_pointer@P6AXXZ@@YAP6AXXZQ6AXXZ@Z 1002299a f i libvcruntime:purevirt_data.obj
 0001:000219be       ___vcrt_initialize_pure_virtual_call_handler 100229be f   libvcruntime:purevirt_data.obj
 0001:000219d0       __global_unwind2           100229d0 f   libvcruntime:exsup.obj
 0001:00021a36       __local_unwind2            10022a36 f   libvcruntime:exsup.obj
 0001:00021aba       __abnormal_termination     10022aba f   libvcruntime:exsup.obj
 0001:00021ae0       __NLG_Notify1              10022ae0 f   libvcruntime:exsup.obj
 0001:00021aec       __NLG_Notify               10022aec f   libvcruntime:exsup.obj
 0001:00021b03       __NLG_Dispatch2            10022b03     libvcruntime:exsup.obj
 0001:00021b03       __NLG_Dispatch             10022b03     libvcruntime:exsup.obj
 0001:00021b0b       __NLG_Call                 10022b0b f   libvcruntime:exsup.obj
 0001:00021b0d       __NLG_Return2              10022b0d     libvcruntime:exsup.obj
 0001:00021b5d       ??$__crt_fast_decode_pointer@P6AXXZ@@YAP6AXXZQ6AXXZ@Z 10022b5d f i libvcruntime:purevirt.obj
 0001:00021b76       ??$__crt_interlocked_exchange_pointer@$$A6AXXZP6AXXZ@@YAP6AXXZPDS6AXXZQ6AXXZ@Z 10022b76 f i libvcruntime:purevirt.obj
 0001:00021b86       ??$__crt_interlocked_read_pointer@$$A6AXXZ@@YAP6AXXZPDS6AXXZ@Z 10022b86 f i libvcruntime:purevirt.obj
 0001:00021b92       __get_purecall_handler     10022b92 f   libvcruntime:purevirt.obj
 0001:00021bac       __purecall                 10022bac f   libvcruntime:purevirt.obj
 0001:00021bcf       __set_purecall_handler     10022bcf f   libvcruntime:purevirt.obj
 0001:00021bfd       ??$?0AAViterator@TryBlockMap@__FrameHandler3@@AAV012@$0A@@?$pair@Viterator@TryBlockMap@__FrameHandler3@@V123@@std@@QAE@AAViterator@TryBlockMap@__FrameHandler3@@0@Z 10022bfd f i libvcruntime:trnsctrl.obj
 0001:00021c2a       ??$forward@AAViterator@TryBlockMap@__FrameHandler3@@@std@@YAAAViterator@TryBlockMap@__FrameHandler3@@AAV123@@Z 10022c2a f i libvcruntime:trnsctrl.obj
 0001:00021c34       ??0iterator@TryBlockMap@__FrameHandler3@@QAE@AAV12@I@Z 10022c34 f i libvcruntime:trnsctrl.obj
 0001:00021c4d       ?GetRangeOfTrysToCheck@__FrameHandler3@@SA?AU?$pair@Viterator@TryBlockMap@__FrameHandler3@@V123@@std@@AAVTryBlockMap@1@HH@Z 10022c4d f   libvcruntime:trnsctrl.obj
 0001:00021cef       ?_CallCatchBlock2@@YAPAXPAUEHRegistrationNode@@PBU_s_FuncInfo@@PAXHK@Z 10022cef f   libvcruntime:trnsctrl.obj
 0001:00021d64       ?_CallSETranslator@@YAHPAUEHExceptionRecord@@PAUEHRegistrationNode@@PAX2PBU_s_FuncInfo@@H1@Z 10022d64 f   libvcruntime:trnsctrl.obj
 0001:00021e75       ?_JumpToContinuation@@YGXPAXPAUEHRegistrationNode@@@Z 10022e75 f   libvcruntime:trnsctrl.obj
 0001:00021eb1       ?_UnwindNestedFrames@@YGXPAUEHRegistrationNode@@PAUEHExceptionRecord@@@Z 10022eb1 f   libvcruntime:trnsctrl.obj
 0001:00021f18       ?getFuncInfo@TryBlockMap@__FrameHandler3@@QAEPBU_s_FuncInfo@@XZ 10022f18 f i libvcruntime:trnsctrl.obj
 0001:00021f1b       __CatchGuardHandler        10022f1b f   libvcruntime:trnsctrl.obj
 0001:00021f58       __CreateFrameInfo          10022f58 f   libvcruntime:trnsctrl.obj
 0001:00021f85       __FindAndUnlinkFrame       10022f85 f   libvcruntime:trnsctrl.obj
 0001:00021fdb       __TranslatorGuardHandler   10022fdb f   libvcruntime:trnsctrl.obj
 0001:0002209f       ___CxxFrameHandler         1002309f f   libvcruntime:trnsctrl.obj
 0001:000220e2       ___CxxFrameHandler2        100230e2 f   libvcruntime:trnsctrl.obj
 0001:00022125       ___CxxFrameHandler3        10023125 f   libvcruntime:trnsctrl.obj
 0001:00022168       ___CxxLongjmpUnwind@4      10023168 f   libvcruntime:trnsctrl.obj
 0001:00022a49       ??$TypeMatchHelper@V__FrameHandler3@@@@YAHPBU_s_HandlerType@@PBU_s_CatchableType@@PBU_s_ThrowInfo@@@Z 10023a49 f i libvcruntime:frame.obj
 0001:00022afa       ??$__InternalCxxFrameHandler@V__FrameHandler3@@@@YA?AW4_EXCEPTION_DISPOSITION@@PAUEHExceptionRecord@@PAUEHRegistrationNode@@PAU_CONTEXT@@PAXPBU_s_FuncInfo@@H1E@Z 10023afa f i libvcruntime:frame.obj
 0001:00022c3c       ??0HandlerMap@__FrameHandler3@@QAE@PBU_s_TryBlockMapEntry@@PAX@Z 10023c3c f i libvcruntime:frame.obj
 0001:00022c58       ??0TryBlockMap@__FrameHandler3@@QAE@PBU_s_FuncInfo@@PAX@Z 10023c58 f i libvcruntime:frame.obj
 0001:00022c71       ??0bad_exception@std@@QAE@ABV01@@Z 10023c71 f i libvcruntime:frame.obj
 0001:00022c92       ??0bad_exception@std@@QAE@XZ 10023c92 f i libvcruntime:frame.obj
 0001:00022cb0       ??0exception@std@@QAE@ABV01@@Z 10023cb0 f i libvcruntime:frame.obj
 0001:00022ce7       ??0exception@std@@QAE@QBDH@Z 10023ce7 f i libvcruntime:frame.obj
 0001:00022d0b       ??0iterator@HandlerMap@__FrameHandler3@@QAE@AAV12@I@Z 10023d0b f i libvcruntime:frame.obj
 0001:00022d24       ??1bad_exception@std@@UAE@XZ 10023d24 f i libvcruntime:frame.obj
 0001:00022d39       ??1exception@std@@UAE@XZ   10023d39 f i libvcruntime:frame.obj
 0001:00022d4e       ??8iterator@HandlerMap@__FrameHandler3@@QBE_NABV012@@Z 10023d4e f i libvcruntime:frame.obj
 0001:00022d65       ??8type_info@@QBE_NABV0@@Z 10023d65 f i libvcruntime:frame.obj
 0001:00022d8b       ??9iterator@HandlerMap@__FrameHandler3@@QBE_NABV012@@Z 10023d8b f i libvcruntime:frame.obj
 0001:00022da2       ??Diterator@HandlerMap@__FrameHandler3@@QAEPBU_s_HandlerType@@XZ 10023da2 f i libvcruntime:frame.obj
 0001:00022db1       ??Diterator@TryBlockMap@__FrameHandler3@@QAEPBU_s_TryBlockMapEntry@@XZ 10023db1 f i libvcruntime:frame.obj
 0001:00022dc0       ??Eiterator@HandlerMap@__FrameHandler3@@QAEAAV012@XZ 10023dc0 f i libvcruntime:frame.obj
 0001:00022dc6       ??Eiterator@TryBlockMap@__FrameHandler3@@QAEAAV012@XZ 10023dc6 f i libvcruntime:frame.obj
 0001:00022dcc       ??Miterator@TryBlockMap@__FrameHandler3@@QBE_NABV012@@Z 10023dcc f i libvcruntime:frame.obj
 0001:00022de3       ??_Gbad_exception@std@@UAEPAXI@Z 10023de3 f i libvcruntime:frame.obj
 0001:00022de3       ??_Ebad_exception@std@@UAEPAXI@Z 10023de3 f i libvcruntime:frame.obj
 0001:00022e1b       ??_Gexception@std@@UAEPAXI@Z 10023e1b f i libvcruntime:frame.obj
 0001:00022e1b       ??_Eexception@std@@UAEPAXI@Z 10023e1b f i libvcruntime:frame.obj
 0001:00022e53       ?BuildCatchObject@__FrameHandler3@@SAXPAUEHExceptionRecord@@PAXPBU_s_HandlerType@@PBU_s_CatchableType@@@Z 10023e53 f   libvcruntime:frame.obj
 0001:00022e58       ?BuildCatchObjectHelper@__FrameHandler3@@SAHPAUEHExceptionRecord@@PAXPBU_s_HandlerType@@PBU_s_CatchableType@@@Z 10023e58 f   libvcruntime:frame.obj
 0001:0002313c       ?FrameUnwindToEmptyState@__FrameHandler3@@SAXPAUEHRegistrationNode@@PAXPBU_s_FuncInfo@@@Z 1002413c f   libvcruntime:frame.obj
 0001:0002315a       ?FrameUnwindToState@__FrameHandler3@@SAXPAUEHRegistrationNode@@PAXPBU_s_FuncInfo@@H@Z 1002415a f   libvcruntime:frame.obj
 0001:0002327c       ?GetMaxState@__FrameHandler3@@SAHPAXPBU_s_FuncInfo@@@Z 1002427c f i libvcruntime:frame.obj
 0001:00023390       ?TypeMatch@__FrameHandler3@@SAHPBU_s_HandlerType@@PBU_s_CatchableType@@PBU_s_ThrowInfo@@@Z 10024390 f   libvcruntime:frame.obj
 0001:0002339b       ?_CallMemberFunction1@@YGXQAX00@Z 1002439b f i libvcruntime:frame.obj
 0001:000233af       ?_CallMemberFunction2@@YGXQAX00H@Z 100243af f i libvcruntime:frame.obj
 0001:000233c6       ?_ValidateExecute@@YA_NP6GHXZ@Z 100243c6 f i libvcruntime:frame.obj
 0001:000233d5       ?_ValidateRead@@YA_NPBXI@Z 100243d5 f i libvcruntime:frame.obj
 0001:000233e4       ?_ValidateWrite@@YA_NPAXI@Z 100243e4 f i libvcruntime:frame.obj
 0001:000233f3       ?begin@HandlerMap@__FrameHandler3@@QAE?AViterator@12@XZ 100243f3 f i libvcruntime:frame.obj
 0001:00023407       ?end@HandlerMap@__FrameHandler3@@QAE?AViterator@12@XZ 10024407 f i libvcruntime:frame.obj
 0001:0002341c       ?getESTypes@__FrameHandler3@@SAPBU_s_ESTypeList@@PBU_s_FuncInfo@@@Z 1002441c f i libvcruntime:frame.obj
 0001:00023429       ?getLastEntry@HandlerMap@__FrameHandler3@@QAEPBU_s_HandlerType@@XZ 10024429 f i libvcruntime:frame.obj
 0001:0002343a       ?getMagicNum@__FrameHandler3@@SAIPBU_s_FuncInfo@@@Z 1002443a f i libvcruntime:frame.obj
 0001:0002344c       ?getNumTryBlocks@TryBlockMap@__FrameHandler3@@QAEIXZ 1002444c f i libvcruntime:frame.obj
 0001:00023452       ?isEHs@__FrameHandler3@@SA_NPBU_s_FuncInfo@@@Z 10024452 f i libvcruntime:frame.obj
 0001:00023462       ?isNoExcept@__FrameHandler3@@SA_NPBU_s_FuncInfo@@@Z 10024462 f i libvcruntime:frame.obj
 0001:00023476       ?what@exception@std@@UBEPBDXZ 10024476 f i libvcruntime:frame.obj
 0001:00023486       ___BuildCatchObject        10024486 f   libvcruntime:frame.obj
 0001:0002348b       ___BuildCatchObjectHelper  1002448b f   libvcruntime:frame.obj
 0001:00023496       ___TypeMatch               10024496 f   libvcruntime:frame.obj
 0001:000234a1       ___vcrt_EncodePointer      100244a1 f i libvcruntime:frame.obj
 0001:000234c0       __CallSettingFrame@12      100244c0 f   libvcruntime:lowhelpr.obj
 0001:000234e7       __NLG_Return               100244e7     libvcruntime:lowhelpr.obj
 0001:00023538       __get_unexpected           10024538 f   libvcruntime:unexpected.obj
 0001:0002354e       _set_unexpected            1002454e f   libvcruntime:unexpected.obj
 0001:00023573       _unexpected                10024573 f   libvcruntime:unexpected.obj
 0001:00023597       ?GetCurrentState@__FrameHandler3@@SAHPAUEHRegistrationNode@@PAXPBU_s_FuncInfo@@@Z 10024597 f   libvcruntime:ehstate.obj
 0001:000235bb       ?SetState@__FrameHandler3@@SAXPAUEHRegistrationNode@@PBU_s_FuncInfo@@H@Z 100245bb f   libvcruntime:ehstate.obj
 0001:000235cc       ___DestructExceptionObject 100245cc f   libvcruntime:ehhelpers.obj
 0001:00023694       ?_CallMemberFunction0@@YGXQAX0@Z 10024694 f i libvcruntime:ehhelpers.obj
 0001:000236a4       ?raw_name@type_info@@QBEPBDXZ 100246a4 f i libvcruntime:ehhelpers.obj
 0001:000236a8       __IsExceptionObjectToBeDestroyed 100246a8 f   libvcruntime:ehhelpers.obj
 0001:000236d7       __SetWinRTOutOfMemoryExceptionCallback 100246d7 f   libvcruntime:ehhelpers.obj
 0001:000236e7       ___AdjustPointer           100246e7 f   libvcruntime:ehhelpers.obj
 0001:00023715       ___FrameUnwindFilter       10024715 f   libvcruntime:ehhelpers.obj
 0001:0002376b       ___GetPlatformExceptionInfo 1002476b f   libvcruntime:ehhelpers.obj
 0001:000237ca       ___current_exception       100247ca f   libvcruntime:ehhelpers.obj
 0001:000237d5       ___current_exception_context 100247d5 f   libvcruntime:ehhelpers.obj
 0001:000237e0       ___processing_throw        100247e0 f   libvcruntime:ehhelpers.obj
 0001:000237eb       ___std_terminate           100247eb f   libvcruntime:ehhelpers.obj
 0001:000237f0       __is_exception_typeof      100247f0 f   libvcruntime:ehhelpers.obj
 0001:000238bd       ??$?RD@__crt_public_free_policy@@QBEXQBD@Z 100248bd f i libvcruntime:std_exception.obj
 0001:000238d1       ??0?$__crt_unique_heap_ptr@DU__crt_public_free_policy@@@@QAE@QAD@Z 100248d1 f i libvcruntime:std_exception.obj
 0001:000238e2       ??1?$__crt_unique_heap_ptr@DU__crt_public_free_policy@@@@QAE@XZ 100248e2 f i libvcruntime:std_exception.obj
 0001:000238f6       ??B?$__crt_unique_heap_ptr@DU__crt_public_free_policy@@@@QBE_NXZ 100248f6 f i libvcruntime:std_exception.obj
 0001:000238fd       ?detach@?$__crt_unique_heap_ptr@DU__crt_public_free_policy@@@@QAEPADXZ 100248fd f i libvcruntime:std_exception.obj
 0001:00023903       ?get@?$__crt_unique_heap_ptr@DU__crt_public_free_policy@@@@QBEPADXZ 10024903 f i libvcruntime:std_exception.obj
 0001:00023906       ?is_valid@?$__crt_unique_heap_ptr@DU__crt_public_free_policy@@@@QBE_NXZ 10024906 f i libvcruntime:std_exception.obj
 0001:0002390d       ?release@?$__crt_unique_heap_ptr@DU__crt_public_free_policy@@@@QAEXXZ 1002490d f i libvcruntime:std_exception.obj
 0001:00023921       ___std_exception_copy      10024921 f   libvcruntime:std_exception.obj
 0001:0002399c       ___std_exception_destroy   1002499c f   libvcruntime:std_exception.obj
 0001:000239c2       __CxxThrowException@8      100249c2 f   libvcruntime:throw.obj
 0001:00023a4a       _malloc                    10024a4a f   libucrt:malloc.obj
 0001:00023a57       _calloc                    10024a57 f   libucrt:calloc.obj
 0001:00023a64       _free                      10024a64 f   libucrt:free.obj
 0001:00023a88       ??$__crt_interlocked_read@J@@YAJPDJ@Z 10024a88 f i libucrt:assert.obj
 0001:00023a97       ??$__vcrt_va_start_verify_argument_type@QBD@@YAXXZ 10024a97 f i libucrt:assert.obj
 0001:00023a98       ??$__vcrt_va_start_verify_argument_type@QB_W@@YAXXZ 10024a98 f i libucrt:assert.obj
 0001:00024a3a       ??$ftprintf@PAU_iobuf@@PBDABQBDABQBDABI@?$__crt_char_traits@D@@SAH$$QAPAU_iobuf@@$$QAPBDABQBD2ABI@Z 10025a3a f i libucrt:assert.obj
 0001:00024a6c       ??$ftprintf@PAU_iobuf@@PB_WABQB_WABQB_WABI@?$__crt_char_traits@_W@@SAH$$QAPAU_iobuf@@$$QAPB_WABQB_W2ABI@Z 10025a6c f i libucrt:assert.obj
 0001:00024a9e       ??$get_module_file_name@AAPAUHINSTANCE__@@AAY0BAF@DK@?$__crt_char_traits@D@@SAKAAPAUHINSTANCE__@@AAY0BAF@D$$QAK@Z 10025a9e f i libucrt:assert.obj
 0001:00024ac1       ??$get_module_file_name@AAPAUHINSTANCE__@@AAY0BAF@_WK@?$__crt_char_traits@_W@@SAKAAPAUHINSTANCE__@@AAY0BAF@_W$$QAK@Z 10025ac1 f i libucrt:assert.obj
 0001:00024ae1       ??$itot_s@ABIPADIH@?$__crt_char_traits@D@@SAHABI$$QAPAD$$QAI$$QAH@Z 10025ae1 f i libucrt:assert.obj
 0001:00024b0c       ??$itot_s@ABIPA_WIH@?$__crt_char_traits@_W@@SAHABI$$QAPA_W$$QAI$$QAH@Z 10025b0c f i libucrt:assert.obj
 0001:00024b37       ??$show_message_box@AAY0CEA@DPBDJ@?$__crt_char_traits@D@@SAHAAY0CEA@D$$QAPBD$$QAJ@Z 10025b37 f i libucrt:assert.obj
 0001:00024b5a       ??$show_message_box@AAY0CEA@_WPB_WJ@?$__crt_char_traits@_W@@SAHAAY0CEA@_W$$QAPB_W$$QAJ@Z 10025b5a f i libucrt:assert.obj
 0001:00024b7d       ??$tcscat_s@ABQADABIAAPAD@?$__crt_char_traits@D@@SAHABQADABIAAPAD@Z 10025b7d f i libucrt:assert.obj
 0001:00024ba2       ??$tcscat_s@ABQADABIABQBD@?$__crt_char_traits@D@@SAHABQADABIABQBD@Z 10025ba2 f i libucrt:assert.obj
 0001:00024bc7       ??$tcscat_s@ABQADABIPBD@?$__crt_char_traits@D@@SAHABQADABI$$QAPBD@Z 10025bc7 f i libucrt:assert.obj
 0001:00024bec       ??$tcscat_s@ABQA_WABIAAPA_W@?$__crt_char_traits@_W@@SAHABQA_WABIAAPA_W@Z 10025bec f i libucrt:assert.obj
 0001:00024c11       ??$tcscat_s@ABQA_WABIABQB_W@?$__crt_char_traits@_W@@SAHABQA_WABIABQB_W@Z 10025c11 f i libucrt:assert.obj
 0001:00024c36       ??$tcscat_s@ABQA_WABIPB_W@?$__crt_char_traits@_W@@SAHABQA_WABI$$QAPB_W@Z 10025c36 f i libucrt:assert.obj
 0001:00024c5b       ??$tcscpy_s@AAY0BAF@DIPBD@?$__crt_char_traits@D@@SAHAAY0BAF@D$$QAI$$QAPBD@Z 10025c5b f i libucrt:assert.obj
 0001:00024c7e       ??$tcscpy_s@AAY0BAF@_WIPB_W@?$__crt_char_traits@_W@@SAHAAY0BAF@_W$$QAI$$QAPB_W@Z 10025c7e f i libucrt:assert.obj
 0001:00024ca1       ??$tcscpy_s@ABQADABIPBD@?$__crt_char_traits@D@@SAHABQADABI$$QAPBD@Z 10025ca1 f i libucrt:assert.obj
 0001:00024cc6       ??$tcscpy_s@ABQA_WABIPB_W@?$__crt_char_traits@_W@@SAHABQA_WABI$$QAPB_W@Z 10025cc6 f i libucrt:assert.obj
 0001:00024ceb       ??$tcslen@AAY0BAF@D@?$__crt_char_traits@D@@SAIAAY0BAF@D@Z 10025ceb f i libucrt:assert.obj
 0001:00024d06       ??$tcslen@AAY0BAF@_W@?$__crt_char_traits@_W@@SAIAAY0BAF@_W@Z 10025d06 f i libucrt:assert.obj
 0001:00024d29       ??$tcslen@ABQAD@?$__crt_char_traits@D@@SAIABQAD@Z 10025d29 f i libucrt:assert.obj
 0001:00024d47       ??$tcslen@ABQA_W@?$__crt_char_traits@_W@@SAIABQA_W@Z 10025d47 f i libucrt:assert.obj
 0001:00024d6c       ??$tcslen@ABQBD@?$__crt_char_traits@D@@SAIABQBD@Z 10025d6c f i libucrt:assert.obj
 0001:00024d8a       ??$tcslen@ABQB_W@?$__crt_char_traits@_W@@SAIABQB_W@Z 10025d8a f i libucrt:assert.obj
 0001:00024daf       ??$tcsncat_s@ABQADABIAAPBDI@?$__crt_char_traits@D@@SAHABQADABIAAPBD$$QAI@Z 10025daf f i libucrt:assert.obj
 0001:00024dda       ??$tcsncat_s@ABQADABIABQBDABI@?$__crt_char_traits@D@@SAHABQADABIABQBD1@Z 10025dda f i libucrt:assert.obj
 0001:00024e05       ??$tcsncat_s@ABQADABIPBDI@?$__crt_char_traits@D@@SAHABQADABI$$QAPBD$$QAI@Z 10025e05 f i libucrt:assert.obj
 0001:00024e30       ??$tcsncat_s@ABQA_WABIAAPB_WI@?$__crt_char_traits@_W@@SAHABQA_WABIAAPB_W$$QAI@Z 10025e30 f i libucrt:assert.obj
 0001:00024e5b       ??$tcsncat_s@ABQA_WABIABQB_WABI@?$__crt_char_traits@_W@@SAHABQA_WABIABQB_W1@Z 10025e5b f i libucrt:assert.obj
 0001:00024e86       ??$tcsncat_s@ABQA_WABIPB_WI@?$__crt_char_traits@_W@@SAHABQA_WABI$$QAPB_W$$QAI@Z 10025e86 f i libucrt:assert.obj
 0001:00024eb1       ??0__crt_stdio_stream@@QAE@QAU_iobuf@@@Z 10025eb1 f i libucrt:assert.obj
 0001:00024ff7       ?get_flags@__crt_stdio_stream@@QBEJXZ 10025ff7 f i libucrt:assert.obj
 0001:00025045       ?has_any_buffer@__crt_stdio_stream@@QBE_NXZ 10026045 f i libucrt:assert.obj
 0001:00025056       ?has_any_of@__crt_stdio_stream@@QBE_NJ@Z 10026056 f i libucrt:assert.obj
 0001:0002506f       __assert                   1002606f f   libucrt:assert.obj
 0001:000250c9       __invoke_watson_if_error   100260c9 f i libucrt:assert.obj
 0001:000250f3       __vfwprintf_l              100260f3 f i libucrt:assert.obj
 0001:00025121       __vswprintf_c_l            10026121 f i libucrt:assert.obj
 0001:0002515b       __wassert                  1002615b f   libucrt:assert.obj
 0001:000251b5       _fwprintf                  100261b5 f i libucrt:assert.obj
 0001:00025277       _swprintf                  10026277 f i libucrt:assert.obj
 0001:0002529c       _realloc                   1002629c f   libucrt:realloc.obj
 0001:000252a9       ??$?B$$A6GXPAXK0@Z@__crt_fast_encoded_nullptr_t@@QBEP6GXPAXK0@ZXZ 100262a9 f i libucrt:exit.obj
 0001:0002534c       ??$__crt_fast_decode_pointer@P6GXPAXK0@Z@@YAP6GXPAXK0@ZQ6GX0K0@Z@Z 1002634c f i libucrt:exit.obj
 0001:00025367       ??$__crt_fast_encode_pointer@P6GXPAXK0@Z@@YAP6GXPAXK0@ZQ6GX0K0@Z@Z 10026367 f i libucrt:exit.obj
 0001:0002538d       ??$__crt_get_proc_address@P6GXI@Z@@YAP6GXI@ZQAUHINSTANCE__@@QBD@Z 1002638d f i libucrt:exit.obj
 0001:000253f3       ??0?$__crt_unique_handle_t@U__crt_hmodule_traits@@@@QAE@QAUHINSTANCE__@@@Z 100263f3 f i libucrt:exit.obj
 0001:00025407       ??1?$__crt_unique_handle_t@U__crt_hmodule_traits@@@@QAE@XZ 10026407 f i libucrt:exit.obj
 0001:0002554c       ?__acrt_select_exit_lock@@YA?AW4__acrt_lock_id@@XZ 1002654c f i libucrt:exit.obj
 0001:00025567       ?close@?$__crt_unique_handle_t@U__crt_hmodule_traits@@@@QAEXXZ 10026567 f i libucrt:exit.obj
 0001:00025583       ?close@__crt_hmodule_traits@@SA_NPAUHINSTANCE__@@@Z 10026583 f i libucrt:exit.obj
 0001:0002566e       ?get@?$__crt_unique_handle_t@U__crt_hmodule_traits@@@@QBEPAUHINSTANCE__@@XZ 1002666e f i libucrt:exit.obj
 0001:00025671       ?get_address_of@?$__crt_unique_handle_t@U__crt_hmodule_traits@@@@QAEPAPAUHINSTANCE__@@XZ 10026671 f i libucrt:exit.obj
 0001:00025674       ?get_invalid_value@__crt_hmodule_traits@@SAPAUHINSTANCE__@@XZ 10026674 f i libucrt:exit.obj
 0001:00025775       __Exit                     10026775 f   libucrt:exit.obj
 0001:00025790       ___acrt_initialize_thread_local_exit_callback 10026790 f   libucrt:exit.obj
 0001:000257a2       __c_exit                   100267a2 f   libucrt:exit.obj
 0001:000257b4       __cexit                    100267b4 f   libucrt:exit.obj
 0001:000257c6       __exit                     100267c6 f   libucrt:exit.obj
 0001:000257e1       __is_c_termination_complete 100267e1 f   libucrt:exit.obj
 0001:000257e7       __register_thread_local_exe_atexit_callback 100267e7 f   libucrt:exit.obj
 0001:0002582d       _exit                      1002682d f   libucrt:exit.obj
 0001:00025848       _quick_exit                10026848 f   libucrt:exit.obj
 0001:00025870       _strncat                   10026870 f   libucrt:strncat.obj
 0001:00025a00       _strncpy                   10026a00 f   libucrt:strncpy.obj
 0001:00025b6d       ??$?RPAU__crt_stdio_stream_data@@@__crt_internal_free_policy@@QBEXQBQAU__crt_stdio_stream_data@@@Z 10026b6d f i libucrt:_file.obj
 0001:00025b83       ??0?$__crt_unique_heap_ptr@PAU__crt_stdio_stream_data@@U__crt_internal_free_policy@@@@QAE@QAPAU__crt_stdio_stream_data@@@Z 10026b83 f i libucrt:_file.obj
 0001:00025b97       ??1?$__crt_unique_heap_ptr@PAU__crt_stdio_stream_data@@U__crt_internal_free_policy@@@@QAE@XZ 10026b97 f i libucrt:_file.obj
 0001:00025bad       ??C__crt_stdio_stream@@QBEPAU__crt_stdio_stream_data@@XZ 10026bad f i libucrt:_file.obj
 0001:00025bb0       ?detach@?$__crt_unique_heap_ptr@PAU__crt_stdio_stream_data@@U__crt_internal_free_policy@@@@QAEPAPAU__crt_stdio_stream_data@@XZ 10026bb0 f i libucrt:_file.obj
 0001:00025bb6       ?release@?$__crt_unique_heap_ptr@PAU__crt_stdio_stream_data@@U__crt_internal_free_policy@@@@QAEXXZ 10026bb6 f i libucrt:_file.obj
 0001:00025bcc       ___acrt_initialize_stdio   10026bcc f   libucrt:_file.obj
 0001:00025cc6       ___acrt_iob_func           10026cc6 f   libucrt:_file.obj
 0001:00025cda       ___acrt_uninitialize_stdio 10026cda f   libucrt:_file.obj
 0001:00025d39       __get_stream_buffer_pointers 10026d39 f   libucrt:_file.obj
 0001:00025d90       __lock_file                10026d90 f   libucrt:_file.obj
 0001:00025da9       __unlock_file              10026da9 f   libucrt:_file.obj
 0001:00025dc2       ?is_in_use@__crt_stdio_stream@@QBE_NXZ 10026dc2 f i libucrt:fclose.obj
 0001:00025dcf       ?is_string_backed@__crt_stdio_stream@@QBE_NXZ 10026dcf f i libucrt:fclose.obj
 0001:00025ddc       ?public_stream@__crt_stdio_stream@@QBEPAU_iobuf@@XZ 10026ddc f i libucrt:fclose.obj
 0001:00025ddf       ?valid@__crt_stdio_stream@@QBE_NXZ 10026ddf f i libucrt:fclose.obj
 0001:00025de6       __fclose_nolock            10026de6 f   libucrt:fclose.obj
 0001:00025e79       _fclose                    10026e79 f   libucrt:fclose.obj
 0001:0002616f       ??$open_file@ABQBDABQBDABHPAU_iobuf@@@?$__crt_char_traits@D@@SAPAU_iobuf@@ABQBD0ABH$$QAPAU1@@Z 1002716f f i libucrt:fopen.obj
 0001:0002619a       ??$open_file@ABQB_WABQB_WABHPAU_iobuf@@@?$__crt_char_traits@_W@@SAPAU_iobuf@@ABQB_W0ABH$$QAPAU1@@Z 1002719a f i libucrt:fopen.obj
 0001:000261c5       ?unlock@__crt_stdio_stream@@QBEXXZ 100271c5 f i libucrt:fopen.obj
 0001:000261d0       __fsopen                   100271d0 f   libucrt:fopen.obj
 0001:000261dd       __wfopen                   100271dd f   libucrt:fopen.obj
 0001:000261f9       __wfopen_s                 100271f9 f   libucrt:fopen.obj
 0001:00026251       __wfsopen                  10027251 f   libucrt:fopen.obj
 0001:0002625e       _fopen                     1002725e f   libucrt:fopen.obj
 0001:0002627a       _fopen_s                   1002727a f   libucrt:fopen.obj
 0001:000262d2       ?__acrt_stdio_reset_buffer@@YAXV__crt_stdio_stream@@@Z 100272d2 f i libucrt:fread.obj
 0001:000262ed       ?set_flags@__crt_stdio_stream@@QBE_NJ@Z 100272ed f i libucrt:fread.obj
 0001:0002631a       __fread_nolock             1002731a f   libucrt:fread.obj
 0001:0002633e       __fread_nolock_s           1002733e f   libucrt:fread.obj
 0001:0002658d       _fread                     1002758d f   libucrt:fread.obj
 0001:000265b1       _fread_s                   100275b1 f   libucrt:fread.obj
 0001:000267f6       ??0__acrt_stdio_temporary_buffering_guard@@QAE@QAU_iobuf@@@Z 100277f6 f i libucrt:fwrite.obj
 0001:0002681b       ??1__acrt_stdio_temporary_buffering_guard@@QAE@XZ 1002781b f i libucrt:fwrite.obj
 0001:00026899       ?has_big_buffer@__crt_stdio_stream@@QBE_NXZ 10027899 f i libucrt:fwrite.obj
 0001:000268a6       __fwrite_nolock            100278a6 f   libucrt:fwrite.obj
 0001:00026a7f       _fwrite                    10027a7f f   libucrt:fwrite.obj
 0001:00026ba2       ??$__acrt_mbs_to_wcs_cp@U__crt_win32_buffer_internal_dynamic_resizing@@@@YAHQBDAAV?$__crt_win32_buffer@_WU__crt_win32_buffer_internal_dynamic_resizing@@@@I@Z 10027ba2 f i libucrt:unlink.obj
 0001:00026bc8       ??0?$__crt_win32_buffer@_WU__crt_win32_buffer_internal_dynamic_resizing@@@@QAE@XZ 10027bc8 f i libucrt:unlink.obj
 0001:00026be3       ??0_LocaleUpdate@@QAE@QAU__crt_locale_pointers@@@Z 10027be3 f i libucrt:unlink.obj
 0001:00026c86       ??1?$__crt_win32_buffer@_WU__crt_win32_buffer_internal_dynamic_resizing@@@@QAE@XZ 10027c86 f i libucrt:unlink.obj
 0001:00026c8b       ??1_LocaleUpdate@@QAE@XZ   10027c8b f i libucrt:unlink.obj
 0001:00026cc8       ?GetLocaleT@_LocaleUpdate@@QAEPAU__crt_locale_pointers@@XZ 10027cc8 f i libucrt:unlink.obj
 0001:00026ccc       ?__acrt_get_utf8_acp_compatibility_codepage@@YAIXZ 10027ccc f i libucrt:unlink.obj
 0001:00026d1d       ?_deallocate@?$__crt_win32_buffer@_WU__crt_win32_buffer_internal_dynamic_resizing@@@@AAEXXZ 10027d1d f i libucrt:unlink.obj
 0001:00026d3d       ?allocate@?$__crt_win32_buffer@_WU__crt_win32_buffer_internal_dynamic_resizing@@@@QAEHI@Z 10027d3d f i libucrt:unlink.obj
 0001:00026d8b       ?allocate@__crt_win32_buffer_internal_dynamic_resizing@@SAHQAPAXIABV__crt_win32_buffer_empty_debug_info@@@Z 10027d8b f i libucrt:unlink.obj
 0001:00026db1       ?capacity@?$__crt_win32_buffer@_WU__crt_win32_buffer_internal_dynamic_resizing@@@@QBEIXZ 10027db1 f i libucrt:unlink.obj
 0001:00026db5       ?data@?$__crt_win32_buffer@_WU__crt_win32_buffer_internal_dynamic_resizing@@@@QAEPA_WXZ 10027db5 f i libucrt:unlink.obj
 0001:00026db9       ?deallocate@__crt_win32_buffer_internal_dynamic_resizing@@SAXQAXABV__crt_win32_buffer_empty_debug_info@@@Z 10027db9 f i libucrt:unlink.obj
 0001:00026dcd       ?debug_info@?$__crt_win32_buffer@_WU__crt_win32_buffer_internal_dynamic_resizing@@@@QBEABV__crt_win32_buffer_empty_debug_info@@XZ 10027dcd f i libucrt:unlink.obj
 0001:00026dd0       ?size@?$__crt_win32_buffer@_WU__crt_win32_buffer_internal_dynamic_resizing@@@@QAEXI@Z 10027dd0 f i libucrt:unlink.obj
 0001:00026de2       ___acrt_locale_changed     10027de2 f i libucrt:unlink.obj
 0001:00026def       __unlink                   10027def f   libucrt:unlink.obj
 0001:00026dfc       _remove                    10027dfc f   libucrt:unlink.obj
 0001:00026e83       ?has_all_of@__crt_stdio_stream@@QBE_NJ@Z 10027e83 f i libucrt:rewind.obj
 0001:00026e9f       ?unset_flags@__crt_stdio_stream@@QBE_NJ@Z 10027e9f f i libucrt:rewind.obj
 0001:00026ed2       _rewind                    10027ed2 f   libucrt:rewind.obj
 0001:00026fc4       ??$?0ABV?$stream_output_adapter@D@__crt_stdio_output@@AB_KABQBDABQAU__crt_locale_pointers@@ABQAD@?$format_validation_base@DV?$stream_output_adapter@D@__crt_stdio_output@@@__crt_stdio_output@@IAE@ABV?$stream_output_adapter@D@1@AB_KABQBDABQAU__crt_locale_pointers@@ABQAD@Z 10027fc4 f i libucrt:output.obj
 0001:00026fef       ??$?0ABV?$stream_output_adapter@D@__crt_stdio_output@@AB_KABQBDABQAU__crt_locale_pointers@@ABQAD@?$positional_parameter_base@DV?$stream_output_adapter@D@__crt_stdio_output@@@__crt_stdio_output@@IAE@ABV?$stream_output_adapter@D@1@AB_KABQBDABQAU__crt_locale_pointers@@ABQAD@Z 10027fef f i libucrt:output.obj
 0001:00027049       ??$?0ABV?$stream_output_adapter@D@__crt_stdio_output@@AB_KABQBDABQAU__crt_locale_pointers@@ABQAD@?$standard_base@DV?$stream_output_adapter@D@__crt_stdio_output@@@__crt_stdio_output@@IAE@ABV?$stream_output_adapter@D@1@AB_KABQBDABQAU__crt_locale_pointers@@ABQAD@Z 10028049 f i libucrt:output.obj
 0001:0002708b       ??$?0ABV?$stream_output_adapter@_W@__crt_stdio_output@@AB_KABQB_WABQAU__crt_locale_pointers@@ABQAD@?$format_validation_base@_WV?$stream_output_adapter@_W@__crt_stdio_output@@@__crt_stdio_output@@IAE@ABV?$stream_output_adapter@_W@1@AB_KABQB_WABQAU__crt_locale_pointers@@ABQAD@Z 1002808b f i libucrt:output.obj
 0001:000270b6       ??$?0ABV?$stream_output_adapter@_W@__crt_stdio_output@@AB_KABQB_WABQAU__crt_locale_pointers@@ABQAD@?$positional_parameter_base@_WV?$stream_output_adapter@_W@__crt_stdio_output@@@__crt_stdio_output@@IAE@ABV?$stream_output_adapter@_W@1@AB_KABQB_WABQAU__crt_locale_pointers@@ABQAD@Z 100280b6 f i libucrt:output.obj
 0001:00027110       ??$?0ABV?$stream_output_adapter@_W@__crt_stdio_output@@AB_KABQB_WABQAU__crt_locale_pointers@@ABQAD@?$standard_base@_WV?$stream_output_adapter@_W@__crt_stdio_output@@@__crt_stdio_output@@IAE@ABV?$stream_output_adapter@_W@1@AB_KABQB_WABQAU__crt_locale_pointers@@ABQAD@Z 10028110 f i libucrt:output.obj
 0001:00027152       ??$?0ABV?$string_output_adapter@D@__crt_stdio_output@@AB_KABQBDABQAU__crt_locale_pointers@@ABQAD@?$format_validation_base@DV?$string_output_adapter@D@__crt_stdio_output@@@__crt_stdio_output@@IAE@ABV?$string_output_adapter@D@1@AB_KABQBDABQAU__crt_locale_pointers@@ABQAD@Z 10028152 f i libucrt:output.obj
 0001:0002717d       ??$?0ABV?$string_output_adapter@D@__crt_stdio_output@@AB_KABQBDABQAU__crt_locale_pointers@@ABQAD@?$positional_parameter_base@DV?$string_output_adapter@D@__crt_stdio_output@@@__crt_stdio_output@@IAE@ABV?$string_output_adapter@D@1@AB_KABQBDABQAU__crt_locale_pointers@@ABQAD@Z 1002817d f i libucrt:output.obj
 0001:000271d7       ??$?0ABV?$string_output_adapter@D@__crt_stdio_output@@AB_KABQBDABQAU__crt_locale_pointers@@ABQAD@?$standard_base@DV?$string_output_adapter@D@__crt_stdio_output@@@__crt_stdio_output@@IAE@ABV?$string_output_adapter@D@1@AB_KABQBDABQAU__crt_locale_pointers@@ABQAD@Z 100281d7 f i libucrt:output.obj
 0001:00027219       ??$?0ABV?$string_output_adapter@_W@__crt_stdio_output@@AB_KABQB_WABQAU__crt_locale_pointers@@ABQAD@?$format_validation_base@_WV?$string_output_adapter@_W@__crt_stdio_output@@@__crt_stdio_output@@IAE@ABV?$string_output_adapter@_W@1@AB_KABQB_WABQAU__crt_locale_pointers@@ABQAD@Z 10028219 f i libucrt:output.obj
 0001:00027244       ??$?0ABV?$string_output_adapter@_W@__crt_stdio_output@@AB_KABQB_WABQAU__crt_locale_pointers@@ABQAD@?$positional_parameter_base@_WV?$string_output_adapter@_W@__crt_stdio_output@@@__crt_stdio_output@@IAE@ABV?$string_output_adapter@_W@1@AB_KABQB_WABQAU__crt_locale_pointers@@ABQAD@Z 10028244 f i libucrt:output.obj
 0001:0002729e       ??$?0ABV?$string_output_adapter@_W@__crt_stdio_output@@AB_KABQB_WABQAU__crt_locale_pointers@@ABQAD@?$standard_base@_WV?$string_output_adapter@_W@__crt_stdio_output@@@__crt_stdio_output@@IAE@ABV?$string_output_adapter@_W@1@AB_KABQB_WABQAU__crt_locale_pointers@@ABQAD@Z 1002829e f i libucrt:output.obj
 0001:000288c4       ??$count@D@formatting_buffer@__crt_stdio_output@@QBEIXZ 100298c4 f i libucrt:output.obj
 0001:000288e2       ??$count@_W@formatting_buffer@__crt_stdio_output@@QBEIXZ 100298e2 f i libucrt:output.obj
 0001:00028901       ??$data@D@formatting_buffer@__crt_stdio_output@@QAEPADXZ 10029901 f i libucrt:output.obj
 0001:00028911       ??$data@_W@formatting_buffer@__crt_stdio_output@@QAEPA_WXZ 10029911 f i libucrt:output.obj
 0001:00028921       ??$ensure_buffer_is_big_enough@D@formatting_buffer@__crt_stdio_output@@QAE_NI@Z 10029921 f i libucrt:output.obj
 0001:000289bf       ??$ensure_buffer_is_big_enough@_W@formatting_buffer@__crt_stdio_output@@QAE_NI@Z 100299bf f i libucrt:output.obj
 0001:00028a5f       ??$extract_argument_from_va_list@C_J@?$positional_parameter_base@DV?$stream_output_adapter@D@__crt_stdio_output@@@__crt_stdio_output@@IAE_NAA_J@Z 10029a5f f i libucrt:output.obj
 0001:00028af6       ??$extract_argument_from_va_list@C_J@?$positional_parameter_base@DV?$string_output_adapter@D@__crt_stdio_output@@@__crt_stdio_output@@IAE_NAA_J@Z 10029af6 f i libucrt:output.obj
 0001:00028b8d       ??$extract_argument_from_va_list@C_J@?$positional_parameter_base@_WV?$stream_output_adapter@_W@__crt_stdio_output@@@__crt_stdio_output@@IAE_NAA_J@Z 10029b8d f i libucrt:output.obj
 0001:00028c24       ??$extract_argument_from_va_list@C_J@?$positional_parameter_base@_WV?$string_output_adapter@_W@__crt_stdio_output@@@__crt_stdio_output@@IAE_NAA_J@Z 10029c24 f i libucrt:output.obj
 0001:00028cbb       ??$extract_argument_from_va_list@C_J@?$standard_base@DV?$stream_output_adapter@D@__crt_stdio_output@@@__crt_stdio_output@@IAE_NAA_J@Z 10029cbb f i libucrt:output.obj
 0001:00028ce1       ??$extract_argument_from_va_list@C_J@?$standard_base@DV?$string_output_adapter@D@__crt_stdio_output@@@__crt_stdio_output@@IAE_NAA_J@Z 10029ce1 f i libucrt:output.obj
 0001:00028d07       ??$extract_argument_from_va_list@C_J@?$standard_base@_WV?$stream_output_adapter@_W@__crt_stdio_output@@@__crt_stdio_output@@IAE_NAA_J@Z 10029d07 f i libucrt:output.obj
 0001:00028d2d       ??$extract_argument_from_va_list@C_J@?$standard_base@_WV?$string_output_adapter@_W@__crt_stdio_output@@@__crt_stdio_output@@IAE_NAA_J@Z 10029d2d f i libucrt:output.obj
 0001:00028d53       ??$extract_argument_from_va_list@E_J@?$positional_parameter_base@DV?$stream_output_adapter@D@__crt_stdio_output@@@__crt_stdio_output@@IAE_NAA_J@Z 10029d53 f i libucrt:output.obj
 0001:00028dea       ??$extract_argument_from_va_list@E_J@?$positional_parameter_base@DV?$string_output_adapter@D@__crt_stdio_output@@@__crt_stdio_output@@IAE_NAA_J@Z 10029dea f i libucrt:output.obj
 0001:00028e81       ??$extract_argument_from_va_list@E_J@?$positional_parameter_base@_WV?$stream_output_adapter@_W@__crt_stdio_output@@@__crt_stdio_output@@IAE_NAA_J@Z 10029e81 f i libucrt:output.obj
 0001:00028f18       ??$extract_argument_from_va_list@E_J@?$positional_parameter_base@_WV?$string_output_adapter@_W@__crt_stdio_output@@@__crt_stdio_output@@IAE_NAA_J@Z 10029f18 f i libucrt:output.obj
 0001:00028faf       ??$extract_argument_from_va_list@E_J@?$standard_base@DV?$stream_output_adapter@D@__crt_stdio_output@@@__crt_stdio_output@@IAE_NAA_J@Z 10029faf f i libucrt:output.obj
 0001:00028fd5       ??$extract_argument_from_va_list@E_J@?$standard_base@DV?$string_output_adapter@D@__crt_stdio_output@@@__crt_stdio_output@@IAE_NAA_J@Z 10029fd5 f i libucrt:output.obj
 0001:00028ffb       ??$extract_argument_from_va_list@E_J@?$standard_base@_WV?$stream_output_adapter@_W@__crt_stdio_output@@@__crt_stdio_output@@IAE_NAA_J@Z 10029ffb f i libucrt:output.obj
 0001:00029021       ??$extract_argument_from_va_list@E_J@?$standard_base@_WV?$string_output_adapter@_W@__crt_stdio_output@@@__crt_stdio_output@@IAE_NAA_J@Z 1002a021 f i libucrt:output.obj
 0001:00029047       ??$extract_argument_from_va_list@F_J@?$positional_parameter_base@DV?$stream_output_adapter@D@__crt_stdio_output@@@__crt_stdio_output@@IAE_NAA_J@Z 1002a047 f i libucrt:output.obj
 0001:000290de       ??$extract_argument_from_va_list@F_J@?$positional_parameter_base@DV?$string_output_adapter@D@__crt_stdio_output@@@__crt_stdio_output@@IAE_NAA_J@Z 1002a0de f i libucrt:output.obj
 0001:00029175       ??$extract_argument_from_va_list@F_J@?$positional_parameter_base@_WV?$stream_output_adapter@_W@__crt_stdio_output@@@__crt_stdio_output@@IAE_NAA_J@Z 1002a175 f i libucrt:output.obj
 0001:0002920c       ??$extract_argument_from_va_list@F_J@?$positional_parameter_base@_WV?$string_output_adapter@_W@__crt_stdio_output@@@__crt_stdio_output@@IAE_NAA_J@Z 1002a20c f i libucrt:output.obj
 0001:000292a3       ??$extract_argument_from_va_list@F_J@?$standard_base@DV?$stream_output_adapter@D@__crt_stdio_output@@@__crt_stdio_output@@IAE_NAA_J@Z 1002a2a3 f i libucrt:output.obj
 0001:000292c9       ??$extract_argument_from_va_list@F_J@?$standard_base@DV?$string_output_adapter@D@__crt_stdio_output@@@__crt_stdio_output@@IAE_NAA_J@Z 1002a2c9 f i libucrt:output.obj
 0001:000292ef       ??$extract_argument_from_va_list@F_J@?$standard_base@_WV?$stream_output_adapter@_W@__crt_stdio_output@@@__crt_stdio_output@@IAE_NAA_J@Z 1002a2ef f i libucrt:output.obj
 0001:00029315       ??$extract_argument_from_va_list@F_J@?$standard_base@_WV?$string_output_adapter@_W@__crt_stdio_output@@@__crt_stdio_output@@IAE_NAA_J@Z 1002a315 f i libucrt:output.obj
 0001:0002933b       ??$extract_argument_from_va_list@GD@?$positional_parameter_base@DV?$stream_output_adapter@D@__crt_stdio_output@@@__crt_stdio_output@@IAE_NAAD@Z 1002a33b f i libucrt:output.obj
 0001:000293d1       ??$extract_argument_from_va_list@GD@?$positional_parameter_base@DV?$string_output_adapter@D@__crt_stdio_output@@@__crt_stdio_output@@IAE_NAAD@Z 1002a3d1 f i libucrt:output.obj
 0001:00029467       ??$extract_argument_from_va_list@GD@?$standard_base@DV?$stream_output_adapter@D@__crt_stdio_output@@@__crt_stdio_output@@IAE_NAAD@Z 1002a467 f i libucrt:output.obj
 0001:00029487       ??$extract_argument_from_va_list@GD@?$standard_base@DV?$string_output_adapter@D@__crt_stdio_output@@@__crt_stdio_output@@IAE_NAAD@Z 1002a487 f i libucrt:output.obj
 0001:000294a7       ??$extract_argument_from_va_list@G_J@?$positional_parameter_base@DV?$stream_output_adapter@D@__crt_stdio_output@@@__crt_stdio_output@@IAE_NAA_J@Z 1002a4a7 f i libucrt:output.obj
 0001:0002953e       ??$extract_argument_from_va_list@G_J@?$positional_parameter_base@DV?$string_output_adapter@D@__crt_stdio_output@@@__crt_stdio_output@@IAE_NAA_J@Z 1002a53e f i libucrt:output.obj
 0001:000295d5       ??$extract_argument_from_va_list@G_J@?$positional_parameter_base@_WV?$stream_output_adapter@_W@__crt_stdio_output@@@__crt_stdio_output@@IAE_NAA_J@Z 1002a5d5 f i libucrt:output.obj
 0001:0002966c       ??$extract_argument_from_va_list@G_J@?$positional_parameter_base@_WV?$string_output_adapter@_W@__crt_stdio_output@@@__crt_stdio_output@@IAE_NAA_J@Z 1002a66c f i libucrt:output.obj
 0001:00029703       ??$extract_argument_from_va_list@G_J@?$standard_base@DV?$stream_output_adapter@D@__crt_stdio_output@@@__crt_stdio_output@@IAE_NAA_J@Z 1002a703 f i libucrt:output.obj
 0001:00029729       ??$extract_argument_from_va_list@G_J@?$standard_base@DV?$string_output_adapter@D@__crt_stdio_output@@@__crt_stdio_output@@IAE_NAA_J@Z 1002a729 f i libucrt:output.obj
 0001:0002974f       ??$extract_argument_from_va_list@G_J@?$standard_base@_WV?$stream_output_adapter@_W@__crt_stdio_output@@@__crt_stdio_output@@IAE_NAA_J@Z 1002a74f f i libucrt:output.obj
 0001:00029775       ??$extract_argument_from_va_list@G_J@?$standard_base@_WV?$string_output_adapter@_W@__crt_stdio_output@@@__crt_stdio_output@@IAE_NAA_J@Z 1002a775 f i libucrt:output.obj
 0001:0002979b       ??$extract_argument_from_va_list@H_J@?$positional_parameter_base@DV?$stream_output_adapter@D@__crt_stdio_output@@@__crt_stdio_output@@IAE_NAA_J@Z 1002a79b f i libucrt:output.obj
 0001:0002982f       ??$extract_argument_from_va_list@H_J@?$positional_parameter_base@DV?$string_output_adapter@D@__crt_stdio_output@@@__crt_stdio_output@@IAE_NAA_J@Z 1002a82f f i libucrt:output.obj
 0001:000298c3       ??$extract_argument_from_va_list@H_J@?$positional_parameter_base@_WV?$stream_output_adapter@_W@__crt_stdio_output@@@__crt_stdio_output@@IAE_NAA_J@Z 1002a8c3 f i libucrt:output.obj
 0001:00029957       ??$extract_argument_from_va_list@H_J@?$positional_parameter_base@_WV?$string_output_adapter@_W@__crt_stdio_output@@@__crt_stdio_output@@IAE_NAA_J@Z 1002a957 f i libucrt:output.obj
 0001:000299eb       ??$extract_argument_from_va_list@H_J@?$standard_base@DV?$stream_output_adapter@D@__crt_stdio_output@@@__crt_stdio_output@@IAE_NAA_J@Z 1002a9eb f i libucrt:output.obj
 0001:00029a10       ??$extract_argument_from_va_list@H_J@?$standard_base@DV?$string_output_adapter@D@__crt_stdio_output@@@__crt_stdio_output@@IAE_NAA_J@Z 1002aa10 f i libucrt:output.obj
 0001:00029a35       ??$extract_argument_from_va_list@H_J@?$standard_base@_WV?$stream_output_adapter@_W@__crt_stdio_output@@@__crt_stdio_output@@IAE_NAA_J@Z 1002aa35 f i libucrt:output.obj
 0001:00029a5a       ??$extract_argument_from_va_list@H_J@?$standard_base@_WV?$string_output_adapter@_W@__crt_stdio_output@@@__crt_stdio_output@@IAE_NAA_J@Z 1002aa5a f i libucrt:output.obj
 0001:00029a7f       ??$extract_argument_from_va_list@I_J@?$positional_parameter_base@DV?$stream_output_adapter@D@__crt_stdio_output@@@__crt_stdio_output@@IAE_NAA_J@Z 1002aa7f f i libucrt:output.obj
 0001:00029b1f       ??$extract_argument_from_va_list@I_J@?$positional_parameter_base@DV?$string_output_adapter@D@__crt_stdio_output@@@__crt_stdio_output@@IAE_NAA_J@Z 1002ab1f f i libucrt:output.obj
 0001:00029bbf       ??$extract_argument_from_va_list@I_J@?$positional_parameter_base@_WV?$stream_output_adapter@_W@__crt_stdio_output@@@__crt_stdio_output@@IAE_NAA_J@Z 1002abbf f i libucrt:output.obj
 0001:00029c5f       ??$extract_argument_from_va_list@I_J@?$positional_parameter_base@_WV?$string_output_adapter@_W@__crt_stdio_output@@@__crt_stdio_output@@IAE_NAA_J@Z 1002ac5f f i libucrt:output.obj
 0001:00029cff       ??$extract_argument_from_va_list@I_J@?$standard_base@DV?$stream_output_adapter@D@__crt_stdio_output@@@__crt_stdio_output@@IAE_NAA_J@Z 1002acff f i libucrt:output.obj
 0001:00029d24       ??$extract_argument_from_va_list@I_J@?$standard_base@DV?$string_output_adapter@D@__crt_stdio_output@@@__crt_stdio_output@@IAE_NAA_J@Z 1002ad24 f i libucrt:output.obj
 0001:00029d49       ??$extract_argument_from_va_list@I_J@?$standard_base@_WV?$stream_output_adapter@_W@__crt_stdio_output@@@__crt_stdio_output@@IAE_NAA_J@Z 1002ad49 f i libucrt:output.obj
 0001:00029d6e       ??$extract_argument_from_va_list@I_J@?$standard_base@_WV?$string_output_adapter@_W@__crt_stdio_output@@@__crt_stdio_output@@IAE_NAA_J@Z 1002ad6e f i libucrt:output.obj
 0001:00029d93       ??$extract_argument_from_va_list@PADPAD@?$positional_parameter_base@DV?$stream_output_adapter@D@__crt_stdio_output@@@__crt_stdio_output@@IAE_NAAPAD@Z 1002ad93 f i libucrt:output.obj
 0001:00029e29       ??$extract_argument_from_va_list@PADPAD@?$positional_parameter_base@DV?$string_output_adapter@D@__crt_stdio_output@@@__crt_stdio_output@@IAE_NAAPAD@Z 1002ae29 f i libucrt:output.obj
 0001:00029ebf       ??$extract_argument_from_va_list@PADPAD@?$positional_parameter_base@_WV?$stream_output_adapter@_W@__crt_stdio_output@@@__crt_stdio_output@@IAE_NAAPAD@Z 1002aebf f i libucrt:output.obj
 0001:00029f55       ??$extract_argument_from_va_list@PADPAD@?$positional_parameter_base@_WV?$string_output_adapter@_W@__crt_stdio_output@@@__crt_stdio_output@@IAE_NAAPAD@Z 1002af55 f i libucrt:output.obj
 0001:00029feb       ??$extract_argument_from_va_list@PADPAD@?$standard_base@DV?$stream_output_adapter@D@__crt_stdio_output@@@__crt_stdio_output@@IAE_NAAPAD@Z 1002afeb f i libucrt:output.obj
 0001:0002a00b       ??$extract_argument_from_va_list@PADPAD@?$standard_base@DV?$string_output_adapter@D@__crt_stdio_output@@@__crt_stdio_output@@IAE_NAAPAD@Z 1002b00b f i libucrt:output.obj
 0001:0002a02b       ??$extract_argument_from_va_list@PADPAD@?$standard_base@_WV?$stream_output_adapter@_W@__crt_stdio_output@@@__crt_stdio_output@@IAE_NAAPAD@Z 1002b02b f i libucrt:output.obj
 0001:0002a04b       ??$extract_argument_from_va_list@PADPAD@?$standard_base@_WV?$string_output_adapter@_W@__crt_stdio_output@@@__crt_stdio_output@@IAE_NAAPAD@Z 1002b04b f i libucrt:output.obj
 0001:0002a443       ??$extract_argument_from_va_list@PAXPAX@?$positional_parameter_base@DV?$stream_output_adapter@D@__crt_stdio_output@@@__crt_stdio_output@@IAE_NAAPAX@Z 1002b443 f i libucrt:output.obj
 0001:0002a4d9       ??$extract_argument_from_va_list@PAXPAX@?$positional_parameter_base@DV?$string_output_adapter@D@__crt_stdio_output@@@__crt_stdio_output@@IAE_NAAPAX@Z 1002b4d9 f i libucrt:output.obj
 0001:0002a56f       ??$extract_argument_from_va_list@PAXPAX@?$positional_parameter_base@_WV?$stream_output_adapter@_W@__crt_stdio_output@@@__crt_stdio_output@@IAE_NAAPAX@Z 1002b56f f i libucrt:output.obj
 0001:0002a605       ??$extract_argument_from_va_list@PAXPAX@?$positional_parameter_base@_WV?$string_output_adapter@_W@__crt_stdio_output@@@__crt_stdio_output@@IAE_NAAPAX@Z 1002b605 f i libucrt:output.obj
 0001:0002a69b       ??$extract_argument_from_va_list@PAXPAX@?$standard_base@DV?$stream_output_adapter@D@__crt_stdio_output@@@__crt_stdio_output@@IAE_NAAPAX@Z 1002b69b f i libucrt:output.obj
 0001:0002a6bb       ??$extract_argument_from_va_list@PAXPAX@?$standard_base@DV?$string_output_adapter@D@__crt_stdio_output@@@__crt_stdio_output@@IAE_NAAPAX@Z 1002b6bb f i libucrt:output.obj
 0001:0002a6db       ??$extract_argument_from_va_list@PAXPAX@?$standard_base@_WV?$stream_output_adapter@_W@__crt_stdio_output@@@__crt_stdio_output@@IAE_NAAPAX@Z 1002b6db f i libucrt:output.obj
 0001:0002a6fb       ??$extract_argument_from_va_list@PAXPAX@?$standard_base@_WV?$string_output_adapter@_W@__crt_stdio_output@@@__crt_stdio_output@@IAE_NAAPAX@Z 1002b6fb f i libucrt:output.obj
 0001:0002a71b       ??$extract_argument_from_va_list@U_CRT_DOUBLE@@U1@@?$positional_parameter_base@DV?$stream_output_adapter@D@__crt_stdio_output@@@__crt_stdio_output@@IAE_NAAU_CRT_DOUBLE@@@Z 1002b71b f i libucrt:output.obj
 0001:0002a7c2       ??$extract_argument_from_va_list@U_CRT_DOUBLE@@U1@@?$positional_parameter_base@DV?$string_output_adapter@D@__crt_stdio_output@@@__crt_stdio_output@@IAE_NAAU_CRT_DOUBLE@@@Z 1002b7c2 f i libucrt:output.obj
 0001:0002a869       ??$extract_argument_from_va_list@U_CRT_DOUBLE@@U1@@?$positional_parameter_base@_WV?$stream_output_adapter@_W@__crt_stdio_output@@@__crt_stdio_output@@IAE_NAAU_CRT_DOUBLE@@@Z 1002b869 f i libucrt:output.obj
 0001:0002a910       ??$extract_argument_from_va_list@U_CRT_DOUBLE@@U1@@?$positional_parameter_base@_WV?$string_output_adapter@_W@__crt_stdio_output@@@__crt_stdio_output@@IAE_NAAU_CRT_DOUBLE@@@Z 1002b910 f i libucrt:output.obj
 0001:0002a9b7       ??$extract_argument_from_va_list@U_CRT_DOUBLE@@U1@@?$standard_base@DV?$stream_output_adapter@D@__crt_stdio_output@@@__crt_stdio_output@@IAE_NAAU_CRT_DOUBLE@@@Z 1002b9b7 f i libucrt:output.obj
 0001:0002a9df       ??$extract_argument_from_va_list@U_CRT_DOUBLE@@U1@@?$standard_base@DV?$string_output_adapter@D@__crt_stdio_output@@@__crt_stdio_output@@IAE_NAAU_CRT_DOUBLE@@@Z 1002b9df f i libucrt:output.obj
 0001:0002aa07       ??$extract_argument_from_va_list@U_CRT_DOUBLE@@U1@@?$standard_base@_WV?$stream_output_adapter@_W@__crt_stdio_output@@@__crt_stdio_output@@IAE_NAAU_CRT_DOUBLE@@@Z 1002ba07 f i libucrt:output.obj
 0001:0002aa2f       ??$extract_argument_from_va_list@U_CRT_DOUBLE@@U1@@?$standard_base@_WV?$string_output_adapter@_W@__crt_stdio_output@@@__crt_stdio_output@@IAE_NAAU_CRT_DOUBLE@@@Z 1002ba2f f i libucrt:output.obj
 0001:0002aa57       ??$extract_argument_from_va_list@_J_J@?$positional_parameter_base@DV?$stream_output_adapter@D@__crt_stdio_output@@@__crt_stdio_output@@IAE_NAA_J@Z 1002ba57 f i libucrt:output.obj
 0001:0002aafe       ??$extract_argument_from_va_list@_J_J@?$positional_parameter_base@DV?$string_output_adapter@D@__crt_stdio_output@@@__crt_stdio_output@@IAE_NAA_J@Z 1002bafe f i libucrt:output.obj
 0001:0002aba5       ??$extract_argument_from_va_list@_J_J@?$positional_parameter_base@_WV?$stream_output_adapter@_W@__crt_stdio_output@@@__crt_stdio_output@@IAE_NAA_J@Z 1002bba5 f i libucrt:output.obj
 0001:0002ac4c       ??$extract_argument_from_va_list@_J_J@?$positional_parameter_base@_WV?$string_output_adapter@_W@__crt_stdio_output@@@__crt_stdio_output@@IAE_NAA_J@Z 1002bc4c f i libucrt:output.obj
 0001:0002acf3       ??$extract_argument_from_va_list@_J_J@?$standard_base@DV?$stream_output_adapter@D@__crt_stdio_output@@@__crt_stdio_output@@IAE_NAA_J@Z 1002bcf3 f i libucrt:output.obj
 0001:0002ad1b       ??$extract_argument_from_va_list@_J_J@?$standard_base@DV?$string_output_adapter@D@__crt_stdio_output@@@__crt_stdio_output@@IAE_NAA_J@Z 1002bd1b f i libucrt:output.obj
 0001:0002ad43       ??$extract_argument_from_va_list@_J_J@?$standard_base@_WV?$stream_output_adapter@_W@__crt_stdio_output@@@__crt_stdio_output@@IAE_NAA_J@Z 1002bd43 f i libucrt:output.obj
 0001:0002ad6b       ??$extract_argument_from_va_list@_J_J@?$standard_base@_WV?$string_output_adapter@_W@__crt_stdio_output@@@__crt_stdio_output@@IAE_NAA_J@Z 1002bd6b f i libucrt:output.obj
 0001:0002ad93       ??$extract_argument_from_va_list@_K_J@?$positional_parameter_base@DV?$stream_output_adapter@D@__crt_stdio_output@@@__crt_stdio_output@@IAE_NAA_J@Z 1002bd93 f i libucrt:output.obj
 0001:0002ae3a       ??$extract_argument_from_va_list@_K_J@?$positional_parameter_base@DV?$string_output_adapter@D@__crt_stdio_output@@@__crt_stdio_output@@IAE_NAA_J@Z 1002be3a f i libucrt:output.obj
 0001:0002aee1       ??$extract_argument_from_va_list@_K_J@?$positional_parameter_base@_WV?$stream_output_adapter@_W@__crt_stdio_output@@@__crt_stdio_output@@IAE_NAA_J@Z 1002bee1 f i libucrt:output.obj
 0001:0002af88       ??$extract_argument_from_va_list@_K_J@?$positional_parameter_base@_WV?$string_output_adapter@_W@__crt_stdio_output@@@__crt_stdio_output@@IAE_NAA_J@Z 1002bf88 f i libucrt:output.obj
 0001:0002b02f       ??$extract_argument_from_va_list@_K_J@?$standard_base@DV?$stream_output_adapter@D@__crt_stdio_output@@@__crt_stdio_output@@IAE_NAA_J@Z 1002c02f f i libucrt:output.obj
 0001:0002b057       ??$extract_argument_from_va_list@_K_J@?$standard_base@DV?$string_output_adapter@D@__crt_stdio_output@@@__crt_stdio_output@@IAE_NAA_J@Z 1002c057 f i libucrt:output.obj
 0001:0002b07f       ??$extract_argument_from_va_list@_K_J@?$standard_base@_WV?$stream_output_adapter@_W@__crt_stdio_output@@@__crt_stdio_output@@IAE_NAA_J@Z 1002c07f f i libucrt:output.obj
 0001:0002b0a7       ??$extract_argument_from_va_list@_K_J@?$standard_base@_WV?$string_output_adapter@_W@__crt_stdio_output@@@__crt_stdio_output@@IAE_NAA_J@Z 1002c0a7 f i libucrt:output.obj
 0001:0002b0cf       ??$extract_argument_from_va_list@_W_W@?$positional_parameter_base@DV?$stream_output_adapter@D@__crt_stdio_output@@@__crt_stdio_output@@IAE_NAA_W@Z 1002c0cf f i libucrt:output.obj
 0001:0002b16a       ??$extract_argument_from_va_list@_W_W@?$positional_parameter_base@DV?$string_output_adapter@D@__crt_stdio_output@@@__crt_stdio_output@@IAE_NAA_W@Z 1002c16a f i libucrt:output.obj
 0001:0002b205       ??$extract_argument_from_va_list@_W_W@?$positional_parameter_base@_WV?$stream_output_adapter@_W@__crt_stdio_output@@@__crt_stdio_output@@IAE_NAA_W@Z 1002c205 f i libucrt:output.obj
 0001:0002b2a0       ??$extract_argument_from_va_list@_W_W@?$positional_parameter_base@_WV?$string_output_adapter@_W@__crt_stdio_output@@@__crt_stdio_output@@IAE_NAA_W@Z 1002c2a0 f i libucrt:output.obj
 0001:0002b33b       ??$extract_argument_from_va_list@_W_W@?$standard_base@DV?$stream_output_adapter@D@__crt_stdio_output@@@__crt_stdio_output@@IAE_NAA_W@Z 1002c33b f i libucrt:output.obj
 0001:0002b35e       ??$extract_argument_from_va_list@_W_W@?$standard_base@DV?$string_output_adapter@D@__crt_stdio_output@@@__crt_stdio_output@@IAE_NAA_W@Z 1002c35e f i libucrt:output.obj
 0001:0002b381       ??$extract_argument_from_va_list@_W_W@?$standard_base@_WV?$stream_output_adapter@_W@__crt_stdio_output@@@__crt_stdio_output@@IAE_NAA_W@Z 1002c381 f i libucrt:output.obj
 0001:0002b3a4       ??$extract_argument_from_va_list@_W_W@?$standard_base@_WV?$string_output_adapter@_W@__crt_stdio_output@@@__crt_stdio_output@@IAE_NAA_W@Z 1002c3a4 f i libucrt:output.obj
 0001:0002b3c7       ??$get_parameter_type@D@?$positional_parameter_base@DV?$stream_output_adapter@D@__crt_stdio_output@@@__crt_stdio_output@@CA?AW4parameter_type@01@PAD@Z 1002c3c7 f i libucrt:output.obj
 0001:0002b3cb       ??$get_parameter_type@D@?$positional_parameter_base@DV?$string_output_adapter@D@__crt_stdio_output@@@__crt_stdio_output@@CA?AW4parameter_type@01@PAD@Z 1002c3cb f i libucrt:output.obj
 0001:0002b3cf       ??$get_parameter_type@D@?$positional_parameter_base@_WV?$stream_output_adapter@_W@__crt_stdio_output@@@__crt_stdio_output@@CA?AW4parameter_type@01@PAD@Z 1002c3cf f i libucrt:output.obj
 0001:0002b3d3       ??$get_parameter_type@D@?$positional_parameter_base@_WV?$string_output_adapter@_W@__crt_stdio_output@@@__crt_stdio_output@@CA?AW4parameter_type@01@PAD@Z 1002c3d3 f i libucrt:output.obj
 0001:0002b3e7       ??$get_parameter_type@X@?$positional_parameter_base@DV?$stream_output_adapter@D@__crt_stdio_output@@@__crt_stdio_output@@CA?AW4parameter_type@01@PAX@Z 1002c3e7 f i libucrt:output.obj
 0001:0002b3eb       ??$get_parameter_type@X@?$positional_parameter_base@DV?$string_output_adapter@D@__crt_stdio_output@@@__crt_stdio_output@@CA?AW4parameter_type@01@PAX@Z 1002c3eb f i libucrt:output.obj
 0001:0002b3ef       ??$get_parameter_type@X@?$positional_parameter_base@_WV?$stream_output_adapter@_W@__crt_stdio_output@@@__crt_stdio_output@@CA?AW4parameter_type@01@PAX@Z 1002c3ef f i libucrt:output.obj
 0001:0002b3f3       ??$get_parameter_type@X@?$positional_parameter_base@_WV?$string_output_adapter@_W@__crt_stdio_output@@@__crt_stdio_output@@CA?AW4parameter_type@01@PAX@Z 1002c3f3 f i libucrt:output.obj
 0001:0002b3f7       ??$is_character_specifier@D@?$positional_parameter_base@DV?$stream_output_adapter@D@__crt_stdio_output@@@__crt_stdio_output@@CA_ND@Z 1002c3f7 f i libucrt:output.obj
 0001:0002b415       ??$is_character_specifier@D@?$positional_parameter_base@DV?$string_output_adapter@D@__crt_stdio_output@@@__crt_stdio_output@@CA_ND@Z 1002c415 f i libucrt:output.obj
 0001:0002b433       ??$is_character_specifier@_W@?$positional_parameter_base@_WV?$stream_output_adapter@_W@__crt_stdio_output@@@__crt_stdio_output@@CA_N_W@Z 1002c433 f i libucrt:output.obj
 0001:0002b454       ??$is_character_specifier@_W@?$positional_parameter_base@_WV?$string_output_adapter@_W@__crt_stdio_output@@@__crt_stdio_output@@CA_N_W@Z 1002c454 f i libucrt:output.obj
 0001:0002b475       ??$is_integral_specifier@D@?$positional_parameter_base@DV?$stream_output_adapter@D@__crt_stdio_output@@@__crt_stdio_output@@CA_ND@Z 1002c475 f i libucrt:output.obj
 0001:0002b4ac       ??$is_integral_specifier@D@?$positional_parameter_base@DV?$string_output_adapter@D@__crt_stdio_output@@@__crt_stdio_output@@CA_ND@Z 1002c4ac f i libucrt:output.obj
 0001:0002b4e3       ??$is_integral_specifier@_W@?$positional_parameter_base@_WV?$stream_output_adapter@_W@__crt_stdio_output@@@__crt_stdio_output@@CA_N_W@Z 1002c4e3 f i libucrt:output.obj
 0001:0002b52c       ??$is_integral_specifier@_W@?$positional_parameter_base@_WV?$string_output_adapter@_W@__crt_stdio_output@@@__crt_stdio_output@@CA_N_W@Z 1002c52c f i libucrt:output.obj
 0001:0002b575       ??$is_pointer_specifier@D@?$positional_parameter_base@DV?$stream_output_adapter@D@__crt_stdio_output@@@__crt_stdio_output@@CA_ND@Z 1002c575 f i libucrt:output.obj
 0001:0002b586       ??$is_pointer_specifier@D@?$positional_parameter_base@DV?$string_output_adapter@D@__crt_stdio_output@@@__crt_stdio_output@@CA_ND@Z 1002c586 f i libucrt:output.obj
 0001:0002b597       ??$is_pointer_specifier@_W@?$positional_parameter_base@_WV?$stream_output_adapter@_W@__crt_stdio_output@@@__crt_stdio_output@@CA_N_W@Z 1002c597 f i libucrt:output.obj
 0001:0002b5a9       ??$is_pointer_specifier@_W@?$positional_parameter_base@_WV?$string_output_adapter@_W@__crt_stdio_output@@@__crt_stdio_output@@CA_N_W@Z 1002c5a9 f i libucrt:output.obj
 0001:0002b5bb       ??$is_string_specifier@D@?$positional_parameter_base@DV?$stream_output_adapter@D@__crt_stdio_output@@@__crt_stdio_output@@CA_ND@Z 1002c5bb f i libucrt:output.obj
 0001:0002b5d9       ??$is_string_specifier@D@?$positional_parameter_base@DV?$string_output_adapter@D@__crt_stdio_output@@@__crt_stdio_output@@CA_ND@Z 1002c5d9 f i libucrt:output.obj
 0001:0002b5f7       ??$is_string_specifier@_W@?$positional_parameter_base@_WV?$stream_output_adapter@_W@__crt_stdio_output@@@__crt_stdio_output@@CA_N_W@Z 1002c5f7 f i libucrt:output.obj
 0001:0002b618       ??$is_string_specifier@_W@?$positional_parameter_base@_WV?$string_output_adapter@_W@__crt_stdio_output@@@__crt_stdio_output@@CA_N_W@Z 1002c618 f i libucrt:output.obj
 0001:0002b639       ??$is_wide_character_specifier@D@__crt_stdio_output@@YA_N_KDW4length_modifier@0@@Z 1002c639 f i libucrt:output.obj
 0001:0002b676       ??$is_wide_character_specifier@_W@__crt_stdio_output@@YA_N_K_WW4length_modifier@0@@Z 1002c676 f i libucrt:output.obj
 0001:0002b6d7       ??$peek_va_arg@C@__crt_stdio_output@@YACPAD@Z 1002c6d7 f i libucrt:output.obj
 0001:0002b6e6       ??$peek_va_arg@E@__crt_stdio_output@@YAEPAD@Z 1002c6e6 f i libucrt:output.obj
 0001:0002b6f5       ??$peek_va_arg@F@__crt_stdio_output@@YAFPAD@Z 1002c6f5 f i libucrt:output.obj
 0001:0002b705       ??$peek_va_arg@G@__crt_stdio_output@@YAGPAD@Z 1002c705 f i libucrt:output.obj
 0001:0002b715       ??$peek_va_arg@H@__crt_stdio_output@@YAHPAD@Z 1002c715 f i libucrt:output.obj
 0001:0002b724       ??$peek_va_arg@I@__crt_stdio_output@@YAIPAD@Z 1002c724 f i libucrt:output.obj
 0001:0002b733       ??$peek_va_arg@PAD@__crt_stdio_output@@YAPADPAD@Z 1002c733 f i libucrt:output.obj
 0001:0002b77e       ??$peek_va_arg@PAX@__crt_stdio_output@@YAPAXPAD@Z 1002c77e f i libucrt:output.obj
 0001:0002b78d       ??$peek_va_arg@U_CRT_DOUBLE@@@__crt_stdio_output@@YA?AU_CRT_DOUBLE@@PAD@Z 1002c78d f i libucrt:output.obj
 0001:0002b79f       ??$peek_va_arg@_J@__crt_stdio_output@@YA_JPAD@Z 1002c79f f i libucrt:output.obj
 0001:0002b7b1       ??$peek_va_arg@_K@__crt_stdio_output@@YA_KPAD@Z 1002c7b1 f i libucrt:output.obj
 0001:0002b7c3       ??$peek_va_arg@_W@__crt_stdio_output@@YA_WPAD@Z 1002c7c3 f i libucrt:output.obj
 0001:0002b7d3       ??$puttc_nolock@ABDPAU_iobuf@@@?$__crt_char_traits@D@@SAHABD$$QAPAU_iobuf@@@Z 1002c7d3 f i libucrt:output.obj
 0001:0002b7f3       ??$puttc_nolock@AB_WPAU_iobuf@@@?$__crt_char_traits@_W@@SAGAB_W$$QAPAU_iobuf@@@Z 1002c7f3 f i libucrt:output.obj
 0001:0002b813       ??$read_va_arg@C@__crt_stdio_output@@YACAAPAD@Z 1002c813 f i libucrt:output.obj
 0001:0002b829       ??$read_va_arg@E@__crt_stdio_output@@YAEAAPAD@Z 1002c829 f i libucrt:output.obj
 0001:0002b83f       ??$read_va_arg@F@__crt_stdio_output@@YAFAAPAD@Z 1002c83f f i libucrt:output.obj
 0001:0002b856       ??$read_va_arg@G@__crt_stdio_output@@YAGAAPAD@Z 1002c856 f i libucrt:output.obj
 0001:0002b86d       ??$read_va_arg@H@__crt_stdio_output@@YAHAAPAD@Z 1002c86d f i libucrt:output.obj
 0001:0002b883       ??$read_va_arg@I@__crt_stdio_output@@YAIAAPAD@Z 1002c883 f i libucrt:output.obj
 0001:0002b899       ??$read_va_arg@PAD@__crt_stdio_output@@YAPADAAPAD@Z 1002c899 f i libucrt:output.obj
 0001:0002b9b7       ??$read_va_arg@PAX@__crt_stdio_output@@YAPAXAAPAD@Z 1002c9b7 f i libucrt:output.obj
 0001:0002b9cd       ??$read_va_arg@U_CRT_DOUBLE@@@__crt_stdio_output@@YA?AU_CRT_DOUBLE@@AAPAD@Z 1002c9cd f i libucrt:output.obj
 0001:0002b9e8       ??$read_va_arg@_J@__crt_stdio_output@@YA_JAAPAD@Z 1002c9e8 f i libucrt:output.obj
 0001:0002ba02       ??$read_va_arg@_K@__crt_stdio_output@@YA_KAAPAD@Z 1002ca02 f i libucrt:output.obj
 0001:0002ba1c       ??$read_va_arg@_W@__crt_stdio_output@@YA_WAAPAD@Z 1002ca1c f i libucrt:output.obj
 0001:0002ba33       ??$scratch_count@D@formatting_buffer@__crt_stdio_output@@QBEIXZ 1002ca33 f i libucrt:output.obj
 0001:0002ba38       ??$scratch_data@D@formatting_buffer@__crt_stdio_output@@QAEPADXZ 1002ca38 f i libucrt:output.obj
 0001:0002ba5d       ??$tcstol@AAPBDPAPADH@?$__crt_char_traits@D@@SAJAAPBD$$QAPAPAD$$QAH@Z 1002ca5d f i libucrt:output.obj
 0001:0002ba82       ??$tcstol@AAPB_WPAPA_WH@?$__crt_char_traits@_W@@SAJAAPB_W$$QAPAPA_W$$QAH@Z 1002ca82 f i libucrt:output.obj
 0001:0002baa7       ??$tcstol@PBDPAPADH@?$__crt_char_traits@D@@SAJ$$QAPBD$$QAPAPAD$$QAH@Z 1002caa7 f i libucrt:output.obj
 0001:0002bacc       ??$tcstol@PB_WPAPA_WH@?$__crt_char_traits@_W@@SAJ$$QAPB_W$$QAPAPA_W$$QAH@Z 1002cacc f i libucrt:output.obj
 0001:0002baf1       ??$type_case_integer_parse_into_buffer@I@?$output_processor@DV?$stream_output_adapter@D@__crt_stdio_output@@V?$format_validation_base@DV?$stream_output_adapter@D@__crt_stdio_output@@@2@@__crt_stdio_output@@AAEXII_N@Z 1002caf1 f i libucrt:output.obj
 0001:0002bb80       ??$type_case_integer_parse_into_buffer@I@?$output_processor@DV?$stream_output_adapter@D@__crt_stdio_output@@V?$positional_parameter_base@DV?$stream_output_adapter@D@__crt_stdio_output@@@2@@__crt_stdio_output@@AAEXII_N@Z 1002cb80 f i libucrt:output.obj
 0001:0002bc0f       ??$type_case_integer_parse_into_buffer@I@?$output_processor@DV?$stream_output_adapter@D@__crt_stdio_output@@V?$standard_base@DV?$stream_output_adapter@D@__crt_stdio_output@@@2@@__crt_stdio_output@@AAEXII_N@Z 1002cc0f f i libucrt:output.obj
 0001:0002bc9e       ??$type_case_integer_parse_into_buffer@I@?$output_processor@DV?$string_output_adapter@D@__crt_stdio_output@@V?$format_validation_base@DV?$string_output_adapter@D@__crt_stdio_output@@@2@@__crt_stdio_output@@AAEXII_N@Z 1002cc9e f i libucrt:output.obj
 0001:0002bd2d       ??$type_case_integer_parse_into_buffer@I@?$output_processor@DV?$string_output_adapter@D@__crt_stdio_output@@V?$positional_parameter_base@DV?$string_output_adapter@D@__crt_stdio_output@@@2@@__crt_stdio_output@@AAEXII_N@Z 1002cd2d f i libucrt:output.obj
 0001:0002bdbc       ??$type_case_integer_parse_into_buffer@I@?$output_processor@DV?$string_output_adapter@D@__crt_stdio_output@@V?$standard_base@DV?$string_output_adapter@D@__crt_stdio_output@@@2@@__crt_stdio_output@@AAEXII_N@Z 1002cdbc f i libucrt:output.obj
 0001:0002be4b       ??$type_case_integer_parse_into_buffer@I@?$output_processor@_WV?$stream_output_adapter@_W@__crt_stdio_output@@V?$format_validation_base@_WV?$stream_output_adapter@_W@__crt_stdio_output@@@2@@__crt_stdio_output@@AAEXII_N@Z 1002ce4b f i libucrt:output.obj
 0001:0002beeb       ??$type_case_integer_parse_into_buffer@I@?$output_processor@_WV?$stream_output_adapter@_W@__crt_stdio_output@@V?$positional_parameter_base@_WV?$stream_output_adapter@_W@__crt_stdio_output@@@2@@__crt_stdio_output@@AAEXII_N@Z 1002ceeb f i libucrt:output.obj
 0001:0002bf8b       ??$type_case_integer_parse_into_buffer@I@?$output_processor@_WV?$stream_output_adapter@_W@__crt_stdio_output@@V?$standard_base@_WV?$stream_output_adapter@_W@__crt_stdio_output@@@2@@__crt_stdio_output@@AAEXII_N@Z 1002cf8b f i libucrt:output.obj
 0001:0002c02b       ??$type_case_integer_parse_into_buffer@I@?$output_processor@_WV?$string_output_adapter@_W@__crt_stdio_output@@V?$format_validation_base@_WV?$string_output_adapter@_W@__crt_stdio_output@@@2@@__crt_stdio_output@@AAEXII_N@Z 1002d02b f i libucrt:output.obj
 0001:0002c0cb       ??$type_case_integer_parse_into_buffer@I@?$output_processor@_WV?$string_output_adapter@_W@__crt_stdio_output@@V?$positional_parameter_base@_WV?$string_output_adapter@_W@__crt_stdio_output@@@2@@__crt_stdio_output@@AAEXII_N@Z 1002d0cb f i libucrt:output.obj
 0001:0002c16b       ??$type_case_integer_parse_into_buffer@I@?$output_processor@_WV?$string_output_adapter@_W@__crt_stdio_output@@V?$standard_base@_WV?$string_output_adapter@_W@__crt_stdio_output@@@2@@__crt_stdio_output@@AAEXII_N@Z 1002d16b f i libucrt:output.obj
 0001:0002c20b       ??$type_case_integer_parse_into_buffer@_K@?$output_processor@DV?$stream_output_adapter@D@__crt_stdio_output@@V?$format_validation_base@DV?$stream_output_adapter@D@__crt_stdio_output@@@2@@__crt_stdio_output@@AAEX_KI_N@Z 1002d20b f i libucrt:output.obj
 0001:0002c2bd       ??$type_case_integer_parse_into_buffer@_K@?$output_processor@DV?$stream_output_adapter@D@__crt_stdio_output@@V?$positional_parameter_base@DV?$stream_output_adapter@D@__crt_stdio_output@@@2@@__crt_stdio_output@@AAEX_KI_N@Z 1002d2bd f i libucrt:output.obj
 0001:0002c36f       ??$type_case_integer_parse_into_buffer@_K@?$output_processor@DV?$stream_output_adapter@D@__crt_stdio_output@@V?$standard_base@DV?$stream_output_adapter@D@__crt_stdio_output@@@2@@__crt_stdio_output@@AAEX_KI_N@Z 1002d36f f i libucrt:output.obj
 0001:0002c421       ??$type_case_integer_parse_into_buffer@_K@?$output_processor@DV?$string_output_adapter@D@__crt_stdio_output@@V?$format_validation_base@DV?$string_output_adapter@D@__crt_stdio_output@@@2@@__crt_stdio_output@@AAEX_KI_N@Z 1002d421 f i libucrt:output.obj
 0001:0002c4d3       ??$type_case_integer_parse_into_buffer@_K@?$output_processor@DV?$string_output_adapter@D@__crt_stdio_output@@V?$positional_parameter_base@DV?$string_output_adapter@D@__crt_stdio_output@@@2@@__crt_stdio_output@@AAEX_KI_N@Z 1002d4d3 f i libucrt:output.obj
 0001:0002c585       ??$type_case_integer_parse_into_buffer@_K@?$output_processor@DV?$string_output_adapter@D@__crt_stdio_output@@V?$standard_base@DV?$string_output_adapter@D@__crt_stdio_output@@@2@@__crt_stdio_output@@AAEX_KI_N@Z 1002d585 f i libucrt:output.obj
 0001:0002c637       ??$type_case_integer_parse_into_buffer@_K@?$output_processor@_WV?$stream_output_adapter@_W@__crt_stdio_output@@V?$format_validation_base@_WV?$stream_output_adapter@_W@__crt_stdio_output@@@2@@__crt_stdio_output@@AAEX_KI_N@Z 1002d637 f i libucrt:output.obj
 0001:0002c6fa       ??$type_case_integer_parse_into_buffer@_K@?$output_processor@_WV?$stream_output_adapter@_W@__crt_stdio_output@@V?$positional_parameter_base@_WV?$stream_output_adapter@_W@__crt_stdio_output@@@2@@__crt_stdio_output@@AAEX_KI_N@Z 1002d6fa f i libucrt:output.obj
 0001:0002c7bd       ??$type_case_integer_parse_into_buffer@_K@?$output_processor@_WV?$stream_output_adapter@_W@__crt_stdio_output@@V?$standard_base@_WV?$stream_output_adapter@_W@__crt_stdio_output@@@2@@__crt_stdio_output@@AAEX_KI_N@Z 1002d7bd f i libucrt:output.obj
 0001:0002c880       ??$type_case_integer_parse_into_buffer@_K@?$output_processor@_WV?$string_output_adapter@_W@__crt_stdio_output@@V?$format_validation_base@_WV?$string_output_adapter@_W@__crt_stdio_output@@@2@@__crt_stdio_output@@AAEX_KI_N@Z 1002d880 f i libucrt:output.obj
 0001:0002c943       ??$type_case_integer_parse_into_buffer@_K@?$output_processor@_WV?$string_output_adapter@_W@__crt_stdio_output@@V?$positional_parameter_base@_WV?$string_output_adapter@_W@__crt_stdio_output@@@2@@__crt_stdio_output@@AAEX_KI_N@Z 1002d943 f i libucrt:output.obj
 0001:0002ca06       ??$type_case_integer_parse_into_buffer@_K@?$output_processor@_WV?$string_output_adapter@_W@__crt_stdio_output@@V?$standard_base@_WV?$string_output_adapter@_W@__crt_stdio_output@@@2@@__crt_stdio_output@@AAEX_KI_N@Z 1002da06 f i libucrt:output.obj
 0001:0002cac9       ??$write_multiple_characters@V?$stream_output_adapter@D@__crt_stdio_output@@D@__crt_stdio_output@@YAXABV?$stream_output_adapter@D@0@DHQAH@Z 1002dac9 f i libucrt:output.obj
 0001:0002cb12       ??$write_multiple_characters@V?$stream_output_adapter@_W@__crt_stdio_output@@D@__crt_stdio_output@@YAXABV?$stream_output_adapter@_W@0@DHQAH@Z 1002db12 f i libucrt:output.obj
 0001:0002cb62       ??$write_multiple_characters@V?$string_output_adapter@D@__crt_stdio_output@@D@__crt_stdio_output@@YAXABV?$string_output_adapter@D@0@DHQAH@Z 1002db62 f i libucrt:output.obj
 0001:0002cb99       ??$write_multiple_characters@V?$string_output_adapter@_W@__crt_stdio_output@@D@__crt_stdio_output@@YAXABV?$string_output_adapter@_W@0@DHQAH@Z 1002db99 f i libucrt:output.obj
 0001:0002ce0a       ??0?$common_data@D@__crt_stdio_output@@IAE@XZ 1002de0a f i libucrt:output.obj
 0001:0002ce62       ??0?$common_data@_W@__crt_stdio_output@@IAE@XZ 1002de62 f i libucrt:output.obj
 0001:0002cec1       ??0?$output_adapter_data@DV?$stream_output_adapter@D@__crt_stdio_output@@@__crt_stdio_output@@IAE@ABV?$stream_output_adapter@D@1@_KQBDQAU__crt_locale_pointers@@QAD@Z 1002dec1 f i libucrt:output.obj
 0001:0002cf0c       ??0?$output_adapter_data@DV?$string_output_adapter@D@__crt_stdio_output@@@__crt_stdio_output@@IAE@ABV?$string_output_adapter@D@1@_KQBDQAU__crt_locale_pointers@@QAD@Z 1002df0c f i libucrt:output.obj
 0001:0002cf57       ??0?$output_adapter_data@_WV?$stream_output_adapter@_W@__crt_stdio_output@@@__crt_stdio_output@@IAE@ABV?$stream_output_adapter@_W@1@_KQB_WQAU__crt_locale_pointers@@QAD@Z 1002df57 f i libucrt:output.obj
 0001:0002cfa2       ??0?$output_adapter_data@_WV?$string_output_adapter@_W@__crt_stdio_output@@@__crt_stdio_output@@IAE@ABV?$string_output_adapter@_W@1@_KQB_WQAU__crt_locale_pointers@@QAD@Z 1002dfa2 f i libucrt:output.obj
 0001:0002cfed       ??0?$output_processor@DV?$stream_output_adapter@D@__crt_stdio_output@@V?$format_validation_base@DV?$stream_output_adapter@D@__crt_stdio_output@@@2@@__crt_stdio_output@@QAE@ABV?$stream_output_adapter@D@1@_KQBDQAU__crt_locale_pointers@@QAD@Z 1002dfed f i libucrt:output.obj
 0001:0002d025       ??0?$output_processor@DV?$stream_output_adapter@D@__crt_stdio_output@@V?$positional_parameter_base@DV?$stream_output_adapter@D@__crt_stdio_output@@@2@@__crt_stdio_output@@QAE@ABV?$stream_output_adapter@D@1@_KQBDQAU__crt_locale_pointers@@QAD@Z 1002e025 f i libucrt:output.obj
 0001:0002d055       ??0?$output_processor@DV?$stream_output_adapter@D@__crt_stdio_output@@V?$standard_base@DV?$stream_output_adapter@D@__crt_stdio_output@@@2@@__crt_stdio_output@@QAE@ABV?$stream_output_adapter@D@1@_KQBDQAU__crt_locale_pointers@@QAD@Z 1002e055 f i libucrt:output.obj
 0001:0002d08d       ??0?$output_processor@DV?$string_output_adapter@D@__crt_stdio_output@@V?$format_validation_base@DV?$string_output_adapter@D@__crt_stdio_output@@@2@@__crt_stdio_output@@QAE@ABV?$string_output_adapter@D@1@_KQBDQAU__crt_locale_pointers@@QAD@Z 1002e08d f i libucrt:output.obj
 0001:0002d0c5       ??0?$output_processor@DV?$string_output_adapter@D@__crt_stdio_output@@V?$positional_parameter_base@DV?$string_output_adapter@D@__crt_stdio_output@@@2@@__crt_stdio_output@@QAE@ABV?$string_output_adapter@D@1@_KQBDQAU__crt_locale_pointers@@QAD@Z 1002e0c5 f i libucrt:output.obj
 0001:0002d0f5       ??0?$output_processor@DV?$string_output_adapter@D@__crt_stdio_output@@V?$standard_base@DV?$string_output_adapter@D@__crt_stdio_output@@@2@@__crt_stdio_output@@QAE@ABV?$string_output_adapter@D@1@_KQBDQAU__crt_locale_pointers@@QAD@Z 1002e0f5 f i libucrt:output.obj
 0001:0002d12d       ??0?$output_processor@_WV?$stream_output_adapter@_W@__crt_stdio_output@@V?$format_validation_base@_WV?$stream_output_adapter@_W@__crt_stdio_output@@@2@@__crt_stdio_output@@QAE@ABV?$stream_output_adapter@_W@1@_KQB_WQAU__crt_locale_pointers@@QAD@Z 1002e12d f i libucrt:output.obj
 0001:0002d165       ??0?$output_processor@_WV?$stream_output_adapter@_W@__crt_stdio_output@@V?$positional_parameter_base@_WV?$stream_output_adapter@_W@__crt_stdio_output@@@2@@__crt_stdio_output@@QAE@ABV?$stream_output_adapter@_W@1@_KQB_WQAU__crt_locale_pointers@@QAD@Z 1002e165 f i libucrt:output.obj
 0001:0002d195       ??0?$output_processor@_WV?$stream_output_adapter@_W@__crt_stdio_output@@V?$standard_base@_WV?$stream_output_adapter@_W@__crt_stdio_output@@@2@@__crt_stdio_output@@QAE@ABV?$stream_output_adapter@_W@1@_KQB_WQAU__crt_locale_pointers@@QAD@Z 1002e195 f i libucrt:output.obj
 0001:0002d1cd       ??0?$output_processor@_WV?$string_output_adapter@_W@__crt_stdio_output@@V?$format_validation_base@_WV?$string_output_adapter@_W@__crt_stdio_output@@@2@@__crt_stdio_output@@QAE@ABV?$string_output_adapter@_W@1@_KQB_WQAU__crt_locale_pointers@@QAD@Z 1002e1cd f i libucrt:output.obj
 0001:0002d205       ??0?$output_processor@_WV?$string_output_adapter@_W@__crt_stdio_output@@V?$positional_parameter_base@_WV?$string_output_adapter@_W@__crt_stdio_output@@@2@@__crt_stdio_output@@QAE@ABV?$string_output_adapter@_W@1@_KQB_WQAU__crt_locale_pointers@@QAD@Z 1002e205 f i libucrt:output.obj
 0001:0002d235       ??0?$output_processor@_WV?$string_output_adapter@_W@__crt_stdio_output@@V?$standard_base@_WV?$string_output_adapter@_W@__crt_stdio_output@@@2@@__crt_stdio_output@@QAE@ABV?$string_output_adapter@_W@1@_KQB_WQAU__crt_locale_pointers@@QAD@Z 1002e235 f i libucrt:output.obj
 0001:0002d26d       ??0?$stream_output_adapter@D@__crt_stdio_output@@QAE@QAU_iobuf@@@Z 1002e26d f i libucrt:output.obj
 0001:0002d281       ??0?$stream_output_adapter@_W@__crt_stdio_output@@QAE@QAU_iobuf@@@Z 1002e281 f i libucrt:output.obj
 0001:0002d295       ??0?$string_output_adapter@D@__crt_stdio_output@@QAE@QAU?$string_output_adapter_context@D@1@@Z 1002e295 f i libucrt:output.obj
 0001:0002d2a9       ??0?$string_output_adapter@_W@__crt_stdio_output@@QAE@QAU?$string_output_adapter_context@_W@1@@Z 1002e2a9 f i libucrt:output.obj
 0001:0002d2bd       ??0__crt_deferred_errno_cache@@QAE@XZ 1002e2bd f i libucrt:output.obj
 0001:0002d2c3       ??0__crt_errno_guard@@QAE@QAH@Z 1002e2c3 f i libucrt:output.obj
 0001:0002d2e1       ??0formatting_buffer@__crt_stdio_output@@QAE@XZ 1002e2e1 f i libucrt:output.obj
 0001:0002d2f6       ??1?$common_data@D@__crt_stdio_output@@QAE@XZ 1002e2f6 f i libucrt:output.obj
 0001:0002d300       ??1?$common_data@_W@__crt_stdio_output@@QAE@XZ 1002e300 f i libucrt:output.obj
 0001:0002d30a       ??1?$format_validation_base@DV?$stream_output_adapter@D@__crt_stdio_output@@@__crt_stdio_output@@QAE@XZ 1002e30a f i libucrt:output.obj
 0001:0002d314       ??1?$format_validation_base@DV?$string_output_adapter@D@__crt_stdio_output@@@__crt_stdio_output@@QAE@XZ 1002e314 f i libucrt:output.obj
 0001:0002d31e       ??1?$format_validation_base@_WV?$stream_output_adapter@_W@__crt_stdio_output@@@__crt_stdio_output@@QAE@XZ 1002e31e f i libucrt:output.obj
 0001:0002d328       ??1?$format_validation_base@_WV?$string_output_adapter@_W@__crt_stdio_output@@@__crt_stdio_output@@QAE@XZ 1002e328 f i libucrt:output.obj
 0001:0002d332       ??1?$output_adapter_data@DV?$stream_output_adapter@D@__crt_stdio_output@@@__crt_stdio_output@@QAE@XZ 1002e332 f i libucrt:output.obj
 0001:0002d33c       ??1?$output_adapter_data@DV?$string_output_adapter@D@__crt_stdio_output@@@__crt_stdio_output@@QAE@XZ 1002e33c f i libucrt:output.obj
 0001:0002d346       ??1?$output_adapter_data@_WV?$stream_output_adapter@_W@__crt_stdio_output@@@__crt_stdio_output@@QAE@XZ 1002e346 f i libucrt:output.obj
 0001:0002d350       ??1?$output_adapter_data@_WV?$string_output_adapter@_W@__crt_stdio_output@@@__crt_stdio_output@@QAE@XZ 1002e350 f i libucrt:output.obj
 0001:0002d35a       ??1?$output_processor@DV?$stream_output_adapter@D@__crt_stdio_output@@V?$format_validation_base@DV?$stream_output_adapter@D@__crt_stdio_output@@@2@@__crt_stdio_output@@QAE@XZ 1002e35a f i libucrt:output.obj
 0001:0002d364       ??1?$output_processor@DV?$stream_output_adapter@D@__crt_stdio_output@@V?$positional_parameter_base@DV?$stream_output_adapter@D@__crt_stdio_output@@@2@@__crt_stdio_output@@QAE@XZ 1002e364 f i libucrt:output.obj
 0001:0002d36e       ??1?$output_processor@DV?$stream_output_adapter@D@__crt_stdio_output@@V?$standard_base@DV?$stream_output_adapter@D@__crt_stdio_output@@@2@@__crt_stdio_output@@QAE@XZ 1002e36e f i libucrt:output.obj
 0001:0002d378       ??1?$output_processor@DV?$string_output_adapter@D@__crt_stdio_output@@V?$format_validation_base@DV?$string_output_adapter@D@__crt_stdio_output@@@2@@__crt_stdio_output@@QAE@XZ 1002e378 f i libucrt:output.obj
 0001:0002d382       ??1?$output_processor@DV?$string_output_adapter@D@__crt_stdio_output@@V?$positional_parameter_base@DV?$string_output_adapter@D@__crt_stdio_output@@@2@@__crt_stdio_output@@QAE@XZ 1002e382 f i libucrt:output.obj
 0001:0002d38c       ??1?$output_processor@DV?$string_output_adapter@D@__crt_stdio_output@@V?$standard_base@DV?$string_output_adapter@D@__crt_stdio_output@@@2@@__crt_stdio_output@@QAE@XZ 1002e38c f i libucrt:output.obj
 0001:0002d396       ??1?$output_processor@_WV?$stream_output_adapter@_W@__crt_stdio_output@@V?$format_validation_base@_WV?$stream_output_adapter@_W@__crt_stdio_output@@@2@@__crt_stdio_output@@QAE@XZ 1002e396 f i libucrt:output.obj
 0001:0002d3a0       ??1?$output_processor@_WV?$stream_output_adapter@_W@__crt_stdio_output@@V?$positional_parameter_base@_WV?$stream_output_adapter@_W@__crt_stdio_output@@@2@@__crt_stdio_output@@QAE@XZ 1002e3a0 f i libucrt:output.obj
 0001:0002d3aa       ??1?$output_processor@_WV?$stream_output_adapter@_W@__crt_stdio_output@@V?$standard_base@_WV?$stream_output_adapter@_W@__crt_stdio_output@@@2@@__crt_stdio_output@@QAE@XZ 1002e3aa f i libucrt:output.obj
 0001:0002d3b4       ??1?$output_processor@_WV?$string_output_adapter@_W@__crt_stdio_output@@V?$format_validation_base@_WV?$string_output_adapter@_W@__crt_stdio_output@@@2@@__crt_stdio_output@@QAE@XZ 1002e3b4 f i libucrt:output.obj
 0001:0002d3be       ??1?$output_processor@_WV?$string_output_adapter@_W@__crt_stdio_output@@V?$positional_parameter_base@_WV?$string_output_adapter@_W@__crt_stdio_output@@@2@@__crt_stdio_output@@QAE@XZ 1002e3be f i libucrt:output.obj
 0001:0002d3c8       ??1?$output_processor@_WV?$string_output_adapter@_W@__crt_stdio_output@@V?$standard_base@_WV?$string_output_adapter@_W@__crt_stdio_output@@@2@@__crt_stdio_output@@QAE@XZ 1002e3c8 f i libucrt:output.obj
 0001:0002d3d2       ??1?$positional_parameter_base@DV?$stream_output_adapter@D@__crt_stdio_output@@@__crt_stdio_output@@QAE@XZ 1002e3d2 f i libucrt:output.obj
 0001:0002d3dc       ??1?$positional_parameter_base@DV?$string_output_adapter@D@__crt_stdio_output@@@__crt_stdio_output@@QAE@XZ 1002e3dc f i libucrt:output.obj
 0001:0002d3e6       ??1?$positional_parameter_base@_WV?$stream_output_adapter@_W@__crt_stdio_output@@@__crt_stdio_output@@QAE@XZ 1002e3e6 f i libucrt:output.obj
 0001:0002d3f0       ??1?$positional_parameter_base@_WV?$string_output_adapter@_W@__crt_stdio_output@@@__crt_stdio_output@@QAE@XZ 1002e3f0 f i libucrt:output.obj
 0001:0002d3fa       ??1?$standard_base@DV?$stream_output_adapter@D@__crt_stdio_output@@@__crt_stdio_output@@QAE@XZ 1002e3fa f i libucrt:output.obj
 0001:0002d404       ??1?$standard_base@DV?$string_output_adapter@D@__crt_stdio_output@@@__crt_stdio_output@@QAE@XZ 1002e404 f i libucrt:output.obj
 0001:0002d40e       ??1?$standard_base@_WV?$stream_output_adapter@_W@__crt_stdio_output@@@__crt_stdio_output@@QAE@XZ 1002e40e f i libucrt:output.obj
 0001:0002d418       ??1?$standard_base@_WV?$string_output_adapter@_W@__crt_stdio_output@@@__crt_stdio_output@@QAE@XZ 1002e418 f i libucrt:output.obj
 0001:0002d422       ??1__crt_errno_guard@@QAE@XZ 1002e422 f i libucrt:output.obj
 0001:0002d437       ??1formatting_buffer@__crt_stdio_output@@QAE@XZ 1002e437 f i libucrt:output.obj
 0001:0002d457       ??4?$__crt_unique_heap_ptr@DU__crt_internal_free_policy@@@@QAEAAV0@$$QAV0@@Z 1002e457 f i libucrt:output.obj
 0001:0002db32       ?adjust_hexit@?$output_processor@DV?$stream_output_adapter@D@__crt_stdio_output@@V?$format_validation_base@DV?$stream_output_adapter@D@__crt_stdio_output@@@2@@__crt_stdio_output@@CADH_N@Z 1002eb32 f i libucrt:output.obj
 0001:0002db4b       ?adjust_hexit@?$output_processor@DV?$stream_output_adapter@D@__crt_stdio_output@@V?$positional_parameter_base@DV?$stream_output_adapter@D@__crt_stdio_output@@@2@@__crt_stdio_output@@CADH_N@Z 1002eb4b f i libucrt:output.obj
 0001:0002db64       ?adjust_hexit@?$output_processor@DV?$stream_output_adapter@D@__crt_stdio_output@@V?$standard_base@DV?$stream_output_adapter@D@__crt_stdio_output@@@2@@__crt_stdio_output@@CADH_N@Z 1002eb64 f i libucrt:output.obj
 0001:0002db7d       ?adjust_hexit@?$output_processor@DV?$string_output_adapter@D@__crt_stdio_output@@V?$format_validation_base@DV?$string_output_adapter@D@__crt_stdio_output@@@2@@__crt_stdio_output@@CADH_N@Z 1002eb7d f i libucrt:output.obj
 0001:0002db96       ?adjust_hexit@?$output_processor@DV?$string_output_adapter@D@__crt_stdio_output@@V?$positional_parameter_base@DV?$string_output_adapter@D@__crt_stdio_output@@@2@@__crt_stdio_output@@CADH_N@Z 1002eb96 f i libucrt:output.obj
 0001:0002dbaf       ?adjust_hexit@?$output_processor@DV?$string_output_adapter@D@__crt_stdio_output@@V?$standard_base@DV?$string_output_adapter@D@__crt_stdio_output@@@2@@__crt_stdio_output@@CADH_N@Z 1002ebaf f i libucrt:output.obj
 0001:0002dbc8       ?adjust_hexit@?$output_processor@_WV?$stream_output_adapter@_W@__crt_stdio_output@@V?$format_validation_base@_WV?$stream_output_adapter@_W@__crt_stdio_output@@@2@@__crt_stdio_output@@CADH_N@Z 1002ebc8 f i libucrt:output.obj
 0001:0002dbe1       ?adjust_hexit@?$output_processor@_WV?$stream_output_adapter@_W@__crt_stdio_output@@V?$positional_parameter_base@_WV?$stream_output_adapter@_W@__crt_stdio_output@@@2@@__crt_stdio_output@@CADH_N@Z 1002ebe1 f i libucrt:output.obj
 0001:0002dbfa       ?adjust_hexit@?$output_processor@_WV?$stream_output_adapter@_W@__crt_stdio_output@@V?$standard_base@_WV?$stream_output_adapter@_W@__crt_stdio_output@@@2@@__crt_stdio_output@@CADH_N@Z 1002ebfa f i libucrt:output.obj
 0001:0002dc13       ?adjust_hexit@?$output_processor@_WV?$string_output_adapter@_W@__crt_stdio_output@@V?$format_validation_base@_WV?$string_output_adapter@_W@__crt_stdio_output@@@2@@__crt_stdio_output@@CADH_N@Z 1002ec13 f i libucrt:output.obj
 0001:0002dc2c       ?adjust_hexit@?$output_processor@_WV?$string_output_adapter@_W@__crt_stdio_output@@V?$positional_parameter_base@_WV?$string_output_adapter@_W@__crt_stdio_output@@@2@@__crt_stdio_output@@CADH_N@Z 1002ec2c f i libucrt:output.obj
 0001:0002dc45       ?adjust_hexit@?$output_processor@_WV?$string_output_adapter@_W@__crt_stdio_output@@V?$standard_base@_WV?$string_output_adapter@_W@__crt_stdio_output@@@2@@__crt_stdio_output@@CADH_N@Z 1002ec45 f i libucrt:output.obj
 0001:0002dc5e       ?advance_to_next_pass@?$positional_parameter_base@DV?$stream_output_adapter@D@__crt_stdio_output@@@__crt_stdio_output@@IAE_NXZ 1002ec5e f i libucrt:output.obj
 0001:0002dcbd       ?advance_to_next_pass@?$positional_parameter_base@DV?$string_output_adapter@D@__crt_stdio_output@@@__crt_stdio_output@@IAE_NXZ 1002ecbd f i libucrt:output.obj
 0001:0002dd1c       ?advance_to_next_pass@?$positional_parameter_base@_WV?$stream_output_adapter@_W@__crt_stdio_output@@@__crt_stdio_output@@IAE_NXZ 1002ed1c f i libucrt:output.obj
 0001:0002dd7b       ?advance_to_next_pass@?$positional_parameter_base@_WV?$string_output_adapter@_W@__crt_stdio_output@@@__crt_stdio_output@@IAE_NXZ 1002ed7b f i libucrt:output.obj
 0001:0002ddda       ?advance_to_next_pass@?$standard_base@DV?$stream_output_adapter@D@__crt_stdio_output@@@__crt_stdio_output@@IAE_NXZ 1002edda f i libucrt:output.obj
 0001:0002ddef       ?advance_to_next_pass@?$standard_base@DV?$string_output_adapter@D@__crt_stdio_output@@@__crt_stdio_output@@IAE_NXZ 1002edef f i libucrt:output.obj
 0001:0002de04       ?advance_to_next_pass@?$standard_base@_WV?$stream_output_adapter@_W@__crt_stdio_output@@@__crt_stdio_output@@IAE_NXZ 1002ee04 f i libucrt:output.obj
 0001:0002de19       ?advance_to_next_pass@?$standard_base@_WV?$string_output_adapter@_W@__crt_stdio_output@@@__crt_stdio_output@@IAE_NXZ 1002ee19 f i libucrt:output.obj
 0001:0002de2e       ?crop_zeroes@__crt_stdio_output@@YAXPADQAU__crt_locale_pointers@@@Z 1002ee2e f i libucrt:output.obj
 0001:0002dea6       ?find_next_state@?$output_processor@DV?$stream_output_adapter@D@__crt_stdio_output@@V?$format_validation_base@DV?$stream_output_adapter@D@__crt_stdio_output@@@2@@__crt_stdio_output@@ABE?AW4state@2@DW432@@Z 1002eea6 f i libucrt:output.obj
 0001:0002def8       ?find_next_state@?$output_processor@DV?$stream_output_adapter@D@__crt_stdio_output@@V?$positional_parameter_base@DV?$stream_output_adapter@D@__crt_stdio_output@@@2@@__crt_stdio_output@@ABE?AW4state@2@DW432@@Z 1002eef8 f i libucrt:output.obj
 0001:0002df4a       ?find_next_state@?$output_processor@DV?$stream_output_adapter@D@__crt_stdio_output@@V?$standard_base@DV?$stream_output_adapter@D@__crt_stdio_output@@@2@@__crt_stdio_output@@ABE?AW4state@2@DW432@@Z 1002ef4a f i libucrt:output.obj
 0001:0002df98       ?find_next_state@?$output_processor@DV?$string_output_adapter@D@__crt_stdio_output@@V?$format_validation_base@DV?$string_output_adapter@D@__crt_stdio_output@@@2@@__crt_stdio_output@@ABE?AW4state@2@DW432@@Z 1002ef98 f i libucrt:output.obj
 0001:0002dfea       ?find_next_state@?$output_processor@DV?$string_output_adapter@D@__crt_stdio_output@@V?$positional_parameter_base@DV?$string_output_adapter@D@__crt_stdio_output@@@2@@__crt_stdio_output@@ABE?AW4state@2@DW432@@Z 1002efea f i libucrt:output.obj
 0001:0002e03c       ?find_next_state@?$output_processor@DV?$string_output_adapter@D@__crt_stdio_output@@V?$standard_base@DV?$string_output_adapter@D@__crt_stdio_output@@@2@@__crt_stdio_output@@ABE?AW4state@2@DW432@@Z 1002f03c f i libucrt:output.obj
 0001:0002e08a       ?find_next_state@?$output_processor@_WV?$stream_output_adapter@_W@__crt_stdio_output@@V?$format_validation_base@_WV?$stream_output_adapter@_W@__crt_stdio_output@@@2@@__crt_stdio_output@@ABE?AW4state@2@_WW432@@Z 1002f08a f i libucrt:output.obj
 0001:0002e0df       ?find_next_state@?$output_processor@_WV?$stream_output_adapter@_W@__crt_stdio_output@@V?$positional_parameter_base@_WV?$stream_output_adapter@_W@__crt_stdio_output@@@2@@__crt_stdio_output@@ABE?AW4state@2@_WW432@@Z 1002f0df f i libucrt:output.obj
 0001:0002e134       ?find_next_state@?$output_processor@_WV?$stream_output_adapter@_W@__crt_stdio_output@@V?$standard_base@_WV?$stream_output_adapter@_W@__crt_stdio_output@@@2@@__crt_stdio_output@@ABE?AW4state@2@_WW432@@Z 1002f134 f i libucrt:output.obj
 0001:0002e185       ?find_next_state@?$output_processor@_WV?$string_output_adapter@_W@__crt_stdio_output@@V?$format_validation_base@_WV?$string_output_adapter@_W@__crt_stdio_output@@@2@@__crt_stdio_output@@ABE?AW4state@2@_WW432@@Z 1002f185 f i libucrt:output.obj
 0001:0002e1da       ?find_next_state@?$output_processor@_WV?$string_output_adapter@_W@__crt_stdio_output@@V?$positional_parameter_base@_WV?$string_output_adapter@_W@__crt_stdio_output@@@2@@__crt_stdio_output@@ABE?AW4state@2@_WW432@@Z 1002f1da f i libucrt:output.obj
 0001:0002e22f       ?find_next_state@?$output_processor@_WV?$string_output_adapter@_W@__crt_stdio_output@@V?$standard_base@_WV?$string_output_adapter@_W@__crt_stdio_output@@@2@@__crt_stdio_output@@ABE?AW4state@2@_WW432@@Z 1002f22f f i libucrt:output.obj
 0001:0002e280       ?force_decimal_point@__crt_stdio_output@@YAXPADQAU__crt_locale_pointers@@@Z 1002f280 f i libucrt:output.obj
 0001:0002e2f3       ?get@__crt_deferred_errno_cache@@QAEAAHXZ 1002f2f3 f i libucrt:output.obj
 0001:0002e30c       ?get_parameter_type@?$positional_parameter_base@DV?$stream_output_adapter@D@__crt_stdio_output@@@__crt_stdio_output@@CA?AW4parameter_type@12@F@Z 1002f30c f i libucrt:output.obj
 0001:0002e310       ?get_parameter_type@?$positional_parameter_base@DV?$stream_output_adapter@D@__crt_stdio_output@@@__crt_stdio_output@@CA?AW4parameter_type@12@G@Z 1002f310 f i libucrt:output.obj
 0001:0002e314       ?get_parameter_type@?$positional_parameter_base@DV?$stream_output_adapter@D@__crt_stdio_output@@@__crt_stdio_output@@CA?AW4parameter_type@12@H@Z 1002f314 f i libucrt:output.obj
 0001:0002e318       ?get_parameter_type@?$positional_parameter_base@DV?$stream_output_adapter@D@__crt_stdio_output@@@__crt_stdio_output@@CA?AW4parameter_type@12@I@Z 1002f318 f i libucrt:output.obj
 0001:0002e31c       ?get_parameter_type@?$positional_parameter_base@DV?$stream_output_adapter@D@__crt_stdio_output@@@__crt_stdio_output@@CA?AW4parameter_type@12@U_CRT_DOUBLE@@@Z 1002f31c f i libucrt:output.obj
 0001:0002e320       ?get_parameter_type@?$positional_parameter_base@DV?$stream_output_adapter@D@__crt_stdio_output@@@__crt_stdio_output@@CA?AW4parameter_type@12@_J@Z 1002f320 f i libucrt:output.obj
 0001:0002e324       ?get_parameter_type@?$positional_parameter_base@DV?$stream_output_adapter@D@__crt_stdio_output@@@__crt_stdio_output@@CA?AW4parameter_type@12@_K@Z 1002f324 f i libucrt:output.obj
 0001:0002e328       ?get_parameter_type@?$positional_parameter_base@DV?$stream_output_adapter@D@__crt_stdio_output@@@__crt_stdio_output@@CA?AW4parameter_type@12@_W@Z 1002f328 f i libucrt:output.obj
 0001:0002e32c       ?get_parameter_type@?$positional_parameter_base@DV?$string_output_adapter@D@__crt_stdio_output@@@__crt_stdio_output@@CA?AW4parameter_type@12@F@Z 1002f32c f i libucrt:output.obj
 0001:0002e330       ?get_parameter_type@?$positional_parameter_base@DV?$string_output_adapter@D@__crt_stdio_output@@@__crt_stdio_output@@CA?AW4parameter_type@12@G@Z 1002f330 f i libucrt:output.obj
 0001:0002e334       ?get_parameter_type@?$positional_parameter_base@DV?$string_output_adapter@D@__crt_stdio_output@@@__crt_stdio_output@@CA?AW4parameter_type@12@H@Z 1002f334 f i libucrt:output.obj
 0001:0002e338       ?get_parameter_type@?$positional_parameter_base@DV?$string_output_adapter@D@__crt_stdio_output@@@__crt_stdio_output@@CA?AW4parameter_type@12@I@Z 1002f338 f i libucrt:output.obj
 0001:0002e33c       ?get_parameter_type@?$positional_parameter_base@DV?$string_output_adapter@D@__crt_stdio_output@@@__crt_stdio_output@@CA?AW4parameter_type@12@U_CRT_DOUBLE@@@Z 1002f33c f i libucrt:output.obj
 0001:0002e340       ?get_parameter_type@?$positional_parameter_base@DV?$string_output_adapter@D@__crt_stdio_output@@@__crt_stdio_output@@CA?AW4parameter_type@12@_J@Z 1002f340 f i libucrt:output.obj
 0001:0002e344       ?get_parameter_type@?$positional_parameter_base@DV?$string_output_adapter@D@__crt_stdio_output@@@__crt_stdio_output@@CA?AW4parameter_type@12@_K@Z 1002f344 f i libucrt:output.obj
 0001:0002e348       ?get_parameter_type@?$positional_parameter_base@DV?$string_output_adapter@D@__crt_stdio_output@@@__crt_stdio_output@@CA?AW4parameter_type@12@_W@Z 1002f348 f i libucrt:output.obj
 0001:0002e34c       ?get_parameter_type@?$positional_parameter_base@_WV?$stream_output_adapter@_W@__crt_stdio_output@@@__crt_stdio_output@@CA?AW4parameter_type@12@F@Z 1002f34c f i libucrt:output.obj
 0001:0002e350       ?get_parameter_type@?$positional_parameter_base@_WV?$stream_output_adapter@_W@__crt_stdio_output@@@__crt_stdio_output@@CA?AW4parameter_type@12@G@Z 1002f350 f i libucrt:output.obj
 0001:0002e354       ?get_parameter_type@?$positional_parameter_base@_WV?$stream_output_adapter@_W@__crt_stdio_output@@@__crt_stdio_output@@CA?AW4parameter_type@12@H@Z 1002f354 f i libucrt:output.obj
 0001:0002e358       ?get_parameter_type@?$positional_parameter_base@_WV?$stream_output_adapter@_W@__crt_stdio_output@@@__crt_stdio_output@@CA?AW4parameter_type@12@I@Z 1002f358 f i libucrt:output.obj
 0001:0002e35c       ?get_parameter_type@?$positional_parameter_base@_WV?$stream_output_adapter@_W@__crt_stdio_output@@@__crt_stdio_output@@CA?AW4parameter_type@12@U_CRT_DOUBLE@@@Z 1002f35c f i libucrt:output.obj
 0001:0002e360       ?get_parameter_type@?$positional_parameter_base@_WV?$stream_output_adapter@_W@__crt_stdio_output@@@__crt_stdio_output@@CA?AW4parameter_type@12@_J@Z 1002f360 f i libucrt:output.obj
 0001:0002e364       ?get_parameter_type@?$positional_parameter_base@_WV?$stream_output_adapter@_W@__crt_stdio_output@@@__crt_stdio_output@@CA?AW4parameter_type@12@_K@Z 1002f364 f i libucrt:output.obj
 0001:0002e368       ?get_parameter_type@?$positional_parameter_base@_WV?$stream_output_adapter@_W@__crt_stdio_output@@@__crt_stdio_output@@CA?AW4parameter_type@12@_W@Z 1002f368 f i libucrt:output.obj
 0001:0002e36c       ?get_parameter_type@?$positional_parameter_base@_WV?$string_output_adapter@_W@__crt_stdio_output@@@__crt_stdio_output@@CA?AW4parameter_type@12@F@Z 1002f36c f i libucrt:output.obj
 0001:0002e370       ?get_parameter_type@?$positional_parameter_base@_WV?$string_output_adapter@_W@__crt_stdio_output@@@__crt_stdio_output@@CA?AW4parameter_type@12@G@Z 1002f370 f i libucrt:output.obj
 0001:0002e374       ?get_parameter_type@?$positional_parameter_base@_WV?$string_output_adapter@_W@__crt_stdio_output@@@__crt_stdio_output@@CA?AW4parameter_type@12@H@Z 1002f374 f i libucrt:output.obj
 0001:0002e378       ?get_parameter_type@?$positional_parameter_base@_WV?$string_output_adapter@_W@__crt_stdio_output@@@__crt_stdio_output@@CA?AW4parameter_type@12@I@Z 1002f378 f i libucrt:output.obj
 0001:0002e37c       ?get_parameter_type@?$positional_parameter_base@_WV?$string_output_adapter@_W@__crt_stdio_output@@@__crt_stdio_output@@CA?AW4parameter_type@12@U_CRT_DOUBLE@@@Z 1002f37c f i libucrt:output.obj
 0001:0002e380       ?get_parameter_type@?$positional_parameter_base@_WV?$string_output_adapter@_W@__crt_stdio_output@@@__crt_stdio_output@@CA?AW4parameter_type@12@_J@Z 1002f380 f i libucrt:output.obj
 0001:0002e384       ?get_parameter_type@?$positional_parameter_base@_WV?$string_output_adapter@_W@__crt_stdio_output@@@__crt_stdio_output@@CA?AW4parameter_type@12@_K@Z 1002f384 f i libucrt:output.obj
 0001:0002e388       ?get_parameter_type@?$positional_parameter_base@_WV?$string_output_adapter@_W@__crt_stdio_output@@@__crt_stdio_output@@CA?AW4parameter_type@12@_W@Z 1002f388 f i libucrt:output.obj
 0001:0002e38c       ?has_flag@?$output_processor@DV?$stream_output_adapter@D@__crt_stdio_output@@V?$format_validation_base@DV?$stream_output_adapter@D@__crt_stdio_output@@@2@@__crt_stdio_output@@ABE_NI@Z 1002f38c f i libucrt:output.obj
 0001:0002e3a2       ?has_flag@?$output_processor@DV?$stream_output_adapter@D@__crt_stdio_output@@V?$positional_parameter_base@DV?$stream_output_adapter@D@__crt_stdio_output@@@2@@__crt_stdio_output@@ABE_NI@Z 1002f3a2 f i libucrt:output.obj
 0001:0002e3b8       ?has_flag@?$output_processor@DV?$stream_output_adapter@D@__crt_stdio_output@@V?$standard_base@DV?$stream_output_adapter@D@__crt_stdio_output@@@2@@__crt_stdio_output@@ABE_NI@Z 1002f3b8 f i libucrt:output.obj
 0001:0002e3ce       ?has_flag@?$output_processor@DV?$string_output_adapter@D@__crt_stdio_output@@V?$format_validation_base@DV?$string_output_adapter@D@__crt_stdio_output@@@2@@__crt_stdio_output@@ABE_NI@Z 1002f3ce f i libucrt:output.obj
 0001:0002e3e4       ?has_flag@?$output_processor@DV?$string_output_adapter@D@__crt_stdio_output@@V?$positional_parameter_base@DV?$string_output_adapter@D@__crt_stdio_output@@@2@@__crt_stdio_output@@ABE_NI@Z 1002f3e4 f i libucrt:output.obj
 0001:0002e3fa       ?has_flag@?$output_processor@DV?$string_output_adapter@D@__crt_stdio_output@@V?$standard_base@DV?$string_output_adapter@D@__crt_stdio_output@@@2@@__crt_stdio_output@@ABE_NI@Z 1002f3fa f i libucrt:output.obj
 0001:0002e410       ?has_flag@?$output_processor@_WV?$stream_output_adapter@_W@__crt_stdio_output@@V?$format_validation_base@_WV?$stream_output_adapter@_W@__crt_stdio_output@@@2@@__crt_stdio_output@@ABE_NI@Z 1002f410 f i libucrt:output.obj
 0001:0002e426       ?has_flag@?$output_processor@_WV?$stream_output_adapter@_W@__crt_stdio_output@@V?$positional_parameter_base@_WV?$stream_output_adapter@_W@__crt_stdio_output@@@2@@__crt_stdio_output@@ABE_NI@Z 1002f426 f i libucrt:output.obj
 0001:0002e43c       ?has_flag@?$output_processor@_WV?$stream_output_adapter@_W@__crt_stdio_output@@V?$standard_base@_WV?$stream_output_adapter@_W@__crt_stdio_output@@@2@@__crt_stdio_output@@ABE_NI@Z 1002f43c f i libucrt:output.obj
 0001:0002e452       ?has_flag@?$output_processor@_WV?$string_output_adapter@_W@__crt_stdio_output@@V?$format_validation_base@_WV?$string_output_adapter@_W@__crt_stdio_output@@@2@@__crt_stdio_output@@ABE_NI@Z 1002f452 f i libucrt:output.obj
 0001:0002e468       ?has_flag@?$output_processor@_WV?$string_output_adapter@_W@__crt_stdio_output@@V?$positional_parameter_base@_WV?$string_output_adapter@_W@__crt_stdio_output@@@2@@__crt_stdio_output@@ABE_NI@Z 1002f468 f i libucrt:output.obj
 0001:0002e47e       ?has_flag@?$output_processor@_WV?$string_output_adapter@_W@__crt_stdio_output@@V?$standard_base@_WV?$string_output_adapter@_W@__crt_stdio_output@@@2@@__crt_stdio_output@@ABE_NI@Z 1002f47e f i libucrt:output.obj
 0001:0002e494       ?is_positional_parameter_reappearance_consistent@?$positional_parameter_base@DV?$stream_output_adapter@D@__crt_stdio_output@@@__crt_stdio_output@@AAE_NABUparameter_data@12@W4parameter_type@12@DW4length_modifier@2@@Z 1002f494 f i libucrt:output.obj
 0001:0002e5f4       ?is_positional_parameter_reappearance_consistent@?$positional_parameter_base@DV?$string_output_adapter@D@__crt_stdio_output@@@__crt_stdio_output@@AAE_NABUparameter_data@12@W4parameter_type@12@DW4length_modifier@2@@Z 1002f5f4 f i libucrt:output.obj
 0001:0002e754       ?is_positional_parameter_reappearance_consistent@?$positional_parameter_base@_WV?$stream_output_adapter@_W@__crt_stdio_output@@@__crt_stdio_output@@AAE_NABUparameter_data@12@W4parameter_type@12@_WW4length_modifier@2@@Z 1002f754 f i libucrt:output.obj
 0001:0002e8b3       ?is_positional_parameter_reappearance_consistent@?$positional_parameter_base@_WV?$string_output_adapter@_W@__crt_stdio_output@@@__crt_stdio_output@@AAE_NABUparameter_data@12@W4parameter_type@12@_WW4length_modifier@2@@Z 1002f8b3 f i libucrt:output.obj
 0001:0002ea12       ?narrow_null_string@?$output_processor@DV?$stream_output_adapter@D@__crt_stdio_output@@V?$format_validation_base@DV?$stream_output_adapter@D@__crt_stdio_output@@@2@@__crt_stdio_output@@CAPADXZ 1002fa12 f i libucrt:output.obj
 0001:0002ea18       ?narrow_null_string@?$output_processor@DV?$stream_output_adapter@D@__crt_stdio_output@@V?$positional_parameter_base@DV?$stream_output_adapter@D@__crt_stdio_output@@@2@@__crt_stdio_output@@CAPADXZ 1002fa18 f i libucrt:output.obj
 0001:0002ea1e       ?narrow_null_string@?$output_processor@DV?$stream_output_adapter@D@__crt_stdio_output@@V?$standard_base@DV?$stream_output_adapter@D@__crt_stdio_output@@@2@@__crt_stdio_output@@CAPADXZ 1002fa1e f i libucrt:output.obj
 0001:0002ea24       ?narrow_null_string@?$output_processor@DV?$string_output_adapter@D@__crt_stdio_output@@V?$format_validation_base@DV?$string_output_adapter@D@__crt_stdio_output@@@2@@__crt_stdio_output@@CAPADXZ 1002fa24 f i libucrt:output.obj
 0001:0002ea2a       ?narrow_null_string@?$output_processor@DV?$string_output_adapter@D@__crt_stdio_output@@V?$positional_parameter_base@DV?$string_output_adapter@D@__crt_stdio_output@@@2@@__crt_stdio_output@@CAPADXZ 1002fa2a f i libucrt:output.obj
 0001:0002ea30       ?narrow_null_string@?$output_processor@DV?$string_output_adapter@D@__crt_stdio_output@@V?$standard_base@DV?$string_output_adapter@D@__crt_stdio_output@@@2@@__crt_stdio_output@@CAPADXZ 1002fa30 f i libucrt:output.obj
 0001:0002ea36       ?narrow_null_string@?$output_processor@_WV?$stream_output_adapter@_W@__crt_stdio_output@@V?$format_validation_base@_WV?$stream_output_adapter@_W@__crt_stdio_output@@@2@@__crt_stdio_output@@CAPADXZ 1002fa36 f i libucrt:output.obj
 0001:0002ea3c       ?narrow_null_string@?$output_processor@_WV?$stream_output_adapter@_W@__crt_stdio_output@@V?$positional_parameter_base@_WV?$stream_output_adapter@_W@__crt_stdio_output@@@2@@__crt_stdio_output@@CAPADXZ 1002fa3c f i libucrt:output.obj
 0001:0002ea42       ?narrow_null_string@?$output_processor@_WV?$stream_output_adapter@_W@__crt_stdio_output@@V?$standard_base@_WV?$stream_output_adapter@_W@__crt_stdio_output@@@2@@__crt_stdio_output@@CAPADXZ 1002fa42 f i libucrt:output.obj
 0001:0002ea48       ?narrow_null_string@?$output_processor@_WV?$string_output_adapter@_W@__crt_stdio_output@@V?$format_validation_base@_WV?$string_output_adapter@_W@__crt_stdio_output@@@2@@__crt_stdio_output@@CAPADXZ 1002fa48 f i libucrt:output.obj
 0001:0002ea4e       ?narrow_null_string@?$output_processor@_WV?$string_output_adapter@_W@__crt_stdio_output@@V?$positional_parameter_base@_WV?$string_output_adapter@_W@__crt_stdio_output@@@2@@__crt_stdio_output@@CAPADXZ 1002fa4e f i libucrt:output.obj
 0001:0002ea54       ?narrow_null_string@?$output_processor@_WV?$string_output_adapter@_W@__crt_stdio_output@@V?$standard_base@_WV?$string_output_adapter@_W@__crt_stdio_output@@@2@@__crt_stdio_output@@CAPADXZ 1002fa54 f i libucrt:output.obj
 0001:0002ea5a       ?parse_int_from_format_string@?$output_processor@DV?$stream_output_adapter@D@__crt_stdio_output@@V?$format_validation_base@DV?$stream_output_adapter@D@__crt_stdio_output@@@2@@__crt_stdio_output@@AAE_NQAH@Z 1002fa5a f i libucrt:output.obj
 0001:0002eaed       ?parse_int_from_format_string@?$output_processor@DV?$stream_output_adapter@D@__crt_stdio_output@@V?$positional_parameter_base@DV?$stream_output_adapter@D@__crt_stdio_output@@@2@@__crt_stdio_output@@AAE_NQAH@Z 1002faed f i libucrt:output.obj
 0001:0002eb80       ?parse_int_from_format_string@?$output_processor@DV?$stream_output_adapter@D@__crt_stdio_output@@V?$standard_base@DV?$stream_output_adapter@D@__crt_stdio_output@@@2@@__crt_stdio_output@@AAE_NQAH@Z 1002fb80 f i libucrt:output.obj
 0001:0002ec13       ?parse_int_from_format_string@?$output_processor@DV?$string_output_adapter@D@__crt_stdio_output@@V?$format_validation_base@DV?$string_output_adapter@D@__crt_stdio_output@@@2@@__crt_stdio_output@@AAE_NQAH@Z 1002fc13 f i libucrt:output.obj
 0001:0002eca6       ?parse_int_from_format_string@?$output_processor@DV?$string_output_adapter@D@__crt_stdio_output@@V?$positional_parameter_base@DV?$string_output_adapter@D@__crt_stdio_output@@@2@@__crt_stdio_output@@AAE_NQAH@Z 1002fca6 f i libucrt:output.obj
 0001:0002ed39       ?parse_int_from_format_string@?$output_processor@DV?$string_output_adapter@D@__crt_stdio_output@@V?$standard_base@DV?$string_output_adapter@D@__crt_stdio_output@@@2@@__crt_stdio_output@@AAE_NQAH@Z 1002fd39 f i libucrt:output.obj
 0001:0002edcc       ?parse_int_from_format_string@?$output_processor@_WV?$stream_output_adapter@_W@__crt_stdio_output@@V?$format_validation_base@_WV?$stream_output_adapter@_W@__crt_stdio_output@@@2@@__crt_stdio_output@@AAE_NQAH@Z 1002fdcc f i libucrt:output.obj
 0001:0002ee62       ?parse_int_from_format_string@?$output_processor@_WV?$stream_output_adapter@_W@__crt_stdio_output@@V?$positional_parameter_base@_WV?$stream_output_adapter@_W@__crt_stdio_output@@@2@@__crt_stdio_output@@AAE_NQAH@Z 1002fe62 f i libucrt:output.obj
 0001:0002eef8       ?parse_int_from_format_string@?$output_processor@_WV?$stream_output_adapter@_W@__crt_stdio_output@@V?$standard_base@_WV?$stream_output_adapter@_W@__crt_stdio_output@@@2@@__crt_stdio_output@@AAE_NQAH@Z 1002fef8 f i libucrt:output.obj
 0001:0002ef8e       ?parse_int_from_format_string@?$output_processor@_WV?$string_output_adapter@_W@__crt_stdio_output@@V?$format_validation_base@_WV?$string_output_adapter@_W@__crt_stdio_output@@@2@@__crt_stdio_output@@AAE_NQAH@Z 1002ff8e f i libucrt:output.obj
 0001:0002f024       ?parse_int_from_format_string@?$output_processor@_WV?$string_output_adapter@_W@__crt_stdio_output@@V?$positional_parameter_base@_WV?$string_output_adapter@_W@__crt_stdio_output@@@2@@__crt_stdio_output@@AAE_NQAH@Z 10030024 f i libucrt:output.obj
 0001:0002f0ba       ?parse_int_from_format_string@?$output_processor@_WV?$string_output_adapter@_W@__crt_stdio_output@@V?$standard_base@_WV?$string_output_adapter@_W@__crt_stdio_output@@@2@@__crt_stdio_output@@AAE_NQAH@Z 100300ba f i libucrt:output.obj
 0001:0002f150       ?process@?$output_processor@DV?$stream_output_adapter@D@__crt_stdio_output@@V?$format_validation_base@DV?$stream_output_adapter@D@__crt_stdio_output@@@2@@__crt_stdio_output@@QAEHXZ 10030150 f i libucrt:output.obj
 0001:0002f2c2       ?process@?$output_processor@DV?$stream_output_adapter@D@__crt_stdio_output@@V?$positional_parameter_base@DV?$stream_output_adapter@D@__crt_stdio_output@@@2@@__crt_stdio_output@@QAEHXZ 100302c2 f i libucrt:output.obj
 0001:0002f475       ?process@?$output_processor@DV?$stream_output_adapter@D@__crt_stdio_output@@V?$standard_base@DV?$stream_output_adapter@D@__crt_stdio_output@@@2@@__crt_stdio_output@@QAEHXZ 10030475 f i libucrt:output.obj
 0001:0002f5d8       ?process@?$output_processor@DV?$string_output_adapter@D@__crt_stdio_output@@V?$format_validation_base@DV?$string_output_adapter@D@__crt_stdio_output@@@2@@__crt_stdio_output@@QAEHXZ 100305d8 f i libucrt:output.obj
 0001:0002f74a       ?process@?$output_processor@DV?$string_output_adapter@D@__crt_stdio_output@@V?$positional_parameter_base@DV?$string_output_adapter@D@__crt_stdio_output@@@2@@__crt_stdio_output@@QAEHXZ 1003074a f i libucrt:output.obj
 0001:0002f8fd       ?process@?$output_processor@DV?$string_output_adapter@D@__crt_stdio_output@@V?$standard_base@DV?$string_output_adapter@D@__crt_stdio_output@@@2@@__crt_stdio_output@@QAEHXZ 100308fd f i libucrt:output.obj
 0001:0002fa60       ?process@?$output_processor@_WV?$stream_output_adapter@_W@__crt_stdio_output@@V?$format_validation_base@_WV?$stream_output_adapter@_W@__crt_stdio_output@@@2@@__crt_stdio_output@@QAEHXZ 10030a60 f i libucrt:output.obj
 0001:0002fbdc       ?process@?$output_processor@_WV?$stream_output_adapter@_W@__crt_stdio_output@@V?$positional_parameter_base@_WV?$stream_output_adapter@_W@__crt_stdio_output@@@2@@__crt_stdio_output@@QAEHXZ 10030bdc f i libucrt:output.obj
 0001:0002fd94       ?process@?$output_processor@_WV?$stream_output_adapter@_W@__crt_stdio_output@@V?$standard_base@_WV?$stream_output_adapter@_W@__crt_stdio_output@@@2@@__crt_stdio_output@@QAEHXZ 10030d94 f i libucrt:output.obj
 0001:0002fefc       ?process@?$output_processor@_WV?$string_output_adapter@_W@__crt_stdio_output@@V?$format_validation_base@_WV?$string_output_adapter@_W@__crt_stdio_output@@@2@@__crt_stdio_output@@QAEHXZ 10030efc f i libucrt:output.obj
 0001:00030078       ?process@?$output_processor@_WV?$string_output_adapter@_W@__crt_stdio_output@@V?$positional_parameter_base@_WV?$string_output_adapter@_W@__crt_stdio_output@@@2@@__crt_stdio_output@@QAEHXZ 10031078 f i libucrt:output.obj
 0001:00030230       ?process@?$output_processor@_WV?$string_output_adapter@_W@__crt_stdio_output@@V?$standard_base@_WV?$string_output_adapter@_W@__crt_stdio_output@@@2@@__crt_stdio_output@@QAEHXZ 10031230 f i libucrt:output.obj
 0001:00030398       ?set_flag@?$output_processor@DV?$stream_output_adapter@D@__crt_stdio_output@@V?$format_validation_base@DV?$stream_output_adapter@D@__crt_stdio_output@@@2@@__crt_stdio_output@@AAEXI@Z 10031398 f i libucrt:output.obj
 0001:000303aa       ?set_flag@?$output_processor@DV?$stream_output_adapter@D@__crt_stdio_output@@V?$positional_parameter_base@DV?$stream_output_adapter@D@__crt_stdio_output@@@2@@__crt_stdio_output@@AAEXI@Z 100313aa f i libucrt:output.obj
 0001:000303bc       ?set_flag@?$output_processor@DV?$stream_output_adapter@D@__crt_stdio_output@@V?$standard_base@DV?$stream_output_adapter@D@__crt_stdio_output@@@2@@__crt_stdio_output@@AAEXI@Z 100313bc f i libucrt:output.obj
 0001:000303ce       ?set_flag@?$output_processor@DV?$string_output_adapter@D@__crt_stdio_output@@V?$format_validation_base@DV?$string_output_adapter@D@__crt_stdio_output@@@2@@__crt_stdio_output@@AAEXI@Z 100313ce f i libucrt:output.obj
 0001:000303e0       ?set_flag@?$output_processor@DV?$string_output_adapter@D@__crt_stdio_output@@V?$positional_parameter_base@DV?$string_output_adapter@D@__crt_stdio_output@@@2@@__crt_stdio_output@@AAEXI@Z 100313e0 f i libucrt:output.obj
 0001:000303f2       ?set_flag@?$output_processor@DV?$string_output_adapter@D@__crt_stdio_output@@V?$standard_base@DV?$string_output_adapter@D@__crt_stdio_output@@@2@@__crt_stdio_output@@AAEXI@Z 100313f2 f i libucrt:output.obj
 0001:00030404       ?set_flag@?$output_processor@_WV?$stream_output_adapter@_W@__crt_stdio_output@@V?$format_validation_base@_WV?$stream_output_adapter@_W@__crt_stdio_output@@@2@@__crt_stdio_output@@AAEXI@Z 10031404 f i libucrt:output.obj
 0001:00030416       ?set_flag@?$output_processor@_WV?$stream_output_adapter@_W@__crt_stdio_output@@V?$positional_parameter_base@_WV?$stream_output_adapter@_W@__crt_stdio_output@@@2@@__crt_stdio_output@@AAEXI@Z 10031416 f i libucrt:output.obj
 0001:00030428       ?set_flag@?$output_processor@_WV?$stream_output_adapter@_W@__crt_stdio_output@@V?$standard_base@_WV?$stream_output_adapter@_W@__crt_stdio_output@@@2@@__crt_stdio_output@@AAEXI@Z 10031428 f i libucrt:output.obj
 0001:0003043a       ?set_flag@?$output_processor@_WV?$string_output_adapter@_W@__crt_stdio_output@@V?$format_validation_base@_WV?$string_output_adapter@_W@__crt_stdio_output@@@2@@__crt_stdio_output@@AAEXI@Z 1003143a f i libucrt:output.obj
 0001:0003044c       ?set_flag@?$output_processor@_WV?$string_output_adapter@_W@__crt_stdio_output@@V?$positional_parameter_base@_WV?$string_output_adapter@_W@__crt_stdio_output@@@2@@__crt_stdio_output@@AAEXI@Z 1003144c f i libucrt:output.obj
 0001:0003045e       ?set_flag@?$output_processor@_WV?$string_output_adapter@_W@__crt_stdio_output@@V?$standard_base@_WV?$string_output_adapter@_W@__crt_stdio_output@@@2@@__crt_stdio_output@@AAEXI@Z 1003145e f i libucrt:output.obj
 0001:00030470       ?should_format@?$positional_parameter_base@DV?$stream_output_adapter@D@__crt_stdio_output@@@__crt_stdio_output@@IAE_NXZ 10031470 f i libucrt:output.obj
 0001:0003048b       ?should_format@?$positional_parameter_base@DV?$string_output_adapter@D@__crt_stdio_output@@@__crt_stdio_output@@IAE_NXZ 1003148b f i libucrt:output.obj
 0001:000304a6       ?should_format@?$positional_parameter_base@_WV?$stream_output_adapter@_W@__crt_stdio_output@@@__crt_stdio_output@@IAE_NXZ 100314a6 f i libucrt:output.obj
 0001:000304c1       ?should_format@?$positional_parameter_base@_WV?$string_output_adapter@_W@__crt_stdio_output@@@__crt_stdio_output@@IAE_NXZ 100314c1 f i libucrt:output.obj
 0001:000304dc       ?should_format@?$standard_base@DV?$stream_output_adapter@D@__crt_stdio_output@@@__crt_stdio_output@@IAE_NXZ 100314dc f i libucrt:output.obj
 0001:000304df       ?should_format@?$standard_base@DV?$string_output_adapter@D@__crt_stdio_output@@@__crt_stdio_output@@IAE_NXZ 100314df f i libucrt:output.obj
 0001:000304e2       ?should_format@?$standard_base@_WV?$stream_output_adapter@_W@__crt_stdio_output@@@__crt_stdio_output@@IAE_NXZ 100314e2 f i libucrt:output.obj
 0001:000304e5       ?should_format@?$standard_base@_WV?$string_output_adapter@_W@__crt_stdio_output@@@__crt_stdio_output@@IAE_NXZ 100314e5 f i libucrt:output.obj
 0001:000304e8       ?should_skip_normal_state_processing@?$positional_parameter_base@DV?$stream_output_adapter@D@__crt_stdio_output@@@__crt_stdio_output@@IAE_NXZ 100314e8 f i libucrt:output.obj
 0001:0003051a       ?should_skip_normal_state_processing@?$positional_parameter_base@DV?$string_output_adapter@D@__crt_stdio_output@@@__crt_stdio_output@@IAE_NXZ 1003151a f i libucrt:output.obj
 0001:0003054c       ?should_skip_normal_state_processing@?$positional_parameter_base@_WV?$stream_output_adapter@_W@__crt_stdio_output@@@__crt_stdio_output@@IAE_NXZ 1003154c f i libucrt:output.obj
 0001:0003057e       ?should_skip_normal_state_processing@?$positional_parameter_base@_WV?$string_output_adapter@_W@__crt_stdio_output@@@__crt_stdio_output@@IAE_NXZ 1003157e f i libucrt:output.obj
 0001:000305b0       ?should_skip_normal_state_processing@?$standard_base@DV?$stream_output_adapter@D@__crt_stdio_output@@@__crt_stdio_output@@IAE_NXZ 100315b0 f i libucrt:output.obj
 0001:000305b3       ?should_skip_normal_state_processing@?$standard_base@DV?$string_output_adapter@D@__crt_stdio_output@@@__crt_stdio_output@@IAE_NXZ 100315b3 f i libucrt:output.obj
 0001:000305b6       ?should_skip_normal_state_processing@?$standard_base@_WV?$stream_output_adapter@_W@__crt_stdio_output@@@__crt_stdio_output@@IAE_NXZ 100315b6 f i libucrt:output.obj
 0001:000305b9       ?should_skip_normal_state_processing@?$standard_base@_WV?$string_output_adapter@_W@__crt_stdio_output@@@__crt_stdio_output@@IAE_NXZ 100315b9 f i libucrt:output.obj
 0001:000305bc       ?should_skip_type_state_output@?$positional_parameter_base@DV?$stream_output_adapter@D@__crt_stdio_output@@@__crt_stdio_output@@IBE_NXZ 100315bc f i libucrt:output.obj
 0001:000305d8       ?should_skip_type_state_output@?$positional_parameter_base@DV?$string_output_adapter@D@__crt_stdio_output@@@__crt_stdio_output@@IBE_NXZ 100315d8 f i libucrt:output.obj
 0001:000305f4       ?should_skip_type_state_output@?$positional_parameter_base@_WV?$stream_output_adapter@_W@__crt_stdio_output@@@__crt_stdio_output@@IBE_NXZ 100315f4 f i libucrt:output.obj
 0001:00030610       ?should_skip_type_state_output@?$positional_parameter_base@_WV?$string_output_adapter@_W@__crt_stdio_output@@@__crt_stdio_output@@IBE_NXZ 10031610 f i libucrt:output.obj
 0001:0003062c       ?should_skip_type_state_output@?$standard_base@DV?$stream_output_adapter@D@__crt_stdio_output@@@__crt_stdio_output@@IBE_NXZ 1003162c f i libucrt:output.obj
 0001:0003062f       ?should_skip_type_state_output@?$standard_base@DV?$string_output_adapter@D@__crt_stdio_output@@@__crt_stdio_output@@IBE_NXZ 1003162f f i libucrt:output.obj
 0001:00030632       ?should_skip_type_state_output@?$standard_base@_WV?$stream_output_adapter@_W@__crt_stdio_output@@@__crt_stdio_output@@IBE_NXZ 10031632 f i libucrt:output.obj
 0001:00030635       ?should_skip_type_state_output@?$standard_base@_WV?$string_output_adapter@_W@__crt_stdio_output@@@__crt_stdio_output@@IBE_NXZ 10031635 f i libucrt:output.obj
 0001:00030638       ?state_case_dot@?$output_processor@DV?$stream_output_adapter@D@__crt_stdio_output@@V?$format_validation_base@DV?$stream_output_adapter@D@__crt_stdio_output@@@2@@__crt_stdio_output@@AAE_NXZ 10031638 f i libucrt:output.obj
 0001:0003063f       ?state_case_dot@?$output_processor@DV?$stream_output_adapter@D@__crt_stdio_output@@V?$positional_parameter_base@DV?$stream_output_adapter@D@__crt_stdio_output@@@2@@__crt_stdio_output@@AAE_NXZ 1003163f f i libucrt:output.obj
 0001:00030646       ?state_case_dot@?$output_processor@DV?$stream_output_adapter@D@__crt_stdio_output@@V?$standard_base@DV?$stream_output_adapter@D@__crt_stdio_output@@@2@@__crt_stdio_output@@AAE_NXZ 10031646 f i libucrt:output.obj
 0001:0003064d       ?state_case_dot@?$output_processor@DV?$string_output_adapter@D@__crt_stdio_output@@V?$format_validation_base@DV?$string_output_adapter@D@__crt_stdio_output@@@2@@__crt_stdio_output@@AAE_NXZ 1003164d f i libucrt:output.obj
 0001:00030654       ?state_case_dot@?$output_processor@DV?$string_output_adapter@D@__crt_stdio_output@@V?$positional_parameter_base@DV?$string_output_adapter@D@__crt_stdio_output@@@2@@__crt_stdio_output@@AAE_NXZ 10031654 f i libucrt:output.obj
 0001:0003065b       ?state_case_dot@?$output_processor@DV?$string_output_adapter@D@__crt_stdio_output@@V?$standard_base@DV?$string_output_adapter@D@__crt_stdio_output@@@2@@__crt_stdio_output@@AAE_NXZ 1003165b f i libucrt:output.obj
 0001:00030662       ?state_case_dot@?$output_processor@_WV?$stream_output_adapter@_W@__crt_stdio_output@@V?$format_validation_base@_WV?$stream_output_adapter@_W@__crt_stdio_output@@@2@@__crt_stdio_output@@AAE_NXZ 10031662 f i libucrt:output.obj
 0001:00030669       ?state_case_dot@?$output_processor@_WV?$stream_output_adapter@_W@__crt_stdio_output@@V?$positional_parameter_base@_WV?$stream_output_adapter@_W@__crt_stdio_output@@@2@@__crt_stdio_output@@AAE_NXZ 10031669 f i libucrt:output.obj
 0001:00030670       ?state_case_dot@?$output_processor@_WV?$stream_output_adapter@_W@__crt_stdio_output@@V?$standard_base@_WV?$stream_output_adapter@_W@__crt_stdio_output@@@2@@__crt_stdio_output@@AAE_NXZ 10031670 f i libucrt:output.obj
 0001:00030677       ?state_case_dot@?$output_processor@_WV?$string_output_adapter@_W@__crt_stdio_output@@V?$format_validation_base@_WV?$string_output_adapter@_W@__crt_stdio_output@@@2@@__crt_stdio_output@@AAE_NXZ 10031677 f i libucrt:output.obj
 0001:0003067e       ?state_case_dot@?$output_processor@_WV?$string_output_adapter@_W@__crt_stdio_output@@V?$positional_parameter_base@_WV?$string_output_adapter@_W@__crt_stdio_output@@@2@@__crt_stdio_output@@AAE_NXZ 1003167e f i libucrt:output.obj
 0001:00030685       ?state_case_dot@?$output_processor@_WV?$string_output_adapter@_W@__crt_stdio_output@@V?$standard_base@_WV?$string_output_adapter@_W@__crt_stdio_output@@@2@@__crt_stdio_output@@AAE_NXZ 10031685 f i libucrt:output.obj
 0001:0003068c       ?state_case_flag@?$output_processor@DV?$stream_output_adapter@D@__crt_stdio_output@@V?$format_validation_base@DV?$stream_output_adapter@D@__crt_stdio_output@@@2@@__crt_stdio_output@@AAE_NXZ 1003168c f i libucrt:output.obj
 0001:000306d8       ?state_case_flag@?$output_processor@DV?$stream_output_adapter@D@__crt_stdio_output@@V?$positional_parameter_base@DV?$stream_output_adapter@D@__crt_stdio_output@@@2@@__crt_stdio_output@@AAE_NXZ 100316d8 f i libucrt:output.obj
 0001:00030724       ?state_case_flag@?$output_processor@DV?$stream_output_adapter@D@__crt_stdio_output@@V?$standard_base@DV?$stream_output_adapter@D@__crt_stdio_output@@@2@@__crt_stdio_output@@AAE_NXZ 10031724 f i libucrt:output.obj
 0001:00030770       ?state_case_flag@?$output_processor@DV?$string_output_adapter@D@__crt_stdio_output@@V?$format_validation_base@DV?$string_output_adapter@D@__crt_stdio_output@@@2@@__crt_stdio_output@@AAE_NXZ 10031770 f i libucrt:output.obj
 0001:000307bc       ?state_case_flag@?$output_processor@DV?$string_output_adapter@D@__crt_stdio_output@@V?$positional_parameter_base@DV?$string_output_adapter@D@__crt_stdio_output@@@2@@__crt_stdio_output@@AAE_NXZ 100317bc f i libucrt:output.obj
 0001:00030808       ?state_case_flag@?$output_processor@DV?$string_output_adapter@D@__crt_stdio_output@@V?$standard_base@DV?$string_output_adapter@D@__crt_stdio_output@@@2@@__crt_stdio_output@@AAE_NXZ 10031808 f i libucrt:output.obj
 0001:00030854       ?state_case_flag@?$output_processor@_WV?$stream_output_adapter@_W@__crt_stdio_output@@V?$format_validation_base@_WV?$stream_output_adapter@_W@__crt_stdio_output@@@2@@__crt_stdio_output@@AAE_NXZ 10031854 f i libucrt:output.obj
 0001:000308a0       ?state_case_flag@?$output_processor@_WV?$stream_output_adapter@_W@__crt_stdio_output@@V?$positional_parameter_base@_WV?$stream_output_adapter@_W@__crt_stdio_output@@@2@@__crt_stdio_output@@AAE_NXZ 100318a0 f i libucrt:output.obj
 0001:000308ec       ?state_case_flag@?$output_processor@_WV?$stream_output_adapter@_W@__crt_stdio_output@@V?$standard_base@_WV?$stream_output_adapter@_W@__crt_stdio_output@@@2@@__crt_stdio_output@@AAE_NXZ 100318ec f i libucrt:output.obj
 0001:00030938       ?state_case_flag@?$output_processor@_WV?$string_output_adapter@_W@__crt_stdio_output@@V?$format_validation_base@_WV?$string_output_adapter@_W@__crt_stdio_output@@@2@@__crt_stdio_output@@AAE_NXZ 10031938 f i libucrt:output.obj
 0001:00030984       ?state_case_flag@?$output_processor@_WV?$string_output_adapter@_W@__crt_stdio_output@@V?$positional_parameter_base@_WV?$string_output_adapter@_W@__crt_stdio_output@@@2@@__crt_stdio_output@@AAE_NXZ 10031984 f i libucrt:output.obj
 0001:000309d0       ?state_case_flag@?$output_processor@_WV?$string_output_adapter@_W@__crt_stdio_output@@V?$standard_base@_WV?$string_output_adapter@_W@__crt_stdio_output@@@2@@__crt_stdio_output@@AAE_NXZ 100319d0 f i libucrt:output.obj
 0001:00030a1c       ?state_case_normal@?$output_processor@DV?$stream_output_adapter@D@__crt_stdio_output@@V?$format_validation_base@DV?$stream_output_adapter@D@__crt_stdio_output@@@2@@__crt_stdio_output@@AAE_NXZ 10031a1c f i libucrt:output.obj
 0001:00030a42       ?state_case_normal@?$output_processor@DV?$stream_output_adapter@D@__crt_stdio_output@@V?$positional_parameter_base@DV?$stream_output_adapter@D@__crt_stdio_output@@@2@@__crt_stdio_output@@AAE_NXZ 10031a42 f i libucrt:output.obj
 0001:00030a7f       ?state_case_normal@?$output_processor@DV?$stream_output_adapter@D@__crt_stdio_output@@V?$standard_base@DV?$stream_output_adapter@D@__crt_stdio_output@@@2@@__crt_stdio_output@@AAE_NXZ 10031a7f f i libucrt:output.obj
 0001:00030aa5       ?state_case_normal@?$output_processor@DV?$string_output_adapter@D@__crt_stdio_output@@V?$format_validation_base@DV?$string_output_adapter@D@__crt_stdio_output@@@2@@__crt_stdio_output@@AAE_NXZ 10031aa5 f i libucrt:output.obj
 0001:00030acb       ?state_case_normal@?$output_processor@DV?$string_output_adapter@D@__crt_stdio_output@@V?$positional_parameter_base@DV?$string_output_adapter@D@__crt_stdio_output@@@2@@__crt_stdio_output@@AAE_NXZ 10031acb f i libucrt:output.obj
 0001:00030b08       ?state_case_normal@?$output_processor@DV?$string_output_adapter@D@__crt_stdio_output@@V?$standard_base@DV?$string_output_adapter@D@__crt_stdio_output@@@2@@__crt_stdio_output@@AAE_NXZ 10031b08 f i libucrt:output.obj
 0001:00030b2e       ?state_case_normal@?$output_processor@_WV?$stream_output_adapter@_W@__crt_stdio_output@@V?$format_validation_base@_WV?$stream_output_adapter@_W@__crt_stdio_output@@@2@@__crt_stdio_output@@AAE_NXZ 10031b2e f i libucrt:output.obj
 0001:00030b54       ?state_case_normal@?$output_processor@_WV?$stream_output_adapter@_W@__crt_stdio_output@@V?$positional_parameter_base@_WV?$stream_output_adapter@_W@__crt_stdio_output@@@2@@__crt_stdio_output@@AAE_NXZ 10031b54 f i libucrt:output.obj
 0001:00030b91       ?state_case_normal@?$output_processor@_WV?$stream_output_adapter@_W@__crt_stdio_output@@V?$standard_base@_WV?$stream_output_adapter@_W@__crt_stdio_output@@@2@@__crt_stdio_output@@AAE_NXZ 10031b91 f i libucrt:output.obj
 0001:00030bb7       ?state_case_normal@?$output_processor@_WV?$string_output_adapter@_W@__crt_stdio_output@@V?$format_validation_base@_WV?$string_output_adapter@_W@__crt_stdio_output@@@2@@__crt_stdio_output@@AAE_NXZ 10031bb7 f i libucrt:output.obj
 0001:00030bdd       ?state_case_normal@?$output_processor@_WV?$string_output_adapter@_W@__crt_stdio_output@@V?$positional_parameter_base@_WV?$string_output_adapter@_W@__crt_stdio_output@@@2@@__crt_stdio_output@@AAE_NXZ 10031bdd f i libucrt:output.obj
 0001:00030c1a       ?state_case_normal@?$output_processor@_WV?$string_output_adapter@_W@__crt_stdio_output@@V?$standard_base@_WV?$string_output_adapter@_W@__crt_stdio_output@@@2@@__crt_stdio_output@@AAE_NXZ 10031c1a f i libucrt:output.obj
 0001:00030c40       ?state_case_normal_common@?$output_processor@DV?$stream_output_adapter@D@__crt_stdio_output@@V?$format_validation_base@DV?$stream_output_adapter@D@__crt_stdio_output@@@2@@__crt_stdio_output@@AAE_NXZ 10031c40 f i libucrt:output.obj
 0001:00030c8b       ?state_case_normal_common@?$output_processor@DV?$stream_output_adapter@D@__crt_stdio_output@@V?$positional_parameter_base@DV?$stream_output_adapter@D@__crt_stdio_output@@@2@@__crt_stdio_output@@AAE_NXZ 10031c8b f i libucrt:output.obj
 0001:00030cd6       ?state_case_normal_common@?$output_processor@DV?$stream_output_adapter@D@__crt_stdio_output@@V?$standard_base@DV?$stream_output_adapter@D@__crt_stdio_output@@@2@@__crt_stdio_output@@AAE_NXZ 10031cd6 f i libucrt:output.obj
 0001:00030d21       ?state_case_normal_common@?$output_processor@DV?$string_output_adapter@D@__crt_stdio_output@@V?$format_validation_base@DV?$string_output_adapter@D@__crt_stdio_output@@@2@@__crt_stdio_output@@AAE_NXZ 10031d21 f i libucrt:output.obj
 0001:00030d55       ?state_case_normal_common@?$output_processor@DV?$string_output_adapter@D@__crt_stdio_output@@V?$positional_parameter_base@DV?$string_output_adapter@D@__crt_stdio_output@@@2@@__crt_stdio_output@@AAE_NXZ 10031d55 f i libucrt:output.obj
 0001:00030d89       ?state_case_normal_common@?$output_processor@DV?$string_output_adapter@D@__crt_stdio_output@@V?$standard_base@DV?$string_output_adapter@D@__crt_stdio_output@@@2@@__crt_stdio_output@@AAE_NXZ 10031d89 f i libucrt:output.obj
 0001:00030dbd       ?state_case_normal_common@?$output_processor@_WV?$stream_output_adapter@_W@__crt_stdio_output@@V?$format_validation_base@_WV?$stream_output_adapter@_W@__crt_stdio_output@@@2@@__crt_stdio_output@@AAE_NXZ 10031dbd f i libucrt:output.obj
 0001:00030df1       ?state_case_normal_common@?$output_processor@_WV?$stream_output_adapter@_W@__crt_stdio_output@@V?$positional_parameter_base@_WV?$stream_output_adapter@_W@__crt_stdio_output@@@2@@__crt_stdio_output@@AAE_NXZ 10031df1 f i libucrt:output.obj
 0001:00030e25       ?state_case_normal_common@?$output_processor@_WV?$stream_output_adapter@_W@__crt_stdio_output@@V?$standard_base@_WV?$stream_output_adapter@_W@__crt_stdio_output@@@2@@__crt_stdio_output@@AAE_NXZ 10031e25 f i libucrt:output.obj
 0001:00030e59       ?state_case_normal_common@?$output_processor@_WV?$string_output_adapter@_W@__crt_stdio_output@@V?$format_validation_base@_WV?$string_output_adapter@_W@__crt_stdio_output@@@2@@__crt_stdio_output@@AAE_NXZ 10031e59 f i libucrt:output.obj
 0001:00030e7a       ?state_case_normal_common@?$output_processor@_WV?$string_output_adapter@_W@__crt_stdio_output@@V?$positional_parameter_base@_WV?$string_output_adapter@_W@__crt_stdio_output@@@2@@__crt_stdio_output@@AAE_NXZ 10031e7a f i libucrt:output.obj
 0001:00030e9b       ?state_case_normal_common@?$output_processor@_WV?$string_output_adapter@_W@__crt_stdio_output@@V?$standard_base@_WV?$string_output_adapter@_W@__crt_stdio_output@@@2@@__crt_stdio_output@@AAE_NXZ 10031e9b f i libucrt:output.obj
 0001:00030ebc       ?state_case_normal_tchar@?$output_processor@DV?$stream_output_adapter@D@__crt_stdio_output@@V?$format_validation_base@DV?$stream_output_adapter@D@__crt_stdio_output@@@2@@__crt_stdio_output@@AAE_ND@Z 10031ebc f i libucrt:output.obj
 0001:00030f36       ?state_case_normal_tchar@?$output_processor@DV?$stream_output_adapter@D@__crt_stdio_output@@V?$positional_parameter_base@DV?$stream_output_adapter@D@__crt_stdio_output@@@2@@__crt_stdio_output@@AAE_ND@Z 10031f36 f i libucrt:output.obj
 0001:00030fb0       ?state_case_normal_tchar@?$output_processor@DV?$stream_output_adapter@D@__crt_stdio_output@@V?$standard_base@DV?$stream_output_adapter@D@__crt_stdio_output@@@2@@__crt_stdio_output@@AAE_ND@Z 10031fb0 f i libucrt:output.obj
 0001:0003102a       ?state_case_normal_tchar@?$output_processor@DV?$string_output_adapter@D@__crt_stdio_output@@V?$format_validation_base@DV?$string_output_adapter@D@__crt_stdio_output@@@2@@__crt_stdio_output@@AAE_ND@Z 1003202a f i libucrt:output.obj
 0001:00031099       ?state_case_normal_tchar@?$output_processor@DV?$string_output_adapter@D@__crt_stdio_output@@V?$positional_parameter_base@DV?$string_output_adapter@D@__crt_stdio_output@@@2@@__crt_stdio_output@@AAE_ND@Z 10032099 f i libucrt:output.obj
 0001:00031108       ?state_case_normal_tchar@?$output_processor@DV?$string_output_adapter@D@__crt_stdio_output@@V?$standard_base@DV?$string_output_adapter@D@__crt_stdio_output@@@2@@__crt_stdio_output@@AAE_ND@Z 10032108 f i libucrt:output.obj
 0001:00031177       ?state_case_normal_tchar@?$output_processor@_WV?$stream_output_adapter@_W@__crt_stdio_output@@V?$format_validation_base@_WV?$stream_output_adapter@_W@__crt_stdio_output@@@2@@__crt_stdio_output@@AAE_N_W@Z 10032177 f i libucrt:output.obj
 0001:00031182       ?state_case_normal_tchar@?$output_processor@_WV?$stream_output_adapter@_W@__crt_stdio_output@@V?$positional_parameter_base@_WV?$stream_output_adapter@_W@__crt_stdio_output@@@2@@__crt_stdio_output@@AAE_N_W@Z 10032182 f i libucrt:output.obj
 0001:0003118d       ?state_case_normal_tchar@?$output_processor@_WV?$stream_output_adapter@_W@__crt_stdio_output@@V?$standard_base@_WV?$stream_output_adapter@_W@__crt_stdio_output@@@2@@__crt_stdio_output@@AAE_N_W@Z 1003218d f i libucrt:output.obj
 0001:00031198       ?state_case_normal_tchar@?$output_processor@_WV?$string_output_adapter@_W@__crt_stdio_output@@V?$format_validation_base@_WV?$string_output_adapter@_W@__crt_stdio_output@@@2@@__crt_stdio_output@@AAE_N_W@Z 10032198 f i libucrt:output.obj
 0001:000311a3       ?state_case_normal_tchar@?$output_processor@_WV?$string_output_adapter@_W@__crt_stdio_output@@V?$positional_parameter_base@_WV?$string_output_adapter@_W@__crt_stdio_output@@@2@@__crt_stdio_output@@AAE_N_W@Z 100321a3 f i libucrt:output.obj
 0001:000311ae       ?state_case_normal_tchar@?$output_processor@_WV?$string_output_adapter@_W@__crt_stdio_output@@V?$standard_base@_WV?$string_output_adapter@_W@__crt_stdio_output@@@2@@__crt_stdio_output@@AAE_N_W@Z 100321ae f i libucrt:output.obj
 0001:000311b9       ?state_case_percent@?$output_processor@DV?$stream_output_adapter@D@__crt_stdio_output@@V?$format_validation_base@DV?$stream_output_adapter@D@__crt_stdio_output@@@2@@__crt_stdio_output@@AAE_NXZ 100321b9 f i libucrt:output.obj
 0001:000311d7       ?state_case_percent@?$output_processor@DV?$stream_output_adapter@D@__crt_stdio_output@@V?$positional_parameter_base@DV?$stream_output_adapter@D@__crt_stdio_output@@@2@@__crt_stdio_output@@AAE_NXZ 100321d7 f i libucrt:output.obj
 0001:000311f5       ?state_case_percent@?$output_processor@DV?$stream_output_adapter@D@__crt_stdio_output@@V?$standard_base@DV?$stream_output_adapter@D@__crt_stdio_output@@@2@@__crt_stdio_output@@AAE_NXZ 100321f5 f i libucrt:output.obj
 0001:00031213       ?state_case_percent@?$output_processor@DV?$string_output_adapter@D@__crt_stdio_output@@V?$format_validation_base@DV?$string_output_adapter@D@__crt_stdio_output@@@2@@__crt_stdio_output@@AAE_NXZ 10032213 f i libucrt:output.obj
 0001:00031231       ?state_case_percent@?$output_processor@DV?$string_output_adapter@D@__crt_stdio_output@@V?$positional_parameter_base@DV?$string_output_adapter@D@__crt_stdio_output@@@2@@__crt_stdio_output@@AAE_NXZ 10032231 f i libucrt:output.obj
 0001:0003124f       ?state_case_percent@?$output_processor@DV?$string_output_adapter@D@__crt_stdio_output@@V?$standard_base@DV?$string_output_adapter@D@__crt_stdio_output@@@2@@__crt_stdio_output@@AAE_NXZ 1003224f f i libucrt:output.obj
 0001:0003126d       ?state_case_percent@?$output_processor@_WV?$stream_output_adapter@_W@__crt_stdio_output@@V?$format_validation_base@_WV?$stream_output_adapter@_W@__crt_stdio_output@@@2@@__crt_stdio_output@@AAE_NXZ 1003226d f i libucrt:output.obj
 0001:0003128b       ?state_case_percent@?$output_processor@_WV?$stream_output_adapter@_W@__crt_stdio_output@@V?$positional_parameter_base@_WV?$stream_output_adapter@_W@__crt_stdio_output@@@2@@__crt_stdio_output@@AAE_NXZ 1003228b f i libucrt:output.obj
 0001:000312a9       ?state_case_percent@?$output_processor@_WV?$stream_output_adapter@_W@__crt_stdio_output@@V?$standard_base@_WV?$stream_output_adapter@_W@__crt_stdio_output@@@2@@__crt_stdio_output@@AAE_NXZ 100322a9 f i libucrt:output.obj
 0001:000312c7       ?state_case_percent@?$output_processor@_WV?$string_output_adapter@_W@__crt_stdio_output@@V?$format_validation_base@_WV?$string_output_adapter@_W@__crt_stdio_output@@@2@@__crt_stdio_output@@AAE_NXZ 100322c7 f i libucrt:output.obj
 0001:000312e5       ?state_case_percent@?$output_processor@_WV?$string_output_adapter@_W@__crt_stdio_output@@V?$positional_parameter_base@_WV?$string_output_adapter@_W@__crt_stdio_output@@@2@@__crt_stdio_output@@AAE_NXZ 100322e5 f i libucrt:output.obj
 0001:00031303       ?state_case_percent@?$output_processor@_WV?$string_output_adapter@_W@__crt_stdio_output@@V?$standard_base@_WV?$string_output_adapter@_W@__crt_stdio_output@@@2@@__crt_stdio_output@@AAE_NXZ 10032303 f i libucrt:output.obj
 0001:00031321       ?state_case_precision@?$output_processor@DV?$stream_output_adapter@D@__crt_stdio_output@@V?$format_validation_base@DV?$stream_output_adapter@D@__crt_stdio_output@@@2@@__crt_stdio_output@@AAE_NXZ 10032321 f i libucrt:output.obj
 0001:00031350       ?state_case_precision@?$output_processor@DV?$stream_output_adapter@D@__crt_stdio_output@@V?$positional_parameter_base@DV?$stream_output_adapter@D@__crt_stdio_output@@@2@@__crt_stdio_output@@AAE_NXZ 10032350 f i libucrt:output.obj
 0001:00031398       ?state_case_precision@?$output_processor@DV?$stream_output_adapter@D@__crt_stdio_output@@V?$standard_base@DV?$stream_output_adapter@D@__crt_stdio_output@@@2@@__crt_stdio_output@@AAE_NXZ 10032398 f i libucrt:output.obj
 0001:000313c7       ?state_case_precision@?$output_processor@DV?$string_output_adapter@D@__crt_stdio_output@@V?$format_validation_base@DV?$string_output_adapter@D@__crt_stdio_output@@@2@@__crt_stdio_output@@AAE_NXZ 100323c7 f i libucrt:output.obj
 0001:000313f6       ?state_case_precision@?$output_processor@DV?$string_output_adapter@D@__crt_stdio_output@@V?$positional_parameter_base@DV?$string_output_adapter@D@__crt_stdio_output@@@2@@__crt_stdio_output@@AAE_NXZ 100323f6 f i libucrt:output.obj
 0001:0003143e       ?state_case_precision@?$output_processor@DV?$string_output_adapter@D@__crt_stdio_output@@V?$standard_base@DV?$string_output_adapter@D@__crt_stdio_output@@@2@@__crt_stdio_output@@AAE_NXZ 1003243e f i libucrt:output.obj
 0001:0003146d       ?state_case_precision@?$output_processor@_WV?$stream_output_adapter@_W@__crt_stdio_output@@V?$format_validation_base@_WV?$stream_output_adapter@_W@__crt_stdio_output@@@2@@__crt_stdio_output@@AAE_NXZ 1003246d f i libucrt:output.obj
 0001:0003149d       ?state_case_precision@?$output_processor@_WV?$stream_output_adapter@_W@__crt_stdio_output@@V?$positional_parameter_base@_WV?$stream_output_adapter@_W@__crt_stdio_output@@@2@@__crt_stdio_output@@AAE_NXZ 1003249d f i libucrt:output.obj
 0001:000314e6       ?state_case_precision@?$output_processor@_WV?$stream_output_adapter@_W@__crt_stdio_output@@V?$standard_base@_WV?$stream_output_adapter@_W@__crt_stdio_output@@@2@@__crt_stdio_output@@AAE_NXZ 100324e6 f i libucrt:output.obj
 0001:00031516       ?state_case_precision@?$output_processor@_WV?$string_output_adapter@_W@__crt_stdio_output@@V?$format_validation_base@_WV?$string_output_adapter@_W@__crt_stdio_output@@@2@@__crt_stdio_output@@AAE_NXZ 10032516 f i libucrt:output.obj
 0001:00031546       ?state_case_precision@?$output_processor@_WV?$string_output_adapter@_W@__crt_stdio_output@@V?$positional_parameter_base@_WV?$string_output_adapter@_W@__crt_stdio_output@@@2@@__crt_stdio_output@@AAE_NXZ 10032546 f i libucrt:output.obj
 0001:0003158f       ?state_case_precision@?$output_processor@_WV?$string_output_adapter@_W@__crt_stdio_output@@V?$standard_base@_WV?$string_output_adapter@_W@__crt_stdio_output@@@2@@__crt_stdio_output@@AAE_NXZ 1003258f f i libucrt:output.obj
 0001:000315bf       ?state_case_size@?$output_processor@DV?$stream_output_adapter@D@__crt_stdio_output@@V?$format_validation_base@DV?$stream_output_adapter@D@__crt_stdio_output@@@2@@__crt_stdio_output@@AAE_NXZ 100325bf f i libucrt:output.obj
 0001:0003176f       ?state_case_size@?$output_processor@DV?$stream_output_adapter@D@__crt_stdio_output@@V?$positional_parameter_base@DV?$stream_output_adapter@D@__crt_stdio_output@@@2@@__crt_stdio_output@@AAE_NXZ 1003276f f i libucrt:output.obj
 0001:0003191f       ?state_case_size@?$output_processor@DV?$stream_output_adapter@D@__crt_stdio_output@@V?$standard_base@DV?$stream_output_adapter@D@__crt_stdio_output@@@2@@__crt_stdio_output@@AAE_NXZ 1003291f f i libucrt:output.obj
 0001:00031acf       ?state_case_size@?$output_processor@DV?$string_output_adapter@D@__crt_stdio_output@@V?$format_validation_base@DV?$string_output_adapter@D@__crt_stdio_output@@@2@@__crt_stdio_output@@AAE_NXZ 10032acf f i libucrt:output.obj
 0001:00031c7f       ?state_case_size@?$output_processor@DV?$string_output_adapter@D@__crt_stdio_output@@V?$positional_parameter_base@DV?$string_output_adapter@D@__crt_stdio_output@@@2@@__crt_stdio_output@@AAE_NXZ 10032c7f f i libucrt:output.obj
 0001:00031e2f       ?state_case_size@?$output_processor@DV?$string_output_adapter@D@__crt_stdio_output@@V?$standard_base@DV?$string_output_adapter@D@__crt_stdio_output@@@2@@__crt_stdio_output@@AAE_NXZ 10032e2f f i libucrt:output.obj
 0001:00031fdf       ?state_case_size@?$output_processor@_WV?$stream_output_adapter@_W@__crt_stdio_output@@V?$format_validation_base@_WV?$stream_output_adapter@_W@__crt_stdio_output@@@2@@__crt_stdio_output@@AAE_NXZ 10032fdf f i libucrt:output.obj
 0001:000321a7       ?state_case_size@?$output_processor@_WV?$stream_output_adapter@_W@__crt_stdio_output@@V?$positional_parameter_base@_WV?$stream_output_adapter@_W@__crt_stdio_output@@@2@@__crt_stdio_output@@AAE_NXZ 100331a7 f i libucrt:output.obj
 0001:0003236f       ?state_case_size@?$output_processor@_WV?$stream_output_adapter@_W@__crt_stdio_output@@V?$standard_base@_WV?$stream_output_adapter@_W@__crt_stdio_output@@@2@@__crt_stdio_output@@AAE_NXZ 1003336f f i libucrt:output.obj
 0001:00032537       ?state_case_size@?$output_processor@_WV?$string_output_adapter@_W@__crt_stdio_output@@V?$format_validation_base@_WV?$string_output_adapter@_W@__crt_stdio_output@@@2@@__crt_stdio_output@@AAE_NXZ 10033537 f i libucrt:output.obj
 0001:000326ff       ?state_case_size@?$output_processor@_WV?$string_output_adapter@_W@__crt_stdio_output@@V?$positional_parameter_base@_WV?$string_output_adapter@_W@__crt_stdio_output@@@2@@__crt_stdio_output@@AAE_NXZ 100336ff f i libucrt:output.obj
 0001:000328c7       ?state_case_size@?$output_processor@_WV?$string_output_adapter@_W@__crt_stdio_output@@V?$standard_base@_WV?$string_output_adapter@_W@__crt_stdio_output@@@2@@__crt_stdio_output@@AAE_NXZ 100338c7 f i libucrt:output.obj
 0001:00032a8f       ?state_case_type@?$output_processor@DV?$stream_output_adapter@D@__crt_stdio_output@@V?$format_validation_base@DV?$stream_output_adapter@D@__crt_stdio_output@@@2@@__crt_stdio_output@@AAE_NXZ 10033a8f f i libucrt:output.obj
 0001:00032d42       ?state_case_type@?$output_processor@DV?$stream_output_adapter@D@__crt_stdio_output@@V?$positional_parameter_base@DV?$stream_output_adapter@D@__crt_stdio_output@@@2@@__crt_stdio_output@@AAE_NXZ 10033d42 f i libucrt:output.obj
 0001:00033003       ?state_case_type@?$output_processor@DV?$stream_output_adapter@D@__crt_stdio_output@@V?$standard_base@DV?$stream_output_adapter@D@__crt_stdio_output@@@2@@__crt_stdio_output@@AAE_NXZ 10034003 f i libucrt:output.obj
 0001:000332b6       ?state_case_type@?$output_processor@DV?$string_output_adapter@D@__crt_stdio_output@@V?$format_validation_base@DV?$string_output_adapter@D@__crt_stdio_output@@@2@@__crt_stdio_output@@AAE_NXZ 100342b6 f i libucrt:output.obj
 0001:00033569       ?state_case_type@?$output_processor@DV?$string_output_adapter@D@__crt_stdio_output@@V?$positional_parameter_base@DV?$string_output_adapter@D@__crt_stdio_output@@@2@@__crt_stdio_output@@AAE_NXZ 10034569 f i libucrt:output.obj
 0001:0003382a       ?state_case_type@?$output_processor@DV?$string_output_adapter@D@__crt_stdio_output@@V?$standard_base@DV?$string_output_adapter@D@__crt_stdio_output@@@2@@__crt_stdio_output@@AAE_NXZ 1003482a f i libucrt:output.obj
 0001:00033add       ?state_case_type@?$output_processor@_WV?$stream_output_adapter@_W@__crt_stdio_output@@V?$format_validation_base@_WV?$stream_output_adapter@_W@__crt_stdio_output@@@2@@__crt_stdio_output@@AAE_NXZ 10034add f i libucrt:output.obj
 0001:00033ddd       ?state_case_type@?$output_processor@_WV?$stream_output_adapter@_W@__crt_stdio_output@@V?$positional_parameter_base@_WV?$stream_output_adapter@_W@__crt_stdio_output@@@2@@__crt_stdio_output@@AAE_NXZ 10034ddd f i libucrt:output.obj
 0001:000340f0       ?state_case_type@?$output_processor@_WV?$stream_output_adapter@_W@__crt_stdio_output@@V?$standard_base@_WV?$stream_output_adapter@_W@__crt_stdio_output@@@2@@__crt_stdio_output@@AAE_NXZ 100350f0 f i libucrt:output.obj
 0001:000343f0       ?state_case_type@?$output_processor@_WV?$string_output_adapter@_W@__crt_stdio_output@@V?$format_validation_base@_WV?$string_output_adapter@_W@__crt_stdio_output@@@2@@__crt_stdio_output@@AAE_NXZ 100353f0 f i libucrt:output.obj
 0001:000346f0       ?state_case_type@?$output_processor@_WV?$string_output_adapter@_W@__crt_stdio_output@@V?$positional_parameter_base@_WV?$string_output_adapter@_W@__crt_stdio_output@@@2@@__crt_stdio_output@@AAE_NXZ 100356f0 f i libucrt:output.obj
 0001:00034a03       ?state_case_type@?$output_processor@_WV?$string_output_adapter@_W@__crt_stdio_output@@V?$standard_base@_WV?$string_output_adapter@_W@__crt_stdio_output@@@2@@__crt_stdio_output@@AAE_NXZ 10035a03 f i libucrt:output.obj
 0001:00034d03       ?state_case_width@?$output_processor@DV?$stream_output_adapter@D@__crt_stdio_output@@V?$format_validation_base@DV?$stream_output_adapter@D@__crt_stdio_output@@@2@@__crt_stdio_output@@AAE_NXZ 10035d03 f i libucrt:output.obj
 0001:00034d38       ?state_case_width@?$output_processor@DV?$stream_output_adapter@D@__crt_stdio_output@@V?$positional_parameter_base@DV?$stream_output_adapter@D@__crt_stdio_output@@@2@@__crt_stdio_output@@AAE_NXZ 10035d38 f i libucrt:output.obj
 0001:00034d88       ?state_case_width@?$output_processor@DV?$stream_output_adapter@D@__crt_stdio_output@@V?$standard_base@DV?$stream_output_adapter@D@__crt_stdio_output@@@2@@__crt_stdio_output@@AAE_NXZ 10035d88 f i libucrt:output.obj
 0001:00034dbd       ?state_case_width@?$output_processor@DV?$string_output_adapter@D@__crt_stdio_output@@V?$format_validation_base@DV?$string_output_adapter@D@__crt_stdio_output@@@2@@__crt_stdio_output@@AAE_NXZ 10035dbd f i libucrt:output.obj
 0001:00034df2       ?state_case_width@?$output_processor@DV?$string_output_adapter@D@__crt_stdio_output@@V?$positional_parameter_base@DV?$string_output_adapter@D@__crt_stdio_output@@@2@@__crt_stdio_output@@AAE_NXZ 10035df2 f i libucrt:output.obj
 0001:00034e42       ?state_case_width@?$output_processor@DV?$string_output_adapter@D@__crt_stdio_output@@V?$standard_base@DV?$string_output_adapter@D@__crt_stdio_output@@@2@@__crt_stdio_output@@AAE_NXZ 10035e42 f i libucrt:output.obj
 0001:00034e77       ?state_case_width@?$output_processor@_WV?$stream_output_adapter@_W@__crt_stdio_output@@V?$format_validation_base@_WV?$stream_output_adapter@_W@__crt_stdio_output@@@2@@__crt_stdio_output@@AAE_NXZ 10035e77 f i libucrt:output.obj
 0001:00034eae       ?state_case_width@?$output_processor@_WV?$stream_output_adapter@_W@__crt_stdio_output@@V?$positional_parameter_base@_WV?$stream_output_adapter@_W@__crt_stdio_output@@@2@@__crt_stdio_output@@AAE_NXZ 10035eae f i libucrt:output.obj
 0001:00034eff       ?state_case_width@?$output_processor@_WV?$stream_output_adapter@_W@__crt_stdio_output@@V?$standard_base@_WV?$stream_output_adapter@_W@__crt_stdio_output@@@2@@__crt_stdio_output@@AAE_NXZ 10035eff f i libucrt:output.obj
 0001:00034f36       ?state_case_width@?$output_processor@_WV?$string_output_adapter@_W@__crt_stdio_output@@V?$format_validation_base@_WV?$string_output_adapter@_W@__crt_stdio_output@@@2@@__crt_stdio_output@@AAE_NXZ 10035f36 f i libucrt:output.obj
 0001:00034f6d       ?state_case_width@?$output_processor@_WV?$string_output_adapter@_W@__crt_stdio_output@@V?$positional_parameter_base@_WV?$string_output_adapter@_W@__crt_stdio_output@@@2@@__crt_stdio_output@@AAE_NXZ 10035f6d f i libucrt:output.obj
 0001:00034fbe       ?state_case_width@?$output_processor@_WV?$string_output_adapter@_W@__crt_stdio_output@@V?$standard_base@_WV?$string_output_adapter@_W@__crt_stdio_output@@@2@@__crt_stdio_output@@AAE_NXZ 10035fbe f i libucrt:output.obj
 0001:00034ff5       ?state_count@?$format_validation_base@DV?$stream_output_adapter@D@__crt_stdio_output@@@__crt_stdio_output@@KAIXZ 10035ff5 f i libucrt:output.obj
 0001:00034ff9       ?state_count@?$format_validation_base@DV?$string_output_adapter@D@__crt_stdio_output@@@__crt_stdio_output@@KAIXZ 10035ff9 f i libucrt:output.obj
 0001:00034ffd       ?state_count@?$format_validation_base@_WV?$stream_output_adapter@_W@__crt_stdio_output@@@__crt_stdio_output@@KAIXZ 10035ffd f i libucrt:output.obj
 0001:00035001       ?state_count@?$format_validation_base@_WV?$string_output_adapter@_W@__crt_stdio_output@@@__crt_stdio_output@@KAIXZ 10036001 f i libucrt:output.obj
 0001:00035005       ?state_count@?$standard_base@DV?$stream_output_adapter@D@__crt_stdio_output@@@__crt_stdio_output@@KAIXZ 10036005 f i libucrt:output.obj
 0001:00035009       ?state_count@?$standard_base@DV?$string_output_adapter@D@__crt_stdio_output@@@__crt_stdio_output@@KAIXZ 10036009 f i libucrt:output.obj
 0001:0003500d       ?state_count@?$standard_base@_WV?$stream_output_adapter@_W@__crt_stdio_output@@@__crt_stdio_output@@KAIXZ 1003600d f i libucrt:output.obj
 0001:00035011       ?state_count@?$standard_base@_WV?$string_output_adapter@_W@__crt_stdio_output@@@__crt_stdio_output@@KAIXZ 10036011 f i libucrt:output.obj
 0001:00035015       ?state_transition_table@?$format_validation_base@DV?$stream_output_adapter@D@__crt_stdio_output@@@__crt_stdio_output@@KAPBEXZ 10036015 f i libucrt:output.obj
 0001:0003501b       ?state_transition_table@?$format_validation_base@DV?$string_output_adapter@D@__crt_stdio_output@@@__crt_stdio_output@@KAPBEXZ 1003601b f i libucrt:output.obj
 0001:00035021       ?state_transition_table@?$format_validation_base@_WV?$stream_output_adapter@_W@__crt_stdio_output@@@__crt_stdio_output@@KAPBEXZ 10036021 f i libucrt:output.obj
 0001:00035027       ?state_transition_table@?$format_validation_base@_WV?$string_output_adapter@_W@__crt_stdio_output@@@__crt_stdio_output@@KAPBEXZ 10036027 f i libucrt:output.obj
 0001:0003502d       ?state_transition_table@?$standard_base@DV?$stream_output_adapter@D@__crt_stdio_output@@@__crt_stdio_output@@KAPBEXZ 1003602d f i libucrt:output.obj
 0001:00035033       ?state_transition_table@?$standard_base@DV?$string_output_adapter@D@__crt_stdio_output@@@__crt_stdio_output@@KAPBEXZ 10036033 f i libucrt:output.obj
 0001:00035039       ?state_transition_table@?$standard_base@_WV?$stream_output_adapter@_W@__crt_stdio_output@@@__crt_stdio_output@@KAPBEXZ 10036039 f i libucrt:output.obj
 0001:0003503f       ?state_transition_table@?$standard_base@_WV?$string_output_adapter@_W@__crt_stdio_output@@@__crt_stdio_output@@KAPBEXZ 1003603f f i libucrt:output.obj
 0001:00035045       ?tchar_string@?$common_data@D@__crt_stdio_output@@IAEAAPADD@Z 10036045 f i libucrt:output.obj
 0001:0003504b       ?tchar_string@?$common_data@D@__crt_stdio_output@@IAEAAPADXZ 1003604b f i libucrt:output.obj
 0001:0003504f       ?tchar_string@?$common_data@_W@__crt_stdio_output@@IAEAAPA_WXZ 1003604f f i libucrt:output.obj
 0001:00035053       ?tchar_string@?$common_data@_W@__crt_stdio_output@@IAEAAPA_W_W@Z 10036053 f i libucrt:output.obj
 0001:00035059       ?to_integer_size@__crt_stdio_output@@YAIW4length_modifier@1@@Z 10036059 f i libucrt:output.obj
 0001:000350cc       ?type_case_X@?$output_processor@DV?$stream_output_adapter@D@__crt_stdio_output@@V?$format_validation_base@DV?$stream_output_adapter@D@__crt_stdio_output@@@2@@__crt_stdio_output@@AAE_NXZ 100360cc f i libucrt:output.obj
 0001:000350d8       ?type_case_X@?$output_processor@DV?$stream_output_adapter@D@__crt_stdio_output@@V?$positional_parameter_base@DV?$stream_output_adapter@D@__crt_stdio_output@@@2@@__crt_stdio_output@@AAE_NXZ 100360d8 f i libucrt:output.obj
 0001:000350e4       ?type_case_X@?$output_processor@DV?$stream_output_adapter@D@__crt_stdio_output@@V?$standard_base@DV?$stream_output_adapter@D@__crt_stdio_output@@@2@@__crt_stdio_output@@AAE_NXZ 100360e4 f i libucrt:output.obj
 0001:000350f0       ?type_case_X@?$output_processor@DV?$string_output_adapter@D@__crt_stdio_output@@V?$format_validation_base@DV?$string_output_adapter@D@__crt_stdio_output@@@2@@__crt_stdio_output@@AAE_NXZ 100360f0 f i libucrt:output.obj
 0001:000350fc       ?type_case_X@?$output_processor@DV?$string_output_adapter@D@__crt_stdio_output@@V?$positional_parameter_base@DV?$string_output_adapter@D@__crt_stdio_output@@@2@@__crt_stdio_output@@AAE_NXZ 100360fc f i libucrt:output.obj
 0001:00035108       ?type_case_X@?$output_processor@DV?$string_output_adapter@D@__crt_stdio_output@@V?$standard_base@DV?$string_output_adapter@D@__crt_stdio_output@@@2@@__crt_stdio_output@@AAE_NXZ 10036108 f i libucrt:output.obj
 0001:00035114       ?type_case_X@?$output_processor@_WV?$stream_output_adapter@_W@__crt_stdio_output@@V?$format_validation_base@_WV?$stream_output_adapter@_W@__crt_stdio_output@@@2@@__crt_stdio_output@@AAE_NXZ 10036114 f i libucrt:output.obj
 0001:00035120       ?type_case_X@?$output_processor@_WV?$stream_output_adapter@_W@__crt_stdio_output@@V?$positional_parameter_base@_WV?$stream_output_adapter@_W@__crt_stdio_output@@@2@@__crt_stdio_output@@AAE_NXZ 10036120 f i libucrt:output.obj
 0001:0003512c       ?type_case_X@?$output_processor@_WV?$stream_output_adapter@_W@__crt_stdio_output@@V?$standard_base@_WV?$stream_output_adapter@_W@__crt_stdio_output@@@2@@__crt_stdio_output@@AAE_NXZ 1003612c f i libucrt:output.obj
 0001:00035138       ?type_case_X@?$output_processor@_WV?$string_output_adapter@_W@__crt_stdio_output@@V?$format_validation_base@_WV?$string_output_adapter@_W@__crt_stdio_output@@@2@@__crt_stdio_output@@AAE_NXZ 10036138 f i libucrt:output.obj
 0001:00035144       ?type_case_X@?$output_processor@_WV?$string_output_adapter@_W@__crt_stdio_output@@V?$positional_parameter_base@_WV?$string_output_adapter@_W@__crt_stdio_output@@@2@@__crt_stdio_output@@AAE_NXZ 10036144 f i libucrt:output.obj
 0001:00035150       ?type_case_X@?$output_processor@_WV?$string_output_adapter@_W@__crt_stdio_output@@V?$standard_base@_WV?$string_output_adapter@_W@__crt_stdio_output@@@2@@__crt_stdio_output@@AAE_NXZ 10036150 f i libucrt:output.obj
 0001:0003515c       ?type_case_Z@?$output_processor@DV?$stream_output_adapter@D@__crt_stdio_output@@V?$format_validation_base@DV?$stream_output_adapter@D@__crt_stdio_output@@@2@@__crt_stdio_output@@AAE_NXZ 1003615c f i libucrt:output.obj
 0001:000351d5       ?type_case_Z@?$output_processor@DV?$stream_output_adapter@D@__crt_stdio_output@@V?$positional_parameter_base@DV?$stream_output_adapter@D@__crt_stdio_output@@@2@@__crt_stdio_output@@AAE_NXZ 100361d5 f i libucrt:output.obj
 0001:000352eb       ?type_case_Z@?$output_processor@DV?$stream_output_adapter@D@__crt_stdio_output@@V?$standard_base@DV?$stream_output_adapter@D@__crt_stdio_output@@@2@@__crt_stdio_output@@AAE_NXZ 100362eb f i libucrt:output.obj
 0001:00035364       ?type_case_Z@?$output_processor@DV?$string_output_adapter@D@__crt_stdio_output@@V?$format_validation_base@DV?$string_output_adapter@D@__crt_stdio_output@@@2@@__crt_stdio_output@@AAE_NXZ 10036364 f i libucrt:output.obj
 0001:000353dd       ?type_case_Z@?$output_processor@DV?$string_output_adapter@D@__crt_stdio_output@@V?$positional_parameter_base@DV?$string_output_adapter@D@__crt_stdio_output@@@2@@__crt_stdio_output@@AAE_NXZ 100363dd f i libucrt:output.obj
 0001:000354f3       ?type_case_Z@?$output_processor@DV?$string_output_adapter@D@__crt_stdio_output@@V?$standard_base@DV?$string_output_adapter@D@__crt_stdio_output@@@2@@__crt_stdio_output@@AAE_NXZ 100364f3 f i libucrt:output.obj
 0001:0003556c       ?type_case_Z@?$output_processor@_WV?$stream_output_adapter@_W@__crt_stdio_output@@V?$format_validation_base@_WV?$stream_output_adapter@_W@__crt_stdio_output@@@2@@__crt_stdio_output@@AAE_NXZ 1003656c f i libucrt:output.obj
 0001:000355e5       ?type_case_Z@?$output_processor@_WV?$stream_output_adapter@_W@__crt_stdio_output@@V?$positional_parameter_base@_WV?$stream_output_adapter@_W@__crt_stdio_output@@@2@@__crt_stdio_output@@AAE_NXZ 100365e5 f i libucrt:output.obj
 0001:000356fb       ?type_case_Z@?$output_processor@_WV?$stream_output_adapter@_W@__crt_stdio_output@@V?$standard_base@_WV?$stream_output_adapter@_W@__crt_stdio_output@@@2@@__crt_stdio_output@@AAE_NXZ 100366fb f i libucrt:output.obj
 0001:00035774       ?type_case_Z@?$output_processor@_WV?$string_output_adapter@_W@__crt_stdio_output@@V?$format_validation_base@_WV?$string_output_adapter@_W@__crt_stdio_output@@@2@@__crt_stdio_output@@AAE_NXZ 10036774 f i libucrt:output.obj
 0001:000357ed       ?type_case_Z@?$output_processor@_WV?$string_output_adapter@_W@__crt_stdio_output@@V?$positional_parameter_base@_WV?$string_output_adapter@_W@__crt_stdio_output@@@2@@__crt_stdio_output@@AAE_NXZ 100367ed f i libucrt:output.obj
 0001:00035903       ?type_case_Z@?$output_processor@_WV?$string_output_adapter@_W@__crt_stdio_output@@V?$standard_base@_WV?$string_output_adapter@_W@__crt_stdio_output@@@2@@__crt_stdio_output@@AAE_NXZ 10036903 f i libucrt:output.obj
 0001:0003597c       ?type_case_a@?$output_processor@DV?$stream_output_adapter@D@__crt_stdio_output@@V?$format_validation_base@DV?$stream_output_adapter@D@__crt_stdio_output@@@2@@__crt_stdio_output@@AAE_NXZ 1003697c f i libucrt:output.obj
 0001:00035b2b       ?type_case_a@?$output_processor@DV?$stream_output_adapter@D@__crt_stdio_output@@V?$positional_parameter_base@DV?$stream_output_adapter@D@__crt_stdio_output@@@2@@__crt_stdio_output@@AAE_NXZ 10036b2b f i libucrt:output.obj
 0001:00035d01       ?type_case_a@?$output_processor@DV?$stream_output_adapter@D@__crt_stdio_output@@V?$standard_base@DV?$stream_output_adapter@D@__crt_stdio_output@@@2@@__crt_stdio_output@@AAE_NXZ 10036d01 f i libucrt:output.obj
 0001:00035eb0       ?type_case_a@?$output_processor@DV?$string_output_adapter@D@__crt_stdio_output@@V?$format_validation_base@DV?$string_output_adapter@D@__crt_stdio_output@@@2@@__crt_stdio_output@@AAE_NXZ 10036eb0 f i libucrt:output.obj
 0001:0003605f       ?type_case_a@?$output_processor@DV?$string_output_adapter@D@__crt_stdio_output@@V?$positional_parameter_base@DV?$string_output_adapter@D@__crt_stdio_output@@@2@@__crt_stdio_output@@AAE_NXZ 1003705f f i libucrt:output.obj
 0001:00036235       ?type_case_a@?$output_processor@DV?$string_output_adapter@D@__crt_stdio_output@@V?$standard_base@DV?$string_output_adapter@D@__crt_stdio_output@@@2@@__crt_stdio_output@@AAE_NXZ 10037235 f i libucrt:output.obj
 0001:000363e4       ?type_case_a@?$output_processor@_WV?$stream_output_adapter@_W@__crt_stdio_output@@V?$format_validation_base@_WV?$stream_output_adapter@_W@__crt_stdio_output@@@2@@__crt_stdio_output@@AAE_NXZ 100373e4 f i libucrt:output.obj
 0001:000365ae       ?type_case_a@?$output_processor@_WV?$stream_output_adapter@_W@__crt_stdio_output@@V?$positional_parameter_base@_WV?$stream_output_adapter@_W@__crt_stdio_output@@@2@@__crt_stdio_output@@AAE_NXZ 100375ae f i libucrt:output.obj
 0001:0003679f       ?type_case_a@?$output_processor@_WV?$stream_output_adapter@_W@__crt_stdio_output@@V?$standard_base@_WV?$stream_output_adapter@_W@__crt_stdio_output@@@2@@__crt_stdio_output@@AAE_NXZ 1003779f f i libucrt:output.obj
 0001:00036969       ?type_case_a@?$output_processor@_WV?$string_output_adapter@_W@__crt_stdio_output@@V?$format_validation_base@_WV?$string_output_adapter@_W@__crt_stdio_output@@@2@@__crt_stdio_output@@AAE_NXZ 10037969 f i libucrt:output.obj
 0001:00036b33       ?type_case_a@?$output_processor@_WV?$string_output_adapter@_W@__crt_stdio_output@@V?$positional_parameter_base@_WV?$string_output_adapter@_W@__crt_stdio_output@@@2@@__crt_stdio_output@@AAE_NXZ 10037b33 f i libucrt:output.obj
 0001:00036d24       ?type_case_a@?$output_processor@_WV?$string_output_adapter@_W@__crt_stdio_output@@V?$standard_base@_WV?$string_output_adapter@_W@__crt_stdio_output@@@2@@__crt_stdio_output@@AAE_NXZ 10037d24 f i libucrt:output.obj
 0001:00036eee       ?type_case_c@?$output_processor@DV?$stream_output_adapter@D@__crt_stdio_output@@V?$format_validation_base@DV?$stream_output_adapter@D@__crt_stdio_output@@@2@@__crt_stdio_output@@AAE_NXZ 10037eee f i libucrt:output.obj
 0001:00036ef8       ?type_case_c@?$output_processor@DV?$stream_output_adapter@D@__crt_stdio_output@@V?$positional_parameter_base@DV?$stream_output_adapter@D@__crt_stdio_output@@@2@@__crt_stdio_output@@AAE_NXZ 10037ef8 f i libucrt:output.obj
 0001:00036f02       ?type_case_c@?$output_processor@DV?$stream_output_adapter@D@__crt_stdio_output@@V?$standard_base@DV?$stream_output_adapter@D@__crt_stdio_output@@@2@@__crt_stdio_output@@AAE_NXZ 10037f02 f i libucrt:output.obj
 0001:00036f0c       ?type_case_c@?$output_processor@DV?$string_output_adapter@D@__crt_stdio_output@@V?$format_validation_base@DV?$string_output_adapter@D@__crt_stdio_output@@@2@@__crt_stdio_output@@AAE_NXZ 10037f0c f i libucrt:output.obj
 0001:00036f16       ?type_case_c@?$output_processor@DV?$string_output_adapter@D@__crt_stdio_output@@V?$positional_parameter_base@DV?$string_output_adapter@D@__crt_stdio_output@@@2@@__crt_stdio_output@@AAE_NXZ 10037f16 f i libucrt:output.obj
 0001:00036f20       ?type_case_c@?$output_processor@DV?$string_output_adapter@D@__crt_stdio_output@@V?$standard_base@DV?$string_output_adapter@D@__crt_stdio_output@@@2@@__crt_stdio_output@@AAE_NXZ 10037f20 f i libucrt:output.obj
 0001:00036f2a       ?type_case_c@?$output_processor@_WV?$stream_output_adapter@_W@__crt_stdio_output@@V?$format_validation_base@_WV?$stream_output_adapter@_W@__crt_stdio_output@@@2@@__crt_stdio_output@@AAE_NXZ 10037f2a f i libucrt:output.obj
 0001:00036f34       ?type_case_c@?$output_processor@_WV?$stream_output_adapter@_W@__crt_stdio_output@@V?$positional_parameter_base@_WV?$stream_output_adapter@_W@__crt_stdio_output@@@2@@__crt_stdio_output@@AAE_NXZ 10037f34 f i libucrt:output.obj
 0001:00036f3e       ?type_case_c@?$output_processor@_WV?$stream_output_adapter@_W@__crt_stdio_output@@V?$standard_base@_WV?$stream_output_adapter@_W@__crt_stdio_output@@@2@@__crt_stdio_output@@AAE_NXZ 10037f3e f i libucrt:output.obj
 0001:00036f48       ?type_case_c@?$output_processor@_WV?$string_output_adapter@_W@__crt_stdio_output@@V?$format_validation_base@_WV?$string_output_adapter@_W@__crt_stdio_output@@@2@@__crt_stdio_output@@AAE_NXZ 10037f48 f i libucrt:output.obj
 0001:00036f52       ?type_case_c@?$output_processor@_WV?$string_output_adapter@_W@__crt_stdio_output@@V?$positional_parameter_base@_WV?$string_output_adapter@_W@__crt_stdio_output@@@2@@__crt_stdio_output@@AAE_NXZ 10037f52 f i libucrt:output.obj
 0001:00036f5c       ?type_case_c@?$output_processor@_WV?$string_output_adapter@_W@__crt_stdio_output@@V?$standard_base@_WV?$string_output_adapter@_W@__crt_stdio_output@@@2@@__crt_stdio_output@@AAE_NXZ 10037f5c f i libucrt:output.obj
 0001:00036f66       ?type_case_c_tchar@?$output_processor@DV?$stream_output_adapter@D@__crt_stdio_output@@V?$format_validation_base@DV?$stream_output_adapter@D@__crt_stdio_output@@@2@@__crt_stdio_output@@AAE_ND@Z 10037f66 f i libucrt:output.obj
 0001:0003701a       ?type_case_c_tchar@?$output_processor@DV?$stream_output_adapter@D@__crt_stdio_output@@V?$positional_parameter_base@DV?$stream_output_adapter@D@__crt_stdio_output@@@2@@__crt_stdio_output@@AAE_ND@Z 1003801a f i libucrt:output.obj
 0001:0003710a       ?type_case_c_tchar@?$output_processor@DV?$stream_output_adapter@D@__crt_stdio_output@@V?$standard_base@DV?$stream_output_adapter@D@__crt_stdio_output@@@2@@__crt_stdio_output@@AAE_ND@Z 1003810a f i libucrt:output.obj
 0001:000371be       ?type_case_c_tchar@?$output_processor@DV?$string_output_adapter@D@__crt_stdio_output@@V?$format_validation_base@DV?$string_output_adapter@D@__crt_stdio_output@@@2@@__crt_stdio_output@@AAE_ND@Z 100381be f i libucrt:output.obj
 0001:00037272       ?type_case_c_tchar@?$output_processor@DV?$string_output_adapter@D@__crt_stdio_output@@V?$positional_parameter_base@DV?$string_output_adapter@D@__crt_stdio_output@@@2@@__crt_stdio_output@@AAE_ND@Z 10038272 f i libucrt:output.obj
 0001:00037362       ?type_case_c_tchar@?$output_processor@DV?$string_output_adapter@D@__crt_stdio_output@@V?$standard_base@DV?$string_output_adapter@D@__crt_stdio_output@@@2@@__crt_stdio_output@@AAE_ND@Z 10038362 f i libucrt:output.obj
 0001:00037416       ?type_case_c_tchar@?$output_processor@_WV?$stream_output_adapter@_W@__crt_stdio_output@@V?$format_validation_base@_WV?$stream_output_adapter@_W@__crt_stdio_output@@@2@@__crt_stdio_output@@AAE_N_W@Z 10038416 f i libucrt:output.obj
 0001:000374d4       ?type_case_c_tchar@?$output_processor@_WV?$stream_output_adapter@_W@__crt_stdio_output@@V?$positional_parameter_base@_WV?$stream_output_adapter@_W@__crt_stdio_output@@@2@@__crt_stdio_output@@AAE_N_W@Z 100384d4 f i libucrt:output.obj
 0001:000375ae       ?type_case_c_tchar@?$output_processor@_WV?$stream_output_adapter@_W@__crt_stdio_output@@V?$standard_base@_WV?$stream_output_adapter@_W@__crt_stdio_output@@@2@@__crt_stdio_output@@AAE_N_W@Z 100385ae f i libucrt:output.obj
 0001:0003766c       ?type_case_c_tchar@?$output_processor@_WV?$string_output_adapter@_W@__crt_stdio_output@@V?$format_validation_base@_WV?$string_output_adapter@_W@__crt_stdio_output@@@2@@__crt_stdio_output@@AAE_N_W@Z 1003866c f i libucrt:output.obj
 0001:0003772a       ?type_case_c_tchar@?$output_processor@_WV?$string_output_adapter@_W@__crt_stdio_output@@V?$positional_parameter_base@_WV?$string_output_adapter@_W@__crt_stdio_output@@@2@@__crt_stdio_output@@AAE_N_W@Z 1003872a f i libucrt:output.obj
 0001:00037804       ?type_case_c_tchar@?$output_processor@_WV?$string_output_adapter@_W@__crt_stdio_output@@V?$standard_base@_WV?$string_output_adapter@_W@__crt_stdio_output@@@2@@__crt_stdio_output@@AAE_N_W@Z 10038804 f i libucrt:output.obj
 0001:000378c2       ?type_case_d@?$output_processor@DV?$stream_output_adapter@D@__crt_stdio_output@@V?$format_validation_base@DV?$stream_output_adapter@D@__crt_stdio_output@@@2@@__crt_stdio_output@@AAE_NXZ 100388c2 f i libucrt:output.obj
 0001:000378d3       ?type_case_d@?$output_processor@DV?$stream_output_adapter@D@__crt_stdio_output@@V?$positional_parameter_base@DV?$stream_output_adapter@D@__crt_stdio_output@@@2@@__crt_stdio_output@@AAE_NXZ 100388d3 f i libucrt:output.obj
 0001:000378e4       ?type_case_d@?$output_processor@DV?$stream_output_adapter@D@__crt_stdio_output@@V?$standard_base@DV?$stream_output_adapter@D@__crt_stdio_output@@@2@@__crt_stdio_output@@AAE_NXZ 100388e4 f i libucrt:output.obj
 0001:000378f5       ?type_case_d@?$output_processor@DV?$string_output_adapter@D@__crt_stdio_output@@V?$format_validation_base@DV?$string_output_adapter@D@__crt_stdio_output@@@2@@__crt_stdio_output@@AAE_NXZ 100388f5 f i libucrt:output.obj
 0001:00037906       ?type_case_d@?$output_processor@DV?$string_output_adapter@D@__crt_stdio_output@@V?$positional_parameter_base@DV?$string_output_adapter@D@__crt_stdio_output@@@2@@__crt_stdio_output@@AAE_NXZ 10038906 f i libucrt:output.obj
 0001:00037917       ?type_case_d@?$output_processor@DV?$string_output_adapter@D@__crt_stdio_output@@V?$standard_base@DV?$string_output_adapter@D@__crt_stdio_output@@@2@@__crt_stdio_output@@AAE_NXZ 10038917 f i libucrt:output.obj
 0001:00037928       ?type_case_d@?$output_processor@_WV?$stream_output_adapter@_W@__crt_stdio_output@@V?$format_validation_base@_WV?$stream_output_adapter@_W@__crt_stdio_output@@@2@@__crt_stdio_output@@AAE_NXZ 10038928 f i libucrt:output.obj
 0001:00037939       ?type_case_d@?$output_processor@_WV?$stream_output_adapter@_W@__crt_stdio_output@@V?$positional_parameter_base@_WV?$stream_output_adapter@_W@__crt_stdio_output@@@2@@__crt_stdio_output@@AAE_NXZ 10038939 f i libucrt:output.obj
 0001:0003794a       ?type_case_d@?$output_processor@_WV?$stream_output_adapter@_W@__crt_stdio_output@@V?$standard_base@_WV?$stream_output_adapter@_W@__crt_stdio_output@@@2@@__crt_stdio_output@@AAE_NXZ 1003894a f i libucrt:output.obj
 0001:0003795b       ?type_case_d@?$output_processor@_WV?$string_output_adapter@_W@__crt_stdio_output@@V?$format_validation_base@_WV?$string_output_adapter@_W@__crt_stdio_output@@@2@@__crt_stdio_output@@AAE_NXZ 1003895b f i libucrt:output.obj
 0001:0003796c       ?type_case_d@?$output_processor@_WV?$string_output_adapter@_W@__crt_stdio_output@@V?$positional_parameter_base@_WV?$string_output_adapter@_W@__crt_stdio_output@@@2@@__crt_stdio_output@@AAE_NXZ 1003896c f i libucrt:output.obj
 0001:0003797d       ?type_case_d@?$output_processor@_WV?$string_output_adapter@_W@__crt_stdio_output@@V?$standard_base@_WV?$string_output_adapter@_W@__crt_stdio_output@@@2@@__crt_stdio_output@@AAE_NXZ 1003897d f i libucrt:output.obj
 0001:0003798e       ?type_case_integer@?$output_processor@DV?$stream_output_adapter@D@__crt_stdio_output@@V?$format_validation_base@DV?$stream_output_adapter@D@__crt_stdio_output@@@2@@__crt_stdio_output@@AAE_NI_N@Z 1003898e f i libucrt:output.obj
 0001:00037b35       ?type_case_integer@?$output_processor@DV?$stream_output_adapter@D@__crt_stdio_output@@V?$positional_parameter_base@DV?$stream_output_adapter@D@__crt_stdio_output@@@2@@__crt_stdio_output@@AAE_NI_N@Z 10038b35 f i libucrt:output.obj
 0001:00037d18       ?type_case_integer@?$output_processor@DV?$stream_output_adapter@D@__crt_stdio_output@@V?$standard_base@DV?$stream_output_adapter@D@__crt_stdio_output@@@2@@__crt_stdio_output@@AAE_NI_N@Z 10038d18 f i libucrt:output.obj
 0001:00037ebf       ?type_case_integer@?$output_processor@DV?$string_output_adapter@D@__crt_stdio_output@@V?$format_validation_base@DV?$string_output_adapter@D@__crt_stdio_output@@@2@@__crt_stdio_output@@AAE_NI_N@Z 10038ebf f i libucrt:output.obj
 0001:00038066       ?type_case_integer@?$output_processor@DV?$string_output_adapter@D@__crt_stdio_output@@V?$positional_parameter_base@DV?$string_output_adapter@D@__crt_stdio_output@@@2@@__crt_stdio_output@@AAE_NI_N@Z 10039066 f i libucrt:output.obj
 0001:00038249       ?type_case_integer@?$output_processor@DV?$string_output_adapter@D@__crt_stdio_output@@V?$standard_base@DV?$string_output_adapter@D@__crt_stdio_output@@@2@@__crt_stdio_output@@AAE_NI_N@Z 10039249 f i libucrt:output.obj
 0001:000383f0       ?type_case_integer@?$output_processor@_WV?$stream_output_adapter@_W@__crt_stdio_output@@V?$format_validation_base@_WV?$stream_output_adapter@_W@__crt_stdio_output@@@2@@__crt_stdio_output@@AAE_NI_N@Z 100393f0 f i libucrt:output.obj
 0001:0003859c       ?type_case_integer@?$output_processor@_WV?$stream_output_adapter@_W@__crt_stdio_output@@V?$positional_parameter_base@_WV?$stream_output_adapter@_W@__crt_stdio_output@@@2@@__crt_stdio_output@@AAE_NI_N@Z 1003959c f i libucrt:output.obj
 0001:00038784       ?type_case_integer@?$output_processor@_WV?$stream_output_adapter@_W@__crt_stdio_output@@V?$standard_base@_WV?$stream_output_adapter@_W@__crt_stdio_output@@@2@@__crt_stdio_output@@AAE_NI_N@Z 10039784 f i libucrt:output.obj
 0001:00038930       ?type_case_integer@?$output_processor@_WV?$string_output_adapter@_W@__crt_stdio_output@@V?$format_validation_base@_WV?$string_output_adapter@_W@__crt_stdio_output@@@2@@__crt_stdio_output@@AAE_NI_N@Z 10039930 f i libucrt:output.obj
 0001:00038adc       ?type_case_integer@?$output_processor@_WV?$string_output_adapter@_W@__crt_stdio_output@@V?$positional_parameter_base@_WV?$string_output_adapter@_W@__crt_stdio_output@@@2@@__crt_stdio_output@@AAE_NI_N@Z 10039adc f i libucrt:output.obj
 0001:00038cc4       ?type_case_integer@?$output_processor@_WV?$string_output_adapter@_W@__crt_stdio_output@@V?$standard_base@_WV?$string_output_adapter@_W@__crt_stdio_output@@@2@@__crt_stdio_output@@AAE_NI_N@Z 10039cc4 f i libucrt:output.obj
 0001:00038e70       ?type_case_n@?$output_processor@DV?$stream_output_adapter@D@__crt_stdio_output@@V?$format_validation_base@DV?$stream_output_adapter@D@__crt_stdio_output@@@2@@__crt_stdio_output@@AAE_NXZ 10039e70 f i libucrt:output.obj
 0001:00038f01       ?type_case_n@?$output_processor@DV?$stream_output_adapter@D@__crt_stdio_output@@V?$positional_parameter_base@DV?$stream_output_adapter@D@__crt_stdio_output@@@2@@__crt_stdio_output@@AAE_NXZ 10039f01 f i libucrt:output.obj
 0001:00038fc0       ?type_case_n@?$output_processor@DV?$stream_output_adapter@D@__crt_stdio_output@@V?$standard_base@DV?$stream_output_adapter@D@__crt_stdio_output@@@2@@__crt_stdio_output@@AAE_NXZ 10039fc0 f i libucrt:output.obj
 0001:00039051       ?type_case_n@?$output_processor@DV?$string_output_adapter@D@__crt_stdio_output@@V?$format_validation_base@DV?$string_output_adapter@D@__crt_stdio_output@@@2@@__crt_stdio_output@@AAE_NXZ 1003a051 f i libucrt:output.obj
 0001:000390e2       ?type_case_n@?$output_processor@DV?$string_output_adapter@D@__crt_stdio_output@@V?$positional_parameter_base@DV?$string_output_adapter@D@__crt_stdio_output@@@2@@__crt_stdio_output@@AAE_NXZ 1003a0e2 f i libucrt:output.obj
 0001:000391a1       ?type_case_n@?$output_processor@DV?$string_output_adapter@D@__crt_stdio_output@@V?$standard_base@DV?$string_output_adapter@D@__crt_stdio_output@@@2@@__crt_stdio_output@@AAE_NXZ 1003a1a1 f i libucrt:output.obj
 0001:00039232       ?type_case_n@?$output_processor@_WV?$stream_output_adapter@_W@__crt_stdio_output@@V?$format_validation_base@_WV?$stream_output_adapter@_W@__crt_stdio_output@@@2@@__crt_stdio_output@@AAE_NXZ 1003a232 f i libucrt:output.obj
 0001:000392c3       ?type_case_n@?$output_processor@_WV?$stream_output_adapter@_W@__crt_stdio_output@@V?$positional_parameter_base@_WV?$stream_output_adapter@_W@__crt_stdio_output@@@2@@__crt_stdio_output@@AAE_NXZ 1003a2c3 f i libucrt:output.obj
 0001:00039382       ?type_case_n@?$output_processor@_WV?$stream_output_adapter@_W@__crt_stdio_output@@V?$standard_base@_WV?$stream_output_adapter@_W@__crt_stdio_output@@@2@@__crt_stdio_output@@AAE_NXZ 1003a382 f i libucrt:output.obj
 0001:00039413       ?type_case_n@?$output_processor@_WV?$string_output_adapter@_W@__crt_stdio_output@@V?$format_validation_base@_WV?$string_output_adapter@_W@__crt_stdio_output@@@2@@__crt_stdio_output@@AAE_NXZ 1003a413 f i libucrt:output.obj
 0001:000394a4       ?type_case_n@?$output_processor@_WV?$string_output_adapter@_W@__crt_stdio_output@@V?$positional_parameter_base@_WV?$string_output_adapter@_W@__crt_stdio_output@@@2@@__crt_stdio_output@@AAE_NXZ 1003a4a4 f i libucrt:output.obj
 0001:00039563       ?type_case_n@?$output_processor@_WV?$string_output_adapter@_W@__crt_stdio_output@@V?$standard_base@_WV?$string_output_adapter@_W@__crt_stdio_output@@@2@@__crt_stdio_output@@AAE_NXZ 1003a563 f i libucrt:output.obj
 0001:000395f4       ?type_case_o@?$output_processor@DV?$stream_output_adapter@D@__crt_stdio_output@@V?$format_validation_base@DV?$stream_output_adapter@D@__crt_stdio_output@@@2@@__crt_stdio_output@@AAE_NXZ 1003a5f4 f i libucrt:output.obj
 0001:0003961a       ?type_case_o@?$output_processor@DV?$stream_output_adapter@D@__crt_stdio_output@@V?$positional_parameter_base@DV?$stream_output_adapter@D@__crt_stdio_output@@@2@@__crt_stdio_output@@AAE_NXZ 1003a61a f i libucrt:output.obj
 0001:00039640       ?type_case_o@?$output_processor@DV?$stream_output_adapter@D@__crt_stdio_output@@V?$standard_base@DV?$stream_output_adapter@D@__crt_stdio_output@@@2@@__crt_stdio_output@@AAE_NXZ 1003a640 f i libucrt:output.obj
 0001:00039666       ?type_case_o@?$output_processor@DV?$string_output_adapter@D@__crt_stdio_output@@V?$format_validation_base@DV?$string_output_adapter@D@__crt_stdio_output@@@2@@__crt_stdio_output@@AAE_NXZ 1003a666 f i libucrt:output.obj
 0001:0003968c       ?type_case_o@?$output_processor@DV?$string_output_adapter@D@__crt_stdio_output@@V?$positional_parameter_base@DV?$string_output_adapter@D@__crt_stdio_output@@@2@@__crt_stdio_output@@AAE_NXZ 1003a68c f i libucrt:output.obj
 0001:000396b2       ?type_case_o@?$output_processor@DV?$string_output_adapter@D@__crt_stdio_output@@V?$standard_base@DV?$string_output_adapter@D@__crt_stdio_output@@@2@@__crt_stdio_output@@AAE_NXZ 1003a6b2 f i libucrt:output.obj
 0001:000396d8       ?type_case_o@?$output_processor@_WV?$stream_output_adapter@_W@__crt_stdio_output@@V?$format_validation_base@_WV?$stream_output_adapter@_W@__crt_stdio_output@@@2@@__crt_stdio_output@@AAE_NXZ 1003a6d8 f i libucrt:output.obj
 0001:000396fe       ?type_case_o@?$output_processor@_WV?$stream_output_adapter@_W@__crt_stdio_output@@V?$positional_parameter_base@_WV?$stream_output_adapter@_W@__crt_stdio_output@@@2@@__crt_stdio_output@@AAE_NXZ 1003a6fe f i libucrt:output.obj
 0001:00039724       ?type_case_o@?$output_processor@_WV?$stream_output_adapter@_W@__crt_stdio_output@@V?$standard_base@_WV?$stream_output_adapter@_W@__crt_stdio_output@@@2@@__crt_stdio_output@@AAE_NXZ 1003a724 f i libucrt:output.obj
 0001:0003974a       ?type_case_o@?$output_processor@_WV?$string_output_adapter@_W@__crt_stdio_output@@V?$format_validation_base@_WV?$string_output_adapter@_W@__crt_stdio_output@@@2@@__crt_stdio_output@@AAE_NXZ 1003a74a f i libucrt:output.obj
 0001:00039770       ?type_case_o@?$output_processor@_WV?$string_output_adapter@_W@__crt_stdio_output@@V?$positional_parameter_base@_WV?$string_output_adapter@_W@__crt_stdio_output@@@2@@__crt_stdio_output@@AAE_NXZ 1003a770 f i libucrt:output.obj
 0001:00039796       ?type_case_o@?$output_processor@_WV?$string_output_adapter@_W@__crt_stdio_output@@V?$standard_base@_WV?$string_output_adapter@_W@__crt_stdio_output@@@2@@__crt_stdio_output@@AAE_NXZ 1003a796 f i libucrt:output.obj
 0001:000397bc       ?type_case_p@?$output_processor@DV?$stream_output_adapter@D@__crt_stdio_output@@V?$format_validation_base@DV?$stream_output_adapter@D@__crt_stdio_output@@@2@@__crt_stdio_output@@AAE_NXZ 1003a7bc f i libucrt:output.obj
 0001:000397da       ?type_case_p@?$output_processor@DV?$stream_output_adapter@D@__crt_stdio_output@@V?$positional_parameter_base@DV?$stream_output_adapter@D@__crt_stdio_output@@@2@@__crt_stdio_output@@AAE_NXZ 1003a7da f i libucrt:output.obj
 0001:000397f8       ?type_case_p@?$output_processor@DV?$stream_output_adapter@D@__crt_stdio_output@@V?$standard_base@DV?$stream_output_adapter@D@__crt_stdio_output@@@2@@__crt_stdio_output@@AAE_NXZ 1003a7f8 f i libucrt:output.obj
 0001:00039816       ?type_case_p@?$output_processor@DV?$string_output_adapter@D@__crt_stdio_output@@V?$format_validation_base@DV?$string_output_adapter@D@__crt_stdio_output@@@2@@__crt_stdio_output@@AAE_NXZ 1003a816 f i libucrt:output.obj
 0001:00039834       ?type_case_p@?$output_processor@DV?$string_output_adapter@D@__crt_stdio_output@@V?$positional_parameter_base@DV?$string_output_adapter@D@__crt_stdio_output@@@2@@__crt_stdio_output@@AAE_NXZ 1003a834 f i libucrt:output.obj
 0001:00039852       ?type_case_p@?$output_processor@DV?$string_output_adapter@D@__crt_stdio_output@@V?$standard_base@DV?$string_output_adapter@D@__crt_stdio_output@@@2@@__crt_stdio_output@@AAE_NXZ 1003a852 f i libucrt:output.obj
 0001:00039870       ?type_case_p@?$output_processor@_WV?$stream_output_adapter@_W@__crt_stdio_output@@V?$format_validation_base@_WV?$stream_output_adapter@_W@__crt_stdio_output@@@2@@__crt_stdio_output@@AAE_NXZ 1003a870 f i libucrt:output.obj
 0001:0003988e       ?type_case_p@?$output_processor@_WV?$stream_output_adapter@_W@__crt_stdio_output@@V?$positional_parameter_base@_WV?$stream_output_adapter@_W@__crt_stdio_output@@@2@@__crt_stdio_output@@AAE_NXZ 1003a88e f i libucrt:output.obj
 0001:000398ac       ?type_case_p@?$output_processor@_WV?$stream_output_adapter@_W@__crt_stdio_output@@V?$standard_base@_WV?$stream_output_adapter@_W@__crt_stdio_output@@@2@@__crt_stdio_output@@AAE_NXZ 1003a8ac f i libucrt:output.obj
 0001:000398ca       ?type_case_p@?$output_processor@_WV?$string_output_adapter@_W@__crt_stdio_output@@V?$format_validation_base@_WV?$string_output_adapter@_W@__crt_stdio_output@@@2@@__crt_stdio_output@@AAE_NXZ 1003a8ca f i libucrt:output.obj
 0001:000398e8       ?type_case_p@?$output_processor@_WV?$string_output_adapter@_W@__crt_stdio_output@@V?$positional_parameter_base@_WV?$string_output_adapter@_W@__crt_stdio_output@@@2@@__crt_stdio_output@@AAE_NXZ 1003a8e8 f i libucrt:output.obj
 0001:00039906       ?type_case_p@?$output_processor@_WV?$string_output_adapter@_W@__crt_stdio_output@@V?$standard_base@_WV?$string_output_adapter@_W@__crt_stdio_output@@@2@@__crt_stdio_output@@AAE_NXZ 1003a906 f i libucrt:output.obj
 0001:00039924       ?type_case_s@?$output_processor@DV?$stream_output_adapter@D@__crt_stdio_output@@V?$format_validation_base@DV?$stream_output_adapter@D@__crt_stdio_output@@@2@@__crt_stdio_output@@AAE_NXZ 1003a924 f i libucrt:output.obj
 0001:000399b1       ?type_case_s@?$output_processor@DV?$stream_output_adapter@D@__crt_stdio_output@@V?$positional_parameter_base@DV?$stream_output_adapter@D@__crt_stdio_output@@@2@@__crt_stdio_output@@AAE_NXZ 1003a9b1 f i libucrt:output.obj
 0001:00039a4e       ?type_case_s@?$output_processor@DV?$stream_output_adapter@D@__crt_stdio_output@@V?$standard_base@DV?$stream_output_adapter@D@__crt_stdio_output@@@2@@__crt_stdio_output@@AAE_NXZ 1003aa4e f i libucrt:output.obj
 0001:00039adb       ?type_case_s@?$output_processor@DV?$string_output_adapter@D@__crt_stdio_output@@V?$format_validation_base@DV?$string_output_adapter@D@__crt_stdio_output@@@2@@__crt_stdio_output@@AAE_NXZ 1003aadb f i libucrt:output.obj
 0001:00039b68       ?type_case_s@?$output_processor@DV?$string_output_adapter@D@__crt_stdio_output@@V?$positional_parameter_base@DV?$string_output_adapter@D@__crt_stdio_output@@@2@@__crt_stdio_output@@AAE_NXZ 1003ab68 f i libucrt:output.obj
 0001:00039c05       ?type_case_s@?$output_processor@DV?$string_output_adapter@D@__crt_stdio_output@@V?$standard_base@DV?$string_output_adapter@D@__crt_stdio_output@@@2@@__crt_stdio_output@@AAE_NXZ 1003ac05 f i libucrt:output.obj
 0001:00039c92       ?type_case_s@?$output_processor@_WV?$stream_output_adapter@_W@__crt_stdio_output@@V?$format_validation_base@_WV?$stream_output_adapter@_W@__crt_stdio_output@@@2@@__crt_stdio_output@@AAE_NXZ 1003ac92 f i libucrt:output.obj
 0001:00039d21       ?type_case_s@?$output_processor@_WV?$stream_output_adapter@_W@__crt_stdio_output@@V?$positional_parameter_base@_WV?$stream_output_adapter@_W@__crt_stdio_output@@@2@@__crt_stdio_output@@AAE_NXZ 1003ad21 f i libucrt:output.obj
 0001:00039dc1       ?type_case_s@?$output_processor@_WV?$stream_output_adapter@_W@__crt_stdio_output@@V?$standard_base@_WV?$stream_output_adapter@_W@__crt_stdio_output@@@2@@__crt_stdio_output@@AAE_NXZ 1003adc1 f i libucrt:output.obj
 0001:00039e50       ?type_case_s@?$output_processor@_WV?$string_output_adapter@_W@__crt_stdio_output@@V?$format_validation_base@_WV?$string_output_adapter@_W@__crt_stdio_output@@@2@@__crt_stdio_output@@AAE_NXZ 1003ae50 f i libucrt:output.obj
 0001:00039edf       ?type_case_s@?$output_processor@_WV?$string_output_adapter@_W@__crt_stdio_output@@V?$positional_parameter_base@_WV?$string_output_adapter@_W@__crt_stdio_output@@@2@@__crt_stdio_output@@AAE_NXZ 1003aedf f i libucrt:output.obj
 0001:00039f7f       ?type_case_s@?$output_processor@_WV?$string_output_adapter@_W@__crt_stdio_output@@V?$standard_base@_WV?$string_output_adapter@_W@__crt_stdio_output@@@2@@__crt_stdio_output@@AAE_NXZ 1003af7f f i libucrt:output.obj
 0001:0003a00e       ?type_case_s_compute_narrow_string_length@?$output_processor@DV?$stream_output_adapter@D@__crt_stdio_output@@V?$format_validation_base@DV?$stream_output_adapter@D@__crt_stdio_output@@@2@@__crt_stdio_output@@ABEHHD@Z 1003b00e f i libucrt:output.obj
 0001:0003a029       ?type_case_s_compute_narrow_string_length@?$output_processor@DV?$stream_output_adapter@D@__crt_stdio_output@@V?$positional_parameter_base@DV?$stream_output_adapter@D@__crt_stdio_output@@@2@@__crt_stdio_output@@ABEHHD@Z 1003b029 f i libucrt:output.obj
 0001:0003a044       ?type_case_s_compute_narrow_string_length@?$output_processor@DV?$stream_output_adapter@D@__crt_stdio_output@@V?$standard_base@DV?$stream_output_adapter@D@__crt_stdio_output@@@2@@__crt_stdio_output@@ABEHHD@Z 1003b044 f i libucrt:output.obj
 0001:0003a05f       ?type_case_s_compute_narrow_string_length@?$output_processor@DV?$string_output_adapter@D@__crt_stdio_output@@V?$format_validation_base@DV?$string_output_adapter@D@__crt_stdio_output@@@2@@__crt_stdio_output@@ABEHHD@Z 1003b05f f i libucrt:output.obj
 0001:0003a07a       ?type_case_s_compute_narrow_string_length@?$output_processor@DV?$string_output_adapter@D@__crt_stdio_output@@V?$positional_parameter_base@DV?$string_output_adapter@D@__crt_stdio_output@@@2@@__crt_stdio_output@@ABEHHD@Z 1003b07a f i libucrt:output.obj
 0001:0003a095       ?type_case_s_compute_narrow_string_length@?$output_processor@DV?$string_output_adapter@D@__crt_stdio_output@@V?$standard_base@DV?$string_output_adapter@D@__crt_stdio_output@@@2@@__crt_stdio_output@@ABEHHD@Z 1003b095 f i libucrt:output.obj
 0001:0003a0b0       ?type_case_s_compute_narrow_string_length@?$output_processor@_WV?$stream_output_adapter@_W@__crt_stdio_output@@V?$format_validation_base@_WV?$stream_output_adapter@_W@__crt_stdio_output@@@2@@__crt_stdio_output@@ABEHH_W@Z 1003b0b0 f i libucrt:output.obj
 0001:0003a0fc       ?type_case_s_compute_narrow_string_length@?$output_processor@_WV?$stream_output_adapter@_W@__crt_stdio_output@@V?$positional_parameter_base@_WV?$stream_output_adapter@_W@__crt_stdio_output@@@2@@__crt_stdio_output@@ABEHH_W@Z 1003b0fc f i libucrt:output.obj
 0001:0003a148       ?type_case_s_compute_narrow_string_length@?$output_processor@_WV?$stream_output_adapter@_W@__crt_stdio_output@@V?$standard_base@_WV?$stream_output_adapter@_W@__crt_stdio_output@@@2@@__crt_stdio_output@@ABEHH_W@Z 1003b148 f i libucrt:output.obj
 0001:0003a194       ?type_case_s_compute_narrow_string_length@?$output_processor@_WV?$string_output_adapter@_W@__crt_stdio_output@@V?$format_validation_base@_WV?$string_output_adapter@_W@__crt_stdio_output@@@2@@__crt_stdio_output@@ABEHH_W@Z 1003b194 f i libucrt:output.obj
 0001:0003a1e0       ?type_case_s_compute_narrow_string_length@?$output_processor@_WV?$string_output_adapter@_W@__crt_stdio_output@@V?$positional_parameter_base@_WV?$string_output_adapter@_W@__crt_stdio_output@@@2@@__crt_stdio_output@@ABEHH_W@Z 1003b1e0 f i libucrt:output.obj
 0001:0003a22c       ?type_case_s_compute_narrow_string_length@?$output_processor@_WV?$string_output_adapter@_W@__crt_stdio_output@@V?$standard_base@_WV?$string_output_adapter@_W@__crt_stdio_output@@@2@@__crt_stdio_output@@ABEHH_W@Z 1003b22c f i libucrt:output.obj
 0001:0003a278       ?type_case_u@?$output_processor@DV?$stream_output_adapter@D@__crt_stdio_output@@V?$format_validation_base@DV?$stream_output_adapter@D@__crt_stdio_output@@@2@@__crt_stdio_output@@AAE_NXZ 1003b278 f i libucrt:output.obj
 0001:0003a284       ?type_case_u@?$output_processor@DV?$stream_output_adapter@D@__crt_stdio_output@@V?$positional_parameter_base@DV?$stream_output_adapter@D@__crt_stdio_output@@@2@@__crt_stdio_output@@AAE_NXZ 1003b284 f i libucrt:output.obj
 0001:0003a290       ?type_case_u@?$output_processor@DV?$stream_output_adapter@D@__crt_stdio_output@@V?$standard_base@DV?$stream_output_adapter@D@__crt_stdio_output@@@2@@__crt_stdio_output@@AAE_NXZ 1003b290 f i libucrt:output.obj
 0001:0003a29c       ?type_case_u@?$output_processor@DV?$string_output_adapter@D@__crt_stdio_output@@V?$format_validation_base@DV?$string_output_adapter@D@__crt_stdio_output@@@2@@__crt_stdio_output@@AAE_NXZ 1003b29c f i libucrt:output.obj
 0001:0003a2a8       ?type_case_u@?$output_processor@DV?$string_output_adapter@D@__crt_stdio_output@@V?$positional_parameter_base@DV?$string_output_adapter@D@__crt_stdio_output@@@2@@__crt_stdio_output@@AAE_NXZ 1003b2a8 f i libucrt:output.obj
 0001:0003a2b4       ?type_case_u@?$output_processor@DV?$string_output_adapter@D@__crt_stdio_output@@V?$standard_base@DV?$string_output_adapter@D@__crt_stdio_output@@@2@@__crt_stdio_output@@AAE_NXZ 1003b2b4 f i libucrt:output.obj
 0001:0003a2c0       ?type_case_u@?$output_processor@_WV?$stream_output_adapter@_W@__crt_stdio_output@@V?$format_validation_base@_WV?$stream_output_adapter@_W@__crt_stdio_output@@@2@@__crt_stdio_output@@AAE_NXZ 1003b2c0 f i libucrt:output.obj
 0001:0003a2cc       ?type_case_u@?$output_processor@_WV?$stream_output_adapter@_W@__crt_stdio_output@@V?$positional_parameter_base@_WV?$stream_output_adapter@_W@__crt_stdio_output@@@2@@__crt_stdio_output@@AAE_NXZ 1003b2cc f i libucrt:output.obj
 0001:0003a2d8       ?type_case_u@?$output_processor@_WV?$stream_output_adapter@_W@__crt_stdio_output@@V?$standard_base@_WV?$stream_output_adapter@_W@__crt_stdio_output@@@2@@__crt_stdio_output@@AAE_NXZ 1003b2d8 f i libucrt:output.obj
 0001:0003a2e4       ?type_case_u@?$output_processor@_WV?$string_output_adapter@_W@__crt_stdio_output@@V?$format_validation_base@_WV?$string_output_adapter@_W@__crt_stdio_output@@@2@@__crt_stdio_output@@AAE_NXZ 1003b2e4 f i libucrt:output.obj
 0001:0003a2f0       ?type_case_u@?$output_processor@_WV?$string_output_adapter@_W@__crt_stdio_output@@V?$positional_parameter_base@_WV?$string_output_adapter@_W@__crt_stdio_output@@@2@@__crt_stdio_output@@AAE_NXZ 1003b2f0 f i libucrt:output.obj
 0001:0003a2fc       ?type_case_u@?$output_processor@_WV?$string_output_adapter@_W@__crt_stdio_output@@V?$standard_base@_WV?$string_output_adapter@_W@__crt_stdio_output@@@2@@__crt_stdio_output@@AAE_NXZ 1003b2fc f i libucrt:output.obj
 0001:0003a308       ?type_case_x@?$output_processor@DV?$stream_output_adapter@D@__crt_stdio_output@@V?$format_validation_base@DV?$stream_output_adapter@D@__crt_stdio_output@@@2@@__crt_stdio_output@@AAE_NXZ 1003b308 f i libucrt:output.obj
 0001:0003a314       ?type_case_x@?$output_processor@DV?$stream_output_adapter@D@__crt_stdio_output@@V?$positional_parameter_base@DV?$stream_output_adapter@D@__crt_stdio_output@@@2@@__crt_stdio_output@@AAE_NXZ 1003b314 f i libucrt:output.obj
 0001:0003a320       ?type_case_x@?$output_processor@DV?$stream_output_adapter@D@__crt_stdio_output@@V?$standard_base@DV?$stream_output_adapter@D@__crt_stdio_output@@@2@@__crt_stdio_output@@AAE_NXZ 1003b320 f i libucrt:output.obj
 0001:0003a32c       ?type_case_x@?$output_processor@DV?$string_output_adapter@D@__crt_stdio_output@@V?$format_validation_base@DV?$string_output_adapter@D@__crt_stdio_output@@@2@@__crt_stdio_output@@AAE_NXZ 1003b32c f i libucrt:output.obj
 0001:0003a338       ?type_case_x@?$output_processor@DV?$string_output_adapter@D@__crt_stdio_output@@V?$positional_parameter_base@DV?$string_output_adapter@D@__crt_stdio_output@@@2@@__crt_stdio_output@@AAE_NXZ 1003b338 f i libucrt:output.obj
 0001:0003a344       ?type_case_x@?$output_processor@DV?$string_output_adapter@D@__crt_stdio_output@@V?$standard_base@DV?$string_output_adapter@D@__crt_stdio_output@@@2@@__crt_stdio_output@@AAE_NXZ 1003b344 f i libucrt:output.obj
 0001:0003a350       ?type_case_x@?$output_processor@_WV?$stream_output_adapter@_W@__crt_stdio_output@@V?$format_validation_base@_WV?$stream_output_adapter@_W@__crt_stdio_output@@@2@@__crt_stdio_output@@AAE_NXZ 1003b350 f i libucrt:output.obj
 0001:0003a35c       ?type_case_x@?$output_processor@_WV?$stream_output_adapter@_W@__crt_stdio_output@@V?$positional_parameter_base@_WV?$stream_output_adapter@_W@__crt_stdio_output@@@2@@__crt_stdio_output@@AAE_NXZ 1003b35c f i libucrt:output.obj
 0001:0003a368       ?type_case_x@?$output_processor@_WV?$stream_output_adapter@_W@__crt_stdio_output@@V?$standard_base@_WV?$stream_output_adapter@_W@__crt_stdio_output@@@2@@__crt_stdio_output@@AAE_NXZ 1003b368 f i libucrt:output.obj
 0001:0003a374       ?type_case_x@?$output_processor@_WV?$string_output_adapter@_W@__crt_stdio_output@@V?$format_validation_base@_WV?$string_output_adapter@_W@__crt_stdio_output@@@2@@__crt_stdio_output@@AAE_NXZ 1003b374 f i libucrt:output.obj
 0001:0003a380       ?type_case_x@?$output_processor@_WV?$string_output_adapter@_W@__crt_stdio_output@@V?$positional_parameter_base@_WV?$string_output_adapter@_W@__crt_stdio_output@@@2@@__crt_stdio_output@@AAE_NXZ 1003b380 f i libucrt:output.obj
 0001:0003a38c       ?type_case_x@?$output_processor@_WV?$string_output_adapter@_W@__crt_stdio_output@@V?$standard_base@_WV?$string_output_adapter@_W@__crt_stdio_output@@@2@@__crt_stdio_output@@AAE_NXZ 1003b38c f i libucrt:output.obj
 0001:0003a398       ?unset_flag@?$output_processor@DV?$stream_output_adapter@D@__crt_stdio_output@@V?$format_validation_base@DV?$stream_output_adapter@D@__crt_stdio_output@@@2@@__crt_stdio_output@@AAEXI@Z 1003b398 f i libucrt:output.obj
 0001:0003a3ad       ?unset_flag@?$output_processor@DV?$stream_output_adapter@D@__crt_stdio_output@@V?$positional_parameter_base@DV?$stream_output_adapter@D@__crt_stdio_output@@@2@@__crt_stdio_output@@AAEXI@Z 1003b3ad f i libucrt:output.obj
 0001:0003a3c2       ?unset_flag@?$output_processor@DV?$stream_output_adapter@D@__crt_stdio_output@@V?$standard_base@DV?$stream_output_adapter@D@__crt_stdio_output@@@2@@__crt_stdio_output@@AAEXI@Z 1003b3c2 f i libucrt:output.obj
 0001:0003a3d7       ?unset_flag@?$output_processor@DV?$string_output_adapter@D@__crt_stdio_output@@V?$format_validation_base@DV?$string_output_adapter@D@__crt_stdio_output@@@2@@__crt_stdio_output@@AAEXI@Z 1003b3d7 f i libucrt:output.obj
 0001:0003a3ec       ?unset_flag@?$output_processor@DV?$string_output_adapter@D@__crt_stdio_output@@V?$positional_parameter_base@DV?$string_output_adapter@D@__crt_stdio_output@@@2@@__crt_stdio_output@@AAEXI@Z 1003b3ec f i libucrt:output.obj
 0001:0003a401       ?unset_flag@?$output_processor@DV?$string_output_adapter@D@__crt_stdio_output@@V?$standard_base@DV?$string_output_adapter@D@__crt_stdio_output@@@2@@__crt_stdio_output@@AAEXI@Z 1003b401 f i libucrt:output.obj
 0001:0003a416       ?unset_flag@?$output_processor@_WV?$stream_output_adapter@_W@__crt_stdio_output@@V?$format_validation_base@_WV?$stream_output_adapter@_W@__crt_stdio_output@@@2@@__crt_stdio_output@@AAEXI@Z 1003b416 f i libucrt:output.obj
 0001:0003a42b       ?unset_flag@?$output_processor@_WV?$stream_output_adapter@_W@__crt_stdio_output@@V?$positional_parameter_base@_WV?$stream_output_adapter@_W@__crt_stdio_output@@@2@@__crt_stdio_output@@AAEXI@Z 1003b42b f i libucrt:output.obj
 0001:0003a440       ?unset_flag@?$output_processor@_WV?$stream_output_adapter@_W@__crt_stdio_output@@V?$standard_base@_WV?$stream_output_adapter@_W@__crt_stdio_output@@@2@@__crt_stdio_output@@AAEXI@Z 1003b440 f i libucrt:output.obj
 0001:0003a455       ?unset_flag@?$output_processor@_WV?$string_output_adapter@_W@__crt_stdio_output@@V?$format_validation_base@_WV?$string_output_adapter@_W@__crt_stdio_output@@@2@@__crt_stdio_output@@AAEXI@Z 1003b455 f i libucrt:output.obj
 0001:0003a46a       ?unset_flag@?$output_processor@_WV?$string_output_adapter@_W@__crt_stdio_output@@V?$positional_parameter_base@_WV?$string_output_adapter@_W@__crt_stdio_output@@@2@@__crt_stdio_output@@AAEXI@Z 1003b46a f i libucrt:output.obj
 0001:0003a47f       ?unset_flag@?$output_processor@_WV?$string_output_adapter@_W@__crt_stdio_output@@V?$standard_base@_WV?$string_output_adapter@_W@__crt_stdio_output@@@2@@__crt_stdio_output@@AAEXI@Z 1003b47f f i libucrt:output.obj
 0001:0003a494       ?update_field_width@?$positional_parameter_base@DV?$stream_output_adapter@D@__crt_stdio_output@@@__crt_stdio_output@@IAE_NXZ 1003b494 f i libucrt:output.obj
 0001:0003a577       ?update_field_width@?$positional_parameter_base@DV?$string_output_adapter@D@__crt_stdio_output@@@__crt_stdio_output@@IAE_NXZ 1003b577 f i libucrt:output.obj
 0001:0003a65a       ?update_field_width@?$positional_parameter_base@_WV?$stream_output_adapter@_W@__crt_stdio_output@@@__crt_stdio_output@@IAE_NXZ 1003b65a f i libucrt:output.obj
 0001:0003a73e       ?update_field_width@?$positional_parameter_base@_WV?$string_output_adapter@_W@__crt_stdio_output@@@__crt_stdio_output@@IAE_NXZ 1003b73e f i libucrt:output.obj
 0001:0003a822       ?update_field_width@?$standard_base@DV?$stream_output_adapter@D@__crt_stdio_output@@@__crt_stdio_output@@IAE_NXZ 1003b822 f i libucrt:output.obj
 0001:0003a836       ?update_field_width@?$standard_base@DV?$string_output_adapter@D@__crt_stdio_output@@@__crt_stdio_output@@IAE_NXZ 1003b836 f i libucrt:output.obj
 0001:0003a84a       ?update_field_width@?$standard_base@_WV?$stream_output_adapter@_W@__crt_stdio_output@@@__crt_stdio_output@@IAE_NXZ 1003b84a f i libucrt:output.obj
 0001:0003a85e       ?update_field_width@?$standard_base@_WV?$string_output_adapter@_W@__crt_stdio_output@@@__crt_stdio_output@@IAE_NXZ 1003b85e f i libucrt:output.obj
 0001:0003a872       ?update_precision@?$positional_parameter_base@DV?$stream_output_adapter@D@__crt_stdio_output@@@__crt_stdio_output@@IAE_NXZ 1003b872 f i libucrt:output.obj
 0001:0003a955       ?update_precision@?$positional_parameter_base@DV?$string_output_adapter@D@__crt_stdio_output@@@__crt_stdio_output@@IAE_NXZ 1003b955 f i libucrt:output.obj
 0001:0003aa38       ?update_precision@?$positional_parameter_base@_WV?$stream_output_adapter@_W@__crt_stdio_output@@@__crt_stdio_output@@IAE_NXZ 1003ba38 f i libucrt:output.obj
 0001:0003ab1c       ?update_precision@?$positional_parameter_base@_WV?$string_output_adapter@_W@__crt_stdio_output@@@__crt_stdio_output@@IAE_NXZ 1003bb1c f i libucrt:output.obj
 0001:0003ac00       ?update_precision@?$standard_base@DV?$stream_output_adapter@D@__crt_stdio_output@@@__crt_stdio_output@@IAE_NXZ 1003bc00 f i libucrt:output.obj
 0001:0003ac14       ?update_precision@?$standard_base@DV?$string_output_adapter@D@__crt_stdio_output@@@__crt_stdio_output@@IAE_NXZ 1003bc14 f i libucrt:output.obj
 0001:0003ac28       ?update_precision@?$standard_base@_WV?$stream_output_adapter@_W@__crt_stdio_output@@@__crt_stdio_output@@IAE_NXZ 1003bc28 f i libucrt:output.obj
 0001:0003ac3c       ?update_precision@?$standard_base@_WV?$string_output_adapter@_W@__crt_stdio_output@@@__crt_stdio_output@@IAE_NXZ 1003bc3c f i libucrt:output.obj
 0001:0003ac50       ?validate@?$stream_output_adapter@D@__crt_stdio_output@@QBE_NXZ 1003bc50 f i libucrt:output.obj
 0001:0003ac79       ?validate@?$stream_output_adapter@_W@__crt_stdio_output@@QBE_NXZ 1003bc79 f i libucrt:output.obj
 0001:0003ac9a       ?validate@?$string_output_adapter@D@__crt_stdio_output@@QBE_NXZ 1003bc9a f i libucrt:output.obj
 0001:0003acbb       ?validate@?$string_output_adapter@_W@__crt_stdio_output@@QBE_NXZ 1003bcbb f i libucrt:output.obj
 0001:0003acdc       ?validate_and_store_parameter_data@?$positional_parameter_base@DV?$stream_output_adapter@D@__crt_stdio_output@@@__crt_stdio_output@@AAE_NAAUparameter_data@12@W4parameter_type@12@DW4length_modifier@2@@Z 1003bcdc f i libucrt:output.obj
 0001:0003ad39       ?validate_and_store_parameter_data@?$positional_parameter_base@DV?$string_output_adapter@D@__crt_stdio_output@@@__crt_stdio_output@@AAE_NAAUparameter_data@12@W4parameter_type@12@DW4length_modifier@2@@Z 1003bd39 f i libucrt:output.obj
 0001:0003ad96       ?validate_and_store_parameter_data@?$positional_parameter_base@_WV?$stream_output_adapter@_W@__crt_stdio_output@@@__crt_stdio_output@@AAE_NAAUparameter_data@12@W4parameter_type@12@_WW4length_modifier@2@@Z 1003bd96 f i libucrt:output.obj
 0001:0003adf6       ?validate_and_store_parameter_data@?$positional_parameter_base@_WV?$string_output_adapter@_W@__crt_stdio_output@@@__crt_stdio_output@@AAE_NAAUparameter_data@12@W4parameter_type@12@_WW4length_modifier@2@@Z 1003bdf6 f i libucrt:output.obj
 0001:0003ae56       ?validate_and_update_state_at_beginning_of_format_character@?$positional_parameter_base@DV?$stream_output_adapter@D@__crt_stdio_output@@@__crt_stdio_output@@IAE_NXZ 1003be56 f i libucrt:output.obj
 0001:0003af8e       ?validate_and_update_state_at_beginning_of_format_character@?$positional_parameter_base@DV?$string_output_adapter@D@__crt_stdio_output@@@__crt_stdio_output@@IAE_NXZ 1003bf8e f i libucrt:output.obj
 0001:0003b0c6       ?validate_and_update_state_at_beginning_of_format_character@?$positional_parameter_base@_WV?$stream_output_adapter@_W@__crt_stdio_output@@@__crt_stdio_output@@IAE_NXZ 1003c0c6 f i libucrt:output.obj
 0001:0003b209       ?validate_and_update_state_at_beginning_of_format_character@?$positional_parameter_base@_WV?$string_output_adapter@_W@__crt_stdio_output@@@__crt_stdio_output@@IAE_NXZ 1003c209 f i libucrt:output.obj
 0001:0003b34c       ?validate_and_update_state_at_beginning_of_format_character@?$standard_base@DV?$stream_output_adapter@D@__crt_stdio_output@@@__crt_stdio_output@@IAE_NXZ 1003c34c f i libucrt:output.obj
 0001:0003b34f       ?validate_and_update_state_at_beginning_of_format_character@?$standard_base@DV?$string_output_adapter@D@__crt_stdio_output@@@__crt_stdio_output@@IAE_NXZ 1003c34f f i libucrt:output.obj
 0001:0003b352       ?validate_and_update_state_at_beginning_of_format_character@?$standard_base@_WV?$stream_output_adapter@_W@__crt_stdio_output@@@__crt_stdio_output@@IAE_NXZ 1003c352 f i libucrt:output.obj
 0001:0003b355       ?validate_and_update_state_at_beginning_of_format_character@?$standard_base@_WV?$string_output_adapter@_W@__crt_stdio_output@@@__crt_stdio_output@@IAE_NXZ 1003c355 f i libucrt:output.obj
 0001:0003b358       ?validate_and_update_state_at_end_of_format_string@?$format_validation_base@DV?$stream_output_adapter@D@__crt_stdio_output@@@__crt_stdio_output@@IBE_NXZ 1003c358 f i libucrt:output.obj
 0001:0003b382       ?validate_and_update_state_at_end_of_format_string@?$format_validation_base@DV?$string_output_adapter@D@__crt_stdio_output@@@__crt_stdio_output@@IBE_NXZ 1003c382 f i libucrt:output.obj
 0001:0003b3ac       ?validate_and_update_state_at_end_of_format_string@?$format_validation_base@_WV?$stream_output_adapter@_W@__crt_stdio_output@@@__crt_stdio_output@@IBE_NXZ 1003c3ac f i libucrt:output.obj
 0001:0003b3d6       ?validate_and_update_state_at_end_of_format_string@?$format_validation_base@_WV?$string_output_adapter@_W@__crt_stdio_output@@@__crt_stdio_output@@IBE_NXZ 1003c3d6 f i libucrt:output.obj
 0001:0003b400       ?validate_and_update_state_at_end_of_format_string@?$positional_parameter_base@DV?$stream_output_adapter@D@__crt_stdio_output@@@__crt_stdio_output@@IAE_NXZ 1003c400 f i libucrt:output.obj
 0001:0003b4a6       ?validate_and_update_state_at_end_of_format_string@?$positional_parameter_base@DV?$string_output_adapter@D@__crt_stdio_output@@@__crt_stdio_output@@IAE_NXZ 1003c4a6 f i libucrt:output.obj
 0001:0003b54c       ?validate_and_update_state_at_end_of_format_string@?$positional_parameter_base@_WV?$stream_output_adapter@_W@__crt_stdio_output@@@__crt_stdio_output@@IAE_NXZ 1003c54c f i libucrt:output.obj
 0001:0003b5f2       ?validate_and_update_state_at_end_of_format_string@?$positional_parameter_base@_WV?$string_output_adapter@_W@__crt_stdio_output@@@__crt_stdio_output@@IAE_NXZ 1003c5f2 f i libucrt:output.obj
 0001:0003b698       ?validate_and_update_state_at_end_of_format_string@?$standard_base@DV?$stream_output_adapter@D@__crt_stdio_output@@@__crt_stdio_output@@IBE_NXZ 1003c698 f i libucrt:output.obj
 0001:0003b69b       ?validate_and_update_state_at_end_of_format_string@?$standard_base@DV?$string_output_adapter@D@__crt_stdio_output@@@__crt_stdio_output@@IBE_NXZ 1003c69b f i libucrt:output.obj
 0001:0003b69e       ?validate_and_update_state_at_end_of_format_string@?$standard_base@_WV?$stream_output_adapter@_W@__crt_stdio_output@@@__crt_stdio_output@@IBE_NXZ 1003c69e f i libucrt:output.obj
 0001:0003b6a1       ?validate_and_update_state_at_end_of_format_string@?$standard_base@_WV?$string_output_adapter@_W@__crt_stdio_output@@@__crt_stdio_output@@IBE_NXZ 1003c6a1 f i libucrt:output.obj
 0001:0003b6a4       ?validate_state_for_type_case_a@?$positional_parameter_base@DV?$stream_output_adapter@D@__crt_stdio_output@@@__crt_stdio_output@@IAE_NXZ 1003c6a4 f i libucrt:output.obj
 0001:0003b706       ?validate_state_for_type_case_a@?$positional_parameter_base@DV?$string_output_adapter@D@__crt_stdio_output@@@__crt_stdio_output@@IAE_NXZ 1003c706 f i libucrt:output.obj
 0001:0003b768       ?validate_state_for_type_case_a@?$positional_parameter_base@_WV?$stream_output_adapter@_W@__crt_stdio_output@@@__crt_stdio_output@@IAE_NXZ 1003c768 f i libucrt:output.obj
 0001:0003b7ca       ?validate_state_for_type_case_a@?$positional_parameter_base@_WV?$string_output_adapter@_W@__crt_stdio_output@@@__crt_stdio_output@@IAE_NXZ 1003c7ca f i libucrt:output.obj
 0001:0003b82c       ?validate_state_for_type_case_a@?$standard_base@DV?$stream_output_adapter@D@__crt_stdio_output@@@__crt_stdio_output@@IBE_NXZ 1003c82c f i libucrt:output.obj
 0001:0003b82f       ?validate_state_for_type_case_a@?$standard_base@DV?$string_output_adapter@D@__crt_stdio_output@@@__crt_stdio_output@@IBE_NXZ 1003c82f f i libucrt:output.obj
 0001:0003b832       ?validate_state_for_type_case_a@?$standard_base@_WV?$stream_output_adapter@_W@__crt_stdio_output@@@__crt_stdio_output@@IBE_NXZ 1003c832 f i libucrt:output.obj
 0001:0003b835       ?validate_state_for_type_case_a@?$standard_base@_WV?$string_output_adapter@_W@__crt_stdio_output@@@__crt_stdio_output@@IBE_NXZ 1003c835 f i libucrt:output.obj
 0001:0003b838       ?validate_stream_is_ansi_if_required@?$__acrt_stdio_char_traits@D@@SA_NQAU_iobuf@@@Z 1003c838 f i libucrt:output.obj
 0001:0003b8df       ?validate_stream_is_ansi_if_required@?$__acrt_stdio_char_traits@_W@@SA_NQAU_iobuf@@@Z 1003c8df f i libucrt:output.obj
 0001:0003b8e2       ?wide_null_string@?$output_processor@DV?$stream_output_adapter@D@__crt_stdio_output@@V?$format_validation_base@DV?$stream_output_adapter@D@__crt_stdio_output@@@2@@__crt_stdio_output@@CAPA_WXZ 1003c8e2 f i libucrt:output.obj
 0001:0003b8e8       ?wide_null_string@?$output_processor@DV?$stream_output_adapter@D@__crt_stdio_output@@V?$positional_parameter_base@DV?$stream_output_adapter@D@__crt_stdio_output@@@2@@__crt_stdio_output@@CAPA_WXZ 1003c8e8 f i libucrt:output.obj
 0001:0003b8ee       ?wide_null_string@?$output_processor@DV?$stream_output_adapter@D@__crt_stdio_output@@V?$standard_base@DV?$stream_output_adapter@D@__crt_stdio_output@@@2@@__crt_stdio_output@@CAPA_WXZ 1003c8ee f i libucrt:output.obj
 0001:0003b8f4       ?wide_null_string@?$output_processor@DV?$string_output_adapter@D@__crt_stdio_output@@V?$format_validation_base@DV?$string_output_adapter@D@__crt_stdio_output@@@2@@__crt_stdio_output@@CAPA_WXZ 1003c8f4 f i libucrt:output.obj
 0001:0003b8fa       ?wide_null_string@?$output_processor@DV?$string_output_adapter@D@__crt_stdio_output@@V?$positional_parameter_base@DV?$string_output_adapter@D@__crt_stdio_output@@@2@@__crt_stdio_output@@CAPA_WXZ 1003c8fa f i libucrt:output.obj
 0001:0003b900       ?wide_null_string@?$output_processor@DV?$string_output_adapter@D@__crt_stdio_output@@V?$standard_base@DV?$string_output_adapter@D@__crt_stdio_output@@@2@@__crt_stdio_output@@CAPA_WXZ 1003c900 f i libucrt:output.obj
 0001:0003b906       ?wide_null_string@?$output_processor@_WV?$stream_output_adapter@_W@__crt_stdio_output@@V?$format_validation_base@_WV?$stream_output_adapter@_W@__crt_stdio_output@@@2@@__crt_stdio_output@@CAPA_WXZ 1003c906 f i libucrt:output.obj
 0001:0003b90c       ?wide_null_string@?$output_processor@_WV?$stream_output_adapter@_W@__crt_stdio_output@@V?$positional_parameter_base@_WV?$stream_output_adapter@_W@__crt_stdio_output@@@2@@__crt_stdio_output@@CAPA_WXZ 1003c90c f i libucrt:output.obj
 0001:0003b912       ?wide_null_string@?$output_processor@_WV?$stream_output_adapter@_W@__crt_stdio_output@@V?$standard_base@_WV?$stream_output_adapter@_W@__crt_stdio_output@@@2@@__crt_stdio_output@@CAPA_WXZ 1003c912 f i libucrt:output.obj
 0001:0003b918       ?wide_null_string@?$output_processor@_WV?$string_output_adapter@_W@__crt_stdio_output@@V?$format_validation_base@_WV?$string_output_adapter@_W@__crt_stdio_output@@@2@@__crt_stdio_output@@CAPA_WXZ 1003c918 f i libucrt:output.obj
 0001:0003b91e       ?wide_null_string@?$output_processor@_WV?$string_output_adapter@_W@__crt_stdio_output@@V?$positional_parameter_base@_WV?$string_output_adapter@_W@__crt_stdio_output@@@2@@__crt_stdio_output@@CAPA_WXZ 1003c91e f i libucrt:output.obj
 0001:0003b924       ?wide_null_string@?$output_processor@_WV?$string_output_adapter@_W@__crt_stdio_output@@V?$standard_base@_WV?$string_output_adapter@_W@__crt_stdio_output@@@2@@__crt_stdio_output@@CAPA_WXZ 1003c924 f i libucrt:output.obj
 0001:0003b92a       ?write_character@?$output_adapter_common@DV?$stream_output_adapter@D@__crt_stdio_output@@@__crt_stdio_output@@QBEXDQAH@Z 1003c92a f i libucrt:output.obj
 0001:0003b950       ?write_character@?$output_adapter_common@_WV?$stream_output_adapter@_W@__crt_stdio_output@@@__crt_stdio_output@@QBEX_WQAH@Z 1003c950 f i libucrt:output.obj
 0001:0003b976       ?write_character@?$string_output_adapter@D@__crt_stdio_output@@QBE_NDQAH@Z 1003c976 f i libucrt:output.obj
 0001:0003b9c8       ?write_character@?$string_output_adapter@_W@__crt_stdio_output@@QBE_N_WQAH@Z 1003c9c8 f i libucrt:output.obj
 0001:0003ba1e       ?write_character_without_count_update@?$stream_output_adapter@D@__crt_stdio_output@@QBE_ND@Z 1003ca1e f i libucrt:output.obj
 0001:0003ba60       ?write_character_without_count_update@?$stream_output_adapter@_W@__crt_stdio_output@@QBE_N_W@Z 1003ca60 f i libucrt:output.obj
 0001:0003baa6       ?write_stored_string_tchar@?$output_processor@DV?$stream_output_adapter@D@__crt_stdio_output@@V?$format_validation_base@DV?$stream_output_adapter@D@__crt_stdio_output@@@2@@__crt_stdio_output@@AAE_ND@Z 1003caa6 f i libucrt:output.obj
 0001:0003bb79       ?write_stored_string_tchar@?$output_processor@DV?$stream_output_adapter@D@__crt_stdio_output@@V?$positional_parameter_base@DV?$stream_output_adapter@D@__crt_stdio_output@@@2@@__crt_stdio_output@@AAE_ND@Z 1003cb79 f i libucrt:output.obj
 0001:0003bc4c       ?write_stored_string_tchar@?$output_processor@DV?$stream_output_adapter@D@__crt_stdio_output@@V?$standard_base@DV?$stream_output_adapter@D@__crt_stdio_output@@@2@@__crt_stdio_output@@AAE_ND@Z 1003cc4c f i libucrt:output.obj
 0001:0003bd1f       ?write_stored_string_tchar@?$output_processor@DV?$string_output_adapter@D@__crt_stdio_output@@V?$format_validation_base@DV?$string_output_adapter@D@__crt_stdio_output@@@2@@__crt_stdio_output@@AAE_ND@Z 1003cd1f f i libucrt:output.obj
 0001:0003bdf2       ?write_stored_string_tchar@?$output_processor@DV?$string_output_adapter@D@__crt_stdio_output@@V?$positional_parameter_base@DV?$string_output_adapter@D@__crt_stdio_output@@@2@@__crt_stdio_output@@AAE_ND@Z 1003cdf2 f i libucrt:output.obj
 0001:0003bec5       ?write_stored_string_tchar@?$output_processor@DV?$string_output_adapter@D@__crt_stdio_output@@V?$standard_base@DV?$string_output_adapter@D@__crt_stdio_output@@@2@@__crt_stdio_output@@AAE_ND@Z 1003cec5 f i libucrt:output.obj
 0001:0003bf98       ?write_stored_string_tchar@?$output_processor@_WV?$stream_output_adapter@_W@__crt_stdio_output@@V?$format_validation_base@_WV?$stream_output_adapter@_W@__crt_stdio_output@@@2@@__crt_stdio_output@@AAE_N_W@Z 1003cf98 f i libucrt:output.obj
 0001:0003c052       ?write_stored_string_tchar@?$output_processor@_WV?$stream_output_adapter@_W@__crt_stdio_output@@V?$positional_parameter_base@_WV?$stream_output_adapter@_W@__crt_stdio_output@@@2@@__crt_stdio_output@@AAE_N_W@Z 1003d052 f i libucrt:output.obj
 0001:0003c10c       ?write_stored_string_tchar@?$output_processor@_WV?$stream_output_adapter@_W@__crt_stdio_output@@V?$standard_base@_WV?$stream_output_adapter@_W@__crt_stdio_output@@@2@@__crt_stdio_output@@AAE_N_W@Z 1003d10c f i libucrt:output.obj
 0001:0003c1c6       ?write_stored_string_tchar@?$output_processor@_WV?$string_output_adapter@_W@__crt_stdio_output@@V?$format_validation_base@_WV?$string_output_adapter@_W@__crt_stdio_output@@@2@@__crt_stdio_output@@AAE_N_W@Z 1003d1c6 f i libucrt:output.obj
 0001:0003c280       ?write_stored_string_tchar@?$output_processor@_WV?$string_output_adapter@_W@__crt_stdio_output@@V?$positional_parameter_base@_WV?$string_output_adapter@_W@__crt_stdio_output@@@2@@__crt_stdio_output@@AAE_N_W@Z 1003d280 f i libucrt:output.obj
 0001:0003c33a       ?write_stored_string_tchar@?$output_processor@_WV?$string_output_adapter@_W@__crt_stdio_output@@V?$standard_base@_WV?$string_output_adapter@_W@__crt_stdio_output@@@2@@__crt_stdio_output@@AAE_N_W@Z 1003d33a f i libucrt:output.obj
 0001:0003c3f4       ?write_string@?$stream_output_adapter@D@__crt_stdio_output@@QBEXQBDHQAHAAV__crt_deferred_errno_cache@@@Z 1003d3f4 f i libucrt:output.obj
 0001:0003c429       ?write_string@?$stream_output_adapter@_W@__crt_stdio_output@@QBEXQB_WHQAHAAV__crt_deferred_errno_cache@@@Z 1003d429 f i libucrt:output.obj
 0001:0003c45e       ?write_string@?$string_output_adapter@D@__crt_stdio_output@@QBEXQBDHQAHAAV__crt_deferred_errno_cache@@@Z 1003d45e f i libucrt:output.obj
 0001:0003c4de       ?write_string@?$string_output_adapter@_W@__crt_stdio_output@@QBEXQB_WHQAHAAV__crt_deferred_errno_cache@@@Z 1003d4de f i libucrt:output.obj
 0001:0003c56d       ?write_string_impl@?$output_adapter_common@DV?$stream_output_adapter@D@__crt_stdio_output@@@__crt_stdio_output@@IBEXQBDHQAHAAV__crt_deferred_errno_cache@@@Z 1003d56d f i libucrt:output.obj
 0001:0003c635       ?write_string_impl@?$output_adapter_common@_WV?$stream_output_adapter@_W@__crt_stdio_output@@@__crt_stdio_output@@IBEXQB_WHQAHAAV__crt_deferred_errno_cache@@@Z 1003d635 f i libucrt:output.obj
 0001:0003c700       ___acrt_isleadbyte_l_noupdate 1003d700 f i libucrt:output.obj
 0001:0003c721       ___stdio_common_vfprintf   1003d721 f   libucrt:output.obj
 0001:0003c7c7       ___stdio_common_vfprintf_p 1003d7c7 f   libucrt:output.obj
 0001:0003c86d       ___stdio_common_vfprintf_s 1003d86d f   libucrt:output.obj
 0001:0003c913       ___stdio_common_vfwprintf  1003d913 f   libucrt:output.obj
 0001:0003c9b9       ___stdio_common_vfwprintf_p 1003d9b9 f   libucrt:output.obj
 0001:0003ca5f       ___stdio_common_vfwprintf_s 1003da5f f   libucrt:output.obj
 0001:0003cb05       ___stdio_common_vsnprintf_s 1003db05 f   libucrt:output.obj
 0001:0003cb35       ___stdio_common_vsnwprintf_s 1003db35 f   libucrt:output.obj
 0001:0003cb65       ___stdio_common_vsprintf   1003db65 f   libucrt:output.obj
 0001:0003cb92       ___stdio_common_vsprintf_p 1003db92 f   libucrt:output.obj
 0001:0003cbbf       ___stdio_common_vsprintf_s 1003dbbf f   libucrt:output.obj
 0001:0003cbec       ___stdio_common_vswprintf  1003dbec f   libucrt:output.obj
 0001:0003cc19       ___stdio_common_vswprintf_p 1003dc19 f   libucrt:output.obj
 0001:0003cc46       ___stdio_common_vswprintf_s 1003dc46 f   libucrt:output.obj
 0001:0003cc73       _ldexp                     1003dc73 f   libucrt:ldexp.obj
 0001:0003ceec       __errcode                  1003deec f   libucrt:fpexcept.obj
 0001:0003cf2d       __except1                  1003df2d f   libucrt:fpexcept.obj
 0001:0003d02e       __except2                  1003e02e f   libucrt:fpexcept.obj
 0001:0003d177       __handle_exc               1003e177 f   libucrt:fpexcept.obj
 0001:0003d3df       __handle_qnan2             1003e3df f   libucrt:fpexcept.obj
 0001:0003d3ef       __raise_exc                1003e3ef f   libucrt:fpexcept.obj
 0001:0003d41a       __raise_exc_ex             1003e41a f   libucrt:fpexcept.obj
 0001:0003d7cd       __raise_excf               1003e7cd f   libucrt:fpexcept.obj
 0001:0003d7f8       __set_errno_from_matherr   1003e7f8 f   libucrt:fpexcept.obj
 0001:0003d832       __umatherr                 1003e832 f   libucrt:fpexcept.obj
 0001:0003d8fc       __initterm                 1003e8fc f   libucrt:initterm.obj
 0001:0003d96f       __initterm_e               1003e96f f   libucrt:initterm.obj
 0001:0003d9f2       __seh_filter_dll           1003e9f2 f   libucrt:exception_filter.obj
 0001:0003da1a       __seh_filter_exe           1003ea1a f   libucrt:exception_filter.obj
 0001:0003dbd9       ??$?RE@__crt_internal_free_policy@@QBEXQBE@Z 1003ebd9 f i libucrt:argv_parsing.obj
 0001:0003dbef       ??$?RPAD@__crt_internal_free_policy@@QBEXQBQAD@Z 1003ebef f i libucrt:argv_parsing.obj
 0001:0003dc05       ??$?RPA_W@__crt_internal_free_policy@@QBEXQBQA_W@Z 1003ec05 f i libucrt:argv_parsing.obj
 0001:0003df1e       ??$get_module_file_name@$$TAAY0BAF@DH@?$__crt_char_traits@D@@SAK$$QA$$TAAY0BAF@D$$QAH@Z 1003ef1e f i libucrt:argv_parsing.obj
 0001:0003df41       ??$get_module_file_name@$$TAAY0BAF@_WH@?$__crt_char_traits@_W@@SAK$$QA$$TAAY0BAF@_W$$QAH@Z 1003ef41 f i libucrt:argv_parsing.obj
 0001:0003e334       ??$set_program_name@PAD@?$__crt_char_traits@D@@SAX$$QAPAD@Z 1003f334 f i libucrt:argv_parsing.obj
 0001:0003e349       ??$set_program_name@PA_W@?$__crt_char_traits@_W@@SAX$$QAPA_W@Z 1003f349 f i libucrt:argv_parsing.obj
 0001:0003e386       ??0?$__crt_unique_heap_ptr@EU__crt_internal_free_policy@@@@QAE@QAE@Z 1003f386 f i libucrt:argv_parsing.obj
 0001:0003e39a       ??0?$__crt_unique_heap_ptr@PADU__crt_internal_free_policy@@@@QAE@QAPAD@Z 1003f39a f i libucrt:argv_parsing.obj
 0001:0003e3ae       ??0?$__crt_unique_heap_ptr@PA_WU__crt_internal_free_policy@@@@QAE@QAPA_W@Z 1003f3ae f i libucrt:argv_parsing.obj
 0001:0003e3c2       ??1?$__crt_unique_heap_ptr@EU__crt_internal_free_policy@@@@QAE@XZ 1003f3c2 f i libucrt:argv_parsing.obj
 0001:0003e3d8       ??1?$__crt_unique_heap_ptr@PADU__crt_internal_free_policy@@@@QAE@XZ 1003f3d8 f i libucrt:argv_parsing.obj
 0001:0003e3ee       ??1?$__crt_unique_heap_ptr@PA_WU__crt_internal_free_policy@@@@QAE@XZ 1003f3ee f i libucrt:argv_parsing.obj
 0001:0003e404       ??B?$__crt_unique_heap_ptr@EU__crt_internal_free_policy@@@@QBE_NXZ 1003f404 f i libucrt:argv_parsing.obj
 0001:0003e441       ?detach@?$__crt_unique_heap_ptr@EU__crt_internal_free_policy@@@@QAEPAEXZ 1003f441 f i libucrt:argv_parsing.obj
 0001:0003e447       ?detach@?$__crt_unique_heap_ptr@PADU__crt_internal_free_policy@@@@QAEPAPADXZ 1003f447 f i libucrt:argv_parsing.obj
 0001:0003e44d       ?detach@?$__crt_unique_heap_ptr@PA_WU__crt_internal_free_policy@@@@QAEPAPA_WXZ 1003f44d f i libucrt:argv_parsing.obj
 0001:0003e473       ?get@?$__crt_unique_heap_ptr@EU__crt_internal_free_policy@@@@QBEPAEXZ 1003f473 f i libucrt:argv_parsing.obj
 0001:0003e476       ?get@?$__crt_unique_heap_ptr@PADU__crt_internal_free_policy@@@@QBEPAPADXZ 1003f476 f i libucrt:argv_parsing.obj
 0001:0003e479       ?get@?$__crt_unique_heap_ptr@PA_WU__crt_internal_free_policy@@@@QBEPAPA_WXZ 1003f479 f i libucrt:argv_parsing.obj
 0001:0003e47c       ?get_address_of@?$__crt_unique_heap_ptr@PADU__crt_internal_free_policy@@@@QAEPAPAPADXZ 1003f47c f i libucrt:argv_parsing.obj
 0001:0003e47f       ?get_address_of@?$__crt_unique_heap_ptr@PA_WU__crt_internal_free_policy@@@@QAEPAPAPA_WXZ 1003f47f f i libucrt:argv_parsing.obj
 0001:0003e49a       ?is_valid@?$__crt_unique_heap_ptr@EU__crt_internal_free_policy@@@@QBE_NXZ 1003f49a f i libucrt:argv_parsing.obj
 0001:0003e4a1       ?release@?$__crt_unique_heap_ptr@EU__crt_internal_free_policy@@@@QAEXXZ 1003f4a1 f i libucrt:argv_parsing.obj
 0001:0003e4b7       ?release@?$__crt_unique_heap_ptr@PADU__crt_internal_free_policy@@@@QAEXXZ 1003f4b7 f i libucrt:argv_parsing.obj
 0001:0003e4cd       ?release@?$__crt_unique_heap_ptr@PA_WU__crt_internal_free_policy@@@@QAEXXZ 1003f4cd f i libucrt:argv_parsing.obj
 0001:0003e502       ___acrt_allocate_buffer_for_argv 1003f502 f   libucrt:argv_parsing.obj
 0001:0003e564       __configure_narrow_argv    1003f564 f   libucrt:argv_parsing.obj
 0001:0003e571       __configure_wide_argv      1003f571 f   libucrt:argv_parsing.obj
 0001:0003e57e       __set_pgmptr               1003f57e f i libucrt:argv_parsing.obj
 0001:0003e590       __set_wpgmptr              1003f590 f i libucrt:argv_parsing.obj
 0001:0003e5a2       ??$?R_W@__crt_internal_free_policy@@QBEXQB_W@Z 1003f5a2 f i libucrt:environment_initialization.obj
 0001:0003ea88       ??$get_environment_from_os@$$V@?$__crt_char_traits@D@@SAPADXZ 1003fa88 f i libucrt:environment_initialization.obj
 0001:0003ea8d       ??$get_environment_from_os@$$V@?$__crt_char_traits@_W@@SAPA_WXZ 1003fa8d f i libucrt:environment_initialization.obj
 0001:0003ebde       ??$set_variable_in_environment_nolock@PADH@?$__crt_char_traits@D@@SAH$$QAPAD$$QAH@Z 1003fbde f i libucrt:environment_initialization.obj
 0001:0003ebfc       ??$set_variable_in_environment_nolock@PA_WH@?$__crt_char_traits@_W@@SAH$$QAPA_W$$QAH@Z 1003fbfc f i libucrt:environment_initialization.obj
 0001:0003ec1a       ??$tcscpy_s@PADABIAAPAD@?$__crt_char_traits@D@@SAH$$QAPADABIAAPAD@Z 1003fc1a f i libucrt:environment_initialization.obj
 0001:0003ec3f       ??$tcscpy_s@PA_WABIAAPA_W@?$__crt_char_traits@_W@@SAH$$QAPA_WABIAAPA_W@Z 1003fc3f f i libucrt:environment_initialization.obj
 0001:0003ec64       ??$tcslen@AAPAD@?$__crt_char_traits@D@@SAIAAPAD@Z 1003fc64 f i libucrt:environment_initialization.obj
 0001:0003ec82       ??$tcslen@AAPA_W@?$__crt_char_traits@_W@@SAIAAPA_W@Z 1003fc82 f i libucrt:environment_initialization.obj
 0001:0003eca7       ??$uninitialize@A6AXAAPAPAD@Z@?$dual_state_global@PAPAD@__crt_state_management@@QAEXA6AXAAPAPAD@Z@Z 1003fca7 f i libucrt:environment_initialization.obj
 0001:0003ecf7       ??$uninitialize@A6AXAAPAPA_W@Z@?$dual_state_global@PAPA_W@__crt_state_management@@QAEXA6AXAAPAPA_W@Z@Z 1003fcf7 f i libucrt:environment_initialization.obj
 0001:0003ed89       ??0?$__crt_unique_heap_ptr@_WU__crt_internal_free_policy@@@@QAE@QA_W@Z 1003fd89 f i libucrt:environment_initialization.obj
 0001:0003ed9d       ??1?$__crt_unique_heap_ptr@_WU__crt_internal_free_policy@@@@QAE@XZ 1003fd9d f i libucrt:environment_initialization.obj
 0001:0003edb3       ??B?$__crt_unique_heap_ptr@PADU__crt_internal_free_policy@@@@QBE_NXZ 1003fdb3 f i libucrt:environment_initialization.obj
 0001:0003edba       ??B?$__crt_unique_heap_ptr@PA_WU__crt_internal_free_policy@@@@QBE_NXZ 1003fdba f i libucrt:environment_initialization.obj
 0001:0003edc1       ??B?$__crt_unique_heap_ptr@_WU__crt_internal_free_policy@@@@QBE_NXZ 1003fdc1 f i libucrt:environment_initialization.obj
 0001:0003edc8       ?__crt_compute_required_transform_buffer_count@@YAIIQBD@Z 1003fdc8 f i libucrt:environment_initialization.obj
 0001:0003edeb       ?__crt_compute_required_transform_buffer_count@@YAIIQB_W@Z 1003fdeb f i libucrt:environment_initialization.obj
 0001:0003ee10       ?__crt_transform_string@@YAIIQBDQA_WI@Z 1003fe10 f i libucrt:environment_initialization.obj
 0001:0003ee36       ?__crt_transform_string@@YAIIQB_WQADI@Z 1003fe36 f i libucrt:environment_initialization.obj
 0001:0003ee60       ?detach@?$__crt_unique_heap_ptr@DU__crt_internal_free_policy@@@@QAEPADXZ 1003fe60 f i libucrt:environment_initialization.obj
 0001:0003ee66       ?detach@?$__crt_unique_heap_ptr@_WU__crt_internal_free_policy@@@@QAEPA_WXZ 1003fe66 f i libucrt:environment_initialization.obj
 0001:0003ee6c       ?get@?$__crt_unique_heap_ptr@_WU__crt_internal_free_policy@@@@QBEPA_WXZ 1003fe6c f i libucrt:environment_initialization.obj
 0001:0003ee6f       ?get_current_state_index@__crt_state_management@@YAIXZ 1003fe6f f i libucrt:environment_initialization.obj
 0001:0003ee96       ?initialize@?$dual_state_global@PAPAD@__crt_state_management@@QAEXQAPAD@Z 1003fe96 f i libucrt:environment_initialization.obj
 0001:0003eec5       ?initialize@?$dual_state_global@PAPA_W@__crt_state_management@@QAEXQAPA_W@Z 1003fec5 f i libucrt:environment_initialization.obj
 0001:0003eef4       ?is_valid@?$__crt_unique_heap_ptr@PADU__crt_internal_free_policy@@@@QBE_NXZ 1003fef4 f i libucrt:environment_initialization.obj
 0001:0003eefb       ?is_valid@?$__crt_unique_heap_ptr@PA_WU__crt_internal_free_policy@@@@QBE_NXZ 1003fefb f i libucrt:environment_initialization.obj
 0001:0003ef02       ?is_valid@?$__crt_unique_heap_ptr@_WU__crt_internal_free_policy@@@@QBE_NXZ 1003ff02 f i libucrt:environment_initialization.obj
 0001:0003ef0f       ?release@?$__crt_unique_heap_ptr@_WU__crt_internal_free_policy@@@@QAEXXZ 1003ff0f f i libucrt:environment_initialization.obj
 0001:0003ef25       ?value@?$dual_state_global@PAPAD@__crt_state_management@@QAEAAPAPADXZ 1003ff25 f i libucrt:environment_initialization.obj
 0001:0003ef28       ?value@?$dual_state_global@PAPA_W@__crt_state_management@@QAEAAPAPA_WXZ 1003ff28 f i libucrt:environment_initialization.obj
 0001:0003ef2b       ___dcrt_get_or_create_narrow_environment_nolock 1003ff2b f   libucrt:environment_initialization.obj
 0001:0003ef30       ___dcrt_get_or_create_wide_environment_nolock 1003ff30 f   libucrt:environment_initialization.obj
 0001:0003ef35       ___dcrt_uninitialize_environments_nolock 1003ff35 f   libucrt:environment_initialization.obj
 0001:0003ef79       ___p__environ              1003ff79 f   libucrt:environment_initialization.obj
 0001:0003ef7f       ___p__wenviron             1003ff7f f   libucrt:environment_initialization.obj
 0001:0003ef85       __get_initial_narrow_environment 1003ff85 f   libucrt:environment_initialization.obj
 0001:0003ef9e       __get_initial_wide_environment 1003ff9e f   libucrt:environment_initialization.obj
 0001:0003efb7       __initialize_narrow_environment 1003ffb7 f   libucrt:environment_initialization.obj
 0001:0003efbc       __initialize_wide_environment 1003ffbc f   libucrt:environment_initialization.obj
 0001:0003efc1       ??$?BP6AXXZ@__crt_fast_encoded_nullptr_t@@QBEPAP6AXXZXZ 1003ffc1 f i libucrt:onexit.obj
 0001:0003efdf       ??$?RP6AXXZ@__crt_internal_free_policy@@QBEXQBQ6AXXZ@Z 1003ffdf f i libucrt:onexit.obj
 0001:0003f123       ??$__crt_fast_encode_pointer@P6AHXZ@@YAP6AHXZQ6AHXZ@Z 10040123 f i libucrt:onexit.obj
 0001:0003f1d0       ??0?$__crt_unique_heap_ptr@P6AXXZU__crt_internal_free_policy@@@@QAE@QAP6AXXZ@Z 100401d0 f i libucrt:onexit.obj
 0001:0003f1e4       ??1?$__crt_unique_heap_ptr@P6AXXZU__crt_internal_free_policy@@@@QAE@XZ 100401e4 f i libucrt:onexit.obj
 0001:0003f1fa       ??1scoped_global_state_reset@__crt_state_management@@QAE@XZ 100401fa f i libucrt:onexit.obj
 0001:0003f525       ?detach@?$__crt_unique_heap_ptr@P6AXXZU__crt_internal_free_policy@@@@QAEPAP6AXXZXZ 10040525 f i libucrt:onexit.obj
 0001:0003f52b       ?release@?$__crt_unique_heap_ptr@P6AXXZU__crt_internal_free_policy@@@@QAEXXZ 1004052b f i libucrt:onexit.obj
 0001:0003f541       __crt_at_quick_exit        10040541 f   libucrt:onexit.obj
 0001:0003f55c       __crt_atexit               1004055c f   libucrt:onexit.obj
 0001:0003f577       __execute_onexit_table     10040577 f   libucrt:onexit.obj
 0001:0003f5b1       __initialize_onexit_table  100405b1 f   libucrt:onexit.obj
 0001:0003f5fd       __register_onexit_function 100405fd f   libucrt:onexit.obj
 0001:0003f7c8       ?__acrt_stdio_is_initialized@@YA_NXZ 100407c8 f i libucrt:initialization.obj
 0001:0003f7d5       ?initialize@?$dual_state_global@PAU__crt_locale_data@@@__crt_state_management@@QAEXQAU__crt_locale_data@@@Z 100407d5 f i libucrt:initialization.obj
 0001:0003f804       ___acrt_initialize         10040804 f   libucrt:initialization.obj
 0001:0003f81a       ___acrt_thread_attach      1004081a f   libucrt:initialization.obj
 0001:0003f827       ___acrt_thread_detach      10040827 f   libucrt:initialization.obj
 0001:0003f831       ___acrt_uninitialize       10040831 f   libucrt:initialization.obj
 0001:0003f86d       ___acrt_uninitialize_critical 1004086d f   libucrt:initialization.obj
 0001:0003f89e       __get_terminate            1004089e f   libucrt:terminate.obj
 0001:0003f8b4       _set_terminate             100408b4 f   libucrt:terminate.obj
 0001:0003f8dc       _terminate                 100408dc f   libucrt:terminate.obj
 0001:0003f997       _strcpy_s                  10040997 f   libucrt:strcpy_s.obj
 0001:0003fa07       ??$is_overflow_condition@K@__crt_strtox@@YA_NIK@Z 10040a07 f i libucrt:atox.obj
 0001:0003fa44       ??$is_overflow_condition@_K@__crt_strtox@@YA_NI_K@Z 10040a44 f i libucrt:atox.obj
 0001:0003fa95       ??$make_c_string_character_source@D$$T@__crt_strtox@@YA?AV?$c_string_character_source@D@0@QBD$$T@Z 10040a95 f i libucrt:atox.obj
 0001:0003fab6       ??$make_c_string_character_source@_W$$T@__crt_strtox@@YA?AV?$c_string_character_source@_W@0@QB_W$$T@Z 10040ab6 f i libucrt:atox.obj
 0001:0003fad7       ??$parse_integer@KV?$c_string_character_source@D@__crt_strtox@@@__crt_strtox@@YAKQAU__crt_locale_pointers@@V?$c_string_character_source@D@0@H_N@Z 10040ad7 f i libucrt:atox.obj
 0001:0003fd8a       ??$parse_integer@KV?$c_string_character_source@_W@__crt_strtox@@@__crt_strtox@@YAKQAU__crt_locale_pointers@@V?$c_string_character_source@_W@0@H_N@Z 10040d8a f i libucrt:atox.obj
 0001:0004055b       ??$parse_integer@_KV?$c_string_character_source@D@__crt_strtox@@@__crt_strtox@@YA_KQAU__crt_locale_pointers@@V?$c_string_character_source@D@0@H_N@Z 1004155b f i libucrt:atox.obj
 0001:000408ab       ??$parse_integer@_KV?$c_string_character_source@_W@__crt_strtox@@@__crt_strtox@@YA_KQAU__crt_locale_pointers@@V?$c_string_character_source@_W@0@H_N@Z 100418ab f i libucrt:atox.obj
 0001:00041178       ??$parse_integer_from_string@JD$$T@__crt_strtox@@YAJQBD$$THQAU__crt_locale_pointers@@@Z 10042178 f i libucrt:atox.obj
 0001:000411b0       ??$parse_integer_from_string@J_W$$T@__crt_strtox@@YAJQB_W$$THQAU__crt_locale_pointers@@@Z 100421b0 f i libucrt:atox.obj
 0001:000411e8       ??$parse_integer_from_string@_JD$$T@__crt_strtox@@YA_JQBD$$THQAU__crt_locale_pointers@@@Z 100421e8 f i libucrt:atox.obj
 0001:00041220       ??$parse_integer_from_string@_J_W$$T@__crt_strtox@@YA_JQB_W$$THQAU__crt_locale_pointers@@@Z 10042220 f i libucrt:atox.obj
 0001:00041258       ??0?$c_string_character_source@D@__crt_strtox@@QAE@QBDQAPBD@Z 10042258 f i libucrt:atox.obj
 0001:0004127b       ??0?$c_string_character_source@_W@__crt_strtox@@QAE@QB_WQAPB_W@Z 1004227b f i libucrt:atox.obj
 0001:0004129e       ??1?$c_string_character_source@D@__crt_strtox@@QAE@XZ 1004229e f i libucrt:atox.obj
 0001:000412ad       ??1?$c_string_character_source@_W@__crt_strtox@@QAE@XZ 100422ad f i libucrt:atox.obj
 0001:000412bc       ?get@?$c_string_character_source@D@__crt_strtox@@QAEDXZ 100422bc f i libucrt:atox.obj
 0001:000412c6       ?get@?$c_string_character_source@_W@__crt_strtox@@QAE_WXZ 100422c6 f i libucrt:atox.obj
 0001:000412d3       ?is_space@__crt_strtox@@YA_NDQAU__crt_locale_pointers@@@Z 100422d3 f i libucrt:atox.obj
 0001:000412f8       ?is_space@__crt_strtox@@YA_N_WPAU__crt_locale_pointers@@@Z 100422f8 f i libucrt:atox.obj
 0001:00041316       ?maximum_signed_value@__crt_strtox@@YAJK@Z 10042316 f i libucrt:atox.obj
 0001:0004131c       ?maximum_signed_value@__crt_strtox@@YA_J_K@Z 1004231c f i libucrt:atox.obj
 0001:00041327       ?minimum_signed_value@__crt_strtox@@YAJK@Z 10042327 f i libucrt:atox.obj
 0001:0004132d       ?minimum_signed_value@__crt_strtox@@YA_J_K@Z 1004232d f i libucrt:atox.obj
 0001:00041337       ?parse_digit@__crt_strtox@@YAID@Z 10042337 f i libucrt:atox.obj
 0001:0004137f       ?parse_digit@__crt_strtox@@YAI_W@Z 1004237f f i libucrt:atox.obj
 0001:000415f0       ?restore_state@?$c_string_character_source@D@__crt_strtox@@QAE_NQBD@Z 100425f0 f i libucrt:atox.obj
 0001:00041604       ?restore_state@?$c_string_character_source@_W@__crt_strtox@@QAE_NQB_W@Z 10042604 f i libucrt:atox.obj
 0001:00041618       ?save_state@?$c_string_character_source@D@__crt_strtox@@QBEPBDXZ 10042618 f i libucrt:atox.obj
 0001:0004161b       ?save_state@?$c_string_character_source@_W@__crt_strtox@@QBEPB_WXZ 1004261b f i libucrt:atox.obj
 0001:0004161e       ?unget@?$c_string_character_source@D@__crt_strtox@@QAEXD@Z 1004261e f i libucrt:atox.obj
 0001:00041651       ?unget@?$c_string_character_source@_W@__crt_strtox@@QAEX_W@Z 10042651 f i libucrt:atox.obj
 0001:0004168a       ?validate@?$c_string_character_source@D@__crt_strtox@@QBE_NXZ 1004268a f i libucrt:atox.obj
 0001:000416ab       ?validate@?$c_string_character_source@_W@__crt_strtox@@QBE_NXZ 100426ab f i libucrt:atox.obj
 0001:000416cc       ?wide_character_to_digit@__crt_strtox@@YAH_W@Z 100426cc f i libucrt:atox.obj
 0001:000418d5       ___acrt_get_locale_data_prefix 100428d5 f i libucrt:atox.obj
 0001:000418e4       __atoi64                   100428e4 f   libucrt:atox.obj
 0001:00041912       __atoi64_l                 10042912 f   libucrt:atox.obj
 0001:00041941       __atoi_l                   10042941 f   libucrt:atox.obj
 0001:00041970       __atol_l                   10042970 f   libucrt:atox.obj
 0001:0004199f       __atoll_l                  1004299f f   libucrt:atox.obj
 0001:000419ce       __chvalidchk_l             100429ce f i libucrt:atox.obj
 0001:000419fd       __ischartype_l             100429fd f i libucrt:atox.obj
 0001:00041a3c       __wtoi                     10042a3c f   libucrt:atox.obj
 0001:00041a6a       __wtoi64                   10042a6a f   libucrt:atox.obj
 0001:00041a98       __wtoi64_l                 10042a98 f   libucrt:atox.obj
 0001:00041ac7       __wtoi_l                   10042ac7 f   libucrt:atox.obj
 0001:00041af6       __wtol                     10042af6 f   libucrt:atox.obj
 0001:00041b24       __wtol_l                   10042b24 f   libucrt:atox.obj
 0001:00041b53       __wtoll                    10042b53 f   libucrt:atox.obj
 0001:00041b81       __wtoll_l                  10042b81 f   libucrt:atox.obj
 0001:00041bb0       _atoi                      10042bb0 f   libucrt:atox.obj
 0001:00041bde       _atol                      10042bde f   libucrt:atox.obj
 0001:00041c0c       _atoll                     10042c0c f   libucrt:atox.obj
 0001:00041c40       _strncmp                   10042c40 f   libucrt:strncmp.obj
 0001:00041cd6       __set_abort_behavior       10042cd6 f   libucrt:abort.obj
 0001:00041cff       _abort                     10042cff f   libucrt:abort.obj
 0001:00041d54       _wcsncmp                   10042d54 f   libucrt:wcsncmp.obj
 0001:00041d9c       __malloc_base              10042d9c f   libucrt:malloc_base.obj
 0001:00041dfd       __calloc_base              10042dfd f   libucrt:calloc_base.obj
 0001:00041e77       __free_base                10042e77 f   libucrt:free_base.obj
 0001:00041ebf       ??$__crt_fast_decode_pointer@P6AXPB_W00II@Z@@YAP6AXPB_W00II@ZQ6AX000II@Z@Z 10042ebf f i libucrt:invalid_parameter.obj
 0001:00041eda       ??$__crt_fast_encode_pointer@P6AXPB_W00II@Z@@YAP6AXPB_W00II@ZQ6AX000II@Z@Z 10042eda f i libucrt:invalid_parameter.obj
 0001:00041f00       ??$initialize_from_array@$$BY00Q6AXPB_W00II@Z@?$dual_state_global@P6AXPB_W00II@Z@__crt_state_management@@QAAXAAY00Q6AXPB_W00II@Z@Z 10042f00 f i libucrt:invalid_parameter.obj
 0001:00041f15       ?dangerous_get_state_array@?$dual_state_global@P6AXPB_W00II@Z@__crt_state_management@@QAEPAP6AXPB_W00II@ZXZ 10042f15 f i libucrt:invalid_parameter.obj
 0001:00041f18       ?value@?$dual_state_global@P6AXPB_W00II@Z@__crt_state_management@@QAEAAP6AXPB_W00II@ZXZ 10042f18 f i libucrt:invalid_parameter.obj
 0001:00041f1b       ___acrt_call_reportfault   10042f1b f   libucrt:invalid_parameter.obj
 0001:000420a4       ___acrt_initialize_invalid_parameter_handler 100430a4 f   libucrt:invalid_parameter.obj
 0001:000420b6       __get_invalid_parameter_handler 100430b6 f   libucrt:invalid_parameter.obj
 0001:000420cd       __get_thread_local_invalid_parameter_handler 100430cd f   libucrt:invalid_parameter.obj
 0001:000420e2       __invalid_parameter        100430e2 f   libucrt:invalid_parameter.obj
 0001:0004217b       __invalid_parameter_noinfo 1004317b f   libucrt:invalid_parameter.obj
 0001:0004218f       __invalid_parameter_noinfo_noreturn 1004318f f   libucrt:invalid_parameter.obj
 0001:000421b3       __invoke_watson            100431b3 f   libucrt:invalid_parameter.obj
 0001:000421f4       __set_invalid_parameter_handler 100431f4 f   libucrt:invalid_parameter.obj
 0001:00042230       __set_thread_local_invalid_parameter_handler 10043230 f   libucrt:invalid_parameter.obj
 0001:0004231b       ___acrt_report_runtime_error 1004331b f   libucrt:report_runtime_error.obj
 0001:00042475       __query_app_type           10043475 f   libucrt:report_runtime_error.obj
 0001:0004247b       __set_app_type             1004347b f   libucrt:report_runtime_error.obj
 0001:0004248d       ___acrt_errno_from_os_error 1004348d f   libucrt:errno.obj
 0001:000424e0       ___acrt_errno_map_os_error 100434e0 f   libucrt:errno.obj
 0001:0004250b       ___doserrno                1004350b f   libucrt:errno.obj
 0001:00042522       __errno                    10043522 f   libucrt:errno.obj
 0001:00042539       __get_doserrno             10043539 f   libucrt:errno.obj
 0001:00042567       __get_errno                10043567 f   libucrt:errno.obj
 0001:00042595       __set_doserrno             10043595 f   libucrt:errno.obj
 0001:000425be       __set_errno                100435be f   libucrt:errno.obj
 0001:00042bec       __i64toa                   10043bec f   libucrt:xtoa.obj
 0001:00042c3f       __i64toa_s                 10043c3f f   libucrt:xtoa.obj
 0001:00042c90       __i64tow                   10043c90 f   libucrt:xtoa.obj
 0001:00042ce3       __i64tow_s                 10043ce3 f   libucrt:xtoa.obj
 0001:00042d34       __itoa                     10043d34 f   libucrt:xtoa.obj
 0001:00042d78       __itoa_s                   10043d78 f   libucrt:xtoa.obj
 0001:00042dba       __itow                     10043dba f   libucrt:xtoa.obj
 0001:00042dfe       __itow_s                   10043dfe f   libucrt:xtoa.obj
 0001:00042e40       __ltoa                     10043e40 f   libucrt:xtoa.obj
 0001:00042e84       __ltoa_s                   10043e84 f   libucrt:xtoa.obj
 0001:00042ec6       __ltow                     10043ec6 f   libucrt:xtoa.obj
 0001:00042f0a       __ltow_s                   10043f0a f   libucrt:xtoa.obj
 0001:00042f4c       __ui64toa                  10043f4c f   libucrt:xtoa.obj
 0001:00042f76       __ui64toa_s                10043f76 f   libucrt:xtoa.obj
 0001:00042f9e       __ui64tow                  10043f9e f   libucrt:xtoa.obj
 0001:00042fc8       __ui64tow_s                10043fc8 f   libucrt:xtoa.obj
 0001:00042ff0       __ultoa                    10043ff0 f   libucrt:xtoa.obj
 0001:00043016       __ultoa_s                  10044016 f   libucrt:xtoa.obj
 0001:0004303a       __ultow                    1004403a f   libucrt:xtoa.obj
 0001:00043060       __ultow_s                  10044060 f   libucrt:xtoa.obj
 0001:00043084       __set_error_mode           10044084 f   libucrt:set_error_mode.obj
 0001:00043160       _wcscat_s                  10044160 f   libucrt:wcscat_s.obj
 0001:0004326a       _wcscpy_s                  1004426a f   libucrt:wcscpy_s.obj
 0001:0004340a       _wcsncat_s                 1004440a f   libucrt:wcsncat_s.obj
 0001:0004349a       _strcat_s                  1004449a f   libucrt:strcat_s.obj
 0001:00043621       _strncat_s                 10044621 f   libucrt:strncat_s.obj
 0001:0004362e       ___acrt_GetModuleFileNameA 1004462e f   libucrt:getmodulefilenamea.obj
 0001:000437e6       ??$message_box@$$TABQBDABQBDK@?$__crt_char_traits@D@@SAH$$QA$$TABQBD1$$QAK@Z 100447e6 f i libucrt:crtmbox.obj
 0001:0004380e       ??$message_box@$$TABQB_WABQB_WK@?$__crt_char_traits@_W@@SAH$$QA$$TABQB_W1$$QAK@Z 1004480e f i libucrt:crtmbox.obj
 0001:00043836       ??$message_box@PAUHWND__@@ABQBDABQBDABI@?$__crt_char_traits@D@@SAH$$QAPAUHWND__@@ABQBD1ABI@Z 10044836 f i libucrt:crtmbox.obj
 0001:0004385e       ??$message_box@PAUHWND__@@ABQB_WABQB_WABI@?$__crt_char_traits@_W@@SAH$$QAPAUHWND__@@ABQB_W1ABI@Z 1004485e f i libucrt:crtmbox.obj
 0001:00043886       ??$output_debug_string@ABQBD@?$__crt_char_traits@D@@SAXABQBD@Z 10044886 f i libucrt:crtmbox.obj
 0001:0004389b       ??$output_debug_string@ABQB_W@?$__crt_char_traits@_W@@SAXABQB_W@Z 1004489b f i libucrt:crtmbox.obj
 0001:000438b1       ___acrt_show_narrow_message_box 100448b1 f   libucrt:crtmbox.obj
 0001:000438be       ___acrt_show_wide_message_box 100448be f   libucrt:crtmbox.obj
 0001:00043c1c       ??0__crt_stdio_stream@@QAE@QAU__crt_stdio_stream_data@@@Z 10044c1c f i libucrt:fflush.obj
 0001:00043e85       ___acrt_stdio_flush_nolock 10044e85 f   libucrt:fflush.obj
 0001:00043f00       __fflush_nolock            10044f00 f   libucrt:fflush.obj
 0001:00043f58       __flushall                 10044f58 f   libucrt:fflush.obj
 0001:00043f63       _fflush                    10044f63 f   libucrt:fflush.obj
 0001:000441ce       _setvbuf                   100451ce f   libucrt:setvbuf.obj
 0001:00044273       ??$?B$$A6AXH@Z@__crt_fast_encoded_nullptr_t@@QBEP6AXH@ZXZ 10045273 f i libucrt:signal.obj
 0001:00044333       ??$__crt_fast_decode_pointer@P6AXH@Z@@YAP6AXH@ZQ6AXH@Z@Z 10045333 f i libucrt:signal.obj
 0001:0004434e       ??$__crt_fast_encode_pointer@P6AXH@Z@@YAP6AXH@ZQ6AXH@Z@Z 1004534e f i libucrt:signal.obj
 0001:000444f8       ?initialize@?$dual_state_global@P6AXH@Z@__crt_state_management@@QAEXQ6AXH@Z@Z 100454f8 f i libucrt:signal.obj
 0001:000445d6       ?value@?$dual_state_global@P6AXH@Z@__crt_state_management@@QAEAAP6AXH@ZXZ 100455d6 f i libucrt:signal.obj
 0001:000445d9       ___acrt_get_sigabrt_handler 100455d9 f   libucrt:signal.obj
 0001:0004460c       ___acrt_initialize_signal_handlers 1004560c f   libucrt:signal.obj
 0001:00044631       ___fpecode                 10045631 f   libucrt:signal.obj
 0001:0004463c       ___pxcptinfoptrs           1004563c f   libucrt:signal.obj
 0001:00044647       _raise                     10045647 f   libucrt:signal.obj
 0001:000448c9       _signal                    100458c9 f   libucrt:signal.obj
 0001:00044ae6       __realloc_base             10045ae6 f   libucrt:realloc_base.obj
 0001:00044b69       ___acrt_initialize_locks   10045b69 f   libucrt:locks.obj
 0001:00044bba       ___acrt_lock               10045bba f   libucrt:locks.obj
 0001:00044bd6       ___acrt_uninitialize_locks 10045bd6 f   libucrt:locks.obj
 0001:00044c13       ___acrt_unlock             10045c13 f   libucrt:locks.obj
 0001:00044c2f       __lock_locales             10045c2f f   libucrt:locks.obj
 0001:00044c40       __unlock_locales           10045c40 f   libucrt:locks.obj
 0001:00044e5e       ___acrt_get_begin_thread_init_policy 10045e5e f   libucrt:win_policies.obj
 0001:00044eb4       ___acrt_get_developer_information_policy 10045eb4 f   libucrt:win_policies.obj
 0001:00044f0a       ___acrt_get_process_end_policy 10045f0a f   libucrt:win_policies.obj
 0001:00044f49       ___acrt_get_windowing_model_policy 10045f49 f   libucrt:win_policies.obj
 0001:00044fcd       ??$?B$$A6GHPA_WKJ@Z@__crt_fast_encoded_nullptr_t@@QBEP6GHPA_WKJ@ZXZ 10045fcd f i libucrt:winapi_thunks.obj
 0001:000450c7       ??$__crt_fast_decode_pointer@P6GHPA_WKJ@Z@@YAP6GHPA_WKJ@ZQ6GH0KJ@Z@Z 100460c7 f i libucrt:winapi_thunks.obj
 0001:000450e2       ??$__crt_fast_encode_pointer@P6GHPA_WKJ@Z@@YAP6GHPA_WKJ@ZQ6GH0KJ@Z@Z 100460e2 f i libucrt:winapi_thunks.obj
 0001:00045941       _GetCurrentThreadEffectiveToken 10046941 f i libucrt:winapi_thunks.obj
 0001:00045945       ___acrt_AppPolicyGetProcessTerminationMethodInternal@4 10046945 f   libucrt:winapi_thunks.obj
 0001:000459b1       ___acrt_AppPolicyGetShowDeveloperDiagnosticInternal@4 100469b1 f   libucrt:winapi_thunks.obj
 0001:00045a1d       ___acrt_AppPolicyGetThreadInitializationTypeInternal@4 10046a1d f   libucrt:winapi_thunks.obj
 0001:00045a89       ___acrt_AppPolicyGetWindowingModelInternal@4 10046a89 f   libucrt:winapi_thunks.obj
 0001:00045af5       ___acrt_AreFileApisANSI@0  10046af5 f   libucrt:winapi_thunks.obj
 0001:00045b3d       ___acrt_CompareStringEx@36 10046b3d f   libucrt:winapi_thunks.obj
 0001:00045bce       ___acrt_EnumSystemLocalesEx@16 10046bce f   libucrt:winapi_thunks.obj
 0001:00045c52       ___acrt_FlsAlloc@4         10046c52 f   libucrt:winapi_thunks.obj
 0001:00045cbd       ___acrt_FlsFree@4          10046cbd f   libucrt:winapi_thunks.obj
 0001:00045d28       ___acrt_FlsGetValue@4      10046d28 f   libucrt:winapi_thunks.obj
 0001:00045d93       ___acrt_FlsSetValue@8      10046d93 f   libucrt:winapi_thunks.obj
 0001:00045e02       ___acrt_GetDateFormatEx@28 10046e02 f   libucrt:winapi_thunks.obj
 0001:00045e8b       ___acrt_GetEnabledXStateFeatures@0 10046e8b f   libucrt:winapi_thunks.obj
 0001:00045eed       ___acrt_GetLocaleInfoEx@16 10046eed f   libucrt:winapi_thunks.obj
 0001:00045f58       ___acrt_GetSystemTimePreciseAsFileTime@4 10046f58 f   libucrt:winapi_thunks.obj
 0001:00045fc3       ___acrt_GetTimeFormatEx@24 10046fc3 f   libucrt:winapi_thunks.obj
 0001:00046036       ___acrt_GetUserDefaultLocaleName@8 10047036 f   libucrt:winapi_thunks.obj
 0001:0004609d       ___acrt_GetXStateFeaturesMask@8 1004709d f   libucrt:winapi_thunks.obj
 0001:00046109       ___acrt_InitializeCriticalSectionEx@12 10047109 f   libucrt:winapi_thunks.obj
 0001:00046183       ___acrt_IsValidLocaleName@4 10047183 f   libucrt:winapi_thunks.obj
 0001:000461e5       ___acrt_LCIDToLocaleName@16 100471e5 f   libucrt:winapi_thunks.obj
 0001:00046250       ___acrt_LCMapStringEx@36   10047250 f   libucrt:winapi_thunks.obj
 0001:000462e1       ___acrt_LocaleNameToLCID@8 100472e1 f   libucrt:winapi_thunks.obj
 0001:0004633b       ___acrt_LocateXStateFeature@12 1004733b f   libucrt:winapi_thunks.obj
 0001:00046392       ___acrt_MessageBoxA@16     10047392 f   libucrt:winapi_thunks.obj
 0001:000463ed       ___acrt_MessageBoxW@16     100473ed f   libucrt:winapi_thunks.obj
 0001:00046448       ___acrt_RoInitialize@4     10047448 f   libucrt:winapi_thunks.obj
 0001:000464ae       ___acrt_RoUninitialize@0   100474ae f   libucrt:winapi_thunks.obj
 0001:00046509       ___acrt_RtlGenRandom@8     10047509 f   libucrt:winapi_thunks.obj
 0001:00046575       ___acrt_SetThreadStackGuarantee@4 10047575 f   libucrt:winapi_thunks.obj
 0001:000465db       ___acrt_can_show_message_box 100475db f   libucrt:winapi_thunks.obj
 0001:0004660b       ___acrt_can_use_vista_locale_apis 1004760b f   libucrt:winapi_thunks.obj
 0001:00046618       ___acrt_can_use_xstate_apis 10047618 f   libucrt:winapi_thunks.obj
 0001:00046625       ___acrt_eagerly_load_locale_apis 10047625 f   libucrt:winapi_thunks.obj
 0001:00046669       ___acrt_get_parent_window  10047669 f   libucrt:winapi_thunks.obj
 0001:00046707       ___acrt_initialize_winapi_thunks 10047707 f   libucrt:winapi_thunks.obj
 0001:00046752       ___acrt_is_interactive     10047752 f   libucrt:winapi_thunks.obj
 0001:00046821       ___acrt_uninitialize_winapi_thunks 10047821 f   libucrt:winapi_thunks.obj
 0001:00046864       __fcloseall                10047864 f   libucrt:closeall.obj
 0001:0004692c       ?has_crt_buffer@__crt_stdio_stream@@QBE_NXZ 1004792c f i libucrt:_freebuf.obj
 0001:00046939       ___acrt_stdio_free_buffer_nolock 10047939 f   libucrt:_freebuf.obj
 0001:00046b77       ___acrt_initialize_lowio   10047b77 f   libucrt:ioinit.obj
 0001:00046be2       ___acrt_uninitialize_lowio 10047be2 f   libucrt:ioinit.obj
 0001:00046e0e       __close                    10047e0e f   libucrt:close.obj
 0001:00046ec0       __close_nolock             10047ec0 f   libucrt:close.obj
 0001:00046f83       ?lowio_handle@__crt_stdio_stream@@QBEHXZ 10047f83 f i libucrt:fileno.obj
 0001:00046f89       __fileno                   10047f89 f   libucrt:fileno.obj
 0001:00046fb8       ??$?RU__crt_stdio_stream_data@@@__crt_internal_free_policy@@QBEXQBU__crt_stdio_stream_data@@@Z 10047fb8 f i libucrt:stream.obj
 0001:00046fce       ??0?$__crt_unique_heap_ptr@U__crt_stdio_stream_data@@U__crt_internal_free_policy@@@@QAE@QAU__crt_stdio_stream_data@@@Z 10047fce f i libucrt:stream.obj
 0001:00046fe2       ??0__crt_stdio_stream@@QAE@XZ 10047fe2 f i libucrt:stream.obj
 0001:00046fe8       ??1?$__crt_unique_heap_ptr@U__crt_stdio_stream_data@@U__crt_internal_free_policy@@@@QAE@XZ 10047fe8 f i libucrt:stream.obj
 0001:00046ffe       ?__acrt_stdio_allocate_stream@@YA?AV__crt_stdio_stream@@XZ 10047ffe f   libucrt:stream.obj
 0001:00047074       ?__acrt_stdio_free_stream@@YAXV__crt_stdio_stream@@@Z 10048074 f   libucrt:stream.obj
 0001:000470bd       ?deallocate@__crt_stdio_stream@@QAEXXZ 100480bd f i libucrt:stream.obj
 0001:000470c9       ?detach@?$__crt_unique_heap_ptr@U__crt_stdio_stream_data@@U__crt_internal_free_policy@@@@QAEPAU__crt_stdio_stream_data@@XZ 100480c9 f i libucrt:stream.obj
 0001:000471c2       ?lock@__crt_stdio_stream@@QBEXXZ 100481c2 f i libucrt:stream.obj
 0001:000471cd       ?release@?$__crt_unique_heap_ptr@U__crt_stdio_stream_data@@U__crt_internal_free_policy@@@@QAEXXZ 100481cd f i libucrt:stream.obj
 0001:000471e3       ?try_allocate@__crt_stdio_stream@@QAE_NXZ 100481e3 f i libucrt:stream.obj
 0001:0004720b       ??$__acrt_stdio_parse_mode@D@@YA?AU__acrt_stdio_stream_mode@@QBD@Z 1004820b f i libucrt:openfile.obj
 0001:000474c5       ??$__acrt_stdio_parse_mode@_W@@YA?AU__acrt_stdio_stream_mode@@QB_W@Z 100484c5 f i libucrt:openfile.obj
 0001:0004791a       ??$tcsncmp@AAPBDAAY02$$CBDI@?$__crt_char_traits@D@@SAHAAPBDAAY02$$CBD$$QAI@Z 1004891a f i libucrt:openfile.obj
 0001:0004793d       ??$tcsncmp@AAPB_WAAY02$$CB_WI@?$__crt_char_traits@_W@@SAHAAPB_WAAY02$$CB_W$$QAI@Z 1004893d f i libucrt:openfile.obj
 0001:00047960       ??$tcsnicmp@AAPBDAAY04$$CBDI@?$__crt_char_traits@D@@SAHAAPBDAAY04$$CBD$$QAI@Z 10048960 f i libucrt:openfile.obj
 0001:00047983       ??$tcsnicmp@AAPBDAAY06$$CBDI@?$__crt_char_traits@D@@SAHAAPBDAAY06$$CBD$$QAI@Z 10048983 f i libucrt:openfile.obj
 0001:000479a6       ??$tcsnicmp@AAPBDAAY07$$CBDI@?$__crt_char_traits@D@@SAHAAPBDAAY07$$CBD$$QAI@Z 100489a6 f i libucrt:openfile.obj
 0001:000479c9       ??$tcsnicmp@AAPB_WAAY04$$CB_WI@?$__crt_char_traits@_W@@SAHAAPB_WAAY04$$CB_W$$QAI@Z 100489c9 f i libucrt:openfile.obj
 0001:000479ec       ??$tcsnicmp@AAPB_WAAY06$$CB_WI@?$__crt_char_traits@_W@@SAHAAPB_WAAY06$$CB_W$$QAI@Z 100489ec f i libucrt:openfile.obj
 0001:00047a0f       ??$tcsnicmp@AAPB_WAAY07$$CB_WI@?$__crt_char_traits@_W@@SAHAAPB_WAAY07$$CB_W$$QAI@Z 10048a0f f i libucrt:openfile.obj
 0001:00047a32       ??$tsopen_s@PAHABQBDABHABHH@?$__crt_char_traits@D@@SAH$$QAPAHABQBDABH2$$QAH@Z 10048a32 f i libucrt:openfile.obj
 0001:00047a64       ??$tsopen_s@PAHABQB_WABHABHH@?$__crt_char_traits@_W@@SAH$$QAPAHABQB_WABH2$$QAH@Z 10048a64 f i libucrt:openfile.obj
 0001:00047a96       ?__acrt_stdio_parse_mode_D@@YA_NAAU__acrt_stdio_stream_mode@@@Z 10048a96 f i libucrt:openfile.obj
 0001:00047ab7       ?__acrt_stdio_parse_mode_N@@YA_NAAU__acrt_stdio_stream_mode@@@Z 10048ab7 f i libucrt:openfile.obj
 0001:00047acd       ?__acrt_stdio_parse_mode_R@@YA_NAAU__acrt_stdio_stream_mode@@AA_N@Z 10048acd f i libucrt:openfile.obj
 0001:00047af2       ?__acrt_stdio_parse_mode_S@@YA_NAAU__acrt_stdio_stream_mode@@AA_N@Z 10048af2 f i libucrt:openfile.obj
 0001:00047b17       ?__acrt_stdio_parse_mode_T@@YA_NAAU__acrt_stdio_stream_mode@@@Z 10048b17 f i libucrt:openfile.obj
 0001:00047b3d       ?__acrt_stdio_parse_mode_b@@YA_NAAU__acrt_stdio_stream_mode@@@Z 10048b3d f i libucrt:openfile.obj
 0001:00047b65       ?__acrt_stdio_parse_mode_c@@YA_NAAU__acrt_stdio_stream_mode@@AA_N@Z 10048b65 f i libucrt:openfile.obj
 0001:00047b8f       ?__acrt_stdio_parse_mode_n@@YA_NAAU__acrt_stdio_stream_mode@@AA_N@Z 10048b8f f i libucrt:openfile.obj
 0001:00047bb9       ?__acrt_stdio_parse_mode_plus@@YA_NAAU__acrt_stdio_stream_mode@@AA_N@Z 10048bb9 f i libucrt:openfile.obj
 0001:00047bfb       ?__acrt_stdio_parse_mode_t@@YA_NAAU__acrt_stdio_stream_mode@@@Z 10048bfb f i libucrt:openfile.obj
 0001:00047c23       ?__acrt_stdio_parse_mode_x@@YA_NAAU__acrt_stdio_stream_mode@@@Z 10048c23 f i libucrt:openfile.obj
 0001:00047c4b       __openfile                 10048c4b f   libucrt:openfile.obj
 0001:00047c58       __wopenfile                10048c58 f   libucrt:openfile.obj
 0001:0004832b       __read                     1004932b f   libucrt:read.obj
 0001:00048477       __read_nolock              10049477 f   libucrt:read.obj
 0001:00048915       __utf8_no_of_trailbytes    10049915 f i libucrt:read.obj
 0001:00048e34       ___acrt_stdio_refill_and_read_narrow_nolock 10049e34 f   libucrt:_filbuf.obj
 0001:00048e41       ___acrt_stdio_refill_and_read_wide_nolock 10049e41 f   libucrt:_filbuf.obj
 0001:000495c3       __write                    1004a5c3 f   libucrt:write.obj
 0001:000496e5       __write_nolock             1004a6e5 f   libucrt:write.obj
 0001:00049e27       ___acrt_stdio_flush_and_write_narrow_nolock 1004ae27 f   libucrt:_flsbuf.obj
 0001:00049e34       ___acrt_stdio_flush_and_write_wide_nolock 1004ae34 f   libucrt:_flsbuf.obj
 0001:00049e41       ?has_temporary_buffer@__crt_stdio_stream@@QBE_NXZ 1004ae41 f i libucrt:_sftbuf.obj
 0001:00049e4e       ___acrt_stdio_begin_temporary_buffering_nolock 1004ae4e f   libucrt:_sftbuf.obj
 0001:00049f30       ___acrt_stdio_end_temporary_buffering_nolock 1004af30 f   libucrt:_sftbuf.obj
 0001:00049ff9       ___acrt_MultiByteToWideChar 1004aff9 f   libucrt:multibytetowidechar.obj
 0001:0004a094       ??$?RU__acrt_ptd@@@__crt_internal_free_policy@@QBEXQBU__acrt_ptd@@@Z 1004b094 f i libucrt:per_thread_data.obj
 0001:0004a40d       ??0?$__crt_unique_heap_ptr@U__acrt_ptd@@U__crt_internal_free_policy@@@@QAE@QAU__acrt_ptd@@@Z 1004b40d f i libucrt:per_thread_data.obj
 0001:0004a421       ??0__crt_scoped_get_last_error_reset@@QAE@XZ 1004b421 f i libucrt:per_thread_data.obj
 0001:0004a436       ??1?$__crt_unique_heap_ptr@U__acrt_ptd@@U__crt_internal_free_policy@@@@QAE@XZ 1004b436 f i libucrt:per_thread_data.obj
 0001:0004a44c       ??1__crt_scoped_get_last_error_reset@@QAE@XZ 1004b44c f i libucrt:per_thread_data.obj
 0001:0004a457       ??B?$__crt_unique_heap_ptr@U__acrt_ptd@@U__crt_internal_free_policy@@@@QBE_NXZ 1004b457 f i libucrt:per_thread_data.obj
 0001:0004a5f4       ?dangerous_get_state_array@?$dual_state_global@PAU__crt_locale_data@@@__crt_state_management@@QAEPAPAU__crt_locale_data@@XZ 1004b5f4 f i libucrt:per_thread_data.obj
 0001:0004a727       ?detach@?$__crt_unique_heap_ptr@U__acrt_ptd@@U__crt_internal_free_policy@@@@QAEPAU__acrt_ptd@@XZ 1004b727 f i libucrt:per_thread_data.obj
 0001:0004a72d       ?get@?$__crt_unique_heap_ptr@U__acrt_ptd@@U__crt_internal_free_policy@@@@QBEPAU__acrt_ptd@@XZ 1004b72d f i libucrt:per_thread_data.obj
 0001:0004a730       ?get_current_state_index@__crt_state_management@@YAIABV__crt_scoped_get_last_error_reset@@@Z 1004b730 f i libucrt:per_thread_data.obj
 0001:0004a8b6       ?is_valid@?$__crt_unique_heap_ptr@U__acrt_ptd@@U__crt_internal_free_policy@@@@QBE_NXZ 1004b8b6 f i libucrt:per_thread_data.obj
 0001:0004a8bd       ?release@?$__crt_unique_heap_ptr@U__acrt_ptd@@U__crt_internal_free_policy@@@@QAEXXZ 1004b8bd f i libucrt:per_thread_data.obj
 0001:0004a949       ?value@?$dual_state_global@PAU__crt_locale_data@@@__crt_state_management@@QAEAAPAU__crt_locale_data@@XZ 1004b949 f i libucrt:per_thread_data.obj
 0001:0004a94c       ___acrt_freeptd            1004b94c f   libucrt:per_thread_data.obj
 0001:0004a983       ___acrt_getptd             1004b983 f   libucrt:per_thread_data.obj
 0001:0004aa67       ___acrt_getptd_head        1004ba67 f   libucrt:per_thread_data.obj
 0001:0004ab27       ___acrt_getptd_noexit      1004bb27 f   libucrt:per_thread_data.obj
 0001:0004abff       ___acrt_initialize_ptd     1004bbff f   libucrt:per_thread_data.obj
 0001:0004ac36       ___acrt_uninitialize_ptd   1004bc36 f   libucrt:per_thread_data.obj
 0001:0004ac56       ___threadhandle            1004bc56 f   libucrt:per_thread_data.obj
 0001:0004ac5c       ___threadid                1004bc5c f   libucrt:per_thread_data.obj
 0001:0004ac62       ?value@?$dual_state_global@PAU__crt_multibyte_data@@@__crt_state_management@@QAEAAPAU__crt_multibyte_data@@XZ 1004bc62 f i libucrt:locale_update.obj
 0001:0004ac65       ___acrt_update_locale_info 1004bc65 f   libucrt:locale_update.obj
 0001:0004ac9d       ___acrt_update_multibyte_info 1004bc9d f   libucrt:locale_update.obj
 0001:0004acd5       __wremove                  1004bcd5 f   libucrt:wunlink.obj
 0001:0004ad07       __wunlink                  1004bd07 f   libucrt:wunlink.obj
 0001:0004ad17       ??$?RU__crt_locale_data@@@__crt_internal_free_policy@@QBEXQBU__crt_locale_data@@@Z 1004bd17 f i libucrt:wsetlocale.obj
 0001:0004ad2d       ??$?RU__crt_locale_pointers@@@__crt_internal_free_policy@@QBEXQBU__crt_locale_pointers@@@Z 1004bd2d f i libucrt:wsetlocale.obj
 0001:0004ad43       ??$?RU__crt_multibyte_data@@@__crt_internal_free_policy@@QBEXQBU__crt_multibyte_data@@@Z 1004bd43 f i libucrt:wsetlocale.obj
 0001:0004b013       ??$__vcrt_va_start_verify_argument_type@H@@YAXXZ 1004c013 f i libucrt:wsetlocale.obj
 0001:0004b19e       ??0?$__crt_unique_heap_ptr@U__crt_locale_data@@U__crt_internal_free_policy@@@@QAE@QAU__crt_locale_data@@@Z 1004c19e f i libucrt:wsetlocale.obj
 0001:0004b1b2       ??0?$__crt_unique_heap_ptr@U__crt_locale_pointers@@U__crt_internal_free_policy@@@@QAE@QAU__crt_locale_pointers@@@Z 1004c1b2 f i libucrt:wsetlocale.obj
 0001:0004b1c6       ??0?$__crt_unique_heap_ptr@U__crt_multibyte_data@@U__crt_internal_free_policy@@@@QAE@QAU__crt_multibyte_data@@@Z 1004c1c6 f i libucrt:wsetlocale.obj
 0001:0004b1da       ??1?$__crt_unique_heap_ptr@U__crt_locale_data@@U__crt_internal_free_policy@@@@QAE@XZ 1004c1da f i libucrt:wsetlocale.obj
 0001:0004b1f0       ??1?$__crt_unique_heap_ptr@U__crt_locale_pointers@@U__crt_internal_free_policy@@@@QAE@XZ 1004c1f0 f i libucrt:wsetlocale.obj
 0001:0004b206       ??1?$__crt_unique_heap_ptr@U__crt_multibyte_data@@U__crt_internal_free_policy@@@@QAE@XZ 1004c206 f i libucrt:wsetlocale.obj
 0001:0004b21c       ??B?$__crt_unique_heap_ptr@U__crt_locale_data@@U__crt_internal_free_policy@@@@QBE_NXZ 1004c21c f i libucrt:wsetlocale.obj
 0001:0004b223       ??B?$__crt_unique_heap_ptr@U__crt_locale_pointers@@U__crt_internal_free_policy@@@@QBE_NXZ 1004c223 f i libucrt:wsetlocale.obj
 0001:0004b22a       ??B?$__crt_unique_heap_ptr@U__crt_multibyte_data@@U__crt_internal_free_policy@@@@QBE_NXZ 1004c22a f i libucrt:wsetlocale.obj
 0001:0004b4cc       ?detach@?$__crt_unique_heap_ptr@U__crt_locale_data@@U__crt_internal_free_policy@@@@QAEPAU__crt_locale_data@@XZ 1004c4cc f i libucrt:wsetlocale.obj
 0001:0004b4d2       ?detach@?$__crt_unique_heap_ptr@U__crt_locale_pointers@@U__crt_internal_free_policy@@@@QAEPAU__crt_locale_pointers@@XZ 1004c4d2 f i libucrt:wsetlocale.obj
 0001:0004b4d8       ?detach@?$__crt_unique_heap_ptr@U__crt_multibyte_data@@U__crt_internal_free_policy@@@@QAEPAU__crt_multibyte_data@@XZ 1004c4d8 f i libucrt:wsetlocale.obj
 0001:0004b4de       ?get@?$__crt_unique_heap_ptr@U__crt_locale_data@@U__crt_internal_free_policy@@@@QBEPAU__crt_locale_data@@XZ 1004c4de f i libucrt:wsetlocale.obj
 0001:0004b4e1       ?get@?$__crt_unique_heap_ptr@U__crt_locale_pointers@@U__crt_internal_free_policy@@@@QBEPAU__crt_locale_pointers@@XZ 1004c4e1 f i libucrt:wsetlocale.obj
 0001:0004b4e4       ?get@?$__crt_unique_heap_ptr@U__crt_multibyte_data@@U__crt_internal_free_policy@@@@QBEPAU__crt_multibyte_data@@XZ 1004c4e4 f i libucrt:wsetlocale.obj
 0001:0004b4e7       ?is_valid@?$__crt_unique_heap_ptr@U__crt_locale_data@@U__crt_internal_free_policy@@@@QBE_NXZ 1004c4e7 f i libucrt:wsetlocale.obj
 0001:0004b4ee       ?is_valid@?$__crt_unique_heap_ptr@U__crt_locale_pointers@@U__crt_internal_free_policy@@@@QBE_NXZ 1004c4ee f i libucrt:wsetlocale.obj
 0001:0004b4f5       ?is_valid@?$__crt_unique_heap_ptr@U__crt_multibyte_data@@U__crt_internal_free_policy@@@@QBE_NXZ 1004c4f5 f i libucrt:wsetlocale.obj
 0001:0004b4fc       ?release@?$__crt_unique_heap_ptr@U__crt_locale_data@@U__crt_internal_free_policy@@@@QAEXXZ 1004c4fc f i libucrt:wsetlocale.obj
 0001:0004b512       ?release@?$__crt_unique_heap_ptr@U__crt_locale_pointers@@U__crt_internal_free_policy@@@@QAEXXZ 1004c512 f i libucrt:wsetlocale.obj
 0001:0004b528       ?release@?$__crt_unique_heap_ptr@U__crt_multibyte_data@@U__crt_internal_free_policy@@@@QAEXXZ 1004c528 f i libucrt:wsetlocale.obj
 0001:0004b53e       ___acrt_copy_locale_name   1004c53e f   libucrt:wsetlocale.obj
 0001:0004b5bd       ___acrt_set_locale_changed 1004c5bd f   libucrt:wsetlocale.obj
 0001:0004b5ca       ___acrt_uninitialize_locale 1004c5ca f   libucrt:wsetlocale.obj
 0001:0004b5fd       ___lc_lctowcs              1004c5fd f   libucrt:wsetlocale.obj
 0001:0004b689       ___lc_wcstolc              1004c689 f   libucrt:wsetlocale.obj
 0001:0004b829       __configthreadlocale       1004c829 f   libucrt:wsetlocale.obj
 0001:0004b8dd       __create_locale            1004c8dd f   libucrt:wsetlocale.obj
 0001:0004b95c       __expandlocale             1004c95c f   libucrt:wsetlocale.obj
 0001:0004be30       __free_locale              1004ce30 f   libucrt:wsetlocale.obj
 0001:0004bf16       __get_current_locale       1004cf16 f   libucrt:wsetlocale.obj
 0001:0004bfda       __wcreate_locale           1004cfda f   libucrt:wsetlocale.obj
 0001:0004c125       __wcscats                  1004d125 f   libucrt:wsetlocale.obj
 0001:0004c176       __wsetlocale               1004d176 f   libucrt:wsetlocale.obj
 0001:0004ccad       ___p___mb_cur_max          1004dcad f   libucrt:nlsdata.obj
 0001:0004d13d       __lseek                    1004e13d f   libucrt:lseek.obj
 0001:0004d14a       __lseek_nolock             1004e14a f   libucrt:lseek.obj
 0001:0004d157       __lseeki64                 1004e157 f   libucrt:lseek.obj
 0001:0004d178       __lseeki64_nolock          1004e178 f   libucrt:lseek.obj
 0001:0004d1b5       ___isascii                 1004e1b5 f i libucrt:_ctype.obj
 0001:0004d1cb       ___iscsym                  1004e1cb f i libucrt:_ctype.obj
 0001:0004d1f5       ___iscsymf                 1004e1f5 f i libucrt:_ctype.obj
 0001:0004d21b       ___toascii                 1004e21b f i libucrt:_ctype.obj
 0001:0004d22b       __isalnum_l                1004e22b f i libucrt:_ctype.obj
 0001:0004d274       __isalpha_l                1004e274 f i libucrt:_ctype.obj
 0001:0004d2bd       __isblank_l                1004e2bd f i libucrt:_ctype.obj
 0001:0004d310       __iscntrl_l                1004e310 f i libucrt:_ctype.obj
 0001:0004d356       __iscsym_l                 1004e356 f i libucrt:_ctype.obj
 0001:0004d381       __iscsymf_l                1004e381 f i libucrt:_ctype.obj
 0001:0004d3ac       __isdigit_l                1004e3ac f i libucrt:_ctype.obj
 0001:0004d3f2       __isgraph_l                1004e3f2 f i libucrt:_ctype.obj
 0001:0004d43b       __islower_l                1004e43b f i libucrt:_ctype.obj
 0001:0004d481       __isprint_l                1004e481 f i libucrt:_ctype.obj
 0001:0004d4ca       __ispunct_l                1004e4ca f i libucrt:_ctype.obj
 0001:0004d510       __isspace_l                1004e510 f i libucrt:_ctype.obj
 0001:0004d556       __isupper_l                1004e556 f i libucrt:_ctype.obj
 0001:0004d59c       __isxdigit_l               1004e59c f i libucrt:_ctype.obj
 0001:0004d5e5       _isalnum                   1004e5e5 f i libucrt:_ctype.obj
 0001:0004d621       _isalpha                   1004e621 f i libucrt:_ctype.obj
 0001:0004d65d       _isblank                   1004e65d f i libucrt:_ctype.obj
 0001:0004d6a5       _iscntrl                   1004e6a5 f i libucrt:_ctype.obj
 0001:0004d6de       _isdigit                   1004e6de f i libucrt:_ctype.obj
 0001:0004d717       _isgraph                   1004e717 f i libucrt:_ctype.obj
 0001:0004d753       _islower                   1004e753 f i libucrt:_ctype.obj
 0001:0004d78c       _isprint                   1004e78c f i libucrt:_ctype.obj
 0001:0004d7c8       _ispunct                   1004e7c8 f i libucrt:_ctype.obj
 0001:0004d801       _isspace                   1004e801 f i libucrt:_ctype.obj
 0001:0004d83a       _isupper                   1004e83a f i libucrt:_ctype.obj
 0001:0004d873       _isxdigit                  1004e873 f i libucrt:_ctype.obj
 0001:0004dc6b       __tolower                  1004ec6b f   libucrt:tolower_toupper.obj
 0001:0004dc7b       __tolower_l                1004ec7b f   libucrt:tolower_toupper.obj
 0001:0004dc9b       __toupper                  1004ec9b f   libucrt:tolower_toupper.obj
 0001:0004dcab       __toupper_l                1004ecab f   libucrt:tolower_toupper.obj
 0001:0004dccb       _tolower                   1004eccb f   libucrt:tolower_toupper.obj
 0001:0004dd07       _toupper                   1004ed07 f   libucrt:tolower_toupper.obj
 0001:0004dd43       ??$make_c_string_character_source@DPAPAD@__crt_strtox@@YA?AV?$c_string_character_source@D@0@QBDQAPAD@Z 1004ed43 f i libucrt:strtox.obj
 0001:0004dd64       ??$make_c_string_character_source@_WPAPA_W@__crt_strtox@@YA?AV?$c_string_character_source@_W@0@QB_WQAPA_W@Z 1004ed64 f i libucrt:strtox.obj
 0001:0004dd85       ??$parse_integer_from_string@JDPAPAD@__crt_strtox@@YAJQBDQAPADHQAU__crt_locale_pointers@@@Z 1004ed85 f i libucrt:strtox.obj
 0001:0004ddbd       ??$parse_integer_from_string@J_WPAPA_W@__crt_strtox@@YAJQB_WQAPA_WHQAU__crt_locale_pointers@@@Z 1004edbd f i libucrt:strtox.obj
 0001:0004ddf5       ??$parse_integer_from_string@KDPAPAD@__crt_strtox@@YAKQBDQAPADHQAU__crt_locale_pointers@@@Z 1004edf5 f i libucrt:strtox.obj
 0001:0004de2d       ??$parse_integer_from_string@K_WPAPA_W@__crt_strtox@@YAKQB_WQAPA_WHQAU__crt_locale_pointers@@@Z 1004ee2d f i libucrt:strtox.obj
 0001:0004de65       ??$parse_integer_from_string@_JDPAPAD@__crt_strtox@@YA_JQBDQAPADHQAU__crt_locale_pointers@@@Z 1004ee65 f i libucrt:strtox.obj
 0001:0004de9d       ??$parse_integer_from_string@_J_WPAPA_W@__crt_strtox@@YA_JQB_WQAPA_WHQAU__crt_locale_pointers@@@Z 1004ee9d f i libucrt:strtox.obj
 0001:0004ded5       ??$parse_integer_from_string@_KDPAPAD@__crt_strtox@@YA_KQBDQAPADHQAU__crt_locale_pointers@@@Z 1004eed5 f i libucrt:strtox.obj
 0001:0004df0d       ??$parse_integer_from_string@_K_WPAPA_W@__crt_strtox@@YA_KQB_WQAPA_WHQAU__crt_locale_pointers@@@Z 1004ef0d f i libucrt:strtox.obj
 0001:0004df45       __strtoi64                 1004ef45 f   libucrt:strtox.obj
 0001:0004df7c       __strtoi64_l               1004ef7c f   libucrt:strtox.obj
 0001:0004dfb4       __strtoimax_l              1004efb4 f   libucrt:strtox.obj
 0001:0004dfec       __strtol_l                 1004efec f   libucrt:strtox.obj
 0001:0004e024       __strtoll_l                1004f024 f   libucrt:strtox.obj
 0001:0004e05c       __strtoui64                1004f05c f   libucrt:strtox.obj
 0001:0004e093       __strtoui64_l              1004f093 f   libucrt:strtox.obj
 0001:0004e0cb       __strtoul_l                1004f0cb f   libucrt:strtox.obj
 0001:0004e103       __strtoull_l               1004f103 f   libucrt:strtox.obj
 0001:0004e13b       __strtoumax_l              1004f13b f   libucrt:strtox.obj
 0001:0004e173       __wcstoi64                 1004f173 f   libucrt:strtox.obj
 0001:0004e1aa       __wcstoi64_l               1004f1aa f   libucrt:strtox.obj
 0001:0004e1e2       __wcstoimax_l              1004f1e2 f   libucrt:strtox.obj
 0001:0004e21a       __wcstol_l                 1004f21a f   libucrt:strtox.obj
 0001:0004e252       __wcstoll_l                1004f252 f   libucrt:strtox.obj
 0001:0004e28a       __wcstoui64                1004f28a f   libucrt:strtox.obj
 0001:0004e2c1       __wcstoui64_l              1004f2c1 f   libucrt:strtox.obj
 0001:0004e2f9       __wcstoul_l                1004f2f9 f   libucrt:strtox.obj
 0001:0004e331       __wcstoull_l               1004f331 f   libucrt:strtox.obj
 0001:0004e369       __wcstoumax_l              1004f369 f   libucrt:strtox.obj
 0001:0004e3a1       _strtoimax                 1004f3a1 f   libucrt:strtox.obj
 0001:0004e3d8       _strtol                    1004f3d8 f   libucrt:strtox.obj
 0001:0004e40f       _strtoll                   1004f40f f   libucrt:strtox.obj
 0001:0004e446       _strtoul                   1004f446 f   libucrt:strtox.obj
 0001:0004e47d       _strtoull                  1004f47d f   libucrt:strtox.obj
 0001:0004e4b4       _strtoumax                 1004f4b4 f   libucrt:strtox.obj
 0001:0004e4eb       _wcstoimax                 1004f4eb f   libucrt:strtox.obj
 0001:0004e522       _wcstol                    1004f522 f   libucrt:strtox.obj
 0001:0004e559       _wcstoll                   1004f559 f   libucrt:strtox.obj
 0001:0004e590       _wcstoul                   1004f590 f   libucrt:strtox.obj
 0001:0004e5c7       _wcstoull                  1004f5c7 f   libucrt:strtox.obj
 0001:0004e5fe       _wcstoumax                 1004f5fe f   libucrt:strtox.obj
 0001:0004e635       __mbtowc_l                 1004f635 f   libucrt:mbtowc.obj
 0001:0004e7ca       _mbtowc                    1004f7ca f   libucrt:mbtowc.obj
 0001:0004e7ea       __wctomb_l                 1004f7ea f   libucrt:wctomb.obj
 0001:0004e851       __wctomb_s_l               1004f851 f   libucrt:wctomb.obj
 0001:0004e9bc       _wctomb                    1004f9bc f   libucrt:wctomb.obj
 0001:0004e9fd       _wctomb_s                  1004f9fd f   libucrt:wctomb.obj
 0001:0004f41a       ??1?$__crt_simd_cleanup_guard@$00@@QAE@XZ 1005041a f i libucrt:strnlen.obj
 0001:0004f41e       ??1?$__crt_simd_cleanup_guard@$0A@@@QAE@XZ 1005041e f i libucrt:strnlen.obj
 0001:0004f41f       ?compare_equals@?$__crt_simd_traits@$00E@@SA?AT__m256i@@T2@0@Z 1005041f f i libucrt:strnlen.obj
 0001:0004f424       ?compare_equals@?$__crt_simd_traits@$00G@@SA?AT__m256i@@T2@0@Z 10050424 f i libucrt:strnlen.obj
 0001:0004f429       ?compare_equals@?$__crt_simd_traits@$0A@E@@SA?AT__m128i@@T2@0@Z 10050429 f i libucrt:strnlen.obj
 0001:0004f42e       ?compare_equals@?$__crt_simd_traits@$0A@G@@SA?AT__m128i@@T2@0@Z 1005042e f i libucrt:strnlen.obj
 0001:0004f433       ?compute_byte_mask@?$__crt_simd_pack_traits@$00@@SAHT__m256i@@@Z 10050433 f i libucrt:strnlen.obj
 0001:0004f438       ?compute_byte_mask@?$__crt_simd_pack_traits@$0A@@@SAHT__m128i@@@Z 10050438 f i libucrt:strnlen.obj
 0001:0004f43d       ?get_zero_pack@?$__crt_simd_pack_traits@$00@@SA?AT__m256i@@XZ 1005043d f i libucrt:strnlen.obj
 0001:0004f442       ?get_zero_pack@?$__crt_simd_pack_traits@$0A@@@SA?AT__m128i@@XZ 10050442 f i libucrt:strnlen.obj
 0001:0004f446       _strnlen                   10050446 f   libucrt:strnlen.obj
 0001:0004f5b0       _wcslen                    100505b0 f   libucrt:strnlen.obj
 0001:0004f722       _wcsnlen                   10050722 f   libucrt:strnlen.obj
 0001:0004f93e       ?__acrt_fp_classify@@YA?AW4__acrt_fp_class@@ABN@Z 1005093e f i libucrt:cvt.obj
 0001:0004f9b8       ?__acrt_fp_is_negative@@YA_NABN@Z 100509b8 f i libucrt:cvt.obj
 0001:0005043d       ?strrchr@@YAPADQADH@Z      1005143d f i libucrt:cvt.obj
 0001:0005044a       ___acrt_fp_format          1005144a f   libucrt:cvt.obj
 0001:00050612       __fputwc_nolock            10051612 f   libucrt:fputwc.obj
 0001:00050786       __fputwchar                10051786 f   libucrt:fputwc.obj
 0001:000507a6       __putwc_nolock             100517a6 f   libucrt:fputwc.obj
 0001:000507b3       _fputwc                    100517b3 f   libucrt:fputwc.obj
 0001:00050844       _putwc                     10051844 f   libucrt:fputwc.obj
 0001:00050851       _putwchar                  10051851 f   libucrt:fputwc.obj
 0001:0005085e       __fputc_nolock             1005185e f   libucrt:fputc.obj
 0001:00050891       __fputchar                 10051891 f   libucrt:fputc.obj
 0001:000508b1       __putc_nolock              100518b1 f   libucrt:fputc.obj
 0001:000508be       _fputc                     100518be f   libucrt:fputc.obj
 0001:000509fc       _putc                      100519fc f   libucrt:fputc.obj
 0001:00050a09       _putchar                   10051a09 f   libucrt:fputc.obj
 0001:00050a16       __get_printf_count_output  10051a16 f   libucrt:printf_count_output.obj
 0001:00050a30       __set_printf_count_output  10051a30 f   libucrt:printf_count_output.obj
 0001:00050a64       __chgsign                  10051a64 f   libucrt:ieeemisc.obj
 0001:00050a9e       __chgsignf                 10051a9e f   libucrt:ieeemisc.obj
 0001:00050ac9       __copysign                 10051ac9 f   libucrt:ieeemisc.obj
 0001:00050afd       __copysignf                10051afd f   libucrt:ieeemisc.obj
 0001:00050b22       __finite                   10051b22 f   libucrt:ieeemisc.obj
 0001:00050b42       __fpclass                  10051b42 f   libucrt:ieeemisc.obj
 0001:00050c0f       __isnan                    10051c0f f   libucrt:ieeemisc.obj
 0001:00050c52       __logb                     10051c52 f   libucrt:ieeemisc.obj
 0001:00050d57       __nextafter                10051d57 f   libucrt:ieeemisc.obj
 0001:00050d7d       __scalb                    10051d7d f   libucrt:ieeemisc.obj
 0001:00050d9d       __add_exp                  10051d9d f   libucrt:util.obj
 0001:00050dd7       __decomp                   10051dd7 f   libucrt:util.obj
 0001:00050eec       __get_exp                  10051eec f   libucrt:util.obj
 0001:00050f0a       __set_bexp                 10051f0a f   libucrt:util.obj
 0001:00050f3d       __set_exp                  10051f3d f   libucrt:util.obj
 0001:00050f77       __sptype                   10051f77 f   libucrt:util.obj
 0001:00050fec       ___clrfp_sse2              10051fec f   libucrt:fpctrl.obj
 0001:00051015       ___ctrlfp_sse2             10052015 f   libucrt:fpctrl.obj
 0001:0005105e       ___fclrf_sse2              1005205e f   libucrt:fpctrl.obj
 0001:00051084       ___get_fpsr_sse2           10052084 f   libucrt:fpctrl.obj
 0001:000510a9       ___set_fpsr_sse2           100520a9 f   libucrt:fpctrl.obj
 0001:0005113c       ___set_statfp_sse2         1005213c f   libucrt:fpctrl.obj
 0001:0005115d       ___statfp_sse2             1005215d f   libucrt:fpctrl.obj
 0001:00051177       __clrfp                    10052177 f   libucrt:fpctrl.obj
 0001:0005118e       __ctrlfp                   1005218e f   libucrt:fpctrl.obj
 0001:000511c5       __set_statfp               100521c5 f   libucrt:fpctrl.obj
 0001:00051236       __statfp                   10052236 f   libucrt:fpctrl.obj
 0001:0005124c       ??$__crt_fast_decode_pointer@P6AHPAU_exception@@@Z@@YAP6AHPAU_exception@@@ZQ6AH0@Z@Z 1005224c f i libucrt:matherr.obj
 0001:00051267       ??$__crt_fast_encode_pointer@P6AHPAU_exception@@@Z@@YAP6AHPAU_exception@@@ZQ6AH0@Z@Z 10052267 f i libucrt:matherr.obj
 0001:0005128d       ?initialize@?$dual_state_global@P6AHPAU_exception@@@Z@__crt_state_management@@QAEXQ6AHPAU_exception@@@Z@Z 1005228d f i libucrt:matherr.obj
 0001:000512bc       ?value@?$dual_state_global@P6AHPAU_exception@@@Z@__crt_state_management@@QAEAAP6AHPAU_exception@@@ZXZ 100522bc f i libucrt:matherr.obj
 0001:000512bf       ___acrt_has_user_matherr   100522bf f   libucrt:matherr.obj
 0001:000512dd       ___acrt_initialize_user_matherr 100522dd f   libucrt:matherr.obj
 0001:000512ef       ___acrt_invoke_user_matherr 100522ef f   libucrt:matherr.obj
 0001:0005134a       ___setusermatherr          1005234a f   libucrt:matherr.obj
 0001:00051e55       ??$find_first_file_ex@ABQADW4_FINDEX_INFO_LEVELS@@PAU_WIN32_FIND_DATAA@@W4_FINDEX_SEARCH_OPS@@$$TH@?$__crt_char_traits@D@@SAPAXABQAD$$QAW4_FINDEX_INFO_LEVELS@@$$QAPAU_WIN32_FIND_DATAA@@$$QAW4_FINDEX_SEARCH_OPS@@$$QA$$T$$QAH@Z 10052e55 f i libucrt:argv_wildcards.obj
 0001:00051e8d       ??$find_first_file_ex@ABQA_WW4_FINDEX_INFO_LEVELS@@PAU_WIN32_FIND_DATAW@@W4_FINDEX_SEARCH_OPS@@$$TH@?$__crt_char_traits@_W@@SAPAXABQA_W$$QAW4_FINDEX_INFO_LEVELS@@$$QAPAU_WIN32_FIND_DATAW@@$$QAW4_FINDEX_SEARCH_OPS@@$$QA$$T$$QAH@Z 10052e8d f i libucrt:argv_wildcards.obj
 0001:00051ec2       ??$find_next_file@PAXPAU_WIN32_FIND_DATAA@@@?$__crt_char_traits@D@@SAH$$QAPAX$$QAPAU_WIN32_FIND_DATAA@@@Z 10052ec2 f i libucrt:argv_wildcards.obj
 0001:00051ee0       ??$find_next_file@PAXPAU_WIN32_FIND_DATAW@@@?$__crt_char_traits@_W@@SAH$$QAPAX$$QAPAU_WIN32_FIND_DATAW@@@Z 10052ee0 f i libucrt:argv_wildcards.obj
 0001:00051efc       ??$tcsncpy_s@AAPADIAAPADABI@?$__crt_char_traits@D@@SAHAAPAD$$QAI0ABI@Z 10052efc f i libucrt:argv_wildcards.obj
 0001:00051f27       ??$tcsncpy_s@AAPA_WIAAPA_WABI@?$__crt_char_traits@_W@@SAHAAPA_W$$QAI0ABI@Z 10052f27 f i libucrt:argv_wildcards.obj
 0001:00051f52       ??$tcsncpy_s@PADABIABQBDABI@?$__crt_char_traits@D@@SAH$$QAPADABIABQBD1@Z 10052f52 f i libucrt:argv_wildcards.obj
 0001:00051f7d       ??$tcsncpy_s@PADIABQBDABI@?$__crt_char_traits@D@@SAH$$QAPAD$$QAIABQBDABI@Z 10052f7d f i libucrt:argv_wildcards.obj
 0001:00051fa8       ??$tcsncpy_s@PA_WABIABQB_WABI@?$__crt_char_traits@_W@@SAH$$QAPA_WABIABQB_W1@Z 10052fa8 f i libucrt:argv_wildcards.obj
 0001:00051fd3       ??$tcsncpy_s@PA_WIABQB_WABI@?$__crt_char_traits@_W@@SAH$$QAPA_W$$QAIABQB_WABI@Z 10052fd3 f i libucrt:argv_wildcards.obj
 0001:00051ffe       ??$tcspbrk@AAPADAAY02$$CBD@?$__crt_char_traits@D@@SAPADAAPADAAY02$$CBD@Z 10052ffe f i libucrt:argv_wildcards.obj
 0001:00052019       ??$tcspbrk@AAPA_WAAY02$$CB_W@?$__crt_char_traits@_W@@SAPA_WAAPA_WAAY02$$CB_W@Z 10053019 f i libucrt:argv_wildcards.obj
 0001:00052034       ??0?$__crt_unique_handle_t@U__crt_findfile_traits@@@@QAE@QAX@Z 10053034 f i libucrt:argv_wildcards.obj
 0001:00052068       ??1?$__crt_unique_handle_t@U__crt_findfile_traits@@@@QAE@XZ 10053068 f i libucrt:argv_wildcards.obj
 0001:00052212       ?close@?$__crt_unique_handle_t@U__crt_findfile_traits@@@@QAEXXZ 10053212 f i libucrt:argv_wildcards.obj
 0001:0005222e       ?close@__crt_findfile_traits@@SA_NPAX@Z 1005322e f i libucrt:argv_wildcards.obj
 0001:000523a0       ?get@?$__crt_unique_handle_t@U__crt_findfile_traits@@@@QBEPAXXZ 100533a0 f i libucrt:argv_wildcards.obj
 0001:000523a3       ?get_invalid_value@__crt_findfile_traits@@SAPAXXZ 100533a3 f i libucrt:argv_wildcards.obj
 0001:000523da       ?strpbrk@@YAPADQADQBD@Z    100533da f i libucrt:argv_wildcards.obj
 0001:000523e7       ?wcspbrk@@YAPA_WPA_WPB_W@Z 100533e7 f i libucrt:argv_wildcards.obj
 0001:000523f4       ___acrt_expand_narrow_argv_wildcards 100533f4 f   libucrt:argv_wildcards.obj
 0001:00052401       ___acrt_expand_wide_argv_wildcards 10053401 f   libucrt:argv_wildcards.obj
 0001:00052493       ??$initialize_from_array@$$BY10BAA@E@?$dual_state_global@PAE@__crt_state_management@@QAAXAAY10BAA@E@Z 10053493 f i libucrt:mbctype.obj
 0001:000524a5       ??$initialize_from_array@$$BY10BAB@E@?$dual_state_global@PAE@__crt_state_management@@QAAXAAY10BAB@E@Z 100534a5 f i libucrt:mbctype.obj
 0001:00052604       ?dangerous_get_state_array@?$dual_state_global@PAE@__crt_state_management@@QAEPAPAEXZ 10053604 f i libucrt:mbctype.obj
 0001:00052607       ?dangerous_get_state_array@?$dual_state_global@PAU__crt_multibyte_data@@@__crt_state_management@@QAEPAPAU__crt_multibyte_data@@XZ 10053607 f i libucrt:mbctype.obj
 0001:00052699       ?initialize@?$dual_state_global@PAU__crt_multibyte_data@@@__crt_state_management@@QAEXQAU__crt_multibyte_data@@@Z 10053699 f i libucrt:mbctype.obj
 0001:00052b88       ?value@?$dual_state_global@PAE@__crt_state_management@@QAEAAPAEXZ 10053b88 f i libucrt:mbctype.obj
 0001:00052b8b       ___acrt_initialize_multibyte 10053b8b f   libucrt:mbctype.obj
 0001:00052be5       ___acrt_update_thread_multibyte_data 10053be5 f   libucrt:mbctype.obj
 0001:00052bfc       ___p__mbcasemap            10053bfc f   libucrt:mbctype.obj
 0001:00052c02       ___p__mbctype              10053c02 f   libucrt:mbctype.obj
 0001:00052c08       __getmbcp                  10053c08 f   libucrt:mbctype.obj
 0001:00052c4b       __setmbcp                  10053c4b f   libucrt:mbctype.obj
 0001:00052c71       __setmbcp_nolock           10053c71 f   libucrt:mbctype.obj
 0001:00052ffa       __ismbbalnum               10053ffa f   libucrt:ismbbyte.obj
 0001:0005301b       __ismbbalnum_l             1005401b f   libucrt:ismbbyte.obj
 0001:0005303e       __ismbbalpha               1005403e f   libucrt:ismbbyte.obj
 0001:0005305f       __ismbbalpha_l             1005405f f   libucrt:ismbbyte.obj
 0001:00053082       __ismbbblank               10054082 f   libucrt:ismbbyte.obj
 0001:000530ad       __ismbbblank_l             100540ad f   libucrt:ismbbyte.obj
 0001:000530da       __ismbbgraph               100540da f   libucrt:ismbbyte.obj
 0001:000530fb       __ismbbgraph_l             100540fb f   libucrt:ismbbyte.obj
 0001:0005311e       __ismbbkalnum              1005411e f   libucrt:ismbbyte.obj
 0001:0005313c       __ismbbkalnum_l            1005413c f   libucrt:ismbbyte.obj
 0001:0005315b       __ismbbkana                1005415b f   libucrt:ismbbyte.obj
 0001:00053172       __ismbbkana_l              10054172 f   libucrt:ismbbyte.obj
 0001:000531d7       __ismbbkprint              100541d7 f   libucrt:ismbbyte.obj
 0001:000531f5       __ismbbkprint_l            100541f5 f   libucrt:ismbbyte.obj
 0001:00053214       __ismbbkpunct              10054214 f   libucrt:ismbbyte.obj
 0001:00053232       __ismbbkpunct_l            10054232 f   libucrt:ismbbyte.obj
 0001:00053251       __ismbblead                10054251 f   libucrt:ismbbyte.obj
 0001:0005326f       __ismbblead_l              1005426f f   libucrt:ismbbyte.obj
 0001:0005328e       __ismbbprint               1005428e f   libucrt:ismbbyte.obj
 0001:000532af       __ismbbprint_l             100542af f   libucrt:ismbbyte.obj
 0001:000532d2       __ismbbpunct               100542d2 f   libucrt:ismbbyte.obj
 0001:000532f0       __ismbbpunct_l             100542f0 f   libucrt:ismbbyte.obj
 0001:0005330f       __ismbbtrail               1005430f f   libucrt:ismbbyte.obj
 0001:0005332d       __ismbbtrail_l             1005432d f   libucrt:ismbbyte.obj
 0001:0005334c       ___acrt_initialize_command_line 1005434c f   libucrt:argv_data.obj
 0001:0005336b       ___acrt_uninitialize_command_line 1005436b f   libucrt:argv_data.obj
 0001:0005336e       ___p___argc                1005436e f   libucrt:argv_data.obj
 0001:00053374       ___p___argv                10054374 f   libucrt:argv_data.obj
 0001:0005337a       ___p___wargv               1005437a f   libucrt:argv_data.obj
 0001:00053380       ___p__acmdln               10054380 f   libucrt:argv_data.obj
 0001:00053386       ___p__pgmptr               10054386 f   libucrt:argv_data.obj
 0001:0005338c       ___p__wcmdln               1005438c f   libucrt:argv_data.obj
 0001:00053392       ___p__wpgmptr              10054392 f   libucrt:argv_data.obj
 0001:00053398       __get_pgmptr               10054398 f   libucrt:argv_data.obj
 0001:000533d5       __get_wpgmptr              100543d5 f   libucrt:argv_data.obj
 0001:00053490       ___acrt_WideCharToMultiByte 10054490 f   libucrt:widechartomultibyte.obj
 0001:00053622       ___dcrt_get_narrow_environment_from_os 10054622 f   libucrt:get_environment_from_os.obj
 0001:000536c9       ___dcrt_get_wide_environment_from_os 100546c9 f   libucrt:get_environment_from_os.obj
 0001:00053fcd       ??$get_or_create_environment_nolock@$$V@?$__crt_char_traits@D@@SAPAPADXZ 10054fcd f i libucrt:setenv.obj
 0001:00053fd2       ??$get_or_create_environment_nolock@$$V@?$__crt_char_traits@_W@@SAPAPA_WXZ 10054fd2 f i libucrt:setenv.obj
 0001:00053fd7       ??$set_environment_variable@ABQADQAD@?$__crt_char_traits@D@@SAHABQAD$$QBQAD@Z 10054fd7 f i libucrt:setenv.obj
 0001:00053ff5       ??$set_environment_variable@ABQA_WQA_W@?$__crt_char_traits@_W@@SAHABQA_W$$QBQA_W@Z 10054ff5 f i libucrt:setenv.obj
 0001:00054011       ??$tcschr@ABQADD@?$__crt_char_traits@D@@SAPADABQAD$$QAD@Z 10055011 f i libucrt:setenv.obj
 0001:00054031       ??$tcschr@ABQA_WD@?$__crt_char_traits@_W@@SAPA_WABQA_W$$QAD@Z 10055031 f i libucrt:setenv.obj
 0001:00054056       ??$tcscpy_s@AAPADABIAAPAD@?$__crt_char_traits@D@@SAHAAPADABI0@Z 10055056 f i libucrt:setenv.obj
 0001:0005407b       ??$tcscpy_s@AAPA_WABIAAPA_W@?$__crt_char_traits@_W@@SAHAAPA_WABI0@Z 1005507b f i libucrt:setenv.obj
 0001:000540a0       ??$tcscpy_s@ABQADABIABQAD@?$__crt_char_traits@D@@SAHABQADABI0@Z 100550a0 f i libucrt:setenv.obj
 0001:000540c5       ??$tcscpy_s@ABQA_WABIABQA_W@?$__crt_char_traits@_W@@SAHABQA_WABI0@Z 100550c5 f i libucrt:setenv.obj
 0001:000540ea       ??$tcsnicoll@ABQBDAAPADABI@?$__crt_char_traits@D@@SAHABQBDAAPADABI@Z 100550ea f i libucrt:setenv.obj
 0001:0005410f       ??$tcsnicoll@ABQB_WAAPA_WABI@?$__crt_char_traits@_W@@SAHABQB_WAAPA_WABI@Z 1005510f f i libucrt:setenv.obj
 0001:00054158       ?strchr@@YAPADQADH@Z       10055158 f i libucrt:setenv.obj
 0001:00054165       ?wcschr@@YAPA_WPA_W_W@Z    10055165 f i libucrt:setenv.obj
 0001:00054172       ___dcrt_set_variable_in_narrow_environment_nolock 10055172 f   libucrt:setenv.obj
 0001:0005417f       ___dcrt_set_variable_in_wide_environment_nolock 1005517f f   libucrt:setenv.obj
 0001:0005418c       __recalloc                 1005518c f   libucrt:recalloc.obj
 0001:00054199       __recalloc_base            10055199 f   libucrt:recalloc.obj
 0001:00054221       ___acrt_getheap            10055221 f   libucrt:heap_handle.obj
 0001:00054227       ___acrt_initialize_heap    10055227 f   libucrt:heap_handle.obj
 0001:0005423c       ___acrt_uninitialize_heap  1005523c f   libucrt:heap_handle.obj
 0001:00054248       __get_heap_handle          10055248 f   libucrt:heap_handle.obj
 0001:0005424e       ___acrt_execute_initializers 1005524e f   libucrt:shared_initialization.obj
 0001:000542f1       ___acrt_execute_uninitializers 100552f1 f   libucrt:shared_initialization.obj
 0001:0005434b       ??$?B$$A6AHI@Z@__crt_fast_encoded_nullptr_t@@QBEP6AHI@ZXZ 1005534b f i libucrt:new_handler.obj
 0001:00054369       ??$__crt_fast_decode_pointer@P6AHI@Z@@YAP6AHI@ZQ6AHI@Z@Z 10055369 f i libucrt:new_handler.obj
 0001:00054384       ??$__crt_fast_encode_pointer@P6AHI@Z@@YAP6AHI@ZQ6AHI@Z@Z 10055384 f i libucrt:new_handler.obj
 0001:000543aa       ?_set_new_handler@@YAP6AHI@ZH@Z 100553aa f   libucrt:new_handler.obj
 0001:000543d0       ?initialize@?$dual_state_global@P6AHI@Z@__crt_state_management@@QAEXQ6AHI@Z@Z 100553d0 f i libucrt:new_handler.obj
 0001:000543ff       ?value@?$dual_state_global@P6AHI@Z@__crt_state_management@@QAEAAP6AHI@ZXZ 100553ff f i libucrt:new_handler.obj
 0001:00054402       ___acrt_initialize_new_handler 10055402 f   libucrt:new_handler.obj
 0001:00054414       __callnewh                 10055414 f   libucrt:new_handler.obj
 0001:00054469       __query_new_handler        10055469 f   libucrt:new_handler.obj
 0001:000544cf       __set_new_handler          100554cf f   libucrt:new_handler.obj
 0001:00054547       ___pctype_func             10055547 f   libucrt:ctype.obj
 0001:00054576       ___pwctype_func            10055576 f   libucrt:ctype.obj
 0001:0005457c       __iswctype_l               1005557c f   libucrt:iswctype.obj
 0001:00054595       _iswctype                  10055595 f   libucrt:iswctype.obj
 0001:0005461a       __isctype                  1005561a f   libucrt:isctype.obj
 0001:00054658       __isctype_l                10055658 f   libucrt:isctype.obj
 0001:00054766       ?value@?$dual_state_global@J@__crt_state_management@@QAEAAJXZ 10055766 f i libucrt:new_mode.obj
 0001:00054769       __query_new_mode           10055769 f   libucrt:new_mode.obj
 0001:0005476f       __set_new_mode             1005576f f   libucrt:new_mode.obj
 0001:000548a8       _wcsncpy_s                 100558a8 f   libucrt:wcsncpy_s.obj
 0001:00054ac3       __mbstowcs_l               10055ac3 f   libucrt:mbstowcs.obj
 0001:00054ad0       __mbstowcs_s_l             10055ad0 f   libucrt:mbstowcs.obj
 0001:00054bea       _mbstowcs                  10055bea f   libucrt:mbstowcs.obj
 0001:00054c1e       _mbstowcs_s                10055c1e f   libucrt:mbstowcs.obj
 0001:00054c46       ___acrt_OutputDebugStringA@4 10055c46 f   libucrt:outputdebugstringa.obj
 0001:00054e83       __commit                   10055e83 f   libucrt:commit.obj
 0001:000550cd       ___acrt_DownlevelLCIDToLocaleName 100560cd f   libucrt:lcidtoname_downlevel.obj
 0001:000551a1       ___acrt_DownlevelLocaleNameToLCID 100561a1 f   libucrt:lcidtoname_downlevel.obj
 0001:000551d8       ??$?RU__crt_lowio_handle_data@@@__crt_internal_free_policy@@QBEXQBU__crt_lowio_handle_data@@@Z 100561d8 f i libucrt:osfinfo.obj
 0001:000551ee       ??0?$__crt_unique_heap_ptr@U__crt_lowio_handle_data@@U__crt_internal_free_policy@@@@QAE@QAU__crt_lowio_handle_data@@@Z 100561ee f i libucrt:osfinfo.obj
 0001:00055202       ??1?$__crt_unique_heap_ptr@U__crt_lowio_handle_data@@U__crt_internal_free_policy@@@@QAE@XZ 10056202 f i libucrt:osfinfo.obj
 0001:00055218       ??B?$__crt_unique_heap_ptr@U__crt_lowio_handle_data@@U__crt_internal_free_policy@@@@QBE_NXZ 10056218 f i libucrt:osfinfo.obj
 0001:0005521f       ?detach@?$__crt_unique_heap_ptr@U__crt_lowio_handle_data@@U__crt_internal_free_policy@@@@QAEPAU__crt_lowio_handle_data@@XZ 1005621f f i libucrt:osfinfo.obj
 0001:00055225       ?get@?$__crt_unique_heap_ptr@U__crt_lowio_handle_data@@U__crt_internal_free_policy@@@@QBEPAU__crt_lowio_handle_data@@XZ 10056225 f i libucrt:osfinfo.obj
 0001:00055228       ?is_valid@?$__crt_unique_heap_ptr@U__crt_lowio_handle_data@@U__crt_internal_free_policy@@@@QBE_NXZ 10056228 f i libucrt:osfinfo.obj
 0001:0005522f       ?release@?$__crt_unique_heap_ptr@U__crt_lowio_handle_data@@U__crt_internal_free_policy@@@@QAEXXZ 1005622f f i libucrt:osfinfo.obj
 0001:00055245       ___acrt_lowio_create_handle_array 10056245 f   libucrt:osfinfo.obj
 0001:000552dd       ___acrt_lowio_destroy_handle_array 100562dd f   libucrt:osfinfo.obj
 0001:0005531f       ___acrt_lowio_ensure_fh_exists 1005631f f   libucrt:osfinfo.obj
 0001:000553d8       ___acrt_lowio_lock_fh      100563d8 f   libucrt:osfinfo.obj
 0001:00055403       ___acrt_lowio_set_os_handle 10056403 f   libucrt:osfinfo.obj
 0001:000554bc       ___acrt_lowio_unlock_fh    100564bc f   libucrt:osfinfo.obj
 0001:000554e7       __alloc_osfhnd             100564e7 f   libucrt:osfinfo.obj
 0001:00055632       __free_osfhnd              10056632 f   libucrt:osfinfo.obj
 0001:000556e7       __get_osfhandle            100566e7 f   libucrt:osfinfo.obj
 0001:0005576b       __open_osfhandle           1005676b f   libucrt:osfinfo.obj
 0001:000558ba       __wcsnicmp                 100568ba f   libucrt:wcsnicmp.obj
 0001:00055997       __wcsnicmp_l               10056997 f   libucrt:wcsnicmp.obj
 0001:00055ad3       __strnicmp                 10056ad3 f   libucrt:strnicmp.obj
 0001:00055b5b       __strnicmp_l               10056b5b f   libucrt:strnicmp.obj
 0001:00055ce4       ??$__vcrt_va_start_verify_argument_type@$$CBH@@YAXXZ 10056ce4 f i libucrt:open.obj
 0001:00056055       ??$tsopen_nolock@PAHABQAHABQBDABHABHABHABH@?$__crt_char_traits@D@@SAH$$QAPAHABQAHABQBDABH333@Z 10057055 f i libucrt:open.obj
 0001:00056093       ??$tsopen_nolock@PAHABQAHABQB_WABHABHABHABH@?$__crt_char_traits@_W@@SAH$$QAPAHABQAHABQB_WABH333@Z 10057093 f i libucrt:open.obj
 0001:000560d1       ??$tsopen_nolock@PAHPAHABQBDABHHABHH@?$__crt_char_traits@D@@SAH$$QAPAH0ABQBDABH$$QAH23@Z 100570d1 f i libucrt:open.obj
 0001:0005610f       ??$tsopen_nolock@PAHPAHABQB_WABHHABHH@?$__crt_char_traits@_W@@SAH$$QAPAH0ABQB_WABH$$QAH23@Z 1005710f f i libucrt:open.obj
 0001:00056901       __open                     10057901 f   libucrt:open.obj
 0001:0005691f       __sopen                    1005791f f   libucrt:open.obj
 0001:00056961       __sopen_dispatch           10057961 f   libucrt:open.obj
 0001:0005696e       __sopen_nolock             1005796e f   libucrt:open.obj
 0001:000569fa       __sopen_s                  100579fa f   libucrt:open.obj
 0001:00056a22       __wopen                    10057a22 f   libucrt:open.obj
 0001:00056a40       __wsopen                   10057a40 f   libucrt:open.obj
 0001:00056a82       __wsopen_dispatch          10057a82 f   libucrt:open.obj
 0001:00056a8f       __wsopen_nolock            10057a8f f   libucrt:open.obj
 0001:00056e86       __wsopen_s                 10057e86 f   libucrt:open.obj
 0001:00056eae       ___p__commode              10057eae f   libucrt:ncommode.obj
 0001:00056eb4       __isatty                   10057eb4 f   libucrt:isatty.obj
 0001:00056f1f       ___acrt_stdio_allocate_buffer_nolock 10057f1f f   libucrt:_getbuf.obj
 0001:0005709b       __putwch                   1005809b f   libucrt:putwch.obj
 0001:000570d5       __putwch_nolock            100580d5 f   libucrt:putwch.obj
 0001:00057116       ___acrt_add_locale_ref     10058116 f   libucrt:locale_refcounting.obj
 0001:000571b2       ___acrt_free_locale        100581b2 f   libucrt:locale_refcounting.obj
 0001:0005734e       ___acrt_locale_add_lc_time_reference 1005834e f   libucrt:locale_refcounting.obj
 0001:00057381       ___acrt_locale_free_lc_time_if_unreferenced 10058381 f   libucrt:locale_refcounting.obj
 0001:000573bd       ___acrt_locale_release_lc_time_reference 100583bd f   libucrt:locale_refcounting.obj
 0001:000573f0       ___acrt_release_locale_ref 100583f0 f   libucrt:locale_refcounting.obj
 0001:00057491       ___acrt_update_thread_locale_data 10058491 f   libucrt:locale_refcounting.obj
 0001:00057525       __updatetlocinfoEx_nolock  10058525 f   libucrt:locale_refcounting.obj
 0001:00057589       ??$?RG@__crt_internal_free_policy@@QBEXQBG@Z 10058589 f i libucrt:initctype.obj
 0001:0005759f       ??$?RJ@__crt_internal_free_policy@@QBEXQBJ@Z 1005859f f i libucrt:initctype.obj
 0001:000575b5       ??0?$__crt_unique_heap_ptr@GU__crt_internal_free_policy@@@@QAE@QAG@Z 100585b5 f i libucrt:initctype.obj
 0001:000575c9       ??0?$__crt_unique_heap_ptr@JU__crt_internal_free_policy@@@@QAE@QAJ@Z 100585c9 f i libucrt:initctype.obj
 0001:000575dd       ??1?$__crt_unique_heap_ptr@GU__crt_internal_free_policy@@@@QAE@XZ 100585dd f i libucrt:initctype.obj
 0001:000575f3       ??1?$__crt_unique_heap_ptr@JU__crt_internal_free_policy@@@@QAE@XZ 100585f3 f i libucrt:initctype.obj
 0001:00057609       ?detach@?$__crt_unique_heap_ptr@GU__crt_internal_free_policy@@@@QAEPAGXZ 10058609 f i libucrt:initctype.obj
 0001:0005760f       ?detach@?$__crt_unique_heap_ptr@JU__crt_internal_free_policy@@@@QAEPAJXZ 1005860f f i libucrt:initctype.obj
 0001:00057615       ?release@?$__crt_unique_heap_ptr@GU__crt_internal_free_policy@@@@QAEXXZ 10058615 f i libucrt:initctype.obj
 0001:0005762b       ?release@?$__crt_unique_heap_ptr@JU__crt_internal_free_policy@@@@QAEXXZ 1005862b f i libucrt:initctype.obj
 0001:00057641       ____lc_codepage_func       10058641 f   libucrt:initctype.obj
 0001:00057671       ____lc_collate_cp_func     10058671 f   libucrt:initctype.obj
 0001:000576a1       ____lc_locale_name_func    100586a1 f   libucrt:initctype.obj
 0001:000576d4       ____mb_cur_max_func        100586d4 f   libucrt:initctype.obj
 0001:00057704       ____mb_cur_max_l_func      10058704 f   libucrt:initctype.obj
 0001:00057723       ___acrt_locale_initialize_ctype 10058723 f   libucrt:initctype.obj
 0001:00057c64       ??$?RUlconv@@@__crt_internal_free_policy@@QBEXQBUlconv@@@Z 10058c64 f i libucrt:initmon.obj
 0001:00057c7a       ??0?$__crt_unique_heap_ptr@Ulconv@@U__crt_internal_free_policy@@@@QAE@QAUlconv@@@Z 10058c7a f i libucrt:initmon.obj
 0001:00057c8e       ??1?$__crt_unique_heap_ptr@Ulconv@@U__crt_internal_free_policy@@@@QAE@XZ 10058c8e f i libucrt:initmon.obj
 0001:00057ca4       ?detach@?$__crt_unique_heap_ptr@Ulconv@@U__crt_internal_free_policy@@@@QAEPAUlconv@@XZ 10058ca4 f i libucrt:initmon.obj
 0001:00057caa       ?release@?$__crt_unique_heap_ptr@Ulconv@@U__crt_internal_free_policy@@@@QAEXXZ 10058caa f i libucrt:initmon.obj
 0001:00057cc0       ___acrt_locale_free_monetary 10058cc0 f   libucrt:initmon.obj
 0001:00057dfd       ___acrt_locale_initialize_monetary 10058dfd f   libucrt:initmon.obj
 0001:000582ea       ___acrt_locale_free_numeric 100592ea f   libucrt:initnum.obj
 0001:0005836d       ___acrt_locale_initialize_numeric 1005936d f   libucrt:initnum.obj
 0001:00058648       ??$?RU__crt_lc_time_data@@@__crt_internal_free_policy@@QBEXQBU__crt_lc_time_data@@@Z 10059648 f i libucrt:inittime.obj
 0001:000586e8       ??0?$__crt_unique_heap_ptr@U__crt_lc_time_data@@U__crt_internal_free_policy@@@@QAE@QAU__crt_lc_time_data@@@Z 100596e8 f i libucrt:inittime.obj
 0001:000586fc       ??1?$__crt_unique_heap_ptr@U__crt_lc_time_data@@U__crt_internal_free_policy@@@@QAE@XZ 100596fc f i libucrt:inittime.obj
 0001:00058712       ??B?$__crt_unique_heap_ptr@U__crt_lc_time_data@@U__crt_internal_free_policy@@@@QBE_NXZ 10059712 f i libucrt:inittime.obj
 0001:00058719       ?detach@?$__crt_unique_heap_ptr@U__crt_lc_time_data@@U__crt_internal_free_policy@@@@QAEPAU__crt_lc_time_data@@XZ 10059719 f i libucrt:inittime.obj
 0001:00058765       ?get@?$__crt_unique_heap_ptr@U__crt_lc_time_data@@U__crt_internal_free_policy@@@@QBEPAU__crt_lc_time_data@@XZ 10059765 f i libucrt:inittime.obj
 0001:00058afe       ?is_valid@?$__crt_unique_heap_ptr@U__crt_lc_time_data@@U__crt_internal_free_policy@@@@QBE_NXZ 10059afe f i libucrt:inittime.obj
 0001:00058b05       ?release@?$__crt_unique_heap_ptr@U__crt_lc_time_data@@U__crt_internal_free_policy@@@@QAEXXZ 10059b05 f i libucrt:inittime.obj
 0001:00058b1b       ___acrt_locale_free_time   10059b1b f   libucrt:inittime.obj
 0001:00058c38       ___acrt_locale_initialize_time 10059c38 f   libucrt:inittime.obj
 0001:00058cd1       _wcscspn                   10059cd1 f   libucrt:wcscspn.obj
 0001:00058d42       _wcspbrk                   10059d42 f   libucrt:wcspbrk.obj
 0001:00058da3       __wcsicmp                  10059da3 f   libucrt:wcsicmp.obj
 0001:00058e54       __wcsicmp_l                10059e54 f   libucrt:wcsicmp.obj
 0001:00058f68       ??0?$__crt_scoped_stack_ptr@_W@@QAE@U?$__crt_scoped_stack_ptr_tag@_W@@@Z 10059f68 f i libucrt:getstringtypea.obj
 0001:00058f7c       ??0?$__crt_scoped_stack_ptr_tag@_W@@QAE@QA_W@Z 10059f7c f i libucrt:getstringtypea.obj
 0001:00058f90       ??1?$__crt_scoped_stack_ptr@_W@@QAE@XZ 10059f90 f i libucrt:getstringtypea.obj
 0001:00058f9b       ?get@?$__crt_scoped_stack_ptr@_W@@QBEPA_WXZ 10059f9b f i libucrt:getstringtypea.obj
 0001:00058f9e       __MallocaComputeSize       10059f9e f i libucrt:getstringtypea.obj
 0001:00058fb5       __MarkAllocaS              10059fb5 f i libucrt:getstringtypea.obj
 0001:00058fd0       ___acrt_GetStringTypeA     10059fd0 f   libucrt:getstringtypea.obj
 0001:00059116       __freea_crt                1005a116 f i libucrt:getstringtypea.obj
 0001:00059a6d       ___acrt_get_qualified_locale 1005aa6d f   libucrt:get_qualified_locale.obj
 0001:0005a65b       ___acrt_get_qualified_locale_downlevel 1005b65b f   libucrt:getqloc_downlevel.obj
 0001:0005a8cf       _localeconv                1005b8cf f   libucrt:localeconv.obj
 0001:0005a903       ___iswcsym                 1005b903 f i libucrt:_wctype.obj
 0001:0005a932       ___iswcsymf                1005b932 f i libucrt:_wctype.obj
 0001:0005a961       __isleadbyte_l             1005b961 f i libucrt:_wctype.obj
 0001:0005a9a8       __iswalnum_l               1005b9a8 f i libucrt:_wctype.obj
 0001:0005a9c3       __iswalpha_l               1005b9c3 f i libucrt:_wctype.obj
 0001:0005a9de       __iswblank_l               1005b9de f i libucrt:_wctype.obj
 0001:0005aa02       __iswcntrl_l               1005ba02 f i libucrt:_wctype.obj
 0001:0005aa19       __iswcsym_l                1005ba19 f i libucrt:_wctype.obj
 0001:0005aa48       __iswcsymf_l               1005ba48 f i libucrt:_wctype.obj
 0001:0005aa77       __iswdigit_l               1005ba77 f i libucrt:_wctype.obj
 0001:0005aa8e       __iswgraph_l               1005ba8e f i libucrt:_wctype.obj
 0001:0005aaa9       __iswlower_l               1005baa9 f i libucrt:_wctype.obj
 0001:0005aac0       __iswprint_l               1005bac0 f i libucrt:_wctype.obj
 0001:0005aadb       __iswpunct_l               1005badb f i libucrt:_wctype.obj
 0001:0005aaf2       __iswspace_l               1005baf2 f i libucrt:_wctype.obj
 0001:0005ab09       __iswupper_l               1005bb09 f i libucrt:_wctype.obj
 0001:0005ab20       __iswxdigit_l              1005bb20 f i libucrt:_wctype.obj
 0001:0005ab3b       _isleadbyte                1005bb3b f i libucrt:_wctype.obj
 0001:0005ab52       _iswalnum                  1005bb52 f i libucrt:_wctype.obj
 0001:0005ab6d       _iswalpha                  1005bb6d f i libucrt:_wctype.obj
 0001:0005ab88       _iswascii                  1005bb88 f i libucrt:_wctype.obj
 0001:0005aba1       _iswblank                  1005bba1 f i libucrt:_wctype.obj
 0001:0005abc5       _iswcntrl                  1005bbc5 f i libucrt:_wctype.obj
 0001:0005abdc       _iswdigit                  1005bbdc f i libucrt:_wctype.obj
 0001:0005abf3       _iswgraph                  1005bbf3 f i libucrt:_wctype.obj
 0001:0005ac0e       _iswlower                  1005bc0e f i libucrt:_wctype.obj
 0001:0005ac25       _iswprint                  1005bc25 f i libucrt:_wctype.obj
 0001:0005ac40       _iswpunct                  1005bc40 f i libucrt:_wctype.obj
 0001:0005ac57       _iswspace                  1005bc57 f i libucrt:_wctype.obj
 0001:0005ac6e       _iswupper                  1005bc6e f i libucrt:_wctype.obj
 0001:0005ac85       _iswxdigit                 1005bc85 f i libucrt:_wctype.obj
 0001:0005aca0       ??B?$__crt_scoped_stack_ptr@_W@@QBE_NXZ 1005bca0 f i libucrt:lcmapstringa.obj
 0001:0005af0e       ___acrt_LCMapStringA       1005bf0e f   libucrt:lcmapstringa.obj
 0001:0005afa2       ?__mbrtowc_utf8@__crt_mbstring@@YAIPA_WPBDIPAU_Mbstatet@@@Z 1005bfa2 f   libucrt:mbrtowc.obj
 0001:0005aff4       ?__mbsrtowcs_utf8@__crt_mbstring@@YAIPA_WPAPBDIPAU_Mbstatet@@@Z 1005bff4 f   libucrt:mbrtowc.obj
 0001:0005b511       _btowc                     1005c511 f   libucrt:mbrtowc.obj
 0001:0005b581       _mbrlen                    1005c581 f   libucrt:mbrtowc.obj
 0001:0005b5c2       _mbrtowc                   1005c5c2 f   libucrt:mbrtowc.obj
 0001:0005b629       _mbsrtowcs                 1005c629 f   libucrt:mbrtowc.obj
 0001:0005b636       _mbsrtowcs_s               1005c636 f   libucrt:mbrtowc.obj
 0001:0005b701       ___acrt_fp_strflt_to_string 1005c701 f   libucrt:_fptostr.obj
 0001:0005d020       ??0big_integer@__crt_strtox@@QAE@ABU01@@Z 1005e020 f i libucrt:cfout.obj
 0001:0005d060       ??0big_integer@__crt_strtox@@QAE@XZ 1005e060 f i libucrt:cfout.obj
 0001:0005d0c0       ??4big_integer@__crt_strtox@@QAEAAU01@ABU01@@Z 1005e0c0 f i libucrt:cfout.obj
 0001:0005d100       ??8__crt_strtox@@YA_NABUbig_integer@0@0@Z 1005e100 f i libucrt:cfout.obj
 0001:0005d150       ??9__crt_strtox@@YA_NABUbig_integer@0@0@Z 1005e150 f i libucrt:cfout.obj
 0001:0005d1a0       ?add_carry@__crt_strtox@@YAIAAIII@Z 1005e1a0 f i libucrt:cfout.obj
 0001:0005d1d0       ?add_multiply_carry@__crt_strtox@@YAIAAIIII@Z 1005e1d0 f i libucrt:cfout.obj
 0001:0005d200       ?bit_scan_reverse@__crt_strtox@@YAII@Z 1005e200 f i libucrt:cfout.obj
 0001:0005d230       ?count_sequential_high_zeroes@__crt_strtox@@YAII@Z 1005e230 f i libucrt:cfout.obj
 0001:0005d260       ?divide@__crt_strtox@@YA_KAAUbig_integer@1@ABU21@@Z 1005e260 f i libucrt:cfout.obj
 0001:0005d810       ?is_zero@__crt_strtox@@YA_NABUbig_integer@1@@Z 1005e810 f i libucrt:cfout.obj
 0001:0005d830       ?make_big_integer@__crt_strtox@@YA?AUbig_integer@1@_K@Z 1005e830 f i libucrt:cfout.obj
 0001:0005d860       ?make_big_integer_power_of_two@__crt_strtox@@YA?AUbig_integer@1@I@Z 1005e860 f i libucrt:cfout.obj
 0001:0005d8c0       ?multiply@__crt_strtox@@YA_NAAUbig_integer@1@ABU21@@Z 1005e8c0 f i libucrt:cfout.obj
 0001:0005dcd0       ?multiply@__crt_strtox@@YA_NAAUbig_integer@1@I@Z 1005ecd0 f i libucrt:cfout.obj
 0001:0005ddd0       ?multiply_64_32@__crt_strtox@@YA_K_KI@Z 1005edd0 f i libucrt:cfout.obj
 0001:0005ddf0       ?multiply_by_power_of_ten@__crt_strtox@@YA_NAAUbig_integer@1@I@Z 1005edf0 f i libucrt:cfout.obj
 0001:0005e460       ?multiply_core@__crt_strtox@@YAIQAIII@Z 1005f460 f i libucrt:cfout.obj
 0001:0005e4b0       ?shift_left@__crt_strtox@@YA_NAAUbig_integer@1@I@Z 1005f4b0 f i libucrt:cfout.obj
 0001:0005e65b       ___acrt_fltout             1005f65b f   libucrt:cfout.obj
 0001:0005ff46       _nextafter                 10060f46 f   libucrt:nextafter.obj
 0001:00060080       _qsort                     10061080 f   libucrt:qsort.obj
 0001:000606b1       _strncpy_s                 100616b1 f   libucrt:strncpy_s.obj
 0001:000606c0       _strpbrk                   100616c0 f   libucrt:strpbrk.obj
 0001:00060710       ??$__acrt_convert_wcs_mbs@D_W$$A6AIPA_WPBDIPAU__crt_locale_pointers@@@ZU__crt_win32_buffer_internal_dynamic_resizing@@@@YAHQBDAAV?$__crt_win32_buffer@_WU__crt_win32_buffer_internal_dynamic_resizing@@@@A6AIPA_WPBDIPAU__crt_locale_pointers@@@Z4@Z 10061710 f i libucrt:findfirstfileexa.obj
 0001:000607d9       ??$__acrt_mbs_to_wcs@U__crt_win32_buffer_internal_dynamic_resizing@@@@YAHQBDAAV?$__crt_win32_buffer@_WU__crt_win32_buffer_internal_dynamic_resizing@@@@PAU__crt_locale_pointers@@@Z 100617d9 f i libucrt:findfirstfileexa.obj
 0001:000607fd       ?set_to_nullptr@?$__crt_win32_buffer@_WU__crt_win32_buffer_internal_dynamic_resizing@@@@QAEXXZ 100617fd f i libucrt:findfirstfileexa.obj
 0001:00060819       ___acrt_FindFirstFileExA   10061819 f   libucrt:findfirstfileexa.obj
 0001:00060898       ??$?0$0BAE@@?$__crt_win32_buffer@DU__crt_win32_buffer_no_resizing@@@@QAE@AAY0BAE@D@Z 10061898 f i libucrt:findnextfilea.obj
 0001:000608c7       ??$?0$0O@@?$__crt_win32_buffer@DU__crt_win32_buffer_no_resizing@@@@QAE@AAY0O@D@Z 100618c7 f i libucrt:findnextfilea.obj
 0001:000608f4       ??$__acrt_convert_wcs_mbs@_WD$$A6AIPADPB_WIPAU__crt_locale_pointers@@@ZU__crt_win32_buffer_no_resizing@@@@YAHQB_WAAV?$__crt_win32_buffer@DU__crt_win32_buffer_no_resizing@@@@A6AIPADPB_WIPAU__crt_locale_pointers@@@Z4@Z 100618f4 f i libucrt:findnextfilea.obj
 0001:000609be       ??$__acrt_wcs_to_mbs@U__crt_win32_buffer_no_resizing@@@@YAHQB_WAAV?$__crt_win32_buffer@DU__crt_win32_buffer_no_resizing@@@@PAU__crt_locale_pointers@@@Z 100619be f i libucrt:findnextfilea.obj
 0001:000609e2       ??1?$__crt_win32_buffer@DU__crt_win32_buffer_no_resizing@@@@QAE@XZ 100619e2 f i libucrt:findnextfilea.obj
 0001:000609ef       ?_deallocate@?$__crt_win32_buffer@DU__crt_win32_buffer_no_resizing@@@@AAEXXZ 100619ef f i libucrt:findnextfilea.obj
 0001:000609fc       ?allocate@?$__crt_win32_buffer@DU__crt_win32_buffer_no_resizing@@@@QAEHI@Z 100619fc f i libucrt:findnextfilea.obj
 0001:00060a2c       ?allocate@__crt_win32_buffer_no_resizing@@SAHQAPAXIABV__crt_win32_buffer_empty_debug_info@@@Z 10061a2c f i libucrt:findnextfilea.obj
 0001:00060a3c       ?capacity@?$__crt_win32_buffer@DU__crt_win32_buffer_no_resizing@@@@QBEIXZ 10061a3c f i libucrt:findnextfilea.obj
 0001:00060a40       ?data@?$__crt_win32_buffer@DU__crt_win32_buffer_no_resizing@@@@QAEPADXZ 10061a40 f i libucrt:findnextfilea.obj
 0001:00060a44       ?deallocate@__crt_win32_buffer_no_resizing@@SAXQAXABV__crt_win32_buffer_empty_debug_info@@@Z 10061a44 f i libucrt:findnextfilea.obj
 0001:00060a45       ?debug_info@?$__crt_win32_buffer@DU__crt_win32_buffer_no_resizing@@@@QBEABV__crt_win32_buffer_empty_debug_info@@XZ 10061a45 f i libucrt:findnextfilea.obj
 0001:00060a48       ?set_to_nullptr@?$__crt_win32_buffer@DU__crt_win32_buffer_no_resizing@@@@QAEXXZ 10061a48 f i libucrt:findnextfilea.obj
 0001:00060a61       ?size@?$__crt_win32_buffer@DU__crt_win32_buffer_no_resizing@@@@QAEXI@Z 10061a61 f i libucrt:findnextfilea.obj
 0001:00060a73       ___acrt_FindNextFileA      10061a73 f   libucrt:findnextfilea.obj
 0001:00060c04       __mbsdec                   10061c04 f   libucrt:mbsdec.obj
 0001:00060c20       __mbsdec_l                 10061c20 f   libucrt:mbsdec.obj
 0001:00060ce4       __wcsnicoll                10061ce4 f   libucrt:wcsnicol.obj
 0001:00060ddc       __wcsnicoll_l              10061ddc f   libucrt:wcsnicol.obj
 0001:00060f41       __strnicoll                10061f41 f   libucrt:strnicol.obj
 0001:00060f74       __strnicoll_l              10061f74 f   libucrt:strnicol.obj
 0001:00061070       ___acrt_SetEnvironmentVariableA 10062070 f   libucrt:setenvironmentvariablea.obj
 0001:0006113f       __msize                    1006213f f   libucrt:msize.obj
 0001:0006114c       __msize_base               1006214c f   libucrt:msize.obj
 0001:0006118b       ___acrt_GetStringTypeW     1006218b f   libucrt:getstringtypew.obj
 0001:000611aa       __towlower_l               100621aa f   libucrt:towlower.obj
 0001:000612a5       _towlower                  100622a5 f   libucrt:towlower.obj
 0001:000612c0       ___ascii_strnicmp          100622c0 f   libucrt:_strnicm.obj
 0001:00061339       ??$__crt_interlocked_read@H@@YAHPDH@Z 10062339 f i libucrt:setmode.obj
 0001:00061348       ?value@?$dual_state_global@H@__crt_state_management@@QAEAAHXZ 10062348 f i libucrt:setmode.obj
 0001:0006134b       __get_fmode                1006234b f   libucrt:setmode.obj
 0001:00061382       __set_fmode                10062382 f   libucrt:setmode.obj
 0001:000613ce       __setmode                  100623ce f   libucrt:setmode.obj
 0001:00061516       __setmode_nolock           10062516 f   libucrt:setmode.obj
 0001:000617a7       __chsize                   100627a7 f   libucrt:chsize.obj
 0001:000617ca       __chsize_nolock            100627ca f   libucrt:chsize.obj
 0001:000619bf       __chsize_s                 100629bf f   libucrt:chsize.obj
 0001:00061a97       __umask                    10062a97 f   libucrt:umask.obj
 0001:00061ac5       __umask_s                  10062ac5 f   libucrt:umask.obj
 0001:00061be8       ___dcrt_lowio_ensure_console_output_initialized 10062be8 f   libucrt:initcon.obj
 0001:00061c0e       ___dcrt_terminate_console_output 10062c0e f   libucrt:initcon.obj
 0001:00061c2a       ___dcrt_write_console      10062c2a f   libucrt:initcon.obj
 0001:00061dad       ___acrt_GetLocaleInfoA     10062dad f   libucrt:getlocaleinfoa.obj
 0001:00061fcb       ___strncnt                 10062fcb f   libucrt:strncnt.obj
 0001:00061fee       ?__mbrtoc32_utf8@__crt_mbstring@@YAIPA_UPBDIPAU_Mbstatet@@@Z 10062fee f   libucrt:mbrtoc32.obj
 0001:0006220f       ?reset_and_return@__crt_mbstring@@YAIIPAU_Mbstatet@@@Z 1006320f f i libucrt:mbrtoc32.obj
 0001:00062228       ?return_illegal_sequence@__crt_mbstring@@YAIPAU_Mbstatet@@@Z 10063228 f i libucrt:mbrtoc32.obj
 0001:0006224e       _mbrtoc32                  1006324e f   libucrt:mbrtoc32.obj
 0001:0006225b       _fegetenv                  1006325b f   libucrt:fegetenv.obj
 0001:0006227f       _fesetenv                  1006327f f   libucrt:fesetenv.obj
 0001:000622df       _feholdexcept              100632df f   libucrt:feholdexcept.obj
 0001:00062350       __CIlog10                  10063350 f   libucrt:log10_impl.obj
 0001:0006238b       __CIlog10_default          1006338b f   libucrt:log10_impl.obj
 0001:0006239f       __log10_default            1006339f     libucrt:log10_impl.obj
 0001:000624b0       _ceil                      100634b0 f   libucrt:ceil_pentium4.obj
 0001:000624f0       __ceil_pentium4            100634f0 f   libucrt:ceil_pentium4.obj
 0001:00062614       _nexttoward                10063614 f   libucrt:nexttoward.obj
 0001:00062b5c       __wcstombs_l               10063b5c f   libucrt:wcstombs.obj
 0001:00062b69       __wcstombs_s_l             10063b69 f   libucrt:wcstombs.obj
 0001:00062c69       _wcstombs                  10063c69 f   libucrt:wcstombs.obj
 0001:00062c89       _wcstombs_s                10063c89 f   libucrt:wcstombs.obj
 0001:00062cb1       ___acrt_CompareStringW     10063cb1 f   libucrt:comparestringw.obj
 0001:00063048       ___acrt_CompareStringA     10064048 f   libucrt:comparestringa.obj
 0001:000630a2       ___acrt_LCMapStringW       100640a2 f   libucrt:lcmapstringw.obj
 0001:000630ef       ___p__fmode                100640ef f   libucrt:txtmode.obj
 0001:000630f5       ??$__acrt_fenv_shift_bits@W4__acrt_fenv_abstract_control@@@@YA?AW4__acrt_fenv_abstract_control@@W40@0I@Z 100640f5 f i libucrt:_fenvutils.obj
 0001:0006310b       ??$__acrt_fenv_shift_bits@W4__acrt_fenv_abstract_status@@@@YA?AW4__acrt_fenv_abstract_status@@W40@0I@Z 1006410b f i libucrt:_fenvutils.obj
 0001:00063121       ??$__acrt_fenv_translate_bit@W4__acrt_fenv_abstract_control@@W4__acrt_fenv_machine_sse_control@@@@YA?AW4__acrt_fenv_abstract_control@@W4__acrt_fenv_machine_sse_control@@0W40@1@Z 10064121 f i libucrt:_fenvutils.obj
 0001:0006313f       ??$__acrt_fenv_translate_bit@W4__acrt_fenv_abstract_control@@W4__acrt_fenv_machine_x87_control@@@@YA?AW4__acrt_fenv_abstract_control@@W4__acrt_fenv_machine_x87_control@@0W40@1@Z 1006413f f i libucrt:_fenvutils.obj
 0001:0006315d       ??$__acrt_fenv_translate_bit@W4__acrt_fenv_abstract_status@@W4__acrt_fenv_machine_sse_status@@@@YA?AW4__acrt_fenv_abstract_status@@W4__acrt_fenv_machine_sse_status@@0W40@1@Z 1006415d f i libucrt:_fenvutils.obj
 0001:00063177       ??$__acrt_fenv_translate_bit@W4__acrt_fenv_abstract_status@@W4__acrt_fenv_machine_x87_status@@@@YA?AW4__acrt_fenv_abstract_status@@W4__acrt_fenv_machine_x87_status@@0W40@1@Z 10064177 f i libucrt:_fenvutils.obj
 0001:00063191       ??$__acrt_fenv_translate_bit@W4__acrt_fenv_machine_sse_control@@W4__acrt_fenv_abstract_control@@@@YA?AW4__acrt_fenv_machine_sse_control@@W4__acrt_fenv_abstract_control@@0W40@1@Z 10064191 f i libucrt:_fenvutils.obj
 0001:000631ad       ??$__acrt_fenv_translate_bit@W4__acrt_fenv_machine_sse_status@@W4__acrt_fenv_abstract_status@@@@YA?AW4__acrt_fenv_machine_sse_status@@W4__acrt_fenv_abstract_status@@0W40@1@Z 100641ad f i libucrt:_fenvutils.obj
 0001:000631c7       ??$__acrt_fenv_translate_bit@W4__acrt_fenv_machine_x87_control@@W4__acrt_fenv_abstract_control@@@@YA?AW4__acrt_fenv_machine_x87_control@@W4__acrt_fenv_abstract_control@@0W40@1@Z 100641c7 f i libucrt:_fenvutils.obj
 0001:000631e3       ??$__acrt_fenv_translate_bit@W4__acrt_fenv_machine_x87_status@@W4__acrt_fenv_abstract_status@@@@YA?AW4__acrt_fenv_machine_x87_status@@W4__acrt_fenv_abstract_status@@0W40@1@Z 100641e3 f i libucrt:_fenvutils.obj
 0001:000631fd       ??$__acrt_fenv_unshift_bits@W4__acrt_fenv_abstract_control@@@@YA?AW4__acrt_fenv_abstract_control@@W40@0I@Z 100641fd f i libucrt:_fenvutils.obj
 0001:00063213       ??$__acrt_fenv_unshift_bits@W4__acrt_fenv_abstract_status@@@@YA?AW4__acrt_fenv_abstract_status@@W40@0I@Z 10064213 f i libucrt:_fenvutils.obj
 0001:0006383e       ??I@YA?AW4__acrt_fenv_abstract_control@@W40@0@Z 1006483e f i libucrt:_fenvutils.obj
 0001:0006384e       ??I@YA?AW4__acrt_fenv_abstract_status@@W40@0@Z 1006484e f i libucrt:_fenvutils.obj
 0001:0006385e       ??I@YA?AW4__acrt_fenv_machine_sse_control@@W40@0@Z 1006485e f i libucrt:_fenvutils.obj
 0001:0006386e       ??I@YA?AW4__acrt_fenv_machine_sse_status@@W40@0@Z 1006486e f i libucrt:_fenvutils.obj
 0001:0006387e       ??I@YA?AW4__acrt_fenv_machine_x87_control@@W40@0@Z 1006487e f i libucrt:_fenvutils.obj
 0001:0006388e       ??I@YA?AW4__acrt_fenv_machine_x87_status@@W40@0@Z 1006488e f i libucrt:_fenvutils.obj
 0001:0006389e       ??U@YA?AW4__acrt_fenv_abstract_control@@W40@0@Z 1006489e f i libucrt:_fenvutils.obj
 0001:000638ae       ??U@YA?AW4__acrt_fenv_abstract_status@@W40@0@Z 100648ae f i libucrt:_fenvutils.obj
 0001:000638be       ??U@YA?AW4__acrt_fenv_machine_sse_control@@W40@0@Z 100648be f i libucrt:_fenvutils.obj
 0001:000638ce       ??U@YA?AW4__acrt_fenv_machine_x87_control@@W40@0@Z 100648ce f i libucrt:_fenvutils.obj
 0001:000638de       ??_5@YAAAW4__acrt_fenv_abstract_control@@AAW40@W40@@Z 100648de f i libucrt:_fenvutils.obj
 0001:000638f0       ??_5@YAAAW4__acrt_fenv_abstract_status@@AAW40@W40@@Z 100648f0 f i libucrt:_fenvutils.obj
 0001:00063902       ??_5@YAAAW4__acrt_fenv_machine_sse_control@@AAW40@W40@@Z 10064902 f i libucrt:_fenvutils.obj
 0001:00063917       ??_5@YAAAW4__acrt_fenv_machine_sse_status@@AAW40@W40@@Z 10064917 f i libucrt:_fenvutils.obj
 0001:00063929       ??_5@YAAAW4__acrt_fenv_machine_x87_control@@AAW40@W40@@Z 10064929 f i libucrt:_fenvutils.obj
 0001:0006393e       ??_5@YAAAW4__acrt_fenv_machine_x87_status@@AAW40@W40@@Z 1006493e f i libucrt:_fenvutils.obj
 0001:00063950       ?__acrt_fenv_shift_abstract_sse_control@@YA?AW4__acrt_fenv_abstract_control@@W41@@Z 10064950 f i libucrt:_fenvutils.obj
 0001:00063974       ?__acrt_fenv_shift_abstract_sse_status@@YA?AW4__acrt_fenv_abstract_status@@W41@@Z 10064974 f i libucrt:_fenvutils.obj
 0001:00063988       ?__acrt_fenv_shift_abstract_x87_control@@YA?AW4__acrt_fenv_abstract_control@@W41@@Z 10064988 f i libucrt:_fenvutils.obj
 0001:000639ac       ?__acrt_fenv_shift_abstract_x87_status@@YA?AW4__acrt_fenv_abstract_status@@W41@@Z 100649ac f i libucrt:_fenvutils.obj
 0001:000639c0       ?__acrt_fenv_unshift_abstract_sse_control@@YA?AW4__acrt_fenv_abstract_control@@W41@@Z 100649c0 f i libucrt:_fenvutils.obj
 0001:000639e6       ?__acrt_fenv_unshift_abstract_sse_status@@YA?AW4__acrt_fenv_abstract_status@@W41@@Z 100649e6 f i libucrt:_fenvutils.obj
 0001:000639fa       ?__acrt_fenv_unshift_abstract_x87_control@@YA?AW4__acrt_fenv_abstract_control@@W41@@Z 100649fa f i libucrt:_fenvutils.obj
 0001:00063a20       ?__acrt_fenv_unshift_abstract_x87_status@@YA?AW4__acrt_fenv_abstract_status@@W41@@Z 10064a20 f i libucrt:_fenvutils.obj
 0001:000640d7       ___acrt_fenv_expand_round_control 100650d7 f   libucrt:_fenvutils.obj
 0001:0006411a       ___acrt_fenv_get_common_round_control 1006511a f   libucrt:_fenvutils.obj
 0001:00064144       ___acrt_fenv_get_control   10065144 f   libucrt:_fenvutils.obj
 0001:000641e6       ___acrt_fenv_get_fp_status_word_from_exception_mask 100651e6 f   libucrt:_fenvutils.obj
 0001:00064206       ___acrt_fenv_get_status    10065206 f   libucrt:_fenvutils.obj
 0001:000642f8       ___acrt_fenv_set_control   100652f8 f   libucrt:_fenvutils.obj
 0001:0006437c       ___acrt_fenv_set_status    1006537c f   libucrt:_fenvutils.obj
 0001:00064648       ___control87_2             10065648 f   libucrt:ieee87.obj
 0001:00064c14       ___fpreset_sse2            10065c14 f   libucrt:ieee87.obj
 0001:00064e5d       __clearfp                  10065e5d f   libucrt:ieee87.obj
 0001:00064f75       __control87                10065f75 f   libucrt:ieee87.obj
 0001:00065333       __controlfp                10066333 f   libucrt:ieee87.obj
 0001:00065353       __fpreset                  10066353 f   libucrt:ieee87.obj
 0001:00065456       __set_controlfp            10066456 f   libucrt:ieee87.obj
 0001:000654ec       __statusfp                 100664ec f   libucrt:ieee87.obj
 0001:000655b0       __statusfp2                100665b0 f   libucrt:ieee87.obj
 0001:0006562e       ___acrt_initialize_sse2    1006662e f   libucrt:mathfcns.obj
 0001:00065642       __set_SSE2_enable          10066642 f   libucrt:mathfcns.obj
 0001:00065670       __CIlog10_pentium4         10066670 f   libucrt:log10_pentium4.obj
 0001:00065688       __log10_pentium4           10066688     libucrt:log10_pentium4.obj
 0001:000659d0       __fFEXP                    100669d0 f   libucrt:87tran.obj
 0001:00065a27       __rtinfpopse               10066a27     libucrt:87tran.obj
 0001:00065a29       __rtinfnpopse              10066a29     libucrt:87tran.obj
 0001:00065a39       __fFLN                     10066a39     libucrt:87tran.obj
 0001:00065aee       __rtinfpop                 10066aee     libucrt:87tran.obj
 0001:00065af0       __rtinfnpop                10066af0     libucrt:87tran.obj
 0001:00065b00       __rtforexpinf              10066b00 f   libucrt:87tran.obj
 0001:00065b0d       __ffexpm1                  10066b0d     libucrt:87tran.obj
 0001:00065c40       __trandisp1                10066c40 f   libucrt:87disp.obj
 0001:00065cb5       __trandisp2                10066cb5 f   libucrt:87disp.obj
 0001:00065d4f       __rttospopde               10066d4f     libucrt:87disp.obj
 0001:00065d54       __rttospop                 10066d54     libucrt:87disp.obj
 0001:00065d60       __rtnospop                 10066d60 f   libucrt:87disp.obj
 0001:00065d70       __rttosnpop                10066d70 f   libucrt:87disp.obj
 0001:00065d71       __rtnospopde               10066d71     libucrt:87disp.obj
 0001:00065d78       __rtzeropop                10066d78     libucrt:87disp.obj
 0001:00065d7a       __rtzeronpop               10066d7a     libucrt:87disp.obj
 0001:00065d80       __rtzerospop               10066d80 f   libucrt:87disp.obj
 0001:00065d8d       __rtonepop                 10066d8d     libucrt:87disp.obj
 0001:00065d90       __rtonenpop                10066d90 f   libucrt:87disp.obj
 0001:00065da0       __tosnan1                  10066da0 f   libucrt:87disp.obj
 0001:00065dd0       __nosnan2                  10066dd0 f   libucrt:87disp.obj
 0001:00065de0       __tosnan2                  10066de0 f   libucrt:87disp.obj
 0001:00065e10       __nan2                     10066e10 f   libucrt:87disp.obj
 0001:00065e50       __rtindfpop                10066e50 f   libucrt:87disp.obj
 0001:00065e52       __rtindfnpop               10066e52     libucrt:87disp.obj
 0001:00065e63       __rttosnpopde              10066e63     libucrt:87disp.obj
 0001:00065e70       __rtatan2inf               10066e70 f   libucrt:87disp.obj
 0001:00065e8d       __rtchsifneg               10066e8d     libucrt:87disp.obj
 0001:00065f29       ___setfflag                10066f29 f   libucrt:fp_flags.obj
 0001:00065f50       __twoToTOS                 10066f50 f   libucrt:common.obj
 0001:00065f65       __load_CW                  10066f65 f   libucrt:common.obj
 0001:00065f7c       __convertTOStoQNaN         10066f7c f   libucrt:common.obj
 0001:00065f95       __fload_withFB             10066f95 f   libucrt:common.obj
 0001:00065fd8       __checkTOS_withFB          10066fd8 f   libucrt:common.obj
 0001:00065fee       __fast_exit                10066fee f   libucrt:common.obj
 0001:00065ffb       __math_exit                10066ffb f   libucrt:common.obj
 0001:00066025       __check_overflow_exit      10067025 f   libucrt:common.obj
 0001:00066039       __check_range_exit         10067039 f   libucrt:common.obj
 0001:00066140       __startTwoArgErrorHandling 10067140 f   libucrt:genexcep.obj
 0001:00066157       __startOneArgErrorHandling 10067157 f   libucrt:genexcep.obj
 0001:000661a7       ___libm_error_support      100671a7 f   libucrt:libm_error.obj
 0001:00066445       ___libm_setusermatherr     10067445 f   libucrt:libm_error.obj
 0001:00066475       __ceil_default             10067475 f   libucrt:ceil.obj
 0001:000665f2       __d_int                    100675f2 f   libucrt:_test.obj
 0001:0006673c       __dtest                    1006773c f   libucrt:_test.obj
 0001:000667b9       __fd_int                   100677b9 f   libucrt:_test.obj
 0001:000668bb       __fdtest                   100678bb f   libucrt:_test.obj
 0001:0006691c       __fperrraise               1006791c f   libucrt:_test.obj
 0001:00066947       __ld_int                   10067947 f   libucrt:_test.obj
 0001:00066954       __ldtest                   10067954 f   libucrt:_test.obj
 0001:00066961       ?__wcsrtombs_utf8@__crt_mbstring@@YAIPADPAPB_WIPAU_Mbstatet@@@Z 10067961 f   libucrt:wcrtomb.obj
 0001:00066e0b       _wcrtomb                   10067e0b f   libucrt:wcrtomb.obj
 0001:00066e48       _wcrtomb_s                 10067e48 f   libucrt:wcrtomb.obj
 0001:00066edf       _wcsrtombs                 10067edf f   libucrt:wcrtomb.obj
 0001:00066eec       _wcsrtombs_s               10067eec f   libucrt:wcrtomb.obj
 0001:00066fab       _wctob                     10067fab f   libucrt:wcrtomb.obj
 0001:0006701f       __controlfp_s              1006801f f   libucrt:contrlfp.obj
 0001:00067095       __d_inttype                10068095 f   libucrt:powhlp.obj
 0001:00067119       __powhlp                   10068119 f   libucrt:powhlp.obj
 0001:0006728e       __87except                 1006828e f   libucrt:87except.obj
 0001:000673da       __frnd                     100683da f   libucrt:frnd.obj
 0001:000673f5       ??_4@YAAAW4__acrt_fenv_abstract_status@@AAW40@W40@@Z 100683f5 f i libucrt:fegetexceptflag.obj
 0001:00067407       _fegetexceptflag           10068407 f   libucrt:fegetexceptflag.obj
 0001:00067444       ??S@YA?AW4__acrt_fenv_abstract_status@@W40@@Z 10068444 f i libucrt:fesetexceptflag.obj
 0001:00067453       _fesetexceptflag           10068453 f   libucrt:fesetexceptflag.obj
 0001:000674c2       ?__c16rtomb_utf8@__crt_mbstring@@YAIPAD_SPAU_Mbstatet@@@Z 100684c2 f   libucrt:c16rtomb.obj
 0001:0006761a       _c16rtomb                  1006861a f   libucrt:c16rtomb.obj
 0001:00067627       _fetestexcept              10068627 f   libucrt:fetestexcept.obj
 0001:00067651       ?__c32rtomb_utf8@__crt_mbstring@@YAIPAD_UPAU_Mbstatet@@@Z 10068651 f   libucrt:c32rtomb.obj
 0001:0006772b       _c32rtomb                  1006872b f   libucrt:c32rtomb.obj
 0001:00067740       __FindPESection            10068740 f   LIBCMT:pesect.obj
 0001:000677a0       __IsNonwritableInCurrentImage 100687a0 f   LIBCMT:pesect.obj
 0001:00067890       __ValidateImageBase        10068890 f   LIBCMT:pesect.obj
 0001:000678cf       __EH_epilog3               100688cf f   LIBCMT:ehprolg3.obj
 0001:000678e9       __EH_epilog3_GS            100688e9 f   LIBCMT:ehprolg3.obj
 0001:000678fe       __EH_epilog3_catch_GS      100688fe f   LIBCMT:ehprolg3.obj
 0001:00067913       __EH_prolog3               10068913 f   LIBCMT:ehprolg3.obj
 0001:00067954       __EH_prolog3_GS            10068954 f   LIBCMT:ehprolg3.obj
 0001:00067998       __EH_prolog3_catch         10068998 f   LIBCMT:ehprolg3.obj
 0001:000679dc       __EH_prolog3_catch_GS      100689dc f   LIBCMT:ehprolg3.obj
 0001:00067a30       __aulldvrm                 10068a30 f   LIBCMT:ulldvrm.obj
 0001:00067aea       ??1type_info@@UAE@XZ       10068aea f   LIBCMT:std_type_info_static.obj
 0001:00067af1       ??_Gtype_info@@UAEPAXI@Z   10068af1 f i LIBCMT:std_type_info_static.obj
 0001:00067af1       ??_Etype_info@@UAEPAXI@Z   10068af1 f i LIBCMT:std_type_info_static.obj
 0001:00067b1c       ??3@YAXPAXI@Z              10068b1c f   LIBCMT:delete_scalar_size.obj
 0001:00067b30       __SEH_prolog4_GS           10068b30 f   LIBCMT:sehprolg4gs.obj
 0001:00067b79       __SEH_epilog4_GS           10068b79 f   LIBCMT:sehprolg4gs.obj
 0001:00067ba0       __allmul                   10068ba0 f   LIBCMT:llmul.obj
 0001:00067bf0       __chkstk                   10068bf0 f   LIBCMT:chkstk.obj
 0001:00067bf0       __alloca_probe             10068bf0 f   LIBCMT:chkstk.obj
 0001:00067c30       __alldvrm                  10068c30 f   LIBCMT:lldvrm.obj
 0001:00067d50       __aullshr                  10068d50 f   LIBCMT:ullshr.obj
 0001:00067d80       __alloca_probe_16          10068d80 f   LIBCMT:alloca16.obj
 0001:00067d96       __alloca_probe_8           10068d96     LIBCMT:alloca16.obj
 0001:00067dc0       __allshl                   10068dc0 f   LIBCMT:llshl.obj
 0001:00067df0       __ftol2_sse                10068df0 f   LIBCMT:ftol2.obj
 0001:00067df9       __ftol2_pentium4           10068df9 f   LIBCMT:ftol2.obj
 0001:00067e0c       __ftol2_sse_excpt          10068e0c f   LIBCMT:ftol2.obj
 0001:00067e30       __ftol2                    10068e30 f   LIBCMT:ftol2.obj
 0001:00067ed2       __initialize_default_precision 10068ed2 f   LIBCMT:default_precision.obj
 0001:00067efb       ??3@YAXPAX@Z               10068efb f   LIBCMT:delete_scalar.obj
 0001:00067f00       _InterlockedPushEntrySList@8 10068f00 f   kernel32:KERNEL32.dll
 0001:00067f06       _InterlockedFlushSList@4   10068f06 f   kernel32:KERNEL32.dll
 0001:00067f0c       _RtlUnwind@16              10068f0c f   kernel32:KERNEL32.dll
 0001:00067f12       _GetLastError@0            10068f12 f   kernel32:KERNEL32.dll
 0001:00067f18       _SetLastError@4            10068f18 f   kernel32:KERNEL32.dll
 0001:00067f1e       _EnterCriticalSection@4    10068f1e f   kernel32:KERNEL32.dll
 0001:00067f24       _LeaveCriticalSection@4    10068f24 f   kernel32:KERNEL32.dll
 0001:00067f2a       _DeleteCriticalSection@4   10068f2a f   kernel32:KERNEL32.dll
 0001:00067f30       _InitializeCriticalSectionAndSpinCount@8 10068f30 f   kernel32:KERNEL32.dll
 0001:00067f36       _TlsAlloc@0                10068f36 f   kernel32:KERNEL32.dll
 0001:00067f3c       _TlsGetValue@4             10068f3c f   kernel32:KERNEL32.dll
 0001:00067f42       _TlsSetValue@8             10068f42 f   kernel32:KERNEL32.dll
 0001:00067f48       _TlsFree@4                 10068f48 f   kernel32:KERNEL32.dll
 0001:00067f4e       _FreeLibrary@4             10068f4e f   kernel32:KERNEL32.dll
 0001:00067f54       _LoadLibraryExW@12         10068f54 f   kernel32:KERNEL32.dll
 0001:00067f5a       _EncodePointer@4           10068f5a f   kernel32:KERNEL32.dll
 0001:00067f60       _RaiseException@16         10068f60 f   kernel32:KERNEL32.dll
 0001:00067f66       _GetStdHandle@4            10068f66 f   kernel32:KERNEL32.dll
 0001:00067f6c       _GetFileType@4             10068f6c f   kernel32:KERNEL32.dll
 0001:00067f72       _GetModuleFileNameW@12     10068f72 f   kernel32:KERNEL32.dll
 0001:00067f78       _GetModuleHandleExW@12     10068f78 f   kernel32:KERNEL32.dll
 0001:00067f7e       _WriteConsoleW@20          10068f7e f   kernel32:KERNEL32.dll
 0001:00067f84       _ExitProcess@4             10068f84 f   kernel32:KERNEL32.dll
 0001:00067f8a       _HeapAlloc@12              10068f8a f   kernel32:KERNEL32.dll
 0001:00067f90       _HeapFree@12               10068f90 f   kernel32:KERNEL32.dll
 0001:00067f96       _WriteFile@20              10068f96 f   kernel32:KERNEL32.dll
 0001:00067f9c       _OutputDebugStringW@4      10068f9c f   kernel32:KERNEL32.dll
 0001:00067fa2       _SetConsoleCtrlHandler@8   10068fa2 f   kernel32:KERNEL32.dll
 0001:00067fa8       _HeapReAlloc@16            10068fa8 f   kernel32:KERNEL32.dll
 0001:00067fae       _GetDateFormatW@24         10068fae f   kernel32:KERNEL32.dll
 0001:00067fb4       _GetTimeFormatW@24         10068fb4 f   kernel32:KERNEL32.dll
 0001:00067fba       _CompareStringW@24         10068fba f   kernel32:KERNEL32.dll
 0001:00067fc0       _LCMapStringW@24           10068fc0 f   kernel32:KERNEL32.dll
 0001:00067fc6       _GetLocaleInfoW@16         10068fc6 f   kernel32:KERNEL32.dll
 0001:00067fcc       _IsValidLocale@8           10068fcc f   kernel32:KERNEL32.dll
 0001:00067fd2       _GetUserDefaultLCID@0      10068fd2 f   kernel32:KERNEL32.dll
 0001:00067fd8       _EnumSystemLocalesW@8      10068fd8 f   kernel32:KERNEL32.dll
 0001:00067fde       _CloseHandle@4             10068fde f   kernel32:KERNEL32.dll
 0001:00067fe4       _ReadFile@20               10068fe4 f   kernel32:KERNEL32.dll
 0001:00067fea       _GetConsoleMode@8          10068fea f   kernel32:KERNEL32.dll
 0001:00067ff0       _ReadConsoleW@20           10068ff0 f   kernel32:KERNEL32.dll
 0001:00067ff6       _GetConsoleCP@0            10068ff6 f   kernel32:KERNEL32.dll
 0001:00067ffc       _MultiByteToWideChar@24    10068ffc f   kernel32:KERNEL32.dll
 0001:00068002       _GetCurrentThread@0        10069002 f   kernel32:KERNEL32.dll
 0001:00068008       _DeleteFileW@4             10069008 f   kernel32:KERNEL32.dll
 0001:0006800e       _SetFilePointerEx@20       1006900e f   kernel32:KERNEL32.dll
 0001:00068014       _FindClose@4               10069014 f   kernel32:KERNEL32.dll
 0001:0006801a       _FindFirstFileExW@24       1006901a f   kernel32:KERNEL32.dll
 0001:00068020       _FindNextFileW@8           10069020 f   kernel32:KERNEL32.dll
 0001:00068026       _IsValidCodePage@4         10069026 f   kernel32:KERNEL32.dll
 0001:0006802c       _GetACP@0                  1006902c f   kernel32:KERNEL32.dll
 0001:00068032       _GetOEMCP@0                10069032 f   kernel32:KERNEL32.dll
 0001:00068038       _GetCPInfo@8               10069038 f   kernel32:KERNEL32.dll
 0001:0006803e       _GetCommandLineA@0         1006903e f   kernel32:KERNEL32.dll
 0001:00068044       _GetCommandLineW@0         10069044 f   kernel32:KERNEL32.dll
 0001:0006804a       _WideCharToMultiByte@32    1006904a f   kernel32:KERNEL32.dll
 0001:00068050       _GetEnvironmentStringsW@0  10069050 f   kernel32:KERNEL32.dll
 0001:00068056       _FreeEnvironmentStringsW@4 10069056 f   kernel32:KERNEL32.dll
 0001:0006805c       _SetEnvironmentVariableW@8 1006905c f   kernel32:KERNEL32.dll
 0001:00068062       _GetProcessHeap@0          10069062 f   kernel32:KERNEL32.dll
 0001:00068068       _FlushFileBuffers@4        10069068 f   kernel32:KERNEL32.dll
 0001:0006806e       _SetStdHandle@8            1006906e f   kernel32:KERNEL32.dll
 0001:00068074       _CreateFileW@28            10069074 f   kernel32:KERNEL32.dll
 0001:0006807a       _GetStringTypeW@16         1006907a f   kernel32:KERNEL32.dll
 0001:00068080       _HeapSize@12               10069080 f   kernel32:KERNEL32.dll
 0001:00068086       _SetEndOfFile@4            10069086 f   kernel32:KERNEL32.dll
 0001:0006808c       _DecodePointer@4           1006908c f   kernel32:KERNEL32.dll
 0001:000681c3       _memcmp                    100691c3 f   libvcruntime:memcmp.obj
 0001:0006a6b0       _strrchr                   1006b6b0 f   libvcruntime:strrchr.obj
 0001:0006a834       _wcschr                    1006b834 f   libvcruntime:wcschr.obj
 0002:00000000       ___xc_a                    10070000     LIBCMT:initializers.obj
 0002:00000104       ___xc_z                    10070104     LIBCMT:initializers.obj
 0002:00000208       ___xi_a                    10070208     LIBCMT:initializers.obj
 0002:0000030c       ___acrt_stdio_initializer  1007030c     libucrt:stdio_initializer.obj
 0002:00000310       ___acrt_multibyte_initializer 10070310     libucrt:multibyte_initializer.obj
 0002:00000314       ___acrt_tran_sse2_initializer 10070314     libucrt:sse2_initializer.obj
 0002:0000041c       ___xi_z                    1007041c     LIBCMT:initializers.obj
 0002:00000520       ___xp_a                    10070520     LIBCMT:initializers.obj
 0002:00000624       ___acrt_locale_terminator  10070624     libucrt:locale_initializer.obj
 0002:00000628       ___dcrt_console_output_terminator 10070628     libucrt:console_output_initializer.obj
 0002:00000730       ___acrt_stdio_terminator   10070730     libucrt:stdio_initializer.obj
 0002:00000834       ___xp_z                    10070834     LIBCMT:initializers.obj
 0002:00000938       ___xt_a                    10070938     LIBCMT:initializers.obj
 0002:00000a3c       ___xt_z                    10070a3c     LIBCMT:initializers.obj
 0002:00000b40       _homing_M                  10070b40     homing.obj
 0002:00000b44       ??_C@_0BC@OJJPBDHH@FixedStepDiscrete@ 10070b44     homing.obj
 0002:00000b5c       ??_C@_04EPKDLPPB@tout@     10070b5c     homing.obj
 0002:00000b62       ??_C@_00CNPNBAHC@@         10070b62     homing.obj
 0002:00000b64       ??_C@_03HBFGMJOD@rt_@      10070b64     homing.obj
 0002:00000b68       ??_C@_0M@IJCNLJFC@PCI?96229?5DI@ 10070b68     homing.obj
 0002:00000b78       ??_C@_0BD@MFLMMCJ@homing?1PCI?96229?5DI@ 10070b78     homing.obj
 0002:00000b90       ??_C@_0P@KEKPFIMK@PCI?56229?5ENC?52@ 10070b90     homing.obj
 0002:00000ba4       ??_C@_0BG@BHCFIGEE@homing?1PCI?56229?5ENC?52@ 10070ba4     homing.obj
 0002:00000bc0       ??_C@_0P@LNLEGJIL@PCI?56229?5ENC?53@ 10070bc0     homing.obj
 0002:00000bd4       ??_C@_0BG@ODOLHAF@homing?1PCI?56229?5ENC?53@ 10070bd4     homing.obj
 0002:00000bf0       ??_C@_0N@DANFLPCO@PCI?96229?5DA4@ 10070bf0     homing.obj
 0002:00000c00       ??_C@_0BE@PHIHGBOP@homing?1PCI?96229?5DA4@ 10070c00     homing.obj
 0002:00000c18       ??_C@_0N@CJMOIOGP@PCI?96229?5DA5@ 10070c18     homing.obj
 0002:00000c28       ??_C@_0BE@OOJMFAKO@homing?1PCI?96229?5DA5@ 10070c28     homing.obj
 0002:00000c40       ??_C@_0N@EHDMGGGB@PCI?96229?5DO1@ 10070c40     homing.obj
 0002:00000c50       ??_C@_0BE@IAGOLIKA@homing?1PCI?96229?5DO1@ 10070c50     homing.obj
 0002:00000c68       ??_C@_0O@LGELPGOG@PCI?56229?5ENC?5@ 10070c68     homing.obj
 0002:00000c78       ??_C@_0BF@FKOPFGBO@homing?1PCI?56229?5ENC?5@ 10070c78     homing.obj
 0002:00000c94       ??_C@_0P@IPICALAJ@PCI?56229?5ENC?51@ 10070c94     homing.obj
 0002:00000ca8       ??_C@_0BG@DMAINFIH@homing?1PCI?56229?5ENC?51@ 10070ca8     homing.obj
 0002:00000cc8       __real@3f50624dd2f1a9fc    10070cc8     homing.obj
 0002:00000cd8       __real@3fe0000000000000    10070cd8     homing.obj
 0002:00000ce8       __real@3ff0000000000000    10070ce8     homing.obj
 0002:00000cf8       __real@3ff4cccccccccccd    10070cf8     homing.obj
 0002:00000d08       __real@400199999999999a    10070d08     homing.obj
 0002:00000d18       __real@41f0000000000000    10070d18     homing.obj
 0002:00000d28       __real@bff0000000000000    10070d28     homing.obj
 0002:00000d38       __real@bff4cccccccccccd    10070d38     homing.obj
 0002:00000d48       __real@c00199999999999a    10070d48     homing.obj
 0002:00000d60       __xmm@00000000000000003f50624dd2f1a9fc 10070d60     homing.obj
 0002:00000d80       __xmm@000000e2000000290000003c00000001 10070d80     homing.obj
 0002:00000da0       __xmm@3ff00000000000000000000000000000 10070da0     homing.obj
 0002:00000dc0       __xmm@41f00000000000000000000000000000 10070dc0     homing.obj
 0002:00000de0       __xmm@7fffffffffffffff7fffffffffffffff 10070de0     homing.obj
 0002:00000df8       __real@3cb0000000000000    10070df8     rt_matrx.obj
 0002:00001c34       ??_C@_08PAGDBCID@Chart?1p1@ 10071c34     homing_capi.obj
 0002:00001c40       ??_C@_08NLEOEBEA@Chart?1p2@ 10071c40     homing_capi.obj
 0002:00001c4c       ??_C@_08MCFFHAAB@Chart?1p3@ 10071c4c     homing_capi.obj
 0002:00001c58       ??_C@_08INBEOGMG@Chart?1p4@ 10071c58     homing_capi.obj
 0002:00001c64       ??_C@_08JEAPNHIH@Chart?1p5@ 10071c64     homing_capi.obj
 0002:00001c70       ??_C@_08LPCCIEEE@Chart?1p6@ 10071c70     homing_capi.obj
 0002:00001c7c       ??_C@_09IIHOELEE@Constant1@ 10071c7c     homing_capi.obj
 0002:00001c88       ??_C@_04OMOMKKFL@Gain@     10071c88     homing_capi.obj
 0002:00001c90       ??_C@_0BD@EPFMCPOH@posizione?5motore?5x@ 10071c90     homing_capi.obj
 0002:00001ca8       ??_C@_05DKAIGDGE@Gain1@    10071ca8     homing_capi.obj
 0002:00001cb0       ??_C@_0BF@HBPOPMFC@posizione?5carrello?5y@ 10071cb0     homing_capi.obj
 0002:00001ccc       ??_C@_05BBCFDAKH@Gain2@    10071ccc     homing_capi.obj
 0002:00001cd4       ??_C@_0BD@FGEHBOKG@posizione?5motore?5y@ 10071cd4     homing_capi.obj
 0002:00001cec       ??_C@_05IDOABOG@Gain3@     10071cec     homing_capi.obj
 0002:00001cf4       ??_C@_0BF@GIOFMNBD@posizione?5carrello?5x@ 10071cf4     homing_capi.obj
 0002:00001d10       ??_C@_05EHHPJHCB@Gain4@    10071d10     homing_capi.obj
 0002:00001d18       ??_C@_05GMFCMEOC@Gain7@    10071d18     homing_capi.obj
 0002:00001d20       ??_C@_05OLMKNICN@Gain8@    10071d20     homing_capi.obj
 0002:00001d28       ??_C@_05PCNBOJGM@Gain9@    10071d28     homing_capi.obj
 0002:00001d30       ??_C@_0BB@CMNBNJBK@pozione?5motore?5y@ 10071d30     homing_capi.obj
 0002:00001d44       ??_C@_0P@HFBNGDFJ@PCI?96229?5DI?1p1@ 10071d44     homing_capi.obj
 0002:00001d58       ??_C@_07OJGKPLCD@fc?5x?5sx@ 10071d58     homing_capi.obj
 0002:00001d64       ??_C@_0P@FODADAJK@PCI?96229?5DI?1p2@ 10071d64     homing_capi.obj
 0002:00001d78       ??_C@_07PAADEONG@fc?5x?5dx@ 10071d78     homing_capi.obj
 0002:00001d84       ??_C@_0P@EHCLABNL@PCI?96229?5DI?1p3@ 10071d84     homing_capi.obj
 0002:00001d98       ??_C@_09CNJIBEEI@fc?5y?5high@ 10071d98     homing_capi.obj
 0002:00001da4       ??_C@_0P@IGKJHBM@PCI?96229?5DI?1p4@ 10071da4     homing_capi.obj
 0002:00001db8       ??_C@_09IHHPKCGD@fc?5y?5down@ 10071db8     homing_capi.obj
 0002:00001dc4       ??_C@_04LHPAOBFF@Sum2@     10071dc4     homing_capi.obj
 0002:00001dcc       ??_C@_04KOOLNABE@Sum3@     10071dcc     homing_capi.obj
 0002:00001dd4       ??_C@_0N@BLFBKHKN@Dot?5Product3@ 10071dd4     homing_capi.obj
 0002:00001de4       ??_C@_0N@FEBADBGK@Dot?5Product4@ 10071de4     homing_capi.obj
 0002:00001df4       ??_C@_0N@ENALAACL@Dot?5Product5@ 10071df4     homing_capi.obj
 0002:00001e04       ??_C@_0N@GGCGFDOI@Dot?5Product6@ 10071e04     homing_capi.obj
 0002:00001e14       ??_C@_0BJ@CPBFEPCF@Discrete?5Derivative?1Diff@ 10071e14     homing_capi.obj
 0002:00001e34       ??_C@_0BK@BNNBMNBK@Discrete?5Derivative?1TSamp@ 10071e34     homing_capi.obj
 0002:00001e54       ??_C@_0BH@MAOHMDCI@Discrete?5Derivative?1UD@ 10071e54     homing_capi.obj
 0002:00001e70       ??_C@_06CFNEEADJ@U?$CIk?91?$CJ@ 10071e70     homing_capi.obj
 0002:00001e78       ??_C@_0BK@EMGMOOMA@Discrete?5Derivative1?1Diff@ 10071e78     homing_capi.obj
 0002:00001e98       ??_C@_0BL@MNNCKCEM@Discrete?5Derivative1?1TSamp@ 10071e98     homing_capi.obj
 0002:00001eb8       ??_C@_0BI@GHNGGFGE@Discrete?5Derivative1?1UD@ 10071eb8     homing_capi.obj
 0002:00001ed4       ??_C@_0BK@HNIEPEFN@Discrete?5Derivative2?1Diff@ 10071ed4     homing_capi.obj
 0002:00001ef4       ??_C@_0BL@EDFNKFKP@Discrete?5Derivative2?1TSamp@ 10071ef4     homing_capi.obj
 0002:00001f14       ??_C@_0BI@CAHGBPLE@Discrete?5Derivative2?1UD@ 10071f14     homing_capi.obj
 0002:00001f30       ??_C@_0BK@NLPDPPOJ@Discrete?5Derivative3?1Diff@ 10071f30     homing_capi.obj
 0002:00001f50       ??_C@_0BL@IPPHKFDB@Discrete?5Derivative3?1TSamp@ 10071f50     homing_capi.obj
 0002:00001f70       ??_C@_0BI@BNBGDGAE@Discrete?5Derivative3?1UD@ 10071f70     homing_capi.obj
 0002:00001f8c       ??_C@_0BE@OCAEDHHH@Discrete?5Derivative@ 10071f8c     homing_capi.obj
 0002:00001fa4       ??_C@_0BC@DNAKAAEE@ICPrevScaledInput@ 10071fa4     homing_capi.obj
 0002:00001fbc       ??_C@_0BF@INOOHBK@Discrete?5Derivative1@ 10071fbc     homing_capi.obj
 0002:00001fd8       ??_C@_0BF@CDPDLENJ@Discrete?5Derivative2@ 10071fd8     homing_capi.obj
 0002:00001ff4       ??_C@_0BF@DKOIIFJI@Discrete?5Derivative3@ 10071ff4     homing_capi.obj
 0002:00002010       ??_C@_05LPIJGKJ@Value@     10072010     homing_capi.obj
 0002:00002018       ??_C@_02KKFPAPOP@P1@       10072018     homing_capi.obj
 0002:0000201c       ??_C@_02IBHCFMCM@P2@       1007201c     homing_capi.obj
 0002:00002020       ??_C@_02JIGJGNGN@P3@       10072020     homing_capi.obj
 0002:00002024       ??_C@_02NHCIPLKK@P4@       10072024     homing_capi.obj
 0002:00002028       ??_C@_02MODDMKOL@P5@       10072028     homing_capi.obj
 0002:0000202c       ??_C@_02OFBOJJCI@P6@       1007202c     homing_capi.obj
 0002:00002030       ??_C@_02PMAFKIGJ@P7@       10072030     homing_capi.obj
 0002:00002034       ??_C@_02HLJNLEKG@P8@       10072034     homing_capi.obj
 0002:00002038       ??_C@_02GCIGIFOH@P9@       10072038     homing_capi.obj
 0002:0000203c       ??_C@_03OPFJJGBF@P10@      1007203c     homing_capi.obj
 0002:00002040       ??_C@_04GKLBNPCL@WtEt@     10072040     homing_capi.obj
 0002:00002048       ??_C@_06BNJCAIGJ@double@   10072048     homing_capi.obj
 0002:00002050       ??_C@_06CNMIJIPB@real_T@   10072050     homing_capi.obj
 0002:00002058       ??_C@_05KNFBNCOH@float@    10072058     homing_capi.obj
 0002:00002060       _serialfifoground          10072060     xpc_datatype_ground.obj
 0002:0000206c       _bcmsg1553ground           1007206c     xpc_datatype_ground.obj
 0002:0000207c       _bcstatground              1007207c     xpc_datatype_ground.obj
 0002:00002094       _bmmsg1553ground           10072094     xpc_datatype_ground.obj
 0002:000020d0       ??_C@_0BI@INNPNFJN@Memory?5Allocation?5Error@ 100720d0     rtw_modelmap_utils.obj
 0002:000020f0       ??_C@_1GI@IBKOBJLJ@?$AAC?$AA?3?$AA?2?$AAP?$AAR?$AAO?$AAG?$AAR?$AAA?$AA?$HO?$AA1?$AA?2?$AAM?$AAA?$AAT@ 100720f0     rtw_modelmap_utils.obj
 0002:0000216c       ??_C@_1CI@OEAJCJND@?$AAj?$AA?5?$AA?$DN?$AA?$DN?$AA?5?$AAe?$AAn?$AAc?$AAo?$AAd?$AAe?$AAd?$AAP?$AAa?$AAt@ 1007216c     rtw_modelmap_utils.obj
 0002:0000219c       ??_C@_1DC@NFAOIFKB@?$AAe?$AAn?$AAc?$AAo?$AAd?$AAe?$AAd?$AAP?$AAa?$AAt?$AAh?$AA?$FL?$AAj?$AA?9?$AA1@ 1007219c     rtw_modelmap_utils.obj
 0002:000021d8       ??_C@_1DI@FLNJGPEE@?$AAs?$AAi?$AAg?$AAC?$AAo?$AAm?$AAp?$AAl?$AAe?$AAx?$AAi?$AAt?$AAy?$AA?$FL?$AA?$CK@ 100721d8     rtw_modelmap_utils.obj
 0002:00002220       ??_C@_1KI@OFELMGBG@?$AA?$CI?$AA?$CI?$AA?$CI?$AAd?$AAa?$AAt?$AAa?$AAT?$AAy?$AAp?$AAe?$AAM?$AAa?$AAp?$AA?$CJ@ 10072220     rtw_modelmap_utils.obj
 0002:000022ec       ??_C@_1DA@ILCMPHNE@?$AAf?$AAu?$AAl?$AAl?$AAP?$AAa?$AAt?$AAh?$AA?5?$AA?$CB?$AA?$DN?$AA?5?$AA?$CI?$AA?$CI?$AAv@ 100722ec     rtw_modelmap_utils.obj
 0002:00002328       ??_C@_1CI@OEPPFCCA@?$AAp?$AAa?$AAt?$AAh?$AA?5?$AA?$CB?$AA?$DN?$AA?5?$AA?$CI?$AA?$CI?$AAv?$AAo?$AAi?$AAd?$AA?5@ 10072328     rtw_modelmap_utils.obj
 0002:00002358       ??_C@_1FK@GLJIMFHB@?$AA?$CI?$AA?$CI?$AAm?$AAm?$AAi?$AA?$CJ?$AA?9?$AA?$DO?$AAI?$AAn?$AAs?$AAt?$AAa?$AAn?$AAc@ 10072358     rtw_modelmap_utils.obj
 0002:000023c4       ??_C@_1DG@HPCJGNCE@?$AAm?$AAm?$AAi?$AAP?$AAa?$AAt?$AAh?$AA?$FL?$AAp?$AAa?$AAt?$AAh?$AAL?$AAe?$AAn@ 100723c4     rtw_modelmap_utils.obj
 0002:00002404       ??_C@_1DM@DBAOGGOO@?$AAm?$AAm?$AAi?$AAP?$AAa?$AAt?$AAh?$AA?$FL?$AAm?$AAm?$AAi?$AAP?$AAa?$AAt?$AAh@ 10072404     rtw_modelmap_utils.obj
 0002:0000244c       ??_C@_1DC@LHIAKAFE@?$AAb?$AAl?$AAo?$AAc?$AAk?$AAP?$AAa?$AAt?$AAh?$AA?5?$AA?$CB?$AA?$DN?$AA?5?$AA?$CI?$AA?$CI@ 1007244c     rtw_modelmap_utils.obj
 0002:00002488       ??_C@_1GI@KIEJKPGC@?$AAf?$AAu?$AAl?$AAl?$AAS?$AAt?$AAa?$AAt?$AAe?$AAB?$AAl?$AAo?$AAc?$AAk?$AAP@ 10072488     rtw_modelmap_utils.obj
 0002:00002508       ??_C@_1EE@DNPIBJHC@?$AA?$CI?$AA?$CI?$AAd?$AAi?$AAm?$AAM?$AAa?$AAp?$AA?$CJ?$AA?$FL?$AA?$CI?$AAm?$AAa?$AAp?$AAI@ 10072508     rtw_modelmap_utils.obj
 0002:0000255c       ??_C@_06JFOKFOED@CSTATE@   1007255c     rtw_modelmap_utils.obj
 0002:00002564       ??_C@_06FAENGAMN@DSTATE@   10072564     rtw_modelmap_utils.obj
 0002:0000256c       ??_C@_1BI@LEBJNOGG@?$AAc?$AAs?$AAv?$AAI?$AAd?$AAx?$AA?5?$AA?$DO?$AA?$DN?$AA?5?$AA0@ 1007256c     rtw_modelmap_utils.obj
 0002:00002588       ??_C@_1BA@KDMGHCHP@?$AAT?$AAI?$AAD?$AA?$DN?$AA?$DN?$AA?9?$AA1@ 10072588     rtw_modelmap_utils.obj
 0002:0000259c       ??_C@_1DM@DHGKBPCE@?$AAs?$AAi?$AAg?$AAP?$AAa?$AAt?$AAh?$AA?$FL?$AAs?$AAi?$AAg?$AAP?$AAa?$AAt?$AAh@ 1007259c     rtw_modelmap_utils.obj
 0002:00002e48       ??_C@_0DJ@FHKINPLE@Unexpected?5itemKind?5?$DN?5DATA_ITEM@ 10072e48     rt_logging.obj
 0002:00002e8c       ??_C@_0DA@IEHFPFCJ@Unexpected?5itemKind?$DN?$CFd?5in?5rt_Pr@ 10072e8c     rt_logging.obj
 0002:00002ec8       ??_C@_0DA@IFLHJPBO@Unexpected?5itemKind?$DN?$CFd?5in?5rt_Pr@ 10072ec8     rt_logging.obj
 0002:00002f04       ??_C@_0DA@IAPIIJJL@Unexpected?5itemKind?$DN?$CFd?5in?5rt_Pr@ 10072f04     rt_logging.obj
 0002:00002f40       ??_C@_0BE@LCIGPJIG@MATLAB?55?40?5MAT?9file@ 10072f40     rt_logging.obj
 0002:00002f58       ??_C@_0FB@PCJEAJIB@?$CK?$CK?$CK?5Log?5variable?5?$CFs?5has?5wrapped@ 10072f58     rt_logging.obj
 0002:00002fc0       ??_C@_0MG@NKMLMOGF@?$CK?$CK?$CK?5To?5avoid?5wrapping?0?5explicit@ 10072fc0     rt_logging.obj
 0002:000030b0       ??_C@_0N@IPAEOLLP@_rtw_tmw?4tmw@ 100730b0     rt_logging.obj
 0002:000030c0       ??_C@_04HDOCAJNK@?$CFs?$CFs@ 100730c0     rt_logging.obj
 0002:000030c8       ??_C@_03ELIABIOC@w?$CLb@   100730c8     rt_logging.obj
 0002:000030cc       ??_C@_0BF@JPILDDFA@?$CK?$CK?$CK?5Error?5opening?5?$CFs@ 100730cc     rt_logging.obj
 0002:000030e8       ??_C@_0BK@EEMDELA@unable?5to?5open?5data?5file?6@ 100730e8     rt_logging.obj
 0002:00003108       ??_C@_04CGFJFPFD@none@     10073108     rt_logging.obj
 0002:00003110       ??_C@_0EE@LCGFPNON@?$CK?$CK?$CK?5Error?5creating?5signals?5stru@ 10073110     rt_logging.obj
 0002:00003164       ??_C@_0CE@NHECEDMK@?$CK?$CK?$CK?5Error?5creating?5log?5variable@ 10073164     rt_logging.obj
 0002:00003190       ??_C@_0DB@IOCGKAGH@?$CK?$CK?$CK?5Errors?5occurred?5when?5starti@ 10073190     rt_logging.obj
 0002:000031cc       ??_C@_0BO@BBLOGEBK@?$CK?$CK?$CK?5Memory?5allocation?5error?4?6@ 100731cc     rt_logging.obj
 0002:000031f0       ??_C@_0N@LGFBAGEL@?5?$CIreal?5part?$CJ@ 100731f0     rt_logging.obj
 0002:00003200       ??_C@_0KH@CGNMHNFE@?5?5?5?5varName?5?5?5?5?5?5?5?5?5?5?$DN?5?$CFs?$CFs?6?5?5?5@ 10073200     rt_logging.obj
 0002:000032c8       ??_C@_0LE@OALKKEFM@?5?5?5?5varName?5?5?5?5?5?5?5?5?5?5?$DN?5?$CFs?5?$CIcomp@ 100732c8     rt_logging.obj
 0002:000033a0       ??_C@_0KF@JDDLEOKO@?5?5?5?5varName?5?5?5?5?5?5?5?5?5?5?$DN?5?$CFs?6?5?5?5?5n@ 100733a0     rt_logging.obj
 0002:00003468       ??_C@_0DP@HPDMIOFM@?$CK?$CK?$CK?5Using?5a?5default?5buffer?5of?5s@ 10073468     rt_logging.obj
 0002:000034b8       ??_C@_0KE@JEFOLKNF@?6?$CK?$CK?$CK?5Memory?5required?5to?5log?5var@ 100734b8     rt_logging.obj
 0002:00003580       ??_C@_0JP@DKLMHCBI@?$CK?$CK?$CK?5Details?3?6?5?5?5?5?5?5?5varName?5?5?5?5@ 10073580     rt_logging.obj
 0002:00003640       ??_C@_0CM@CAMILBED@?$CK?$CK?$CK?5Error?5allocating?5memory?5for@ 10073640     rt_logging.obj
 0002:00003674       ??_C@_0DF@BBCNMOPM@?$CK?$CK?$CK?5Error?5allocating?5memory?5for@ 10073674     rt_logging.obj
 0002:000036b8       ??_C@_0JP@DBCLPCCI@?$CK?$CK?$CK?5Details?3?6?5?5?5?5?5?5?5varName?5?5?5?5@ 100736b8     rt_logging.obj
 0002:00003778       ??_C@_0FK@DPGAOBGA@?$CK?$CK?$CK?5Error?5allocating?5memory?5for@ 10073778     rt_logging.obj
 0002:000037e4       ??_C@_0BI@GGDNPHLJ@?$CK?$CK?$CK?5Error?5writing?5to?5?$CFs@ 100737e4     rt_logging.obj
 0002:00003800       ??_C@_0CB@IBGJGELG@?$CK?$CK?$CK?5Error?5writing?5?$CFs?5due?5to?3?5?$CFs@ 10073800     rt_logging.obj
 0002:00003828       ??_C@_0CN@FLMCHCPB@?$CK?$CK?$CK?5Error?5writing?5log?5variable?5@ 10073828     rt_logging.obj
 0002:00003860       ??_C@_0DH@GAJCNOJP@?$CK?$CK?$CK?5Error?5writing?5structure?5log@ 10073860     rt_logging.obj
 0002:000038a4       ??_C@_0BD@POEALECL@?$CK?$CK?5created?5?$CFs?5?$CK?$CK?6?6@ 100738a4     rt_logging.obj
 0002:000038c0       __real@4020000000000000    100738c0     rt_logging.obj
 0002:000038d0       __real@41dfffffffc00000    100738d0     rt_logging.obj
 0002:000038e0       __real@41efffffffe00000    100738e0     rt_logging.obj
 0002:000038f0       __real@4330000000000000    100738f0     rt_logging.obj
 0002:00003900       __real@8000000000000000    10073900     rt_logging.obj
 0002:00003910       __real@bfbf9add3afd2773    10073910     rt_logging.obj
 0002:00003920       __real@c000000000000000    10073920     rt_logging.obj
 0002:00003930       __xmm@20202020202020202020202020202020 10073930     rt_logging.obj
 0002:00003944       ??_C@_06GMBBIPLD@homing@   10073944     xpctarget.obj
 0002:0000394c       _ptsetfilename             1007394c     xpctarget.obj
 0002:00003950       _xmlfile                   10073950     xpctarget.obj
 0002:00003958       ??_C@_0L@CHBJKKFC@xpceSetVar@ 10073958     xpctarget.obj
 0002:00003968       ??_C@_03LADEHNAB@6?46@     10073968     xpctarget.obj
 0002:00003970       __real@3fb999999999999a    10073970     xpctarget.obj
 0002:00003980       __real@408f400000000000    10073980     xpctarget.obj
 0002:00003990       _homing_BIOMAP             10073990     appmappingData.obj
 0002:00003b88       _homing_LBLMAP             10073b88     appmappingData.obj
 0002:00003d80       _homing_SIDMAP             10073d80     appmappingData.obj
 0002:00003f78       _homing_SBIO               10073f78     appmappingData.obj
 0002:00004020       _homing_SLBL               10074020     appmappingData.obj
 0002:000040c8       _homing_PTIDSMAP           100740c8     appmappingData.obj
 0002:00004368       _homing_PTNAMESMAP         10074368     appmappingData.obj
 0002:00004608       _homing_SPTMAP             10074608     appmappingData.obj
 0002:00004758       _homing_dtmap              10074758     appmappingData.obj
 0002:00004768       _appInfo                   10074768     appmappingData.obj
 0002:00004a88       ??_C@_0ED@LKHIFFLC@Wrong?5number?5of?5input?5arguments@ 10074a88     danipcim.obj
 0002:00004ad8       ??_C@_0DB@HFHLNKLE@Channel?5?$CFd?5exceeds?5the?5max?5DA?5c@ 10074ad8     danipcim.obj
 0002:00004b14       ??_C@_0CL@GCJHHCMG@Output?5range?5?$CFd?5is?5not?5supporte@ 10074b14     danipcim.obj
 0002:00004b48       ??_C@_0CC@FIFFDAB@?$CFd?5input?5args?5expected?0?5?$CFd?5pass@ 10074b48     encnipcim.obj
 0002:00004b70       ??_C@_0BN@JIEFLHEB@?$CFs?3?5Too?5many?5M?5series?5boards@ 10074b70     encnipcim.obj
 0002:00004b94       ??_C@_0M@IMCLKBPP@NI?5PCI?96220@ 10074b94     xpcionim.obj
 0002:00004ba4       ??_C@_0M@JFDAJALO@NI?5PCI?96221@ 10074ba4     xpcionim.obj
 0002:00004bb4       ??_C@_0P@NGCDCNKM@NI?5PCI?96221?137@ 10074bb4     xpcionim.obj
 0002:00004bc8       ??_C@_0M@OIEHGEPL@NI?5PCI?96224@ 10074bc8     xpcionim.obj
 0002:00004bd8       ??_C@_0M@PBFMFFLK@NI?5PCI?96225@ 10074bd8     xpcionim.obj
 0002:00004be8       ??_C@_0M@FNOJBKLG@NI?5PCI?96229@ 10074be8     xpcionim.obj
 0002:00004bf8       ??_C@_0M@INOJMLMI@NI?5PCI?96230@ 10074bf8     xpcionim.obj
 0002:00004c08       ??_C@_0M@LPNPKJEK@NI?5PCI?96232@ 10074c08     xpcionim.obj
 0002:00004c18       ??_C@_0M@KGMEJIAL@NI?5PCI?96233@ 10074c18     xpcionim.obj
 0002:00004c28       ??_C@_0M@NLLDGMEO@NI?5PCI?96236@ 10074c28     xpcionim.obj
 0002:00004c38       ??_C@_0M@EFDAEBMA@NI?5PCI?96238@ 10074c38     xpcionim.obj
 0002:00004c48       ??_C@_0M@FMCLHAIB@NI?5PCI?96239@ 10074c48     xpcionim.obj
 0002:00004c58       ??_C@_0M@IJGELHHK@NI?5PCI?96250@ 10074c58     xpcionim.obj
 0002:00004c68       ??_C@_0M@JAHPIGDL@NI?5PCI?96251@ 10074c68     xpcionim.obj
 0002:00004c78       ??_C@_0M@ONAIHCHO@NI?5PCI?96254@ 10074c78     xpcionim.obj
 0002:00004c88       ??_C@_0M@PEBDEDDP@NI?5PCI?96255@ 10074c88     xpcionim.obj
 0002:00004c98       ??_C@_0M@FIKGAMDD@NI?5PCI?96259@ 10074c98     xpcionim.obj
 0002:00004ca8       ??_C@_0M@IBLMCECJ@NI?5PCI?96280@ 10074ca8     xpcionim.obj
 0002:00004cb8       ??_C@_0M@JIKHBFGI@NI?5PCI?96281@ 10074cb8     xpcionim.obj
 0002:00004cc8       ??_C@_0M@OFNAOBCN@NI?5PCI?96284@ 10074cc8     xpcionim.obj
 0002:00004cd8       ??_C@_0M@FAHOJPGA@NI?5PCI?96289@ 10074cd8     xpcionim.obj
 0002:00004ce8       ??_C@_0CI@NFFNBHJA@?$CFs?5?$CIbus?5?$CFd?0?5slot?5?$CFd?$CJ?3?5board?5not@ 10074ce8     xpcionim.obj
 0002:00004d18       ??_C@_0CD@MBDNCLAI@NI?5M?5series?3?5Unknown?5board?5type@ 10074d18     xpcionim.obj
 0002:00004d44       ??_C@_0CC@DMFKNLL@VendorId?5?$DN?50x?$CFx?0?5DeviceId?5?$DN?50x?$CF@ 10074d44     xpcruntime:xpcimports.obj
 0002:00004d6c       ??_C@_0DH@OHCBLNMG@Subsystem?5Device?5ID?5?$DN?50x?$CFx?6Subs@ 10074d6c     xpcruntime:xpcimports.obj
 0002:00004db0       ??_C@_0BD@MMMMEFCM@Class?5Code?5?$DN?50x?$CFx?6@ 10074db0     xpcruntime:xpcimports.obj
 0002:00004dc8       ??_C@_0BE@OLDDDNHM@InterruptLine?5?$DN?5?$CFd?6@ 10074dc8     xpcruntime:xpcimports.obj
 0002:00004de0       ??_C@_0BF@OLKLEKBD@bus?5?$DN?5?$CFd?0?5slot?5?$DN?5?$CFd?6@ 10074de0     xpcruntime:xpcimports.obj
 0002:00004dfc       ??_C@_0CE@DGLLGDFH@?5?5?5?5Phys?5?5?5Virtual?5?5?5Length?5IO?1@ 10074dfc     xpcruntime:xpcimports.obj
 0002:00004e28       ??_C@_0BI@FEOPLEMG@?$CF08x?5?$CF08x?5?$CF08x?5?5?5?5?5?5?$CFc?6@ 10074e28     xpcruntime:xpcimports.obj
 0002:00004e44       ??_C@_0BB@BNNCEDPC@rl32eScopeExists@ 10074e44     xpcruntime:xpcimports.obj
 0002:00004e58       ??_C@_0BM@FJBFEGFG@rl32eScopeExists?5not?5found?6@ 10074e58     xpcruntime:xpcimports.obj
 0002:00004e7c       ??_C@_0O@BNNGKJEA@rl32eDefScope@ 10074e7c     xpcruntime:xpcimports.obj
 0002:00004e8c       ??_C@_0BJ@CDNOENKA@rl32eDefScope?5not?5found?6@ 10074e8c     xpcruntime:xpcimports.obj
 0002:00004eac       ??_C@_0P@CKNKILDP@rl32eAddSignal@ 10074eac     xpcruntime:xpcimports.obj
 0002:00004ec0       ??_C@_0BK@GMJAJBAI@rl32eAddSignal?5not?5found?6@ 10074ec0     xpcruntime:xpcimports.obj
 0002:00004ee0       ??_C@_0BB@LDMIHGCE@rl32eGetSignalNo@ 10074ee0     xpcruntime:xpcimports.obj
 0002:00004ef4       ??_C@_0BM@LGAMBAID@rl32eGetSignalNo?5not?5found?6@ 10074ef4     xpcruntime:xpcimports.obj
 0002:00004f18       ??_C@_0O@CFDGALBP@rl32eSetScope@ 10074f18     xpcruntime:xpcimports.obj
 0002:00004f28       ??_C@_0BJ@JCLHHIN@rl32eSetScope?5not?5found?6@ 10074f28     xpcruntime:xpcimports.obj
 0002:00004f48       ??_C@_0P@IKMCBMHH@xpceFSScopeSet@ 10074f48     xpcruntime:xpcimports.obj
 0002:00004f5c       ??_C@_0BK@JODJPNNH@xpceFSScopeSet?5not?5found?6@ 10074f5c     xpcruntime:xpcimports.obj
 0002:00004f7c       ??_C@_0BE@DLACEEJM@rl32eSetTargetScope@ 10074f7c     xpcruntime:xpcimports.obj
 0002:00004f94       ??_C@_0BP@JCHFMKPJ@rl32eSetTargetScope?5not?5found?6@ 10074f94     xpcruntime:xpcimports.obj
 0002:00004fbc       ??_C@_0BJ@LIDLNDHC@rl32eSetTargetScopeSigFt@ 10074fbc     xpcruntime:xpcimports.obj
 0002:00004fdc       ??_C@_0CE@JLGHCFHI@rl32eSetTargetScopeSigFt?5not?5fo@ 10074fdc     xpcruntime:xpcimports.obj
 0002:00005008       ??_C@_0BI@JAPOIDNG@rl32eRestartAcquisition@ 10075008     xpcruntime:xpcimports.obj
 0002:00005024       ??_C@_0CD@LLBEFFBO@rl32eRestartAcquisition?5not?5fou@ 10075024     xpcruntime:xpcimports.obj
 0002:00005050       ??_C@_0P@IEIIADJB@xpceScopeAcqOK@ 10075050     xpcruntime:xpcimports.obj
 0002:00005064       ??_C@_0BK@NJCKNFPN@xpceScopeAcqOK?5not?5found?6@ 10075064     xpcruntime:xpcimports.obj
 0002:00005084       ??_C@_0BA@IJINKAHF@xpceRegisterISR@ 10075084     xpcruntime:xpcimports.obj
 0002:00005098       ??_C@_0BL@NNDLOEJE@xpceRegisterISR?5not?5found?6@ 10075098     xpcruntime:xpcimports.obj
 0002:000050b8       ??_C@_0BC@NLBADGKF@xpceDeRegisterISR@ 100750b8     xpcruntime:xpcimports.obj
 0002:000050d0       ??_C@_0BN@DCAIKFFD@xpceDeRegisterISR?5not?5found?6@ 100750d0     xpcruntime:xpcimports.obj
 0002:000050f4       ??_C@_07JPMEPILD@xpcInpB@  100750f4     xpcruntime:xpcimports.obj
 0002:00005100       ??_C@_0BD@PGABEJOL@xpcInpB?5not?5found?6@ 10075100     xpcruntime:xpcimports.obj
 0002:00005118       ??_C@_07KIHBBOKH@xpcInpW@  10075118     xpcruntime:xpcimports.obj
 0002:00005124       ??_C@_0BD@FPCJFMCC@xpcInpW?5not?5found?6@ 10075124     xpcruntime:xpcimports.obj
 0002:0000513c       ??_C@_08KDIAJBOP@xpcInpDW@ 1007513c     xpcruntime:xpcimports.obj
 0002:00005148       ??_C@_0BE@PIELDNIL@xpcInpDW?5not?5found?6@ 10075148     xpcruntime:xpcimports.obj
 0002:00005160       ??_C@_08PJFMOIGO@xpcOutpB@ 10075160     xpcruntime:xpcimports.obj
 0002:0000516c       ??_C@_0BE@HCKNCEKF@xpcOutpB?5not?5found?6@ 1007516c     xpcruntime:xpcimports.obj
 0002:00005184       ??_C@_08MOOJAOHK@xpcOutpW@ 10075184     xpcruntime:xpcimports.obj
 0002:00005190       ??_C@_0BE@NLIFDBGM@xpcOutpW?5not?5found?6@ 10075190     xpcruntime:xpcimports.obj
 0002:000051a8       ??_C@_09FLIEKHJG@xpcOutpDW@ 100751a8     xpcruntime:xpcimports.obj
 0002:000051b4       ??_C@_0BF@GJKLPNHB@xpcOutpDW?5not?5found?6@ 100751b4     xpcruntime:xpcimports.obj
 0002:000051d0       ??_C@_0BH@EHOLELHH@xpcReserveMemoryRegion@ 100751d0     xpcruntime:xpcimports.obj
 0002:000051ec       ??_C@_0CC@KAAAGPI@xpcReserveMemoryRegion?5not?5foun@ 100751ec     xpcruntime:xpcimports.obj
 0002:00005214       ??_C@_0BA@JGPMHGAF@rl32eShowPCIDev@ 10075214     xpcruntime:xpcimports.obj
 0002:00005228       ??_C@_0BL@DDFFLNHI@rl32eShowPCIDev?5not?5found?6@ 10075228     xpcruntime:xpcimports.obj
 0002:00005248       ??_C@_0BB@KBCOJPFB@rl32eShowPCIInfo@ 10075248     xpcruntime:xpcimports.obj
 0002:0000525c       ??_C@_0BM@IFDMAGLO@rl32eShowPCIInfo?5not?5found?6@ 1007525c     xpcruntime:xpcimports.obj
 0002:00005280       ??_C@_0BA@BGPAADB@rl32eGetPCIInfo@ 10075280     xpcruntime:xpcimports.obj
 0002:00005294       ??_C@_0BL@IGOMLDCK@rl32eGetPCIInfo?5not?5found?6@ 10075294     xpcruntime:xpcimports.obj
 0002:000052b4       ??_C@_0BG@NJPFKFDP@rl32eGetPCIInfoAtSlot@ 100752b4     xpcruntime:xpcimports.obj
 0002:000052d0       ??_C@_0CB@BBKIPMLA@rl32eGetPCIInfoAtSlot?5not?5found@ 100752d0     xpcruntime:xpcimports.obj
 0002:000052f8       ??_C@_0BH@OKBOPNFG@xpceAssignPCIInterrupt@ 100752f8     xpcruntime:xpcimports.obj
 0002:00005314       ??_C@_0CC@CDNDNJBJ@xpceAssignPCIInterrupt?5not?5foun@ 10075314     xpcruntime:xpcimports.obj
 0002:0000533c       ??_C@_0BD@PCKOKHO@xpceGetSignalValue@ 1007533c     xpcruntime:xpcimports.obj
 0002:00005354       ??_C@_0BO@GCBDJHMB@xpceGetSignalValue?5not?5found?6@ 10075354     xpcruntime:xpcimports.obj
 0002:00005378       ??_C@_0BB@BJONJAGA@xpceSetParameter@ 10075378     xpcruntime:xpcimports.obj
 0002:0000538c       ??_C@_0BM@BJIKDLHA@xpceSetParameter?5not?5found?6@ 1007538c     xpcruntime:xpcimports.obj
 0002:000053b0       ??_C@_0BB@GNFDFMCM@xpceGetParameter@ 100753b0     xpcruntime:xpcimports.obj
 0002:000053c4       ??_C@_0BM@POHNKBC@xpceGetParameter?5not?5found?6@ 100753c4     xpcruntime:xpcimports.obj
 0002:000053e8       ??_C@_0BB@CEIJLFCD@xpceGetParamDims@ 100753e8     xpcruntime:xpcimports.obj
 0002:000053fc       ??_C@_0BM@OABDBKAO@xpceGetParamDims?5not?5found?6@ 100753fc     xpcruntime:xpcimports.obj
 0002:00005420       ??_C@_0L@OCBLLHBM@xpceGetTET@ 10075420     xpcruntime:xpcimports.obj
 0002:00005430       ??_C@_0BG@HNOFBOB@xpceGetTET?5not?5found?6@ 10075430     xpcruntime:xpcimports.obj
 0002:0000544c       ??_C@_0P@OKGNGAGH@xpcIsModelInit@ 1007544c     xpcruntime:xpcimports.obj
 0002:00005460       ??_C@_0BK@DHEMLBIM@xpcIsModelInit?5not?5found?6@ 10075460     xpcruntime:xpcimports.obj
 0002:00005480       ??_C@_0BH@KJJLCAOJ@xpcAllocPhysicalMemory@ 10075480     xpcruntime:xpcimports.obj
 0002:0000549c       ??_C@_0CC@MOJPNHKL@xpcAllocPhysicalMemory?5not?5foun@ 1007549c     xpcruntime:xpcimports.obj
 0002:000054c4       ??_C@_0BG@CBNPGAEL@xpcFreePhysicalMemory@ 100754c4     xpcruntime:xpcimports.obj
 0002:000054e0       ??_C@_0CB@PKJEBPOG@xpcFreePhysicalMemory?5not?5found@ 100754e0     xpcruntime:xpcimports.obj
 0002:00005508       ??_C@_0BC@JGKNLICL@xpcGetElapsedTime@ 10075508     xpcruntime:xpcimports.obj
 0002:00005520       ??_C@_0BN@OEOAHCIO@xpcGetElapsedTime?5not?5found?6@ 10075520     xpcruntime:xpcimports.obj
 0002:00005544       ??_C@_0M@ICBLMODA@xpcBusyWait@ 10075544     xpcruntime:xpcimports.obj
 0002:00005554       ??_C@_0BH@FBOPECBI@xpcBusyWait?5not?5found?6@ 10075554     xpcruntime:xpcimports.obj
 0002:00005570       ??_C@_0N@LKKJEKKA@TBCreateSpin@ 10075570     xpcruntime:xpcimports.obj
 0002:00005580       ??_C@_0BI@FHKMLKOE@TBCreateSpin?5not?5found?6@ 10075580     xpcruntime:xpcimports.obj
 0002:0000559c       ??_C@_0N@HOAJHNBD@TBDeleteSpin@ 1007559c     xpcruntime:xpcimports.obj
 0002:000055ac       ??_C@_0BI@BKCPAAG@TBDeleteSpin?5not?5found?6@ 100755ac     xpcruntime:xpcimports.obj
 0002:000055c8       ??_C@_0P@DAHDDBJG@TBTakeSpinFast@ 100755c8     xpcruntime:xpcimports.obj
 0002:000055dc       ??_C@_0BK@NKAIBHGB@TBTakeSpinFast?5not?5found?6@ 100755dc     xpcruntime:xpcimports.obj
 0002:000055fc       ??_C@_0P@FKNAAELA@TBGiveSpinFast@ 100755fc     xpcruntime:xpcimports.obj
 0002:00005610       ??_C@_0BK@KGPJBJND@TBGiveSpinFast?5not?5found?6@ 10075610     xpcruntime:xpcimports.obj
 0002:00005630       ??_C@_0BE@IIGBFDHK@xpceCreateSemaphore@ 10075630     xpcruntime:xpcimports.obj
 0002:00005648       ??_C@_0BP@KFBAFFKJ@xpceCreateSemaphore?5not?5found?6@ 10075648     xpcruntime:xpcimports.obj
 0002:00005670       ??_C@_0BC@IFNIONKJ@xpceWaitSemaphore@ 10075670     xpcruntime:xpcimports.obj
 0002:00005688       ??_C@_0BN@NMFAADIO@xpceWaitSemaphore?5not?5found?6@ 10075688     xpcruntime:xpcimports.obj
 0002:000056ac       ??_C@_0BE@NNDIOBKE@xpceSignalSemaphore@ 100756ac     xpcruntime:xpcimports.obj
 0002:000056c4       ??_C@_0BP@LBANMHJP@xpceSignalSemaphore?5not?5found?6@ 100756c4     xpcruntime:xpcimports.obj
 0002:000056ec       ??_C@_0BE@MEBEKOIM@xpceDeleteSemaphore@ 100756ec     xpcruntime:xpcimports.obj
 0002:00005704       ??_C@_0BP@OFNCKOJH@xpceDeleteSemaphore?5not?5found?6@ 10075704     xpcruntime:xpcimports.obj
 0002:0000572c       ??_C@_0BD@MFNDMBOF@FindUsbVideoDevice@ 1007572c     xpcruntime:xpcimports.obj
 0002:00005744       ??_C@_0BO@POKLDHMI@FindUsbVideoDevice?5not?5found?6@ 10075744     xpcruntime:xpcimports.obj
 0002:00005768       ??_C@_0BA@PLPAPNAB@GetVideoConfigs@ 10075768     xpcruntime:xpcimports.obj
 0002:0000577c       ??_C@_0BL@DALDHKHC@GetVideoConfigs?5not?5found?6@ 1007577c     xpcruntime:xpcimports.obj
 0002:0000579c       ??_C@_0L@GBAEMHMH@StartVideo@ 1007579c     xpcruntime:xpcimports.obj
 0002:000057ac       ??_C@_0BG@HDCELEBP@StartVideo?5not?5found?6@ 100757ac     xpcruntime:xpcimports.obj
 0002:000057c8       ??_C@_0BA@FDNPOCLN@ReadFrameBuffer@ 100757c8     xpcruntime:xpcimports.obj
 0002:000057dc       ??_C@_0BL@JHGHPNBI@ReadFrameBuffer?5not?5found?6@ 100757dc     xpcruntime:xpcimports.obj
 0002:000057fc       ??_C@_09FAHCLKAG@StopVideo@ 100757fc     xpcruntime:xpcimports.obj
 0002:00005808       ??_C@_0BF@NKGKKADL@StopVideo?5not?5found?6@ 10075808     xpcruntime:xpcimports.obj
 0002:00005824       ??_C@_0O@MCPKDLLL@ConvertUImage@ 10075824     xpcruntime:xpcimports.obj
 0002:00005834       ??_C@_0BJ@PHJKOAFL@ConvertUImage?5not?5found?6@ 10075834     xpcruntime:xpcimports.obj
 0002:00005854       ??_C@_0BD@NKCBPBJJ@CreateVideoDisplay@ 10075854     xpcruntime:xpcimports.obj
 0002:0000586c       ??_C@_0BO@HPPLLNFP@CreateVideoDisplay?5not?5found?6@ 1007586c     xpcruntime:xpcimports.obj
 0002:00005890       ??_C@_0BE@KJCKGPHA@DestroyVideoDisplay@ 10075890     xpcruntime:xpcimports.obj
 0002:000058a8       ??_C@_0BP@FMGLJAIJ@DestroyVideoDisplay?5not?5found?6@ 100758a8     xpcruntime:xpcimports.obj
 0002:000058d0       ??_C@_0BC@HCMIMIDN@StartVideoDisplay@ 100758d0     xpcruntime:xpcimports.obj
 0002:000058e8       ??_C@_0BN@EFIEBGOO@StartVideoDisplay?5not?5found?6@ 100758e8     xpcruntime:xpcimports.obj
 0002:0000590c       ??_C@_0BB@JBBLMILG@StopVideoDisplay@ 1007590c     xpcruntime:xpcimports.obj
 0002:00005920       ??_C@_0BM@DBJBPLEL@StopVideoDisplay?5not?5found?6@ 10075920     xpcruntime:xpcimports.obj
 0002:00005944       ??_C@_0M@MFJEGMHC@StreamVideo@ 10075944     xpcruntime:xpcimports.obj
 0002:00005954       ??_C@_0BH@OINCDMLA@StreamVideo?5not?5found?6@ 10075954     xpcruntime:xpcimports.obj
 0002:00005970       ??_C@_0N@IGGLCIGE@xpceaddEvent@ 10075970     xpcruntime:xpcimports.obj
 0002:00005980       ??_C@_0BI@NHJNFMKH@xpceaddEvent?5not?5found?6@ 10075980     xpcruntime:xpcimports.obj
 0002:0000599c       ??_C@_0BB@HDPOIJAB@xpceDAQPostEvent@ 1007599c     xpcruntime:xpcimports.obj
 0002:000059b0       ??_C@_0BM@IHANBKGN@xpceDAQPostEvent?5not?5found?6@ 100759b0     xpcruntime:xpcimports.obj
 0002:000059d4       ??_C@_0BH@MBACMOD@xpceDAQUpdateTimeStamp@ 100759d4     xpcruntime:xpcimports.obj
 0002:000059f0       ??_C@_0CC@DAKBBINL@xpceDAQUpdateTimeStamp?5not?5foun@ 100759f0     xpcruntime:xpcimports.obj
 0002:00005a18       ??_C@_0BN@HJOHIFOM@xpceGetIntTimerGranularityNS@ 10075a18     xpcruntime:xpcimports.obj
 0002:00005a3c       ??_C@_0CI@OADDPMKB@xpceGetIntTimerGranularityNS?5no@ 10075a3c     xpcruntime:xpcimports.obj
 0002:00005a6c       ??_C@_0BG@CCHICKPN@slrteSetStepSizeDelta@ 10075a6c     xpcruntime:xpcimports.obj
 0002:00005a88       ??_C@_0CB@MKHINEIJ@slrteSetStepSizeDelta?5not?5found@ 10075a88     xpcruntime:xpcimports.obj
 0002:00005ab0       ??_C@_0BI@CLNBLDKJ@slrteGetCurrentStepSize@ 10075ab0     xpcruntime:xpcimports.obj
 0002:00005acc       ??_C@_0CD@GIOJPGJA@slrteGetCurrentStepSize?5not?5fou@ 10075acc     xpcruntime:xpcimports.obj
 0002:00005af8       ??_C@_0BE@FCLCBOC@registerPTPTimeRead@ 10075af8     xpcruntime:xpcimports.obj
 0002:00005b10       ??_C@_0BP@LHPKAJIP@registerPTPTimeRead?5not?5found?6@ 10075b10     xpcruntime:xpcimports.obj
 0002:00005b38       ??_C@_0BG@KIGCDDJI@unRegisterPTPTimeRead@ 10075b38     xpcruntime:xpcimports.obj
 0002:00005b54       ??_C@_0CB@MLFFBFCM@unRegisterPTPTimeRead?5not?5found@ 10075b54     xpcruntime:xpcimports.obj
 0002:00005b7c       ??_C@_0BB@IPMDDBHK@slTestInitialize@ 10075b7c     xpcruntime:xpcimports.obj
 0002:00005b90       ??_C@_0BM@LAJFCCJH@slTestInitialize?5not?5found?6@ 10075b90     xpcruntime:xpcimports.obj
 0002:00005bb4       ??_C@_0BF@OOMPMEBC@slTestLogAssessments@ 10075bb4     xpcruntime:xpcimports.obj
 0002:00005bd0       ??_C@_0CA@FGJCEBAG@slTestLogAssessments?5not?5found?6@ 10075bd0     xpcruntime:xpcimports.obj
 0002:00005bf8       ??_C@_0BB@HJHKONHO@slTestEvalOnFail@ 10075bf8     xpcruntime:xpcimports.obj
 0002:00005c0c       ??_C@_0BM@JIKCFFNJ@slTestEvalOnFail?5not?5found?6@ 10075c0c     xpcruntime:xpcimports.obj
 0002:00005c30       ??_C@_0BA@LBHLABFP@slTestTerminate@ 10075c30     xpcruntime:xpcimports.obj
 0002:00005c44       ??_C@_0BL@EMFGKAPA@slTestTerminate?5not?5found?6@ 10075c44     xpcruntime:xpcimports.obj
 0002:00005c64       ??_C@_0BE@JPNPBBEO@slTestRegAssessment@ 10075c64     xpcruntime:xpcimports.obj
 0002:00005c7c       ??_C@_0BP@FBDEJJJH@slTestRegAssessment?5not?5found?6@ 10075c7c     xpcruntime:xpcimports.obj
 0002:00005ca4       ??_C@_0O@NCLGDNIB@slrteSetupMSI@ 10075ca4     xpcruntime:xpcimports.obj
 0002:00005cb4       ??_C@_0BJ@HEFMECLM@slrteSetupMSI?5not?5found?6@ 10075cb4     xpcruntime:xpcimports.obj
 0002:00005cd4       ??_C@_0BH@BPOLALHD@slrtGetCRBScratchSpace@ 10075cd4     xpcruntime:xpcimports.obj
 0002:00005cf0       ??_C@_0CC@KCKAJKKJ@slrtGetCRBScratchSpace?5not?5foun@ 10075cf0     xpcruntime:xpcimports.obj
 0002:00005d18       ??_C@_0BC@MKFDAKOL@slrtGetSgCRBSpace@ 10075d18     xpcruntime:xpcimports.obj
 0002:00005d30       ??_C@_0BN@JDPHPLHL@slrtGetSgCRBSpace?5not?5found?6@ 10075d30     xpcruntime:xpcimports.obj
 0002:00005d54       ??_C@_0P@EPAPKLIF@slrtfsOpenFile@ 10075d54     xpcruntime:xpcimports.obj
 0002:00005d68       ??_C@_0BK@FIHCBOHG@slrtfsOpenFile?5not?5found?6@ 10075d68     xpcruntime:xpcimports.obj
 0002:00005d88       ??_C@_0BA@LILAFDDL@slrtfsCloseFile@ 10075d88     xpcruntime:xpcimports.obj
 0002:00005d9c       ??_C@_0BL@DEGHJFIB@slrtfsCloseFile?5not?5found?6@ 10075d9c     xpcruntime:xpcimports.obj
 0002:00005dbc       ??_C@_0BC@OKMJDIEH@slrtfsWriteToFile@ 10075dbc     xpcruntime:xpcimports.obj
 0002:00005dd4       ??_C@_0BN@KCFLCLAH@slrtfsWriteToFile?5not?5found?6@ 10075dd4     xpcruntime:xpcimports.obj
 0002:00005df8       ??_C@_0BK@GIPNFFFF@slrtfsGetFileErrorMessage@ 10075df8     xpcruntime:xpcimports.obj
 0002:00005e18       ??_C@_0CF@BCBLMKLE@slrtfsGetFileErrorMessage?5not?5f@ 10075e18     xpcruntime:xpcimports.obj
 0002:00005e44       ??_C@_0BD@ICBOKMK@slrtfsGetFileError@ 10075e44     xpcruntime:xpcimports.obj
 0002:00005e5c       ??_C@_0BO@FNBANAE@slrtfsGetFileError?5not?5found?6@ 10075e5c     xpcruntime:xpcimports.obj
 0002:00005e80       ??_C@_0BE@PPAJMHJP@slrtfsOpenFileAsync@ 10075e80     xpcruntime:xpcimports.obj
 0002:00005e98       ??_C@_0BP@HKBMMJOK@slrtfsOpenFileAsync?5not?5found?6@ 10075e98     xpcruntime:xpcimports.obj
 0002:00005ec0       ??_C@_0BF@IGNDIBPF@slrtfsCloseFileAsync@ 10075ec0     xpcruntime:xpcimports.obj
 0002:00005edc       ??_C@_0CA@GJPFDBKN@slrtfsCloseFileAsync?5not?5found?6@ 10075edc     xpcruntime:xpcimports.obj
 0002:00005f04       ??_C@_0BE@IOLEBNB@slrtfsGetFileStatus@ 10075f04     xpcruntime:xpcimports.obj
 0002:00005f1c       ??_C@_0BP@PEFHDGHL@slrtfsGetFileStatus?5not?5found?6@ 10075f1c     xpcruntime:xpcimports.obj
 0002:00005f44       ??_C@_0M@HKIJIMG@slrtfsFread@ 10075f44     xpcruntime:xpcimports.obj
 0002:00005f54       ??_C@_0BH@OOKBGONO@slrtfsFread?5not?5found?6@ 10075f54     xpcruntime:xpcimports.obj
 0002:00005f70       ??_C@_0BE@OGCMPLAP@slrtGetDefaultDrive@ 10075f70     xpcruntime:xpcimports.obj
 0002:00005f88       ??_C@_0BP@HKFGLHOE@slrtGetDefaultDrive?5not?5found?6@ 10075f88     xpcruntime:xpcimports.obj
 0002:00005fb0       ??_C@_0N@NAJIKFFI@slrtLogEvent@ 10075fb0     xpcruntime:xpcimports.obj
 0002:00005fc0       ??_C@_0BI@NKCEACND@slrtLogEvent?5not?5found?6@ 10075fc0     xpcruntime:xpcimports.obj
 0002:00005fdc       ??_C@_0N@IDKFJOHI@getlasterror@ 10075fdc     xpcruntime:xpcimports.obj
 0002:00005fec       ??_C@_0BI@MIHMCHGL@getlasterror?5not?5found?6@ 10075fec     xpcruntime:xpcimports.obj
 0002:00006008       ??_C@_0P@OKHGKJKN@geterrorstring@ 10076008     xpcruntime:xpcimports.obj
 0002:0000601c       ??_C@_0BK@NOHFDMLP@geterrorstring?5not?5found?6@ 1007601c     xpcruntime:xpcimports.obj
 0002:0000603c       ??_C@_0BD@HNFFKMGJ@slrtGetCPUTCelsius@ 1007603c     xpcruntime:xpcimports.obj
 0002:00006054       ??_C@_0BO@LHBFKLIH@slrtGetCPUTCelsius?5not?5found?6@ 10076054     xpcruntime:xpcimports.obj
 0002:00006078       ??_C@_0M@OONCNCLM@slrtWarning@ 10076078     xpcruntime:xpcimports.obj
 0002:00006088       ??_C@_0BH@ICKGIEMB@slrtWarning?5not?5found?6@ 10076088     xpcruntime:xpcimports.obj
 0002:000060a4       ??_C@_0N@EAAOMIIE@isUsedByRTIP@ 100760a4     xpcruntime:xpcimports.obj
 0002:000060b4       ??_C@_0BI@GNHHHICK@isUsedByRTIP?5not?5found?6@ 100760b4     xpcruntime:xpcimports.obj
 0002:000060d0       ??_C@_0BC@HLDKJAG@SetIPTASKPriority@ 100760d0     xpcruntime:xpcimports.obj
 0002:000060e8       ??_C@_0BN@OGKMHHAE@SetIPTASKPriority?5not?5found?6@ 100760e8     xpcruntime:xpcimports.obj
 0002:0000610c       ??_C@_0O@LHENMBDD@OpenInterface@ 1007610c     xpcruntime:xpcimports.obj
 0002:0000611c       ??_C@_0BJ@PFGDBKHB@OpenInterface?5not?5found?6@ 1007611c     xpcruntime:xpcimports.obj
 0002:0000613c       ??_C@_0P@IINFELKD@CloseInterface@ 1007613c     xpcruntime:xpcimports.obj
 0002:00006150       ??_C@_0BK@PAPDNDBK@CloseInterface?5not?5found?6@ 10076150     xpcruntime:xpcimports.obj
 0002:00006170       ??_C@_05LEFIAAOI@SetIP@    10076170     xpcruntime:xpcimports.obj
 0002:00006178       ??_C@_0BB@CGLIBAMM@SetIP?5not?5found?6@ 10076178     xpcruntime:xpcimports.obj
 0002:0000618c       ??_C@_0BA@HIJJHHMD@AddGatewayRoute@ 1007618c     xpcruntime:xpcimports.obj
 0002:000061a0       ??_C@_0BL@BFCFMDMN@AddGatewayRoute?5not?5found?6@ 100761a0     xpcruntime:xpcimports.obj
 0002:000061c0       ??_C@_0M@PHMABFPI@DeleteRoute@ 100761c0     xpcruntime:xpcimports.obj
 0002:000061d0       ??_C@_0BH@JPJGLLID@DeleteRoute?5not?5found?6@ 100761d0     xpcruntime:xpcimports.obj
 0002:000061ec       ??_C@_0BA@FCDIMKIJ@GetHostTarIPAdd@ 100761ec     xpcruntime:xpcimports.obj
 0002:00006200       ??_C@_0BL@MBKDGKBO@GetHostTarIPAdd?5not?5found?6@ 10076200     xpcruntime:xpcimports.obj
 0002:00006220       ??_C@_0M@HPMIPIBI@GetDCUUsage@ 10076220     xpcruntime:xpcimports.obj
 0002:00006230       ??_C@_0BH@EBLJKCJC@GetDCUUsage?5not?5found?6@ 10076230     xpcruntime:xpcimports.obj
 0002:0000624c       ??_C@_06MPKMECK@accept@    1007624c     xpcruntime:xpcimports.obj
 0002:00006254       ??_C@_0BC@GBGIEMNO@accept?5not?5found?6@ 10076254     xpcruntime:xpcimports.obj
 0002:0000626c       ??_C@_04NPNJNMMP@bind@     1007626c     xpcruntime:xpcimports.obj
 0002:00006274       ??_C@_0BA@DAJNENLO@bind?5not?5found?6@ 10076274     xpcruntime:xpcimports.obj
 0002:00006288       ??_C@_0L@CKHNIFCM@setsockopt@ 10076288     xpcruntime:xpcimports.obj
 0002:00006298       ??_C@_0BG@MFIIOMFE@setsockopt?5not?5found?6@ 10076298     xpcruntime:xpcimports.obj
 0002:000062b4       ??_C@_0M@ODDJDCDK@closesocket@ 100762b4     xpcruntime:xpcimports.obj
 0002:000062c4       ??_C@_0BH@JHGHMIL@closesocket?5not?5found?6@ 100762c4     xpcruntime:xpcimports.obj
 0002:000062e0       ??_C@_07KAIBNCHO@connect@  100762e0     xpcruntime:xpcimports.obj
 0002:000062ec       ??_C@_0BD@MKLLMBM@connect?5not?5found?6@ 100762ec     xpcruntime:xpcimports.obj
 0002:00006304       ??_C@_0M@PBPOCKDG@ioctlsocket@ 10076304     xpcruntime:xpcimports.obj
 0002:00006314       ??_C@_0BH@NFCNHHIH@ioctlsocket?5not?5found?6@ 10076314     xpcruntime:xpcimports.obj
 0002:00006330       ??_C@_06OODDLKLE@listen@   10076330     xpcruntime:xpcimports.obj
 0002:00006338       ??_C@_0BC@NHBILEKI@listen?5not?5found?6@ 10076338     xpcruntime:xpcimports.obj
 0002:00006350       ??_C@_08HMBBGFHE@recvfrom@ 10076350     xpcruntime:xpcimports.obj
 0002:0000635c       ??_C@_0BE@BJAJFFLF@recvfrom?5not?5found?6@ 1007635c     xpcruntime:xpcimports.obj
 0002:00006374       ??_C@_06MEPBGKEC@sendto@   10076374     xpcruntime:xpcimports.obj
 0002:0000637c       ??_C@_0BC@BHPIMDJO@sendto?5not?5found?6@ 1007637c     xpcruntime:xpcimports.obj
 0002:00006394       ??_C@_09JKBDEEOB@inet_addr@ 10076394     xpcruntime:xpcimports.obj
 0002:000063a0       ??_C@_0BF@HKJPGECN@inet_addr?5not?5found?6@ 100763a0     xpcruntime:xpcimports.obj
 0002:000063bc       ??_C@_06HBELJPBO@socket@   100763bc     xpcruntime:xpcimports.obj
 0002:000063c4       ??_C@_0BC@NAGFFJGA@socket?5not?5found?6@ 100763c4     xpcruntime:xpcimports.obj
 0002:000063dc       ??_C@_09ICJIFGNC@GetSocket@ 100763dc     xpcruntime:xpcimports.obj
 0002:000063e8       ??_C@_0BF@KDBCKMOJ@GetSocket?5not?5found?6@ 100763e8     xpcruntime:xpcimports.obj
 0002:00006404       ??_C@_0P@KJEGJMJI@GetSocketState@ 10076404     xpcruntime:xpcimports.obj
 0002:00006418       ??_C@_0BK@IALBJHEB@GetSocketState?5not?5found?6@ 10076418     xpcruntime:xpcimports.obj
 0002:00006438       ??_C@_0L@MEAJHNHB@SocketSend@ 10076438     xpcruntime:xpcimports.obj
 0002:00006448       ??_C@_0BG@EOCMBFJA@SocketSend?5not?5found?6@ 10076448     xpcruntime:xpcimports.obj
 0002:00006464       ??_C@_0O@PFPCLEMF@SocketReceive@ 10076464     xpcruntime:xpcimports.obj
 0002:00006474       ??_C@_0BJ@HIBADDFO@SocketReceive?5not?5found?6@ 10076474     xpcruntime:xpcimports.obj
 0002:00006494       ??_C@_0BD@OOGFNAIK@CreateServerSocket@ 10076494     xpcruntime:xpcimports.obj
 0002:000064ac       ??_C@_0BO@GKIJHIPH@CreateServerSocket?5not?5found?6@ 100764ac     xpcruntime:xpcimports.obj
 0002:000064d0       ??_C@_0BB@KGHJGFFO@OpenServerListen@ 100764d0     xpcruntime:xpcimports.obj
 0002:000064e4       ??_C@_0BM@NFMMLIO@OpenServerListen?5not?5found?6@ 100764e4     xpcruntime:xpcimports.obj
 0002:00006508       ??_C@_0BE@BAJLDJAH@ConnectServerSocket@ 10076508     xpcruntime:xpcimports.obj
 0002:00006520       ??_C@_0BP@KJNODIKE@ConnectServerSocket?5not?5found?6@ 10076520     xpcruntime:xpcimports.obj
 0002:00006548       ??_C@_0BC@PLKKJDIM@CloseServerSocket@ 10076548     xpcruntime:xpcimports.obj
 0002:00006560       ??_C@_0BN@KEJEPNMB@CloseServerSocket?5not?5found?6@ 10076560     xpcruntime:xpcimports.obj
 0002:00006584       ??_C@_0BD@MCLPKCPP@CreateClientSocket@ 10076584     xpcruntime:xpcimports.obj
 0002:0000659c       ??_C@_0BO@DILAGPFN@CreateClientSocket?5not?5found?6@ 1007659c     xpcruntime:xpcimports.obj
 0002:000065c0       ??_C@_0BB@DAPKNNLG@BindClientSocket@ 100765c0     xpcruntime:xpcimports.obj
 0002:000065d4       ??_C@_0BM@LLLMMDFN@BindClientSocket?5not?5found?6@ 100765d4     xpcruntime:xpcimports.obj
 0002:000065f8       ??_C@_0BE@DMEBELHC@ConnectClientSocket@ 100765f8     xpcruntime:xpcimports.obj
 0002:00006610       ??_C@_0BP@PLOHCPAO@ConnectClientSocket?5not?5found?6@ 10076610     xpcruntime:xpcimports.obj
 0002:00006638       ??_C@_0BC@NHHAOBPJ@CloseClientSocket@ 10076638     xpcruntime:xpcimports.obj
 0002:00006650       ??_C@_0BN@PGKNOKGL@CloseClientSocket?5not?5found?6@ 10076650     xpcruntime:xpcimports.obj
 0002:00006728       __pRawDllMain              10076728     LIBCMT:dll_dllmain.obj
 0002:00006728       __pDefaultRawDllMain       10076728     LIBCMT:dll_dllmain.obj
 0002:00006920       ??_C@_08EHJDFFNH@__based?$CI@ 10076920     libvcruntime:undname.obj
 0002:0000692c       ??_C@_07KOLFKCDI@__cdecl@  1007692c     libvcruntime:undname.obj
 0002:00006938       ??_C@_08GHMPAG@__pascal@   10076938     libvcruntime:undname.obj
 0002:00006944       ??_C@_09IFJBGAPI@__stdcall@ 10076944     libvcruntime:undname.obj
 0002:00006950       ??_C@_0L@NPHFGOKO@__thiscall@ 10076950     libvcruntime:undname.obj
 0002:00006960       ??_C@_0L@JMKHOMEK@__fastcall@ 10076960     libvcruntime:undname.obj
 0002:00006970       ??_C@_0N@BCKKPABJ@__vectorcall@ 10076970     libvcruntime:undname.obj
 0002:00006980       ??_C@_09HIJEGCPM@__clrcall@ 10076980     libvcruntime:undname.obj
 0002:0000698c       ??_C@_06GHPCKEAG@__eabi@   1007698c     libvcruntime:undname.obj
 0002:00006994       ??_C@_09IOPIDJLG@__swift_1@ 10076994     libvcruntime:undname.obj
 0002:000069a0       ??_C@_09KFNFGKHF@__swift_2@ 100769a0     libvcruntime:undname.obj
 0002:000069ac       ??_C@_07JOMMBBKO@__ptr64@  100769ac     libvcruntime:undname.obj
 0002:000069b8       ??_C@_0L@PILCLIHE@__restrict@ 100769b8     libvcruntime:undname.obj
 0002:000069c8       ??_C@_0M@GFIIJFMG@__unaligned@ 100769c8     libvcruntime:undname.obj
 0002:000069d8       ??_C@_09DHDLOLLB@restrict?$CI@ 100769d8     libvcruntime:undname.obj
 0002:000069e4       ??_C@_04NIHEBCM@?5new@     100769e4     libvcruntime:undname.obj
 0002:000069ec       ??_C@_07FPCDHGMM@?5delete@ 100769ec     libvcruntime:undname.obj
 0002:000069f8       ??_C@_01NEMOKFLO@?$DN@     100769f8     libvcruntime:undname.obj
 0002:000069fc       ??_C@_02GPIOPFAK@?$DO?$DO@ 100769fc     libvcruntime:undname.obj
 0002:00006a00       ??_C@_02FODMEDOG@?$DM?$DM@ 10076a00     libvcruntime:undname.obj
 0002:00006a04       ??_C@_01DCLJPIOD@?$CB@     10076a04     libvcruntime:undname.obj
 0002:00006a08       ??_C@_02EGOFBIJA@?$DN?$DN@ 10076a08     libvcruntime:undname.obj
 0002:00006a0c       ??_C@_02FDNJECIE@?$CB?$DN@ 10076a0c     libvcruntime:undname.obj
 0002:00006a10       ??_C@_02GPECMEKF@?$FL?$FN@ 10076a10     libvcruntime:undname.obj
 0002:00006a14       ??_C@_08LHJFAFGD@operator@ 10076a14     libvcruntime:undname.obj
 0002:00006a20       ??_C@_02HBOOOICD@?9?$DO@   10076a20     libvcruntime:undname.obj
 0002:00006a24       ??_C@_01NBENCBCI@?$CK@     10076a24     libvcruntime:undname.obj
 0002:00006a28       ??_C@_02ECNGHCIF@?$CL?$CL@ 10076a28     libvcruntime:undname.obj
 0002:00006a2c       ??_C@_02BAABKJLB@?9?9@     10076a2c     libvcruntime:undname.obj
 0002:00006a30       ??_C@_01JOAMLHOP@?9@       10076a30     libvcruntime:undname.obj
 0002:00006a34       ??_C@_01MIFGBAGJ@?$CL@     10076a34     libvcruntime:undname.obj
 0002:00006a38       ??_C@_01HNPIGOCE@?$CG@     10076a38     libvcruntime:undname.obj
 0002:00006a3c       ??_C@_03MNHNFDLC@?9?$DO?$CK@ 10076a3c     libvcruntime:undname.obj
 0002:00006a40       ??_C@_01KMDKNFGN@?1@       10076a40     libvcruntime:undname.obj
 0002:00006a44       ??_C@_01FGNFDNOH@?$CF@     10076a44     libvcruntime:undname.obj
 0002:00006a48       ??_C@_01MNNFJEPP@?$DM@     10076a48     libvcruntime:undname.obj
 0002:00006a4c       ??_C@_02EHCHHCKH@?$DM?$DN@ 10076a4c     libvcruntime:undname.obj
 0002:00006a50       ??_C@_01PPODPGHN@?$DO@     10076a50     libvcruntime:undname.obj
 0002:00006a54       ??_C@_02EEKDKGMJ@?$DO?$DN@ 10076a54     libvcruntime:undname.obj
 0002:00006a58       ??_C@_01IHBHIGKO@?0@       10076a58     libvcruntime:undname.obj
 0002:00006a5c       ??_C@_02HCKGKOFO@?$CI?$CJ@ 10076a5c     libvcruntime:undname.obj
 0002:00006a60       ??_C@_01PJKLJHI@?$HO@      10076a60     libvcruntime:undname.obj
 0002:00006a64       ??_C@_01JKBOJNNK@?$FO@     10076a64     libvcruntime:undname.obj
 0002:00006a68       ??_C@_01DNKMNLPK@?$HM@     10076a68     libvcruntime:undname.obj
 0002:00006a6c       ??_C@_02PPKAJPJL@?$CG?$CG@ 10076a6c     libvcruntime:undname.obj
 0002:00006a70       ??_C@_02NONPIBCD@?$HM?$HM@ 10076a70     libvcruntime:undname.obj
 0002:00006a74       ??_C@_02FPIMKNGF@?$CK?$DN@ 10076a74     libvcruntime:undname.obj
 0002:00006a78       ??_C@_02FOEOMHFC@?$CL?$DN@ 10076a78     libvcruntime:undname.obj
 0002:00006a7c       ??_C@_02FKMDLLOA@?9?$DN@   10076a7c     libvcruntime:undname.obj
 0002:00006a80       ??_C@_02FJEHGPIO@?1?$DN@   10076a80     libvcruntime:undname.obj
 0002:00006a84       ??_C@_02FENAOKFI@?$CF?$DN@ 10076a84     libvcruntime:undname.obj
 0002:00006a88       ??_C@_03IKFCCPFF@?$DO?$DO?$DN@ 10076a88     libvcruntime:undname.obj
 0002:00006a8c       ??_C@_03CDNPDDLA@?$DM?$DM?$DN@ 10076a8c     libvcruntime:undname.obj
 0002:00006a90       ??_C@_02FGJGFEAB@?$CG?$DN@ 10076a90     libvcruntime:undname.obj
 0002:00006a94       ??_C@_02DHLNPPGH@?$HM?$DN@ 10076a94     libvcruntime:undname.obj
 0002:00006a98       ??_C@_02MHEGNOJ@?$FO?$DN@  10076a98     libvcruntime:undname.obj
 0002:00006a9c       ??_C@_09IFPLHPGF@?$GAvftable?8@ 10076a9c     libvcruntime:undname.obj
 0002:00006aa8       ??_C@_09BLBHBJP@?$GAvbtable?8@ 10076aa8     libvcruntime:undname.obj
 0002:00006ab4       ??_C@_07FEEIOKP@?$GAvcall?8@ 10076ab4     libvcruntime:undname.obj
 0002:00006ac0       ??_C@_08LLFFHHDJ@?$GAtypeof?8@ 10076ac0     libvcruntime:undname.obj
 0002:00006acc       ??_C@_0BF@KDPPACIK@?$GAlocal?5static?5guard?8@ 10076acc     libvcruntime:undname.obj
 0002:00006ae8       ??_C@_08OBABFOLI@?$GAstring?8@ 10076ae8     libvcruntime:undname.obj
 0002:00006af4       ??_C@_0BD@JDLKDPAB@?$GAvbase?5destructor?8@ 10076af4     libvcruntime:undname.obj
 0002:00006b0c       ??_C@_0BN@DEGPLNFK@?$GAvector?5deleting?5destructor?8@ 10076b0c     libvcruntime:undname.obj
 0002:00006b30       ??_C@_0BO@OBMKPJIG@?$GAdefault?5constructor?5closure?8@ 10076b30     libvcruntime:undname.obj
 0002:00006b54       ??_C@_0BN@IMDCHIKM@?$GAscalar?5deleting?5destructor?8@ 10076b54     libvcruntime:undname.obj
 0002:00006b78       ??_C@_0BO@PFGOCPJJ@?$GAvector?5constructor?5iterator?8@ 10076b78     libvcruntime:undname.obj
 0002:00006b9c       ??_C@_0BN@LFPFMEDL@?$GAvector?5destructor?5iterator?8@ 10076b9c     libvcruntime:undname.obj
 0002:00006bc0       ??_C@_0CE@IKBNEHA@?$GAvector?5vbase?5constructor?5itera@ 10076bc0     libvcruntime:undname.obj
 0002:00006bec       ??_C@_0BL@NILFHHPC@?$GAvirtual?5displacement?5map?8@ 10076bec     libvcruntime:undname.obj
 0002:00006c0c       ??_C@_0CB@JONCMFFK@?$GAeh?5vector?5constructor?5iterator@ 10076c0c     libvcruntime:undname.obj
 0002:00006c34       ??_C@_0CA@GCEOPDGL@?$GAeh?5vector?5destructor?5iterator?8@ 10076c34     libvcruntime:undname.obj
 0002:00006c5c       ??_C@_0CH@OOJPLCPH@?$GAeh?5vector?5vbase?5constructor?5it@ 10076c5c     libvcruntime:undname.obj
 0002:00006c8c       ??_C@_0BL@LLKPOHJI@?$GAcopy?5constructor?5closure?8@ 10076c8c     libvcruntime:undname.obj
 0002:00006cac       ??_C@_0BA@KBCDOMBN@?$GAudt?5returning?8@ 10076cac     libvcruntime:undname.obj
 0002:00006cc0       ??_C@_03KLGMFNMG@?$GAEH@   10076cc0     libvcruntime:undname.obj
 0002:00006cc4       ??_C@_05KHLCHHI@?$GARTTI@  10076cc4     libvcruntime:undname.obj
 0002:00006ccc       ??_C@_0BA@KKLDJDLB@?$GAlocal?5vftable?8@ 10076ccc     libvcruntime:undname.obj
 0002:00006ce0       ??_C@_0CE@IIHCMGGL@?$GAlocal?5vftable?5constructor?5clos@ 10076ce0     libvcruntime:undname.obj
 0002:00006d0c       ??_C@_06FHBGPFGH@?5new?$FL?$FN@ 10076d0c     libvcruntime:undname.obj
 0002:00006d14       ??_C@_09LBNFPBCA@?5delete?$FL?$FN@ 10076d14     libvcruntime:undname.obj
 0002:00006d20       ??_C@_0P@HJKNJFNN@?$GAomni?5callsig?8@ 10076d20     libvcruntime:undname.obj
 0002:00006d34       ??_C@_0BL@CNOONJFP@?$GAplacement?5delete?5closure?8@ 10076d34     libvcruntime:undname.obj
 0002:00006d54       ??_C@_0BN@CKNJLHMB@?$GAplacement?5delete?$FL?$FN?5closure?8@ 10076d54     libvcruntime:undname.obj
 0002:00006d78       ??_C@_0CG@CFDHKGGD@?$GAmanaged?5vector?5constructor?5ite@ 10076d78     libvcruntime:undname.obj
 0002:00006da8       ??_C@_0CF@IMGKMJNO@?$GAmanaged?5vector?5destructor?5iter@ 10076da8     libvcruntime:undname.obj
 0002:00006dd4       ??_C@_0CG@HLDDJMAG@?$GAeh?5vector?5copy?5constructor?5ite@ 10076dd4     libvcruntime:undname.obj
 0002:00006e04       ??_C@_0CM@FCBBDIGB@?$GAeh?5vector?5vbase?5copy?5construct@ 10076e04     libvcruntime:undname.obj
 0002:00006e38       ??_C@_0BL@CLIPGLGB@?$GAdynamic?5initializer?5for?5?8@ 10076e38     libvcruntime:undname.obj
 0002:00006e58       ??_C@_0CB@PDBIFEP@?$GAdynamic?5atexit?5destructor?5for?5@ 10076e58     libvcruntime:undname.obj
 0002:00006e80       ??_C@_0CD@CGAJBKEJ@?$GAvector?5copy?5constructor?5iterat@ 10076e80     libvcruntime:undname.obj
 0002:00006eac       ??_C@_0CJ@GJELGAMM@?$GAvector?5vbase?5copy?5constructor?5@ 10076eac     libvcruntime:undname.obj
 0002:00006ee0       ??_C@_0CL@FGIJHLCE@?$GAmanaged?5vector?5copy?5constructo@ 10076ee0     libvcruntime:undname.obj
 0002:00006f14       ??_C@_0BM@PMGGMLDN@?$GAlocal?5static?5thread?5guard?8@ 10076f14     libvcruntime:undname.obj
 0002:00006f38       ??_C@_0N@BDNMDMOL@operator?5?$CC?$CC?5@ 10076f38     libvcruntime:undname.obj
 0002:00006f48       ??_C@_0BC@GGEBGALA@operator?5co_await@ 10076f48     libvcruntime:undname.obj
 0002:00006f60       ??_C@_0BC@DAFEJGAK@?5Type?5Descriptor?8@ 10076f60     libvcruntime:undname.obj
 0002:00006f78       ??_C@_0BM@LDKODKLH@?5Base?5Class?5Descriptor?5at?5?$CI@ 10076f78     libvcruntime:undname.obj
 0002:00006f9c       ??_C@_0BD@LGICGFMM@?5Base?5Class?5Array?8@ 10076f9c     libvcruntime:undname.obj
 0002:00006fb4       ??_C@_0BN@MECKDCOJ@?5Class?5Hierarchy?5Descriptor?8@ 10076fb4     libvcruntime:undname.obj
 0002:00006fd8       ??_C@_0BK@CFCOFLF@?5Complete?5Object?5Locator?8@ 10076fd8     libvcruntime:undname.obj
 0002:00006ff8       ??_C@_04HEJADOOB@CV?3?5@   10076ff8     libvcruntime:undname.obj
 0002:00007000       ??_C@_02MOLJINC@?3?3@      10077000     libvcruntime:undname.obj
 0002:00007004       ??_C@_0BE@JAEOCHPE@template?9parameter?9@ 10077004     libvcruntime:undname.obj
 0002:0000701c       ??_C@_0O@KHGCOMHP@generic?9type?9@ 1007701c     libvcruntime:undname.obj
 0002:0000702c       ??_C@_01NLNLIGKH@?$GA@     1007702c     libvcruntime:undname.obj
 0002:00007030       ??_C@_01GEODFPGF@?8@       10077030     libvcruntime:undname.obj
 0002:00007034       ??_C@_0BG@JNJLAMPM@?$GAanonymous?5namespace?8@ 10077034     libvcruntime:undname.obj
 0002:00007050       ??_C@_02OHHJMEON@?8?8@     10077050     libvcruntime:undname.obj
 0002:00007054       ??_C@_0BN@IBLMMFAP@?$GAnon?9type?9template?9parameter@ 10077054     libvcruntime:undname.obj
 0002:00007078       ??_C@_04GKJNKENE@void@     10077078     libvcruntime:undname.obj
 0002:00007080       ??_C@_0BE@EODMJLIF@?$GAtemplate?9parameter@ 10077080     libvcruntime:undname.obj
 0002:00007098       ??_C@_03KHICJKCI@?4?4?4@   10077098     libvcruntime:undname.obj
 0002:0000709c       ??_C@_04HIBGFPH@NULL@      1007709c     libvcruntime:undname.obj
 0002:000070a4       ??_C@_02DPKJAMEF@?$CFd@    100770a4     libvcruntime:undname.obj
 0002:000070a8       ??_C@_0BK@IHCCFNEL@?$GAtemplate?9type?9parameter?9@ 100770a8     libvcruntime:undname.obj
 0002:000070c8       ??_C@_0BK@OFCNNNKO@?$GAgeneric?9class?9parameter?9@ 100770c8     libvcruntime:undname.obj
 0002:000070e8       ??_C@_0BL@NGJBLFIL@?$GAgeneric?9method?9parameter?9@ 100770e8     libvcruntime:undname.obj
 0002:00007108       ??_C@_03OPGICMGF@?$HN?8?5@ 10077108     libvcruntime:undname.obj
 0002:0000710c       ??_C@_02IGFCGPIL@?$HN?8@   1007710c     libvcruntime:undname.obj
 0002:00007110       ??_C@_01CLKCMJKC@?5@       10077110     libvcruntime:undname.obj
 0002:00007114       ??_C@_0N@CBHHHENL@?$GAvtordispex?$HL@ 10077114     libvcruntime:undname.obj
 0002:00007124       ??_C@_0L@GHPFDFH@?$GAvtordisp?$HL@ 10077124     libvcruntime:undname.obj
 0002:00007134       ??_C@_0L@HNGCOGAE@?$GAadjustor?$HL@ 10077134     libvcruntime:undname.obj
 0002:00007144       ??_C@_0CB@KJDOOODE@?$GAlocal?5static?5destructor?5helper@ 10077144     libvcruntime:undname.obj
 0002:0000716c       ??_C@_0DB@ILEFOCIJ@?$GAtemplate?5static?5data?5member?5co@ 1007716c     libvcruntime:undname.obj
 0002:000071a8       ??_C@_0DA@HGFJFBBE@?$GAtemplate?5static?5data?5member?5de@ 100771a8     libvcruntime:undname.obj
 0002:000071e4       ??_C@_07PGOEDBHP@static?5@ 100771e4     libvcruntime:undname.obj
 0002:000071f0       ??_C@_08NIEOINHE@virtual?5@ 100771f0     libvcruntime:undname.obj
 0002:000071fc       ??_C@_09LAPHOOG@private?3?5@ 100771fc     libvcruntime:undname.obj
 0002:00007208       ??_C@_0M@GAIFPFIP@protected?3?5@ 10077208     libvcruntime:undname.obj
 0002:00007218       ??_C@_08GPDDCMKI@public?3?5@ 10077218     libvcruntime:undname.obj
 0002:00007224       ??_C@_08KJLFOPNE@?$FLthunk?$FN?3@ 10077224     libvcruntime:undname.obj
 0002:00007230       ??_C@_0M@DHNBOJMP@extern?5?$CCC?$CC?5@ 10077230     libvcruntime:undname.obj
 0002:00007240       ??_C@_02KCKGHPCA@?$CJ?5@   10077240     libvcruntime:undname.obj
 0002:00007244       ??_C@_05CIHEBHNO@char?5@   10077244     libvcruntime:undname.obj
 0002:0000724c       ??_C@_06EHJMALKF@short?5@  1007724c     libvcruntime:undname.obj
 0002:00007254       ??_C@_04LAHKHJMA@int?5@    10077254     libvcruntime:undname.obj
 0002:0000725c       ??_C@_05CJIMAING@long?5@   1007725c     libvcruntime:undname.obj
 0002:00007264       ??_C@_09EBBEKKIH@unsigned?5@ 10077264     libvcruntime:undname.obj
 0002:00007270       ??_C@_05BEFAKPML@void?5@   10077270     libvcruntime:undname.obj
 0002:00007278       ??_C@_08PABEKFH@volatile@  10077278     libvcruntime:undname.obj
 0002:00007284       ??_C@_0BA@LKIJLKPP@std?3?3nullptr_t?5@ 10077284     libvcruntime:undname.obj
 0002:00007298       ??_C@_0P@GCOCNKDM@std?3?3nullptr_t@ 10077298     libvcruntime:undname.obj
 0002:000072ac       ??_C@_0L@EGPHHEKN@?$DMellipsis?$DO@ 100772ac     libvcruntime:undname.obj
 0002:000072bc       ??_C@_04EENFHACM@?0?4?4?4@ 100772bc     libvcruntime:undname.obj
 0002:000072c4       ??_C@_0M@ELJOJFFH@?0?$DMellipsis?$DO@ 100772c4     libvcruntime:undname.obj
 0002:000072d4       ??_C@_09DNHFEOJI@?5noexcept@ 100772d4     libvcruntime:undname.obj
 0002:000072e0       ??_C@_03PBJBJNON@cpu@      100772e0     libvcruntime:undname.obj
 0002:000072e4       ??_C@_03DCBBJBAA@amp@      100772e4     libvcruntime:undname.obj
 0002:000072e8       ??_C@_02KEGNLNML@?0?5@     100772e8     libvcruntime:undname.obj
 0002:000072ec       ??_C@_04ENMBGAPA@char@     100772ec     libvcruntime:undname.obj
 0002:000072f4       ??_C@_05BFKKPKCG@short@    100772f4     libvcruntime:undname.obj
 0002:000072fc       ??_C@_03JBIPMCLC@int@      100772fc     libvcruntime:undname.obj
 0002:00007300       ??_C@_04GOKPGOLB@long@     10077300     libvcruntime:undname.obj
 0002:00007308       ??_C@_04DDKJGDCM@bool@     10077308     libvcruntime:undname.obj
 0002:00007310       ??_C@_06EBGKOKIG@__int8@   10077310     libvcruntime:undname.obj
 0002:00007318       ??_C@_07ICFHOGAF@__int16@  10077318     libvcruntime:undname.obj
 0002:00007324       ??_C@_07OFLPPHGP@__int32@  10077324     libvcruntime:undname.obj
 0002:00007330       ??_C@_07LFCOJCAC@__int64@  10077330     libvcruntime:undname.obj
 0002:0000733c       ??_C@_08GAHOLHEO@__int128@ 1007733c     libvcruntime:undname.obj
 0002:00007348       ??_C@_09EEKGDCPH@?$DMunknown?$DO@ 10077348     libvcruntime:undname.obj
 0002:00007354       ??_C@_08HBIPOFJB@char16_t@ 10077354     libvcruntime:undname.obj
 0002:00007360       ??_C@_08IECNCBKG@char32_t@ 10077360     libvcruntime:undname.obj
 0002:0000736c       ??_C@_07CLGGIAMF@wchar_t@  1007736c     libvcruntime:undname.obj
 0002:00007378       ??_C@_06GCICPBLB@__w64?5@  10077378     libvcruntime:undname.obj
 0002:00007380       ??_C@_07NFANNNEC@UNKNOWN@  10077380     libvcruntime:undname.obj
 0002:0000738c       ??_C@_07EDHNAJHC@signed?5@ 1007738c     libvcruntime:undname.obj
 0002:00007398       ??_C@_05BNCCCJPP@const@    10077398     libvcruntime:undname.obj
 0002:000073a0       ??_C@_09EFNPDFFP@?5volatile@ 100773a0     libvcruntime:undname.obj
 0002:000073ac       ??_C@_0P@GCIFDJCJ@?$GAunknown?5ecsu?8@ 100773ac     libvcruntime:undname.obj
 0002:000073c0       ??_C@_06MOJHIBMG@union?5@  100773c0     libvcruntime:undname.obj
 0002:000073c8       ??_C@_07DIBCDNGL@struct?5@ 100773c8     libvcruntime:undname.obj
 0002:000073d4       ??_C@_06LJBABKPM@class?5@  100773d4     libvcruntime:undname.obj
 0002:000073dc       ??_C@_08KOFANOFK@coclass?5@ 100773dc     libvcruntime:undname.obj
 0002:000073e8       ??_C@_0N@DLIEFKNA@cointerface?5@ 100773e8     libvcruntime:undname.obj
 0002:000073f8       ??_C@_05LJGMCFOG@enum?5@   100773f8     libvcruntime:undname.obj
 0002:00007400       ??_C@_09GAIEOBLP@volatile?5@ 10077400     libvcruntime:undname.obj
 0002:0000740c       ??_C@_06LIJLOJAG@const?5@  1007740c     libvcruntime:undname.obj
 0002:00007414       ??_C@_02KJPKDIBN@?$CG?5@   10077414     libvcruntime:undname.obj
 0002:00007418       ??_C@_03PCKGMOPB@?$CG?$CG?5@ 10077418     libvcruntime:undname.obj
 0002:0000741c       ??_C@_0M@EALIELKG@cli?3?3array?$DM@ 1007741c     libvcruntime:undname.obj
 0002:0000742c       ??_C@_0O@GKABPPIF@cli?3?3pin_ptr?$DM@ 1007742c     libvcruntime:undname.obj
 0002:0000743c       ??_C@_02GOGNNPBN@?$CJ?$FL@ 1007743c     libvcruntime:undname.obj
 0002:00007440       ??_C@_06EEGAIFAK@?$HLflat?$HN@ 10077440     libvcruntime:undname.obj
 0002:00007448       ??_C@_05JIBOFOHK@?$HLfor?5@ 10077448     libvcruntime:undname.obj
 0002:00007450       ??_C@_02MDINNEEG@s?5@      10077450     libvcruntime:undname.obj
 0002:00007458       ??_7DNameNode@@6B@         10077458     libvcruntime:undname.obj
 0002:0000746c       ??_7charNode@@6B@          1007746c     libvcruntime:undname.obj
 0002:00007480       ??_7pcharNode@@6B@         10077480     libvcruntime:undname.obj
 0002:00007494       ??_7pDNameNode@@6B@        10077494     libvcruntime:undname.obj
 0002:000074a8       ??_7DNameStatusNode@@6B@   100774a8     libvcruntime:undname.obj
 0002:000074bc       ??_7pairNode@@6B@          100774bc     libvcruntime:undname.obj
 0002:000074cc       ??_C@_04OKOHEJBO@?5?$DP?$DP?5@ 100774cc     libvcruntime:undname.obj
 0002:000074d4       ?nodes@?1??make@DNameStatusNode@@SAPBV2@W4DNameStatus@@@Z@4QBV2@B 100774d4     libvcruntime:undname.obj
 0002:00007520       ??_C@_1DM@KHCHBNEB@?$AAa?$AAp?$AAi?$AA?9?$AAm?$AAs?$AA?9?$AAw?$AAi?$AAn?$AA?9?$AAc?$AAo?$AAr?$AAe@ 10077520     libvcruntime:winapi_downlevel.obj
 0002:00007568       ??_C@_1DK@LPPGFMPP@?$AAa?$AAp?$AAi?$AA?9?$AAm?$AAs?$AA?9?$AAw?$AAi?$AAn?$AA?9?$AAc?$AAo?$AAr?$AAe@ 10077568     libvcruntime:winapi_downlevel.obj
 0002:000075b0       ??_C@_1BC@GDMECMAK@?$AAk?$AAe?$AAr?$AAn?$AAe?$AAl?$AA3?$AA2@ 100775b0     libvcruntime:winapi_downlevel.obj
 0002:000075c8       ??_C@_1BA@PFFKHIOG@?$AAa?$AAp?$AAi?$AA?9?$AAm?$AAs?$AA?9@ 100775c8     libvcruntime:winapi_downlevel.obj
 0002:000075dc       ??_C@_1BA@IAIFMGEF@?$AAe?$AAx?$AAt?$AA?9?$AAm?$AAs?$AA?9@ 100775dc     libvcruntime:winapi_downlevel.obj
 0002:000075fc       ??_C@_08KNHFBNJ@FlsAlloc@  100775fc     libvcruntime:winapi_downlevel.obj
 0002:00007614       ??_C@_07PEJMOBNF@FlsFree@  10077614     libvcruntime:winapi_downlevel.obj
 0002:0000762c       ??_C@_0M@GDNOONDI@FlsGetValue@ 1007762c     libvcruntime:winapi_downlevel.obj
 0002:00007648       ??_C@_0M@JCPCPOEF@FlsSetValue@ 10077648     libvcruntime:winapi_downlevel.obj
 0002:00007664       ??_C@_0BM@HCFOFFN@InitializeCriticalSectionEx@ 10077664     libvcruntime:winapi_downlevel.obj
 0002:0000768c       ??_7exception@std@@6B@     1007768c     libvcruntime:frame.obj
 0002:00007698       ??_C@_0BC@EOODALEL@Unknown?5exception@ 10077698     libvcruntime:frame.obj
 0002:000076b4       ??_7bad_exception@std@@6B@ 100776b4     libvcruntime:frame.obj
 0002:000076c0       ??_C@_0O@DPKOEFFH@bad?5exception@ 100776c0     libvcruntime:frame.obj
 0002:000076d0       __pDestructExceptionObject 100776d0     libvcruntime:ehhelpers.obj
 0002:000076fc       ??_C@_0CK@CFPGFGGO@Assertion?5failed?3?5?$CFTs?0?5file?5?$CFTs?0@ 100776fc     libucrt:assert.obj
 0002:00007730       ??_C@_1FE@LHBLIKM@?$AAA?$AAs?$AAs?$AAe?$AAr?$AAt?$AAi?$AAo?$AAn?$AA?5?$AAf?$AAa?$AAi?$AAl?$AAe?$AAd?$AA?3?$AA?5?$AA?$CF?$AAT?$AAs?$AA?0?$AA?5?$AAf?$AAi?$AAl?$AAe?$AA?5?$AA?$CF?$AAT?$AAs?$AA?0@ 10077730     libucrt:assert.obj
 0002:00007794       ??_C@_0CF@GOGNBNAK@Microsoft?5Visual?5C?$CL?$CL?5Runtime?5Lib@ 10077794     libucrt:assert.obj
 0002:000077c0       ??_C@_1EK@MBDPDCGA@?$AAM?$AAi?$AAc?$AAr?$AAo?$AAs?$AAo?$AAf?$AAt?$AA?5?$AAV?$AAi?$AAs?$AAu?$AAa?$AAl?$AA?5?$AAC?$AA?$CL?$AA?$CL?$AA?5?$AAR?$AAu?$AAn?$AAt?$AAi?$AAm?$AAe?$AA?5?$AAL?$AAi?$AAb@ 100777c0     libucrt:assert.obj
 0002:00007818       ??_C@_0BC@LAIDCHCH@Assertion?5failed?$CB?$AA@ 10077818     libucrt:assert.obj
 0002:00007830       ??_C@_1CE@OJBNHDMO@?$AAA?$AAs?$AAs?$AAe?$AAr?$AAt?$AAi?$AAo?$AAn?$AA?5?$AAf?$AAa?$AAi?$AAl?$AAe?$AAd?$AA?$CB?$AA?$AA@ 10077830     libucrt:assert.obj
 0002:0000785c       ??_C@_09KLGCKDOD@Program?3?5?$AA@ 1007785c     libucrt:assert.obj
 0002:00007868       ??_C@_1BE@PHKBBGE@?$AAP?$AAr?$AAo?$AAg?$AAr?$AAa?$AAm?$AA?3?$AA?5?$AA?$AA@ 10077868     libucrt:assert.obj
 0002:00007880       ??_C@_06IGPBOHMJ@File?3?5?$AA@ 10077880     libucrt:assert.obj
 0002:00007888       ??_C@_1O@HEMHKNDC@?$AAF?$AAi?$AAl?$AAe?$AA?3?$AA?5?$AA?$AA@ 10077888     libucrt:assert.obj
 0002:00007898       ??_C@_06FIEBOLOH@Line?3?5?$AA@ 10077898     libucrt:assert.obj
 0002:000078a0       ??_C@_1O@KCAFKHJE@?$AAL?$AAi?$AAn?$AAe?$AA?3?$AA?5?$AA?$AA@ 100778a0     libucrt:assert.obj
 0002:000078b0       ??_C@_0N@MEECIJGN@Expression?3?5?$AA@ 100778b0     libucrt:assert.obj
 0002:000078c0       ??_C@_1BK@PEDCIPMA@?$AAE?$AAx?$AAp?$AAr?$AAe?$AAs?$AAs?$AAi?$AAo?$AAn?$AA?3?$AA?5?$AA?$AA@ 100778c0     libucrt:assert.obj
 0002:000078e0       ??_C@_0HA@OJHAGA@For?5information?5on?5how?5your?5prog@ 100778e0     libucrt:assert.obj
 0002:00007968       ??_C@_1OA@EGMLFBHJ@?$AAF?$AAo?$AAr?$AA?5?$AAi?$AAn?$AAf?$AAo?$AAr?$AAm?$AAa?$AAt?$AAi?$AAo?$AAn?$AA?5?$AAo?$AAn?$AA?5?$AAh?$AAo?$AAw?$AA?5?$AAy?$AAo?$AAu?$AAr?$AA?5?$AAp?$AAr?$AAo?$AAg@ 10077968     libucrt:assert.obj
 0002:00007a74       ??_C@_0DN@EBBNMLME@?$CIPress?5Retry?5to?5debug?5the?5applic@ 10077a74     libucrt:assert.obj
 0002:00007ac0       ??_C@_1HK@POCJMFGK@?$AA?$CI?$AAP?$AAr?$AAe?$AAs?$AAs?$AA?5?$AAR?$AAe?$AAt?$AAr?$AAy?$AA?5?$AAt?$AAo?$AA?5?$AAd?$AAe?$AAb?$AAu?$AAg?$AA?5?$AAt?$AAh?$AAe?$AA?5?$AAa?$AAp?$AAp?$AAl?$AAi?$AAc@ 10077ac0     libucrt:assert.obj
 0002:00007b54       ??_C@_03KHICJKCI@?4?4?4?$AA@ 10077b54     libucrt:assert.obj
 0002:00007b58       ??_C@_17LGKOMLJ@?$AA?4?$AA?4?$AA?4?$AA?$AA@ 10077b58     libucrt:assert.obj
 0002:00007b64       ??_C@_01EEMJAFIK@?6?$AA@   10077b64     libucrt:assert.obj
 0002:00007b68       ??_C@_13LBAGMAIH@?$AA?6?$AA?$AA@ 10077b68     libucrt:assert.obj
 0002:00007b6c       ??_C@_02PHMGELLB@?6?6?$AA@ 10077b6c     libucrt:assert.obj
 0002:00007b70       ??_C@_15IABLJNFO@?$AA?6?$AA?6?$AA?$AA@ 10077b70     libucrt:assert.obj
 0002:00007b78       ??_C@_0BH@DNAGHKFM@?$DMprogram?5name?5unknown?$DO?$AA@ 10077b78     libucrt:assert.obj
 0002:00007b94       ??_C@_1CO@EAEJAADC@?$AA?$DM?$AAp?$AAr?$AAo?$AAg?$AAr?$AAa?$AAm?$AA?5?$AAn?$AAa?$AAm?$AAe?$AA?5?$AAu?$AAn?$AAk?$AAn?$AAo?$AAw?$AAn?$AA?$DO?$AA?$AA@ 10077b94     libucrt:assert.obj
 0002:00007bcc       _RtlNtPathSeperatorString  10077bcc     libucrt:exit.obj
 0002:00007bd8       ??_C@_13FPGAJAPJ@?$AA?2?$AA?$AA@ 10077bd8     libucrt:exit.obj
 0002:00007bdc       _RtlDosPathSeperatorsString 10077bdc     libucrt:exit.obj
 0002:00007be8       ??_C@_15MNCACJLI@?$AA?2?$AA?1?$AA?$AA@ 10077be8     libucrt:exit.obj
 0002:00007bf0       _RtlAlternateDosPathSeperatorString 10077bf0     libucrt:exit.obj
 0002:00007bfc       ??_C@_13CGOKJPIL@?$AA?1?$AA?$AA@ 10077bfc     libucrt:exit.obj
 0002:00007c00       ??_C@_1BI@BGOHAHKC@?$AAm?$AAs?$AAc?$AAo?$AAr?$AAe?$AAe?$AA?4?$AAd?$AAl?$AAl?$AA?$AA@ 10077c00     libucrt:exit.obj
 0002:00007c1c       ??_C@_0P@MIGLKIOC@CorExitProcess?$AA@ 10077c1c     libucrt:exit.obj
 0002:00007c30       _standard_lookup_table     10077c30     libucrt:output.obj
 0002:00007ca0       _format_validation_lookup_table 10077ca0     libucrt:output.obj
 0002:00007d10       ??_C@_1O@CEDCILHN@?$AA?$CI?$AAn?$AAu?$AAl?$AAl?$AA?$CJ?$AA?$AA@ 10077d10     libucrt:output.obj
 0002:00007d20       ??_C@_06OJHGLDPL@?$CInull?$CJ?$AA@ 10077d20     libucrt:output.obj
 0002:00007d28       __real@0000000000000000    10077d28     libucrt:ldexp.obj
 0002:00007e50       ??_C@_03KHJOGHMM@exp?$AA@  10077e50     libucrt:fpexcept.obj
 0002:00007e54       ??_C@_03JGHBODFD@pow?$AA@  10077e54     libucrt:fpexcept.obj
 0002:00007e58       ??_C@_03MGHMBJCF@log?$AA@  10077e58     libucrt:fpexcept.obj
 0002:00007e5c       ??_C@_05HGHHAHAP@log10?$AA@ 10077e5c     libucrt:fpexcept.obj
 0002:00007e64       ??_C@_04COOMCNPB@sinh?$AA@ 10077e64     libucrt:fpexcept.obj
 0002:00007e6c       ??_C@_04HPJJNFIM@cosh?$AA@ 10077e6c     libucrt:fpexcept.obj
 0002:00007e74       ??_C@_04FJHINJAO@tanh?$AA@ 10077e74     libucrt:fpexcept.obj
 0002:00007e7c       ??_C@_04FIHNOPOL@asin?$AA@ 10077e7c     libucrt:fpexcept.obj
 0002:00007e84       ??_C@_04PDIFKINK@acos?$AA@ 10077e84     libucrt:fpexcept.obj
 0002:00007e8c       ??_C@_04MLLJIGOK@atan?$AA@ 10077e8c     libucrt:fpexcept.obj
 0002:00007e94       ??_C@_05KNGEOGJB@atan2?$AA@ 10077e94     libucrt:fpexcept.obj
 0002:00007e9c       ??_C@_04EIAKFFMI@sqrt?$AA@ 10077e9c     libucrt:fpexcept.obj
 0002:00007ea4       ??_C@_03BLEJJJBH@sin?$AA@  10077ea4     libucrt:fpexcept.obj
 0002:00007ea8       ??_C@_03LALBNOCG@cos?$AA@  10077ea8     libucrt:fpexcept.obj
 0002:00007eac       ??_C@_03IIINPABG@tan?$AA@  10077eac     libucrt:fpexcept.obj
 0002:00007eb0       ??_C@_04GFPJNGEK@ceil?$AA@ 10077eb0     libucrt:fpexcept.obj
 0002:00007eb8       ??_C@_05PBJFFIGL@floor?$AA@ 10077eb8     libucrt:fpexcept.obj
 0002:00007ec0       ??_C@_04ODHECPBC@fabs?$AA@ 10077ec0     libucrt:fpexcept.obj
 0002:00007ec8       ??_C@_04EHEDPDJG@modf?$AA@ 10077ec8     libucrt:fpexcept.obj
 0002:00007ed0       ??_C@_05CEJMAHNP@ldexp?$AA@ 10077ed0     libucrt:fpexcept.obj
 0002:00007ed8       ??_C@_05KBKMEMPO@_cabs?$AA@ 10077ed8     libucrt:fpexcept.obj
 0002:00007ee0       ??_C@_06MEIMCGCF@_hypot?$AA@ 10077ee0     libucrt:fpexcept.obj
 0002:00007ee8       ??_C@_04KEPJIHGP@fmod?$AA@ 10077ee8     libucrt:fpexcept.obj
 0002:00007ef0       ??_C@_05GKKHEGJL@frexp?$AA@ 10077ef0     libucrt:fpexcept.obj
 0002:00007ef8       ??_C@_03MJLDFKDL@_y0?$AA@  10077ef8     libucrt:fpexcept.obj
 0002:00007efc       ??_C@_03NAKIGLHK@_y1?$AA@  10077efc     libucrt:fpexcept.obj
 0002:00007f00       ??_C@_03ONILCKOB@_yn?$AA@  10077f00     libucrt:fpexcept.obj
 0002:00007f04       ??_C@_05JGDBENOH@_logb?$AA@ 10077f04     libucrt:fpexcept.obj
 0002:00007f0c       ??_C@_0L@KDOEJCKC@_nextafter?$AA@ 10077f0c     libucrt:fpexcept.obj
 0002:00007f20       ___acrt_exception_action_table 10077f20     libucrt:exception_filter.obj
 0002:00007fcc       ___acrt_signal_action_table_count 10077fcc     libucrt:exception_filter.obj
 0002:00007fd0       ___acrt_signal_action_table_size 10077fd0     libucrt:exception_filter.obj
 0002:00007fd4       ___acrt_signal_action_first_fpe_index 10077fd4     libucrt:exception_filter.obj
 0002:00007fd8       ___acrt_signal_action_fpe_count 10077fd8     libucrt:exception_filter.obj
 0002:0000807c       __Fenv1                    1007807c     libucrt:atox.obj
 0002:00008088       ??_C@_1DE@JNGNBFGO@?$AAR?$AAu?$AAn?$AAt?$AAi?$AAm?$AAe?$AA?5?$AAE?$AAr?$AAr?$AAo?$AAr?$AA?$CB?$AA?6?$AA?6?$AAP?$AAr?$AAo?$AAg?$AAr?$AAa?$AAm?$AA?3?$AA?5?$AA?$AA@ 10078088     libucrt:report_runtime_error.obj
 0002:000082d0       ??_C@_1EA@JGEFHKEI@?$AAa?$AAp?$AAi?$AA?9?$AAm?$AAs?$AA?9?$AAw?$AAi?$AAn?$AA?9?$AAc?$AAo?$AAr?$AAe?$AA?9?$AAd?$AAa?$AAt?$AAe?$AAt?$AAi?$AAm?$AAe?$AA?9?$AAl?$AA1?$AA?9?$AA1?$AA?9?$AA1?$AA?$AA@ 100782d0     libucrt:winapi_thunks.obj
 0002:0000831c       ??_C@_1DM@KHCHBNEB@?$AAa?$AAp?$AAi?$AA?9?$AAm?$AAs?$AA?9?$AAw?$AAi?$AAn?$AA?9?$AAc?$AAo?$AAr?$AAe?$AA?9?$AAf?$AAi?$AAb?$AAe?$AAr?$AAs?$AA?9?$AAl?$AA1?$AA?9?$AA1?$AA?9?$AA1?$AA?$AA@ 1007831c     libucrt:winapi_thunks.obj
 0002:00008364       ??_C@_1DI@IJCEHOCB@?$AAa?$AAp?$AAi?$AA?9?$AAm?$AAs?$AA?9?$AAw?$AAi?$AAn?$AA?9?$AAc?$AAo?$AAr?$AAe?$AA?9?$AAf?$AAi?$AAl?$AAe?$AA?9?$AAl?$AA1?$AA?9?$AA2?$AA?9?$AA2?$AA?$AA@ 10078364     libucrt:winapi_thunks.obj
 0002:000083a8       ??_C@_1EI@MPIAOHOC@?$AAa?$AAp?$AAi?$AA?9?$AAm?$AAs?$AA?9?$AAw?$AAi?$AAn?$AA?9?$AAc?$AAo?$AAr?$AAe?$AA?9?$AAl?$AAo?$AAc?$AAa?$AAl?$AAi?$AAz?$AAa?$AAt?$AAi?$AAo?$AAn?$AA?9?$AAl?$AA1?$AA?9@ 100783a8     libucrt:winapi_thunks.obj
 0002:00008400       ??_C@_1FK@FPHCKFIE@?$AAa?$AAp?$AAi?$AA?9?$AAm?$AAs?$AA?9?$AAw?$AAi?$AAn?$AA?9?$AAc?$AAo?$AAr?$AAe?$AA?9?$AAl?$AAo?$AAc?$AAa?$AAl?$AAi?$AAz?$AAa?$AAt?$AAi?$AAo?$AAn?$AA?9?$AAo?$AAb?$AAs@ 10078400     libucrt:winapi_thunks.obj
 0002:00008470       ??_C@_1EM@DILCGIIO@?$AAa?$AAp?$AAi?$AA?9?$AAm?$AAs?$AA?9?$AAw?$AAi?$AAn?$AA?9?$AAc?$AAo?$AAr?$AAe?$AA?9?$AAp?$AAr?$AAo?$AAc?$AAe?$AAs?$AAs?$AAt?$AAh?$AAr?$AAe?$AAa?$AAd?$AAs?$AA?9?$AAl@ 10078470     libucrt:winapi_thunks.obj
 0002:000084cc       ??_C@_1DM@LNCGDDPN@?$AAa?$AAp?$AAi?$AA?9?$AAm?$AAs?$AA?9?$AAw?$AAi?$AAn?$AA?9?$AAc?$AAo?$AAr?$AAe?$AA?9?$AAs?$AAt?$AAr?$AAi?$AAn?$AAg?$AA?9?$AAl?$AA1?$AA?9?$AA1?$AA?9?$AA0?$AA?$AA@ 100784cc     libucrt:winapi_thunks.obj
 0002:00008514       ??_C@_1DK@LPPGFMPP@?$AAa?$AAp?$AAi?$AA?9?$AAm?$AAs?$AA?9?$AAw?$AAi?$AAn?$AA?9?$AAc?$AAo?$AAr?$AAe?$AA?9?$AAs?$AAy?$AAn?$AAc?$AAh?$AA?9?$AAl?$AA1?$AA?9?$AA2?$AA?9?$AA0?$AA?$AA@ 10078514     libucrt:winapi_thunks.obj
 0002:0000855c       ??_C@_1DO@FPAPJEMD@?$AAa?$AAp?$AAi?$AA?9?$AAm?$AAs?$AA?9?$AAw?$AAi?$AAn?$AA?9?$AAc?$AAo?$AAr?$AAe?$AA?9?$AAs?$AAy?$AAs?$AAi?$AAn?$AAf?$AAo?$AA?9?$AAl?$AA1?$AA?9?$AA2?$AA?9?$AA1?$AA?$AA@ 1007855c     libucrt:winapi_thunks.obj
 0002:000085a8       ??_C@_1DK@NDHNAHIO@?$AAa?$AAp?$AAi?$AA?9?$AAm?$AAs?$AA?9?$AAw?$AAi?$AAn?$AA?9?$AAc?$AAo?$AAr?$AAe?$AA?9?$AAw?$AAi?$AAn?$AAr?$AAt?$AA?9?$AAl?$AA1?$AA?9?$AA1?$AA?9?$AA0?$AA?$AA@ 100785a8     libucrt:winapi_thunks.obj
 0002:000085f0       ??_C@_1DM@KGHDGBCM@?$AAa?$AAp?$AAi?$AA?9?$AAm?$AAs?$AA?9?$AAw?$AAi?$AAn?$AA?9?$AAc?$AAo?$AAr?$AAe?$AA?9?$AAx?$AAs?$AAt?$AAa?$AAt?$AAe?$AA?9?$AAl?$AA2?$AA?9?$AA1?$AA?9?$AA0?$AA?$AA@ 100785f0     libucrt:winapi_thunks.obj
 0002:00008638       ??_C@_1EO@IJIOEFOH@?$AAa?$AAp?$AAi?$AA?9?$AAm?$AAs?$AA?9?$AAw?$AAi?$AAn?$AA?9?$AAr?$AAt?$AAc?$AAo?$AAr?$AAe?$AA?9?$AAn?$AAt?$AAu?$AAs?$AAe?$AAr?$AA?9?$AAw?$AAi?$AAn?$AAd?$AAo?$AAw?$AA?9@ 10078638     libucrt:winapi_thunks.obj
 0002:00008698       ??_C@_1FG@HHGEKANL@?$AAa?$AAp?$AAi?$AA?9?$AAm?$AAs?$AA?9?$AAw?$AAi?$AAn?$AA?9?$AAs?$AAe?$AAc?$AAu?$AAr?$AAi?$AAt?$AAy?$AA?9?$AAs?$AAy?$AAs?$AAt?$AAe?$AAm?$AAf?$AAu?$AAn?$AAc?$AAt?$AAi@ 10078698     libucrt:winapi_thunks.obj
 0002:00008700       ??_C@_1EG@DBIOJECG@?$AAe?$AAx?$AAt?$AA?9?$AAm?$AAs?$AA?9?$AAw?$AAi?$AAn?$AA?9?$AAn?$AAt?$AAu?$AAs?$AAe?$AAr?$AA?9?$AAd?$AAi?$AAa?$AAl?$AAo?$AAg?$AAb?$AAo?$AAx?$AA?9?$AAl?$AA1?$AA?9?$AA1@ 10078700     libucrt:winapi_thunks.obj
 0002:00008758       ??_C@_1EO@FIHMJCLF@?$AAe?$AAx?$AAt?$AA?9?$AAm?$AAs?$AA?9?$AAw?$AAi?$AAn?$AA?9?$AAn?$AAt?$AAu?$AAs?$AAe?$AAr?$AA?9?$AAw?$AAi?$AAn?$AAd?$AAo?$AAw?$AAs?$AAt?$AAa?$AAt?$AAi?$AAo?$AAn?$AA?9@ 10078758     libucrt:winapi_thunks.obj
 0002:000087b8       ??_C@_1BC@DNHGCMLG@?$AAa?$AAd?$AAv?$AAa?$AAp?$AAi?$AA3?$AA2?$AA?$AA@ 100787b8     libucrt:winapi_thunks.obj
 0002:000087d0       ??_C@_1BC@GDMECMAK@?$AAk?$AAe?$AAr?$AAn?$AAe?$AAl?$AA3?$AA2?$AA?$AA@ 100787d0     libucrt:winapi_thunks.obj
 0002:000087e8       ??_C@_1M@OAIMIKLP@?$AAn?$AAt?$AAd?$AAl?$AAl?$AA?$AA@ 100787e8     libucrt:winapi_thunks.obj
 0002:000087f8       ??_C@_1EG@DPGNFKGC@?$AAa?$AAp?$AAi?$AA?9?$AAm?$AAs?$AA?9?$AAw?$AAi?$AAn?$AA?9?$AAa?$AAp?$AAp?$AAm?$AAo?$AAd?$AAe?$AAl?$AA?9?$AAr?$AAu?$AAn?$AAt?$AAi?$AAm?$AAe?$AA?9?$AAl?$AA1?$AA?9?$AA1@ 100787f8     libucrt:winapi_thunks.obj
 0002:0000884c       ??_C@_1O@BCCLBEOE@?$AAu?$AAs?$AAe?$AAr?$AA3?$AA2?$AA?$AA@ 1007884c     libucrt:winapi_thunks.obj
 0002:0000885c       ??_C@_1BA@PFFKHIOG@?$AAa?$AAp?$AAi?$AA?9?$AAm?$AAs?$AA?9?$AA?$AA@ 1007885c     libucrt:winapi_thunks.obj
 0002:00008870       ??_C@_1BA@IAIFMGEF@?$AAe?$AAx?$AAt?$AA?9?$AAm?$AAs?$AA?9?$AA?$AA@ 10078870     libucrt:winapi_thunks.obj
 0002:00008888       ??_C@_0BA@FHFNEAED@AreFileApisANSI?$AA@ 10078888     libucrt:winapi_thunks.obj
 0002:000088a8       ??_C@_0BA@IHGNDAEB@CompareStringEx?$AA@ 100788a8     libucrt:winapi_thunks.obj
 0002:000088c8       ??_C@_0BE@LJANKFHF@EnumSystemLocalesEx?$AA@ 100788c8     libucrt:winapi_thunks.obj
 0002:000088ec       ??_C@_08KNHFBNJ@FlsAlloc?$AA@ 100788ec     libucrt:winapi_thunks.obj
 0002:00008904       ??_C@_07PEJMOBNF@FlsFree?$AA@ 10078904     libucrt:winapi_thunks.obj
 0002:0000891c       ??_C@_0M@GDNOONDI@FlsGetValue?$AA@ 1007891c     libucrt:winapi_thunks.obj
 0002:00008938       ??_C@_0M@JCPCPOEF@FlsSetValue?$AA@ 10078938     libucrt:winapi_thunks.obj
 0002:00008954       ??_C@_0BA@HNOPNCHB@GetActiveWindow?$AA@ 10078954     libucrt:winapi_thunks.obj
 0002:00008974       ??_C@_0BA@EPCJIIPD@GetDateFormatEx?$AA@ 10078974     libucrt:winapi_thunks.obj
 0002:00008994       ??_C@_0BJ@DIBIJBHA@GetEnabledXStateFeatures?$AA@ 10078994     libucrt:winapi_thunks.obj
 0002:000089c0       ??_C@_0BD@HHGDFDBJ@GetLastActivePopup?$AA@ 100789c0     libucrt:winapi_thunks.obj
 0002:000089e4       ??_C@_0BA@ONOKGCMP@GetLocaleInfoEx?$AA@ 100789e4     libucrt:winapi_thunks.obj
 0002:00008a04       ??_C@_0BI@DFKBFLJE@GetProcessWindowStation?$AA@ 10078a04     libucrt:winapi_thunks.obj
 0002:00008a24       ??_C@_0BP@FPNJPEJC@GetSystemTimePreciseAsFileTime?$AA@ 10078a24     libucrt:winapi_thunks.obj
 0002:00008a58       ??_C@_0BA@CIJJKCJJ@GetTimeFormatEx?$AA@ 10078a58     libucrt:winapi_thunks.obj
 0002:00008a78       ??_C@_0BJ@PBCCBIPI@GetUserDefaultLocaleName?$AA@ 10078a78     libucrt:winapi_thunks.obj
 0002:00008aa4       ??_C@_0BK@DEKFELLI@GetUserObjectInformationW?$AA@ 10078aa4     libucrt:winapi_thunks.obj
 0002:00008ad0       ??_C@_0BG@IKLDMBLM@GetXStateFeaturesMask?$AA@ 10078ad0     libucrt:winapi_thunks.obj
 0002:00008af8       ??_C@_0BM@HCFOFFN@InitializeCriticalSectionEx?$AA@ 10078af8     libucrt:winapi_thunks.obj
 0002:00008b28       ??_C@_0BC@CELBKLLA@IsValidLocaleName?$AA@ 10078b28     libucrt:winapi_thunks.obj
 0002:00008b4c       ??_C@_0O@KKBNKAPF@LCMapStringEx?$AA@ 10078b4c     libucrt:winapi_thunks.obj
 0002:00008b68       ??_C@_0BB@CDHDDLLP@LCIDToLocaleName?$AA@ 10078b68     libucrt:winapi_thunks.obj
 0002:00008b88       ??_C@_0BB@HBDEELFH@LocaleNameToLCID?$AA@ 10078b88     libucrt:winapi_thunks.obj
 0002:00008ba8       ??_C@_0BE@KINNKFDA@LocateXStateFeature?$AA@ 10078ba8     libucrt:winapi_thunks.obj
 0002:00008bcc       ??_C@_0M@CHKKJDAI@MessageBoxA?$AA@ 10078bcc     libucrt:winapi_thunks.obj
 0002:00008be8       ??_C@_0M@DLDCCGNP@MessageBoxW?$AA@ 10078be8     libucrt:winapi_thunks.obj
 0002:00008bfc       ??_C@_0N@PPOMPGGK@RoInitialize?$AA@ 10078bfc     libucrt:winapi_thunks.obj
 0002:00008c10       ??_C@_0P@LLFHBIJD@RoUninitialize?$AA@ 10078c10     libucrt:winapi_thunks.obj
 0002:00008c28       ??_C@_0CF@OJOFEIGO@AppPolicyGetProcessTerminationMe@ 10078c28     libucrt:winapi_thunks.obj
 0002:00008c58       ??_C@_0CF@NNDFDCOC@AppPolicyGetThreadInitialization@ 10078c58     libucrt:winapi_thunks.obj
 0002:00008c88       ??_C@_0CE@OICFMIKE@AppPolicyGetShowDeveloperDiagnos@ 10078c88     libucrt:winapi_thunks.obj
 0002:00008cb8       ??_C@_0BL@ODDJNEDA@AppPolicyGetWindowingModel?$AA@ 10078cb8     libucrt:winapi_thunks.obj
 0002:00008ce4       ??_C@_0BI@BKLFFAPO@SetThreadStackGuarantee?$AA@ 10078ce4     libucrt:winapi_thunks.obj
 0002:00008d0c       ??_C@_0BC@JEAENNKH@SystemFunction036?$AA@ 10078d0c     libucrt:winapi_thunks.obj
 0002:00008d24       ?ccs@?1???$__acrt_stdio_parse_mode@D@@YA?AU__acrt_stdio_stream_mode@@QBD@Z@4QBDB 10078d24     libucrt:openfile.obj
 0002:00008d28       ?utf8_encoding@?1???$__acrt_stdio_parse_mode@D@@YA?AU__acrt_stdio_stream_mode@@QBD@Z@4QBDB 10078d28     libucrt:openfile.obj
 0002:00008d30       ?utf16_encoding@?1???$__acrt_stdio_parse_mode@D@@YA?AU__acrt_stdio_stream_mode@@QBD@Z@4QBDB 10078d30     libucrt:openfile.obj
 0002:00008d3c       ?unicode_encoding@?1???$__acrt_stdio_parse_mode@D@@YA?AU__acrt_stdio_stream_mode@@QBD@Z@4QBDB 10078d3c     libucrt:openfile.obj
 0002:00008d44       ?ccs@?1???$__acrt_stdio_parse_mode@_W@@YA?AU__acrt_stdio_stream_mode@@QB_W@Z@4QB_WB 10078d44     libucrt:openfile.obj
 0002:00008d4c       ?utf8_encoding@?1???$__acrt_stdio_parse_mode@_W@@YA?AU__acrt_stdio_stream_mode@@QB_W@Z@4QB_WB 10078d4c     libucrt:openfile.obj
 0002:00008d58       ?utf16_encoding@?1???$__acrt_stdio_parse_mode@_W@@YA?AU__acrt_stdio_stream_mode@@QB_W@Z@4QB_WB 10078d58     libucrt:openfile.obj
 0002:00008d6c       ?unicode_encoding@?1???$__acrt_stdio_parse_mode@_W@@YA?AU__acrt_stdio_stream_mode@@QB_W@Z@4QB_WB 10078d6c     libucrt:openfile.obj
 0002:00008e18       ___lc_category             10078e18     libucrt:wsetlocale.obj
 0002:00008e70       ??_C@_1O@GIFLHMA@?$AAL?$AAC?$AA_?$AAA?$AAL?$AAL?$AA?$AA@ 10078e70     libucrt:wsetlocale.obj
 0002:00008e80       ??_C@_1BG@PPOMIBNJ@?$AAL?$AAC?$AA_?$AAC?$AAO?$AAL?$AAL?$AAA?$AAT?$AAE?$AA?$AA@ 10078e80     libucrt:wsetlocale.obj
 0002:00008e9c       ??_C@_1BC@FFJGAPJM@?$AAL?$AAC?$AA_?$AAC?$AAT?$AAY?$AAP?$AAE?$AA?$AA@ 10078e9c     libucrt:wsetlocale.obj
 0002:00008eb4       ??_C@_1BI@PCKFNJFB@?$AAL?$AAC?$AA_?$AAM?$AAO?$AAN?$AAE?$AAT?$AAA?$AAR?$AAY?$AA?$AA@ 10078eb4     libucrt:wsetlocale.obj
 0002:00008ed0       ??_C@_1BG@ENIEDKID@?$AAL?$AAC?$AA_?$AAN?$AAU?$AAM?$AAE?$AAR?$AAI?$AAC?$AA?$AA@ 10078ed0     libucrt:wsetlocale.obj
 0002:00008eec       ??_C@_1BA@HAAOMIIG@?$AAL?$AAC?$AA_?$AAT?$AAI?$AAM?$AAE?$AA?$AA@ 10078eec     libucrt:wsetlocale.obj
 0002:00008f00       ??_C@_15NBPDDFIP@?$AA?$DN?$AA?$DL?$AA?$AA@ 10078f00     libucrt:wsetlocale.obj
 0002:00008f08       ??_C@_13PJJBFPED@?$AA?$DL?$AA?$AA@ 10078f08     libucrt:wsetlocale.obj
 0002:00008f0c       ??_C@_13NMPKAAJP@?$AA?$DN?$AA?$AA@ 10078f0c     libucrt:wsetlocale.obj
 0002:00008f10       ??_C@_13FHBKNHDA@?$AAC?$AA?$AA@ 10078f10     libucrt:wsetlocale.obj
 0002:00008f14       ??_C@_19MPDNHKDG@?$AAu?$AAt?$AAf?$AA8?$AA?$AA@ 10078f14     libucrt:wsetlocale.obj
 0002:00008f20       ??_C@_1M@FPEIIFAM@?$AAu?$AAt?$AAf?$AA?9?$AA8?$AA?$AA@ 10078f20     libucrt:wsetlocale.obj
 0002:00008f30       ??_C@_17MBJJLFDM@?$AA_?$AA?4?$AA?0?$AA?$AA@ 10078f30     libucrt:wsetlocale.obj
 0002:00008f3c       ??_C@_13ENNFDPBH@?$AA_?$AA?$AA@ 10078f3c     libucrt:wsetlocale.obj
 0002:00008f40       ??_C@_13JOFGPIOO@?$AA?4?$AA?$AA@ 10078f40     libucrt:wsetlocale.obj
 0002:00008f48       ___lc_time_c               10078f48     libucrt:nlsdata.obj
 0002:000090f4       ??_C@_03KOEHGMDN@Sun?$AA@  100790f4     libucrt:nlsdata.obj
 0002:000090f8       ??_C@_03PDAGKDH@Mon?$AA@   100790f8     libucrt:nlsdata.obj
 0002:000090fc       ??_C@_03NAGEINEP@Tue?$AA@  100790fc     libucrt:nlsdata.obj
 0002:00009100       ??_C@_03MHOMLAJA@Wed?$AA@  10079100     libucrt:nlsdata.obj
 0002:00009104       ??_C@_03IOFIKPDN@Thu?$AA@  10079104     libucrt:nlsdata.obj
 0002:00009108       ??_C@_03IDIOELNC@Fri?$AA@  10079108     libucrt:nlsdata.obj
 0002:0000910c       ??_C@_03FEFJNEK@Sat?$AA@   1007910c     libucrt:nlsdata.obj
 0002:00009110       ??_C@_06OOPIFAJ@Sunday?$AA@ 10079110     libucrt:nlsdata.obj
 0002:00009118       ??_C@_06JLEDEDGH@Monday?$AA@ 10079118     libucrt:nlsdata.obj
 0002:00009120       ??_C@_07BAAGCFCM@Tuesday?$AA@ 10079120     libucrt:nlsdata.obj
 0002:0000912c       ??_C@_09DLIGFAKA@Wednesday?$AA@ 1007912c     libucrt:nlsdata.obj
 0002:00009138       ??_C@_08HACCIKIA@Thursday?$AA@ 10079138     libucrt:nlsdata.obj
 0002:00009144       ??_C@_06JECMNKMI@Friday?$AA@ 10079144     libucrt:nlsdata.obj
 0002:0000914c       ??_C@_08INBOOONO@Saturday?$AA@ 1007914c     libucrt:nlsdata.obj
 0002:00009158       ??_C@_03JIHJHPIE@Jan?$AA@  10079158     libucrt:nlsdata.obj
 0002:0000915c       ??_C@_03HJBDCHOM@Feb?$AA@  1007915c     libucrt:nlsdata.obj
 0002:00009160       ??_C@_03ODNJBKGA@Mar?$AA@  10079160     libucrt:nlsdata.obj
 0002:00009164       ??_C@_03LEOLGMJP@Apr?$AA@  10079164     libucrt:nlsdata.obj
 0002:00009168       ??_C@_03CNMDKL@May?$AA@    10079168     libucrt:nlsdata.obj
 0002:0000916c       ??_C@_03IDFGHECI@Jun?$AA@  1007916c     libucrt:nlsdata.obj
 0002:00009170       ??_C@_03LBGABGKK@Jul?$AA@  10079170     libucrt:nlsdata.obj
 0002:00009174       ??_C@_03IFJFEIGA@Aug?$AA@  10079174     libucrt:nlsdata.obj
 0002:00009178       ??_C@_03GGCAPAJC@Sep?$AA@  10079178     libucrt:nlsdata.obj
 0002:0000917c       ??_C@_03BMAOKBAD@Oct?$AA@  1007917c     libucrt:nlsdata.obj
 0002:00009180       ??_C@_03JPJOFNIA@Nov?$AA@  10079180     libucrt:nlsdata.obj
 0002:00009184       ??_C@_03MKABNOCG@Dec?$AA@  10079184     libucrt:nlsdata.obj
 0002:00009188       ??_C@_07CGJPFGJA@January?$AA@ 10079188     libucrt:nlsdata.obj
 0002:00009194       ??_C@_08GNJGEPFN@February?$AA@ 10079194     libucrt:nlsdata.obj
 0002:000091a0       ??_C@_05HPCKOFNC@March?$AA@ 100791a0     libucrt:nlsdata.obj
 0002:000091a8       ??_C@_05DMJDNLEJ@April?$AA@ 100791a8     libucrt:nlsdata.obj
 0002:000091b0       ??_C@_04CNLMGBGM@June?$AA@ 100791b0     libucrt:nlsdata.obj
 0002:000091b8       ??_C@_04MIEPOIFP@July?$AA@ 100791b8     libucrt:nlsdata.obj
 0002:000091c0       ??_C@_06LBBHFDDG@August?$AA@ 100791c0     libucrt:nlsdata.obj
 0002:000091c8       ??_C@_09BHHEALKD@September?$AA@ 100791c8     libucrt:nlsdata.obj
 0002:000091d4       ??_C@_07JJNFCEND@October?$AA@ 100791d4     libucrt:nlsdata.obj
 0002:000091e0       ??_C@_08HCHEGEOA@November?$AA@ 100791e0     libucrt:nlsdata.obj
 0002:000091ec       ??_C@_08EDHMEBNP@December?$AA@ 100791ec     libucrt:nlsdata.obj
 0002:000091f8       ??_C@_02DEDBPAFC@AM?$AA@   100791f8     libucrt:nlsdata.obj
 0002:000091fc       ??_C@_02CJNFDJBF@PM?$AA@   100791fc     libucrt:nlsdata.obj
 0002:00009200       ??_C@_08BPBNCDIB@MM?1dd?1yy?$AA@ 10079200     libucrt:nlsdata.obj
 0002:0000920c       ??_C@_0BE@CKGJFCPC@dddd?0?5MMMM?5dd?0?5yyyy?$AA@ 1007920c     libucrt:nlsdata.obj
 0002:00009224       ??_C@_08JCCMCCIL@HH?3mm?3ss?$AA@ 10079224     libucrt:nlsdata.obj
 0002:00009230       ??_C@_17MBGCMIPB@?$AAS?$AAu?$AAn?$AA?$AA@ 10079230     libucrt:nlsdata.obj
 0002:0000923c       ??_C@_17KBOMKBF@?$AAM?$AAo?$AAn?$AA?$AA@ 1007923c     libucrt:nlsdata.obj
 0002:00009248       ??_C@_17BMKGEGOJ@?$AAT?$AAu?$AAe?$AA?$AA@ 10079248     libucrt:nlsdata.obj
 0002:00009254       ??_C@_17CJEDCEPE@?$AAW?$AAe?$AAd?$AA?$AA@ 10079254     libucrt:nlsdata.obj
 0002:00009260       ??_C@_17PDPHAADD@?$AAT?$AAh?$AAu?$AA?$AA@ 10079260     libucrt:nlsdata.obj
 0002:0000926c       ??_C@_17HFOLPPLP@?$AAF?$AAr?$AAi?$AA?$AA@ 1007926c     libucrt:nlsdata.obj
 0002:00009278       ??_C@_17GGIBDPIH@?$AAS?$AAa?$AAt?$AA?$AA@ 10079278     libucrt:nlsdata.obj
 0002:00009284       ??_C@_1O@IHNHDHPB@?$AAS?$AAu?$AAn?$AAd?$AAa?$AAy?$AA?$AA@ 10079284     libucrt:nlsdata.obj
 0002:00009294       ??_C@_1O@MMNBFLIA@?$AAM?$AAo?$AAn?$AAd?$AAa?$AAy?$AA?$AA@ 10079294     libucrt:nlsdata.obj
 0002:000092a4       ??_C@_1BA@ENFBFFEK@?$AAT?$AAu?$AAe?$AAs?$AAd?$AAa?$AAy?$AA?$AA@ 100792a4     libucrt:nlsdata.obj
 0002:000092b8       ??_C@_1BE@EBOGMDOH@?$AAW?$AAe?$AAd?$AAn?$AAe?$AAs?$AAd?$AAa?$AAy?$AA?$AA@ 100792b8     libucrt:nlsdata.obj
 0002:000092d0       ??_C@_1BC@HHMNLIHE@?$AAT?$AAh?$AAu?$AAr?$AAs?$AAd?$AAa?$AAy?$AA?$AA@ 100792d0     libucrt:nlsdata.obj
 0002:000092e8       ??_C@_1O@PDICJHAG@?$AAF?$AAr?$AAi?$AAd?$AAa?$AAy?$AA?$AA@ 100792e8     libucrt:nlsdata.obj
 0002:000092f8       ??_C@_1BC@ENMNNPAJ@?$AAS?$AAa?$AAt?$AAu?$AAr?$AAd?$AAa?$AAy?$AA?$AA@ 100792f8     libucrt:nlsdata.obj
 0002:00009310       ??_C@_17DKNBKCHM@?$AAJ?$AAa?$AAn?$AA?$AA@ 10079310     libucrt:nlsdata.obj
 0002:0000931c       ??_C@_17LMDJEKJN@?$AAF?$AAe?$AAb?$AA?$AA@ 1007931c     libucrt:nlsdata.obj
 0002:00009328       ??_C@_17CKNLEDEC@?$AAM?$AAa?$AAr?$AA?$AA@ 10079328     libucrt:nlsdata.obj
 0002:00009334       ??_C@_17LFPOIHDD@?$AAA?$AAp?$AAr?$AA?$AA@ 10079334     libucrt:nlsdata.obj
 0002:00009340       ??_C@_17PNNKMEED@?$AAM?$AAa?$AAy?$AA?$AA@ 10079340     libucrt:nlsdata.obj
 0002:0000934c       ??_C@_17KCJGOCPB@?$AAJ?$AAu?$AAn?$AA?$AA@ 1007934c     libucrt:nlsdata.obj
 0002:00009358       ??_C@_17IJPCKHK@?$AAJ?$AAu?$AAl?$AA?$AA@ 10079358     libucrt:nlsdata.obj
 0002:00009364       ??_C@_17ICPELBCN@?$AAA?$AAu?$AAg?$AA?$AA@ 10079364     libucrt:nlsdata.obj
 0002:00009370       ??_C@_17HCHCOKMG@?$AAS?$AAe?$AAp?$AA?$AA@ 10079370     libucrt:nlsdata.obj
 0002:0000937c       ??_C@_17FNLKOI@?$AAO?$AAc?$AAt?$AA?$AA@ 1007937c     libucrt:nlsdata.obj
 0002:00009388       ??_C@_17BBDMLCIG@?$AAN?$AAo?$AAv?$AA?$AA@ 10079388     libucrt:nlsdata.obj
 0002:00009394       ??_C@_17EGKACKIF@?$AAD?$AAe?$AAc?$AA?$AA@ 10079394     libucrt:nlsdata.obj
 0002:000093a0       ??_C@_1BA@EFMEIEBA@?$AAJ?$AAa?$AAn?$AAu?$AAa?$AAr?$AAy?$AA?$AA@ 100793a0     libucrt:nlsdata.obj
 0002:000093b4       ??_C@_1BC@JGDDFFAM@?$AAF?$AAe?$AAb?$AAr?$AAu?$AAa?$AAr?$AAy?$AA?$AA@ 100793b4     libucrt:nlsdata.obj
 0002:000093cc       ??_C@_1M@IKEENEDF@?$AAM?$AAa?$AAr?$AAc?$AAh?$AA?$AA@ 100793cc     libucrt:nlsdata.obj
 0002:000093dc       ??_C@_1M@GJNLMHFD@?$AAA?$AAp?$AAr?$AAi?$AAl?$AA?$AA@ 100793dc     libucrt:nlsdata.obj
 0002:000093ec       ??_C@_19EPFLPGAP@?$AAJ?$AAu?$AAn?$AAe?$AA?$AA@ 100793ec     libucrt:nlsdata.obj
 0002:000093f8       ??_C@_19BIFMLPCD@?$AAJ?$AAu?$AAl?$AAy?$AA?$AA@ 100793f8     libucrt:nlsdata.obj
 0002:00009404       ??_C@_1O@PAHLKOAC@?$AAA?$AAu?$AAg?$AAu?$AAs?$AAt?$AA?$AA@ 10079404     libucrt:nlsdata.obj
 0002:00009414       ??_C@_1BE@DKAAMBJL@?$AAS?$AAe?$AAp?$AAt?$AAe?$AAm?$AAb?$AAe?$AAr?$AA?$AA@ 10079414     libucrt:nlsdata.obj
 0002:0000942c       ??_C@_1BA@EPANDLNG@?$AAO?$AAc?$AAt?$AAo?$AAb?$AAe?$AAr?$AA?$AA@ 1007942c     libucrt:nlsdata.obj
 0002:00009440       ??_C@_1BC@BGLIFPF@?$AAN?$AAo?$AAv?$AAe?$AAm?$AAb?$AAe?$AAr?$AA?$AA@ 10079440     libucrt:nlsdata.obj
 0002:00009458       ??_C@_1BC@FEMKIFH@?$AAD?$AAe?$AAc?$AAe?$AAm?$AAb?$AAe?$AAr?$AA?$AA@ 10079458     libucrt:nlsdata.obj
 0002:00009470       ??_C@_15ODEHAHHF@?$AAA?$AAM?$AA?$AA@ 10079470     libucrt:nlsdata.obj
 0002:00009478       ??_C@_15CLMNNGEL@?$AAP?$AAM?$AA?$AA@ 10079478     libucrt:nlsdata.obj
 0002:00009480       ??_C@_1BC@IEBCMHCM@?$AAM?$AAM?$AA?1?$AAd?$AAd?$AA?1?$AAy?$AAy?$AA?$AA@ 10079480     libucrt:nlsdata.obj
 0002:00009498       ??_C@_1CI@KNAKOEBC@?$AAd?$AAd?$AAd?$AAd?$AA?0?$AA?5?$AAM?$AAM?$AAM?$AAM?$AA?5?$AAd?$AAd?$AA?0?$AA?5?$AAy?$AAy?$AAy?$AAy?$AA?$AA@ 10079498     libucrt:nlsdata.obj
 0002:000094c8       ??_C@_1BC@GDGBMEMK@?$AAH?$AAH?$AA?3?$AAm?$AAm?$AA?3?$AAs?$AAs?$AA?$AA@ 100794c8     libucrt:nlsdata.obj
 0002:000094e0       ??_C@_1M@BMHNFIME@?$AAe?$AAn?$AA?9?$AAU?$AAS?$AA?$AA@ 100794e0     libucrt:nlsdata.obj
 0002:000094f0       ??_C@_03OEIAHPBN@INF?$AA@  100794f0     libucrt:cvt.obj
 0002:000094f4       ??_C@_03OJHLLCGB@inf?$AA@  100794f4     libucrt:cvt.obj
 0002:000094f8       ??_C@_03LKNCIKJB@NAN?$AA@  100794f8     libucrt:cvt.obj
 0002:000094fc       ??_C@_03LHCJEHON@nan?$AA@  100794fc     libucrt:cvt.obj
 0002:00009500       ??_C@_09OFJJIMPC@NAN?$CISNAN?$CJ?$AA@ 10079500     libucrt:cvt.obj
 0002:0000950c       ??_C@_09IPFBKMDL@nan?$CIsnan?$CJ?$AA@ 1007950c     libucrt:cvt.obj
 0002:00009518       ??_C@_08IKHNHAJ@NAN?$CIIND?$CJ?$AA@ 10079518     libucrt:cvt.obj
 0002:00009524       ??_C@_08OFCDMILK@nan?$CIind?$CJ?$AA@ 10079524     libucrt:cvt.obj
 0002:00009530       ??_C@_05KLBDPFGC@e?$CL000?$AA@ 10079530     libucrt:cvt.obj
 0002:00009538       __d_inf                    10079538     libucrt:util.obj
 0002:00009548       __d_ind                    10079548     libucrt:util.obj
 0002:00009558       __d_max                    10079558     libucrt:util.obj
 0002:00009568       __d_min                    10079568     libucrt:util.obj
 0002:00009578       __d_mzero                  10079578     libucrt:util.obj
 0002:000095b8       ??_C@_1M@HPNHIDJI@?$AAj?$AAa?$AA?9?$AAJ?$AAP?$AA?$AA@ 100795b8     libucrt:mbctype.obj
 0002:000095c8       ??_C@_1M@BIBDDEMK@?$AAz?$AAh?$AA?9?$AAC?$AAN?$AA?$AA@ 100795c8     libucrt:mbctype.obj
 0002:000095d8       ??_C@_1M@JLOOOEGK@?$AAk?$AAo?$AA?9?$AAK?$AAR?$AA?$AA@ 100795d8     libucrt:mbctype.obj
 0002:000095e8       ??_C@_1M@CLNBBOPM@?$AAz?$AAh?$AA?9?$AAT?$AAW?$AA?$AA@ 100795e8     libucrt:mbctype.obj
 0002:000095f8       ___newctype                100795f8     libucrt:ctype.obj
 0002:00009998       ___newclmap                10079998     libucrt:ctype.obj
 0002:00009b68       ___newcumap                10079b68     libucrt:ctype.obj
 0002:00009d38       __wctype                   10079d38     libucrt:ctype.obj
 0002:0000a834       ??_C@_15EMKDOKLE@?$AAa?$AAr?$AA?$AA@ 1007a834     libucrt:lcidtoname_downlevel.obj
 0002:0000a83c       ??_C@_15KNPADPLH@?$AAb?$AAg?$AA?$AA@ 1007a83c     libucrt:lcidtoname_downlevel.obj
 0002:0000a844       ??_C@_15EDMHLDMO@?$AAc?$AAa?$AA?$AA@ 1007a844     libucrt:lcidtoname_downlevel.obj
 0002:0000a84c       ??_C@_1O@BPEAJADD@?$AAz?$AAh?$AA?9?$AAC?$AAH?$AAS?$AA?$AA@ 1007a84c     libucrt:lcidtoname_downlevel.obj
 0002:0000a85c       ??_C@_15LJNHCMNK@?$AAc?$AAs?$AA?$AA@ 1007a85c     libucrt:lcidtoname_downlevel.obj
 0002:0000a864       ??_C@_15FOMCIDHG@?$AAd?$AAa?$AA?$AA@ 1007a864     libucrt:lcidtoname_downlevel.obj
 0002:0000a86c       ??_C@_15NBKABECB@?$AAd?$AAe?$AA?$AA@ 1007a86c     libucrt:lcidtoname_downlevel.obj
 0002:0000a874       ??_C@_15GHPEIIAO@?$AAe?$AAl?$AA?$AA@ 1007a874     libucrt:lcidtoname_downlevel.obj
 0002:0000a87c       ??_C@_15MNPNEAIF@?$AAe?$AAn?$AA?$AA@ 1007a87c     libucrt:lcidtoname_downlevel.obj
 0002:0000a884       ??_C@_15GPIOMPMH@?$AAe?$AAs?$AA?$AA@ 1007a884     libucrt:lcidtoname_downlevel.obj
 0002:0000a88c       ??_C@_15NGLOAKJC@?$AAf?$AAi?$AA?$AA@ 1007a88c     libucrt:lcidtoname_downlevel.obj
 0002:0000a894       ??_C@_15FBKGNKAM@?$AAf?$AAr?$AA?$AA@ 1007a894     libucrt:lcidtoname_downlevel.obj
 0002:0000a89c       ??_C@_15KGGCNEFK@?$AAh?$AAe?$AA?$AA@ 1007a89c     libucrt:lcidtoname_downlevel.obj
 0002:0000a8a4       ??_C@_15PGHLIDMF@?$AAh?$AAu?$AA?$AA@ 1007a8a4     libucrt:lcidtoname_downlevel.obj
 0002:0000a8ac       ??_C@_15BIEMAPLM@?$AAi?$AAs?$AA?$AA@ 1007a8ac     libucrt:lcidtoname_downlevel.obj
 0002:0000a8b4       ??_C@_15IFJLDHAF@?$AAi?$AAt?$AA?$AA@ 1007a8b4     libucrt:lcidtoname_downlevel.obj
 0002:0000a8bc       ??_C@_15GEMIOCAG@?$AAj?$AAa?$AA?$AA@ 1007a8bc     libucrt:lcidtoname_downlevel.obj
 0002:0000a8c4       ??_C@_15EPELEGJA@?$AAk?$AAo?$AA?$AA@ 1007a8c4     libucrt:lcidtoname_downlevel.obj
 0002:0000a8cc       ??_C@_15NDDHIMN@?$AAn?$AAl?$AA?$AA@ 1007a8cc     libucrt:lcidtoname_downlevel.obj
 0002:0000a8d4       ??_C@_15BPIGNHCD@?$AAn?$AAo?$AA?$AA@ 1007a8d4     libucrt:lcidtoname_downlevel.obj
 0002:0000a8dc       ??_C@_15DEOPBLCG@?$AAp?$AAl?$AA?$AA@ 1007a8dc     libucrt:lcidtoname_downlevel.obj
 0002:0000a8e4       ??_C@_15KBECGEFG@?$AAp?$AAt?$AA?$AA@ 1007a8e4     libucrt:lcidtoname_downlevel.obj
 0002:0000a8ec       ??_C@_15GLJCBFMD@?$AAr?$AAo?$AA?$AA@ 1007a8ec     libucrt:lcidtoname_downlevel.obj
 0002:0000a8f4       ??_C@_15FEDGKCDI@?$AAr?$AAu?$AA?$AA@ 1007a8f4     libucrt:lcidtoname_downlevel.obj
 0002:0000a8fc       ??_C@_15GLKMLLHM@?$AAh?$AAr?$AA?$AA@ 1007a8fc     libucrt:lcidtoname_downlevel.obj
 0002:0000a904       ??_C@_15CPKMFBDB@?$AAs?$AAk?$AA?$AA@ 1007a904     libucrt:lcidtoname_downlevel.obj
 0002:0000a90c       ??_C@_15BAAIOGMK@?$AAs?$AAq?$AA?$AA@ 1007a90c     libucrt:lcidtoname_downlevel.obj
 0002:0000a914       ??_C@_15INNPNOHD@?$AAs?$AAv?$AA?$AA@ 1007a914     libucrt:lcidtoname_downlevel.obj
 0002:0000a91c       ??_C@_15CABMMOGH@?$AAt?$AAh?$AA?$AA@ 1007a91c     libucrt:lcidtoname_downlevel.obj
 0002:0000a924       ??_C@_15BPLIHJJM@?$AAt?$AAr?$AA?$AA@ 1007a924     libucrt:lcidtoname_downlevel.obj
 0002:0000a92c       ??_C@_15NEOEKKDJ@?$AAu?$AAr?$AA?$AA@ 1007a92c     libucrt:lcidtoname_downlevel.obj
 0002:0000a934       ??_C@_15NFICGAJK@?$AAi?$AAd?$AA?$AA@ 1007a934     libucrt:lcidtoname_downlevel.obj
 0002:0000a93c       ??_C@_15PJPFLCCM@?$AAu?$AAk?$AA?$AA@ 1007a93c     libucrt:lcidtoname_downlevel.obj
 0002:0000a944       ??_C@_15HPJPHDM@?$AAb?$AAe?$AA?$AA@ 1007a944     libucrt:lcidtoname_downlevel.obj
 0002:0000a94c       ??_C@_15LCHLGJII@?$AAs?$AAl?$AA?$AA@ 1007a94c     libucrt:lcidtoname_downlevel.obj
 0002:0000a954       ??_C@_15PCFJPHHO@?$AAe?$AAt?$AA?$AA@ 1007a954     libucrt:lcidtoname_downlevel.obj
 0002:0000a95c       ??_C@_15HPFPGODN@?$AAl?$AAv?$AA?$AA@ 1007a95c     libucrt:lcidtoname_downlevel.obj
 0002:0000a964       ??_C@_15NFFGKGLG@?$AAl?$AAt?$AA?$AA@ 1007a964     libucrt:lcidtoname_downlevel.obj
 0002:0000a96c       ??_C@_15BDAKCCHN@?$AAf?$AAa?$AA?$AA@ 1007a96c     libucrt:lcidtoname_downlevel.obj
 0002:0000a974       ??_C@_15NFGIAIAJ@?$AAv?$AAi?$AA?$AA@ 1007a974     libucrt:lcidtoname_downlevel.obj
 0002:0000a97c       ??_C@_15LMKNDMHN@?$AAh?$AAy?$AA?$AA@ 1007a97c     libucrt:lcidtoname_downlevel.obj
 0002:0000a984       ??_C@_15IJBHMCFL@?$AAa?$AAz?$AA?$AA@ 1007a984     libucrt:lcidtoname_downlevel.obj
 0002:0000a98c       ??_C@_15EKOFJABL@?$AAe?$AAu?$AA?$AA@ 1007a98c     libucrt:lcidtoname_downlevel.obj
 0002:0000a994       ??_C@_15BGHADCNK@?$AAm?$AAk?$AA?$AA@ 1007a994     libucrt:lcidtoname_downlevel.obj
 0002:0000a99c       ??_C@_15JDNICKHM@?$AAa?$AAf?$AA?$AA@ 1007a99c     libucrt:lcidtoname_downlevel.obj
 0002:0000a9a4       ??_C@_15KPJEDBKD@?$AAk?$AAa?$AA?$AA@ 1007a9a4     libucrt:lcidtoname_downlevel.obj
 0002:0000a9ac       ??_C@_15PDNFFFEO@?$AAf?$AAo?$AA?$AA@ 1007a9ac     libucrt:lcidtoname_downlevel.obj
 0002:0000a9b4       ??_C@_15OMLEGLOC@?$AAh?$AAi?$AA?$AA@ 1007a9b4     libucrt:lcidtoname_downlevel.obj
 0002:0000a9bc       ??_C@_15IDNNENKK@?$AAm?$AAs?$AA?$AA@ 1007a9bc     libucrt:lcidtoname_downlevel.obj
 0002:0000a9c4       ??_C@_15MACJNBMH@?$AAk?$AAk?$AA?$AA@ 1007a9c4     libucrt:lcidtoname_downlevel.obj
 0002:0000a9cc       ??_C@_15DKDJEOND@?$AAk?$AAy?$AA?$AA@ 1007a9cc     libucrt:lcidtoname_downlevel.obj
 0002:0000a9d4       ??_C@_15DFGDLJBG@?$AAs?$AAw?$AA?$AA@ 1007a9d4     libucrt:lcidtoname_downlevel.obj
 0002:0000a9dc       ??_C@_15BBFAICNG@?$AAu?$AAz?$AA?$AA@ 1007a9dc     libucrt:lcidtoname_downlevel.obj
 0002:0000a9e4       ??_C@_15DKNDCGEA@?$AAt?$AAt?$AA?$AA@ 1007a9e4     libucrt:lcidtoname_downlevel.obj
 0002:0000a9ec       ??_C@_15MGIFMDPL@?$AAp?$AAa?$AA?$AA@ 1007a9ec     libucrt:lcidtoname_downlevel.obj
 0002:0000a9f4       ??_C@_15HCNDBBA@?$AAg?$AAu?$AA?$AA@ 1007a9f4     libucrt:lcidtoname_downlevel.obj
 0002:0000a9fc       ??_C@_15FNBEIBON@?$AAt?$AAa?$AA?$AA@ 1007a9fc     libucrt:lcidtoname_downlevel.obj
 0002:0000aa04       ??_C@_15NCHGBGLK@?$AAt?$AAe?$AA?$AA@ 1007aa04     libucrt:lcidtoname_downlevel.obj
 0002:0000aa0c       ??_C@_15PHPHCBPF@?$AAk?$AAn?$AA?$AA@ 1007aa0c     libucrt:lcidtoname_downlevel.obj
 0002:0000aa14       ??_C@_15DLGBCKMP@?$AAm?$AAr?$AA?$AA@ 1007aa14     libucrt:lcidtoname_downlevel.obj
 0002:0000aa1c       ??_C@_15EABBLBFF@?$AAs?$AAa?$AA?$AA@ 1007aa1c     libucrt:lcidtoname_downlevel.obj
 0002:0000aa24       ??_C@_15CBKOMCOI@?$AAm?$AAn?$AA?$AA@ 1007aa24     libucrt:lcidtoname_downlevel.obj
 0002:0000aa2c       ??_C@_15CKDMCJAF@?$AAg?$AAl?$AA?$AA@ 1007aa2c     libucrt:lcidtoname_downlevel.obj
 0002:0000aa34       ??_C@_17CNJFBPG@?$AAk?$AAo?$AAk?$AA?$AA@ 1007aa34     libucrt:lcidtoname_downlevel.obj
 0002:0000aa40       ??_C@_17FFBJICPL@?$AAs?$AAy?$AAr?$AA?$AA@ 1007aa40     libucrt:lcidtoname_downlevel.obj
 0002:0000aa4c       ??_C@_17KPNDCPAF@?$AAd?$AAi?$AAv?$AA?$AA@ 1007aa4c     libucrt:lcidtoname_downlevel.obj
 0002:0000aa58       ??_C@_11LOCGONAA@?$AA?$AA@ 1007aa58     libucrt:lcidtoname_downlevel.obj
 0002:0000aa5c       ??_C@_1M@OKAHONE@?$AAa?$AAr?$AA?9?$AAS?$AAA?$AA?$AA@ 1007aa5c     libucrt:lcidtoname_downlevel.obj
 0002:0000aa6c       ??_C@_1M@FFFIGIGK@?$AAb?$AAg?$AA?9?$AAB?$AAG?$AA?$AA@ 1007aa6c     libucrt:lcidtoname_downlevel.obj
 0002:0000aa7c       ??_C@_1M@BJNKEDC@?$AAc?$AAa?$AA?9?$AAE?$AAS?$AA?$AA@ 1007aa7c     libucrt:lcidtoname_downlevel.obj
 0002:0000aa8c       ??_C@_1M@IJJHFJHA@?$AAc?$AAs?$AA?9?$AAC?$AAZ?$AA?$AA@ 1007aa8c     libucrt:lcidtoname_downlevel.obj
 0002:0000aa9c       ??_C@_1M@CLPEOBGI@?$AAd?$AAa?$AA?9?$AAD?$AAK?$AA?$AA@ 1007aa9c     libucrt:lcidtoname_downlevel.obj
 0002:0000aaac       ??_C@_1M@MCMADGCB@?$AAd?$AAe?$AA?9?$AAD?$AAE?$AA?$AA@ 1007aaac     libucrt:lcidtoname_downlevel.obj
 0002:0000aabc       ??_C@_1M@OOCKEMAM@?$AAe?$AAl?$AA?9?$AAG?$AAR?$AA?$AA@ 1007aabc     libucrt:lcidtoname_downlevel.obj
 0002:0000aacc       ??_C@_1M@DDNJFGID@?$AAf?$AAi?$AA?9?$AAF?$AAI?$AA?$AA@ 1007aacc     libucrt:lcidtoname_downlevel.obj
 0002:0000aadc       ??_C@_1M@GLIPPMAC@?$AAf?$AAr?$AA?9?$AAF?$AAR?$AA?$AA@ 1007aadc     libucrt:lcidtoname_downlevel.obj
 0002:0000aaec       ??_C@_1M@GFMCHPE@?$AAh?$AAe?$AA?9?$AAI?$AAL?$AA?$AA@ 1007aaec     libucrt:lcidtoname_downlevel.obj
 0002:0000aafc       ??_C@_1M@MHLPGNKM@?$AAh?$AAu?$AA?9?$AAH?$AAU?$AA?$AA@ 1007aafc     libucrt:lcidtoname_downlevel.obj
 0002:0000ab0c       ??_C@_1M@LPDDNNPN@?$AAi?$AAs?$AA?9?$AAI?$AAS?$AA?$AA@ 1007ab0c     libucrt:lcidtoname_downlevel.obj
 0002:0000ab1c       ??_C@_1M@MADIPODN@?$AAi?$AAt?$AA?9?$AAI?$AAT?$AA?$AA@ 1007ab1c     libucrt:lcidtoname_downlevel.obj
 0002:0000ab2c       ??_C@_1M@IHBJJGG@?$AAn?$AAl?$AA?9?$AAN?$AAL?$AA?$AA@ 1007ab2c     libucrt:lcidtoname_downlevel.obj
 0002:0000ab3c       ??_C@_1M@EANAGDL@?$AAn?$AAb?$AA?9?$AAN?$AAO?$AA?$AA@ 1007ab3c     libucrt:lcidtoname_downlevel.obj
 0002:0000ab4c       ??_C@_1M@NEIEMEGP@?$AAp?$AAl?$AA?9?$AAP?$AAL?$AA?$AA@ 1007ab4c     libucrt:lcidtoname_downlevel.obj
 0002:0000ab5c       ??_C@_1M@BOCFIGEP@?$AAp?$AAt?$AA?9?$AAB?$AAR?$AA?$AA@ 1007ab5c     libucrt:lcidtoname_downlevel.obj
 0002:0000ab6c       ??_C@_1M@IMPFOPBG@?$AAr?$AAo?$AA?9?$AAR?$AAO?$AA?$AA@ 1007ab6c     libucrt:lcidtoname_downlevel.obj
 0002:0000ab7c       ??_C@_1M@IDNNEJMM@?$AAr?$AAu?$AA?9?$AAR?$AAU?$AA?$AA@ 1007ab7c     libucrt:lcidtoname_downlevel.obj
 0002:0000ab8c       ??_C@_1M@LILEEOGM@?$AAh?$AAr?$AA?9?$AAH?$AAR?$AA?$AA@ 1007ab8c     libucrt:lcidtoname_downlevel.obj
 0002:0000ab9c       ??_C@_1M@FKIFEHPB@?$AAs?$AAk?$AA?9?$AAS?$AAK?$AA?$AA@ 1007ab9c     libucrt:lcidtoname_downlevel.obj
 0002:0000abac       ??_C@_1M@LJMAMNPJ@?$AAs?$AAq?$AA?9?$AAA?$AAL?$AA?$AA@ 1007abac     libucrt:lcidtoname_downlevel.obj
 0002:0000abbc       ??_C@_1M@GIAKDKJK@?$AAs?$AAv?$AA?9?$AAS?$AAE?$AA?$AA@ 1007abbc     libucrt:lcidtoname_downlevel.obj
 0002:0000abcc       ??_C@_1M@MKJKIKCL@?$AAt?$AAh?$AA?9?$AAT?$AAH?$AA?$AA@ 1007abcc     libucrt:lcidtoname_downlevel.obj
 0002:0000abdc       ??_C@_1M@MFLCCMPB@?$AAt?$AAr?$AA?9?$AAT?$AAR?$AA?$AA@ 1007abdc     libucrt:lcidtoname_downlevel.obj
 0002:0000abec       ??_C@_1M@OIJHDKJN@?$AAu?$AAr?$AA?9?$AAP?$AAK?$AA?$AA@ 1007abec     libucrt:lcidtoname_downlevel.obj
 0002:0000abfc       ??_C@_1M@LHIPCIEK@?$AAi?$AAd?$AA?9?$AAI?$AAD?$AA?$AA@ 1007abfc     libucrt:lcidtoname_downlevel.obj
 0002:0000ac0c       ??_C@_1M@MFMOBGI@?$AAu?$AAk?$AA?9?$AAU?$AAA?$AA?$AA@ 1007ac0c     libucrt:lcidtoname_downlevel.obj
 0002:0000ac1c       ??_C@_1M@OBGLJIPL@?$AAb?$AAe?$AA?9?$AAB?$AAY?$AA?$AA@ 1007ac1c     libucrt:lcidtoname_downlevel.obj
 0002:0000ac2c       ??_C@_1M@BCFAJEAD@?$AAs?$AAl?$AA?9?$AAS?$AAI?$AA?$AA@ 1007ac2c     libucrt:lcidtoname_downlevel.obj
 0002:0000ac3c       ??_C@_1M@FKFFEDDN@?$AAe?$AAt?$AA?9?$AAE?$AAE?$AA?$AA@ 1007ac3c     libucrt:lcidtoname_downlevel.obj
 0002:0000ac4c       ??_C@_1M@KGKKAACI@?$AAl?$AAv?$AA?9?$AAL?$AAV?$AA?$AA@ 1007ac4c     libucrt:lcidtoname_downlevel.obj
 0002:0000ac5c       ??_C@_1M@IFGBIJO@?$AAl?$AAt?$AA?9?$AAL?$AAT?$AA?$AA@ 1007ac5c     libucrt:lcidtoname_downlevel.obj
 0002:0000ac6c       ??_C@_1M@FGEAHEDM@?$AAf?$AAa?$AA?9?$AAI?$AAR?$AA?$AA@ 1007ac6c     libucrt:lcidtoname_downlevel.obj
 0002:0000ac7c       ??_C@_1M@KBMAIBFN@?$AAv?$AAi?$AA?9?$AAV?$AAN?$AA?$AA@ 1007ac7c     libucrt:lcidtoname_downlevel.obj
 0002:0000ac8c       ??_C@_1M@GPCBKDJK@?$AAh?$AAy?$AA?9?$AAA?$AAM?$AA?$AA@ 1007ac8c     libucrt:lcidtoname_downlevel.obj
 0002:0000ac9c       ??_C@_1BG@BECMDDJB@?$AAa?$AAz?$AA?9?$AAA?$AAZ?$AA?9?$AAL?$AAa?$AAt?$AAn?$AA?$AA@ 1007ac9c     libucrt:lcidtoname_downlevel.obj
 0002:0000acb8       ??_C@_1M@MAOFCAEA@?$AAe?$AAu?$AA?9?$AAE?$AAS?$AA?$AA@ 1007acb8     libucrt:lcidtoname_downlevel.obj
 0002:0000acc8       ??_C@_1M@IGHABKPI@?$AAm?$AAk?$AA?9?$AAM?$AAK?$AA?$AA@ 1007acc8     libucrt:lcidtoname_downlevel.obj
 0002:0000acd8       ??_C@_1M@IAIGNEJG@?$AAt?$AAn?$AA?9?$AAZ?$AAA?$AA?$AA@ 1007acd8     libucrt:lcidtoname_downlevel.obj
 0002:0000ace8       ??_C@_1M@IIJCOJFA@?$AAx?$AAh?$AA?9?$AAZ?$AAA?$AA?$AA@ 1007ace8     libucrt:lcidtoname_downlevel.obj
 0002:0000acf8       ??_C@_1M@LGPJHNJH@?$AAz?$AAu?$AA?9?$AAZ?$AAA?$AA?$AA@ 1007acf8     libucrt:lcidtoname_downlevel.obj
 0002:0000ad08       ??_C@_1M@HOKAOIO@?$AAa?$AAf?$AA?9?$AAZ?$AAA?$AA?$AA@ 1007ad08     libucrt:lcidtoname_downlevel.obj
 0002:0000ad18       ??_C@_1M@DPCLHLIE@?$AAk?$AAa?$AA?9?$AAG?$AAE?$AA?$AA@ 1007ad18     libucrt:lcidtoname_downlevel.obj
 0002:0000ad28       ??_C@_1M@BLKMHJBI@?$AAf?$AAo?$AA?9?$AAF?$AAO?$AA?$AA@ 1007ad28     libucrt:lcidtoname_downlevel.obj
 0002:0000ad38       ??_C@_1M@LGGJAPPB@?$AAh?$AAi?$AA?9?$AAI?$AAN?$AA?$AA@ 1007ad38     libucrt:lcidtoname_downlevel.obj
 0002:0000ad48       ??_C@_1M@FIKPIHFE@?$AAm?$AAt?$AA?9?$AAM?$AAT?$AA?$AA@ 1007ad48     libucrt:lcidtoname_downlevel.obj
 0002:0000ad58       ??_C@_1M@HEGGPBFA@?$AAs?$AAe?$AA?9?$AAN?$AAO?$AA?$AA@ 1007ad58     libucrt:lcidtoname_downlevel.obj
 0002:0000ad68       ??_C@_1M@EIBJEEPA@?$AAm?$AAs?$AA?9?$AAM?$AAY?$AA?$AA@ 1007ad68     libucrt:lcidtoname_downlevel.obj
 0002:0000ad78       ??_C@_1M@FHLBGMPP@?$AAk?$AAk?$AA?9?$AAK?$AAZ?$AA?$AA@ 1007ad78     libucrt:lcidtoname_downlevel.obj
 0002:0000ad88       ??_C@_1M@NGJJLCGI@?$AAk?$AAy?$AA?9?$AAK?$AAG?$AA?$AA@ 1007ad88     libucrt:lcidtoname_downlevel.obj
 0002:0000ad98       ??_C@_1M@GIENNBFC@?$AAs?$AAw?$AA?9?$AAK?$AAE?$AA?$AA@ 1007ad98     libucrt:lcidtoname_downlevel.obj
 0002:0000ada8       ??_C@_1BG@NDGMJIMJ@?$AAu?$AAz?$AA?9?$AAU?$AAZ?$AA?9?$AAL?$AAa?$AAt?$AAn?$AA?$AA@ 1007ada8     libucrt:lcidtoname_downlevel.obj
 0002:0000adc4       ??_C@_1M@IDCCIHBC@?$AAt?$AAt?$AA?9?$AAR?$AAU?$AA?$AA@ 1007adc4     libucrt:lcidtoname_downlevel.obj
 0002:0000add4       ??_C@_1M@LOICPMOJ@?$AAb?$AAn?$AA?9?$AAI?$AAN?$AA?$AA@ 1007add4     libucrt:lcidtoname_downlevel.obj
 0002:0000ade4       ??_C@_1M@KPKKNEAH@?$AAp?$AAa?$AA?9?$AAI?$AAN?$AA?$AA@ 1007ade4     libucrt:lcidtoname_downlevel.obj
 0002:0000adf4       ??_C@_1M@PJGPPBOG@?$AAg?$AAu?$AA?9?$AAI?$AAN?$AA?$AA@ 1007adf4     libucrt:lcidtoname_downlevel.obj
 0002:0000ae04       ??_C@_1M@KMKMOPHI@?$AAt?$AAa?$AA?9?$AAI?$AAN?$AA?$AA@ 1007ae04     libucrt:lcidtoname_downlevel.obj
 0002:0000ae14       ??_C@_1M@KFEHEPAC@?$AAt?$AAe?$AA?9?$AAI?$AAN?$AA?$AA@ 1007ae14     libucrt:lcidtoname_downlevel.obj
 0002:0000ae24       ??_C@_1M@CDCLMGHI@?$AAk?$AAn?$AA?9?$AAI?$AAN?$AA?$AA@ 1007ae24     libucrt:lcidtoname_downlevel.obj
 0002:0000ae34       ??_C@_1M@MIODLDKF@?$AAm?$AAl?$AA?9?$AAI?$AAN?$AA?$AA@ 1007ae34     libucrt:lcidtoname_downlevel.obj
 0002:0000ae44       ??_C@_1M@PBIEACPO@?$AAm?$AAr?$AA?9?$AAI?$AAN?$AA?$AA@ 1007ae44     libucrt:lcidtoname_downlevel.obj
 0002:0000ae54       ??_C@_1M@NIDEAGPH@?$AAs?$AAa?$AA?9?$AAI?$AAN?$AA?$AA@ 1007ae54     libucrt:lcidtoname_downlevel.obj
 0002:0000ae64       ??_C@_1M@FHIHCBIO@?$AAm?$AAn?$AA?9?$AAM?$AAN?$AA?$AA@ 1007ae64     libucrt:lcidtoname_downlevel.obj
 0002:0000ae74       ??_C@_1M@JAIJPENP@?$AAc?$AAy?$AA?9?$AAG?$AAB?$AA?$AA@ 1007ae74     libucrt:lcidtoname_downlevel.obj
 0002:0000ae84       ??_C@_1M@PHGFBEPN@?$AAg?$AAl?$AA?9?$AAE?$AAS?$AA?$AA@ 1007ae84     libucrt:lcidtoname_downlevel.obj
 0002:0000ae94       ??_C@_1O@KPIPDNCP@?$AAk?$AAo?$AAk?$AA?9?$AAI?$AAN?$AA?$AA@ 1007ae94     libucrt:lcidtoname_downlevel.obj
 0002:0000aea4       ??_C@_1O@KNHJLDJA@?$AAs?$AAy?$AAr?$AA?9?$AAS?$AAY?$AA?$AA@ 1007aea4     libucrt:lcidtoname_downlevel.obj
 0002:0000aeb4       ??_C@_1O@MKEKBLAH@?$AAd?$AAi?$AAv?$AA?9?$AAM?$AAV?$AA?$AA@ 1007aeb4     libucrt:lcidtoname_downlevel.obj
 0002:0000aec4       ??_C@_1O@OHDCKDDF@?$AAq?$AAu?$AAz?$AA?9?$AAB?$AAO?$AA?$AA@ 1007aec4     libucrt:lcidtoname_downlevel.obj
 0002:0000aed4       ??_C@_1M@LEPJNLFD@?$AAn?$AAs?$AA?9?$AAZ?$AAA?$AA?$AA@ 1007aed4     libucrt:lcidtoname_downlevel.obj
 0002:0000aee4       ??_C@_1M@OMLEIIJB@?$AAm?$AAi?$AA?9?$AAN?$AAZ?$AA?$AA@ 1007aee4     libucrt:lcidtoname_downlevel.obj
 0002:0000aef4       ??_C@_1M@PMPEAILG@?$AAa?$AAr?$AA?9?$AAI?$AAQ?$AA?$AA@ 1007aef4     libucrt:lcidtoname_downlevel.obj
 0002:0000af04       ??_C@_1M@CNKPNOEE@?$AAd?$AAe?$AA?9?$AAC?$AAH?$AA?$AA@ 1007af04     libucrt:lcidtoname_downlevel.obj
 0002:0000af14       ??_C@_1M@LKMGMLKO@?$AAe?$AAn?$AA?9?$AAG?$AAB?$AA?$AA@ 1007af14     libucrt:lcidtoname_downlevel.obj
 0002:0000af24       ??_C@_1M@PGKJFFGL@?$AAe?$AAs?$AA?9?$AAM?$AAX?$AA?$AA@ 1007af24     libucrt:lcidtoname_downlevel.obj
 0002:0000af34       ??_C@_1M@DNNANBDC@?$AAf?$AAr?$AA?9?$AAB?$AAE?$AA?$AA@ 1007af34     libucrt:lcidtoname_downlevel.obj
 0002:0000af44       ??_C@_1M@HLGMDFHM@?$AAi?$AAt?$AA?9?$AAC?$AAH?$AA?$AA@ 1007af44     libucrt:lcidtoname_downlevel.obj
 0002:0000af54       ??_C@_1M@CLLBGJH@?$AAn?$AAl?$AA?9?$AAB?$AAE?$AA?$AA@ 1007af54     libucrt:lcidtoname_downlevel.obj
 0002:0000af64       ??_C@_1M@BODBOGLF@?$AAn?$AAn?$AA?9?$AAN?$AAO?$AA?$AA@ 1007af64     libucrt:lcidtoname_downlevel.obj
 0002:0000af74       ??_C@_1M@HFFAHKAD@?$AAp?$AAt?$AA?9?$AAP?$AAT?$AA?$AA@ 1007af74     libucrt:lcidtoname_downlevel.obj
 0002:0000af84       ??_C@_1BG@LNOAKHIE@?$AAs?$AAr?$AA?9?$AAS?$AAP?$AA?9?$AAL?$AAa?$AAt?$AAn?$AA?$AA@ 1007af84     libucrt:lcidtoname_downlevel.obj
 0002:0000afa0       ??_C@_1M@HBMHBGAK@?$AAs?$AAv?$AA?9?$AAF?$AAI?$AA?$AA@ 1007afa0     libucrt:lcidtoname_downlevel.obj
 0002:0000afb0       ??_C@_1BG@DGCJGJBE@?$AAa?$AAz?$AA?9?$AAA?$AAZ?$AA?9?$AAC?$AAy?$AAr?$AAl?$AA?$AA@ 1007afb0     libucrt:lcidtoname_downlevel.obj
 0002:0000afcc       ??_C@_1M@KEJDAAHB@?$AAs?$AAe?$AA?9?$AAS?$AAE?$AA?$AA@ 1007afcc     libucrt:lcidtoname_downlevel.obj
 0002:0000afdc       ??_C@_1M@HEIBJJAD@?$AAm?$AAs?$AA?9?$AAB?$AAN?$AA?$AA@ 1007afdc     libucrt:lcidtoname_downlevel.obj
 0002:0000afec       ??_C@_1BG@PBGJMCEM@?$AAu?$AAz?$AA?9?$AAU?$AAZ?$AA?9?$AAC?$AAy?$AAr?$AAl?$AA?$AA@ 1007afec     libucrt:lcidtoname_downlevel.obj
 0002:0000b008       ??_C@_1O@LAOBCMDF@?$AAq?$AAu?$AAz?$AA?9?$AAE?$AAC?$AA?$AA@ 1007b008     libucrt:lcidtoname_downlevel.obj
 0002:0000b018       ??_C@_1M@POEEMAIO@?$AAa?$AAr?$AA?9?$AAE?$AAG?$AA?$AA@ 1007b018     libucrt:lcidtoname_downlevel.obj
 0002:0000b028       ??_C@_1M@EFAKDEDL@?$AAz?$AAh?$AA?9?$AAH?$AAK?$AA?$AA@ 1007b028     libucrt:lcidtoname_downlevel.obj
 0002:0000b038       ??_C@_1M@HKKIJHGI@?$AAd?$AAe?$AA?9?$AAA?$AAT?$AA?$AA@ 1007b038     libucrt:lcidtoname_downlevel.obj
 0002:0000b048       ??_C@_1M@KBFBEHJF@?$AAe?$AAn?$AA?9?$AAA?$AAU?$AA?$AA@ 1007b048     libucrt:lcidtoname_downlevel.obj
 0002:0000b058       ??_C@_1M@MNPLFAAH@?$AAe?$AAs?$AA?9?$AAE?$AAS?$AA?$AA@ 1007b058     libucrt:lcidtoname_downlevel.obj
 0002:0000b068       ??_C@_1M@HJOOJFMA@?$AAf?$AAr?$AA?9?$AAC?$AAA?$AA?$AA@ 1007b068     libucrt:lcidtoname_downlevel.obj
 0002:0000b078       ??_C@_1BG@JPOFPNAB@?$AAs?$AAr?$AA?9?$AAS?$AAP?$AA?9?$AAC?$AAy?$AAr?$AAl?$AA?$AA@ 1007b078     libucrt:lcidtoname_downlevel.obj
 0002:0000b094       ??_C@_1M@LNFOCMOB@?$AAs?$AAe?$AA?9?$AAF?$AAI?$AA?$AA@ 1007b094     libucrt:lcidtoname_downlevel.obj
 0002:0000b0a4       ??_C@_1O@MGJBOAMB@?$AAq?$AAu?$AAz?$AA?9?$AAP?$AAE?$AA?$AA@ 1007b0a4     libucrt:lcidtoname_downlevel.obj
 0002:0000b0b4       ??_C@_1M@GJINLBOK@?$AAa?$AAr?$AA?9?$AAL?$AAY?$AA?$AA@ 1007b0b4     libucrt:lcidtoname_downlevel.obj
 0002:0000b0c4       ??_C@_1M@GGMNHJNL@?$AAz?$AAh?$AA?9?$AAS?$AAG?$AA?$AA@ 1007b0c4     libucrt:lcidtoname_downlevel.obj
 0002:0000b0d4       ??_C@_1M@HOIKODND@?$AAd?$AAe?$AA?9?$AAL?$AAU?$AA?$AA@ 1007b0d4     libucrt:lcidtoname_downlevel.obj
 0002:0000b0e4       ??_C@_1M@DDOCCGFG@?$AAe?$AAn?$AA?9?$AAC?$AAA?$AA?$AA@ 1007b0e4     libucrt:lcidtoname_downlevel.obj
 0002:0000b0f4       ??_C@_1M@BNOEMJLF@?$AAe?$AAs?$AA?9?$AAG?$AAT?$AA?$AA@ 1007b0f4     libucrt:lcidtoname_downlevel.obj
 0002:0000b104       ??_C@_1M@EOGNKEK@?$AAf?$AAr?$AA?9?$AAC?$AAH?$AA?$AA@ 1007b104     libucrt:lcidtoname_downlevel.obj
 0002:0000b114       ??_C@_1M@FLIDJFHL@?$AAh?$AAr?$AA?9?$AAB?$AAA?$AA?$AA@ 1007b114     libucrt:lcidtoname_downlevel.obj
 0002:0000b124       ??_C@_1O@FMCELNAJ@?$AAs?$AAm?$AAj?$AA?9?$AAN?$AAO?$AA?$AA@ 1007b124     libucrt:lcidtoname_downlevel.obj
 0002:0000b134       ??_C@_1M@JHGLJMGJ@?$AAa?$AAr?$AA?9?$AAD?$AAZ?$AA?$AA@ 1007b134     libucrt:lcidtoname_downlevel.obj
 0002:0000b144       ??_C@_1M@JKKFDCNP@?$AAz?$AAh?$AA?9?$AAM?$AAO?$AA?$AA@ 1007b144     libucrt:lcidtoname_downlevel.obj
 0002:0000b154       ??_C@_1M@GEEFALPE@?$AAd?$AAe?$AA?9?$AAL?$AAI?$AA?$AA@ 1007b154     libucrt:lcidtoname_downlevel.obj
 0002:0000b164       ??_C@_1M@IGEOFBG@?$AAe?$AAn?$AA?9?$AAN?$AAZ?$AA?$AA@ 1007b164     libucrt:lcidtoname_downlevel.obj
 0002:0000b174       ??_C@_1M@KDBONEHP@?$AAe?$AAs?$AA?9?$AAC?$AAR?$AA?$AA@ 1007b174     libucrt:lcidtoname_downlevel.obj
 0002:0000b184       ??_C@_1M@FHMDOHNN@?$AAf?$AAr?$AA?9?$AAL?$AAU?$AA?$AA@ 1007b184     libucrt:lcidtoname_downlevel.obj
 0002:0000b194       ??_C@_1BG@NFKKMAFG@?$AAb?$AAs?$AA?9?$AAB?$AAA?$AA?9?$AAL?$AAa?$AAt?$AAn?$AA?$AA@ 1007b194     libucrt:lcidtoname_downlevel.obj
 0002:0000b1b0       ??_C@_1O@IMNBEMCI@?$AAs?$AAm?$AAj?$AA?9?$AAS?$AAE?$AA?$AA@ 1007b1b0     libucrt:lcidtoname_downlevel.obj
 0002:0000b1c0       ??_C@_1M@DHHMBNDP@?$AAa?$AAr?$AA?9?$AAM?$AAA?$AA?$AA@ 1007b1c0     libucrt:lcidtoname_downlevel.obj
 0002:0000b1d0       ??_C@_1M@BNBLJCGH@?$AAe?$AAn?$AA?9?$AAI?$AAE?$AA?$AA@ 1007b1d0     libucrt:lcidtoname_downlevel.obj
 0002:0000b1e0       ??_C@_1M@GEPAFMDL@?$AAe?$AAs?$AA?9?$AAP?$AAA?$AA?$AA@ 1007b1e0     libucrt:lcidtoname_downlevel.obj
 0002:0000b1f0       ??_C@_1M@OJONDMDL@?$AAf?$AAr?$AA?9?$AAM?$AAC?$AA?$AA@ 1007b1f0     libucrt:lcidtoname_downlevel.obj
 0002:0000b200       ??_C@_1BG@OBCNFJB@?$AAs?$AAr?$AA?9?$AAB?$AAA?$AA?9?$AAL?$AAa?$AAt?$AAn?$AA?$AA@ 1007b200     libucrt:lcidtoname_downlevel.obj
 0002:0000b21c       ??_C@_1O@KEMEEGPO@?$AAs?$AAm?$AAa?$AA?9?$AAN?$AAO?$AA?$AA@ 1007b21c     libucrt:lcidtoname_downlevel.obj
 0002:0000b22c       ??_C@_1M@ELMGFODK@?$AAa?$AAr?$AA?9?$AAT?$AAN?$AA?$AA@ 1007b22c     libucrt:lcidtoname_downlevel.obj
 0002:0000b23c       ??_C@_1M@BHDLHFAF@?$AAe?$AAn?$AA?9?$AAZ?$AAA?$AA?$AA@ 1007b23c     libucrt:lcidtoname_downlevel.obj
 0002:0000b24c       ??_C@_1M@BMGIGLIF@?$AAe?$AAs?$AA?9?$AAD?$AAO?$AA?$AA@ 1007b24c     libucrt:lcidtoname_downlevel.obj
 0002:0000b25c       ??_C@_1BG@CMBHIPBE@?$AAs?$AAr?$AA?9?$AAB?$AAA?$AA?9?$AAC?$AAy?$AAr?$AAl?$AA?$AA@ 1007b25c     libucrt:lcidtoname_downlevel.obj
 0002:0000b278       ??_C@_1O@HEDBLHNP@?$AAs?$AAm?$AAa?$AA?9?$AAS?$AAE?$AA?$AA@ 1007b278     libucrt:lcidtoname_downlevel.obj
 0002:0000b288       ??_C@_1M@DAGCADIM@?$AAa?$AAr?$AA?9?$AAO?$AAM?$AA?$AA@ 1007b288     libucrt:lcidtoname_downlevel.obj
 0002:0000b298       ??_C@_1M@FODLMICG@?$AAe?$AAn?$AA?9?$AAJ?$AAM?$AA?$AA@ 1007b298     libucrt:lcidtoname_downlevel.obj
 0002:0000b2a8       ??_C@_1M@DNMLCIHB@?$AAe?$AAs?$AA?9?$AAV?$AAE?$AA?$AA@ 1007b2a8     libucrt:lcidtoname_downlevel.obj
 0002:0000b2b8       ??_C@_1O@EOKHMKJK@?$AAs?$AAm?$AAs?$AA?9?$AAF?$AAI?$AA?$AA@ 1007b2b8     libucrt:lcidtoname_downlevel.obj
 0002:0000b2c8       ??_C@_1M@CAFJMKOF@?$AAa?$AAr?$AA?9?$AAY?$AAE?$AA?$AA@ 1007b2c8     libucrt:lcidtoname_downlevel.obj
 0002:0000b2d8       ??_C@_1M@CBFHIJLI@?$AAe?$AAn?$AA?9?$AAC?$AAB?$AA?$AA@ 1007b2d8     libucrt:lcidtoname_downlevel.obj
 0002:0000b2e8       ??_C@_1M@BGNFLDN@?$AAe?$AAs?$AA?9?$AAC?$AAO?$AA?$AA@ 1007b2e8     libucrt:lcidtoname_downlevel.obj
 0002:0000b2f8       ??_C@_1O@JMPHMAMC@?$AAs?$AAm?$AAn?$AA?9?$AAF?$AAI?$AA?$AA@ 1007b2f8     libucrt:lcidtoname_downlevel.obj
 0002:0000b308       ??_C@_1M@JLANABKE@?$AAa?$AAr?$AA?9?$AAS?$AAY?$AA?$AA@ 1007b308     libucrt:lcidtoname_downlevel.obj
 0002:0000b318       ??_C@_1M@HPKGCFGN@?$AAe?$AAn?$AA?9?$AAB?$AAZ?$AA?$AA@ 1007b318     libucrt:lcidtoname_downlevel.obj
 0002:0000b328       ??_C@_1M@OLJCMLGM@?$AAe?$AAs?$AA?9?$AAP?$AAE?$AA?$AA@ 1007b328     libucrt:lcidtoname_downlevel.obj
 0002:0000b338       ??_C@_1M@MKKGFKLE@?$AAa?$AAr?$AA?9?$AAJ?$AAO?$AA?$AA@ 1007b338     libucrt:lcidtoname_downlevel.obj
 0002:0000b348       ??_C@_1M@EKPGLDNI@?$AAe?$AAn?$AA?9?$AAT?$AAT?$AA?$AA@ 1007b348     libucrt:lcidtoname_downlevel.obj
 0002:0000b358       ??_C@_1M@OONGHFHE@?$AAe?$AAs?$AA?9?$AAA?$AAR?$AA?$AA@ 1007b358     libucrt:lcidtoname_downlevel.obj
 0002:0000b368       ??_C@_1M@OOJFGBHE@?$AAa?$AAr?$AA?9?$AAL?$AAB?$AA?$AA@ 1007b368     libucrt:lcidtoname_downlevel.obj
 0002:0000b378       ??_C@_1M@GCEJHNEG@?$AAe?$AAn?$AA?9?$AAZ?$AAW?$AA?$AA@ 1007b378     libucrt:lcidtoname_downlevel.obj
 0002:0000b388       ??_C@_1M@JNOCAHJI@?$AAe?$AAs?$AA?9?$AAE?$AAC?$AA?$AA@ 1007b388     libucrt:lcidtoname_downlevel.obj
 0002:0000b398       ??_C@_1M@JEFHPGGB@?$AAa?$AAr?$AA?9?$AAK?$AAW?$AA?$AA@ 1007b398     libucrt:lcidtoname_downlevel.obj
 0002:0000b3a8       ??_C@_1M@MLKIBJOJ@?$AAe?$AAn?$AA?9?$AAP?$AAH?$AA?$AA@ 1007b3a8     libucrt:lcidtoname_downlevel.obj
 0002:0000b3b8       ??_C@_1M@BDNIPEND@?$AAe?$AAs?$AA?9?$AAC?$AAL?$AA?$AA@ 1007b3b8     libucrt:lcidtoname_downlevel.obj
 0002:0000b3c8       ??_C@_1M@MPNMEKBD@?$AAa?$AAr?$AA?9?$AAA?$AAE?$AA?$AA@ 1007b3c8     libucrt:lcidtoname_downlevel.obj
 0002:0000b3d8       ??_C@_1M@KBJALCPI@?$AAe?$AAs?$AA?9?$AAU?$AAY?$AA?$AA@ 1007b3d8     libucrt:lcidtoname_downlevel.obj
 0002:0000b3e8       ??_C@_1M@LLCCOAGA@?$AAa?$AAr?$AA?9?$AAB?$AAH?$AA?$AA@ 1007b3e8     libucrt:lcidtoname_downlevel.obj
 0002:0000b3f8       ??_C@_1M@PBFNCDEL@?$AAe?$AAs?$AA?9?$AAP?$AAY?$AA?$AA@ 1007b3f8     libucrt:lcidtoname_downlevel.obj
 0002:0000b408       ??_C@_1M@EDGINPNP@?$AAa?$AAr?$AA?9?$AAQ?$AAA?$AA?$AA@ 1007b408     libucrt:lcidtoname_downlevel.obj
 0002:0000b418       ??_C@_1M@MKDBIIJI@?$AAe?$AAs?$AA?9?$AAB?$AAO?$AA?$AA@ 1007b418     libucrt:lcidtoname_downlevel.obj
 0002:0000b428       ??_C@_1M@CPKKEBLD@?$AAe?$AAs?$AA?9?$AAS?$AAV?$AA?$AA@ 1007b428     libucrt:lcidtoname_downlevel.obj
 0002:0000b438       ??_C@_1M@NDBGMMJL@?$AAe?$AAs?$AA?9?$AAH?$AAN?$AA?$AA@ 1007b438     libucrt:lcidtoname_downlevel.obj
 0002:0000b448       ??_C@_1M@JIJIBHDP@?$AAe?$AAs?$AA?9?$AAN?$AAI?$AA?$AA@ 1007b448     libucrt:lcidtoname_downlevel.obj
 0002:0000b458       ??_C@_1M@CGFMKEEK@?$AAe?$AAs?$AA?9?$AAP?$AAR?$AA?$AA@ 1007b458     libucrt:lcidtoname_downlevel.obj
 0002:0000b468       ??_C@_1O@ICJHKIIK@?$AAz?$AAh?$AA?9?$AAC?$AAH?$AAT?$AA?$AA@ 1007b468     libucrt:lcidtoname_downlevel.obj
 0002:0000b478       ??_C@_15CLNEJCE@?$AAs?$AAr?$AA?$AA@ 1007b478     libucrt:lcidtoname_downlevel.obj
 0002:0000bd0c       ??_C@_1M@KAHEKEIG@?$AAa?$AAf?$AA?9?$AAz?$AAa?$AA?$AA@ 1007bd0c     libucrt:lcidtoname_downlevel.obj
 0002:0000bd1c       ??_C@_1M@GIECOABL@?$AAa?$AAr?$AA?9?$AAa?$AAe?$AA?$AA@ 1007bd1c     libucrt:lcidtoname_downlevel.obj
 0002:0000bd2c       ??_C@_1M@BMLMEKGI@?$AAa?$AAr?$AA?9?$AAb?$AAh?$AA?$AA@ 1007bd2c     libucrt:lcidtoname_downlevel.obj
 0002:0000bd3c       ??_C@_1M@DAPFDGGB@?$AAa?$AAr?$AA?9?$AAd?$AAz?$AA?$AA@ 1007bd3c     libucrt:lcidtoname_downlevel.obj
 0002:0000bd4c       ??_C@_1M@FJNKGKIG@?$AAa?$AAr?$AA?9?$AAe?$AAg?$AA?$AA@ 1007bd4c     libucrt:lcidtoname_downlevel.obj
 0002:0000bd5c       ??_C@_1M@FLGKKCLO@?$AAa?$AAr?$AA?9?$AAi?$AAq?$AA?$AA@ 1007bd5c     libucrt:lcidtoname_downlevel.obj
 0002:0000bd6c       ??_C@_1M@GNDIPALM@?$AAa?$AAr?$AA?9?$AAj?$AAo?$AA?$AA@ 1007bd6c     libucrt:lcidtoname_downlevel.obj
 0002:0000bd7c       ??_C@_1M@DDMJFMGJ@?$AAa?$AAr?$AA?9?$AAk?$AAw?$AA?$AA@ 1007bd7c     libucrt:lcidtoname_downlevel.obj
 0002:0000bd8c       ??_C@_1M@EJALMLHM@?$AAa?$AAr?$AA?9?$AAl?$AAb?$AA?$AA@ 1007bd8c     libucrt:lcidtoname_downlevel.obj
 0002:0000bd9c       ??_C@_1M@MOBDBLOC@?$AAa?$AAr?$AA?9?$AAl?$AAy?$AA?$AA@ 1007bd9c     libucrt:lcidtoname_downlevel.obj
 0002:0000bdac       ??_C@_1M@JAOCLHDH@?$AAa?$AAr?$AA?9?$AAm?$AAa?$AA?$AA@ 1007bdac     libucrt:lcidtoname_downlevel.obj
 0002:0000bdbc       ??_C@_1M@JHPMKJIE@?$AAa?$AAr?$AA?9?$AAo?$AAm?$AA?$AA@ 1007bdbc     libucrt:lcidtoname_downlevel.obj
 0002:0000bdcc       ??_C@_1M@OEPGHFNH@?$AAa?$AAr?$AA?9?$AAq?$AAa?$AA?$AA@ 1007bdcc     libucrt:lcidtoname_downlevel.obj
 0002:0000bddc       ??_C@_1M@KJDONENM@?$AAa?$AAr?$AA?9?$AAs?$AAa?$AA?$AA@ 1007bddc     libucrt:lcidtoname_downlevel.obj
 0002:0000bdec       ??_C@_1M@DMJDKLKM@?$AAa?$AAr?$AA?9?$AAs?$AAy?$AA?$AA@ 1007bdec     libucrt:lcidtoname_downlevel.obj
 0002:0000bdfc       ??_C@_1M@OMFIPEDC@?$AAa?$AAr?$AA?9?$AAt?$AAn?$AA?$AA@ 1007bdfc     libucrt:lcidtoname_downlevel.obj
 0002:0000be0c       ??_C@_1M@IHMHGAON@?$AAa?$AAr?$AA?9?$AAy?$AAe?$AA?$AA@ 1007be0c     libucrt:lcidtoname_downlevel.obj
 0002:0000be1c       ??_C@_1BG@KDCPGJGB@?$AAa?$AAz?$AA?9?$AAa?$AAz?$AA?9?$AAc?$AAy?$AAr?$AAl?$AA?$AA@ 1007be1c     libucrt:lcidtoname_downlevel.obj
 0002:0000be38       ??_C@_1BG@IBCKDDOE@?$AAa?$AAz?$AA?9?$AAa?$AAz?$AA?9?$AAl?$AAa?$AAt?$AAn?$AA?$AA@ 1007be38     libucrt:lcidtoname_downlevel.obj
 0002:0000be54       ??_C@_1M@EGPFDCPD@?$AAb?$AAe?$AA?9?$AAb?$AAy?$AA?$AA@ 1007be54     libucrt:lcidtoname_downlevel.obj
 0002:0000be64       ??_C@_1M@PCMGMCGC@?$AAb?$AAg?$AA?9?$AAb?$AAg?$AA?$AA@ 1007be64     libucrt:lcidtoname_downlevel.obj
 0002:0000be74       ??_C@_1M@BJBMFGOB@?$AAb?$AAn?$AA?9?$AAi?$AAn?$AA?$AA@ 1007be74     libucrt:lcidtoname_downlevel.obj
 0002:0000be84       ??_C@_1BG@EAKMMACD@?$AAb?$AAs?$AA?9?$AAb?$AAa?$AA?9?$AAl?$AAa?$AAt?$AAn?$AA?$AA@ 1007be84     libucrt:lcidtoname_downlevel.obj
 0002:0000bea0       ??_C@_1M@KGADAODK@?$AAc?$AAa?$AA?9?$AAe?$AAs?$AA?$AA@ 1007bea0     libucrt:lcidtoname_downlevel.obj
 0002:0000beb0       ??_C@_1M@COAJPDHI@?$AAc?$AAs?$AA?9?$AAc?$AAz?$AA?$AA@ 1007beb0     libucrt:lcidtoname_downlevel.obj
 0002:0000bec0       ??_C@_1M@DHBHFONH@?$AAc?$AAy?$AA?9?$AAg?$AAb?$AA?$AA@ 1007bec0     libucrt:lcidtoname_downlevel.obj
 0002:0000bed0       ??_C@_1M@IMGKELGA@?$AAd?$AAa?$AA?9?$AAd?$AAk?$AA?$AA@ 1007bed0     libucrt:lcidtoname_downlevel.obj
 0002:0000bee0       ??_C@_1M@NNDGDNGA@?$AAd?$AAe?$AA?9?$AAa?$AAt?$AA?$AA@ 1007bee0     libucrt:lcidtoname_downlevel.obj
 0002:0000bef0       ??_C@_1M@IKDBHEEM@?$AAd?$AAe?$AA?9?$AAc?$AAh?$AA?$AA@ 1007bef0     libucrt:lcidtoname_downlevel.obj
 0002:0000bf00       ??_C@_1M@GFFOJMCJ@?$AAd?$AAe?$AA?9?$AAd?$AAe?$AA?$AA@ 1007bf00     libucrt:lcidtoname_downlevel.obj
 0002:0000bf10       ??_C@_1M@MDNLKBPM@?$AAd?$AAe?$AA?9?$AAl?$AAi?$AA?$AA@ 1007bf10     libucrt:lcidtoname_downlevel.obj
 0002:0000bf20       ??_C@_1M@NJBEEJNL@?$AAd?$AAe?$AA?9?$AAl?$AAu?$AA?$AA@ 1007bf20     libucrt:lcidtoname_downlevel.obj
 0002:0000bf30       ??_C@_1O@GNNELBAP@?$AAd?$AAi?$AAv?$AA?9?$AAm?$AAv?$AA?$AA@ 1007bf30     libucrt:lcidtoname_downlevel.obj
 0002:0000bf40       ??_C@_1M@EJLEOGAE@?$AAe?$AAl?$AA?9?$AAg?$AAr?$AA?$AA@ 1007bf40     libucrt:lcidtoname_downlevel.obj
 0002:0000bf50       ??_C@_1M@GMPONJN@?$AAe?$AAn?$AA?9?$AAa?$AAu?$AA?$AA@ 1007bf50     libucrt:lcidtoname_downlevel.obj
 0002:0000bf60       ??_C@_1M@NIDIIPGF@?$AAe?$AAn?$AA?9?$AAb?$AAz?$AA?$AA@ 1007bf60     libucrt:lcidtoname_downlevel.obj
 0002:0000bf70       ??_C@_1M@JEHMIMFO@?$AAe?$AAn?$AA?9?$AAc?$AAa?$AA?$AA@ 1007bf70     libucrt:lcidtoname_downlevel.obj
 0002:0000bf80       ??_C@_1M@IGMJCDLA@?$AAe?$AAn?$AA?9?$AAc?$AAb?$AA?$AA@ 1007bf80     libucrt:lcidtoname_downlevel.obj
 0002:0000bf90       ??_C@_1M@BNFIGBKG@?$AAe?$AAn?$AA?9?$AAg?$AAb?$AA?$AA@ 1007bf90     libucrt:lcidtoname_downlevel.obj
 0002:0000bfa0       ??_C@_1M@LKIFDIGP@?$AAe?$AAn?$AA?9?$AAi?$AAe?$AA?$AA@ 1007bfa0     libucrt:lcidtoname_downlevel.obj
 0002:0000bfb0       ??_C@_1M@PJKFGCCO@?$AAe?$AAn?$AA?9?$AAj?$AAm?$AA?$AA@ 1007bfb0     libucrt:lcidtoname_downlevel.obj
 0002:0000bfc0       ??_C@_1M@KPPKEPBO@?$AAe?$AAn?$AA?9?$AAn?$AAz?$AA?$AA@ 1007bfc0     libucrt:lcidtoname_downlevel.obj
 0002:0000bfd0       ??_C@_1M@GMDGLDOB@?$AAe?$AAn?$AA?9?$AAp?$AAh?$AA?$AA@ 1007bfd0     libucrt:lcidtoname_downlevel.obj
 0002:0000bfe0       ??_C@_1M@ONGIBJNA@?$AAe?$AAn?$AA?9?$AAt?$AAt?$AA?$AA@ 1007bfe0     libucrt:lcidtoname_downlevel.obj
 0002:0000bff0       ??_C@_1M@LLODPCMM@?$AAe?$AAn?$AA?9?$AAu?$AAs?$AA?$AA@ 1007bff0     libucrt:lcidtoname_downlevel.obj
 0002:0000c000       ??_C@_1M@LAKFNPAN@?$AAe?$AAn?$AA?9?$AAz?$AAa?$AA?$AA@ 1007c000     libucrt:lcidtoname_downlevel.obj
 0002:0000c010       ??_C@_1M@MFNHNHEO@?$AAe?$AAn?$AA?9?$AAz?$AAw?$AA?$AA@ 1007c010     libucrt:lcidtoname_downlevel.obj
 0002:0000c020       ??_C@_1M@EJEINPHM@?$AAe?$AAs?$AA?9?$AAa?$AAr?$AA?$AA@ 1007c020     libucrt:lcidtoname_downlevel.obj
 0002:0000c030       ??_C@_1M@GNKPCCJA@?$AAe?$AAs?$AA?9?$AAb?$AAo?$AA?$AA@ 1007c030     libucrt:lcidtoname_downlevel.obj
 0002:0000c040       ??_C@_1M@LEEGFONL@?$AAe?$AAs?$AA?9?$AAc?$AAl?$AA?$AA@ 1007c040     libucrt:lcidtoname_downlevel.obj
 0002:0000c050       ??_C@_1M@KGPDPBDF@?$AAe?$AAs?$AA?9?$AAc?$AAo?$AA?$AA@ 1007c050     libucrt:lcidtoname_downlevel.obj
 0002:0000c060       ??_C@_1M@EIAHOHH@?$AAe?$AAs?$AA?9?$AAc?$AAr?$AA?$AA@ 1007c060     libucrt:lcidtoname_downlevel.obj
 0002:0000c070       ??_C@_1M@LLPGMBIN@?$AAe?$AAs?$AA?9?$AAd?$AAo?$AA?$AA@ 1007c070     libucrt:lcidtoname_downlevel.obj
 0002:0000c080       ??_C@_1M@DKHMKNJA@?$AAe?$AAs?$AA?9?$AAe?$AAc?$AA?$AA@ 1007c080     libucrt:lcidtoname_downlevel.obj
 0002:0000c090       ??_C@_1M@GKGFPKAP@?$AAe?$AAs?$AA?9?$AAe?$AAs?$AA?$AA@ 1007c090     libucrt:lcidtoname_downlevel.obj
 0002:0000c0a0       ??_C@_1M@LKHKGDLN@?$AAe?$AAs?$AA?9?$AAg?$AAt?$AA?$AA@ 1007c0a0     libucrt:lcidtoname_downlevel.obj
 0002:0000c0b0       ??_C@_1M@HEIIGGJD@?$AAe?$AAs?$AA?9?$AAh?$AAn?$AA?$AA@ 1007c0b0     libucrt:lcidtoname_downlevel.obj
 0002:0000c0c0       ??_C@_1M@FBDHPPGD@?$AAe?$AAs?$AA?9?$AAm?$AAx?$AA?$AA@ 1007c0c0     libucrt:lcidtoname_downlevel.obj
 0002:0000c0d0       ??_C@_1M@DPAGLNDH@?$AAe?$AAs?$AA?9?$AAn?$AAi?$AA?$AA@ 1007c0d0     libucrt:lcidtoname_downlevel.obj
 0002:0000c0e0       ??_C@_1M@MDGOPGDD@?$AAe?$AAs?$AA?9?$AAp?$AAa?$AA?$AA@ 1007c0e0     libucrt:lcidtoname_downlevel.obj
 0002:0000c0f0       ??_C@_1M@EMAMGBGE@?$AAe?$AAs?$AA?9?$AAp?$AAe?$AA?$AA@ 1007c0f0     libucrt:lcidtoname_downlevel.obj
 0002:0000c100       ??_C@_1M@IBMCAOEC@?$AAe?$AAs?$AA?9?$AAp?$AAr?$AA?$AA@ 1007c100     libucrt:lcidtoname_downlevel.obj
 0002:0000c110       ??_C@_1M@FGMDIJED@?$AAe?$AAs?$AA?9?$AAp?$AAy?$AA?$AA@ 1007c110     libucrt:lcidtoname_downlevel.obj
 0002:0000c120       ??_C@_1M@IIDEOLLL@?$AAe?$AAs?$AA?9?$AAs?$AAv?$AA?$AA@ 1007c120     libucrt:lcidtoname_downlevel.obj
 0002:0000c130       ??_C@_1M@GAOBIPA@?$AAe?$AAs?$AA?9?$AAu?$AAy?$AA?$AA@ 1007c130     libucrt:lcidtoname_downlevel.obj
 0002:0000c140       ??_C@_1M@JKFFICHJ@?$AAe?$AAs?$AA?9?$AAv?$AAe?$AA?$AA@ 1007c140     libucrt:lcidtoname_downlevel.obj
 0002:0000c150       ??_C@_1M@PNMLOJDF@?$AAe?$AAt?$AA?9?$AAe?$AAe?$AA?$AA@ 1007c150     libucrt:lcidtoname_downlevel.obj
 0002:0000c160       ??_C@_1M@GHHLIKEI@?$AAe?$AAu?$AA?9?$AAe?$AAs?$AA?$AA@ 1007c160     libucrt:lcidtoname_downlevel.obj
 0002:0000c170       ??_C@_1M@PBNONODE@?$AAf?$AAa?$AA?9?$AAi?$AAr?$AA?$AA@ 1007c170     libucrt:lcidtoname_downlevel.obj
 0002:0000c180       ??_C@_1M@JEEHPMIL@?$AAf?$AAi?$AA?9?$AAf?$AAi?$AA?$AA@ 1007c180     libucrt:lcidtoname_downlevel.obj
 0002:0000c190       ??_C@_1M@LMDCNDBA@?$AAf?$AAo?$AA?9?$AAf?$AAo?$AA?$AA@ 1007c190     libucrt:lcidtoname_downlevel.obj
 0002:0000c1a0       ??_C@_1M@JKEOHLDK@?$AAf?$AAr?$AA?9?$AAb?$AAe?$AA?$AA@ 1007c1a0     libucrt:lcidtoname_downlevel.obj
 0002:0000c1b0       ??_C@_1M@NOHADPMI@?$AAf?$AAr?$AA?9?$AAc?$AAa?$AA?$AA@ 1007c1b0     libucrt:lcidtoname_downlevel.obj
 0002:0000c1c0       ??_C@_1M@KDHIHAEC@?$AAf?$AAr?$AA?9?$AAc?$AAh?$AA?$AA@ 1007c1c0     libucrt:lcidtoname_downlevel.obj
 0002:0000c1d0       ??_C@_1M@MMBBFGAK@?$AAf?$AAr?$AA?9?$AAf?$AAr?$AA?$AA@ 1007c1d0     libucrt:lcidtoname_downlevel.obj
 0002:0000c1e0       ??_C@_1M@PAFNENNF@?$AAf?$AAr?$AA?9?$AAl?$AAu?$AA?$AA@ 1007c1e0     libucrt:lcidtoname_downlevel.obj
 0002:0000c1f0       ??_C@_1M@EOHDJGDD@?$AAf?$AAr?$AA?9?$AAm?$AAc?$AA?$AA@ 1007c1f0     libucrt:lcidtoname_downlevel.obj
 0002:0000c200       ??_C@_1M@FAPLLOPF@?$AAg?$AAl?$AA?9?$AAe?$AAs?$AA?$AA@ 1007c200     libucrt:lcidtoname_downlevel.obj
 0002:0000c210       ??_C@_1M@FOPBFLOO@?$AAg?$AAu?$AA?9?$AAi?$AAn?$AA?$AA@ 1007c210     libucrt:lcidtoname_downlevel.obj
 0002:0000c220       ??_C@_1M@KBMCINPM@?$AAh?$AAe?$AA?9?$AAi?$AAl?$AA?$AA@ 1007c220     libucrt:lcidtoname_downlevel.obj
 0002:0000c230       ??_C@_1M@BBPHKFPJ@?$AAh?$AAi?$AA?9?$AAi?$AAn?$AA?$AA@ 1007c230     libucrt:lcidtoname_downlevel.obj
 0002:0000c240       ??_C@_1M@PMBNDPHD@?$AAh?$AAr?$AA?9?$AAb?$AAa?$AA?$AA@ 1007c240     libucrt:lcidtoname_downlevel.obj
 0002:0000c250       ??_C@_1M@BPCKOEGE@?$AAh?$AAr?$AA?9?$AAh?$AAr?$AA?$AA@ 1007c250     libucrt:lcidtoname_downlevel.obj
 0002:0000c260       ??_C@_1M@GACBMHKE@?$AAh?$AAu?$AA?9?$AAh?$AAu?$AA?$AA@ 1007c260     libucrt:lcidtoname_downlevel.obj
 0002:0000c270       ??_C@_1M@MILPAJJC@?$AAh?$AAy?$AA?9?$AAa?$AAm?$AA?$AA@ 1007c270     libucrt:lcidtoname_downlevel.obj
 0002:0000c280       ??_C@_1M@BABBICEC@?$AAi?$AAd?$AA?9?$AAi?$AAd?$AA?$AA@ 1007c280     libucrt:lcidtoname_downlevel.obj
 0002:0000c290       ??_C@_1M@BIKNHHPF@?$AAi?$AAs?$AA?9?$AAi?$AAs?$AA?$AA@ 1007c290     libucrt:lcidtoname_downlevel.obj
 0002:0000c2a0       ??_C@_1M@NMPCJPHE@?$AAi?$AAt?$AA?9?$AAc?$AAh?$AA?$AA@ 1007c2a0     libucrt:lcidtoname_downlevel.obj
 0002:0000c2b0       ??_C@_1M@GHKGFEDF@?$AAi?$AAt?$AA?9?$AAi?$AAt?$AA?$AA@ 1007c2b0     libucrt:lcidtoname_downlevel.obj
 0002:0000c2c0       ??_C@_1M@NIEJCJJA@?$AAj?$AAa?$AA?9?$AAj?$AAp?$AA?$AA@ 1007c2c0     libucrt:lcidtoname_downlevel.obj
