 lettura_finecorsa_slrt

 Timestamp is 60dc6cb8 (Wed Jun 30 15:08:08 2021)

 Preferred load address is 10000000

 Start         Length     Name                   Class
 0001:00000000 0006d9b3H .text$mn                CODE
 0001:0006d9b3 00001085H .text$x                 CODE
 0002:00000000 00000104H .CRT$XCA                DATA
 0002:00000104 00000104H .CRT$XCZ                DATA
 0002:00000208 00000104H .CRT$XIA                DATA
 0002:0000030c 00000110H .CRT$XIC                DATA
 0002:0000041c 00000104H .CRT$XIZ                DATA
 0002:00000520 00000104H .CRT$XPA                DATA
 0002:00000624 0000010cH .CRT$XPX                DATA
 0002:00000730 00000104H .CRT$XPXA               DATA
 0002:00000834 00000104H .CRT$XPZ                DATA
 0002:00000938 00000104H .CRT$XTA                DATA
 0002:00000a3c 00000104H .CRT$XTZ                DATA
 0002:00000b40 0000e6b0H .rdata                  DATA
 0002:0000f1f0 00000450H .rdata$r                DATA
 0002:0000f640 00000128H .rdata$sxdata           DATA
 0002:0000f768 000001b4H .rdata$zzzdbg           DATA
 0002:0000f91c 00000104H .rtc$IAA                DATA
 0002:0000fa20 00000104H .rtc$IZZ                DATA
 0002:0000fb24 00000104H .rtc$TAA                DATA
 0002:0000fc28 00000108H .rtc$TZZ                DATA
 0002:0000fd30 00000ce0H .xdata$x                DATA
 0002:00010a10 000001ecH .edata                  DATA
 0003:00000000 00001da4H .data                   DATA
 0003:00001da4 0000025cH .data$r                 DATA
 0003:00002000 000168dcH .bss                    DATA
 0004:00000000 000001b4H .idata$5                DATA
 0004:000001b4 00000014H .idata$2                DATA
 0004:000001c8 00000014H .idata$3                DATA
 0004:000001dc 000001b4H .idata$4                DATA
 0004:00000390 000007a2H .idata$6                DATA
 0005:00000000 00000104H .00cfg                  DATA

  Address         Publics by Value              Rva+Base       Lib:Object

 0000:00000000       ___hybrid_code_map_count   00000000     <absolute>
 0000:00000000       ___guard_iat_count         00000000     <absolute>
 0000:00000000       ___dynamic_value_reloc_table 00000000     <absolute>
 0000:00000000       ___hybrid_code_map         00000000     <absolute>
 0000:00000000       ___hybrid_auxiliary_iat    00000000     <absolute>
 0000:00000000       ___guard_fids_table        00000000     <absolute>
 0000:00000000       ___volatile_metadata       00000000     <absolute>
 0000:00000000       ___enclave_config          00000000     <absolute>
 0000:00000000       ___guard_fids_count        00000000     <absolute>
 0000:00000000       ___guard_longjmp_table     00000000     <absolute>
 0000:00000000       ___guard_iat_table         00000000     <absolute>
 0000:00000000       ___guard_longjmp_count     00000000     <absolute>
 0000:00000000       __except_list              00000000     <absolute>
 0000:00000008       ___safe_se_handler_count   00000008     <absolute>
 0000:00000100       ___guard_flags             00000100     <absolute>
 0000:00000000       ___ImageBase               10000000     <linker-defined>
 0001:00006500       _MdlInitialize             10007500 f   lettura_finecorsa.obj
 0001:00006510       _MdlInitializeSampleTimes  10007510 f   lettura_finecorsa.obj
 0001:00006520       _MdlInitializeSizes        10007520 f   lettura_finecorsa.obj
 0001:00006530       _MdlOutputs                10007530 f   lettura_finecorsa.obj
 0001:00006790       _MdlStart                  10007790 f   lettura_finecorsa.obj
 0001:00006970       _MdlTerminate              10007970 f   lettura_finecorsa.obj
 0001:00006a20       _MdlUpdate                 10007a20 f   lettura_finecorsa.obj
 0001:00006b00       _lettura_finecorsa         10007b00 f   lettura_finecorsa.obj
 0001:00008b30       _rt_mxCreateCharMatrixFromStrings 10009b30 f   rt_matrx.obj
 0001:00008c90       _rt_mxCreateDoubleMatrix   10009c90 f   rt_matrx.obj
 0001:00008cf0       _rt_mxCreateNumericArray   10009cf0 f   rt_matrx.obj
 0001:00008d60       _rt_mxCreateString         10009d60 f   rt_matrx.obj
 0001:00008df0       _rt_mxDuplicateArray       10009df0 f   rt_matrx.obj
 0001:00008e50       _rt_mxGetDimensions        10009e50 f   rt_matrx.obj
 0001:00008e90       _rt_mxGetEps               10009e90 f   rt_matrx.obj
 0001:00008ea0       _rt_mxGetString            10009ea0 f   rt_matrx.obj
 0001:00008f20       _rtPrintfNoOp              10009f20 f   rt_printf.obj
 0001:00008f30       _lettura_finecorsa_GetCAPIStaticMap 10009f30 f   lettura_finecorsa_capi.obj
 0001:00008f40       _lettura_finecorsa_InitializeDataMapInfo 10009f40 f   lettura_finecorsa_capi.obj
 0001:00008fd0       _rtGetInf                  10009fd0 f   rtGetInf.obj
 0001:00009000       _rtGetInfF                 1000a000 f   rtGetInf.obj
 0001:00009020       _rtGetMinusInf             1000a020 f   rtGetInf.obj
 0001:00009050       _rtGetMinusInfF            1000a050 f   rtGetInf.obj
 0001:00009070       _rtGetNaN                  1000a070 f   rtGetNaN.obj
 0001:000090a0       _rtGetNaNF                 1000a0a0 f   rtGetNaN.obj
 0001:000090c0       _rtIsInf                   1000a0c0 f   rt_nonfinite.obj
 0001:00009100       _rtIsInfF                  1000a100 f   rt_nonfinite.obj
 0001:00009140       _rtIsNaN                   1000a140 f   rt_nonfinite.obj
 0001:00009150       _rtIsNaNF                  1000a150 f   rt_nonfinite.obj
 0001:00009160       _rt_InitInfAndNaN          1000a160 f   rt_nonfinite.obj
 0001:000091c0       _rt_CleanUpForStateLogWithMMI 1000a1c0 f   rt_logging_mmi.obj
 0001:000092d0       _rt_FillStateSigInfoFromMMI 1000a2d0 f   rt_logging_mmi.obj
 0001:00009670       _rtwCAPI_CountSysRan       1000a670 f   rtw_modelmap_utils.obj
 0001:00009710       _rtwCAPI_EncodePath        1000a710 f   rtw_modelmap_utils.obj
 0001:00009820       _rtwCAPI_FillSysRan        1000a820 f   rtw_modelmap_utils.obj
 0001:00009910       _rtwCAPI_FreeFullPaths     1000a910 f   rtw_modelmap_utils.obj
 0001:000099a0       _rtwCAPI_GetFullStateBlockPath 1000a9a0 f   rtw_modelmap_utils.obj
 0001:00009b30       _rtwCAPI_GetNumContStateRecords 1000ab30 f   rtw_modelmap_utils.obj
 0001:00009bf0       _rtwCAPI_GetNumSigLogRecords 1000abf0 f   rtw_modelmap_utils.obj
 0001:00009c40       _rtwCAPI_GetNumSigLogRecordsForRTWLogging 1000ac40 f   rtw_modelmap_utils.obj
 0001:00009ce0       _rtwCAPI_GetNumStateRecords 1000ace0 f   rtw_modelmap_utils.obj
 0001:00009d30       _rtwCAPI_GetNumStateRecordsForRTWLogging 1000ad30 f   rtw_modelmap_utils.obj
 0001:00009dd0       _rtwCAPI_GetSigAddrFromMap 1000add0 f   rtw_modelmap_utils.obj
 0001:00009e90       _rtwCAPI_GetSigLogRecordInfo 1000ae90 f   rtw_modelmap_utils.obj
 0001:0000a2c0       _rtwCAPI_GetStateRecordInfo 1000b2c0 f   rtw_modelmap_utils.obj
 0001:0000a780       _rtwCAPI_GetStateWidth     1000b780 f   rtw_modelmap_utils.obj
 0001:0000a7e0       _rtwCAPI_HasStates         1000b7e0 f   rtw_modelmap_utils.obj
 0001:0000a840       _rtwCAPI_UpdateFullPaths   1000b840 f   rtw_modelmap_utils.obj
 0001:0000aa20       ___local_stdio_printf_options 1000ba20 f i rt_logging.obj
 0001:0000aa30       __vfprintf_l               1000ba30 f i rt_logging.obj
 0001:0000aa60       __vsnprintf_l              1000ba60 f i rt_logging.obj
 0001:0000aaa0       __vsprintf_l               1000baa0 f i rt_logging.obj
 0001:0000aae0       _fprintf                   1000bae0 f i rt_logging.obj
 0001:0000afe0       _printf                    1000bfe0 f i rt_logging.obj
 0001:0000b020       _rt_CreateLogVar           1000c020 f   rt_logging.obj
 0001:0000b0b0       _rt_CreateLogVarWithConvert 1000c0b0 f   rt_logging.obj
 0001:0000b9e0       _rt_CreateStructLogVar     1000c9e0 f   rt_logging.obj
 0001:0000c760       _rt_GetMxIdFromDTypeId     1000d760 f   rt_logging.obj
 0001:0000c790       _rt_GetMxIdFromDTypeIdForRSim 1000d790 f   rt_logging.obj
 0001:0000f320       _rt_StartDataLogging       10010320 f   rt_logging.obj
 0001:0000f7e0       _rt_StartDataLoggingWithStartTime 100107e0 f   rt_logging.obj
 0001:0000fc50       _rt_StopDataLogging        10010c50 f   rt_logging.obj
 0001:0000fc70       _rt_StopDataLoggingImpl    10010c70 f   rt_logging.obj
 0001:00010090       _rt_UpdateLogVar           10011090 f   rt_logging.obj
 0001:00011220       _rt_UpdateStructLogVar     10012220 f   rt_logging.obj
 0001:000112b0       _rt_UpdateTXXFYLogVars     100122b0 f   rt_logging.obj
 0001:000115e0       _rt_UpdateTXYLogVars       100125e0 f   rt_logging.obj
 0001:00011820       _sprintf                   10012820 f i rt_logging.obj
 0001:00011860       _DllMain@12                10012860 f   xpctarget.obj
 0001:00011870       _SLRTSetErrorStatus        10012870 f   xpctarget.obj
 0001:00011890       _changeStepSize            10012890 f   xpctarget.obj
 0001:000118e0       _getDLMVersion             100128e0 f   xpctarget.obj
 0001:000118f0       _getRefMdlPath             100128f0 f   xpctarget.obj
 0001:00011970       _getRefMdlSignalNumber     10012970 f   xpctarget.obj
 0001:00011a20       _getrlmdlinfo              10012a20 f   xpctarget.obj
 0001:00011c00       _lettura_finecorsa_ChangeStepSize 10012c00 f   xpctarget.obj
 0001:00011c50       _updateDiscreteEvents      10012c50 f   xpctarget.obj
 0001:00011c60       _getNumRef                 10012c60 f   appmappingData.obj
 0001:00011c70       _vprintf                   10012c70 f i legacy_stdio.obj
 0001:00011cb0       _danipcim                  10012cb0 f   danipcim.obj
 0001:00012470       _dinipcim                  10013470 f   dinipcim.obj
 0001:00012830       _donipcim                  10013830 f   donipcim.obj
 0001:00012d40       _encnipcim                 10013d40 f   encnipcim.obj
 0001:00013400       _niMIdentify               10014400 f   xpcionim.obj
 0001:00013570       _niM_AISetup               10014570 f   xpcionim.obj
 0001:00013980       _niM_AO_Setup              10014980 f   xpcionim.obj
 0001:00013b10       _niM_Cont_Pulse_Train_Generation 10014b10 f   xpcionim.obj
 0001:00013c50       _niM_Counter_Reset_All     10014c50 f   xpcionim.obj
 0001:00013d00       _niM_CtrArm                10014d00 f   xpcionim.obj
 0001:00013d20       _niM_CtrDisarm             10014d20 f   xpcionim.obj
 0001:00013d40       _niM_CtrReadArm            10014d40 f   xpcionim.obj
 0001:00013d60       _niM_CtrReadDisarm         10014d60 f   xpcionim.obj
 0001:00013d80       _niM_PeriodConfigure       10014d80 f   xpcionim.obj
 0001:00013f00       _niM_Private_Data          10014f00 f   xpcionim.obj
 0001:000144e0       _niM_SetPFIFilter          100154e0 f   xpcionim.obj
 0001:00014560       _niM_SetPFI_DO             10015560 f   xpcionim.obj
 0001:000145a0       _niM_SetPFI_Select         100155a0 f   xpcionim.obj
 0001:00014620       _niM_aiConfigureChannel    10015620 f   xpcionim.obj
 0001:00014690       _niM_aiGetScalingCoefficients 10015690 f   xpcionim.obj
 0001:00014860       _niM_aiPolynomialScaler    10015860 f   xpcionim.obj
 0001:00014990       _niM_analogTriggerReset    10015990 f   xpcionim.obj
 0001:000149e0       _niM_aoConfigureDAC        100159e0 f   xpcionim.obj
 0001:00014a30       _niM_aoGetScalingCoefficients 10015a30 f   xpcionim.obj
 0001:00014ae0       _niM_aoLinearScaler        10015ae0 f   xpcionim.obj
 0001:00014b10       _niM_configureTimebase     10015b10 f   xpcionim.obj
 0001:00014b30       _niM_eepromReadMSeries     10015b30 f   xpcionim.obj
 0001:00014c00       _niM_pllReset              10015c00 f   xpcionim.obj
 0001:00014c30       _niM_resetCtr              10015c30 f   xpcionim.obj
 0001:00014c50       _niM_whichBank             10015c50 f   xpcionim.obj
 0001:00014c90       _niMconfig                 10015c90 f   xpcionim.obj
 0001:00014d30       _GetPCIDeviceFull          10015d30 f   xpcruntime:xpcimports.obj
 0001:00014d70       _ShowPCIDevice             10015d70 f   xpcruntime:xpcimports.obj
 0001:00015550       _xpcGetPciConfigAtSlot     10016550 f   xpcruntime:xpcimports.obj
 0001:00015860       _xpcInitProcs              10016860 f   xpcruntime:xpcimports.obj
 0001:00016bc0       _xpceuploadevent           10017bc0 f   xpcruntime:xpcimports.obj
 0001:00016bd0       __ftoui3                   10017bd0 f   LIBCMT:ftol3.obj
 0001:00016bdf       __ftoul3                   10017bdf f   LIBCMT:ftol3.obj
 0001:00016bee       __ftol3                    10017bee f   LIBCMT:ftol3.obj
 0001:00016bfb       __ftol3_NaN                10017bfb f   LIBCMT:ftol3.obj
 0001:00016c13       __ftol3_work               10017c13 f   LIBCMT:ftol3.obj
 0001:00016c99       __ftol3_common             10017c99 f   LIBCMT:ftol3.obj
 0001:00016d5b       __ftol3_arg_error          10017d5b f   LIBCMT:ftol3.obj
 0001:00016d6d       __ftol3_except             10017d6d f   LIBCMT:ftol3.obj
 0001:00016db1       __dtoui3                   10017db1 f   LIBCMT:ftol3.obj
 0001:00016dc0       __dtoul3                   10017dc0 f   LIBCMT:ftol3.obj
 0001:00016dcf       __dtol3                    10017dcf f   LIBCMT:ftol3.obj
 0001:00016ddc       __dtol3_NaN                10017ddc f   LIBCMT:ftol3.obj
 0001:00016df9       __dtol3_work               10017df9 f   LIBCMT:ftol3.obj
 0001:00016ee0       __ultod3                   10017ee0 f   LIBCMT:ftol3.obj
 0001:00016f20       __ltod3                    10017f20 f   LIBCMT:ftol3.obj
 0001:00017024       ___raise_securityfailure   10018024 f   LIBCMT:gs_report.obj
 0001:00017056       ___report_gsfailure        10018056 f   LIBCMT:gs_report.obj
 0001:0001718d       ___report_rangecheckfailure 1001818d f   LIBCMT:gs_report.obj
 0001:0001719c       ___report_securityfailure  1001819c f   LIBCMT:gs_report.obj
 0001:0001729d       ___report_securityfailureEx 1001829d f   LIBCMT:gs_report.obj
 0001:000173f6       @__security_check_cookie@4 100183f6 f   LIBCMT:secchk.obj
 0001:0001740b       ___isa_available_init      1001840b f   LIBCMT:cpu_disp.obj
 0001:000179ec       __CRT_INIT@12              100189ec f   LIBCMT:dll_dllmain.obj
 0001:000179f7       __DllMainCRTStartup@12     100189f7 f   LIBCMT:dll_dllmain.obj
 0001:00017a82       ___security_init_cookie    10018a82 f   LIBCMT:gs_support.obj
 0001:00017adf       ?__scrt_initialize_type_info@@YAXXZ 10018adf f   LIBCMT:tncleanup.obj
 0001:00017aee       ?__scrt_uninitialize_type_info@@YAXXZ 10018aee f   LIBCMT:tncleanup.obj
 0001:00017afd       ___local_stdio_scanf_options 10018afd f i LIBCMT:default_local_stdio_options.obj
 0001:00017b03       ___scrt_initialize_default_local_stdio_options 10018b03 f   LIBCMT:default_local_stdio_options.obj
 0001:00017b27       ??$__crt_fast_decode_pointer@PAP6AXXZ@@YAPAP6AXXZQAP6AXXZ@Z 10018b27 f i LIBCMT:utility.obj
 0001:00017b40       ??$__crt_fast_encode_pointer@PAP6AXXZ@@YAPAP6AXXZQAP6AXXZ@Z 10018b40 f i LIBCMT:utility.obj
 0001:00017b64       ?__crt_rotate_pointer_value@@YAIIH@Z 10018b64 f i LIBCMT:utility.obj
 0001:00017b74       ?configure_argv@__scrt_narrow_argv_policy@@SAHXZ 10018b74 f i LIBCMT:utility.obj
 0001:00017bd9       ?initialize_environment@__scrt_narrow_environment_policy@@SAHXZ 10018bd9 f i LIBCMT:utility.obj
 0001:00017c1f       _NtCurrentTeb              10018c1f f i LIBCMT:utility.obj
 0001:00017c26       ___scrt_acquire_startup_lock 10018c26 f   LIBCMT:utility.obj
 0001:00017c64       ___scrt_dllmain_after_initialize_c 10018c64 f   LIBCMT:utility.obj
 0001:00017c99       ___scrt_dllmain_before_initialize_c 10018c99 f   LIBCMT:utility.obj
 0001:00017caa       ___scrt_dllmain_crt_thread_attach 10018caa f   LIBCMT:utility.obj
 0001:00017cd0       ___scrt_dllmain_crt_thread_detach 10018cd0 f   LIBCMT:utility.obj
 0001:00017ce0       ___scrt_dllmain_exception_filter 10018ce0 f   LIBCMT:utility.obj
 0001:00017d21       ___scrt_dllmain_uninitialize_c 10018d21 f   LIBCMT:utility.obj
 0001:00017d4c       ___scrt_dllmain_uninitialize_critical 10018d4c f   LIBCMT:utility.obj
 0001:00017d5c       ___scrt_initialize_crt     10018d5c f   LIBCMT:utility.obj
 0001:00017da3       ___scrt_initialize_onexit_tables 10018da3 f   LIBCMT:utility.obj
 0001:00017e71       ___scrt_is_nonwritable_in_current_image 10018e71 f   LIBCMT:utility.obj
 0001:00017f2a       ___scrt_release_startup_lock 10018f2a f   LIBCMT:utility.obj
 0001:00017f4e       ___scrt_uninitialize_crt   10018f4e f   LIBCMT:utility.obj
 0001:00017f80       __onexit                   10018f80 f   LIBCMT:utility.obj
 0001:00017fc9       _at_quick_exit             10018fc9 f   LIBCMT:utility.obj
 0001:00018006       _atexit                    10019006 f   LIBCMT:utility.obj
 0001:00018020       ___scrt_get_dyn_tls_init_callback 10019020 f   LIBCMT:dyn_tls_init.obj
 0001:00018026       ___scrt_fastfail           10019026 f   LIBCMT:utility_desktop.obj
 0001:00018186       ___scrt_get_show_window_mode 10019186 f   LIBCMT:utility_desktop.obj
 0001:000181c3       ___scrt_initialize_mta     100191c3 f   LIBCMT:utility_desktop.obj
 0001:000181c8       ___scrt_initialize_winrt   100191c8 f   LIBCMT:utility_desktop.obj
 0001:000181cb       ___scrt_is_managed_app     100191cb f   LIBCMT:utility_desktop.obj
 0001:0001821e       ___scrt_set_unhandled_exception_filter 1001921e f   LIBCMT:utility_desktop.obj
 0001:0001822d       ___scrt_stub_for_initialize_mta 1001922d f   LIBCMT:utility_desktop.obj
 0001:0001822d       ___scrt_exe_initialize_mta 1001922d f   LIBCMT:utility_desktop.obj
 0001:00018230       ___scrt_unhandled_exception_filter@4 10019230 f   LIBCMT:utility_desktop.obj
 0001:00018281       __crt_debugger_hook        10019281 f   LIBCMT:utility_desktop.obj
 0001:0001828b       __RTC_Initialize           1001928b f   LIBCMT:initsect.obj
 0001:000182c2       __RTC_Terminate            100192c2 f   LIBCMT:initsect.obj
 0001:00018300       __SEH_prolog4              10019300 f   LIBCMT:sehprolg4.obj
 0001:00018346       __SEH_epilog4              10019346 f   LIBCMT:sehprolg4.obj
 0001:00018371       @_guard_check_icall_nop@4  10019371 f i LIBCMT:guard_support.obj
 0001:00018372       _ReadNoFence               10019372 f i LIBCMT:guard_support.obj
 0001:0001837e       _ReadPointerNoFence        1001937e f i LIBCMT:guard_support.obj
 0001:0001838a       __guard_icall_checks_enforced 1001938a f i LIBCMT:guard_support.obj
 0001:000183a0       __get_startup_argv_mode    100193a0 f   LIBCMT:argv_mode.obj
 0001:000183a4       ___scrt_is_ucrt_dll_in_use 100193a4 f   LIBCMT:ucrt_detection.obj
 0001:000183b3       _GetModuleHandleA@4        100193b3 f   kernel32:KERNEL32.dll
 0001:000183b9       _GetProcAddress@8          100193b9 f   kernel32:KERNEL32.dll
 0001:000183bf       _UnhandledExceptionFilter@4 100193bf f   kernel32:KERNEL32.dll
 0001:000183c5       _SetUnhandledExceptionFilter@4 100193c5 f   kernel32:KERNEL32.dll
 0001:000183cb       _GetCurrentProcess@0       100193cb f   kernel32:KERNEL32.dll
 0001:000183d1       _TerminateProcess@8        100193d1 f   kernel32:KERNEL32.dll
 0001:000183d7       _IsProcessorFeaturePresent@4 100193d7 f   kernel32:KERNEL32.dll
 0001:000183dd       _QueryPerformanceCounter@4 100193dd f   kernel32:KERNEL32.dll
 0001:000183e3       _GetCurrentProcessId@0     100193e3 f   kernel32:KERNEL32.dll
 0001:000183e9       _GetCurrentThreadId@0      100193e9 f   kernel32:KERNEL32.dll
 0001:000183ef       _GetSystemTimeAsFileTime@4 100193ef f   kernel32:KERNEL32.dll
 0001:000183f5       _InitializeSListHead@4     100193f5 f   kernel32:KERNEL32.dll
 0001:000183fb       _IsDebuggerPresent@0       100193fb f   kernel32:KERNEL32.dll
 0001:00018401       _GetStartupInfoW@4         10019401 f   kernel32:KERNEL32.dll
 0001:00018407       _GetModuleHandleW@4        10019407 f   kernel32:KERNEL32.dll
 0001:00018410       _memset                    10019410 f   libvcruntime:memset.obj
 0001:000185c0       _memcpy                    100195c0 f   libvcruntime:memcpy.obj
 0001:00018ca0       _strchr                    10019ca0 f   libvcruntime:strchr.obj
 0001:00018d0e       ___from_strstr_to_strchr   10019d0e     libvcruntime:strchr.obj
 0001:00018e20       _memmove                   10019e20 f   libvcruntime:memmove.obj
 0001:00019540       __except_handler4          1001a540 f   libvcruntime:chandler4.obj
 0001:000196fc       ??$?RD@__crt_internal_free_policy@@QBEXQBD@Z 1001a6fc f i libvcruntime:std_type_info.obj
 0001:00019710       ??$?RX@__crt_internal_free_policy@@QBEXQBX@Z 1001a710 f i libvcruntime:std_type_info.obj
 0001:00019724       ??$__crt_interlocked_compare_exchange_pointer@$$CBDPAD$$T@@YAPBDPDSBDQAD$$T@Z 1001a724 f i libvcruntime:std_type_info.obj
 0001:0001973a       ??$__crt_interlocked_read_pointer@$$CBD@@YAPBDPDSBD@Z 1001a73a f i libvcruntime:std_type_info.obj
 0001:00019746       ??0?$__crt_unique_heap_ptr@DU__crt_internal_free_policy@@@@QAE@QAD@Z 1001a746 f i libvcruntime:std_type_info.obj
 0001:00019757       ??0?$__crt_unique_heap_ptr@XU__crt_internal_free_policy@@@@QAE@QAX@Z 1001a757 f i libvcruntime:std_type_info.obj
 0001:00019768       ??1?$__crt_unique_heap_ptr@DU__crt_internal_free_policy@@@@QAE@XZ 1001a768 f i libvcruntime:std_type_info.obj
 0001:0001977c       ??1?$__crt_unique_heap_ptr@XU__crt_internal_free_policy@@@@QAE@XZ 1001a77c f i libvcruntime:std_type_info.obj
 0001:0001979c       ??B?$__crt_unique_heap_ptr@DU__crt_internal_free_policy@@@@QBE_NXZ 1001a79c f i libvcruntime:std_type_info.obj
 0001:000197a3       ??B?$__crt_unique_heap_ptr@XU__crt_internal_free_policy@@@@QBE_NXZ 1001a7a3 f i libvcruntime:std_type_info.obj
 0001:000197d2       ?__crt_interlocked_read_32@@YAHPDH@Z 1001a7d2 f i libvcruntime:std_type_info.obj
 0001:000197de       ?detach@?$__crt_unique_heap_ptr@XU__crt_internal_free_policy@@@@QAEPAXXZ 1001a7de f i libvcruntime:std_type_info.obj
 0001:000197e4       ?get@?$__crt_unique_heap_ptr@DU__crt_internal_free_policy@@@@QBEPADXZ 1001a7e4 f i libvcruntime:std_type_info.obj
 0001:000197e7       ?get@?$__crt_unique_heap_ptr@XU__crt_internal_free_policy@@@@QBEPAXXZ 1001a7e7 f i libvcruntime:std_type_info.obj
 0001:000197ea       ?is_valid@?$__crt_unique_heap_ptr@DU__crt_internal_free_policy@@@@QBE_NXZ 1001a7ea f i libvcruntime:std_type_info.obj
 0001:000197f1       ?is_valid@?$__crt_unique_heap_ptr@XU__crt_internal_free_policy@@@@QBE_NXZ 1001a7f1 f i libvcruntime:std_type_info.obj
 0001:000197f8       ?release@?$__crt_unique_heap_ptr@DU__crt_internal_free_policy@@@@QAEXXZ 1001a7f8 f i libvcruntime:std_type_info.obj
 0001:0001980c       ?release@?$__crt_unique_heap_ptr@XU__crt_internal_free_policy@@@@QAEXXZ 1001a80c f i libvcruntime:std_type_info.obj
 0001:00019820       ___std_type_info_compare   1001a820 f   libvcruntime:std_type_info.obj
 0001:0001986b       ___std_type_info_destroy_list 1001a86b f   libvcruntime:std_type_info.obj
 0001:00019896       ___std_type_info_hash      1001a896 f   libvcruntime:std_type_info.obj
 0001:000198c5       ___std_type_info_name      1001a8c5 f   libvcruntime:std_type_info.obj
 0001:000199b8       ___vcrt_initialize         1001a9b8 f   libvcruntime:initialization.obj
 0001:000199eb       ___vcrt_thread_attach      1001a9eb f   libvcruntime:initialization.obj
 0001:000199f8       ___vcrt_thread_detach      1001a9f8 f   libvcruntime:initialization.obj
 0001:00019a05       ___vcrt_uninitialize       1001aa05 f   libvcruntime:initialization.obj
 0001:00019a2b       ___vcrt_uninitialize_critical 1001aa2b f   libvcruntime:initialization.obj
 0001:00019a40       __local_unwind4            1001aa40 f   libvcruntime:exsup4.obj
 0001:00019b18       __seh_longjmp_unwind4@4    1001ab18 f   libvcruntime:exsup4.obj
 0001:00019b40       @_EH4_CallFilterFunc@8     1001ab40 f   libvcruntime:exsup4.obj
 0001:00019b58       @_EH4_TransferToHandler@8  1001ab58 f   libvcruntime:exsup4.obj
 0001:00019b74       @_EH4_GlobalUnwind2@8      1001ab74 f   libvcruntime:exsup4.obj
 0001:00019b90       @_EH4_LocalUnwind@16       1001ab90 f   libvcruntime:exsup4.obj
 0001:00019c0d       ___except_validate_context_record 1001ac0d f   libvcruntime:jbcxrval.obj
 0001:00019c49       ___except_validate_jump_buffer 1001ac49 f   libvcruntime:jbcxrval.obj
 0001:00019c81       ___except_validate_jump_buffer_common 1001ac81 f i libvcruntime:jbcxrval.obj
 0001:00019cc8       ??0Block@_HeapManager@@QAE@XZ 1001acc8 f i libvcruntime:undname.obj
 0001:00019cce       ??0DName@@QAE@AAPBDD@Z     1001acce f   libvcruntime:undname.obj
 0001:00019dac       ??0DName@@QAE@ABV0@@Z      1001adac f i libvcruntime:undname.obj
 0001:00019dc7       ??0DName@@QAE@D@Z          1001adc7 f   libvcruntime:undname.obj
 0001:00019df5       ??0DName@@QAE@PAV0@@Z      1001adf5 f   libvcruntime:undname.obj
 0001:00019e4f       ??0DName@@QAE@PBD@Z        1001ae4f f   libvcruntime:undname.obj
 0001:00019e8e       ??0DName@@QAE@W4DNameStatus@@@Z 1001ae8e f   libvcruntime:undname.obj
 0001:00019ede       ??0DName@@QAE@XZ           1001aede f i libvcruntime:undname.obj
 0001:00019eea       ??0DName@@QAE@_J@Z         1001aeea f   libvcruntime:undname.obj
 0001:00019f99       ??0DName@@QAE@_K@Z         1001af99 f   libvcruntime:undname.obj
 0001:0001a018       ??0DNameNode@@IAE@XZ       1001b018 f i libvcruntime:undname.obj
 0001:0001a023       ??0Replicator@@QAE@XZ      1001b023 f i libvcruntime:undname.obj
 0001:0001a034       ??0UnDecorator@@QAE@PBDP6APADJ@ZK@Z 1001b034 f i libvcruntime:undname.obj
 0001:0001a093       ??0charNode@@QAE@D@Z       1001b093 f i libvcruntime:undname.obj
 0001:0001a0ad       ??0pDNameNode@@QAE@PAVDName@@@Z 1001b0ad f   libvcruntime:undname.obj
 0001:0001a0df       ??0pairNode@@QAE@PBVDNameNode@@0@Z 1001b0df f i libvcruntime:undname.obj
 0001:0001a105       ??0pcharNode@@QAE@PBDH@Z   1001b105 f   libvcruntime:undname.obj
 0001:0001a17b       ??2@YAPAXIAAV_HeapManager@@H@Z 1001b17b f i libvcruntime:undname.obj
 0001:0001a195       ??4DName@@QAEAAV0@ABV0@@Z  1001b195 f   libvcruntime:undname.obj
 0001:0001a1b0       ??4DName@@QAEAAV0@D@Z      1001b1b0 f i libvcruntime:undname.obj
 0001:0001a1de       ??4DName@@QAEAAV0@PAV0@@Z  1001b1de f   libvcruntime:undname.obj
 0001:0001a230       ??4DName@@QAEAAV0@PBD@Z    1001b230 f   libvcruntime:undname.obj
 0001:0001a265       ??4DName@@QAEAAV0@W4DNameStatus@@@Z 1001b265 f   libvcruntime:undname.obj
 0001:0001a2a3       ??AReplicator@@QBE?AVDName@@H@Z 1001b2a3 f   libvcruntime:undname.obj
 0001:0001a2fa       ??H@YA?AVDName@@DABV0@@Z   1001b2fa f i libvcruntime:undname.obj
 0001:0001a324       ??H@YA?AVDName@@PBDABV0@@Z 1001b324 f i libvcruntime:undname.obj
 0001:0001a34e       ??H@YA?AVDName@@W4DNameStatus@@ABV0@@Z 1001b34e f i libvcruntime:undname.obj
 0001:0001a378       ??HDName@@QBE?AV0@ABV0@@Z  1001b378 f   libvcruntime:undname.obj
 0001:0001a3a2       ??HDName@@QBE?AV0@D@Z      1001b3a2 f   libvcruntime:undname.obj
 0001:0001a3cc       ??HDName@@QBE?AV0@PAV0@@Z  1001b3cc f   libvcruntime:undname.obj
 0001:0001a3f6       ??HDName@@QBE?AV0@PBD@Z    1001b3f6 f   libvcruntime:undname.obj
 0001:0001a420       ??HDName@@QBE?AV0@W4DNameStatus@@@Z 1001b420 f   libvcruntime:undname.obj
 0001:0001a44a       ??YDName@@QAEAAV0@ABV0@@Z  1001b44a f   libvcruntime:undname.obj
 0001:0001a49b       ??YDName@@QAEAAV0@D@Z      1001b49b f   libvcruntime:undname.obj
 0001:0001a4ff       ??YDName@@QAEAAV0@PAV0@@Z  1001b4ff f   libvcruntime:undname.obj
 0001:0001a57d       ??YDName@@QAEAAV0@PBD@Z    1001b57d f   libvcruntime:undname.obj
 0001:0001a5f6       ??YDName@@QAEAAV0@W4DNameStatus@@@Z 1001b5f6 f   libvcruntime:undname.obj
 0001:0001a646       ??YReplicator@@QAEAAV0@ABVDName@@@Z 1001b646 f   libvcruntime:undname.obj
 0001:0001a6a2       ??_5DName@@QAEAAV0@ABV0@@Z 1001b6a2 f   libvcruntime:undname.obj
 0001:0001a6c5       ?Constructor@_HeapManager@@QAEXP6APAXI@ZP6AXPAX@Z@Z 1001b6c5 f i libvcruntime:undname.obj
 0001:0001a6e9       ?Destructor@_HeapManager@@QAEXXZ 1001b6e9 f i libvcruntime:undname.obj
 0001:0001a72f       ?UScore@UnDecorator@@SAPBDW4Tokens@@@Z 1001b72f f   libvcruntime:undname.obj
 0001:0001a755       ?append@DName@@AAEXPBVDNameNode@@@Z 1001b755 f   libvcruntime:undname.obj
 0001:0001a7ac       ?composeDeclaration@UnDecorator@@CA?AVDName@@ABV2@@Z 1001b7ac f i libvcruntime:undname.obj
 0001:0001b7c0       ?doAccessSpecifiers@UnDecorator@@SAHXZ 1001c7c0 f i libvcruntime:undname.obj
 0001:0001b7d1       ?doAllocationLanguage@UnDecorator@@SAHXZ 1001c7d1 f i libvcruntime:undname.obj
 0001:0001b7e2       ?doAllocationModel@UnDecorator@@SAHXZ 1001c7e2 f i libvcruntime:undname.obj
 0001:0001b7f3       ?doEcsu@UnDecorator@@SAHXZ 1001c7f3 f i libvcruntime:undname.obj
 0001:0001b804       ?doEllipsis@UnDecorator@@SAHXZ 1001c804 f i libvcruntime:undname.obj
 0001:0001b815       ?doFunctionReturns@UnDecorator@@SAHXZ 1001c815 f i libvcruntime:undname.obj
 0001:0001b826       ?doMSKeywords@UnDecorator@@SAHXZ 1001c826 f i libvcruntime:undname.obj
 0001:0001b836       ?doMemberTypes@UnDecorator@@SAHXZ 1001c836 f i libvcruntime:undname.obj
 0001:0001b847       ?doNameOnly@UnDecorator@@SAHXZ 1001c847 f i libvcruntime:undname.obj
 0001:0001b854       ?doNoIdentCharCheck@UnDecorator@@SAHXZ 1001c854 f i libvcruntime:undname.obj
 0001:0001b861       ?doPchar@DName@@AAEXPBDH@Z 1001c861 f   libvcruntime:undname.obj
 0001:0001b908       ?doPtr64@UnDecorator@@SAHXZ 1001c908 f i libvcruntime:undname.obj
 0001:0001b919       ?doRestrictionSpec@UnDecorator@@SAHXZ 1001c919 f i libvcruntime:undname.obj
 0001:0001b92a       ?doThisTypes@UnDecorator@@SAHXZ 1001c92a f i libvcruntime:undname.obj
 0001:0001b940       ?doThrowTypes@UnDecorator@@SAHXZ 1001c940 f i libvcruntime:undname.obj
 0001:0001b951       ?doTypeOnly@UnDecorator@@SAHXZ 1001c951 f i libvcruntime:undname.obj
 0001:0001b95e       ?doUnderScore@UnDecorator@@SAHXZ 1001c95e f i libvcruntime:undname.obj
 0001:0001b96b       ?getArgumentList@UnDecorator@@CA?AVDName@@XZ 1001c96b f   libvcruntime:undname.obj
 0001:0001ba9e       ?getArgumentTypes@UnDecorator@@CA?AVDName@@XZ 1001ca9e f   libvcruntime:undname.obj
 0001:0001bb9a       ?getArrayType@UnDecorator@@CA?AVDName@@ABV2@@Z 1001cb9a f i libvcruntime:undname.obj
 0001:0001bdb7       ?getBasedType@UnDecorator@@CA?AVDName@@XZ 1001cdb7 f   libvcruntime:undname.obj
 0001:0001be75       ?getBasicDataType@UnDecorator@@CA?AVDName@@ABV2@@Z 1001ce75 f   libvcruntime:undname.obj
 0001:0001c34b       ?getCHPEName@UnDecorator@@QAEPADPADH@Z 1001d34b f i libvcruntime:undname.obj
 0001:0001c461       ?getCallIndex@UnDecorator@@CA?AVDName@@XZ 1001d461 f i libvcruntime:undname.obj
 0001:0001c47a       ?getCallingConvention@UnDecorator@@CA?AVDName@@XZ 1001d47a f   libvcruntime:undname.obj
 0001:0001c581       ?getDataIndirectType@UnDecorator@@CA?AVDName@@ABV2@PBD0H@Z 1001d581 f   libvcruntime:undname.obj
 0001:0001cce5       ?getDataIndirectType@UnDecorator@@CA?AVDName@@XZ 1001dce5 f i libvcruntime:undname.obj
 0001:0001cd23       ?getDataType@UnDecorator@@CA?AVDName@@PAV2@@Z 1001dd23 f   libvcruntime:undname.obj
 0001:0001ce19       ?getDecoratedName@UnDecorator@@CA?AVDName@@XZ 1001de19 f   libvcruntime:undname.obj
 0001:0001d0eb       ?getDimension@UnDecorator@@CA?AVDName@@_N@Z 1001e0eb f   libvcruntime:undname.obj
 0001:0001d251       ?getDispatchTarget@UnDecorator@@CA?AVDName@@XZ 1001e251 f   libvcruntime:undname.obj
 0001:0001d2ba       ?getDisplacement@UnDecorator@@CA?AVDName@@XZ 1001e2ba f i libvcruntime:undname.obj
 0001:0001d2d3       ?getECSUDataType@UnDecorator@@CA?AVDName@@XZ 1001e2d3 f   libvcruntime:undname.obj
 0001:0001d431       ?getECSUName@UnDecorator@@CA?AVDName@@XZ 1001e431 f i libvcruntime:undname.obj
 0001:0001d446       ?getEnumType@UnDecorator@@CA?AVDName@@XZ 1001e446 f i libvcruntime:undname.obj
 0001:0001d572       ?getExtendedDataIndirectType@UnDecorator@@CA?AVDName@@AAPBDAA_NH@Z 1001e572 f   libvcruntime:undname.obj
 0001:0001d796       ?getExternalDataType@UnDecorator@@CA?AVDName@@ABV2@@Z 1001e796 f i libvcruntime:undname.obj
 0001:0001d816       ?getFunctionIndirectType@UnDecorator@@CA?AVDName@@ABV2@@Z 1001e816 f   libvcruntime:undname.obj
 0001:0001dce4       ?getGuardNumber@UnDecorator@@CA?AVDName@@XZ 1001ece4 f i libvcruntime:undname.obj
 0001:0001dcfd       ?getLastChar@DName@@QBEDXZ 1001ecfd f i libvcruntime:undname.obj
 0001:0001dd25       ?getLastChar@DNameStatusNode@@UBEDXZ 1001ed25 f i libvcruntime:undname.obj
 0001:0001dd34       ?getLastChar@charNode@@UBEDXZ 1001ed34 f i libvcruntime:undname.obj
 0001:0001dd38       ?getLastChar@pDNameNode@@UBEDXZ 1001ed38 f i libvcruntime:undname.obj
 0001:0001dd49       ?getLastChar@pairNode@@UBEDXZ 1001ed49 f i libvcruntime:undname.obj
 0001:0001dd8b       ?getLastChar@pcharNode@@UBEDXZ 1001ed8b f i libvcruntime:undname.obj
 0001:0001dda1       ?getLexicalFrame@UnDecorator@@CA?AVDName@@XZ 1001eda1 f i libvcruntime:undname.obj
 0001:0001ddef       ?getMemory@_HeapManager@@QAEPAXIH@Z 1001edef f   libvcruntime:undname.obj
 0001:0001de97       ?getNoexcept@UnDecorator@@CA?AVDName@@XZ 1001ee97 f   libvcruntime:undname.obj
 0001:0001deed       ?getNumberOfDimensions@UnDecorator@@CAHXZ 1001eeed f   libvcruntime:undname.obj
 0001:0001df66       ?getOperatorName@UnDecorator@@CA?AVDName@@_NPA_N@Z 1001ef66 f i libvcruntime:undname.obj
 0001:0001e754       ?getPointerType@UnDecorator@@CA?AVDName@@ABV2@0@Z 1001f754 f i libvcruntime:undname.obj
 0001:0001e779       ?getPointerTypeArray@UnDecorator@@CA?AVDName@@ABV2@0@Z 1001f779 f i libvcruntime:undname.obj
 0001:0001e79e       ?getPrimaryDataType@UnDecorator@@CA?AVDName@@ABV2@@Z 1001f79e f   libvcruntime:undname.obj
 0001:0001e9fb       ?getPtrRefDataType@UnDecorator@@CA?AVDName@@ABV2@H@Z 1001f9fb f   libvcruntime:undname.obj
 0001:0001eb6e       ?getPtrRefType@UnDecorator@@CA?AVDName@@ABV2@0PBD@Z 1001fb6e f   libvcruntime:undname.obj
 0001:0001eca6       ?getReferenceType@UnDecorator@@CA?AVDName@@ABV2@0PBD@Z 1001fca6 f i libvcruntime:undname.obj
 0001:0001ecc9       ?getRestrictionSpec@UnDecorator@@CA?AVDName@@XZ 1001fcc9 f   libvcruntime:undname.obj
 0001:0001ee00       ?getReturnType@UnDecorator@@CA?AVDName@@PAV2@@Z 1001fe00 f   libvcruntime:undname.obj
 0001:0001ee3a       ?getScope@UnDecorator@@CA?AVDName@@XZ 1001fe3a f   libvcruntime:undname.obj
 0001:0001f2b3       ?getScopedName@UnDecorator@@CA?AVDName@@XZ 100202b3 f   libvcruntime:undname.obj
 0001:0001f3bc       ?getSignedDimension@UnDecorator@@CA?AVDName@@XZ 100203bc f   libvcruntime:undname.obj
 0001:0001f421       ?getStorageConvention@UnDecorator@@CA?AVDName@@XZ 10020421 f i libvcruntime:undname.obj
 0001:0001f436       ?getString@DName@@QBEPADPAD0@Z 10020436 f i libvcruntime:undname.obj
 0001:0001f46e       ?getString@DName@@QBEPADPADH@Z 1002046e f i libvcruntime:undname.obj
 0001:0001f4d9       ?getString@DNameStatusNode@@UBEPADPAD0@Z 100204d9 f i libvcruntime:undname.obj
 0001:0001f509       ?getString@charNode@@UBEPADPAD0@Z 10020509 f i libvcruntime:undname.obj
 0001:0001f523       ?getString@pDNameNode@@UBEPADPAD0@Z 10020523 f i libvcruntime:undname.obj
 0001:0001f53f       ?getString@pairNode@@UBEPADPAD0@Z 1002053f f i libvcruntime:undname.obj
 0001:0001f596       ?getString@pcharNode@@UBEPADPAD0@Z 10020596 f i libvcruntime:undname.obj
 0001:0001f5b7       ?getStringEncoding@UnDecorator@@CA?AVDName@@PBDH@Z 100205b7 f   libvcruntime:undname.obj
 0001:0001f693       ?getStringHelper@@YAPADPADPBD1H@Z 10020693 f i libvcruntime:undname.obj
 0001:0001f6d7       ?getSymbolName@UnDecorator@@CA?AVDName@@XZ 100206d7 f i libvcruntime:undname.obj
 0001:0001f731       ?getTemplateArgumentList@UnDecorator@@CA?AVDName@@XZ 10020731 f   libvcruntime:undname.obj
 0001:0001fa75       ?getTemplateConstant@UnDecorator@@CA?AVDName@@XZ 10020a75 f   libvcruntime:undname.obj
 0001:0001fe73       ?getTemplateName@UnDecorator@@CA?AVDName@@_N@Z 10020e73 f   libvcruntime:undname.obj
 0001:0002002d       ?getThisType@UnDecorator@@CA?AVDName@@XZ 1002102d f i libvcruntime:undname.obj
 0001:0002006c       ?getThrowTypes@UnDecorator@@CA?AVDName@@XZ 1002106c f   libvcruntime:undname.obj
 0001:00020097       ?getTypeEncoding@UnDecorator@@CAHXZ 10021097 f i libvcruntime:undname.obj
 0001:00020489       ?getUndecoratedName@UnDecorator@@QAEPADPADH@Z 10021489 f i libvcruntime:undname.obj
 0001:0002057e       ?getVCallThunkType@UnDecorator@@CA?AVDName@@XZ 1002157e f i libvcruntime:undname.obj
 0001:000205d6       ?getVbTableType@UnDecorator@@CA?AVDName@@ABV2@@Z 100215d6 f i libvcruntime:undname.obj
 0001:000205f0       ?getVdispMapType@UnDecorator@@CA?AVDName@@ABV2@@Z 100215f0 f i libvcruntime:undname.obj
 0001:00020659       ?getVfTableType@UnDecorator@@CA?AVDName@@ABV2@@Z 10021659 f i libvcruntime:undname.obj
 0001:00020814       ?getZName@UnDecorator@@CA?AVDName@@_N0@Z 10021814 f   libvcruntime:undname.obj
 0001:00020a92       ?haveTemplateParameters@UnDecorator@@SAHXZ 10021a92 f i libvcruntime:undname.obj
 0001:00020a9f       ?isArray@DName@@QBEHXZ     10021a9f f i libvcruntime:undname.obj
 0001:00020aab       ?isComArray@DName@@QBEHXZ  10021aab f i libvcruntime:undname.obj
 0001:00020ab7       ?isEmpty@DName@@QBEHXZ     10021ab7 f i libvcruntime:undname.obj
 0001:00020ac1       ?isFull@Replicator@@QBEHXZ 10021ac1 f i libvcruntime:undname.obj
 0001:00020acc       ?isNoTE@DName@@QBEHXZ      10021acc f i libvcruntime:undname.obj
 0001:00020ad8       ?isPinPtr@DName@@QBEHXZ    10021ad8 f i libvcruntime:undname.obj
 0001:00020ae4       ?isPtrRef@DName@@QBEHXZ    10021ae4 f i libvcruntime:undname.obj
 0001:00020af0       ?isUDC@DName@@QBEHXZ       10021af0 f i libvcruntime:undname.obj
 0001:00020b05       ?isUDTThunk@DName@@QBEHXZ  10021b05 f i libvcruntime:undname.obj
 0001:00020b1a       ?isVCallThunk@DName@@QBEHXZ 10021b1a f i libvcruntime:undname.obj
 0001:00020b26       ?isValid@DName@@QBEHXZ     10021b26 f i libvcruntime:undname.obj
 0001:00020b32       ?length@DName@@QBEHXZ      10021b32 f i libvcruntime:undname.obj
 0001:00020b58       ?length@DNameStatusNode@@UBEHXZ 10021b58 f i libvcruntime:undname.obj
 0001:00020b5c       ?length@charNode@@UBEHXZ   10021b5c f i libvcruntime:undname.obj
 0001:00020b60       ?length@pDNameNode@@UBEHXZ 10021b60 f i libvcruntime:undname.obj
 0001:00020b71       ?length@pairNode@@UBEHXZ   10021b71 f i libvcruntime:undname.obj
 0001:00020bc8       ?length@pcharNode@@UBEHXZ  10021bc8 f i libvcruntime:undname.obj
 0001:00020bcc       ?make@DNameStatusNode@@SAPBV1@W4DNameStatus@@@Z 10021bcc f i libvcruntime:undname.obj
 0001:00020bef       ?parseDecoratedName@UnDecorator@@CA?AVDName@@XZ 10021bef f   libvcruntime:undname.obj
 0001:00020d18       ?setIsArray@DName@@QAEXXZ  10021d18 f i libvcruntime:undname.obj
 0001:00020d22       ?setIsComArray@DName@@QAEXXZ 10021d22 f i libvcruntime:undname.obj
 0001:00020d2c       ?setIsNoTE@DName@@QAEXXZ   10021d2c f i libvcruntime:undname.obj
 0001:00020d36       ?setIsPinPtr@DName@@QAEXXZ 10021d36 f i libvcruntime:undname.obj
 0001:00020d40       ?setIsUDC@DName@@QAEXXZ    10021d40 f i libvcruntime:undname.obj
 0001:00020d50       ?setIsVCallThunk@DName@@QAEXXZ 10021d50 f i libvcruntime:undname.obj
 0001:00020d5a       ?setPtrRef@DName@@QAEAAV1@XZ 10021d5a f i libvcruntime:undname.obj
 0001:00020d66       ?status@DName@@QBE?AW4DNameStatus@@XZ 10021d66 f i libvcruntime:undname.obj
 0001:00020deb       ___unDName                 10021deb f   libvcruntime:undname.obj
 0001:00020e16       ___unDNameEx               10021e16 f   libvcruntime:undname.obj
 0001:00020edc       __vsprintf_s_l             10021edc f i libvcruntime:undname.obj
 0001:00020f14       _sprintf_s                 10021f14 f i libvcruntime:undname.obj
 0001:00020f37       _unDNameGenerateCHPE       10021f37 f   libvcruntime:undname.obj
 0001:00020faa       ??$?RU__vcrt_ptd@@@__crt_internal_free_policy@@QBEXQBU__vcrt_ptd@@@Z 10021faa f i libvcruntime:per_thread_data.obj
 0001:00020fbe       ??0?$__crt_unique_heap_ptr@U__vcrt_ptd@@U__crt_internal_free_policy@@@@QAE@QAU__vcrt_ptd@@@Z 10021fbe f i libvcruntime:per_thread_data.obj
 0001:00020fe1       ??1?$__crt_unique_heap_ptr@U__vcrt_ptd@@U__crt_internal_free_policy@@@@QAE@XZ 10021fe1 f i libvcruntime:per_thread_data.obj
 0001:00021000       ??B?$__crt_unique_heap_ptr@U__vcrt_ptd@@U__crt_internal_free_policy@@@@QBE_NXZ 10022000 f i libvcruntime:per_thread_data.obj
 0001:00021007       ?detach@?$__crt_unique_heap_ptr@U__vcrt_ptd@@U__crt_internal_free_policy@@@@QAEPAU__vcrt_ptd@@XZ 10022007 f i libvcruntime:per_thread_data.obj
 0001:0002100d       ?get@?$__crt_unique_heap_ptr@U__vcrt_ptd@@U__crt_internal_free_policy@@@@QBEPAU__vcrt_ptd@@XZ 1002200d f i libvcruntime:per_thread_data.obj
 0001:00021010       ?is_valid@?$__crt_unique_heap_ptr@U__vcrt_ptd@@U__crt_internal_free_policy@@@@QBE_NXZ 10022010 f i libvcruntime:per_thread_data.obj
 0001:00021017       ?release@?$__crt_unique_heap_ptr@U__vcrt_ptd@@U__crt_internal_free_policy@@@@QAEXXZ 10022017 f i libvcruntime:per_thread_data.obj
 0001:0002104b       ___vcrt_freefls@4          1002204b f   libvcruntime:per_thread_data.obj
 0001:0002106e       ___vcrt_freeptd            1002206e f   libvcruntime:per_thread_data.obj
 0001:000210b1       ___vcrt_getptd             100220b1 f   libvcruntime:per_thread_data.obj
 0001:000210c2       ___vcrt_getptd_noexit      100220c2 f   libvcruntime:per_thread_data.obj
 0001:00021178       ___vcrt_getptd_noinit      10022178 f   libvcruntime:per_thread_data.obj
 0001:000211bc       ___vcrt_initialize_ptd     100221bc f   libvcruntime:per_thread_data.obj
 0001:000211fb       ___vcrt_uninitialize_ptd   100221fb f   libvcruntime:per_thread_data.obj
 0001:0002121c       ___vcrt_initialize_locks   1002221c f   libvcruntime:locks.obj
 0001:00021267       ___vcrt_lock               10022267 f   libvcruntime:locks.obj
 0001:00021281       ___vcrt_uninitialize_locks 10022281 f   libvcruntime:locks.obj
 0001:000212bb       ___vcrt_unlock             100222bb f   libvcruntime:locks.obj
 0001:000212d5       ??$?BX@__crt_fast_encoded_nullptr_t@@QBEPAXXZ 100222d5 f i libvcruntime:winapi_downlevel.obj
 0001:000212db       ??$__crt_fast_decode_pointer@PAX@@YAPAXQAX@Z 100222db f i libvcruntime:winapi_downlevel.obj
 0001:000212f4       ??$__crt_fast_encode_pointer@PAX@@YAPAXQAX@Z 100222f4 f i libvcruntime:winapi_downlevel.obj
 0001:00021318       ??$__crt_interlocked_exchange_pointer@UHINSTANCE__@@PAU1@@@YAPAUHINSTANCE__@@PDSAU0@QAU0@@Z 10022318 f i libvcruntime:winapi_downlevel.obj
 0001:00021328       ??$__crt_interlocked_exchange_pointer@UHINSTANCE__@@PAX@@YAPAUHINSTANCE__@@PDSAU0@QAX@Z 10022328 f i libvcruntime:winapi_downlevel.obj
 0001:00021338       ??$__crt_interlocked_exchange_pointer@XPAX@@YAPAXPDSAXQAX@Z 10022338 f i libvcruntime:winapi_downlevel.obj
 0001:00021348       ??$__crt_interlocked_read_pointer@UHINSTANCE__@@@@YAPAUHINSTANCE__@@PDSAU0@@Z 10022348 f i libvcruntime:winapi_downlevel.obj
 0001:00021354       ??$__crt_interlocked_read_pointer@X@@YAPAXPDSAX@Z 10022354 f i libvcruntime:winapi_downlevel.obj
 0001:00021360       ?__crt_fast_encode_pointer@@YA?AU__crt_fast_encoded_nullptr_t@@$$T@Z 10022360 f i libvcruntime:winapi_downlevel.obj
 0001:00021693       ___vcrt_FlsAlloc           10022693 f   libvcruntime:winapi_downlevel.obj
 0001:000216dc       ___vcrt_FlsFree            100226dc f   libvcruntime:winapi_downlevel.obj
 0001:00021725       ___vcrt_FlsGetValue        10022725 f   libvcruntime:winapi_downlevel.obj
 0001:0002176e       ___vcrt_FlsSetValue        1002276e f   libvcruntime:winapi_downlevel.obj
 0001:000217bb       ___vcrt_InitializeCriticalSectionEx 100227bb f   libvcruntime:winapi_downlevel.obj
 0001:00021813       ___vcrt_initialize_winapi_thunks 10022813 f   libvcruntime:winapi_downlevel.obj
 0001:00021846       ___vcrt_uninitialize_winapi_thunks 10022846 f   libvcruntime:winapi_downlevel.obj
 0001:00021884       ??$?B$$A6AXXZ@__crt_fast_encoded_nullptr_t@@QBEP6AXXZXZ 10022884 f i libvcruntime:purevirt_data.obj
 0001:0002188a       ??$__crt_fast_encode_pointer@P6AXXZ@@YAP6AXXZQ6AXXZ@Z 1002288a f i libvcruntime:purevirt_data.obj
 0001:000218ae       ___vcrt_initialize_pure_virtual_call_handler 100228ae f   libvcruntime:purevirt_data.obj
 0001:000218c0       __global_unwind2           100228c0 f   libvcruntime:exsup.obj
 0001:00021926       __local_unwind2            10022926 f   libvcruntime:exsup.obj
 0001:000219aa       __abnormal_termination     100229aa f   libvcruntime:exsup.obj
 0001:000219d0       __NLG_Notify1              100229d0 f   libvcruntime:exsup.obj
 0001:000219dc       __NLG_Notify               100229dc f   libvcruntime:exsup.obj
 0001:000219f3       __NLG_Dispatch2            100229f3     libvcruntime:exsup.obj
 0001:000219f3       __NLG_Dispatch             100229f3     libvcruntime:exsup.obj
 0001:000219fb       __NLG_Call                 100229fb f   libvcruntime:exsup.obj
 0001:000219fd       __NLG_Return2              100229fd     libvcruntime:exsup.obj
 0001:00021a4d       ??$__crt_fast_decode_pointer@P6AXXZ@@YAP6AXXZQ6AXXZ@Z 10022a4d f i libvcruntime:purevirt.obj
 0001:00021a66       ??$__crt_interlocked_exchange_pointer@$$A6AXXZP6AXXZ@@YAP6AXXZPDS6AXXZQ6AXXZ@Z 10022a66 f i libvcruntime:purevirt.obj
 0001:00021a76       ??$__crt_interlocked_read_pointer@$$A6AXXZ@@YAP6AXXZPDS6AXXZ@Z 10022a76 f i libvcruntime:purevirt.obj
 0001:00021a82       __get_purecall_handler     10022a82 f   libvcruntime:purevirt.obj
 0001:00021a9c       __purecall                 10022a9c f   libvcruntime:purevirt.obj
 0001:00021abf       __set_purecall_handler     10022abf f   libvcruntime:purevirt.obj
 0001:00021aed       ??$?0AAViterator@TryBlockMap@__FrameHandler3@@AAV012@$0A@@?$pair@Viterator@TryBlockMap@__FrameHandler3@@V123@@std@@QAE@AAViterator@TryBlockMap@__FrameHandler3@@0@Z 10022aed f i libvcruntime:trnsctrl.obj
 0001:00021b1a       ??$forward@AAViterator@TryBlockMap@__FrameHandler3@@@std@@YAAAViterator@TryBlockMap@__FrameHandler3@@AAV123@@Z 10022b1a f i libvcruntime:trnsctrl.obj
 0001:00021b24       ??0iterator@TryBlockMap@__FrameHandler3@@QAE@AAV12@I@Z 10022b24 f i libvcruntime:trnsctrl.obj
 0001:00021b3d       ?GetRangeOfTrysToCheck@__FrameHandler3@@SA?AU?$pair@Viterator@TryBlockMap@__FrameHandler3@@V123@@std@@AAVTryBlockMap@1@HH@Z 10022b3d f   libvcruntime:trnsctrl.obj
 0001:00021bdf       ?_CallCatchBlock2@@YAPAXPAUEHRegistrationNode@@PBU_s_FuncInfo@@PAXHK@Z 10022bdf f   libvcruntime:trnsctrl.obj
 0001:00021c54       ?_CallSETranslator@@YAHPAUEHExceptionRecord@@PAUEHRegistrationNode@@PAX2PBU_s_FuncInfo@@H1@Z 10022c54 f   libvcruntime:trnsctrl.obj
 0001:00021d65       ?_JumpToContinuation@@YGXPAXPAUEHRegistrationNode@@@Z 10022d65 f   libvcruntime:trnsctrl.obj
 0001:00021da1       ?_UnwindNestedFrames@@YGXPAUEHRegistrationNode@@PAUEHExceptionRecord@@@Z 10022da1 f   libvcruntime:trnsctrl.obj
 0001:00021e08       ?getFuncInfo@TryBlockMap@__FrameHandler3@@QAEPBU_s_FuncInfo@@XZ 10022e08 f i libvcruntime:trnsctrl.obj
 0001:00021e0b       __CatchGuardHandler        10022e0b f   libvcruntime:trnsctrl.obj
 0001:00021e48       __CreateFrameInfo          10022e48 f   libvcruntime:trnsctrl.obj
 0001:00021e75       __FindAndUnlinkFrame       10022e75 f   libvcruntime:trnsctrl.obj
 0001:00021ecb       __TranslatorGuardHandler   10022ecb f   libvcruntime:trnsctrl.obj
 0001:00021f8f       ___CxxFrameHandler         10022f8f f   libvcruntime:trnsctrl.obj
 0001:00021fd2       ___CxxFrameHandler2        10022fd2 f   libvcruntime:trnsctrl.obj
 0001:00022015       ___CxxFrameHandler3        10023015 f   libvcruntime:trnsctrl.obj
 0001:00022058       ___CxxLongjmpUnwind@4      10023058 f   libvcruntime:trnsctrl.obj
 0001:00022939       ??$TypeMatchHelper@V__FrameHandler3@@@@YAHPBU_s_HandlerType@@PBU_s_CatchableType@@PBU_s_ThrowInfo@@@Z 10023939 f i libvcruntime:frame.obj
 0001:000229ea       ??$__InternalCxxFrameHandler@V__FrameHandler3@@@@YA?AW4_EXCEPTION_DISPOSITION@@PAUEHExceptionRecord@@PAUEHRegistrationNode@@PAU_CONTEXT@@PAXPBU_s_FuncInfo@@H1E@Z 100239ea f i libvcruntime:frame.obj
 0001:00022b2c       ??0HandlerMap@__FrameHandler3@@QAE@PBU_s_TryBlockMapEntry@@PAX@Z 10023b2c f i libvcruntime:frame.obj
 0001:00022b48       ??0TryBlockMap@__FrameHandler3@@QAE@PBU_s_FuncInfo@@PAX@Z 10023b48 f i libvcruntime:frame.obj
 0001:00022b61       ??0bad_exception@std@@QAE@ABV01@@Z 10023b61 f i libvcruntime:frame.obj
 0001:00022b82       ??0bad_exception@std@@QAE@XZ 10023b82 f i libvcruntime:frame.obj
 0001:00022ba0       ??0exception@std@@QAE@ABV01@@Z 10023ba0 f i libvcruntime:frame.obj
 0001:00022bd7       ??0exception@std@@QAE@QBDH@Z 10023bd7 f i libvcruntime:frame.obj
 0001:00022bfb       ??0iterator@HandlerMap@__FrameHandler3@@QAE@AAV12@I@Z 10023bfb f i libvcruntime:frame.obj
 0001:00022c14       ??1bad_exception@std@@UAE@XZ 10023c14 f i libvcruntime:frame.obj
 0001:00022c29       ??1exception@std@@UAE@XZ   10023c29 f i libvcruntime:frame.obj
 0001:00022c3e       ??8iterator@HandlerMap@__FrameHandler3@@QBE_NABV012@@Z 10023c3e f i libvcruntime:frame.obj
 0001:00022c55       ??8type_info@@QBE_NABV0@@Z 10023c55 f i libvcruntime:frame.obj
 0001:00022c7b       ??9iterator@HandlerMap@__FrameHandler3@@QBE_NABV012@@Z 10023c7b f i libvcruntime:frame.obj
 0001:00022c92       ??Diterator@HandlerMap@__FrameHandler3@@QAEPBU_s_HandlerType@@XZ 10023c92 f i libvcruntime:frame.obj
 0001:00022ca1       ??Diterator@TryBlockMap@__FrameHandler3@@QAEPBU_s_TryBlockMapEntry@@XZ 10023ca1 f i libvcruntime:frame.obj
 0001:00022cb0       ??Eiterator@HandlerMap@__FrameHandler3@@QAEAAV012@XZ 10023cb0 f i libvcruntime:frame.obj
 0001:00022cb6       ??Eiterator@TryBlockMap@__FrameHandler3@@QAEAAV012@XZ 10023cb6 f i libvcruntime:frame.obj
 0001:00022cbc       ??Miterator@TryBlockMap@__FrameHandler3@@QBE_NABV012@@Z 10023cbc f i libvcruntime:frame.obj
 0001:00022cd3       ??_Gbad_exception@std@@UAEPAXI@Z 10023cd3 f i libvcruntime:frame.obj
 0001:00022cd3       ??_Ebad_exception@std@@UAEPAXI@Z 10023cd3 f i libvcruntime:frame.obj
 0001:00022d0b       ??_Eexception@std@@UAEPAXI@Z 10023d0b f i libvcruntime:frame.obj
 0001:00022d0b       ??_Gexception@std@@UAEPAXI@Z 10023d0b f i libvcruntime:frame.obj
 0001:00022d43       ?BuildCatchObject@__FrameHandler3@@SAXPAUEHExceptionRecord@@PAXPBU_s_HandlerType@@PBU_s_CatchableType@@@Z 10023d43 f   libvcruntime:frame.obj
 0001:00022d48       ?BuildCatchObjectHelper@__FrameHandler3@@SAHPAUEHExceptionRecord@@PAXPBU_s_HandlerType@@PBU_s_CatchableType@@@Z 10023d48 f   libvcruntime:frame.obj
 0001:0002302c       ?FrameUnwindToEmptyState@__FrameHandler3@@SAXPAUEHRegistrationNode@@PAXPBU_s_FuncInfo@@@Z 1002402c f   libvcruntime:frame.obj
 0001:0002304a       ?FrameUnwindToState@__FrameHandler3@@SAXPAUEHRegistrationNode@@PAXPBU_s_FuncInfo@@H@Z 1002404a f   libvcruntime:frame.obj
 0001:0002316c       ?GetMaxState@__FrameHandler3@@SAHPAXPBU_s_FuncInfo@@@Z 1002416c f i libvcruntime:frame.obj
 0001:00023280       ?TypeMatch@__FrameHandler3@@SAHPBU_s_HandlerType@@PBU_s_CatchableType@@PBU_s_ThrowInfo@@@Z 10024280 f   libvcruntime:frame.obj
 0001:0002328b       ?_CallMemberFunction1@@YGXQAX00@Z 1002428b f i libvcruntime:frame.obj
 0001:0002329f       ?_CallMemberFunction2@@YGXQAX00H@Z 1002429f f i libvcruntime:frame.obj
 0001:000232b6       ?_ValidateExecute@@YA_NP6GHXZ@Z 100242b6 f i libvcruntime:frame.obj
 0001:000232c5       ?_ValidateRead@@YA_NPBXI@Z 100242c5 f i libvcruntime:frame.obj
 0001:000232d4       ?_ValidateWrite@@YA_NPAXI@Z 100242d4 f i libvcruntime:frame.obj
 0001:000232e3       ?begin@HandlerMap@__FrameHandler3@@QAE?AViterator@12@XZ 100242e3 f i libvcruntime:frame.obj
 0001:000232f7       ?end@HandlerMap@__FrameHandler3@@QAE?AViterator@12@XZ 100242f7 f i libvcruntime:frame.obj
 0001:0002330c       ?getESTypes@__FrameHandler3@@SAPBU_s_ESTypeList@@PBU_s_FuncInfo@@@Z 1002430c f i libvcruntime:frame.obj
 0001:00023319       ?getLastEntry@HandlerMap@__FrameHandler3@@QAEPBU_s_HandlerType@@XZ 10024319 f i libvcruntime:frame.obj
 0001:0002332a       ?getMagicNum@__FrameHandler3@@SAIPBU_s_FuncInfo@@@Z 1002432a f i libvcruntime:frame.obj
 0001:0002333c       ?getNumTryBlocks@TryBlockMap@__FrameHandler3@@QAEIXZ 1002433c f i libvcruntime:frame.obj
 0001:00023342       ?isEHs@__FrameHandler3@@SA_NPBU_s_FuncInfo@@@Z 10024342 f i libvcruntime:frame.obj
 0001:00023352       ?isNoExcept@__FrameHandler3@@SA_NPBU_s_FuncInfo@@@Z 10024352 f i libvcruntime:frame.obj
 0001:00023366       ?what@exception@std@@UBEPBDXZ 10024366 f i libvcruntime:frame.obj
 0001:00023376       ___BuildCatchObject        10024376 f   libvcruntime:frame.obj
 0001:0002337b       ___BuildCatchObjectHelper  1002437b f   libvcruntime:frame.obj
 0001:00023386       ___TypeMatch               10024386 f   libvcruntime:frame.obj
 0001:00023391       ___vcrt_EncodePointer      10024391 f i libvcruntime:frame.obj
 0001:000233b0       __CallSettingFrame@12      100243b0 f   libvcruntime:lowhelpr.obj
 0001:000233d7       __NLG_Return               100243d7     libvcruntime:lowhelpr.obj
 0001:00023428       __get_unexpected           10024428 f   libvcruntime:unexpected.obj
 0001:0002343e       _set_unexpected            1002443e f   libvcruntime:unexpected.obj
 0001:00023463       _unexpected                10024463 f   libvcruntime:unexpected.obj
 0001:00023487       ?GetCurrentState@__FrameHandler3@@SAHPAUEHRegistrationNode@@PAXPBU_s_FuncInfo@@@Z 10024487 f   libvcruntime:ehstate.obj
 0001:000234ab       ?SetState@__FrameHandler3@@SAXPAUEHRegistrationNode@@PBU_s_FuncInfo@@H@Z 100244ab f   libvcruntime:ehstate.obj
 0001:000234bc       ___DestructExceptionObject 100244bc f   libvcruntime:ehhelpers.obj
 0001:00023584       ?_CallMemberFunction0@@YGXQAX0@Z 10024584 f i libvcruntime:ehhelpers.obj
 0001:00023594       ?raw_name@type_info@@QBEPBDXZ 10024594 f i libvcruntime:ehhelpers.obj
 0001:00023598       __IsExceptionObjectToBeDestroyed 10024598 f   libvcruntime:ehhelpers.obj
 0001:000235c7       __SetWinRTOutOfMemoryExceptionCallback 100245c7 f   libvcruntime:ehhelpers.obj
 0001:000235d7       ___AdjustPointer           100245d7 f   libvcruntime:ehhelpers.obj
 0001:00023605       ___FrameUnwindFilter       10024605 f   libvcruntime:ehhelpers.obj
 0001:0002365b       ___GetPlatformExceptionInfo 1002465b f   libvcruntime:ehhelpers.obj
 0001:000236ba       ___current_exception       100246ba f   libvcruntime:ehhelpers.obj
 0001:000236c5       ___current_exception_context 100246c5 f   libvcruntime:ehhelpers.obj
 0001:000236d0       ___processing_throw        100246d0 f   libvcruntime:ehhelpers.obj
 0001:000236db       ___std_terminate           100246db f   libvcruntime:ehhelpers.obj
 0001:000236e0       __is_exception_typeof      100246e0 f   libvcruntime:ehhelpers.obj
 0001:000237ad       ??$?RD@__crt_public_free_policy@@QBEXQBD@Z 100247ad f i libvcruntime:std_exception.obj
 0001:000237c1       ??0?$__crt_unique_heap_ptr@DU__crt_public_free_policy@@@@QAE@QAD@Z 100247c1 f i libvcruntime:std_exception.obj
 0001:000237d2       ??1?$__crt_unique_heap_ptr@DU__crt_public_free_policy@@@@QAE@XZ 100247d2 f i libvcruntime:std_exception.obj
 0001:000237e6       ??B?$__crt_unique_heap_ptr@DU__crt_public_free_policy@@@@QBE_NXZ 100247e6 f i libvcruntime:std_exception.obj
 0001:000237ed       ?detach@?$__crt_unique_heap_ptr@DU__crt_public_free_policy@@@@QAEPADXZ 100247ed f i libvcruntime:std_exception.obj
 0001:000237f3       ?get@?$__crt_unique_heap_ptr@DU__crt_public_free_policy@@@@QBEPADXZ 100247f3 f i libvcruntime:std_exception.obj
 0001:000237f6       ?is_valid@?$__crt_unique_heap_ptr@DU__crt_public_free_policy@@@@QBE_NXZ 100247f6 f i libvcruntime:std_exception.obj
 0001:000237fd       ?release@?$__crt_unique_heap_ptr@DU__crt_public_free_policy@@@@QAEXXZ 100247fd f i libvcruntime:std_exception.obj
 0001:00023811       ___std_exception_copy      10024811 f   libvcruntime:std_exception.obj
 0001:0002388c       ___std_exception_destroy   1002488c f   libvcruntime:std_exception.obj
 0001:000238b2       __CxxThrowException@8      100248b2 f   libvcruntime:throw.obj
 0001:0002393a       _malloc                    1002493a f   libucrt:malloc.obj
 0001:00023947       _calloc                    10024947 f   libucrt:calloc.obj
 0001:00023954       _free                      10024954 f   libucrt:free.obj
 0001:00023978       ??$__crt_interlocked_read@J@@YAJPDJ@Z 10024978 f i libucrt:assert.obj
 0001:00023987       ??$__vcrt_va_start_verify_argument_type@QBD@@YAXXZ 10024987 f i libucrt:assert.obj
 0001:00023988       ??$__vcrt_va_start_verify_argument_type@QB_W@@YAXXZ 10024988 f i libucrt:assert.obj
 0001:0002492a       ??$ftprintf@PAU_iobuf@@PBDABQBDABQBDABI@?$__crt_char_traits@D@@SAH$$QAPAU_iobuf@@$$QAPBDABQBD2ABI@Z 1002592a f i libucrt:assert.obj
 0001:0002495c       ??$ftprintf@PAU_iobuf@@PB_WABQB_WABQB_WABI@?$__crt_char_traits@_W@@SAH$$QAPAU_iobuf@@$$QAPB_WABQB_W2ABI@Z 1002595c f i libucrt:assert.obj
 0001:0002498e       ??$get_module_file_name@AAPAUHINSTANCE__@@AAY0BAF@DK@?$__crt_char_traits@D@@SAKAAPAUHINSTANCE__@@AAY0BAF@D$$QAK@Z 1002598e f i libucrt:assert.obj
 0001:000249b1       ??$get_module_file_name@AAPAUHINSTANCE__@@AAY0BAF@_WK@?$__crt_char_traits@_W@@SAKAAPAUHINSTANCE__@@AAY0BAF@_W$$QAK@Z 100259b1 f i libucrt:assert.obj
 0001:000249d1       ??$itot_s@ABIPADIH@?$__crt_char_traits@D@@SAHABI$$QAPAD$$QAI$$QAH@Z 100259d1 f i libucrt:assert.obj
 0001:000249fc       ??$itot_s@ABIPA_WIH@?$__crt_char_traits@_W@@SAHABI$$QAPA_W$$QAI$$QAH@Z 100259fc f i libucrt:assert.obj
 0001:00024a27       ??$show_message_box@AAY0CEA@DPBDJ@?$__crt_char_traits@D@@SAHAAY0CEA@D$$QAPBD$$QAJ@Z 10025a27 f i libucrt:assert.obj
 0001:00024a4a       ??$show_message_box@AAY0CEA@_WPB_WJ@?$__crt_char_traits@_W@@SAHAAY0CEA@_W$$QAPB_W$$QAJ@Z 10025a4a f i libucrt:assert.obj
 0001:00024a6d       ??$tcscat_s@ABQADABIAAPAD@?$__crt_char_traits@D@@SAHABQADABIAAPAD@Z 10025a6d f i libucrt:assert.obj
 0001:00024a92       ??$tcscat_s@ABQADABIABQBD@?$__crt_char_traits@D@@SAHABQADABIABQBD@Z 10025a92 f i libucrt:assert.obj
 0001:00024ab7       ??$tcscat_s@ABQADABIPBD@?$__crt_char_traits@D@@SAHABQADABI$$QAPBD@Z 10025ab7 f i libucrt:assert.obj
 0001:00024adc       ??$tcscat_s@ABQA_WABIAAPA_W@?$__crt_char_traits@_W@@SAHABQA_WABIAAPA_W@Z 10025adc f i libucrt:assert.obj
 0001:00024b01       ??$tcscat_s@ABQA_WABIABQB_W@?$__crt_char_traits@_W@@SAHABQA_WABIABQB_W@Z 10025b01 f i libucrt:assert.obj
 0001:00024b26       ??$tcscat_s@ABQA_WABIPB_W@?$__crt_char_traits@_W@@SAHABQA_WABI$$QAPB_W@Z 10025b26 f i libucrt:assert.obj
 0001:00024b4b       ??$tcscpy_s@AAY0BAF@DIPBD@?$__crt_char_traits@D@@SAHAAY0BAF@D$$QAI$$QAPBD@Z 10025b4b f i libucrt:assert.obj
 0001:00024b6e       ??$tcscpy_s@AAY0BAF@_WIPB_W@?$__crt_char_traits@_W@@SAHAAY0BAF@_W$$QAI$$QAPB_W@Z 10025b6e f i libucrt:assert.obj
 0001:00024b91       ??$tcscpy_s@ABQADABIPBD@?$__crt_char_traits@D@@SAHABQADABI$$QAPBD@Z 10025b91 f i libucrt:assert.obj
 0001:00024bb6       ??$tcscpy_s@ABQA_WABIPB_W@?$__crt_char_traits@_W@@SAHABQA_WABI$$QAPB_W@Z 10025bb6 f i libucrt:assert.obj
 0001:00024bdb       ??$tcslen@AAY0BAF@D@?$__crt_char_traits@D@@SAIAAY0BAF@D@Z 10025bdb f i libucrt:assert.obj
 0001:00024bf6       ??$tcslen@AAY0BAF@_W@?$__crt_char_traits@_W@@SAIAAY0BAF@_W@Z 10025bf6 f i libucrt:assert.obj
 0001:00024c19       ??$tcslen@ABQAD@?$__crt_char_traits@D@@SAIABQAD@Z 10025c19 f i libucrt:assert.obj
 0001:00024c37       ??$tcslen@ABQA_W@?$__crt_char_traits@_W@@SAIABQA_W@Z 10025c37 f i libucrt:assert.obj
 0001:00024c5c       ??$tcslen@ABQBD@?$__crt_char_traits@D@@SAIABQBD@Z 10025c5c f i libucrt:assert.obj
 0001:00024c7a       ??$tcslen@ABQB_W@?$__crt_char_traits@_W@@SAIABQB_W@Z 10025c7a f i libucrt:assert.obj
 0001:00024c9f       ??$tcsncat_s@ABQADABIAAPBDI@?$__crt_char_traits@D@@SAHABQADABIAAPBD$$QAI@Z 10025c9f f i libucrt:assert.obj
 0001:00024cca       ??$tcsncat_s@ABQADABIABQBDABI@?$__crt_char_traits@D@@SAHABQADABIABQBD1@Z 10025cca f i libucrt:assert.obj
 0001:00024cf5       ??$tcsncat_s@ABQADABIPBDI@?$__crt_char_traits@D@@SAHABQADABI$$QAPBD$$QAI@Z 10025cf5 f i libucrt:assert.obj
 0001:00024d20       ??$tcsncat_s@ABQA_WABIAAPB_WI@?$__crt_char_traits@_W@@SAHABQA_WABIAAPB_W$$QAI@Z 10025d20 f i libucrt:assert.obj
 0001:00024d4b       ??$tcsncat_s@ABQA_WABIABQB_WABI@?$__crt_char_traits@_W@@SAHABQA_WABIABQB_W1@Z 10025d4b f i libucrt:assert.obj
 0001:00024d76       ??$tcsncat_s@ABQA_WABIPB_WI@?$__crt_char_traits@_W@@SAHABQA_WABI$$QAPB_W$$QAI@Z 10025d76 f i libucrt:assert.obj
 0001:00024da1       ??0__crt_stdio_stream@@QAE@QAU_iobuf@@@Z 10025da1 f i libucrt:assert.obj
 0001:00024ee7       ?get_flags@__crt_stdio_stream@@QBEJXZ 10025ee7 f i libucrt:assert.obj
 0001:00024f35       ?has_any_buffer@__crt_stdio_stream@@QBE_NXZ 10025f35 f i libucrt:assert.obj
 0001:00024f46       ?has_any_of@__crt_stdio_stream@@QBE_NJ@Z 10025f46 f i libucrt:assert.obj
 0001:00024f5f       __assert                   10025f5f f   libucrt:assert.obj
 0001:00024fb9       __invoke_watson_if_error   10025fb9 f i libucrt:assert.obj
 0001:00024fe3       __vfwprintf_l              10025fe3 f i libucrt:assert.obj
 0001:00025011       __vswprintf_c_l            10026011 f i libucrt:assert.obj
 0001:0002504b       __wassert                  1002604b f   libucrt:assert.obj
 0001:000250a5       _fwprintf                  100260a5 f i libucrt:assert.obj
 0001:00025167       _swprintf                  10026167 f i libucrt:assert.obj
 0001:0002518c       _realloc                   1002618c f   libucrt:realloc.obj
 0001:00025199       ??$?B$$A6GXPAXK0@Z@__crt_fast_encoded_nullptr_t@@QBEP6GXPAXK0@ZXZ 10026199 f i libucrt:exit.obj
 0001:0002523c       ??$__crt_fast_decode_pointer@P6GXPAXK0@Z@@YAP6GXPAXK0@ZQ6GX0K0@Z@Z 1002623c f i libucrt:exit.obj
 0001:00025257       ??$__crt_fast_encode_pointer@P6GXPAXK0@Z@@YAP6GXPAXK0@ZQ6GX0K0@Z@Z 10026257 f i libucrt:exit.obj
 0001:0002527d       ??$__crt_get_proc_address@P6GXI@Z@@YAP6GXI@ZQAUHINSTANCE__@@QBD@Z 1002627d f i libucrt:exit.obj
 0001:000252e3       ??0?$__crt_unique_handle_t@U__crt_hmodule_traits@@@@QAE@QAUHINSTANCE__@@@Z 100262e3 f i libucrt:exit.obj
 0001:000252f7       ??1?$__crt_unique_handle_t@U__crt_hmodule_traits@@@@QAE@XZ 100262f7 f i libucrt:exit.obj
 0001:0002543c       ?__acrt_select_exit_lock@@YA?AW4__acrt_lock_id@@XZ 1002643c f i libucrt:exit.obj
 0001:00025457       ?close@?$__crt_unique_handle_t@U__crt_hmodule_traits@@@@QAEXXZ 10026457 f i libucrt:exit.obj
 0001:00025473       ?close@__crt_hmodule_traits@@SA_NPAUHINSTANCE__@@@Z 10026473 f i libucrt:exit.obj
 0001:0002555e       ?get@?$__crt_unique_handle_t@U__crt_hmodule_traits@@@@QBEPAUHINSTANCE__@@XZ 1002655e f i libucrt:exit.obj
 0001:00025561       ?get_address_of@?$__crt_unique_handle_t@U__crt_hmodule_traits@@@@QAEPAPAUHINSTANCE__@@XZ 10026561 f i libucrt:exit.obj
 0001:00025564       ?get_invalid_value@__crt_hmodule_traits@@SAPAUHINSTANCE__@@XZ 10026564 f i libucrt:exit.obj
 0001:00025665       __Exit                     10026665 f   libucrt:exit.obj
 0001:00025680       ___acrt_initialize_thread_local_exit_callback 10026680 f   libucrt:exit.obj
 0001:00025692       __c_exit                   10026692 f   libucrt:exit.obj
 0001:000256a4       __cexit                    100266a4 f   libucrt:exit.obj
 0001:000256b6       __exit                     100266b6 f   libucrt:exit.obj
 0001:000256d1       __is_c_termination_complete 100266d1 f   libucrt:exit.obj
 0001:000256d7       __register_thread_local_exe_atexit_callback 100266d7 f   libucrt:exit.obj
 0001:0002571d       _exit                      1002671d f   libucrt:exit.obj
 0001:00025738       _quick_exit                10026738 f   libucrt:exit.obj
 0001:00025760       _strncat                   10026760 f   libucrt:strncat.obj
 0001:000258f0       _strncpy                   100268f0 f   libucrt:strncpy.obj
 0001:00025a5d       ??$?RPAU__crt_stdio_stream_data@@@__crt_internal_free_policy@@QBEXQBQAU__crt_stdio_stream_data@@@Z 10026a5d f i libucrt:_file.obj
 0001:00025a73       ??0?$__crt_unique_heap_ptr@PAU__crt_stdio_stream_data@@U__crt_internal_free_policy@@@@QAE@QAPAU__crt_stdio_stream_data@@@Z 10026a73 f i libucrt:_file.obj
 0001:00025a87       ??1?$__crt_unique_heap_ptr@PAU__crt_stdio_stream_data@@U__crt_internal_free_policy@@@@QAE@XZ 10026a87 f i libucrt:_file.obj
 0001:00025a9d       ??C__crt_stdio_stream@@QBEPAU__crt_stdio_stream_data@@XZ 10026a9d f i libucrt:_file.obj
 0001:00025aa0       ?detach@?$__crt_unique_heap_ptr@PAU__crt_stdio_stream_data@@U__crt_internal_free_policy@@@@QAEPAPAU__crt_stdio_stream_data@@XZ 10026aa0 f i libucrt:_file.obj
 0001:00025aa6       ?release@?$__crt_unique_heap_ptr@PAU__crt_stdio_stream_data@@U__crt_internal_free_policy@@@@QAEXXZ 10026aa6 f i libucrt:_file.obj
 0001:00025abc       ___acrt_initialize_stdio   10026abc f   libucrt:_file.obj
 0001:00025bb6       ___acrt_iob_func           10026bb6 f   libucrt:_file.obj
 0001:00025bca       ___acrt_uninitialize_stdio 10026bca f   libucrt:_file.obj
 0001:00025c29       __get_stream_buffer_pointers 10026c29 f   libucrt:_file.obj
 0001:00025c80       __lock_file                10026c80 f   libucrt:_file.obj
 0001:00025c99       __unlock_file              10026c99 f   libucrt:_file.obj
 0001:00025cb2       ?is_in_use@__crt_stdio_stream@@QBE_NXZ 10026cb2 f i libucrt:fclose.obj
 0001:00025cbf       ?is_string_backed@__crt_stdio_stream@@QBE_NXZ 10026cbf f i libucrt:fclose.obj
 0001:00025ccc       ?public_stream@__crt_stdio_stream@@QBEPAU_iobuf@@XZ 10026ccc f i libucrt:fclose.obj
 0001:00025ccf       ?valid@__crt_stdio_stream@@QBE_NXZ 10026ccf f i libucrt:fclose.obj
 0001:00025cd6       __fclose_nolock            10026cd6 f   libucrt:fclose.obj
 0001:00025d69       _fclose                    10026d69 f   libucrt:fclose.obj
 0001:0002605f       ??$open_file@ABQBDABQBDABHPAU_iobuf@@@?$__crt_char_traits@D@@SAPAU_iobuf@@ABQBD0ABH$$QAPAU1@@Z 1002705f f i libucrt:fopen.obj
 0001:0002608a       ??$open_file@ABQB_WABQB_WABHPAU_iobuf@@@?$__crt_char_traits@_W@@SAPAU_iobuf@@ABQB_W0ABH$$QAPAU1@@Z 1002708a f i libucrt:fopen.obj
 0001:000260b5       ?unlock@__crt_stdio_stream@@QBEXXZ 100270b5 f i libucrt:fopen.obj
 0001:000260c0       __fsopen                   100270c0 f   libucrt:fopen.obj
 0001:000260cd       __wfopen                   100270cd f   libucrt:fopen.obj
 0001:000260e9       __wfopen_s                 100270e9 f   libucrt:fopen.obj
 0001:00026141       __wfsopen                  10027141 f   libucrt:fopen.obj
 0001:0002614e       _fopen                     1002714e f   libucrt:fopen.obj
 0001:0002616a       _fopen_s                   1002716a f   libucrt:fopen.obj
 0001:000261c2       ?__acrt_stdio_reset_buffer@@YAXV__crt_stdio_stream@@@Z 100271c2 f i libucrt:fread.obj
 0001:000261dd       ?set_flags@__crt_stdio_stream@@QBE_NJ@Z 100271dd f i libucrt:fread.obj
 0001:0002620a       __fread_nolock             1002720a f   libucrt:fread.obj
 0001:0002622e       __fread_nolock_s           1002722e f   libucrt:fread.obj
 0001:0002647d       _fread                     1002747d f   libucrt:fread.obj
 0001:000264a1       _fread_s                   100274a1 f   libucrt:fread.obj
 0001:000266e6       ??0__acrt_stdio_temporary_buffering_guard@@QAE@QAU_iobuf@@@Z 100276e6 f i libucrt:fwrite.obj
 0001:0002670b       ??1__acrt_stdio_temporary_buffering_guard@@QAE@XZ 1002770b f i libucrt:fwrite.obj
 0001:00026789       ?has_big_buffer@__crt_stdio_stream@@QBE_NXZ 10027789 f i libucrt:fwrite.obj
 0001:00026796       __fwrite_nolock            10027796 f   libucrt:fwrite.obj
 0001:0002696f       _fwrite                    1002796f f   libucrt:fwrite.obj
 0001:00026a92       ??$__acrt_mbs_to_wcs_cp@U__crt_win32_buffer_internal_dynamic_resizing@@@@YAHQBDAAV?$__crt_win32_buffer@_WU__crt_win32_buffer_internal_dynamic_resizing@@@@I@Z 10027a92 f i libucrt:unlink.obj
 0001:00026ab8       ??0?$__crt_win32_buffer@_WU__crt_win32_buffer_internal_dynamic_resizing@@@@QAE@XZ 10027ab8 f i libucrt:unlink.obj
 0001:00026ad3       ??0_LocaleUpdate@@QAE@QAU__crt_locale_pointers@@@Z 10027ad3 f i libucrt:unlink.obj
 0001:00026b76       ??1?$__crt_win32_buffer@_WU__crt_win32_buffer_internal_dynamic_resizing@@@@QAE@XZ 10027b76 f i libucrt:unlink.obj
 0001:00026b7b       ??1_LocaleUpdate@@QAE@XZ   10027b7b f i libucrt:unlink.obj
 0001:00026bb8       ?GetLocaleT@_LocaleUpdate@@QAEPAU__crt_locale_pointers@@XZ 10027bb8 f i libucrt:unlink.obj
 0001:00026bbc       ?__acrt_get_utf8_acp_compatibility_codepage@@YAIXZ 10027bbc f i libucrt:unlink.obj
 0001:00026c0d       ?_deallocate@?$__crt_win32_buffer@_WU__crt_win32_buffer_internal_dynamic_resizing@@@@AAEXXZ 10027c0d f i libucrt:unlink.obj
 0001:00026c2d       ?allocate@?$__crt_win32_buffer@_WU__crt_win32_buffer_internal_dynamic_resizing@@@@QAEHI@Z 10027c2d f i libucrt:unlink.obj
 0001:00026c7b       ?allocate@__crt_win32_buffer_internal_dynamic_resizing@@SAHQAPAXIABV__crt_win32_buffer_empty_debug_info@@@Z 10027c7b f i libucrt:unlink.obj
 0001:00026ca1       ?capacity@?$__crt_win32_buffer@_WU__crt_win32_buffer_internal_dynamic_resizing@@@@QBEIXZ 10027ca1 f i libucrt:unlink.obj
 0001:00026ca5       ?data@?$__crt_win32_buffer@_WU__crt_win32_buffer_internal_dynamic_resizing@@@@QAEPA_WXZ 10027ca5 f i libucrt:unlink.obj
 0001:00026ca9       ?deallocate@__crt_win32_buffer_internal_dynamic_resizing@@SAXQAXABV__crt_win32_buffer_empty_debug_info@@@Z 10027ca9 f i libucrt:unlink.obj
 0001:00026cbd       ?debug_info@?$__crt_win32_buffer@_WU__crt_win32_buffer_internal_dynamic_resizing@@@@QBEABV__crt_win32_buffer_empty_debug_info@@XZ 10027cbd f i libucrt:unlink.obj
 0001:00026cc0       ?size@?$__crt_win32_buffer@_WU__crt_win32_buffer_internal_dynamic_resizing@@@@QAEXI@Z 10027cc0 f i libucrt:unlink.obj
 0001:00026cd2       ___acrt_locale_changed     10027cd2 f i libucrt:unlink.obj
 0001:00026cdf       __unlink                   10027cdf f   libucrt:unlink.obj
 0001:00026cec       _remove                    10027cec f   libucrt:unlink.obj
 0001:00026d73       ?has_all_of@__crt_stdio_stream@@QBE_NJ@Z 10027d73 f i libucrt:rewind.obj
 0001:00026d8f       ?unset_flags@__crt_stdio_stream@@QBE_NJ@Z 10027d8f f i libucrt:rewind.obj
 0001:00026dc2       _rewind                    10027dc2 f   libucrt:rewind.obj
 0001:00026eb4       ??$?0ABV?$stream_output_adapter@D@__crt_stdio_output@@AB_KABQBDABQAU__crt_locale_pointers@@ABQAD@?$format_validation_base@DV?$stream_output_adapter@D@__crt_stdio_output@@@__crt_stdio_output@@IAE@ABV?$stream_output_adapter@D@1@AB_KABQBDABQAU__crt_locale_pointers@@ABQAD@Z 10027eb4 f i libucrt:output.obj
 0001:00026edf       ??$?0ABV?$stream_output_adapter@D@__crt_stdio_output@@AB_KABQBDABQAU__crt_locale_pointers@@ABQAD@?$positional_parameter_base@DV?$stream_output_adapter@D@__crt_stdio_output@@@__crt_stdio_output@@IAE@ABV?$stream_output_adapter@D@1@AB_KABQBDABQAU__crt_locale_pointers@@ABQAD@Z 10027edf f i libucrt:output.obj
 0001:00026f39       ??$?0ABV?$stream_output_adapter@D@__crt_stdio_output@@AB_KABQBDABQAU__crt_locale_pointers@@ABQAD@?$standard_base@DV?$stream_output_adapter@D@__crt_stdio_output@@@__crt_stdio_output@@IAE@ABV?$stream_output_adapter@D@1@AB_KABQBDABQAU__crt_locale_pointers@@ABQAD@Z 10027f39 f i libucrt:output.obj
 0001:00026f7b       ??$?0ABV?$stream_output_adapter@_W@__crt_stdio_output@@AB_KABQB_WABQAU__crt_locale_pointers@@ABQAD@?$format_validation_base@_WV?$stream_output_adapter@_W@__crt_stdio_output@@@__crt_stdio_output@@IAE@ABV?$stream_output_adapter@_W@1@AB_KABQB_WABQAU__crt_locale_pointers@@ABQAD@Z 10027f7b f i libucrt:output.obj
 0001:00026fa6       ??$?0ABV?$stream_output_adapter@_W@__crt_stdio_output@@AB_KABQB_WABQAU__crt_locale_pointers@@ABQAD@?$positional_parameter_base@_WV?$stream_output_adapter@_W@__crt_stdio_output@@@__crt_stdio_output@@IAE@ABV?$stream_output_adapter@_W@1@AB_KABQB_WABQAU__crt_locale_pointers@@ABQAD@Z 10027fa6 f i libucrt:output.obj
 0001:00027000       ??$?0ABV?$stream_output_adapter@_W@__crt_stdio_output@@AB_KABQB_WABQAU__crt_locale_pointers@@ABQAD@?$standard_base@_WV?$stream_output_adapter@_W@__crt_stdio_output@@@__crt_stdio_output@@IAE@ABV?$stream_output_adapter@_W@1@AB_KABQB_WABQAU__crt_locale_pointers@@ABQAD@Z 10028000 f i libucrt:output.obj
 0001:00027042       ??$?0ABV?$string_output_adapter@D@__crt_stdio_output@@AB_KABQBDABQAU__crt_locale_pointers@@ABQAD@?$format_validation_base@DV?$string_output_adapter@D@__crt_stdio_output@@@__crt_stdio_output@@IAE@ABV?$string_output_adapter@D@1@AB_KABQBDABQAU__crt_locale_pointers@@ABQAD@Z 10028042 f i libucrt:output.obj
 0001:0002706d       ??$?0ABV?$string_output_adapter@D@__crt_stdio_output@@AB_KABQBDABQAU__crt_locale_pointers@@ABQAD@?$positional_parameter_base@DV?$string_output_adapter@D@__crt_stdio_output@@@__crt_stdio_output@@IAE@ABV?$string_output_adapter@D@1@AB_KABQBDABQAU__crt_locale_pointers@@ABQAD@Z 1002806d f i libucrt:output.obj
 0001:000270c7       ??$?0ABV?$string_output_adapter@D@__crt_stdio_output@@AB_KABQBDABQAU__crt_locale_pointers@@ABQAD@?$standard_base@DV?$string_output_adapter@D@__crt_stdio_output@@@__crt_stdio_output@@IAE@ABV?$string_output_adapter@D@1@AB_KABQBDABQAU__crt_locale_pointers@@ABQAD@Z 100280c7 f i libucrt:output.obj
 0001:00027109       ??$?0ABV?$string_output_adapter@_W@__crt_stdio_output@@AB_KABQB_WABQAU__crt_locale_pointers@@ABQAD@?$format_validation_base@_WV?$string_output_adapter@_W@__crt_stdio_output@@@__crt_stdio_output@@IAE@ABV?$string_output_adapter@_W@1@AB_KABQB_WABQAU__crt_locale_pointers@@ABQAD@Z 10028109 f i libucrt:output.obj
 0001:00027134       ??$?0ABV?$string_output_adapter@_W@__crt_stdio_output@@AB_KABQB_WABQAU__crt_locale_pointers@@ABQAD@?$positional_parameter_base@_WV?$string_output_adapter@_W@__crt_stdio_output@@@__crt_stdio_output@@IAE@ABV?$string_output_adapter@_W@1@AB_KABQB_WABQAU__crt_locale_pointers@@ABQAD@Z 10028134 f i libucrt:output.obj
 0001:0002718e       ??$?0ABV?$string_output_adapter@_W@__crt_stdio_output@@AB_KABQB_WABQAU__crt_locale_pointers@@ABQAD@?$standard_base@_WV?$string_output_adapter@_W@__crt_stdio_output@@@__crt_stdio_output@@IAE@ABV?$string_output_adapter@_W@1@AB_KABQB_WABQAU__crt_locale_pointers@@ABQAD@Z 1002818e f i libucrt:output.obj
 0001:000287b4       ??$count@D@formatting_buffer@__crt_stdio_output@@QBEIXZ 100297b4 f i libucrt:output.obj
 0001:000287d2       ??$count@_W@formatting_buffer@__crt_stdio_output@@QBEIXZ 100297d2 f i libucrt:output.obj
 0001:000287f1       ??$data@D@formatting_buffer@__crt_stdio_output@@QAEPADXZ 100297f1 f i libucrt:output.obj
 0001:00028801       ??$data@_W@formatting_buffer@__crt_stdio_output@@QAEPA_WXZ 10029801 f i libucrt:output.obj
 0001:00028811       ??$ensure_buffer_is_big_enough@D@formatting_buffer@__crt_stdio_output@@QAE_NI@Z 10029811 f i libucrt:output.obj
 0001:000288af       ??$ensure_buffer_is_big_enough@_W@formatting_buffer@__crt_stdio_output@@QAE_NI@Z 100298af f i libucrt:output.obj
 0001:0002894f       ??$extract_argument_from_va_list@C_J@?$positional_parameter_base@DV?$stream_output_adapter@D@__crt_stdio_output@@@__crt_stdio_output@@IAE_NAA_J@Z 1002994f f i libucrt:output.obj
 0001:000289e6       ??$extract_argument_from_va_list@C_J@?$positional_parameter_base@DV?$string_output_adapter@D@__crt_stdio_output@@@__crt_stdio_output@@IAE_NAA_J@Z 100299e6 f i libucrt:output.obj
 0001:00028a7d       ??$extract_argument_from_va_list@C_J@?$positional_parameter_base@_WV?$stream_output_adapter@_W@__crt_stdio_output@@@__crt_stdio_output@@IAE_NAA_J@Z 10029a7d f i libucrt:output.obj
 0001:00028b14       ??$extract_argument_from_va_list@C_J@?$positional_parameter_base@_WV?$string_output_adapter@_W@__crt_stdio_output@@@__crt_stdio_output@@IAE_NAA_J@Z 10029b14 f i libucrt:output.obj
 0001:00028bab       ??$extract_argument_from_va_list@C_J@?$standard_base@DV?$stream_output_adapter@D@__crt_stdio_output@@@__crt_stdio_output@@IAE_NAA_J@Z 10029bab f i libucrt:output.obj
 0001:00028bd1       ??$extract_argument_from_va_list@C_J@?$standard_base@DV?$string_output_adapter@D@__crt_stdio_output@@@__crt_stdio_output@@IAE_NAA_J@Z 10029bd1 f i libucrt:output.obj
 0001:00028bf7       ??$extract_argument_from_va_list@C_J@?$standard_base@_WV?$stream_output_adapter@_W@__crt_stdio_output@@@__crt_stdio_output@@IAE_NAA_J@Z 10029bf7 f i libucrt:output.obj
 0001:00028c1d       ??$extract_argument_from_va_list@C_J@?$standard_base@_WV?$string_output_adapter@_W@__crt_stdio_output@@@__crt_stdio_output@@IAE_NAA_J@Z 10029c1d f i libucrt:output.obj
 0001:00028c43       ??$extract_argument_from_va_list@E_J@?$positional_parameter_base@DV?$stream_output_adapter@D@__crt_stdio_output@@@__crt_stdio_output@@IAE_NAA_J@Z 10029c43 f i libucrt:output.obj
 0001:00028cda       ??$extract_argument_from_va_list@E_J@?$positional_parameter_base@DV?$string_output_adapter@D@__crt_stdio_output@@@__crt_stdio_output@@IAE_NAA_J@Z 10029cda f i libucrt:output.obj
 0001:00028d71       ??$extract_argument_from_va_list@E_J@?$positional_parameter_base@_WV?$stream_output_adapter@_W@__crt_stdio_output@@@__crt_stdio_output@@IAE_NAA_J@Z 10029d71 f i libucrt:output.obj
 0001:00028e08       ??$extract_argument_from_va_list@E_J@?$positional_parameter_base@_WV?$string_output_adapter@_W@__crt_stdio_output@@@__crt_stdio_output@@IAE_NAA_J@Z 10029e08 f i libucrt:output.obj
 0001:00028e9f       ??$extract_argument_from_va_list@E_J@?$standard_base@DV?$stream_output_adapter@D@__crt_stdio_output@@@__crt_stdio_output@@IAE_NAA_J@Z 10029e9f f i libucrt:output.obj
 0001:00028ec5       ??$extract_argument_from_va_list@E_J@?$standard_base@DV?$string_output_adapter@D@__crt_stdio_output@@@__crt_stdio_output@@IAE_NAA_J@Z 10029ec5 f i libucrt:output.obj
 0001:00028eeb       ??$extract_argument_from_va_list@E_J@?$standard_base@_WV?$stream_output_adapter@_W@__crt_stdio_output@@@__crt_stdio_output@@IAE_NAA_J@Z 10029eeb f i libucrt:output.obj
 0001:00028f11       ??$extract_argument_from_va_list@E_J@?$standard_base@_WV?$string_output_adapter@_W@__crt_stdio_output@@@__crt_stdio_output@@IAE_NAA_J@Z 10029f11 f i libucrt:output.obj
 0001:00028f37       ??$extract_argument_from_va_list@F_J@?$positional_parameter_base@DV?$stream_output_adapter@D@__crt_stdio_output@@@__crt_stdio_output@@IAE_NAA_J@Z 10029f37 f i libucrt:output.obj
 0001:00028fce       ??$extract_argument_from_va_list@F_J@?$positional_parameter_base@DV?$string_output_adapter@D@__crt_stdio_output@@@__crt_stdio_output@@IAE_NAA_J@Z 10029fce f i libucrt:output.obj
 0001:00029065       ??$extract_argument_from_va_list@F_J@?$positional_parameter_base@_WV?$stream_output_adapter@_W@__crt_stdio_output@@@__crt_stdio_output@@IAE_NAA_J@Z 1002a065 f i libucrt:output.obj
 0001:000290fc       ??$extract_argument_from_va_list@F_J@?$positional_parameter_base@_WV?$string_output_adapter@_W@__crt_stdio_output@@@__crt_stdio_output@@IAE_NAA_J@Z 1002a0fc f i libucrt:output.obj
 0001:00029193       ??$extract_argument_from_va_list@F_J@?$standard_base@DV?$stream_output_adapter@D@__crt_stdio_output@@@__crt_stdio_output@@IAE_NAA_J@Z 1002a193 f i libucrt:output.obj
 0001:000291b9       ??$extract_argument_from_va_list@F_J@?$standard_base@DV?$string_output_adapter@D@__crt_stdio_output@@@__crt_stdio_output@@IAE_NAA_J@Z 1002a1b9 f i libucrt:output.obj
 0001:000291df       ??$extract_argument_from_va_list@F_J@?$standard_base@_WV?$stream_output_adapter@_W@__crt_stdio_output@@@__crt_stdio_output@@IAE_NAA_J@Z 1002a1df f i libucrt:output.obj
 0001:00029205       ??$extract_argument_from_va_list@F_J@?$standard_base@_WV?$string_output_adapter@_W@__crt_stdio_output@@@__crt_stdio_output@@IAE_NAA_J@Z 1002a205 f i libucrt:output.obj
 0001:0002922b       ??$extract_argument_from_va_list@GD@?$positional_parameter_base@DV?$stream_output_adapter@D@__crt_stdio_output@@@__crt_stdio_output@@IAE_NAAD@Z 1002a22b f i libucrt:output.obj
 0001:000292c1       ??$extract_argument_from_va_list@GD@?$positional_parameter_base@DV?$string_output_adapter@D@__crt_stdio_output@@@__crt_stdio_output@@IAE_NAAD@Z 1002a2c1 f i libucrt:output.obj
 0001:00029357       ??$extract_argument_from_va_list@GD@?$standard_base@DV?$stream_output_adapter@D@__crt_stdio_output@@@__crt_stdio_output@@IAE_NAAD@Z 1002a357 f i libucrt:output.obj
 0001:00029377       ??$extract_argument_from_va_list@GD@?$standard_base@DV?$string_output_adapter@D@__crt_stdio_output@@@__crt_stdio_output@@IAE_NAAD@Z 1002a377 f i libucrt:output.obj
 0001:00029397       ??$extract_argument_from_va_list@G_J@?$positional_parameter_base@DV?$stream_output_adapter@D@__crt_stdio_output@@@__crt_stdio_output@@IAE_NAA_J@Z 1002a397 f i libucrt:output.obj
 0001:0002942e       ??$extract_argument_from_va_list@G_J@?$positional_parameter_base@DV?$string_output_adapter@D@__crt_stdio_output@@@__crt_stdio_output@@IAE_NAA_J@Z 1002a42e f i libucrt:output.obj
 0001:000294c5       ??$extract_argument_from_va_list@G_J@?$positional_parameter_base@_WV?$stream_output_adapter@_W@__crt_stdio_output@@@__crt_stdio_output@@IAE_NAA_J@Z 1002a4c5 f i libucrt:output.obj
 0001:0002955c       ??$extract_argument_from_va_list@G_J@?$positional_parameter_base@_WV?$string_output_adapter@_W@__crt_stdio_output@@@__crt_stdio_output@@IAE_NAA_J@Z 1002a55c f i libucrt:output.obj
 0001:000295f3       ??$extract_argument_from_va_list@G_J@?$standard_base@DV?$stream_output_adapter@D@__crt_stdio_output@@@__crt_stdio_output@@IAE_NAA_J@Z 1002a5f3 f i libucrt:output.obj
 0001:00029619       ??$extract_argument_from_va_list@G_J@?$standard_base@DV?$string_output_adapter@D@__crt_stdio_output@@@__crt_stdio_output@@IAE_NAA_J@Z 1002a619 f i libucrt:output.obj
 0001:0002963f       ??$extract_argument_from_va_list@G_J@?$standard_base@_WV?$stream_output_adapter@_W@__crt_stdio_output@@@__crt_stdio_output@@IAE_NAA_J@Z 1002a63f f i libucrt:output.obj
 0001:00029665       ??$extract_argument_from_va_list@G_J@?$standard_base@_WV?$string_output_adapter@_W@__crt_stdio_output@@@__crt_stdio_output@@IAE_NAA_J@Z 1002a665 f i libucrt:output.obj
 0001:0002968b       ??$extract_argument_from_va_list@H_J@?$positional_parameter_base@DV?$stream_output_adapter@D@__crt_stdio_output@@@__crt_stdio_output@@IAE_NAA_J@Z 1002a68b f i libucrt:output.obj
 0001:0002971f       ??$extract_argument_from_va_list@H_J@?$positional_parameter_base@DV?$string_output_adapter@D@__crt_stdio_output@@@__crt_stdio_output@@IAE_NAA_J@Z 1002a71f f i libucrt:output.obj
 0001:000297b3       ??$extract_argument_from_va_list@H_J@?$positional_parameter_base@_WV?$stream_output_adapter@_W@__crt_stdio_output@@@__crt_stdio_output@@IAE_NAA_J@Z 1002a7b3 f i libucrt:output.obj
 0001:00029847       ??$extract_argument_from_va_list@H_J@?$positional_parameter_base@_WV?$string_output_adapter@_W@__crt_stdio_output@@@__crt_stdio_output@@IAE_NAA_J@Z 1002a847 f i libucrt:output.obj
 0001:000298db       ??$extract_argument_from_va_list@H_J@?$standard_base@DV?$stream_output_adapter@D@__crt_stdio_output@@@__crt_stdio_output@@IAE_NAA_J@Z 1002a8db f i libucrt:output.obj
 0001:00029900       ??$extract_argument_from_va_list@H_J@?$standard_base@DV?$string_output_adapter@D@__crt_stdio_output@@@__crt_stdio_output@@IAE_NAA_J@Z 1002a900 f i libucrt:output.obj
 0001:00029925       ??$extract_argument_from_va_list@H_J@?$standard_base@_WV?$stream_output_adapter@_W@__crt_stdio_output@@@__crt_stdio_output@@IAE_NAA_J@Z 1002a925 f i libucrt:output.obj
 0001:0002994a       ??$extract_argument_from_va_list@H_J@?$standard_base@_WV?$string_output_adapter@_W@__crt_stdio_output@@@__crt_stdio_output@@IAE_NAA_J@Z 1002a94a f i libucrt:output.obj
 0001:0002996f       ??$extract_argument_from_va_list@I_J@?$positional_parameter_base@DV?$stream_output_adapter@D@__crt_stdio_output@@@__crt_stdio_output@@IAE_NAA_J@Z 1002a96f f i libucrt:output.obj
 0001:00029a0f       ??$extract_argument_from_va_list@I_J@?$positional_parameter_base@DV?$string_output_adapter@D@__crt_stdio_output@@@__crt_stdio_output@@IAE_NAA_J@Z 1002aa0f f i libucrt:output.obj
 0001:00029aaf       ??$extract_argument_from_va_list@I_J@?$positional_parameter_base@_WV?$stream_output_adapter@_W@__crt_stdio_output@@@__crt_stdio_output@@IAE_NAA_J@Z 1002aaaf f i libucrt:output.obj
 0001:00029b4f       ??$extract_argument_from_va_list@I_J@?$positional_parameter_base@_WV?$string_output_adapter@_W@__crt_stdio_output@@@__crt_stdio_output@@IAE_NAA_J@Z 1002ab4f f i libucrt:output.obj
 0001:00029bef       ??$extract_argument_from_va_list@I_J@?$standard_base@DV?$stream_output_adapter@D@__crt_stdio_output@@@__crt_stdio_output@@IAE_NAA_J@Z 1002abef f i libucrt:output.obj
 0001:00029c14       ??$extract_argument_from_va_list@I_J@?$standard_base@DV?$string_output_adapter@D@__crt_stdio_output@@@__crt_stdio_output@@IAE_NAA_J@Z 1002ac14 f i libucrt:output.obj
 0001:00029c39       ??$extract_argument_from_va_list@I_J@?$standard_base@_WV?$stream_output_adapter@_W@__crt_stdio_output@@@__crt_stdio_output@@IAE_NAA_J@Z 1002ac39 f i libucrt:output.obj
 0001:00029c5e       ??$extract_argument_from_va_list@I_J@?$standard_base@_WV?$string_output_adapter@_W@__crt_stdio_output@@@__crt_stdio_output@@IAE_NAA_J@Z 1002ac5e f i libucrt:output.obj
 0001:00029c83       ??$extract_argument_from_va_list@PADPAD@?$positional_parameter_base@DV?$stream_output_adapter@D@__crt_stdio_output@@@__crt_stdio_output@@IAE_NAAPAD@Z 1002ac83 f i libucrt:output.obj
 0001:00029d19       ??$extract_argument_from_va_list@PADPAD@?$positional_parameter_base@DV?$string_output_adapter@D@__crt_stdio_output@@@__crt_stdio_output@@IAE_NAAPAD@Z 1002ad19 f i libucrt:output.obj
 0001:00029daf       ??$extract_argument_from_va_list@PADPAD@?$positional_parameter_base@_WV?$stream_output_adapter@_W@__crt_stdio_output@@@__crt_stdio_output@@IAE_NAAPAD@Z 1002adaf f i libucrt:output.obj
 0001:00029e45       ??$extract_argument_from_va_list@PADPAD@?$positional_parameter_base@_WV?$string_output_adapter@_W@__crt_stdio_output@@@__crt_stdio_output@@IAE_NAAPAD@Z 1002ae45 f i libucrt:output.obj
 0001:00029edb       ??$extract_argument_from_va_list@PADPAD@?$standard_base@DV?$stream_output_adapter@D@__crt_stdio_output@@@__crt_stdio_output@@IAE_NAAPAD@Z 1002aedb f i libucrt:output.obj
 0001:00029efb       ??$extract_argument_from_va_list@PADPAD@?$standard_base@DV?$string_output_adapter@D@__crt_stdio_output@@@__crt_stdio_output@@IAE_NAAPAD@Z 1002aefb f i libucrt:output.obj
 0001:00029f1b       ??$extract_argument_from_va_list@PADPAD@?$standard_base@_WV?$stream_output_adapter@_W@__crt_stdio_output@@@__crt_stdio_output@@IAE_NAAPAD@Z 1002af1b f i libucrt:output.obj
 0001:00029f3b       ??$extract_argument_from_va_list@PADPAD@?$standard_base@_WV?$string_output_adapter@_W@__crt_stdio_output@@@__crt_stdio_output@@IAE_NAAPAD@Z 1002af3b f i libucrt:output.obj
 0001:0002a333       ??$extract_argument_from_va_list@PAXPAX@?$positional_parameter_base@DV?$stream_output_adapter@D@__crt_stdio_output@@@__crt_stdio_output@@IAE_NAAPAX@Z 1002b333 f i libucrt:output.obj
 0001:0002a3c9       ??$extract_argument_from_va_list@PAXPAX@?$positional_parameter_base@DV?$string_output_adapter@D@__crt_stdio_output@@@__crt_stdio_output@@IAE_NAAPAX@Z 1002b3c9 f i libucrt:output.obj
 0001:0002a45f       ??$extract_argument_from_va_list@PAXPAX@?$positional_parameter_base@_WV?$stream_output_adapter@_W@__crt_stdio_output@@@__crt_stdio_output@@IAE_NAAPAX@Z 1002b45f f i libucrt:output.obj
 0001:0002a4f5       ??$extract_argument_from_va_list@PAXPAX@?$positional_parameter_base@_WV?$string_output_adapter@_W@__crt_stdio_output@@@__crt_stdio_output@@IAE_NAAPAX@Z 1002b4f5 f i libucrt:output.obj
 0001:0002a58b       ??$extract_argument_from_va_list@PAXPAX@?$standard_base@DV?$stream_output_adapter@D@__crt_stdio_output@@@__crt_stdio_output@@IAE_NAAPAX@Z 1002b58b f i libucrt:output.obj
 0001:0002a5ab       ??$extract_argument_from_va_list@PAXPAX@?$standard_base@DV?$string_output_adapter@D@__crt_stdio_output@@@__crt_stdio_output@@IAE_NAAPAX@Z 1002b5ab f i libucrt:output.obj
 0001:0002a5cb       ??$extract_argument_from_va_list@PAXPAX@?$standard_base@_WV?$stream_output_adapter@_W@__crt_stdio_output@@@__crt_stdio_output@@IAE_NAAPAX@Z 1002b5cb f i libucrt:output.obj
 0001:0002a5eb       ??$extract_argument_from_va_list@PAXPAX@?$standard_base@_WV?$string_output_adapter@_W@__crt_stdio_output@@@__crt_stdio_output@@IAE_NAAPAX@Z 1002b5eb f i libucrt:output.obj
 0001:0002a60b       ??$extract_argument_from_va_list@U_CRT_DOUBLE@@U1@@?$positional_parameter_base@DV?$stream_output_adapter@D@__crt_stdio_output@@@__crt_stdio_output@@IAE_NAAU_CRT_DOUBLE@@@Z 1002b60b f i libucrt:output.obj
 0001:0002a6b2       ??$extract_argument_from_va_list@U_CRT_DOUBLE@@U1@@?$positional_parameter_base@DV?$string_output_adapter@D@__crt_stdio_output@@@__crt_stdio_output@@IAE_NAAU_CRT_DOUBLE@@@Z 1002b6b2 f i libucrt:output.obj
 0001:0002a759       ??$extract_argument_from_va_list@U_CRT_DOUBLE@@U1@@?$positional_parameter_base@_WV?$stream_output_adapter@_W@__crt_stdio_output@@@__crt_stdio_output@@IAE_NAAU_CRT_DOUBLE@@@Z 1002b759 f i libucrt:output.obj
 0001:0002a800       ??$extract_argument_from_va_list@U_CRT_DOUBLE@@U1@@?$positional_parameter_base@_WV?$string_output_adapter@_W@__crt_stdio_output@@@__crt_stdio_output@@IAE_NAAU_CRT_DOUBLE@@@Z 1002b800 f i libucrt:output.obj
 0001:0002a8a7       ??$extract_argument_from_va_list@U_CRT_DOUBLE@@U1@@?$standard_base@DV?$stream_output_adapter@D@__crt_stdio_output@@@__crt_stdio_output@@IAE_NAAU_CRT_DOUBLE@@@Z 1002b8a7 f i libucrt:output.obj
 0001:0002a8cf       ??$extract_argument_from_va_list@U_CRT_DOUBLE@@U1@@?$standard_base@DV?$string_output_adapter@D@__crt_stdio_output@@@__crt_stdio_output@@IAE_NAAU_CRT_DOUBLE@@@Z 1002b8cf f i libucrt:output.obj
 0001:0002a8f7       ??$extract_argument_from_va_list@U_CRT_DOUBLE@@U1@@?$standard_base@_WV?$stream_output_adapter@_W@__crt_stdio_output@@@__crt_stdio_output@@IAE_NAAU_CRT_DOUBLE@@@Z 1002b8f7 f i libucrt:output.obj
 0001:0002a91f       ??$extract_argument_from_va_list@U_CRT_DOUBLE@@U1@@?$standard_base@_WV?$string_output_adapter@_W@__crt_stdio_output@@@__crt_stdio_output@@IAE_NAAU_CRT_DOUBLE@@@Z 1002b91f f i libucrt:output.obj
 0001:0002a947       ??$extract_argument_from_va_list@_J_J@?$positional_parameter_base@DV?$stream_output_adapter@D@__crt_stdio_output@@@__crt_stdio_output@@IAE_NAA_J@Z 1002b947 f i libucrt:output.obj
 0001:0002a9ee       ??$extract_argument_from_va_list@_J_J@?$positional_parameter_base@DV?$string_output_adapter@D@__crt_stdio_output@@@__crt_stdio_output@@IAE_NAA_J@Z 1002b9ee f i libucrt:output.obj
 0001:0002aa95       ??$extract_argument_from_va_list@_J_J@?$positional_parameter_base@_WV?$stream_output_adapter@_W@__crt_stdio_output@@@__crt_stdio_output@@IAE_NAA_J@Z 1002ba95 f i libucrt:output.obj
 0001:0002ab3c       ??$extract_argument_from_va_list@_J_J@?$positional_parameter_base@_WV?$string_output_adapter@_W@__crt_stdio_output@@@__crt_stdio_output@@IAE_NAA_J@Z 1002bb3c f i libucrt:output.obj
 0001:0002abe3       ??$extract_argument_from_va_list@_J_J@?$standard_base@DV?$stream_output_adapter@D@__crt_stdio_output@@@__crt_stdio_output@@IAE_NAA_J@Z 1002bbe3 f i libucrt:output.obj
 0001:0002ac0b       ??$extract_argument_from_va_list@_J_J@?$standard_base@DV?$string_output_adapter@D@__crt_stdio_output@@@__crt_stdio_output@@IAE_NAA_J@Z 1002bc0b f i libucrt:output.obj
 0001:0002ac33       ??$extract_argument_from_va_list@_J_J@?$standard_base@_WV?$stream_output_adapter@_W@__crt_stdio_output@@@__crt_stdio_output@@IAE_NAA_J@Z 1002bc33 f i libucrt:output.obj
 0001:0002ac5b       ??$extract_argument_from_va_list@_J_J@?$standard_base@_WV?$string_output_adapter@_W@__crt_stdio_output@@@__crt_stdio_output@@IAE_NAA_J@Z 1002bc5b f i libucrt:output.obj
 0001:0002ac83       ??$extract_argument_from_va_list@_K_J@?$positional_parameter_base@DV?$stream_output_adapter@D@__crt_stdio_output@@@__crt_stdio_output@@IAE_NAA_J@Z 1002bc83 f i libucrt:output.obj
 0001:0002ad2a       ??$extract_argument_from_va_list@_K_J@?$positional_parameter_base@DV?$string_output_adapter@D@__crt_stdio_output@@@__crt_stdio_output@@IAE_NAA_J@Z 1002bd2a f i libucrt:output.obj
 0001:0002add1       ??$extract_argument_from_va_list@_K_J@?$positional_parameter_base@_WV?$stream_output_adapter@_W@__crt_stdio_output@@@__crt_stdio_output@@IAE_NAA_J@Z 1002bdd1 f i libucrt:output.obj
 0001:0002ae78       ??$extract_argument_from_va_list@_K_J@?$positional_parameter_base@_WV?$string_output_adapter@_W@__crt_stdio_output@@@__crt_stdio_output@@IAE_NAA_J@Z 1002be78 f i libucrt:output.obj
 0001:0002af1f       ??$extract_argument_from_va_list@_K_J@?$standard_base@DV?$stream_output_adapter@D@__crt_stdio_output@@@__crt_stdio_output@@IAE_NAA_J@Z 1002bf1f f i libucrt:output.obj
 0001:0002af47       ??$extract_argument_from_va_list@_K_J@?$standard_base@DV?$string_output_adapter@D@__crt_stdio_output@@@__crt_stdio_output@@IAE_NAA_J@Z 1002bf47 f i libucrt:output.obj
 0001:0002af6f       ??$extract_argument_from_va_list@_K_J@?$standard_base@_WV?$stream_output_adapter@_W@__crt_stdio_output@@@__crt_stdio_output@@IAE_NAA_J@Z 1002bf6f f i libucrt:output.obj
 0001:0002af97       ??$extract_argument_from_va_list@_K_J@?$standard_base@_WV?$string_output_adapter@_W@__crt_stdio_output@@@__crt_stdio_output@@IAE_NAA_J@Z 1002bf97 f i libucrt:output.obj
 0001:0002afbf       ??$extract_argument_from_va_list@_W_W@?$positional_parameter_base@DV?$stream_output_adapter@D@__crt_stdio_output@@@__crt_stdio_output@@IAE_NAA_W@Z 1002bfbf f i libucrt:output.obj
 0001:0002b05a       ??$extract_argument_from_va_list@_W_W@?$positional_parameter_base@DV?$string_output_adapter@D@__crt_stdio_output@@@__crt_stdio_output@@IAE_NAA_W@Z 1002c05a f i libucrt:output.obj
 0001:0002b0f5       ??$extract_argument_from_va_list@_W_W@?$positional_parameter_base@_WV?$stream_output_adapter@_W@__crt_stdio_output@@@__crt_stdio_output@@IAE_NAA_W@Z 1002c0f5 f i libucrt:output.obj
 0001:0002b190       ??$extract_argument_from_va_list@_W_W@?$positional_parameter_base@_WV?$string_output_adapter@_W@__crt_stdio_output@@@__crt_stdio_output@@IAE_NAA_W@Z 1002c190 f i libucrt:output.obj
 0001:0002b22b       ??$extract_argument_from_va_list@_W_W@?$standard_base@DV?$stream_output_adapter@D@__crt_stdio_output@@@__crt_stdio_output@@IAE_NAA_W@Z 1002c22b f i libucrt:output.obj
 0001:0002b24e       ??$extract_argument_from_va_list@_W_W@?$standard_base@DV?$string_output_adapter@D@__crt_stdio_output@@@__crt_stdio_output@@IAE_NAA_W@Z 1002c24e f i libucrt:output.obj
 0001:0002b271       ??$extract_argument_from_va_list@_W_W@?$standard_base@_WV?$stream_output_adapter@_W@__crt_stdio_output@@@__crt_stdio_output@@IAE_NAA_W@Z 1002c271 f i libucrt:output.obj
 0001:0002b294       ??$extract_argument_from_va_list@_W_W@?$standard_base@_WV?$string_output_adapter@_W@__crt_stdio_output@@@__crt_stdio_output@@IAE_NAA_W@Z 1002c294 f i libucrt:output.obj
 0001:0002b2b7       ??$get_parameter_type@D@?$positional_parameter_base@DV?$stream_output_adapter@D@__crt_stdio_output@@@__crt_stdio_output@@CA?AW4parameter_type@01@PAD@Z 1002c2b7 f i libucrt:output.obj
 0001:0002b2bb       ??$get_parameter_type@D@?$positional_parameter_base@DV?$string_output_adapter@D@__crt_stdio_output@@@__crt_stdio_output@@CA?AW4parameter_type@01@PAD@Z 1002c2bb f i libucrt:output.obj
 0001:0002b2bf       ??$get_parameter_type@D@?$positional_parameter_base@_WV?$stream_output_adapter@_W@__crt_stdio_output@@@__crt_stdio_output@@CA?AW4parameter_type@01@PAD@Z 1002c2bf f i libucrt:output.obj
 0001:0002b2c3       ??$get_parameter_type@D@?$positional_parameter_base@_WV?$string_output_adapter@_W@__crt_stdio_output@@@__crt_stdio_output@@CA?AW4parameter_type@01@PAD@Z 1002c2c3 f i libucrt:output.obj
 0001:0002b2d7       ??$get_parameter_type@X@?$positional_parameter_base@DV?$stream_output_adapter@D@__crt_stdio_output@@@__crt_stdio_output@@CA?AW4parameter_type@01@PAX@Z 1002c2d7 f i libucrt:output.obj
 0001:0002b2db       ??$get_parameter_type@X@?$positional_parameter_base@DV?$string_output_adapter@D@__crt_stdio_output@@@__crt_stdio_output@@CA?AW4parameter_type@01@PAX@Z 1002c2db f i libucrt:output.obj
 0001:0002b2df       ??$get_parameter_type@X@?$positional_parameter_base@_WV?$stream_output_adapter@_W@__crt_stdio_output@@@__crt_stdio_output@@CA?AW4parameter_type@01@PAX@Z 1002c2df f i libucrt:output.obj
 0001:0002b2e3       ??$get_parameter_type@X@?$positional_parameter_base@_WV?$string_output_adapter@_W@__crt_stdio_output@@@__crt_stdio_output@@CA?AW4parameter_type@01@PAX@Z 1002c2e3 f i libucrt:output.obj
 0001:0002b2e7       ??$is_character_specifier@D@?$positional_parameter_base@DV?$stream_output_adapter@D@__crt_stdio_output@@@__crt_stdio_output@@CA_ND@Z 1002c2e7 f i libucrt:output.obj
 0001:0002b305       ??$is_character_specifier@D@?$positional_parameter_base@DV?$string_output_adapter@D@__crt_stdio_output@@@__crt_stdio_output@@CA_ND@Z 1002c305 f i libucrt:output.obj
 0001:0002b323       ??$is_character_specifier@_W@?$positional_parameter_base@_WV?$stream_output_adapter@_W@__crt_stdio_output@@@__crt_stdio_output@@CA_N_W@Z 1002c323 f i libucrt:output.obj
 0001:0002b344       ??$is_character_specifier@_W@?$positional_parameter_base@_WV?$string_output_adapter@_W@__crt_stdio_output@@@__crt_stdio_output@@CA_N_W@Z 1002c344 f i libucrt:output.obj
 0001:0002b365       ??$is_integral_specifier@D@?$positional_parameter_base@DV?$stream_output_adapter@D@__crt_stdio_output@@@__crt_stdio_output@@CA_ND@Z 1002c365 f i libucrt:output.obj
 0001:0002b39c       ??$is_integral_specifier@D@?$positional_parameter_base@DV?$string_output_adapter@D@__crt_stdio_output@@@__crt_stdio_output@@CA_ND@Z 1002c39c f i libucrt:output.obj
 0001:0002b3d3       ??$is_integral_specifier@_W@?$positional_parameter_base@_WV?$stream_output_adapter@_W@__crt_stdio_output@@@__crt_stdio_output@@CA_N_W@Z 1002c3d3 f i libucrt:output.obj
 0001:0002b41c       ??$is_integral_specifier@_W@?$positional_parameter_base@_WV?$string_output_adapter@_W@__crt_stdio_output@@@__crt_stdio_output@@CA_N_W@Z 1002c41c f i libucrt:output.obj
 0001:0002b465       ??$is_pointer_specifier@D@?$positional_parameter_base@DV?$stream_output_adapter@D@__crt_stdio_output@@@__crt_stdio_output@@CA_ND@Z 1002c465 f i libucrt:output.obj
 0001:0002b476       ??$is_pointer_specifier@D@?$positional_parameter_base@DV?$string_output_adapter@D@__crt_stdio_output@@@__crt_stdio_output@@CA_ND@Z 1002c476 f i libucrt:output.obj
 0001:0002b487       ??$is_pointer_specifier@_W@?$positional_parameter_base@_WV?$stream_output_adapter@_W@__crt_stdio_output@@@__crt_stdio_output@@CA_N_W@Z 1002c487 f i libucrt:output.obj
 0001:0002b499       ??$is_pointer_specifier@_W@?$positional_parameter_base@_WV?$string_output_adapter@_W@__crt_stdio_output@@@__crt_stdio_output@@CA_N_W@Z 1002c499 f i libucrt:output.obj
 0001:0002b4ab       ??$is_string_specifier@D@?$positional_parameter_base@DV?$stream_output_adapter@D@__crt_stdio_output@@@__crt_stdio_output@@CA_ND@Z 1002c4ab f i libucrt:output.obj
 0001:0002b4c9       ??$is_string_specifier@D@?$positional_parameter_base@DV?$string_output_adapter@D@__crt_stdio_output@@@__crt_stdio_output@@CA_ND@Z 1002c4c9 f i libucrt:output.obj
 0001:0002b4e7       ??$is_string_specifier@_W@?$positional_parameter_base@_WV?$stream_output_adapter@_W@__crt_stdio_output@@@__crt_stdio_output@@CA_N_W@Z 1002c4e7 f i libucrt:output.obj
 0001:0002b508       ??$is_string_specifier@_W@?$positional_parameter_base@_WV?$string_output_adapter@_W@__crt_stdio_output@@@__crt_stdio_output@@CA_N_W@Z 1002c508 f i libucrt:output.obj
 0001:0002b529       ??$is_wide_character_specifier@D@__crt_stdio_output@@YA_N_KDW4length_modifier@0@@Z 1002c529 f i libucrt:output.obj
 0001:0002b566       ??$is_wide_character_specifier@_W@__crt_stdio_output@@YA_N_K_WW4length_modifier@0@@Z 1002c566 f i libucrt:output.obj
 0001:0002b5c7       ??$peek_va_arg@C@__crt_stdio_output@@YACPAD@Z 1002c5c7 f i libucrt:output.obj
 0001:0002b5d6       ??$peek_va_arg@E@__crt_stdio_output@@YAEPAD@Z 1002c5d6 f i libucrt:output.obj
 0001:0002b5e5       ??$peek_va_arg@F@__crt_stdio_output@@YAFPAD@Z 1002c5e5 f i libucrt:output.obj
 0001:0002b5f5       ??$peek_va_arg@G@__crt_stdio_output@@YAGPAD@Z 1002c5f5 f i libucrt:output.obj
 0001:0002b605       ??$peek_va_arg@H@__crt_stdio_output@@YAHPAD@Z 1002c605 f i libucrt:output.obj
 0001:0002b614       ??$peek_va_arg@I@__crt_stdio_output@@YAIPAD@Z 1002c614 f i libucrt:output.obj
 0001:0002b623       ??$peek_va_arg@PAD@__crt_stdio_output@@YAPADPAD@Z 1002c623 f i libucrt:output.obj
 0001:0002b66e       ??$peek_va_arg@PAX@__crt_stdio_output@@YAPAXPAD@Z 1002c66e f i libucrt:output.obj
 0001:0002b67d       ??$peek_va_arg@U_CRT_DOUBLE@@@__crt_stdio_output@@YA?AU_CRT_DOUBLE@@PAD@Z 1002c67d f i libucrt:output.obj
 0001:0002b68f       ??$peek_va_arg@_J@__crt_stdio_output@@YA_JPAD@Z 1002c68f f i libucrt:output.obj
 0001:0002b6a1       ??$peek_va_arg@_K@__crt_stdio_output@@YA_KPAD@Z 1002c6a1 f i libucrt:output.obj
 0001:0002b6b3       ??$peek_va_arg@_W@__crt_stdio_output@@YA_WPAD@Z 1002c6b3 f i libucrt:output.obj
 0001:0002b6c3       ??$puttc_nolock@ABDPAU_iobuf@@@?$__crt_char_traits@D@@SAHABD$$QAPAU_iobuf@@@Z 1002c6c3 f i libucrt:output.obj
 0001:0002b6e3       ??$puttc_nolock@AB_WPAU_iobuf@@@?$__crt_char_traits@_W@@SAGAB_W$$QAPAU_iobuf@@@Z 1002c6e3 f i libucrt:output.obj
 0001:0002b703       ??$read_va_arg@C@__crt_stdio_output@@YACAAPAD@Z 1002c703 f i libucrt:output.obj
 0001:0002b719       ??$read_va_arg@E@__crt_stdio_output@@YAEAAPAD@Z 1002c719 f i libucrt:output.obj
 0001:0002b72f       ??$read_va_arg@F@__crt_stdio_output@@YAFAAPAD@Z 1002c72f f i libucrt:output.obj
 0001:0002b746       ??$read_va_arg@G@__crt_stdio_output@@YAGAAPAD@Z 1002c746 f i libucrt:output.obj
 0001:0002b75d       ??$read_va_arg@H@__crt_stdio_output@@YAHAAPAD@Z 1002c75d f i libucrt:output.obj
 0001:0002b773       ??$read_va_arg@I@__crt_stdio_output@@YAIAAPAD@Z 1002c773 f i libucrt:output.obj
 0001:0002b789       ??$read_va_arg@PAD@__crt_stdio_output@@YAPADAAPAD@Z 1002c789 f i libucrt:output.obj
 0001:0002b8a7       ??$read_va_arg@PAX@__crt_stdio_output@@YAPAXAAPAD@Z 1002c8a7 f i libucrt:output.obj
 0001:0002b8bd       ??$read_va_arg@U_CRT_DOUBLE@@@__crt_stdio_output@@YA?AU_CRT_DOUBLE@@AAPAD@Z 1002c8bd f i libucrt:output.obj
 0001:0002b8d8       ??$read_va_arg@_J@__crt_stdio_output@@YA_JAAPAD@Z 1002c8d8 f i libucrt:output.obj
 0001:0002b8f2       ??$read_va_arg@_K@__crt_stdio_output@@YA_KAAPAD@Z 1002c8f2 f i libucrt:output.obj
 0001:0002b90c       ??$read_va_arg@_W@__crt_stdio_output@@YA_WAAPAD@Z 1002c90c f i libucrt:output.obj
 0001:0002b923       ??$scratch_count@D@formatting_buffer@__crt_stdio_output@@QBEIXZ 1002c923 f i libucrt:output.obj
 0001:0002b928       ??$scratch_data@D@formatting_buffer@__crt_stdio_output@@QAEPADXZ 1002c928 f i libucrt:output.obj
 0001:0002b94d       ??$tcstol@AAPBDPAPADH@?$__crt_char_traits@D@@SAJAAPBD$$QAPAPAD$$QAH@Z 1002c94d f i libucrt:output.obj
 0001:0002b972       ??$tcstol@AAPB_WPAPA_WH@?$__crt_char_traits@_W@@SAJAAPB_W$$QAPAPA_W$$QAH@Z 1002c972 f i libucrt:output.obj
 0001:0002b997       ??$tcstol@PBDPAPADH@?$__crt_char_traits@D@@SAJ$$QAPBD$$QAPAPAD$$QAH@Z 1002c997 f i libucrt:output.obj
 0001:0002b9bc       ??$tcstol@PB_WPAPA_WH@?$__crt_char_traits@_W@@SAJ$$QAPB_W$$QAPAPA_W$$QAH@Z 1002c9bc f i libucrt:output.obj
 0001:0002b9e1       ??$type_case_integer_parse_into_buffer@I@?$output_processor@DV?$stream_output_adapter@D@__crt_stdio_output@@V?$format_validation_base@DV?$stream_output_adapter@D@__crt_stdio_output@@@2@@__crt_stdio_output@@AAEXII_N@Z 1002c9e1 f i libucrt:output.obj
 0001:0002ba70       ??$type_case_integer_parse_into_buffer@I@?$output_processor@DV?$stream_output_adapter@D@__crt_stdio_output@@V?$positional_parameter_base@DV?$stream_output_adapter@D@__crt_stdio_output@@@2@@__crt_stdio_output@@AAEXII_N@Z 1002ca70 f i libucrt:output.obj
 0001:0002baff       ??$type_case_integer_parse_into_buffer@I@?$output_processor@DV?$stream_output_adapter@D@__crt_stdio_output@@V?$standard_base@DV?$stream_output_adapter@D@__crt_stdio_output@@@2@@__crt_stdio_output@@AAEXII_N@Z 1002caff f i libucrt:output.obj
 0001:0002bb8e       ??$type_case_integer_parse_into_buffer@I@?$output_processor@DV?$string_output_adapter@D@__crt_stdio_output@@V?$format_validation_base@DV?$string_output_adapter@D@__crt_stdio_output@@@2@@__crt_stdio_output@@AAEXII_N@Z 1002cb8e f i libucrt:output.obj
 0001:0002bc1d       ??$type_case_integer_parse_into_buffer@I@?$output_processor@DV?$string_output_adapter@D@__crt_stdio_output@@V?$positional_parameter_base@DV?$string_output_adapter@D@__crt_stdio_output@@@2@@__crt_stdio_output@@AAEXII_N@Z 1002cc1d f i libucrt:output.obj
 0001:0002bcac       ??$type_case_integer_parse_into_buffer@I@?$output_processor@DV?$string_output_adapter@D@__crt_stdio_output@@V?$standard_base@DV?$string_output_adapter@D@__crt_stdio_output@@@2@@__crt_stdio_output@@AAEXII_N@Z 1002ccac f i libucrt:output.obj
 0001:0002bd3b       ??$type_case_integer_parse_into_buffer@I@?$output_processor@_WV?$stream_output_adapter@_W@__crt_stdio_output@@V?$format_validation_base@_WV?$stream_output_adapter@_W@__crt_stdio_output@@@2@@__crt_stdio_output@@AAEXII_N@Z 1002cd3b f i libucrt:output.obj
 0001:0002bddb       ??$type_case_integer_parse_into_buffer@I@?$output_processor@_WV?$stream_output_adapter@_W@__crt_stdio_output@@V?$positional_parameter_base@_WV?$stream_output_adapter@_W@__crt_stdio_output@@@2@@__crt_stdio_output@@AAEXII_N@Z 1002cddb f i libucrt:output.obj
 0001:0002be7b       ??$type_case_integer_parse_into_buffer@I@?$output_processor@_WV?$stream_output_adapter@_W@__crt_stdio_output@@V?$standard_base@_WV?$stream_output_adapter@_W@__crt_stdio_output@@@2@@__crt_stdio_output@@AAEXII_N@Z 1002ce7b f i libucrt:output.obj
 0001:0002bf1b       ??$type_case_integer_parse_into_buffer@I@?$output_processor@_WV?$string_output_adapter@_W@__crt_stdio_output@@V?$format_validation_base@_WV?$string_output_adapter@_W@__crt_stdio_output@@@2@@__crt_stdio_output@@AAEXII_N@Z 1002cf1b f i libucrt:output.obj
 0001:0002bfbb       ??$type_case_integer_parse_into_buffer@I@?$output_processor@_WV?$string_output_adapter@_W@__crt_stdio_output@@V?$positional_parameter_base@_WV?$string_output_adapter@_W@__crt_stdio_output@@@2@@__crt_stdio_output@@AAEXII_N@Z 1002cfbb f i libucrt:output.obj
 0001:0002c05b       ??$type_case_integer_parse_into_buffer@I@?$output_processor@_WV?$string_output_adapter@_W@__crt_stdio_output@@V?$standard_base@_WV?$string_output_adapter@_W@__crt_stdio_output@@@2@@__crt_stdio_output@@AAEXII_N@Z 1002d05b f i libucrt:output.obj
 0001:0002c0fb       ??$type_case_integer_parse_into_buffer@_K@?$output_processor@DV?$stream_output_adapter@D@__crt_stdio_output@@V?$format_validation_base@DV?$stream_output_adapter@D@__crt_stdio_output@@@2@@__crt_stdio_output@@AAEX_KI_N@Z 1002d0fb f i libucrt:output.obj
 0001:0002c1ad       ??$type_case_integer_parse_into_buffer@_K@?$output_processor@DV?$stream_output_adapter@D@__crt_stdio_output@@V?$positional_parameter_base@DV?$stream_output_adapter@D@__crt_stdio_output@@@2@@__crt_stdio_output@@AAEX_KI_N@Z 1002d1ad f i libucrt:output.obj
 0001:0002c25f       ??$type_case_integer_parse_into_buffer@_K@?$output_processor@DV?$stream_output_adapter@D@__crt_stdio_output@@V?$standard_base@DV?$stream_output_adapter@D@__crt_stdio_output@@@2@@__crt_stdio_output@@AAEX_KI_N@Z 1002d25f f i libucrt:output.obj
 0001:0002c311       ??$type_case_integer_parse_into_buffer@_K@?$output_processor@DV?$string_output_adapter@D@__crt_stdio_output@@V?$format_validation_base@DV?$string_output_adapter@D@__crt_stdio_output@@@2@@__crt_stdio_output@@AAEX_KI_N@Z 1002d311 f i libucrt:output.obj
 0001:0002c3c3       ??$type_case_integer_parse_into_buffer@_K@?$output_processor@DV?$string_output_adapter@D@__crt_stdio_output@@V?$positional_parameter_base@DV?$string_output_adapter@D@__crt_stdio_output@@@2@@__crt_stdio_output@@AAEX_KI_N@Z 1002d3c3 f i libucrt:output.obj
 0001:0002c475       ??$type_case_integer_parse_into_buffer@_K@?$output_processor@DV?$string_output_adapter@D@__crt_stdio_output@@V?$standard_base@DV?$string_output_adapter@D@__crt_stdio_output@@@2@@__crt_stdio_output@@AAEX_KI_N@Z 1002d475 f i libucrt:output.obj
 0001:0002c527       ??$type_case_integer_parse_into_buffer@_K@?$output_processor@_WV?$stream_output_adapter@_W@__crt_stdio_output@@V?$format_validation_base@_WV?$stream_output_adapter@_W@__crt_stdio_output@@@2@@__crt_stdio_output@@AAEX_KI_N@Z 1002d527 f i libucrt:output.obj
 0001:0002c5ea       ??$type_case_integer_parse_into_buffer@_K@?$output_processor@_WV?$stream_output_adapter@_W@__crt_stdio_output@@V?$positional_parameter_base@_WV?$stream_output_adapter@_W@__crt_stdio_output@@@2@@__crt_stdio_output@@AAEX_KI_N@Z 1002d5ea f i libucrt:output.obj
 0001:0002c6ad       ??$type_case_integer_parse_into_buffer@_K@?$output_processor@_WV?$stream_output_adapter@_W@__crt_stdio_output@@V?$standard_base@_WV?$stream_output_adapter@_W@__crt_stdio_output@@@2@@__crt_stdio_output@@AAEX_KI_N@Z 1002d6ad f i libucrt:output.obj
 0001:0002c770       ??$type_case_integer_parse_into_buffer@_K@?$output_processor@_WV?$string_output_adapter@_W@__crt_stdio_output@@V?$format_validation_base@_WV?$string_output_adapter@_W@__crt_stdio_output@@@2@@__crt_stdio_output@@AAEX_KI_N@Z 1002d770 f i libucrt:output.obj
 0001:0002c833       ??$type_case_integer_parse_into_buffer@_K@?$output_processor@_WV?$string_output_adapter@_W@__crt_stdio_output@@V?$positional_parameter_base@_WV?$string_output_adapter@_W@__crt_stdio_output@@@2@@__crt_stdio_output@@AAEX_KI_N@Z 1002d833 f i libucrt:output.obj
 0001:0002c8f6       ??$type_case_integer_parse_into_buffer@_K@?$output_processor@_WV?$string_output_adapter@_W@__crt_stdio_output@@V?$standard_base@_WV?$string_output_adapter@_W@__crt_stdio_output@@@2@@__crt_stdio_output@@AAEX_KI_N@Z 1002d8f6 f i libucrt:output.obj
 0001:0002c9b9       ??$write_multiple_characters@V?$stream_output_adapter@D@__crt_stdio_output@@D@__crt_stdio_output@@YAXABV?$stream_output_adapter@D@0@DHQAH@Z 1002d9b9 f i libucrt:output.obj
 0001:0002ca02       ??$write_multiple_characters@V?$stream_output_adapter@_W@__crt_stdio_output@@D@__crt_stdio_output@@YAXABV?$stream_output_adapter@_W@0@DHQAH@Z 1002da02 f i libucrt:output.obj
 0001:0002ca52       ??$write_multiple_characters@V?$string_output_adapter@D@__crt_stdio_output@@D@__crt_stdio_output@@YAXABV?$string_output_adapter@D@0@DHQAH@Z 1002da52 f i libucrt:output.obj
 0001:0002ca89       ??$write_multiple_characters@V?$string_output_adapter@_W@__crt_stdio_output@@D@__crt_stdio_output@@YAXABV?$string_output_adapter@_W@0@DHQAH@Z 1002da89 f i libucrt:output.obj
 0001:0002ccfa       ??0?$common_data@D@__crt_stdio_output@@IAE@XZ 1002dcfa f i libucrt:output.obj
 0001:0002cd52       ??0?$common_data@_W@__crt_stdio_output@@IAE@XZ 1002dd52 f i libucrt:output.obj
 0001:0002cdb1       ??0?$output_adapter_data@DV?$stream_output_adapter@D@__crt_stdio_output@@@__crt_stdio_output@@IAE@ABV?$stream_output_adapter@D@1@_KQBDQAU__crt_locale_pointers@@QAD@Z 1002ddb1 f i libucrt:output.obj
 0001:0002cdfc       ??0?$output_adapter_data@DV?$string_output_adapter@D@__crt_stdio_output@@@__crt_stdio_output@@IAE@ABV?$string_output_adapter@D@1@_KQBDQAU__crt_locale_pointers@@QAD@Z 1002ddfc f i libucrt:output.obj
 0001:0002ce47       ??0?$output_adapter_data@_WV?$stream_output_adapter@_W@__crt_stdio_output@@@__crt_stdio_output@@IAE@ABV?$stream_output_adapter@_W@1@_KQB_WQAU__crt_locale_pointers@@QAD@Z 1002de47 f i libucrt:output.obj
 0001:0002ce92       ??0?$output_adapter_data@_WV?$string_output_adapter@_W@__crt_stdio_output@@@__crt_stdio_output@@IAE@ABV?$string_output_adapter@_W@1@_KQB_WQAU__crt_locale_pointers@@QAD@Z 1002de92 f i libucrt:output.obj
 0001:0002cedd       ??0?$output_processor@DV?$stream_output_adapter@D@__crt_stdio_output@@V?$format_validation_base@DV?$stream_output_adapter@D@__crt_stdio_output@@@2@@__crt_stdio_output@@QAE@ABV?$stream_output_adapter@D@1@_KQBDQAU__crt_locale_pointers@@QAD@Z 1002dedd f i libucrt:output.obj
 0001:0002cf15       ??0?$output_processor@DV?$stream_output_adapter@D@__crt_stdio_output@@V?$positional_parameter_base@DV?$stream_output_adapter@D@__crt_stdio_output@@@2@@__crt_stdio_output@@QAE@ABV?$stream_output_adapter@D@1@_KQBDQAU__crt_locale_pointers@@QAD@Z 1002df15 f i libucrt:output.obj
 0001:0002cf45       ??0?$output_processor@DV?$stream_output_adapter@D@__crt_stdio_output@@V?$standard_base@DV?$stream_output_adapter@D@__crt_stdio_output@@@2@@__crt_stdio_output@@QAE@ABV?$stream_output_adapter@D@1@_KQBDQAU__crt_locale_pointers@@QAD@Z 1002df45 f i libucrt:output.obj
 0001:0002cf7d       ??0?$output_processor@DV?$string_output_adapter@D@__crt_stdio_output@@V?$format_validation_base@DV?$string_output_adapter@D@__crt_stdio_output@@@2@@__crt_stdio_output@@QAE@ABV?$string_output_adapter@D@1@_KQBDQAU__crt_locale_pointers@@QAD@Z 1002df7d f i libucrt:output.obj
 0001:0002cfb5       ??0?$output_processor@DV?$string_output_adapter@D@__crt_stdio_output@@V?$positional_parameter_base@DV?$string_output_adapter@D@__crt_stdio_output@@@2@@__crt_stdio_output@@QAE@ABV?$string_output_adapter@D@1@_KQBDQAU__crt_locale_pointers@@QAD@Z 1002dfb5 f i libucrt:output.obj
 0001:0002cfe5       ??0?$output_processor@DV?$string_output_adapter@D@__crt_stdio_output@@V?$standard_base@DV?$string_output_adapter@D@__crt_stdio_output@@@2@@__crt_stdio_output@@QAE@ABV?$string_output_adapter@D@1@_KQBDQAU__crt_locale_pointers@@QAD@Z 1002dfe5 f i libucrt:output.obj
 0001:0002d01d       ??0?$output_processor@_WV?$stream_output_adapter@_W@__crt_stdio_output@@V?$format_validation_base@_WV?$stream_output_adapter@_W@__crt_stdio_output@@@2@@__crt_stdio_output@@QAE@ABV?$stream_output_adapter@_W@1@_KQB_WQAU__crt_locale_pointers@@QAD@Z 1002e01d f i libucrt:output.obj
 0001:0002d055       ??0?$output_processor@_WV?$stream_output_adapter@_W@__crt_stdio_output@@V?$positional_parameter_base@_WV?$stream_output_adapter@_W@__crt_stdio_output@@@2@@__crt_stdio_output@@QAE@ABV?$stream_output_adapter@_W@1@_KQB_WQAU__crt_locale_pointers@@QAD@Z 1002e055 f i libucrt:output.obj
 0001:0002d085       ??0?$output_processor@_WV?$stream_output_adapter@_W@__crt_stdio_output@@V?$standard_base@_WV?$stream_output_adapter@_W@__crt_stdio_output@@@2@@__crt_stdio_output@@QAE@ABV?$stream_output_adapter@_W@1@_KQB_WQAU__crt_locale_pointers@@QAD@Z 1002e085 f i libucrt:output.obj
 0001:0002d0bd       ??0?$output_processor@_WV?$string_output_adapter@_W@__crt_stdio_output@@V?$format_validation_base@_WV?$string_output_adapter@_W@__crt_stdio_output@@@2@@__crt_stdio_output@@QAE@ABV?$string_output_adapter@_W@1@_KQB_WQAU__crt_locale_pointers@@QAD@Z 1002e0bd f i libucrt:output.obj
 0001:0002d0f5       ??0?$output_processor@_WV?$string_output_adapter@_W@__crt_stdio_output@@V?$positional_parameter_base@_WV?$string_output_adapter@_W@__crt_stdio_output@@@2@@__crt_stdio_output@@QAE@ABV?$string_output_adapter@_W@1@_KQB_WQAU__crt_locale_pointers@@QAD@Z 1002e0f5 f i libucrt:output.obj
 0001:0002d125       ??0?$output_processor@_WV?$string_output_adapter@_W@__crt_stdio_output@@V?$standard_base@_WV?$string_output_adapter@_W@__crt_stdio_output@@@2@@__crt_stdio_output@@QAE@ABV?$string_output_adapter@_W@1@_KQB_WQAU__crt_locale_pointers@@QAD@Z 1002e125 f i libucrt:output.obj
 0001:0002d15d       ??0?$stream_output_adapter@D@__crt_stdio_output@@QAE@QAU_iobuf@@@Z 1002e15d f i libucrt:output.obj
 0001:0002d171       ??0?$stream_output_adapter@_W@__crt_stdio_output@@QAE@QAU_iobuf@@@Z 1002e171 f i libucrt:output.obj
 0001:0002d185       ??0?$string_output_adapter@D@__crt_stdio_output@@QAE@QAU?$string_output_adapter_context@D@1@@Z 1002e185 f i libucrt:output.obj
 0001:0002d199       ??0?$string_output_adapter@_W@__crt_stdio_output@@QAE@QAU?$string_output_adapter_context@_W@1@@Z 1002e199 f i libucrt:output.obj
 0001:0002d1ad       ??0__crt_deferred_errno_cache@@QAE@XZ 1002e1ad f i libucrt:output.obj
 0001:0002d1b3       ??0__crt_errno_guard@@QAE@QAH@Z 1002e1b3 f i libucrt:output.obj
 0001:0002d1d1       ??0formatting_buffer@__crt_stdio_output@@QAE@XZ 1002e1d1 f i libucrt:output.obj
 0001:0002d1e6       ??1?$common_data@D@__crt_stdio_output@@QAE@XZ 1002e1e6 f i libucrt:output.obj
 0001:0002d1f0       ??1?$common_data@_W@__crt_stdio_output@@QAE@XZ 1002e1f0 f i libucrt:output.obj
 0001:0002d1fa       ??1?$format_validation_base@DV?$stream_output_adapter@D@__crt_stdio_output@@@__crt_stdio_output@@QAE@XZ 1002e1fa f i libucrt:output.obj
 0001:0002d204       ??1?$format_validation_base@DV?$string_output_adapter@D@__crt_stdio_output@@@__crt_stdio_output@@QAE@XZ 1002e204 f i libucrt:output.obj
 0001:0002d20e       ??1?$format_validation_base@_WV?$stream_output_adapter@_W@__crt_stdio_output@@@__crt_stdio_output@@QAE@XZ 1002e20e f i libucrt:output.obj
 0001:0002d218       ??1?$format_validation_base@_WV?$string_output_adapter@_W@__crt_stdio_output@@@__crt_stdio_output@@QAE@XZ 1002e218 f i libucrt:output.obj
 0001:0002d222       ??1?$output_adapter_data@DV?$stream_output_adapter@D@__crt_stdio_output@@@__crt_stdio_output@@QAE@XZ 1002e222 f i libucrt:output.obj
 0001:0002d22c       ??1?$output_adapter_data@DV?$string_output_adapter@D@__crt_stdio_output@@@__crt_stdio_output@@QAE@XZ 1002e22c f i libucrt:output.obj
 0001:0002d236       ??1?$output_adapter_data@_WV?$stream_output_adapter@_W@__crt_stdio_output@@@__crt_stdio_output@@QAE@XZ 1002e236 f i libucrt:output.obj
 0001:0002d240       ??1?$output_adapter_data@_WV?$string_output_adapter@_W@__crt_stdio_output@@@__crt_stdio_output@@QAE@XZ 1002e240 f i libucrt:output.obj
 0001:0002d24a       ??1?$output_processor@DV?$stream_output_adapter@D@__crt_stdio_output@@V?$format_validation_base@DV?$stream_output_adapter@D@__crt_stdio_output@@@2@@__crt_stdio_output@@QAE@XZ 1002e24a f i libucrt:output.obj
 0001:0002d254       ??1?$output_processor@DV?$stream_output_adapter@D@__crt_stdio_output@@V?$positional_parameter_base@DV?$stream_output_adapter@D@__crt_stdio_output@@@2@@__crt_stdio_output@@QAE@XZ 1002e254 f i libucrt:output.obj
 0001:0002d25e       ??1?$output_processor@DV?$stream_output_adapter@D@__crt_stdio_output@@V?$standard_base@DV?$stream_output_adapter@D@__crt_stdio_output@@@2@@__crt_stdio_output@@QAE@XZ 1002e25e f i libucrt:output.obj
 0001:0002d268       ??1?$output_processor@DV?$string_output_adapter@D@__crt_stdio_output@@V?$format_validation_base@DV?$string_output_adapter@D@__crt_stdio_output@@@2@@__crt_stdio_output@@QAE@XZ 1002e268 f i libucrt:output.obj
 0001:0002d272       ??1?$output_processor@DV?$string_output_adapter@D@__crt_stdio_output@@V?$positional_parameter_base@DV?$string_output_adapter@D@__crt_stdio_output@@@2@@__crt_stdio_output@@QAE@XZ 1002e272 f i libucrt:output.obj
 0001:0002d27c       ??1?$output_processor@DV?$string_output_adapter@D@__crt_stdio_output@@V?$standard_base@DV?$string_output_adapter@D@__crt_stdio_output@@@2@@__crt_stdio_output@@QAE@XZ 1002e27c f i libucrt:output.obj
 0001:0002d286       ??1?$output_processor@_WV?$stream_output_adapter@_W@__crt_stdio_output@@V?$format_validation_base@_WV?$stream_output_adapter@_W@__crt_stdio_output@@@2@@__crt_stdio_output@@QAE@XZ 1002e286 f i libucrt:output.obj
 0001:0002d290       ??1?$output_processor@_WV?$stream_output_adapter@_W@__crt_stdio_output@@V?$positional_parameter_base@_WV?$stream_output_adapter@_W@__crt_stdio_output@@@2@@__crt_stdio_output@@QAE@XZ 1002e290 f i libucrt:output.obj
 0001:0002d29a       ??1?$output_processor@_WV?$stream_output_adapter@_W@__crt_stdio_output@@V?$standard_base@_WV?$stream_output_adapter@_W@__crt_stdio_output@@@2@@__crt_stdio_output@@QAE@XZ 1002e29a f i libucrt:output.obj
 0001:0002d2a4       ??1?$output_processor@_WV?$string_output_adapter@_W@__crt_stdio_output@@V?$format_validation_base@_WV?$string_output_adapter@_W@__crt_stdio_output@@@2@@__crt_stdio_output@@QAE@XZ 1002e2a4 f i libucrt:output.obj
 0001:0002d2ae       ??1?$output_processor@_WV?$string_output_adapter@_W@__crt_stdio_output@@V?$positional_parameter_base@_WV?$string_output_adapter@_W@__crt_stdio_output@@@2@@__crt_stdio_output@@QAE@XZ 1002e2ae f i libucrt:output.obj
 0001:0002d2b8       ??1?$output_processor@_WV?$string_output_adapter@_W@__crt_stdio_output@@V?$standard_base@_WV?$string_output_adapter@_W@__crt_stdio_output@@@2@@__crt_stdio_output@@QAE@XZ 1002e2b8 f i libucrt:output.obj
 0001:0002d2c2       ??1?$positional_parameter_base@DV?$stream_output_adapter@D@__crt_stdio_output@@@__crt_stdio_output@@QAE@XZ 1002e2c2 f i libucrt:output.obj
 0001:0002d2cc       ??1?$positional_parameter_base@DV?$string_output_adapter@D@__crt_stdio_output@@@__crt_stdio_output@@QAE@XZ 1002e2cc f i libucrt:output.obj
 0001:0002d2d6       ??1?$positional_parameter_base@_WV?$stream_output_adapter@_W@__crt_stdio_output@@@__crt_stdio_output@@QAE@XZ 1002e2d6 f i libucrt:output.obj
 0001:0002d2e0       ??1?$positional_parameter_base@_WV?$string_output_adapter@_W@__crt_stdio_output@@@__crt_stdio_output@@QAE@XZ 1002e2e0 f i libucrt:output.obj
 0001:0002d2ea       ??1?$standard_base@DV?$stream_output_adapter@D@__crt_stdio_output@@@__crt_stdio_output@@QAE@XZ 1002e2ea f i libucrt:output.obj
 0001:0002d2f4       ??1?$standard_base@DV?$string_output_adapter@D@__crt_stdio_output@@@__crt_stdio_output@@QAE@XZ 1002e2f4 f i libucrt:output.obj
 0001:0002d2fe       ??1?$standard_base@_WV?$stream_output_adapter@_W@__crt_stdio_output@@@__crt_stdio_output@@QAE@XZ 1002e2fe f i libucrt:output.obj
 0001:0002d308       ??1?$standard_base@_WV?$string_output_adapter@_W@__crt_stdio_output@@@__crt_stdio_output@@QAE@XZ 1002e308 f i libucrt:output.obj
 0001:0002d312       ??1__crt_errno_guard@@QAE@XZ 1002e312 f i libucrt:output.obj
 0001:0002d327       ??1formatting_buffer@__crt_stdio_output@@QAE@XZ 1002e327 f i libucrt:output.obj
 0001:0002d347       ??4?$__crt_unique_heap_ptr@DU__crt_internal_free_policy@@@@QAEAAV0@$$QAV0@@Z 1002e347 f i libucrt:output.obj
 0001:0002da22       ?adjust_hexit@?$output_processor@DV?$stream_output_adapter@D@__crt_stdio_output@@V?$format_validation_base@DV?$stream_output_adapter@D@__crt_stdio_output@@@2@@__crt_stdio_output@@CADH_N@Z 1002ea22 f i libucrt:output.obj
 0001:0002da3b       ?adjust_hexit@?$output_processor@DV?$stream_output_adapter@D@__crt_stdio_output@@V?$positional_parameter_base@DV?$stream_output_adapter@D@__crt_stdio_output@@@2@@__crt_stdio_output@@CADH_N@Z 1002ea3b f i libucrt:output.obj
 0001:0002da54       ?adjust_hexit@?$output_processor@DV?$stream_output_adapter@D@__crt_stdio_output@@V?$standard_base@DV?$stream_output_adapter@D@__crt_stdio_output@@@2@@__crt_stdio_output@@CADH_N@Z 1002ea54 f i libucrt:output.obj
 0001:0002da6d       ?adjust_hexit@?$output_processor@DV?$string_output_adapter@D@__crt_stdio_output@@V?$format_validation_base@DV?$string_output_adapter@D@__crt_stdio_output@@@2@@__crt_stdio_output@@CADH_N@Z 1002ea6d f i libucrt:output.obj
 0001:0002da86       ?adjust_hexit@?$output_processor@DV?$string_output_adapter@D@__crt_stdio_output@@V?$positional_parameter_base@DV?$string_output_adapter@D@__crt_stdio_output@@@2@@__crt_stdio_output@@CADH_N@Z 1002ea86 f i libucrt:output.obj
 0001:0002da9f       ?adjust_hexit@?$output_processor@DV?$string_output_adapter@D@__crt_stdio_output@@V?$standard_base@DV?$string_output_adapter@D@__crt_stdio_output@@@2@@__crt_stdio_output@@CADH_N@Z 1002ea9f f i libucrt:output.obj
 0001:0002dab8       ?adjust_hexit@?$output_processor@_WV?$stream_output_adapter@_W@__crt_stdio_output@@V?$format_validation_base@_WV?$stream_output_adapter@_W@__crt_stdio_output@@@2@@__crt_stdio_output@@CADH_N@Z 1002eab8 f i libucrt:output.obj
 0001:0002dad1       ?adjust_hexit@?$output_processor@_WV?$stream_output_adapter@_W@__crt_stdio_output@@V?$positional_parameter_base@_WV?$stream_output_adapter@_W@__crt_stdio_output@@@2@@__crt_stdio_output@@CADH_N@Z 1002ead1 f i libucrt:output.obj
 0001:0002daea       ?adjust_hexit@?$output_processor@_WV?$stream_output_adapter@_W@__crt_stdio_output@@V?$standard_base@_WV?$stream_output_adapter@_W@__crt_stdio_output@@@2@@__crt_stdio_output@@CADH_N@Z 1002eaea f i libucrt:output.obj
 0001:0002db03       ?adjust_hexit@?$output_processor@_WV?$string_output_adapter@_W@__crt_stdio_output@@V?$format_validation_base@_WV?$string_output_adapter@_W@__crt_stdio_output@@@2@@__crt_stdio_output@@CADH_N@Z 1002eb03 f i libucrt:output.obj
 0001:0002db1c       ?adjust_hexit@?$output_processor@_WV?$string_output_adapter@_W@__crt_stdio_output@@V?$positional_parameter_base@_WV?$string_output_adapter@_W@__crt_stdio_output@@@2@@__crt_stdio_output@@CADH_N@Z 1002eb1c f i libucrt:output.obj
 0001:0002db35       ?adjust_hexit@?$output_processor@_WV?$string_output_adapter@_W@__crt_stdio_output@@V?$standard_base@_WV?$string_output_adapter@_W@__crt_stdio_output@@@2@@__crt_stdio_output@@CADH_N@Z 1002eb35 f i libucrt:output.obj
 0001:0002db4e       ?advance_to_next_pass@?$positional_parameter_base@DV?$stream_output_adapter@D@__crt_stdio_output@@@__crt_stdio_output@@IAE_NXZ 1002eb4e f i libucrt:output.obj
 0001:0002dbad       ?advance_to_next_pass@?$positional_parameter_base@DV?$string_output_adapter@D@__crt_stdio_output@@@__crt_stdio_output@@IAE_NXZ 1002ebad f i libucrt:output.obj
 0001:0002dc0c       ?advance_to_next_pass@?$positional_parameter_base@_WV?$stream_output_adapter@_W@__crt_stdio_output@@@__crt_stdio_output@@IAE_NXZ 1002ec0c f i libucrt:output.obj
 0001:0002dc6b       ?advance_to_next_pass@?$positional_parameter_base@_WV?$string_output_adapter@_W@__crt_stdio_output@@@__crt_stdio_output@@IAE_NXZ 1002ec6b f i libucrt:output.obj
 0001:0002dcca       ?advance_to_next_pass@?$standard_base@DV?$stream_output_adapter@D@__crt_stdio_output@@@__crt_stdio_output@@IAE_NXZ 1002ecca f i libucrt:output.obj
 0001:0002dcdf       ?advance_to_next_pass@?$standard_base@DV?$string_output_adapter@D@__crt_stdio_output@@@__crt_stdio_output@@IAE_NXZ 1002ecdf f i libucrt:output.obj
 0001:0002dcf4       ?advance_to_next_pass@?$standard_base@_WV?$stream_output_adapter@_W@__crt_stdio_output@@@__crt_stdio_output@@IAE_NXZ 1002ecf4 f i libucrt:output.obj
 0001:0002dd09       ?advance_to_next_pass@?$standard_base@_WV?$string_output_adapter@_W@__crt_stdio_output@@@__crt_stdio_output@@IAE_NXZ 1002ed09 f i libucrt:output.obj
 0001:0002dd1e       ?crop_zeroes@__crt_stdio_output@@YAXPADQAU__crt_locale_pointers@@@Z 1002ed1e f i libucrt:output.obj
 0001:0002dd96       ?find_next_state@?$output_processor@DV?$stream_output_adapter@D@__crt_stdio_output@@V?$format_validation_base@DV?$stream_output_adapter@D@__crt_stdio_output@@@2@@__crt_stdio_output@@ABE?AW4state@2@DW432@@Z 1002ed96 f i libucrt:output.obj
 0001:0002dde8       ?find_next_state@?$output_processor@DV?$stream_output_adapter@D@__crt_stdio_output@@V?$positional_parameter_base@DV?$stream_output_adapter@D@__crt_stdio_output@@@2@@__crt_stdio_output@@ABE?AW4state@2@DW432@@Z 1002ede8 f i libucrt:output.obj
 0001:0002de3a       ?find_next_state@?$output_processor@DV?$stream_output_adapter@D@__crt_stdio_output@@V?$standard_base@DV?$stream_output_adapter@D@__crt_stdio_output@@@2@@__crt_stdio_output@@ABE?AW4state@2@DW432@@Z 1002ee3a f i libucrt:output.obj
 0001:0002de88       ?find_next_state@?$output_processor@DV?$string_output_adapter@D@__crt_stdio_output@@V?$format_validation_base@DV?$string_output_adapter@D@__crt_stdio_output@@@2@@__crt_stdio_output@@ABE?AW4state@2@DW432@@Z 1002ee88 f i libucrt:output.obj
 0001:0002deda       ?find_next_state@?$output_processor@DV?$string_output_adapter@D@__crt_stdio_output@@V?$positional_parameter_base@DV?$string_output_adapter@D@__crt_stdio_output@@@2@@__crt_stdio_output@@ABE?AW4state@2@DW432@@Z 1002eeda f i libucrt:output.obj
 0001:0002df2c       ?find_next_state@?$output_processor@DV?$string_output_adapter@D@__crt_stdio_output@@V?$standard_base@DV?$string_output_adapter@D@__crt_stdio_output@@@2@@__crt_stdio_output@@ABE?AW4state@2@DW432@@Z 1002ef2c f i libucrt:output.obj
 0001:0002df7a       ?find_next_state@?$output_processor@_WV?$stream_output_adapter@_W@__crt_stdio_output@@V?$format_validation_base@_WV?$stream_output_adapter@_W@__crt_stdio_output@@@2@@__crt_stdio_output@@ABE?AW4state@2@_WW432@@Z 1002ef7a f i libucrt:output.obj
 0001:0002dfcf       ?find_next_state@?$output_processor@_WV?$stream_output_adapter@_W@__crt_stdio_output@@V?$positional_parameter_base@_WV?$stream_output_adapter@_W@__crt_stdio_output@@@2@@__crt_stdio_output@@ABE?AW4state@2@_WW432@@Z 1002efcf f i libucrt:output.obj
 0001:0002e024       ?find_next_state@?$output_processor@_WV?$stream_output_adapter@_W@__crt_stdio_output@@V?$standard_base@_WV?$stream_output_adapter@_W@__crt_stdio_output@@@2@@__crt_stdio_output@@ABE?AW4state@2@_WW432@@Z 1002f024 f i libucrt:output.obj
 0001:0002e075       ?find_next_state@?$output_processor@_WV?$string_output_adapter@_W@__crt_stdio_output@@V?$format_validation_base@_WV?$string_output_adapter@_W@__crt_stdio_output@@@2@@__crt_stdio_output@@ABE?AW4state@2@_WW432@@Z 1002f075 f i libucrt:output.obj
 0001:0002e0ca       ?find_next_state@?$output_processor@_WV?$string_output_adapter@_W@__crt_stdio_output@@V?$positional_parameter_base@_WV?$string_output_adapter@_W@__crt_stdio_output@@@2@@__crt_stdio_output@@ABE?AW4state@2@_WW432@@Z 1002f0ca f i libucrt:output.obj
 0001:0002e11f       ?find_next_state@?$output_processor@_WV?$string_output_adapter@_W@__crt_stdio_output@@V?$standard_base@_WV?$string_output_adapter@_W@__crt_stdio_output@@@2@@__crt_stdio_output@@ABE?AW4state@2@_WW432@@Z 1002f11f f i libucrt:output.obj
 0001:0002e170       ?force_decimal_point@__crt_stdio_output@@YAXPADQAU__crt_locale_pointers@@@Z 1002f170 f i libucrt:output.obj
 0001:0002e1e3       ?get@__crt_deferred_errno_cache@@QAEAAHXZ 1002f1e3 f i libucrt:output.obj
 0001:0002e1fc       ?get_parameter_type@?$positional_parameter_base@DV?$stream_output_adapter@D@__crt_stdio_output@@@__crt_stdio_output@@CA?AW4parameter_type@12@F@Z 1002f1fc f i libucrt:output.obj
 0001:0002e200       ?get_parameter_type@?$positional_parameter_base@DV?$stream_output_adapter@D@__crt_stdio_output@@@__crt_stdio_output@@CA?AW4parameter_type@12@G@Z 1002f200 f i libucrt:output.obj
 0001:0002e204       ?get_parameter_type@?$positional_parameter_base@DV?$stream_output_adapter@D@__crt_stdio_output@@@__crt_stdio_output@@CA?AW4parameter_type@12@H@Z 1002f204 f i libucrt:output.obj
 0001:0002e208       ?get_parameter_type@?$positional_parameter_base@DV?$stream_output_adapter@D@__crt_stdio_output@@@__crt_stdio_output@@CA?AW4parameter_type@12@I@Z 1002f208 f i libucrt:output.obj
 0001:0002e20c       ?get_parameter_type@?$positional_parameter_base@DV?$stream_output_adapter@D@__crt_stdio_output@@@__crt_stdio_output@@CA?AW4parameter_type@12@U_CRT_DOUBLE@@@Z 1002f20c f i libucrt:output.obj
 0001:0002e210       ?get_parameter_type@?$positional_parameter_base@DV?$stream_output_adapter@D@__crt_stdio_output@@@__crt_stdio_output@@CA?AW4parameter_type@12@_J@Z 1002f210 f i libucrt:output.obj
 0001:0002e214       ?get_parameter_type@?$positional_parameter_base@DV?$stream_output_adapter@D@__crt_stdio_output@@@__crt_stdio_output@@CA?AW4parameter_type@12@_K@Z 1002f214 f i libucrt:output.obj
 0001:0002e218       ?get_parameter_type@?$positional_parameter_base@DV?$stream_output_adapter@D@__crt_stdio_output@@@__crt_stdio_output@@CA?AW4parameter_type@12@_W@Z 1002f218 f i libucrt:output.obj
 0001:0002e21c       ?get_parameter_type@?$positional_parameter_base@DV?$string_output_adapter@D@__crt_stdio_output@@@__crt_stdio_output@@CA?AW4parameter_type@12@F@Z 1002f21c f i libucrt:output.obj
 0001:0002e220       ?get_parameter_type@?$positional_parameter_base@DV?$string_output_adapter@D@__crt_stdio_output@@@__crt_stdio_output@@CA?AW4parameter_type@12@G@Z 1002f220 f i libucrt:output.obj
 0001:0002e224       ?get_parameter_type@?$positional_parameter_base@DV?$string_output_adapter@D@__crt_stdio_output@@@__crt_stdio_output@@CA?AW4parameter_type@12@H@Z 1002f224 f i libucrt:output.obj
 0001:0002e228       ?get_parameter_type@?$positional_parameter_base@DV?$string_output_adapter@D@__crt_stdio_output@@@__crt_stdio_output@@CA?AW4parameter_type@12@I@Z 1002f228 f i libucrt:output.obj
 0001:0002e22c       ?get_parameter_type@?$positional_parameter_base@DV?$string_output_adapter@D@__crt_stdio_output@@@__crt_stdio_output@@CA?AW4parameter_type@12@U_CRT_DOUBLE@@@Z 1002f22c f i libucrt:output.obj
 0001:0002e230       ?get_parameter_type@?$positional_parameter_base@DV?$string_output_adapter@D@__crt_stdio_output@@@__crt_stdio_output@@CA?AW4parameter_type@12@_J@Z 1002f230 f i libucrt:output.obj
 0001:0002e234       ?get_parameter_type@?$positional_parameter_base@DV?$string_output_adapter@D@__crt_stdio_output@@@__crt_stdio_output@@CA?AW4parameter_type@12@_K@Z 1002f234 f i libucrt:output.obj
 0001:0002e238       ?get_parameter_type@?$positional_parameter_base@DV?$string_output_adapter@D@__crt_stdio_output@@@__crt_stdio_output@@CA?AW4parameter_type@12@_W@Z 1002f238 f i libucrt:output.obj
 0001:0002e23c       ?get_parameter_type@?$positional_parameter_base@_WV?$stream_output_adapter@_W@__crt_stdio_output@@@__crt_stdio_output@@CA?AW4parameter_type@12@F@Z 1002f23c f i libucrt:output.obj
 0001:0002e240       ?get_parameter_type@?$positional_parameter_base@_WV?$stream_output_adapter@_W@__crt_stdio_output@@@__crt_stdio_output@@CA?AW4parameter_type@12@G@Z 1002f240 f i libucrt:output.obj
 0001:0002e244       ?get_parameter_type@?$positional_parameter_base@_WV?$stream_output_adapter@_W@__crt_stdio_output@@@__crt_stdio_output@@CA?AW4parameter_type@12@H@Z 1002f244 f i libucrt:output.obj
 0001:0002e248       ?get_parameter_type@?$positional_parameter_base@_WV?$stream_output_adapter@_W@__crt_stdio_output@@@__crt_stdio_output@@CA?AW4parameter_type@12@I@Z 1002f248 f i libucrt:output.obj
 0001:0002e24c       ?get_parameter_type@?$positional_parameter_base@_WV?$stream_output_adapter@_W@__crt_stdio_output@@@__crt_stdio_output@@CA?AW4parameter_type@12@U_CRT_DOUBLE@@@Z 1002f24c f i libucrt:output.obj
 0001:0002e250       ?get_parameter_type@?$positional_parameter_base@_WV?$stream_output_adapter@_W@__crt_stdio_output@@@__crt_stdio_output@@CA?AW4parameter_type@12@_J@Z 1002f250 f i libucrt:output.obj
 0001:0002e254       ?get_parameter_type@?$positional_parameter_base@_WV?$stream_output_adapter@_W@__crt_stdio_output@@@__crt_stdio_output@@CA?AW4parameter_type@12@_K@Z 1002f254 f i libucrt:output.obj
 0001:0002e258       ?get_parameter_type@?$positional_parameter_base@_WV?$stream_output_adapter@_W@__crt_stdio_output@@@__crt_stdio_output@@CA?AW4parameter_type@12@_W@Z 1002f258 f i libucrt:output.obj
 0001:0002e25c       ?get_parameter_type@?$positional_parameter_base@_WV?$string_output_adapter@_W@__crt_stdio_output@@@__crt_stdio_output@@CA?AW4parameter_type@12@F@Z 1002f25c f i libucrt:output.obj
 0001:0002e260       ?get_parameter_type@?$positional_parameter_base@_WV?$string_output_adapter@_W@__crt_stdio_output@@@__crt_stdio_output@@CA?AW4parameter_type@12@G@Z 1002f260 f i libucrt:output.obj
 0001:0002e264       ?get_parameter_type@?$positional_parameter_base@_WV?$string_output_adapter@_W@__crt_stdio_output@@@__crt_stdio_output@@CA?AW4parameter_type@12@H@Z 1002f264 f i libucrt:output.obj
 0001:0002e268       ?get_parameter_type@?$positional_parameter_base@_WV?$string_output_adapter@_W@__crt_stdio_output@@@__crt_stdio_output@@CA?AW4parameter_type@12@I@Z 1002f268 f i libucrt:output.obj
 0001:0002e26c       ?get_parameter_type@?$positional_parameter_base@_WV?$string_output_adapter@_W@__crt_stdio_output@@@__crt_stdio_output@@CA?AW4parameter_type@12@U_CRT_DOUBLE@@@Z 1002f26c f i libucrt:output.obj
 0001:0002e270       ?get_parameter_type@?$positional_parameter_base@_WV?$string_output_adapter@_W@__crt_stdio_output@@@__crt_stdio_output@@CA?AW4parameter_type@12@_J@Z 1002f270 f i libucrt:output.obj
 0001:0002e274       ?get_parameter_type@?$positional_parameter_base@_WV?$string_output_adapter@_W@__crt_stdio_output@@@__crt_stdio_output@@CA?AW4parameter_type@12@_K@Z 1002f274 f i libucrt:output.obj
 0001:0002e278       ?get_parameter_type@?$positional_parameter_base@_WV?$string_output_adapter@_W@__crt_stdio_output@@@__crt_stdio_output@@CA?AW4parameter_type@12@_W@Z 1002f278 f i libucrt:output.obj
 0001:0002e27c       ?has_flag@?$output_processor@DV?$stream_output_adapter@D@__crt_stdio_output@@V?$format_validation_base@DV?$stream_output_adapter@D@__crt_stdio_output@@@2@@__crt_stdio_output@@ABE_NI@Z 1002f27c f i libucrt:output.obj
 0001:0002e292       ?has_flag@?$output_processor@DV?$stream_output_adapter@D@__crt_stdio_output@@V?$positional_parameter_base@DV?$stream_output_adapter@D@__crt_stdio_output@@@2@@__crt_stdio_output@@ABE_NI@Z 1002f292 f i libucrt:output.obj
 0001:0002e2a8       ?has_flag@?$output_processor@DV?$stream_output_adapter@D@__crt_stdio_output@@V?$standard_base@DV?$stream_output_adapter@D@__crt_stdio_output@@@2@@__crt_stdio_output@@ABE_NI@Z 1002f2a8 f i libucrt:output.obj
 0001:0002e2be       ?has_flag@?$output_processor@DV?$string_output_adapter@D@__crt_stdio_output@@V?$format_validation_base@DV?$string_output_adapter@D@__crt_stdio_output@@@2@@__crt_stdio_output@@ABE_NI@Z 1002f2be f i libucrt:output.obj
 0001:0002e2d4       ?has_flag@?$output_processor@DV?$string_output_adapter@D@__crt_stdio_output@@V?$positional_parameter_base@DV?$string_output_adapter@D@__crt_stdio_output@@@2@@__crt_stdio_output@@ABE_NI@Z 1002f2d4 f i libucrt:output.obj
 0001:0002e2ea       ?has_flag@?$output_processor@DV?$string_output_adapter@D@__crt_stdio_output@@V?$standard_base@DV?$string_output_adapter@D@__crt_stdio_output@@@2@@__crt_stdio_output@@ABE_NI@Z 1002f2ea f i libucrt:output.obj
 0001:0002e300       ?has_flag@?$output_processor@_WV?$stream_output_adapter@_W@__crt_stdio_output@@V?$format_validation_base@_WV?$stream_output_adapter@_W@__crt_stdio_output@@@2@@__crt_stdio_output@@ABE_NI@Z 1002f300 f i libucrt:output.obj
 0001:0002e316       ?has_flag@?$output_processor@_WV?$stream_output_adapter@_W@__crt_stdio_output@@V?$positional_parameter_base@_WV?$stream_output_adapter@_W@__crt_stdio_output@@@2@@__crt_stdio_output@@ABE_NI@Z 1002f316 f i libucrt:output.obj
 0001:0002e32c       ?has_flag@?$output_processor@_WV?$stream_output_adapter@_W@__crt_stdio_output@@V?$standard_base@_WV?$stream_output_adapter@_W@__crt_stdio_output@@@2@@__crt_stdio_output@@ABE_NI@Z 1002f32c f i libucrt:output.obj
 0001:0002e342       ?has_flag@?$output_processor@_WV?$string_output_adapter@_W@__crt_stdio_output@@V?$format_validation_base@_WV?$string_output_adapter@_W@__crt_stdio_output@@@2@@__crt_stdio_output@@ABE_NI@Z 1002f342 f i libucrt:output.obj
 0001:0002e358       ?has_flag@?$output_processor@_WV?$string_output_adapter@_W@__crt_stdio_output@@V?$positional_parameter_base@_WV?$string_output_adapter@_W@__crt_stdio_output@@@2@@__crt_stdio_output@@ABE_NI@Z 1002f358 f i libucrt:output.obj
 0001:0002e36e       ?has_flag@?$output_processor@_WV?$string_output_adapter@_W@__crt_stdio_output@@V?$standard_base@_WV?$string_output_adapter@_W@__crt_stdio_output@@@2@@__crt_stdio_output@@ABE_NI@Z 1002f36e f i libucrt:output.obj
 0001:0002e384       ?is_positional_parameter_reappearance_consistent@?$positional_parameter_base@DV?$stream_output_adapter@D@__crt_stdio_output@@@__crt_stdio_output@@AAE_NABUparameter_data@12@W4parameter_type@12@DW4length_modifier@2@@Z 1002f384 f i libucrt:output.obj
 0001:0002e4e4       ?is_positional_parameter_reappearance_consistent@?$positional_parameter_base@DV?$string_output_adapter@D@__crt_stdio_output@@@__crt_stdio_output@@AAE_NABUparameter_data@12@W4parameter_type@12@DW4length_modifier@2@@Z 1002f4e4 f i libucrt:output.obj
 0001:0002e644       ?is_positional_parameter_reappearance_consistent@?$positional_parameter_base@_WV?$stream_output_adapter@_W@__crt_stdio_output@@@__crt_stdio_output@@AAE_NABUparameter_data@12@W4parameter_type@12@_WW4length_modifier@2@@Z 1002f644 f i libucrt:output.obj
 0001:0002e7a3       ?is_positional_parameter_reappearance_consistent@?$positional_parameter_base@_WV?$string_output_adapter@_W@__crt_stdio_output@@@__crt_stdio_output@@AAE_NABUparameter_data@12@W4parameter_type@12@_WW4length_modifier@2@@Z 1002f7a3 f i libucrt:output.obj
 0001:0002e902       ?narrow_null_string@?$output_processor@DV?$stream_output_adapter@D@__crt_stdio_output@@V?$format_validation_base@DV?$stream_output_adapter@D@__crt_stdio_output@@@2@@__crt_stdio_output@@CAPADXZ 1002f902 f i libucrt:output.obj
 0001:0002e908       ?narrow_null_string@?$output_processor@DV?$stream_output_adapter@D@__crt_stdio_output@@V?$positional_parameter_base@DV?$stream_output_adapter@D@__crt_stdio_output@@@2@@__crt_stdio_output@@CAPADXZ 1002f908 f i libucrt:output.obj
 0001:0002e90e       ?narrow_null_string@?$output_processor@DV?$stream_output_adapter@D@__crt_stdio_output@@V?$standard_base@DV?$stream_output_adapter@D@__crt_stdio_output@@@2@@__crt_stdio_output@@CAPADXZ 1002f90e f i libucrt:output.obj
 0001:0002e914       ?narrow_null_string@?$output_processor@DV?$string_output_adapter@D@__crt_stdio_output@@V?$format_validation_base@DV?$string_output_adapter@D@__crt_stdio_output@@@2@@__crt_stdio_output@@CAPADXZ 1002f914 f i libucrt:output.obj
 0001:0002e91a       ?narrow_null_string@?$output_processor@DV?$string_output_adapter@D@__crt_stdio_output@@V?$positional_parameter_base@DV?$string_output_adapter@D@__crt_stdio_output@@@2@@__crt_stdio_output@@CAPADXZ 1002f91a f i libucrt:output.obj
 0001:0002e920       ?narrow_null_string@?$output_processor@DV?$string_output_adapter@D@__crt_stdio_output@@V?$standard_base@DV?$string_output_adapter@D@__crt_stdio_output@@@2@@__crt_stdio_output@@CAPADXZ 1002f920 f i libucrt:output.obj
 0001:0002e926       ?narrow_null_string@?$output_processor@_WV?$stream_output_adapter@_W@__crt_stdio_output@@V?$format_validation_base@_WV?$stream_output_adapter@_W@__crt_stdio_output@@@2@@__crt_stdio_output@@CAPADXZ 1002f926 f i libucrt:output.obj
 0001:0002e92c       ?narrow_null_string@?$output_processor@_WV?$stream_output_adapter@_W@__crt_stdio_output@@V?$positional_parameter_base@_WV?$stream_output_adapter@_W@__crt_stdio_output@@@2@@__crt_stdio_output@@CAPADXZ 1002f92c f i libucrt:output.obj
 0001:0002e932       ?narrow_null_string@?$output_processor@_WV?$stream_output_adapter@_W@__crt_stdio_output@@V?$standard_base@_WV?$stream_output_adapter@_W@__crt_stdio_output@@@2@@__crt_stdio_output@@CAPADXZ 1002f932 f i libucrt:output.obj
 0001:0002e938       ?narrow_null_string@?$output_processor@_WV?$string_output_adapter@_W@__crt_stdio_output@@V?$format_validation_base@_WV?$string_output_adapter@_W@__crt_stdio_output@@@2@@__crt_stdio_output@@CAPADXZ 1002f938 f i libucrt:output.obj
 0001:0002e93e       ?narrow_null_string@?$output_processor@_WV?$string_output_adapter@_W@__crt_stdio_output@@V?$positional_parameter_base@_WV?$string_output_adapter@_W@__crt_stdio_output@@@2@@__crt_stdio_output@@CAPADXZ 1002f93e f i libucrt:output.obj
 0001:0002e944       ?narrow_null_string@?$output_processor@_WV?$string_output_adapter@_W@__crt_stdio_output@@V?$standard_base@_WV?$string_output_adapter@_W@__crt_stdio_output@@@2@@__crt_stdio_output@@CAPADXZ 1002f944 f i libucrt:output.obj
 0001:0002e94a       ?parse_int_from_format_string@?$output_processor@DV?$stream_output_adapter@D@__crt_stdio_output@@V?$format_validation_base@DV?$stream_output_adapter@D@__crt_stdio_output@@@2@@__crt_stdio_output@@AAE_NQAH@Z 1002f94a f i libucrt:output.obj
 0001:0002e9dd       ?parse_int_from_format_string@?$output_processor@DV?$stream_output_adapter@D@__crt_stdio_output@@V?$positional_parameter_base@DV?$stream_output_adapter@D@__crt_stdio_output@@@2@@__crt_stdio_output@@AAE_NQAH@Z 1002f9dd f i libucrt:output.obj
 0001:0002ea70       ?parse_int_from_format_string@?$output_processor@DV?$stream_output_adapter@D@__crt_stdio_output@@V?$standard_base@DV?$stream_output_adapter@D@__crt_stdio_output@@@2@@__crt_stdio_output@@AAE_NQAH@Z 1002fa70 f i libucrt:output.obj
 0001:0002eb03       ?parse_int_from_format_string@?$output_processor@DV?$string_output_adapter@D@__crt_stdio_output@@V?$format_validation_base@DV?$string_output_adapter@D@__crt_stdio_output@@@2@@__crt_stdio_output@@AAE_NQAH@Z 1002fb03 f i libucrt:output.obj
 0001:0002eb96       ?parse_int_from_format_string@?$output_processor@DV?$string_output_adapter@D@__crt_stdio_output@@V?$positional_parameter_base@DV?$string_output_adapter@D@__crt_stdio_output@@@2@@__crt_stdio_output@@AAE_NQAH@Z 1002fb96 f i libucrt:output.obj
 0001:0002ec29       ?parse_int_from_format_string@?$output_processor@DV?$string_output_adapter@D@__crt_stdio_output@@V?$standard_base@DV?$string_output_adapter@D@__crt_stdio_output@@@2@@__crt_stdio_output@@AAE_NQAH@Z 1002fc29 f i libucrt:output.obj
 0001:0002ecbc       ?parse_int_from_format_string@?$output_processor@_WV?$stream_output_adapter@_W@__crt_stdio_output@@V?$format_validation_base@_WV?$stream_output_adapter@_W@__crt_stdio_output@@@2@@__crt_stdio_output@@AAE_NQAH@Z 1002fcbc f i libucrt:output.obj
 0001:0002ed52       ?parse_int_from_format_string@?$output_processor@_WV?$stream_output_adapter@_W@__crt_stdio_output@@V?$positional_parameter_base@_WV?$stream_output_adapter@_W@__crt_stdio_output@@@2@@__crt_stdio_output@@AAE_NQAH@Z 1002fd52 f i libucrt:output.obj
 0001:0002ede8       ?parse_int_from_format_string@?$output_processor@_WV?$stream_output_adapter@_W@__crt_stdio_output@@V?$standard_base@_WV?$stream_output_adapter@_W@__crt_stdio_output@@@2@@__crt_stdio_output@@AAE_NQAH@Z 1002fde8 f i libucrt:output.obj
 0001:0002ee7e       ?parse_int_from_format_string@?$output_processor@_WV?$string_output_adapter@_W@__crt_stdio_output@@V?$format_validation_base@_WV?$string_output_adapter@_W@__crt_stdio_output@@@2@@__crt_stdio_output@@AAE_NQAH@Z 1002fe7e f i libucrt:output.obj
 0001:0002ef14       ?parse_int_from_format_string@?$output_processor@_WV?$string_output_adapter@_W@__crt_stdio_output@@V?$positional_parameter_base@_WV?$string_output_adapter@_W@__crt_stdio_output@@@2@@__crt_stdio_output@@AAE_NQAH@Z 1002ff14 f i libucrt:output.obj
 0001:0002efaa       ?parse_int_from_format_string@?$output_processor@_WV?$string_output_adapter@_W@__crt_stdio_output@@V?$standard_base@_WV?$string_output_adapter@_W@__crt_stdio_output@@@2@@__crt_stdio_output@@AAE_NQAH@Z 1002ffaa f i libucrt:output.obj
 0001:0002f040       ?process@?$output_processor@DV?$stream_output_adapter@D@__crt_stdio_output@@V?$format_validation_base@DV?$stream_output_adapter@D@__crt_stdio_output@@@2@@__crt_stdio_output@@QAEHXZ 10030040 f i libucrt:output.obj
 0001:0002f1b2       ?process@?$output_processor@DV?$stream_output_adapter@D@__crt_stdio_output@@V?$positional_parameter_base@DV?$stream_output_adapter@D@__crt_stdio_output@@@2@@__crt_stdio_output@@QAEHXZ 100301b2 f i libucrt:output.obj
 0001:0002f365       ?process@?$output_processor@DV?$stream_output_adapter@D@__crt_stdio_output@@V?$standard_base@DV?$stream_output_adapter@D@__crt_stdio_output@@@2@@__crt_stdio_output@@QAEHXZ 10030365 f i libucrt:output.obj
 0001:0002f4c8       ?process@?$output_processor@DV?$string_output_adapter@D@__crt_stdio_output@@V?$format_validation_base@DV?$string_output_adapter@D@__crt_stdio_output@@@2@@__crt_stdio_output@@QAEHXZ 100304c8 f i libucrt:output.obj
 0001:0002f63a       ?process@?$output_processor@DV?$string_output_adapter@D@__crt_stdio_output@@V?$positional_parameter_base@DV?$string_output_adapter@D@__crt_stdio_output@@@2@@__crt_stdio_output@@QAEHXZ 1003063a f i libucrt:output.obj
 0001:0002f7ed       ?process@?$output_processor@DV?$string_output_adapter@D@__crt_stdio_output@@V?$standard_base@DV?$string_output_adapter@D@__crt_stdio_output@@@2@@__crt_stdio_output@@QAEHXZ 100307ed f i libucrt:output.obj
 0001:0002f950       ?process@?$output_processor@_WV?$stream_output_adapter@_W@__crt_stdio_output@@V?$format_validation_base@_WV?$stream_output_adapter@_W@__crt_stdio_output@@@2@@__crt_stdio_output@@QAEHXZ 10030950 f i libucrt:output.obj
 0001:0002facc       ?process@?$output_processor@_WV?$stream_output_adapter@_W@__crt_stdio_output@@V?$positional_parameter_base@_WV?$stream_output_adapter@_W@__crt_stdio_output@@@2@@__crt_stdio_output@@QAEHXZ 10030acc f i libucrt:output.obj
 0001:0002fc84       ?process@?$output_processor@_WV?$stream_output_adapter@_W@__crt_stdio_output@@V?$standard_base@_WV?$stream_output_adapter@_W@__crt_stdio_output@@@2@@__crt_stdio_output@@QAEHXZ 10030c84 f i libucrt:output.obj
 0001:0002fdec       ?process@?$output_processor@_WV?$string_output_adapter@_W@__crt_stdio_output@@V?$format_validation_base@_WV?$string_output_adapter@_W@__crt_stdio_output@@@2@@__crt_stdio_output@@QAEHXZ 10030dec f i libucrt:output.obj
 0001:0002ff68       ?process@?$output_processor@_WV?$string_output_adapter@_W@__crt_stdio_output@@V?$positional_parameter_base@_WV?$string_output_adapter@_W@__crt_stdio_output@@@2@@__crt_stdio_output@@QAEHXZ 10030f68 f i libucrt:output.obj
 0001:00030120       ?process@?$output_processor@_WV?$string_output_adapter@_W@__crt_stdio_output@@V?$standard_base@_WV?$string_output_adapter@_W@__crt_stdio_output@@@2@@__crt_stdio_output@@QAEHXZ 10031120 f i libucrt:output.obj
 0001:00030288       ?set_flag@?$output_processor@DV?$stream_output_adapter@D@__crt_stdio_output@@V?$format_validation_base@DV?$stream_output_adapter@D@__crt_stdio_output@@@2@@__crt_stdio_output@@AAEXI@Z 10031288 f i libucrt:output.obj
 0001:0003029a       ?set_flag@?$output_processor@DV?$stream_output_adapter@D@__crt_stdio_output@@V?$positional_parameter_base@DV?$stream_output_adapter@D@__crt_stdio_output@@@2@@__crt_stdio_output@@AAEXI@Z 1003129a f i libucrt:output.obj
 0001:000302ac       ?set_flag@?$output_processor@DV?$stream_output_adapter@D@__crt_stdio_output@@V?$standard_base@DV?$stream_output_adapter@D@__crt_stdio_output@@@2@@__crt_stdio_output@@AAEXI@Z 100312ac f i libucrt:output.obj
 0001:000302be       ?set_flag@?$output_processor@DV?$string_output_adapter@D@__crt_stdio_output@@V?$format_validation_base@DV?$string_output_adapter@D@__crt_stdio_output@@@2@@__crt_stdio_output@@AAEXI@Z 100312be f i libucrt:output.obj
 0001:000302d0       ?set_flag@?$output_processor@DV?$string_output_adapter@D@__crt_stdio_output@@V?$positional_parameter_base@DV?$string_output_adapter@D@__crt_stdio_output@@@2@@__crt_stdio_output@@AAEXI@Z 100312d0 f i libucrt:output.obj
 0001:000302e2       ?set_flag@?$output_processor@DV?$string_output_adapter@D@__crt_stdio_output@@V?$standard_base@DV?$string_output_adapter@D@__crt_stdio_output@@@2@@__crt_stdio_output@@AAEXI@Z 100312e2 f i libucrt:output.obj
 0001:000302f4       ?set_flag@?$output_processor@_WV?$stream_output_adapter@_W@__crt_stdio_output@@V?$format_validation_base@_WV?$stream_output_adapter@_W@__crt_stdio_output@@@2@@__crt_stdio_output@@AAEXI@Z 100312f4 f i libucrt:output.obj
 0001:00030306       ?set_flag@?$output_processor@_WV?$stream_output_adapter@_W@__crt_stdio_output@@V?$positional_parameter_base@_WV?$stream_output_adapter@_W@__crt_stdio_output@@@2@@__crt_stdio_output@@AAEXI@Z 10031306 f i libucrt:output.obj
 0001:00030318       ?set_flag@?$output_processor@_WV?$stream_output_adapter@_W@__crt_stdio_output@@V?$standard_base@_WV?$stream_output_adapter@_W@__crt_stdio_output@@@2@@__crt_stdio_output@@AAEXI@Z 10031318 f i libucrt:output.obj
 0001:0003032a       ?set_flag@?$output_processor@_WV?$string_output_adapter@_W@__crt_stdio_output@@V?$format_validation_base@_WV?$string_output_adapter@_W@__crt_stdio_output@@@2@@__crt_stdio_output@@AAEXI@Z 1003132a f i libucrt:output.obj
 0001:0003033c       ?set_flag@?$output_processor@_WV?$string_output_adapter@_W@__crt_stdio_output@@V?$positional_parameter_base@_WV?$string_output_adapter@_W@__crt_stdio_output@@@2@@__crt_stdio_output@@AAEXI@Z 1003133c f i libucrt:output.obj
 0001:0003034e       ?set_flag@?$output_processor@_WV?$string_output_adapter@_W@__crt_stdio_output@@V?$standard_base@_WV?$string_output_adapter@_W@__crt_stdio_output@@@2@@__crt_stdio_output@@AAEXI@Z 1003134e f i libucrt:output.obj
 0001:00030360       ?should_format@?$positional_parameter_base@DV?$stream_output_adapter@D@__crt_stdio_output@@@__crt_stdio_output@@IAE_NXZ 10031360 f i libucrt:output.obj
 0001:0003037b       ?should_format@?$positional_parameter_base@DV?$string_output_adapter@D@__crt_stdio_output@@@__crt_stdio_output@@IAE_NXZ 1003137b f i libucrt:output.obj
 0001:00030396       ?should_format@?$positional_parameter_base@_WV?$stream_output_adapter@_W@__crt_stdio_output@@@__crt_stdio_output@@IAE_NXZ 10031396 f i libucrt:output.obj
 0001:000303b1       ?should_format@?$positional_parameter_base@_WV?$string_output_adapter@_W@__crt_stdio_output@@@__crt_stdio_output@@IAE_NXZ 100313b1 f i libucrt:output.obj
 0001:000303cc       ?should_format@?$standard_base@DV?$stream_output_adapter@D@__crt_stdio_output@@@__crt_stdio_output@@IAE_NXZ 100313cc f i libucrt:output.obj
 0001:000303cf       ?should_format@?$standard_base@DV?$string_output_adapter@D@__crt_stdio_output@@@__crt_stdio_output@@IAE_NXZ 100313cf f i libucrt:output.obj
 0001:000303d2       ?should_format@?$standard_base@_WV?$stream_output_adapter@_W@__crt_stdio_output@@@__crt_stdio_output@@IAE_NXZ 100313d2 f i libucrt:output.obj
 0001:000303d5       ?should_format@?$standard_base@_WV?$string_output_adapter@_W@__crt_stdio_output@@@__crt_stdio_output@@IAE_NXZ 100313d5 f i libucrt:output.obj
 0001:000303d8       ?should_skip_normal_state_processing@?$positional_parameter_base@DV?$stream_output_adapter@D@__crt_stdio_output@@@__crt_stdio_output@@IAE_NXZ 100313d8 f i libucrt:output.obj
 0001:0003040a       ?should_skip_normal_state_processing@?$positional_parameter_base@DV?$string_output_adapter@D@__crt_stdio_output@@@__crt_stdio_output@@IAE_NXZ 1003140a f i libucrt:output.obj
 0001:0003043c       ?should_skip_normal_state_processing@?$positional_parameter_base@_WV?$stream_output_adapter@_W@__crt_stdio_output@@@__crt_stdio_output@@IAE_NXZ 1003143c f i libucrt:output.obj
 0001:0003046e       ?should_skip_normal_state_processing@?$positional_parameter_base@_WV?$string_output_adapter@_W@__crt_stdio_output@@@__crt_stdio_output@@IAE_NXZ 1003146e f i libucrt:output.obj
 0001:000304a0       ?should_skip_normal_state_processing@?$standard_base@DV?$stream_output_adapter@D@__crt_stdio_output@@@__crt_stdio_output@@IAE_NXZ 100314a0 f i libucrt:output.obj
 0001:000304a3       ?should_skip_normal_state_processing@?$standard_base@DV?$string_output_adapter@D@__crt_stdio_output@@@__crt_stdio_output@@IAE_NXZ 100314a3 f i libucrt:output.obj
 0001:000304a6       ?should_skip_normal_state_processing@?$standard_base@_WV?$stream_output_adapter@_W@__crt_stdio_output@@@__crt_stdio_output@@IAE_NXZ 100314a6 f i libucrt:output.obj
 0001:000304a9       ?should_skip_normal_state_processing@?$standard_base@_WV?$string_output_adapter@_W@__crt_stdio_output@@@__crt_stdio_output@@IAE_NXZ 100314a9 f i libucrt:output.obj
 0001:000304ac       ?should_skip_type_state_output@?$positional_parameter_base@DV?$stream_output_adapter@D@__crt_stdio_output@@@__crt_stdio_output@@IBE_NXZ 100314ac f i libucrt:output.obj
 0001:000304c8       ?should_skip_type_state_output@?$positional_parameter_base@DV?$string_output_adapter@D@__crt_stdio_output@@@__crt_stdio_output@@IBE_NXZ 100314c8 f i libucrt:output.obj
 0001:000304e4       ?should_skip_type_state_output@?$positional_parameter_base@_WV?$stream_output_adapter@_W@__crt_stdio_output@@@__crt_stdio_output@@IBE_NXZ 100314e4 f i libucrt:output.obj
 0001:00030500       ?should_skip_type_state_output@?$positional_parameter_base@_WV?$string_output_adapter@_W@__crt_stdio_output@@@__crt_stdio_output@@IBE_NXZ 10031500 f i libucrt:output.obj
 0001:0003051c       ?should_skip_type_state_output@?$standard_base@DV?$stream_output_adapter@D@__crt_stdio_output@@@__crt_stdio_output@@IBE_NXZ 1003151c f i libucrt:output.obj
 0001:0003051f       ?should_skip_type_state_output@?$standard_base@DV?$string_output_adapter@D@__crt_stdio_output@@@__crt_stdio_output@@IBE_NXZ 1003151f f i libucrt:output.obj
 0001:00030522       ?should_skip_type_state_output@?$standard_base@_WV?$stream_output_adapter@_W@__crt_stdio_output@@@__crt_stdio_output@@IBE_NXZ 10031522 f i libucrt:output.obj
 0001:00030525       ?should_skip_type_state_output@?$standard_base@_WV?$string_output_adapter@_W@__crt_stdio_output@@@__crt_stdio_output@@IBE_NXZ 10031525 f i libucrt:output.obj
 0001:00030528       ?state_case_dot@?$output_processor@DV?$stream_output_adapter@D@__crt_stdio_output@@V?$format_validation_base@DV?$stream_output_adapter@D@__crt_stdio_output@@@2@@__crt_stdio_output@@AAE_NXZ 10031528 f i libucrt:output.obj
 0001:0003052f       ?state_case_dot@?$output_processor@DV?$stream_output_adapter@D@__crt_stdio_output@@V?$positional_parameter_base@DV?$stream_output_adapter@D@__crt_stdio_output@@@2@@__crt_stdio_output@@AAE_NXZ 1003152f f i libucrt:output.obj
 0001:00030536       ?state_case_dot@?$output_processor@DV?$stream_output_adapter@D@__crt_stdio_output@@V?$standard_base@DV?$stream_output_adapter@D@__crt_stdio_output@@@2@@__crt_stdio_output@@AAE_NXZ 10031536 f i libucrt:output.obj
 0001:0003053d       ?state_case_dot@?$output_processor@DV?$string_output_adapter@D@__crt_stdio_output@@V?$format_validation_base@DV?$string_output_adapter@D@__crt_stdio_output@@@2@@__crt_stdio_output@@AAE_NXZ 1003153d f i libucrt:output.obj
 0001:00030544       ?state_case_dot@?$output_processor@DV?$string_output_adapter@D@__crt_stdio_output@@V?$positional_parameter_base@DV?$string_output_adapter@D@__crt_stdio_output@@@2@@__crt_stdio_output@@AAE_NXZ 10031544 f i libucrt:output.obj
 0001:0003054b       ?state_case_dot@?$output_processor@DV?$string_output_adapter@D@__crt_stdio_output@@V?$standard_base@DV?$string_output_adapter@D@__crt_stdio_output@@@2@@__crt_stdio_output@@AAE_NXZ 1003154b f i libucrt:output.obj
 0001:00030552       ?state_case_dot@?$output_processor@_WV?$stream_output_adapter@_W@__crt_stdio_output@@V?$format_validation_base@_WV?$stream_output_adapter@_W@__crt_stdio_output@@@2@@__crt_stdio_output@@AAE_NXZ 10031552 f i libucrt:output.obj
 0001:00030559       ?state_case_dot@?$output_processor@_WV?$stream_output_adapter@_W@__crt_stdio_output@@V?$positional_parameter_base@_WV?$stream_output_adapter@_W@__crt_stdio_output@@@2@@__crt_stdio_output@@AAE_NXZ 10031559 f i libucrt:output.obj
 0001:00030560       ?state_case_dot@?$output_processor@_WV?$stream_output_adapter@_W@__crt_stdio_output@@V?$standard_base@_WV?$stream_output_adapter@_W@__crt_stdio_output@@@2@@__crt_stdio_output@@AAE_NXZ 10031560 f i libucrt:output.obj
 0001:00030567       ?state_case_dot@?$output_processor@_WV?$string_output_adapter@_W@__crt_stdio_output@@V?$format_validation_base@_WV?$string_output_adapter@_W@__crt_stdio_output@@@2@@__crt_stdio_output@@AAE_NXZ 10031567 f i libucrt:output.obj
 0001:0003056e       ?state_case_dot@?$output_processor@_WV?$string_output_adapter@_W@__crt_stdio_output@@V?$positional_parameter_base@_WV?$string_output_adapter@_W@__crt_stdio_output@@@2@@__crt_stdio_output@@AAE_NXZ 1003156e f i libucrt:output.obj
 0001:00030575       ?state_case_dot@?$output_processor@_WV?$string_output_adapter@_W@__crt_stdio_output@@V?$standard_base@_WV?$string_output_adapter@_W@__crt_stdio_output@@@2@@__crt_stdio_output@@AAE_NXZ 10031575 f i libucrt:output.obj
 0001:0003057c       ?state_case_flag@?$output_processor@DV?$stream_output_adapter@D@__crt_stdio_output@@V?$format_validation_base@DV?$stream_output_adapter@D@__crt_stdio_output@@@2@@__crt_stdio_output@@AAE_NXZ 1003157c f i libucrt:output.obj
 0001:000305c8       ?state_case_flag@?$output_processor@DV?$stream_output_adapter@D@__crt_stdio_output@@V?$positional_parameter_base@DV?$stream_output_adapter@D@__crt_stdio_output@@@2@@__crt_stdio_output@@AAE_NXZ 100315c8 f i libucrt:output.obj
 0001:00030614       ?state_case_flag@?$output_processor@DV?$stream_output_adapter@D@__crt_stdio_output@@V?$standard_base@DV?$stream_output_adapter@D@__crt_stdio_output@@@2@@__crt_stdio_output@@AAE_NXZ 10031614 f i libucrt:output.obj
 0001:00030660       ?state_case_flag@?$output_processor@DV?$string_output_adapter@D@__crt_stdio_output@@V?$format_validation_base@DV?$string_output_adapter@D@__crt_stdio_output@@@2@@__crt_stdio_output@@AAE_NXZ 10031660 f i libucrt:output.obj
 0001:000306ac       ?state_case_flag@?$output_processor@DV?$string_output_adapter@D@__crt_stdio_output@@V?$positional_parameter_base@DV?$string_output_adapter@D@__crt_stdio_output@@@2@@__crt_stdio_output@@AAE_NXZ 100316ac f i libucrt:output.obj
 0001:000306f8       ?state_case_flag@?$output_processor@DV?$string_output_adapter@D@__crt_stdio_output@@V?$standard_base@DV?$string_output_adapter@D@__crt_stdio_output@@@2@@__crt_stdio_output@@AAE_NXZ 100316f8 f i libucrt:output.obj
 0001:00030744       ?state_case_flag@?$output_processor@_WV?$stream_output_adapter@_W@__crt_stdio_output@@V?$format_validation_base@_WV?$stream_output_adapter@_W@__crt_stdio_output@@@2@@__crt_stdio_output@@AAE_NXZ 10031744 f i libucrt:output.obj
 0001:00030790       ?state_case_flag@?$output_processor@_WV?$stream_output_adapter@_W@__crt_stdio_output@@V?$positional_parameter_base@_WV?$stream_output_adapter@_W@__crt_stdio_output@@@2@@__crt_stdio_output@@AAE_NXZ 10031790 f i libucrt:output.obj
 0001:000307dc       ?state_case_flag@?$output_processor@_WV?$stream_output_adapter@_W@__crt_stdio_output@@V?$standard_base@_WV?$stream_output_adapter@_W@__crt_stdio_output@@@2@@__crt_stdio_output@@AAE_NXZ 100317dc f i libucrt:output.obj
 0001:00030828       ?state_case_flag@?$output_processor@_WV?$string_output_adapter@_W@__crt_stdio_output@@V?$format_validation_base@_WV?$string_output_adapter@_W@__crt_stdio_output@@@2@@__crt_stdio_output@@AAE_NXZ 10031828 f i libucrt:output.obj
 0001:00030874       ?state_case_flag@?$output_processor@_WV?$string_output_adapter@_W@__crt_stdio_output@@V?$positional_parameter_base@_WV?$string_output_adapter@_W@__crt_stdio_output@@@2@@__crt_stdio_output@@AAE_NXZ 10031874 f i libucrt:output.obj
 0001:000308c0       ?state_case_flag@?$output_processor@_WV?$string_output_adapter@_W@__crt_stdio_output@@V?$standard_base@_WV?$string_output_adapter@_W@__crt_stdio_output@@@2@@__crt_stdio_output@@AAE_NXZ 100318c0 f i libucrt:output.obj
 0001:0003090c       ?state_case_normal@?$output_processor@DV?$stream_output_adapter@D@__crt_stdio_output@@V?$format_validation_base@DV?$stream_output_adapter@D@__crt_stdio_output@@@2@@__crt_stdio_output@@AAE_NXZ 1003190c f i libucrt:output.obj
 0001:00030932       ?state_case_normal@?$output_processor@DV?$stream_output_adapter@D@__crt_stdio_output@@V?$positional_parameter_base@DV?$stream_output_adapter@D@__crt_stdio_output@@@2@@__crt_stdio_output@@AAE_NXZ 10031932 f i libucrt:output.obj
 0001:0003096f       ?state_case_normal@?$output_processor@DV?$stream_output_adapter@D@__crt_stdio_output@@V?$standard_base@DV?$stream_output_adapter@D@__crt_stdio_output@@@2@@__crt_stdio_output@@AAE_NXZ 1003196f f i libucrt:output.obj
 0001:00030995       ?state_case_normal@?$output_processor@DV?$string_output_adapter@D@__crt_stdio_output@@V?$format_validation_base@DV?$string_output_adapter@D@__crt_stdio_output@@@2@@__crt_stdio_output@@AAE_NXZ 10031995 f i libucrt:output.obj
 0001:000309bb       ?state_case_normal@?$output_processor@DV?$string_output_adapter@D@__crt_stdio_output@@V?$positional_parameter_base@DV?$string_output_adapter@D@__crt_stdio_output@@@2@@__crt_stdio_output@@AAE_NXZ 100319bb f i libucrt:output.obj
 0001:000309f8       ?state_case_normal@?$output_processor@DV?$string_output_adapter@D@__crt_stdio_output@@V?$standard_base@DV?$string_output_adapter@D@__crt_stdio_output@@@2@@__crt_stdio_output@@AAE_NXZ 100319f8 f i libucrt:output.obj
 0001:00030a1e       ?state_case_normal@?$output_processor@_WV?$stream_output_adapter@_W@__crt_stdio_output@@V?$format_validation_base@_WV?$stream_output_adapter@_W@__crt_stdio_output@@@2@@__crt_stdio_output@@AAE_NXZ 10031a1e f i libucrt:output.obj
 0001:00030a44       ?state_case_normal@?$output_processor@_WV?$stream_output_adapter@_W@__crt_stdio_output@@V?$positional_parameter_base@_WV?$stream_output_adapter@_W@__crt_stdio_output@@@2@@__crt_stdio_output@@AAE_NXZ 10031a44 f i libucrt:output.obj
 0001:00030a81       ?state_case_normal@?$output_processor@_WV?$stream_output_adapter@_W@__crt_stdio_output@@V?$standard_base@_WV?$stream_output_adapter@_W@__crt_stdio_output@@@2@@__crt_stdio_output@@AAE_NXZ 10031a81 f i libucrt:output.obj
 0001:00030aa7       ?state_case_normal@?$output_processor@_WV?$string_output_adapter@_W@__crt_stdio_output@@V?$format_validation_base@_WV?$string_output_adapter@_W@__crt_stdio_output@@@2@@__crt_stdio_output@@AAE_NXZ 10031aa7 f i libucrt:output.obj
 0001:00030acd       ?state_case_normal@?$output_processor@_WV?$string_output_adapter@_W@__crt_stdio_output@@V?$positional_parameter_base@_WV?$string_output_adapter@_W@__crt_stdio_output@@@2@@__crt_stdio_output@@AAE_NXZ 10031acd f i libucrt:output.obj
 0001:00030b0a       ?state_case_normal@?$output_processor@_WV?$string_output_adapter@_W@__crt_stdio_output@@V?$standard_base@_WV?$string_output_adapter@_W@__crt_stdio_output@@@2@@__crt_stdio_output@@AAE_NXZ 10031b0a f i libucrt:output.obj
 0001:00030b30       ?state_case_normal_common@?$output_processor@DV?$stream_output_adapter@D@__crt_stdio_output@@V?$format_validation_base@DV?$stream_output_adapter@D@__crt_stdio_output@@@2@@__crt_stdio_output@@AAE_NXZ 10031b30 f i libucrt:output.obj
 0001:00030b7b       ?state_case_normal_common@?$output_processor@DV?$stream_output_adapter@D@__crt_stdio_output@@V?$positional_parameter_base@DV?$stream_output_adapter@D@__crt_stdio_output@@@2@@__crt_stdio_output@@AAE_NXZ 10031b7b f i libucrt:output.obj
 0001:00030bc6       ?state_case_normal_common@?$output_processor@DV?$stream_output_adapter@D@__crt_stdio_output@@V?$standard_base@DV?$stream_output_adapter@D@__crt_stdio_output@@@2@@__crt_stdio_output@@AAE_NXZ 10031bc6 f i libucrt:output.obj
 0001:00030c11       ?state_case_normal_common@?$output_processor@DV?$string_output_adapter@D@__crt_stdio_output@@V?$format_validation_base@DV?$string_output_adapter@D@__crt_stdio_output@@@2@@__crt_stdio_output@@AAE_NXZ 10031c11 f i libucrt:output.obj
 0001:00030c45       ?state_case_normal_common@?$output_processor@DV?$string_output_adapter@D@__crt_stdio_output@@V?$positional_parameter_base@DV?$string_output_adapter@D@__crt_stdio_output@@@2@@__crt_stdio_output@@AAE_NXZ 10031c45 f i libucrt:output.obj
 0001:00030c79       ?state_case_normal_common@?$output_processor@DV?$string_output_adapter@D@__crt_stdio_output@@V?$standard_base@DV?$string_output_adapter@D@__crt_stdio_output@@@2@@__crt_stdio_output@@AAE_NXZ 10031c79 f i libucrt:output.obj
 0001:00030cad       ?state_case_normal_common@?$output_processor@_WV?$stream_output_adapter@_W@__crt_stdio_output@@V?$format_validation_base@_WV?$stream_output_adapter@_W@__crt_stdio_output@@@2@@__crt_stdio_output@@AAE_NXZ 10031cad f i libucrt:output.obj
 0001:00030ce1       ?state_case_normal_common@?$output_processor@_WV?$stream_output_adapter@_W@__crt_stdio_output@@V?$positional_parameter_base@_WV?$stream_output_adapter@_W@__crt_stdio_output@@@2@@__crt_stdio_output@@AAE_NXZ 10031ce1 f i libucrt:output.obj
 0001:00030d15       ?state_case_normal_common@?$output_processor@_WV?$stream_output_adapter@_W@__crt_stdio_output@@V?$standard_base@_WV?$stream_output_adapter@_W@__crt_stdio_output@@@2@@__crt_stdio_output@@AAE_NXZ 10031d15 f i libucrt:output.obj
 0001:00030d49       ?state_case_normal_common@?$output_processor@_WV?$string_output_adapter@_W@__crt_stdio_output@@V?$format_validation_base@_WV?$string_output_adapter@_W@__crt_stdio_output@@@2@@__crt_stdio_output@@AAE_NXZ 10031d49 f i libucrt:output.obj
 0001:00030d6a       ?state_case_normal_common@?$output_processor@_WV?$string_output_adapter@_W@__crt_stdio_output@@V?$positional_parameter_base@_WV?$string_output_adapter@_W@__crt_stdio_output@@@2@@__crt_stdio_output@@AAE_NXZ 10031d6a f i libucrt:output.obj
 0001:00030d8b       ?state_case_normal_common@?$output_processor@_WV?$string_output_adapter@_W@__crt_stdio_output@@V?$standard_base@_WV?$string_output_adapter@_W@__crt_stdio_output@@@2@@__crt_stdio_output@@AAE_NXZ 10031d8b f i libucrt:output.obj
 0001:00030dac       ?state_case_normal_tchar@?$output_processor@DV?$stream_output_adapter@D@__crt_stdio_output@@V?$format_validation_base@DV?$stream_output_adapter@D@__crt_stdio_output@@@2@@__crt_stdio_output@@AAE_ND@Z 10031dac f i libucrt:output.obj
 0001:00030e26       ?state_case_normal_tchar@?$output_processor@DV?$stream_output_adapter@D@__crt_stdio_output@@V?$positional_parameter_base@DV?$stream_output_adapter@D@__crt_stdio_output@@@2@@__crt_stdio_output@@AAE_ND@Z 10031e26 f i libucrt:output.obj
 0001:00030ea0       ?state_case_normal_tchar@?$output_processor@DV?$stream_output_adapter@D@__crt_stdio_output@@V?$standard_base@DV?$stream_output_adapter@D@__crt_stdio_output@@@2@@__crt_stdio_output@@AAE_ND@Z 10031ea0 f i libucrt:output.obj
 0001:00030f1a       ?state_case_normal_tchar@?$output_processor@DV?$string_output_adapter@D@__crt_stdio_output@@V?$format_validation_base@DV?$string_output_adapter@D@__crt_stdio_output@@@2@@__crt_stdio_output@@AAE_ND@Z 10031f1a f i libucrt:output.obj
 0001:00030f89       ?state_case_normal_tchar@?$output_processor@DV?$string_output_adapter@D@__crt_stdio_output@@V?$positional_parameter_base@DV?$string_output_adapter@D@__crt_stdio_output@@@2@@__crt_stdio_output@@AAE_ND@Z 10031f89 f i libucrt:output.obj
 0001:00030ff8       ?state_case_normal_tchar@?$output_processor@DV?$string_output_adapter@D@__crt_stdio_output@@V?$standard_base@DV?$string_output_adapter@D@__crt_stdio_output@@@2@@__crt_stdio_output@@AAE_ND@Z 10031ff8 f i libucrt:output.obj
 0001:00031067       ?state_case_normal_tchar@?$output_processor@_WV?$stream_output_adapter@_W@__crt_stdio_output@@V?$format_validation_base@_WV?$stream_output_adapter@_W@__crt_stdio_output@@@2@@__crt_stdio_output@@AAE_N_W@Z 10032067 f i libucrt:output.obj
 0001:00031072       ?state_case_normal_tchar@?$output_processor@_WV?$stream_output_adapter@_W@__crt_stdio_output@@V?$positional_parameter_base@_WV?$stream_output_adapter@_W@__crt_stdio_output@@@2@@__crt_stdio_output@@AAE_N_W@Z 10032072 f i libucrt:output.obj
 0001:0003107d       ?state_case_normal_tchar@?$output_processor@_WV?$stream_output_adapter@_W@__crt_stdio_output@@V?$standard_base@_WV?$stream_output_adapter@_W@__crt_stdio_output@@@2@@__crt_stdio_output@@AAE_N_W@Z 1003207d f i libucrt:output.obj
 0001:00031088       ?state_case_normal_tchar@?$output_processor@_WV?$string_output_adapter@_W@__crt_stdio_output@@V?$format_validation_base@_WV?$string_output_adapter@_W@__crt_stdio_output@@@2@@__crt_stdio_output@@AAE_N_W@Z 10032088 f i libucrt:output.obj
 0001:00031093       ?state_case_normal_tchar@?$output_processor@_WV?$string_output_adapter@_W@__crt_stdio_output@@V?$positional_parameter_base@_WV?$string_output_adapter@_W@__crt_stdio_output@@@2@@__crt_stdio_output@@AAE_N_W@Z 10032093 f i libucrt:output.obj
 0001:0003109e       ?state_case_normal_tchar@?$output_processor@_WV?$string_output_adapter@_W@__crt_stdio_output@@V?$standard_base@_WV?$string_output_adapter@_W@__crt_stdio_output@@@2@@__crt_stdio_output@@AAE_N_W@Z 1003209e f i libucrt:output.obj
 0001:000310a9       ?state_case_percent@?$output_processor@DV?$stream_output_adapter@D@__crt_stdio_output@@V?$format_validation_base@DV?$stream_output_adapter@D@__crt_stdio_output@@@2@@__crt_stdio_output@@AAE_NXZ 100320a9 f i libucrt:output.obj
 0001:000310c7       ?state_case_percent@?$output_processor@DV?$stream_output_adapter@D@__crt_stdio_output@@V?$positional_parameter_base@DV?$stream_output_adapter@D@__crt_stdio_output@@@2@@__crt_stdio_output@@AAE_NXZ 100320c7 f i libucrt:output.obj
 0001:000310e5       ?state_case_percent@?$output_processor@DV?$stream_output_adapter@D@__crt_stdio_output@@V?$standard_base@DV?$stream_output_adapter@D@__crt_stdio_output@@@2@@__crt_stdio_output@@AAE_NXZ 100320e5 f i libucrt:output.obj
 0001:00031103       ?state_case_percent@?$output_processor@DV?$string_output_adapter@D@__crt_stdio_output@@V?$format_validation_base@DV?$string_output_adapter@D@__crt_stdio_output@@@2@@__crt_stdio_output@@AAE_NXZ 10032103 f i libucrt:output.obj
 0001:00031121       ?state_case_percent@?$output_processor@DV?$string_output_adapter@D@__crt_stdio_output@@V?$positional_parameter_base@DV?$string_output_adapter@D@__crt_stdio_output@@@2@@__crt_stdio_output@@AAE_NXZ 10032121 f i libucrt:output.obj
 0001:0003113f       ?state_case_percent@?$output_processor@DV?$string_output_adapter@D@__crt_stdio_output@@V?$standard_base@DV?$string_output_adapter@D@__crt_stdio_output@@@2@@__crt_stdio_output@@AAE_NXZ 1003213f f i libucrt:output.obj
 0001:0003115d       ?state_case_percent@?$output_processor@_WV?$stream_output_adapter@_W@__crt_stdio_output@@V?$format_validation_base@_WV?$stream_output_adapter@_W@__crt_stdio_output@@@2@@__crt_stdio_output@@AAE_NXZ 1003215d f i libucrt:output.obj
 0001:0003117b       ?state_case_percent@?$output_processor@_WV?$stream_output_adapter@_W@__crt_stdio_output@@V?$positional_parameter_base@_WV?$stream_output_adapter@_W@__crt_stdio_output@@@2@@__crt_stdio_output@@AAE_NXZ 1003217b f i libucrt:output.obj
 0001:00031199       ?state_case_percent@?$output_processor@_WV?$stream_output_adapter@_W@__crt_stdio_output@@V?$standard_base@_WV?$stream_output_adapter@_W@__crt_stdio_output@@@2@@__crt_stdio_output@@AAE_NXZ 10032199 f i libucrt:output.obj
 0001:000311b7       ?state_case_percent@?$output_processor@_WV?$string_output_adapter@_W@__crt_stdio_output@@V?$format_validation_base@_WV?$string_output_adapter@_W@__crt_stdio_output@@@2@@__crt_stdio_output@@AAE_NXZ 100321b7 f i libucrt:output.obj
 0001:000311d5       ?state_case_percent@?$output_processor@_WV?$string_output_adapter@_W@__crt_stdio_output@@V?$positional_parameter_base@_WV?$string_output_adapter@_W@__crt_stdio_output@@@2@@__crt_stdio_output@@AAE_NXZ 100321d5 f i libucrt:output.obj
 0001:000311f3       ?state_case_percent@?$output_processor@_WV?$string_output_adapter@_W@__crt_stdio_output@@V?$standard_base@_WV?$string_output_adapter@_W@__crt_stdio_output@@@2@@__crt_stdio_output@@AAE_NXZ 100321f3 f i libucrt:output.obj
 0001:00031211       ?state_case_precision@?$output_processor@DV?$stream_output_adapter@D@__crt_stdio_output@@V?$format_validation_base@DV?$stream_output_adapter@D@__crt_stdio_output@@@2@@__crt_stdio_output@@AAE_NXZ 10032211 f i libucrt:output.obj
 0001:00031240       ?state_case_precision@?$output_processor@DV?$stream_output_adapter@D@__crt_stdio_output@@V?$positional_parameter_base@DV?$stream_output_adapter@D@__crt_stdio_output@@@2@@__crt_stdio_output@@AAE_NXZ 10032240 f i libucrt:output.obj
 0001:00031288       ?state_case_precision@?$output_processor@DV?$stream_output_adapter@D@__crt_stdio_output@@V?$standard_base@DV?$stream_output_adapter@D@__crt_stdio_output@@@2@@__crt_stdio_output@@AAE_NXZ 10032288 f i libucrt:output.obj
 0001:000312b7       ?state_case_precision@?$output_processor@DV?$string_output_adapter@D@__crt_stdio_output@@V?$format_validation_base@DV?$string_output_adapter@D@__crt_stdio_output@@@2@@__crt_stdio_output@@AAE_NXZ 100322b7 f i libucrt:output.obj
 0001:000312e6       ?state_case_precision@?$output_processor@DV?$string_output_adapter@D@__crt_stdio_output@@V?$positional_parameter_base@DV?$string_output_adapter@D@__crt_stdio_output@@@2@@__crt_stdio_output@@AAE_NXZ 100322e6 f i libucrt:output.obj
 0001:0003132e       ?state_case_precision@?$output_processor@DV?$string_output_adapter@D@__crt_stdio_output@@V?$standard_base@DV?$string_output_adapter@D@__crt_stdio_output@@@2@@__crt_stdio_output@@AAE_NXZ 1003232e f i libucrt:output.obj
 0001:0003135d       ?state_case_precision@?$output_processor@_WV?$stream_output_adapter@_W@__crt_stdio_output@@V?$format_validation_base@_WV?$stream_output_adapter@_W@__crt_stdio_output@@@2@@__crt_stdio_output@@AAE_NXZ 1003235d f i libucrt:output.obj
 0001:0003138d       ?state_case_precision@?$output_processor@_WV?$stream_output_adapter@_W@__crt_stdio_output@@V?$positional_parameter_base@_WV?$stream_output_adapter@_W@__crt_stdio_output@@@2@@__crt_stdio_output@@AAE_NXZ 1003238d f i libucrt:output.obj
 0001:000313d6       ?state_case_precision@?$output_processor@_WV?$stream_output_adapter@_W@__crt_stdio_output@@V?$standard_base@_WV?$stream_output_adapter@_W@__crt_stdio_output@@@2@@__crt_stdio_output@@AAE_NXZ 100323d6 f i libucrt:output.obj
 0001:00031406       ?state_case_precision@?$output_processor@_WV?$string_output_adapter@_W@__crt_stdio_output@@V?$format_validation_base@_WV?$string_output_adapter@_W@__crt_stdio_output@@@2@@__crt_stdio_output@@AAE_NXZ 10032406 f i libucrt:output.obj
 0001:00031436       ?state_case_precision@?$output_processor@_WV?$string_output_adapter@_W@__crt_stdio_output@@V?$positional_parameter_base@_WV?$string_output_adapter@_W@__crt_stdio_output@@@2@@__crt_stdio_output@@AAE_NXZ 10032436 f i libucrt:output.obj
 0001:0003147f       ?state_case_precision@?$output_processor@_WV?$string_output_adapter@_W@__crt_stdio_output@@V?$standard_base@_WV?$string_output_adapter@_W@__crt_stdio_output@@@2@@__crt_stdio_output@@AAE_NXZ 1003247f f i libucrt:output.obj
 0001:000314af       ?state_case_size@?$output_processor@DV?$stream_output_adapter@D@__crt_stdio_output@@V?$format_validation_base@DV?$stream_output_adapter@D@__crt_stdio_output@@@2@@__crt_stdio_output@@AAE_NXZ 100324af f i libucrt:output.obj
 0001:0003165f       ?state_case_size@?$output_processor@DV?$stream_output_adapter@D@__crt_stdio_output@@V?$positional_parameter_base@DV?$stream_output_adapter@D@__crt_stdio_output@@@2@@__crt_stdio_output@@AAE_NXZ 1003265f f i libucrt:output.obj
 0001:0003180f       ?state_case_size@?$output_processor@DV?$stream_output_adapter@D@__crt_stdio_output@@V?$standard_base@DV?$stream_output_adapter@D@__crt_stdio_output@@@2@@__crt_stdio_output@@AAE_NXZ 1003280f f i libucrt:output.obj
 0001:000319bf       ?state_case_size@?$output_processor@DV?$string_output_adapter@D@__crt_stdio_output@@V?$format_validation_base@DV?$string_output_adapter@D@__crt_stdio_output@@@2@@__crt_stdio_output@@AAE_NXZ 100329bf f i libucrt:output.obj
 0001:00031b6f       ?state_case_size@?$output_processor@DV?$string_output_adapter@D@__crt_stdio_output@@V?$positional_parameter_base@DV?$string_output_adapter@D@__crt_stdio_output@@@2@@__crt_stdio_output@@AAE_NXZ 10032b6f f i libucrt:output.obj
 0001:00031d1f       ?state_case_size@?$output_processor@DV?$string_output_adapter@D@__crt_stdio_output@@V?$standard_base@DV?$string_output_adapter@D@__crt_stdio_output@@@2@@__crt_stdio_output@@AAE_NXZ 10032d1f f i libucrt:output.obj
 0001:00031ecf       ?state_case_size@?$output_processor@_WV?$stream_output_adapter@_W@__crt_stdio_output@@V?$format_validation_base@_WV?$stream_output_adapter@_W@__crt_stdio_output@@@2@@__crt_stdio_output@@AAE_NXZ 10032ecf f i libucrt:output.obj
 0001:00032097       ?state_case_size@?$output_processor@_WV?$stream_output_adapter@_W@__crt_stdio_output@@V?$positional_parameter_base@_WV?$stream_output_adapter@_W@__crt_stdio_output@@@2@@__crt_stdio_output@@AAE_NXZ 10033097 f i libucrt:output.obj
 0001:0003225f       ?state_case_size@?$output_processor@_WV?$stream_output_adapter@_W@__crt_stdio_output@@V?$standard_base@_WV?$stream_output_adapter@_W@__crt_stdio_output@@@2@@__crt_stdio_output@@AAE_NXZ 1003325f f i libucrt:output.obj
 0001:00032427       ?state_case_size@?$output_processor@_WV?$string_output_adapter@_W@__crt_stdio_output@@V?$format_validation_base@_WV?$string_output_adapter@_W@__crt_stdio_output@@@2@@__crt_stdio_output@@AAE_NXZ 10033427 f i libucrt:output.obj
 0001:000325ef       ?state_case_size@?$output_processor@_WV?$string_output_adapter@_W@__crt_stdio_output@@V?$positional_parameter_base@_WV?$string_output_adapter@_W@__crt_stdio_output@@@2@@__crt_stdio_output@@AAE_NXZ 100335ef f i libucrt:output.obj
 0001:000327b7       ?state_case_size@?$output_processor@_WV?$string_output_adapter@_W@__crt_stdio_output@@V?$standard_base@_WV?$string_output_adapter@_W@__crt_stdio_output@@@2@@__crt_stdio_output@@AAE_NXZ 100337b7 f i libucrt:output.obj
 0001:0003297f       ?state_case_type@?$output_processor@DV?$stream_output_adapter@D@__crt_stdio_output@@V?$format_validation_base@DV?$stream_output_adapter@D@__crt_stdio_output@@@2@@__crt_stdio_output@@AAE_NXZ 1003397f f i libucrt:output.obj
 0001:00032c32       ?state_case_type@?$output_processor@DV?$stream_output_adapter@D@__crt_stdio_output@@V?$positional_parameter_base@DV?$stream_output_adapter@D@__crt_stdio_output@@@2@@__crt_stdio_output@@AAE_NXZ 10033c32 f i libucrt:output.obj
 0001:00032ef3       ?state_case_type@?$output_processor@DV?$stream_output_adapter@D@__crt_stdio_output@@V?$standard_base@DV?$stream_output_adapter@D@__crt_stdio_output@@@2@@__crt_stdio_output@@AAE_NXZ 10033ef3 f i libucrt:output.obj
 0001:000331a6       ?state_case_type@?$output_processor@DV?$string_output_adapter@D@__crt_stdio_output@@V?$format_validation_base@DV?$string_output_adapter@D@__crt_stdio_output@@@2@@__crt_stdio_output@@AAE_NXZ 100341a6 f i libucrt:output.obj
 0001:00033459       ?state_case_type@?$output_processor@DV?$string_output_adapter@D@__crt_stdio_output@@V?$positional_parameter_base@DV?$string_output_adapter@D@__crt_stdio_output@@@2@@__crt_stdio_output@@AAE_NXZ 10034459 f i libucrt:output.obj
 0001:0003371a       ?state_case_type@?$output_processor@DV?$string_output_adapter@D@__crt_stdio_output@@V?$standard_base@DV?$string_output_adapter@D@__crt_stdio_output@@@2@@__crt_stdio_output@@AAE_NXZ 1003471a f i libucrt:output.obj
 0001:000339cd       ?state_case_type@?$output_processor@_WV?$stream_output_adapter@_W@__crt_stdio_output@@V?$format_validation_base@_WV?$stream_output_adapter@_W@__crt_stdio_output@@@2@@__crt_stdio_output@@AAE_NXZ 100349cd f i libucrt:output.obj
 0001:00033ccd       ?state_case_type@?$output_processor@_WV?$stream_output_adapter@_W@__crt_stdio_output@@V?$positional_parameter_base@_WV?$stream_output_adapter@_W@__crt_stdio_output@@@2@@__crt_stdio_output@@AAE_NXZ 10034ccd f i libucrt:output.obj
 0001:00033fe0       ?state_case_type@?$output_processor@_WV?$stream_output_adapter@_W@__crt_stdio_output@@V?$standard_base@_WV?$stream_output_adapter@_W@__crt_stdio_output@@@2@@__crt_stdio_output@@AAE_NXZ 10034fe0 f i libucrt:output.obj
 0001:000342e0       ?state_case_type@?$output_processor@_WV?$string_output_adapter@_W@__crt_stdio_output@@V?$format_validation_base@_WV?$string_output_adapter@_W@__crt_stdio_output@@@2@@__crt_stdio_output@@AAE_NXZ 100352e0 f i libucrt:output.obj
 0001:000345e0       ?state_case_type@?$output_processor@_WV?$string_output_adapter@_W@__crt_stdio_output@@V?$positional_parameter_base@_WV?$string_output_adapter@_W@__crt_stdio_output@@@2@@__crt_stdio_output@@AAE_NXZ 100355e0 f i libucrt:output.obj
 0001:000348f3       ?state_case_type@?$output_processor@_WV?$string_output_adapter@_W@__crt_stdio_output@@V?$standard_base@_WV?$string_output_adapter@_W@__crt_stdio_output@@@2@@__crt_stdio_output@@AAE_NXZ 100358f3 f i libucrt:output.obj
 0001:00034bf3       ?state_case_width@?$output_processor@DV?$stream_output_adapter@D@__crt_stdio_output@@V?$format_validation_base@DV?$stream_output_adapter@D@__crt_stdio_output@@@2@@__crt_stdio_output@@AAE_NXZ 10035bf3 f i libucrt:output.obj
 0001:00034c28       ?state_case_width@?$output_processor@DV?$stream_output_adapter@D@__crt_stdio_output@@V?$positional_parameter_base@DV?$stream_output_adapter@D@__crt_stdio_output@@@2@@__crt_stdio_output@@AAE_NXZ 10035c28 f i libucrt:output.obj
 0001:00034c78       ?state_case_width@?$output_processor@DV?$stream_output_adapter@D@__crt_stdio_output@@V?$standard_base@DV?$stream_output_adapter@D@__crt_stdio_output@@@2@@__crt_stdio_output@@AAE_NXZ 10035c78 f i libucrt:output.obj
 0001:00034cad       ?state_case_width@?$output_processor@DV?$string_output_adapter@D@__crt_stdio_output@@V?$format_validation_base@DV?$string_output_adapter@D@__crt_stdio_output@@@2@@__crt_stdio_output@@AAE_NXZ 10035cad f i libucrt:output.obj
 0001:00034ce2       ?state_case_width@?$output_processor@DV?$string_output_adapter@D@__crt_stdio_output@@V?$positional_parameter_base@DV?$string_output_adapter@D@__crt_stdio_output@@@2@@__crt_stdio_output@@AAE_NXZ 10035ce2 f i libucrt:output.obj
 0001:00034d32       ?state_case_width@?$output_processor@DV?$string_output_adapter@D@__crt_stdio_output@@V?$standard_base@DV?$string_output_adapter@D@__crt_stdio_output@@@2@@__crt_stdio_output@@AAE_NXZ 10035d32 f i libucrt:output.obj
 0001:00034d67       ?state_case_width@?$output_processor@_WV?$stream_output_adapter@_W@__crt_stdio_output@@V?$format_validation_base@_WV?$stream_output_adapter@_W@__crt_stdio_output@@@2@@__crt_stdio_output@@AAE_NXZ 10035d67 f i libucrt:output.obj
 0001:00034d9e       ?state_case_width@?$output_processor@_WV?$stream_output_adapter@_W@__crt_stdio_output@@V?$positional_parameter_base@_WV?$stream_output_adapter@_W@__crt_stdio_output@@@2@@__crt_stdio_output@@AAE_NXZ 10035d9e f i libucrt:output.obj
 0001:00034def       ?state_case_width@?$output_processor@_WV?$stream_output_adapter@_W@__crt_stdio_output@@V?$standard_base@_WV?$stream_output_adapter@_W@__crt_stdio_output@@@2@@__crt_stdio_output@@AAE_NXZ 10035def f i libucrt:output.obj
 0001:00034e26       ?state_case_width@?$output_processor@_WV?$string_output_adapter@_W@__crt_stdio_output@@V?$format_validation_base@_WV?$string_output_adapter@_W@__crt_stdio_output@@@2@@__crt_stdio_output@@AAE_NXZ 10035e26 f i libucrt:output.obj
 0001:00034e5d       ?state_case_width@?$output_processor@_WV?$string_output_adapter@_W@__crt_stdio_output@@V?$positional_parameter_base@_WV?$string_output_adapter@_W@__crt_stdio_output@@@2@@__crt_stdio_output@@AAE_NXZ 10035e5d f i libucrt:output.obj
 0001:00034eae       ?state_case_width@?$output_processor@_WV?$string_output_adapter@_W@__crt_stdio_output@@V?$standard_base@_WV?$string_output_adapter@_W@__crt_stdio_output@@@2@@__crt_stdio_output@@AAE_NXZ 10035eae f i libucrt:output.obj
 0001:00034ee5       ?state_count@?$format_validation_base@DV?$stream_output_adapter@D@__crt_stdio_output@@@__crt_stdio_output@@KAIXZ 10035ee5 f i libucrt:output.obj
 0001:00034ee9       ?state_count@?$format_validation_base@DV?$string_output_adapter@D@__crt_stdio_output@@@__crt_stdio_output@@KAIXZ 10035ee9 f i libucrt:output.obj
 0001:00034eed       ?state_count@?$format_validation_base@_WV?$stream_output_adapter@_W@__crt_stdio_output@@@__crt_stdio_output@@KAIXZ 10035eed f i libucrt:output.obj
 0001:00034ef1       ?state_count@?$format_validation_base@_WV?$string_output_adapter@_W@__crt_stdio_output@@@__crt_stdio_output@@KAIXZ 10035ef1 f i libucrt:output.obj
 0001:00034ef5       ?state_count@?$standard_base@DV?$stream_output_adapter@D@__crt_stdio_output@@@__crt_stdio_output@@KAIXZ 10035ef5 f i libucrt:output.obj
 0001:00034ef9       ?state_count@?$standard_base@DV?$string_output_adapter@D@__crt_stdio_output@@@__crt_stdio_output@@KAIXZ 10035ef9 f i libucrt:output.obj
 0001:00034efd       ?state_count@?$standard_base@_WV?$stream_output_adapter@_W@__crt_stdio_output@@@__crt_stdio_output@@KAIXZ 10035efd f i libucrt:output.obj
 0001:00034f01       ?state_count@?$standard_base@_WV?$string_output_adapter@_W@__crt_stdio_output@@@__crt_stdio_output@@KAIXZ 10035f01 f i libucrt:output.obj
 0001:00034f05       ?state_transition_table@?$format_validation_base@DV?$stream_output_adapter@D@__crt_stdio_output@@@__crt_stdio_output@@KAPBEXZ 10035f05 f i libucrt:output.obj
 0001:00034f0b       ?state_transition_table@?$format_validation_base@DV?$string_output_adapter@D@__crt_stdio_output@@@__crt_stdio_output@@KAPBEXZ 10035f0b f i libucrt:output.obj
 0001:00034f11       ?state_transition_table@?$format_validation_base@_WV?$stream_output_adapter@_W@__crt_stdio_output@@@__crt_stdio_output@@KAPBEXZ 10035f11 f i libucrt:output.obj
 0001:00034f17       ?state_transition_table@?$format_validation_base@_WV?$string_output_adapter@_W@__crt_stdio_output@@@__crt_stdio_output@@KAPBEXZ 10035f17 f i libucrt:output.obj
 0001:00034f1d       ?state_transition_table@?$standard_base@DV?$stream_output_adapter@D@__crt_stdio_output@@@__crt_stdio_output@@KAPBEXZ 10035f1d f i libucrt:output.obj
 0001:00034f23       ?state_transition_table@?$standard_base@DV?$string_output_adapter@D@__crt_stdio_output@@@__crt_stdio_output@@KAPBEXZ 10035f23 f i libucrt:output.obj
 0001:00034f29       ?state_transition_table@?$standard_base@_WV?$stream_output_adapter@_W@__crt_stdio_output@@@__crt_stdio_output@@KAPBEXZ 10035f29 f i libucrt:output.obj
 0001:00034f2f       ?state_transition_table@?$standard_base@_WV?$string_output_adapter@_W@__crt_stdio_output@@@__crt_stdio_output@@KAPBEXZ 10035f2f f i libucrt:output.obj
 0001:00034f35       ?tchar_string@?$common_data@D@__crt_stdio_output@@IAEAAPADD@Z 10035f35 f i libucrt:output.obj
 0001:00034f3b       ?tchar_string@?$common_data@D@__crt_stdio_output@@IAEAAPADXZ 10035f3b f i libucrt:output.obj
 0001:00034f3f       ?tchar_string@?$common_data@_W@__crt_stdio_output@@IAEAAPA_WXZ 10035f3f f i libucrt:output.obj
 0001:00034f43       ?tchar_string@?$common_data@_W@__crt_stdio_output@@IAEAAPA_W_W@Z 10035f43 f i libucrt:output.obj
 0001:00034f49       ?to_integer_size@__crt_stdio_output@@YAIW4length_modifier@1@@Z 10035f49 f i libucrt:output.obj
 0001:00034fbc       ?type_case_X@?$output_processor@DV?$stream_output_adapter@D@__crt_stdio_output@@V?$format_validation_base@DV?$stream_output_adapter@D@__crt_stdio_output@@@2@@__crt_stdio_output@@AAE_NXZ 10035fbc f i libucrt:output.obj
 0001:00034fc8       ?type_case_X@?$output_processor@DV?$stream_output_adapter@D@__crt_stdio_output@@V?$positional_parameter_base@DV?$stream_output_adapter@D@__crt_stdio_output@@@2@@__crt_stdio_output@@AAE_NXZ 10035fc8 f i libucrt:output.obj
 0001:00034fd4       ?type_case_X@?$output_processor@DV?$stream_output_adapter@D@__crt_stdio_output@@V?$standard_base@DV?$stream_output_adapter@D@__crt_stdio_output@@@2@@__crt_stdio_output@@AAE_NXZ 10035fd4 f i libucrt:output.obj
 0001:00034fe0       ?type_case_X@?$output_processor@DV?$string_output_adapter@D@__crt_stdio_output@@V?$format_validation_base@DV?$string_output_adapter@D@__crt_stdio_output@@@2@@__crt_stdio_output@@AAE_NXZ 10035fe0 f i libucrt:output.obj
 0001:00034fec       ?type_case_X@?$output_processor@DV?$string_output_adapter@D@__crt_stdio_output@@V?$positional_parameter_base@DV?$string_output_adapter@D@__crt_stdio_output@@@2@@__crt_stdio_output@@AAE_NXZ 10035fec f i libucrt:output.obj
 0001:00034ff8       ?type_case_X@?$output_processor@DV?$string_output_adapter@D@__crt_stdio_output@@V?$standard_base@DV?$string_output_adapter@D@__crt_stdio_output@@@2@@__crt_stdio_output@@AAE_NXZ 10035ff8 f i libucrt:output.obj
 0001:00035004       ?type_case_X@?$output_processor@_WV?$stream_output_adapter@_W@__crt_stdio_output@@V?$format_validation_base@_WV?$stream_output_adapter@_W@__crt_stdio_output@@@2@@__crt_stdio_output@@AAE_NXZ 10036004 f i libucrt:output.obj
 0001:00035010       ?type_case_X@?$output_processor@_WV?$stream_output_adapter@_W@__crt_stdio_output@@V?$positional_parameter_base@_WV?$stream_output_adapter@_W@__crt_stdio_output@@@2@@__crt_stdio_output@@AAE_NXZ 10036010 f i libucrt:output.obj
 0001:0003501c       ?type_case_X@?$output_processor@_WV?$stream_output_adapter@_W@__crt_stdio_output@@V?$standard_base@_WV?$stream_output_adapter@_W@__crt_stdio_output@@@2@@__crt_stdio_output@@AAE_NXZ 1003601c f i libucrt:output.obj
 0001:00035028       ?type_case_X@?$output_processor@_WV?$string_output_adapter@_W@__crt_stdio_output@@V?$format_validation_base@_WV?$string_output_adapter@_W@__crt_stdio_output@@@2@@__crt_stdio_output@@AAE_NXZ 10036028 f i libucrt:output.obj
 0001:00035034       ?type_case_X@?$output_processor@_WV?$string_output_adapter@_W@__crt_stdio_output@@V?$positional_parameter_base@_WV?$string_output_adapter@_W@__crt_stdio_output@@@2@@__crt_stdio_output@@AAE_NXZ 10036034 f i libucrt:output.obj
 0001:00035040       ?type_case_X@?$output_processor@_WV?$string_output_adapter@_W@__crt_stdio_output@@V?$standard_base@_WV?$string_output_adapter@_W@__crt_stdio_output@@@2@@__crt_stdio_output@@AAE_NXZ 10036040 f i libucrt:output.obj
 0001:0003504c       ?type_case_Z@?$output_processor@DV?$stream_output_adapter@D@__crt_stdio_output@@V?$format_validation_base@DV?$stream_output_adapter@D@__crt_stdio_output@@@2@@__crt_stdio_output@@AAE_NXZ 1003604c f i libucrt:output.obj
 0001:000350c5       ?type_case_Z@?$output_processor@DV?$stream_output_adapter@D@__crt_stdio_output@@V?$positional_parameter_base@DV?$stream_output_adapter@D@__crt_stdio_output@@@2@@__crt_stdio_output@@AAE_NXZ 100360c5 f i libucrt:output.obj
 0001:000351db       ?type_case_Z@?$output_processor@DV?$stream_output_adapter@D@__crt_stdio_output@@V?$standard_base@DV?$stream_output_adapter@D@__crt_stdio_output@@@2@@__crt_stdio_output@@AAE_NXZ 100361db f i libucrt:output.obj
 0001:00035254       ?type_case_Z@?$output_processor@DV?$string_output_adapter@D@__crt_stdio_output@@V?$format_validation_base@DV?$string_output_adapter@D@__crt_stdio_output@@@2@@__crt_stdio_output@@AAE_NXZ 10036254 f i libucrt:output.obj
 0001:000352cd       ?type_case_Z@?$output_processor@DV?$string_output_adapter@D@__crt_stdio_output@@V?$positional_parameter_base@DV?$string_output_adapter@D@__crt_stdio_output@@@2@@__crt_stdio_output@@AAE_NXZ 100362cd f i libucrt:output.obj
 0001:000353e3       ?type_case_Z@?$output_processor@DV?$string_output_adapter@D@__crt_stdio_output@@V?$standard_base@DV?$string_output_adapter@D@__crt_stdio_output@@@2@@__crt_stdio_output@@AAE_NXZ 100363e3 f i libucrt:output.obj
 0001:0003545c       ?type_case_Z@?$output_processor@_WV?$stream_output_adapter@_W@__crt_stdio_output@@V?$format_validation_base@_WV?$stream_output_adapter@_W@__crt_stdio_output@@@2@@__crt_stdio_output@@AAE_NXZ 1003645c f i libucrt:output.obj
 0001:000354d5       ?type_case_Z@?$output_processor@_WV?$stream_output_adapter@_W@__crt_stdio_output@@V?$positional_parameter_base@_WV?$stream_output_adapter@_W@__crt_stdio_output@@@2@@__crt_stdio_output@@AAE_NXZ 100364d5 f i libucrt:output.obj
 0001:000355eb       ?type_case_Z@?$output_processor@_WV?$stream_output_adapter@_W@__crt_stdio_output@@V?$standard_base@_WV?$stream_output_adapter@_W@__crt_stdio_output@@@2@@__crt_stdio_output@@AAE_NXZ 100365eb f i libucrt:output.obj
 0001:00035664       ?type_case_Z@?$output_processor@_WV?$string_output_adapter@_W@__crt_stdio_output@@V?$format_validation_base@_WV?$string_output_adapter@_W@__crt_stdio_output@@@2@@__crt_stdio_output@@AAE_NXZ 10036664 f i libucrt:output.obj
 0001:000356dd       ?type_case_Z@?$output_processor@_WV?$string_output_adapter@_W@__crt_stdio_output@@V?$positional_parameter_base@_WV?$string_output_adapter@_W@__crt_stdio_output@@@2@@__crt_stdio_output@@AAE_NXZ 100366dd f i libucrt:output.obj
 0001:000357f3       ?type_case_Z@?$output_processor@_WV?$string_output_adapter@_W@__crt_stdio_output@@V?$standard_base@_WV?$string_output_adapter@_W@__crt_stdio_output@@@2@@__crt_stdio_output@@AAE_NXZ 100367f3 f i libucrt:output.obj
 0001:0003586c       ?type_case_a@?$output_processor@DV?$stream_output_adapter@D@__crt_stdio_output@@V?$format_validation_base@DV?$stream_output_adapter@D@__crt_stdio_output@@@2@@__crt_stdio_output@@AAE_NXZ 1003686c f i libucrt:output.obj
 0001:00035a1b       ?type_case_a@?$output_processor@DV?$stream_output_adapter@D@__crt_stdio_output@@V?$positional_parameter_base@DV?$stream_output_adapter@D@__crt_stdio_output@@@2@@__crt_stdio_output@@AAE_NXZ 10036a1b f i libucrt:output.obj
 0001:00035bf1       ?type_case_a@?$output_processor@DV?$stream_output_adapter@D@__crt_stdio_output@@V?$standard_base@DV?$stream_output_adapter@D@__crt_stdio_output@@@2@@__crt_stdio_output@@AAE_NXZ 10036bf1 f i libucrt:output.obj
 0001:00035da0       ?type_case_a@?$output_processor@DV?$string_output_adapter@D@__crt_stdio_output@@V?$format_validation_base@DV?$string_output_adapter@D@__crt_stdio_output@@@2@@__crt_stdio_output@@AAE_NXZ 10036da0 f i libucrt:output.obj
 0001:00035f4f       ?type_case_a@?$output_processor@DV?$string_output_adapter@D@__crt_stdio_output@@V?$positional_parameter_base@DV?$string_output_adapter@D@__crt_stdio_output@@@2@@__crt_stdio_output@@AAE_NXZ 10036f4f f i libucrt:output.obj
 0001:00036125       ?type_case_a@?$output_processor@DV?$string_output_adapter@D@__crt_stdio_output@@V?$standard_base@DV?$string_output_adapter@D@__crt_stdio_output@@@2@@__crt_stdio_output@@AAE_NXZ 10037125 f i libucrt:output.obj
 0001:000362d4       ?type_case_a@?$output_processor@_WV?$stream_output_adapter@_W@__crt_stdio_output@@V?$format_validation_base@_WV?$stream_output_adapter@_W@__crt_stdio_output@@@2@@__crt_stdio_output@@AAE_NXZ 100372d4 f i libucrt:output.obj
 0001:0003649e       ?type_case_a@?$output_processor@_WV?$stream_output_adapter@_W@__crt_stdio_output@@V?$positional_parameter_base@_WV?$stream_output_adapter@_W@__crt_stdio_output@@@2@@__crt_stdio_output@@AAE_NXZ 1003749e f i libucrt:output.obj
 0001:0003668f       ?type_case_a@?$output_processor@_WV?$stream_output_adapter@_W@__crt_stdio_output@@V?$standard_base@_WV?$stream_output_adapter@_W@__crt_stdio_output@@@2@@__crt_stdio_output@@AAE_NXZ 1003768f f i libucrt:output.obj
 0001:00036859       ?type_case_a@?$output_processor@_WV?$string_output_adapter@_W@__crt_stdio_output@@V?$format_validation_base@_WV?$string_output_adapter@_W@__crt_stdio_output@@@2@@__crt_stdio_output@@AAE_NXZ 10037859 f i libucrt:output.obj
 0001:00036a23       ?type_case_a@?$output_processor@_WV?$string_output_adapter@_W@__crt_stdio_output@@V?$positional_parameter_base@_WV?$string_output_adapter@_W@__crt_stdio_output@@@2@@__crt_stdio_output@@AAE_NXZ 10037a23 f i libucrt:output.obj
 0001:00036c14       ?type_case_a@?$output_processor@_WV?$string_output_adapter@_W@__crt_stdio_output@@V?$standard_base@_WV?$string_output_adapter@_W@__crt_stdio_output@@@2@@__crt_stdio_output@@AAE_NXZ 10037c14 f i libucrt:output.obj
 0001:00036dde       ?type_case_c@?$output_processor@DV?$stream_output_adapter@D@__crt_stdio_output@@V?$format_validation_base@DV?$stream_output_adapter@D@__crt_stdio_output@@@2@@__crt_stdio_output@@AAE_NXZ 10037dde f i libucrt:output.obj
 0001:00036de8       ?type_case_c@?$output_processor@DV?$stream_output_adapter@D@__crt_stdio_output@@V?$positional_parameter_base@DV?$stream_output_adapter@D@__crt_stdio_output@@@2@@__crt_stdio_output@@AAE_NXZ 10037de8 f i libucrt:output.obj
 0001:00036df2       ?type_case_c@?$output_processor@DV?$stream_output_adapter@D@__crt_stdio_output@@V?$standard_base@DV?$stream_output_adapter@D@__crt_stdio_output@@@2@@__crt_stdio_output@@AAE_NXZ 10037df2 f i libucrt:output.obj
 0001:00036dfc       ?type_case_c@?$output_processor@DV?$string_output_adapter@D@__crt_stdio_output@@V?$format_validation_base@DV?$string_output_adapter@D@__crt_stdio_output@@@2@@__crt_stdio_output@@AAE_NXZ 10037dfc f i libucrt:output.obj
 0001:00036e06       ?type_case_c@?$output_processor@DV?$string_output_adapter@D@__crt_stdio_output@@V?$positional_parameter_base@DV?$string_output_adapter@D@__crt_stdio_output@@@2@@__crt_stdio_output@@AAE_NXZ 10037e06 f i libucrt:output.obj
 0001:00036e10       ?type_case_c@?$output_processor@DV?$string_output_adapter@D@__crt_stdio_output@@V?$standard_base@DV?$string_output_adapter@D@__crt_stdio_output@@@2@@__crt_stdio_output@@AAE_NXZ 10037e10 f i libucrt:output.obj
 0001:00036e1a       ?type_case_c@?$output_processor@_WV?$stream_output_adapter@_W@__crt_stdio_output@@V?$format_validation_base@_WV?$stream_output_adapter@_W@__crt_stdio_output@@@2@@__crt_stdio_output@@AAE_NXZ 10037e1a f i libucrt:output.obj
 0001:00036e24       ?type_case_c@?$output_processor@_WV?$stream_output_adapter@_W@__crt_stdio_output@@V?$positional_parameter_base@_WV?$stream_output_adapter@_W@__crt_stdio_output@@@2@@__crt_stdio_output@@AAE_NXZ 10037e24 f i libucrt:output.obj
 0001:00036e2e       ?type_case_c@?$output_processor@_WV?$stream_output_adapter@_W@__crt_stdio_output@@V?$standard_base@_WV?$stream_output_adapter@_W@__crt_stdio_output@@@2@@__crt_stdio_output@@AAE_NXZ 10037e2e f i libucrt:output.obj
 0001:00036e38       ?type_case_c@?$output_processor@_WV?$string_output_adapter@_W@__crt_stdio_output@@V?$format_validation_base@_WV?$string_output_adapter@_W@__crt_stdio_output@@@2@@__crt_stdio_output@@AAE_NXZ 10037e38 f i libucrt:output.obj
 0001:00036e42       ?type_case_c@?$output_processor@_WV?$string_output_adapter@_W@__crt_stdio_output@@V?$positional_parameter_base@_WV?$string_output_adapter@_W@__crt_stdio_output@@@2@@__crt_stdio_output@@AAE_NXZ 10037e42 f i libucrt:output.obj
 0001:00036e4c       ?type_case_c@?$output_processor@_WV?$string_output_adapter@_W@__crt_stdio_output@@V?$standard_base@_WV?$string_output_adapter@_W@__crt_stdio_output@@@2@@__crt_stdio_output@@AAE_NXZ 10037e4c f i libucrt:output.obj
 0001:00036e56       ?type_case_c_tchar@?$output_processor@DV?$stream_output_adapter@D@__crt_stdio_output@@V?$format_validation_base@DV?$stream_output_adapter@D@__crt_stdio_output@@@2@@__crt_stdio_output@@AAE_ND@Z 10037e56 f i libucrt:output.obj
 0001:00036f0a       ?type_case_c_tchar@?$output_processor@DV?$stream_output_adapter@D@__crt_stdio_output@@V?$positional_parameter_base@DV?$stream_output_adapter@D@__crt_stdio_output@@@2@@__crt_stdio_output@@AAE_ND@Z 10037f0a f i libucrt:output.obj
 0001:00036ffa       ?type_case_c_tchar@?$output_processor@DV?$stream_output_adapter@D@__crt_stdio_output@@V?$standard_base@DV?$stream_output_adapter@D@__crt_stdio_output@@@2@@__crt_stdio_output@@AAE_ND@Z 10037ffa f i libucrt:output.obj
 0001:000370ae       ?type_case_c_tchar@?$output_processor@DV?$string_output_adapter@D@__crt_stdio_output@@V?$format_validation_base@DV?$string_output_adapter@D@__crt_stdio_output@@@2@@__crt_stdio_output@@AAE_ND@Z 100380ae f i libucrt:output.obj
 0001:00037162       ?type_case_c_tchar@?$output_processor@DV?$string_output_adapter@D@__crt_stdio_output@@V?$positional_parameter_base@DV?$string_output_adapter@D@__crt_stdio_output@@@2@@__crt_stdio_output@@AAE_ND@Z 10038162 f i libucrt:output.obj
 0001:00037252       ?type_case_c_tchar@?$output_processor@DV?$string_output_adapter@D@__crt_stdio_output@@V?$standard_base@DV?$string_output_adapter@D@__crt_stdio_output@@@2@@__crt_stdio_output@@AAE_ND@Z 10038252 f i libucrt:output.obj
 0001:00037306       ?type_case_c_tchar@?$output_processor@_WV?$stream_output_adapter@_W@__crt_stdio_output@@V?$format_validation_base@_WV?$stream_output_adapter@_W@__crt_stdio_output@@@2@@__crt_stdio_output@@AAE_N_W@Z 10038306 f i libucrt:output.obj
 0001:000373c4       ?type_case_c_tchar@?$output_processor@_WV?$stream_output_adapter@_W@__crt_stdio_output@@V?$positional_parameter_base@_WV?$stream_output_adapter@_W@__crt_stdio_output@@@2@@__crt_stdio_output@@AAE_N_W@Z 100383c4 f i libucrt:output.obj
 0001:0003749e       ?type_case_c_tchar@?$output_processor@_WV?$stream_output_adapter@_W@__crt_stdio_output@@V?$standard_base@_WV?$stream_output_adapter@_W@__crt_stdio_output@@@2@@__crt_stdio_output@@AAE_N_W@Z 1003849e f i libucrt:output.obj
 0001:0003755c       ?type_case_c_tchar@?$output_processor@_WV?$string_output_adapter@_W@__crt_stdio_output@@V?$format_validation_base@_WV?$string_output_adapter@_W@__crt_stdio_output@@@2@@__crt_stdio_output@@AAE_N_W@Z 1003855c f i libucrt:output.obj
 0001:0003761a       ?type_case_c_tchar@?$output_processor@_WV?$string_output_adapter@_W@__crt_stdio_output@@V?$positional_parameter_base@_WV?$string_output_adapter@_W@__crt_stdio_output@@@2@@__crt_stdio_output@@AAE_N_W@Z 1003861a f i libucrt:output.obj
 0001:000376f4       ?type_case_c_tchar@?$output_processor@_WV?$string_output_adapter@_W@__crt_stdio_output@@V?$standard_base@_WV?$string_output_adapter@_W@__crt_stdio_output@@@2@@__crt_stdio_output@@AAE_N_W@Z 100386f4 f i libucrt:output.obj
 0001:000377b2       ?type_case_d@?$output_processor@DV?$stream_output_adapter@D@__crt_stdio_output@@V?$format_validation_base@DV?$stream_output_adapter@D@__crt_stdio_output@@@2@@__crt_stdio_output@@AAE_NXZ 100387b2 f i libucrt:output.obj
 0001:000377c3       ?type_case_d@?$output_processor@DV?$stream_output_adapter@D@__crt_stdio_output@@V?$positional_parameter_base@DV?$stream_output_adapter@D@__crt_stdio_output@@@2@@__crt_stdio_output@@AAE_NXZ 100387c3 f i libucrt:output.obj
 0001:000377d4       ?type_case_d@?$output_processor@DV?$stream_output_adapter@D@__crt_stdio_output@@V?$standard_base@DV?$stream_output_adapter@D@__crt_stdio_output@@@2@@__crt_stdio_output@@AAE_NXZ 100387d4 f i libucrt:output.obj
 0001:000377e5       ?type_case_d@?$output_processor@DV?$string_output_adapter@D@__crt_stdio_output@@V?$format_validation_base@DV?$string_output_adapter@D@__crt_stdio_output@@@2@@__crt_stdio_output@@AAE_NXZ 100387e5 f i libucrt:output.obj
 0001:000377f6       ?type_case_d@?$output_processor@DV?$string_output_adapter@D@__crt_stdio_output@@V?$positional_parameter_base@DV?$string_output_adapter@D@__crt_stdio_output@@@2@@__crt_stdio_output@@AAE_NXZ 100387f6 f i libucrt:output.obj
 0001:00037807       ?type_case_d@?$output_processor@DV?$string_output_adapter@D@__crt_stdio_output@@V?$standard_base@DV?$string_output_adapter@D@__crt_stdio_output@@@2@@__crt_stdio_output@@AAE_NXZ 10038807 f i libucrt:output.obj
 0001:00037818       ?type_case_d@?$output_processor@_WV?$stream_output_adapter@_W@__crt_stdio_output@@V?$format_validation_base@_WV?$stream_output_adapter@_W@__crt_stdio_output@@@2@@__crt_stdio_output@@AAE_NXZ 10038818 f i libucrt:output.obj
 0001:00037829       ?type_case_d@?$output_processor@_WV?$stream_output_adapter@_W@__crt_stdio_output@@V?$positional_parameter_base@_WV?$stream_output_adapter@_W@__crt_stdio_output@@@2@@__crt_stdio_output@@AAE_NXZ 10038829 f i libucrt:output.obj
 0001:0003783a       ?type_case_d@?$output_processor@_WV?$stream_output_adapter@_W@__crt_stdio_output@@V?$standard_base@_WV?$stream_output_adapter@_W@__crt_stdio_output@@@2@@__crt_stdio_output@@AAE_NXZ 1003883a f i libucrt:output.obj
 0001:0003784b       ?type_case_d@?$output_processor@_WV?$string_output_adapter@_W@__crt_stdio_output@@V?$format_validation_base@_WV?$string_output_adapter@_W@__crt_stdio_output@@@2@@__crt_stdio_output@@AAE_NXZ 1003884b f i libucrt:output.obj
 0001:0003785c       ?type_case_d@?$output_processor@_WV?$string_output_adapter@_W@__crt_stdio_output@@V?$positional_parameter_base@_WV?$string_output_adapter@_W@__crt_stdio_output@@@2@@__crt_stdio_output@@AAE_NXZ 1003885c f i libucrt:output.obj
 0001:0003786d       ?type_case_d@?$output_processor@_WV?$string_output_adapter@_W@__crt_stdio_output@@V?$standard_base@_WV?$string_output_adapter@_W@__crt_stdio_output@@@2@@__crt_stdio_output@@AAE_NXZ 1003886d f i libucrt:output.obj
 0001:0003787e       ?type_case_integer@?$output_processor@DV?$stream_output_adapter@D@__crt_stdio_output@@V?$format_validation_base@DV?$stream_output_adapter@D@__crt_stdio_output@@@2@@__crt_stdio_output@@AAE_NI_N@Z 1003887e f i libucrt:output.obj
 0001:00037a25       ?type_case_integer@?$output_processor@DV?$stream_output_adapter@D@__crt_stdio_output@@V?$positional_parameter_base@DV?$stream_output_adapter@D@__crt_stdio_output@@@2@@__crt_stdio_output@@AAE_NI_N@Z 10038a25 f i libucrt:output.obj
 0001:00037c08       ?type_case_integer@?$output_processor@DV?$stream_output_adapter@D@__crt_stdio_output@@V?$standard_base@DV?$stream_output_adapter@D@__crt_stdio_output@@@2@@__crt_stdio_output@@AAE_NI_N@Z 10038c08 f i libucrt:output.obj
 0001:00037daf       ?type_case_integer@?$output_processor@DV?$string_output_adapter@D@__crt_stdio_output@@V?$format_validation_base@DV?$string_output_adapter@D@__crt_stdio_output@@@2@@__crt_stdio_output@@AAE_NI_N@Z 10038daf f i libucrt:output.obj
 0001:00037f56       ?type_case_integer@?$output_processor@DV?$string_output_adapter@D@__crt_stdio_output@@V?$positional_parameter_base@DV?$string_output_adapter@D@__crt_stdio_output@@@2@@__crt_stdio_output@@AAE_NI_N@Z 10038f56 f i libucrt:output.obj
 0001:00038139       ?type_case_integer@?$output_processor@DV?$string_output_adapter@D@__crt_stdio_output@@V?$standard_base@DV?$string_output_adapter@D@__crt_stdio_output@@@2@@__crt_stdio_output@@AAE_NI_N@Z 10039139 f i libucrt:output.obj
 0001:000382e0       ?type_case_integer@?$output_processor@_WV?$stream_output_adapter@_W@__crt_stdio_output@@V?$format_validation_base@_WV?$stream_output_adapter@_W@__crt_stdio_output@@@2@@__crt_stdio_output@@AAE_NI_N@Z 100392e0 f i libucrt:output.obj
 0001:0003848c       ?type_case_integer@?$output_processor@_WV?$stream_output_adapter@_W@__crt_stdio_output@@V?$positional_parameter_base@_WV?$stream_output_adapter@_W@__crt_stdio_output@@@2@@__crt_stdio_output@@AAE_NI_N@Z 1003948c f i libucrt:output.obj
 0001:00038674       ?type_case_integer@?$output_processor@_WV?$stream_output_adapter@_W@__crt_stdio_output@@V?$standard_base@_WV?$stream_output_adapter@_W@__crt_stdio_output@@@2@@__crt_stdio_output@@AAE_NI_N@Z 10039674 f i libucrt:output.obj
 0001:00038820       ?type_case_integer@?$output_processor@_WV?$string_output_adapter@_W@__crt_stdio_output@@V?$format_validation_base@_WV?$string_output_adapter@_W@__crt_stdio_output@@@2@@__crt_stdio_output@@AAE_NI_N@Z 10039820 f i libucrt:output.obj
 0001:000389cc       ?type_case_integer@?$output_processor@_WV?$string_output_adapter@_W@__crt_stdio_output@@V?$positional_parameter_base@_WV?$string_output_adapter@_W@__crt_stdio_output@@@2@@__crt_stdio_output@@AAE_NI_N@Z 100399cc f i libucrt:output.obj
 0001:00038bb4       ?type_case_integer@?$output_processor@_WV?$string_output_adapter@_W@__crt_stdio_output@@V?$standard_base@_WV?$string_output_adapter@_W@__crt_stdio_output@@@2@@__crt_stdio_output@@AAE_NI_N@Z 10039bb4 f i libucrt:output.obj
 0001:00038d60       ?type_case_n@?$output_processor@DV?$stream_output_adapter@D@__crt_stdio_output@@V?$format_validation_base@DV?$stream_output_adapter@D@__crt_stdio_output@@@2@@__crt_stdio_output@@AAE_NXZ 10039d60 f i libucrt:output.obj
 0001:00038df1       ?type_case_n@?$output_processor@DV?$stream_output_adapter@D@__crt_stdio_output@@V?$positional_parameter_base@DV?$stream_output_adapter@D@__crt_stdio_output@@@2@@__crt_stdio_output@@AAE_NXZ 10039df1 f i libucrt:output.obj
 0001:00038eb0       ?type_case_n@?$output_processor@DV?$stream_output_adapter@D@__crt_stdio_output@@V?$standard_base@DV?$stream_output_adapter@D@__crt_stdio_output@@@2@@__crt_stdio_output@@AAE_NXZ 10039eb0 f i libucrt:output.obj
 0001:00038f41       ?type_case_n@?$output_processor@DV?$string_output_adapter@D@__crt_stdio_output@@V?$format_validation_base@DV?$string_output_adapter@D@__crt_stdio_output@@@2@@__crt_stdio_output@@AAE_NXZ 10039f41 f i libucrt:output.obj
 0001:00038fd2       ?type_case_n@?$output_processor@DV?$string_output_adapter@D@__crt_stdio_output@@V?$positional_parameter_base@DV?$string_output_adapter@D@__crt_stdio_output@@@2@@__crt_stdio_output@@AAE_NXZ 10039fd2 f i libucrt:output.obj
 0001:00039091       ?type_case_n@?$output_processor@DV?$string_output_adapter@D@__crt_stdio_output@@V?$standard_base@DV?$string_output_adapter@D@__crt_stdio_output@@@2@@__crt_stdio_output@@AAE_NXZ 1003a091 f i libucrt:output.obj
 0001:00039122       ?type_case_n@?$output_processor@_WV?$stream_output_adapter@_W@__crt_stdio_output@@V?$format_validation_base@_WV?$stream_output_adapter@_W@__crt_stdio_output@@@2@@__crt_stdio_output@@AAE_NXZ 1003a122 f i libucrt:output.obj
 0001:000391b3       ?type_case_n@?$output_processor@_WV?$stream_output_adapter@_W@__crt_stdio_output@@V?$positional_parameter_base@_WV?$stream_output_adapter@_W@__crt_stdio_output@@@2@@__crt_stdio_output@@AAE_NXZ 1003a1b3 f i libucrt:output.obj
 0001:00039272       ?type_case_n@?$output_processor@_WV?$stream_output_adapter@_W@__crt_stdio_output@@V?$standard_base@_WV?$stream_output_adapter@_W@__crt_stdio_output@@@2@@__crt_stdio_output@@AAE_NXZ 1003a272 f i libucrt:output.obj
 0001:00039303       ?type_case_n@?$output_processor@_WV?$string_output_adapter@_W@__crt_stdio_output@@V?$format_validation_base@_WV?$string_output_adapter@_W@__crt_stdio_output@@@2@@__crt_stdio_output@@AAE_NXZ 1003a303 f i libucrt:output.obj
 0001:00039394       ?type_case_n@?$output_processor@_WV?$string_output_adapter@_W@__crt_stdio_output@@V?$positional_parameter_base@_WV?$string_output_adapter@_W@__crt_stdio_output@@@2@@__crt_stdio_output@@AAE_NXZ 1003a394 f i libucrt:output.obj
 0001:00039453       ?type_case_n@?$output_processor@_WV?$string_output_adapter@_W@__crt_stdio_output@@V?$standard_base@_WV?$string_output_adapter@_W@__crt_stdio_output@@@2@@__crt_stdio_output@@AAE_NXZ 1003a453 f i libucrt:output.obj
 0001:000394e4       ?type_case_o@?$output_processor@DV?$stream_output_adapter@D@__crt_stdio_output@@V?$format_validation_base@DV?$stream_output_adapter@D@__crt_stdio_output@@@2@@__crt_stdio_output@@AAE_NXZ 1003a4e4 f i libucrt:output.obj
 0001:0003950a       ?type_case_o@?$output_processor@DV?$stream_output_adapter@D@__crt_stdio_output@@V?$positional_parameter_base@DV?$stream_output_adapter@D@__crt_stdio_output@@@2@@__crt_stdio_output@@AAE_NXZ 1003a50a f i libucrt:output.obj
 0001:00039530       ?type_case_o@?$output_processor@DV?$stream_output_adapter@D@__crt_stdio_output@@V?$standard_base@DV?$stream_output_adapter@D@__crt_stdio_output@@@2@@__crt_stdio_output@@AAE_NXZ 1003a530 f i libucrt:output.obj
 0001:00039556       ?type_case_o@?$output_processor@DV?$string_output_adapter@D@__crt_stdio_output@@V?$format_validation_base@DV?$string_output_adapter@D@__crt_stdio_output@@@2@@__crt_stdio_output@@AAE_NXZ 1003a556 f i libucrt:output.obj
 0001:0003957c       ?type_case_o@?$output_processor@DV?$string_output_adapter@D@__crt_stdio_output@@V?$positional_parameter_base@DV?$string_output_adapter@D@__crt_stdio_output@@@2@@__crt_stdio_output@@AAE_NXZ 1003a57c f i libucrt:output.obj
 0001:000395a2       ?type_case_o@?$output_processor@DV?$string_output_adapter@D@__crt_stdio_output@@V?$standard_base@DV?$string_output_adapter@D@__crt_stdio_output@@@2@@__crt_stdio_output@@AAE_NXZ 1003a5a2 f i libucrt:output.obj
 0001:000395c8       ?type_case_o@?$output_processor@_WV?$stream_output_adapter@_W@__crt_stdio_output@@V?$format_validation_base@_WV?$stream_output_adapter@_W@__crt_stdio_output@@@2@@__crt_stdio_output@@AAE_NXZ 1003a5c8 f i libucrt:output.obj
 0001:000395ee       ?type_case_o@?$output_processor@_WV?$stream_output_adapter@_W@__crt_stdio_output@@V?$positional_parameter_base@_WV?$stream_output_adapter@_W@__crt_stdio_output@@@2@@__crt_stdio_output@@AAE_NXZ 1003a5ee f i libucrt:output.obj
 0001:00039614       ?type_case_o@?$output_processor@_WV?$stream_output_adapter@_W@__crt_stdio_output@@V?$standard_base@_WV?$stream_output_adapter@_W@__crt_stdio_output@@@2@@__crt_stdio_output@@AAE_NXZ 1003a614 f i libucrt:output.obj
 0001:0003963a       ?type_case_o@?$output_processor@_WV?$string_output_adapter@_W@__crt_stdio_output@@V?$format_validation_base@_WV?$string_output_adapter@_W@__crt_stdio_output@@@2@@__crt_stdio_output@@AAE_NXZ 1003a63a f i libucrt:output.obj
 0001:00039660       ?type_case_o@?$output_processor@_WV?$string_output_adapter@_W@__crt_stdio_output@@V?$positional_parameter_base@_WV?$string_output_adapter@_W@__crt_stdio_output@@@2@@__crt_stdio_output@@AAE_NXZ 1003a660 f i libucrt:output.obj
 0001:00039686       ?type_case_o@?$output_processor@_WV?$string_output_adapter@_W@__crt_stdio_output@@V?$standard_base@_WV?$string_output_adapter@_W@__crt_stdio_output@@@2@@__crt_stdio_output@@AAE_NXZ 1003a686 f i libucrt:output.obj
 0001:000396ac       ?type_case_p@?$output_processor@DV?$stream_output_adapter@D@__crt_stdio_output@@V?$format_validation_base@DV?$stream_output_adapter@D@__crt_stdio_output@@@2@@__crt_stdio_output@@AAE_NXZ 1003a6ac f i libucrt:output.obj
 0001:000396ca       ?type_case_p@?$output_processor@DV?$stream_output_adapter@D@__crt_stdio_output@@V?$positional_parameter_base@DV?$stream_output_adapter@D@__crt_stdio_output@@@2@@__crt_stdio_output@@AAE_NXZ 1003a6ca f i libucrt:output.obj
 0001:000396e8       ?type_case_p@?$output_processor@DV?$stream_output_adapter@D@__crt_stdio_output@@V?$standard_base@DV?$stream_output_adapter@D@__crt_stdio_output@@@2@@__crt_stdio_output@@AAE_NXZ 1003a6e8 f i libucrt:output.obj
 0001:00039706       ?type_case_p@?$output_processor@DV?$string_output_adapter@D@__crt_stdio_output@@V?$format_validation_base@DV?$string_output_adapter@D@__crt_stdio_output@@@2@@__crt_stdio_output@@AAE_NXZ 1003a706 f i libucrt:output.obj
 0001:00039724       ?type_case_p@?$output_processor@DV?$string_output_adapter@D@__crt_stdio_output@@V?$positional_parameter_base@DV?$string_output_adapter@D@__crt_stdio_output@@@2@@__crt_stdio_output@@AAE_NXZ 1003a724 f i libucrt:output.obj
 0001:00039742       ?type_case_p@?$output_processor@DV?$string_output_adapter@D@__crt_stdio_output@@V?$standard_base@DV?$string_output_adapter@D@__crt_stdio_output@@@2@@__crt_stdio_output@@AAE_NXZ 1003a742 f i libucrt:output.obj
 0001:00039760       ?type_case_p@?$output_processor@_WV?$stream_output_adapter@_W@__crt_stdio_output@@V?$format_validation_base@_WV?$stream_output_adapter@_W@__crt_stdio_output@@@2@@__crt_stdio_output@@AAE_NXZ 1003a760 f i libucrt:output.obj
 0001:0003977e       ?type_case_p@?$output_processor@_WV?$stream_output_adapter@_W@__crt_stdio_output@@V?$positional_parameter_base@_WV?$stream_output_adapter@_W@__crt_stdio_output@@@2@@__crt_stdio_output@@AAE_NXZ 1003a77e f i libucrt:output.obj
 0001:0003979c       ?type_case_p@?$output_processor@_WV?$stream_output_adapter@_W@__crt_stdio_output@@V?$standard_base@_WV?$stream_output_adapter@_W@__crt_stdio_output@@@2@@__crt_stdio_output@@AAE_NXZ 1003a79c f i libucrt:output.obj
 0001:000397ba       ?type_case_p@?$output_processor@_WV?$string_output_adapter@_W@__crt_stdio_output@@V?$format_validation_base@_WV?$string_output_adapter@_W@__crt_stdio_output@@@2@@__crt_stdio_output@@AAE_NXZ 1003a7ba f i libucrt:output.obj
 0001:000397d8       ?type_case_p@?$output_processor@_WV?$string_output_adapter@_W@__crt_stdio_output@@V?$positional_parameter_base@_WV?$string_output_adapter@_W@__crt_stdio_output@@@2@@__crt_stdio_output@@AAE_NXZ 1003a7d8 f i libucrt:output.obj
 0001:000397f6       ?type_case_p@?$output_processor@_WV?$string_output_adapter@_W@__crt_stdio_output@@V?$standard_base@_WV?$string_output_adapter@_W@__crt_stdio_output@@@2@@__crt_stdio_output@@AAE_NXZ 1003a7f6 f i libucrt:output.obj
 0001:00039814       ?type_case_s@?$output_processor@DV?$stream_output_adapter@D@__crt_stdio_output@@V?$format_validation_base@DV?$stream_output_adapter@D@__crt_stdio_output@@@2@@__crt_stdio_output@@AAE_NXZ 1003a814 f i libucrt:output.obj
 0001:000398a1       ?type_case_s@?$output_processor@DV?$stream_output_adapter@D@__crt_stdio_output@@V?$positional_parameter_base@DV?$stream_output_adapter@D@__crt_stdio_output@@@2@@__crt_stdio_output@@AAE_NXZ 1003a8a1 f i libucrt:output.obj
 0001:0003993e       ?type_case_s@?$output_processor@DV?$stream_output_adapter@D@__crt_stdio_output@@V?$standard_base@DV?$stream_output_adapter@D@__crt_stdio_output@@@2@@__crt_stdio_output@@AAE_NXZ 1003a93e f i libucrt:output.obj
 0001:000399cb       ?type_case_s@?$output_processor@DV?$string_output_adapter@D@__crt_stdio_output@@V?$format_validation_base@DV?$string_output_adapter@D@__crt_stdio_output@@@2@@__crt_stdio_output@@AAE_NXZ 1003a9cb f i libucrt:output.obj
 0001:00039a58       ?type_case_s@?$output_processor@DV?$string_output_adapter@D@__crt_stdio_output@@V?$positional_parameter_base@DV?$string_output_adapter@D@__crt_stdio_output@@@2@@__crt_stdio_output@@AAE_NXZ 1003aa58 f i libucrt:output.obj
 0001:00039af5       ?type_case_s@?$output_processor@DV?$string_output_adapter@D@__crt_stdio_output@@V?$standard_base@DV?$string_output_adapter@D@__crt_stdio_output@@@2@@__crt_stdio_output@@AAE_NXZ 1003aaf5 f i libucrt:output.obj
 0001:00039b82       ?type_case_s@?$output_processor@_WV?$stream_output_adapter@_W@__crt_stdio_output@@V?$format_validation_base@_WV?$stream_output_adapter@_W@__crt_stdio_output@@@2@@__crt_stdio_output@@AAE_NXZ 1003ab82 f i libucrt:output.obj
 0001:00039c11       ?type_case_s@?$output_processor@_WV?$stream_output_adapter@_W@__crt_stdio_output@@V?$positional_parameter_base@_WV?$stream_output_adapter@_W@__crt_stdio_output@@@2@@__crt_stdio_output@@AAE_NXZ 1003ac11 f i libucrt:output.obj
 0001:00039cb1       ?type_case_s@?$output_processor@_WV?$stream_output_adapter@_W@__crt_stdio_output@@V?$standard_base@_WV?$stream_output_adapter@_W@__crt_stdio_output@@@2@@__crt_stdio_output@@AAE_NXZ 1003acb1 f i libucrt:output.obj
 0001:00039d40       ?type_case_s@?$output_processor@_WV?$string_output_adapter@_W@__crt_stdio_output@@V?$format_validation_base@_WV?$string_output_adapter@_W@__crt_stdio_output@@@2@@__crt_stdio_output@@AAE_NXZ 1003ad40 f i libucrt:output.obj
 0001:00039dcf       ?type_case_s@?$output_processor@_WV?$string_output_adapter@_W@__crt_stdio_output@@V?$positional_parameter_base@_WV?$string_output_adapter@_W@__crt_stdio_output@@@2@@__crt_stdio_output@@AAE_NXZ 1003adcf f i libucrt:output.obj
 0001:00039e6f       ?type_case_s@?$output_processor@_WV?$string_output_adapter@_W@__crt_stdio_output@@V?$standard_base@_WV?$string_output_adapter@_W@__crt_stdio_output@@@2@@__crt_stdio_output@@AAE_NXZ 1003ae6f f i libucrt:output.obj
 0001:00039efe       ?type_case_s_compute_narrow_string_length@?$output_processor@DV?$stream_output_adapter@D@__crt_stdio_output@@V?$format_validation_base@DV?$stream_output_adapter@D@__crt_stdio_output@@@2@@__crt_stdio_output@@ABEHHD@Z 1003aefe f i libucrt:output.obj
 0001:00039f19       ?type_case_s_compute_narrow_string_length@?$output_processor@DV?$stream_output_adapter@D@__crt_stdio_output@@V?$positional_parameter_base@DV?$stream_output_adapter@D@__crt_stdio_output@@@2@@__crt_stdio_output@@ABEHHD@Z 1003af19 f i libucrt:output.obj
 0001:00039f34       ?type_case_s_compute_narrow_string_length@?$output_processor@DV?$stream_output_adapter@D@__crt_stdio_output@@V?$standard_base@DV?$stream_output_adapter@D@__crt_stdio_output@@@2@@__crt_stdio_output@@ABEHHD@Z 1003af34 f i libucrt:output.obj
 0001:00039f4f       ?type_case_s_compute_narrow_string_length@?$output_processor@DV?$string_output_adapter@D@__crt_stdio_output@@V?$format_validation_base@DV?$string_output_adapter@D@__crt_stdio_output@@@2@@__crt_stdio_output@@ABEHHD@Z 1003af4f f i libucrt:output.obj
 0001:00039f6a       ?type_case_s_compute_narrow_string_length@?$output_processor@DV?$string_output_adapter@D@__crt_stdio_output@@V?$positional_parameter_base@DV?$string_output_adapter@D@__crt_stdio_output@@@2@@__crt_stdio_output@@ABEHHD@Z 1003af6a f i libucrt:output.obj
 0001:00039f85       ?type_case_s_compute_narrow_string_length@?$output_processor@DV?$string_output_adapter@D@__crt_stdio_output@@V?$standard_base@DV?$string_output_adapter@D@__crt_stdio_output@@@2@@__crt_stdio_output@@ABEHHD@Z 1003af85 f i libucrt:output.obj
 0001:00039fa0       ?type_case_s_compute_narrow_string_length@?$output_processor@_WV?$stream_output_adapter@_W@__crt_stdio_output@@V?$format_validation_base@_WV?$stream_output_adapter@_W@__crt_stdio_output@@@2@@__crt_stdio_output@@ABEHH_W@Z 1003afa0 f i libucrt:output.obj
 0001:00039fec       ?type_case_s_compute_narrow_string_length@?$output_processor@_WV?$stream_output_adapter@_W@__crt_stdio_output@@V?$positional_parameter_base@_WV?$stream_output_adapter@_W@__crt_stdio_output@@@2@@__crt_stdio_output@@ABEHH_W@Z 1003afec f i libucrt:output.obj
 0001:0003a038       ?type_case_s_compute_narrow_string_length@?$output_processor@_WV?$stream_output_adapter@_W@__crt_stdio_output@@V?$standard_base@_WV?$stream_output_adapter@_W@__crt_stdio_output@@@2@@__crt_stdio_output@@ABEHH_W@Z 1003b038 f i libucrt:output.obj
 0001:0003a084       ?type_case_s_compute_narrow_string_length@?$output_processor@_WV?$string_output_adapter@_W@__crt_stdio_output@@V?$format_validation_base@_WV?$string_output_adapter@_W@__crt_stdio_output@@@2@@__crt_stdio_output@@ABEHH_W@Z 1003b084 f i libucrt:output.obj
 0001:0003a0d0       ?type_case_s_compute_narrow_string_length@?$output_processor@_WV?$string_output_adapter@_W@__crt_stdio_output@@V?$positional_parameter_base@_WV?$string_output_adapter@_W@__crt_stdio_output@@@2@@__crt_stdio_output@@ABEHH_W@Z 1003b0d0 f i libucrt:output.obj
 0001:0003a11c       ?type_case_s_compute_narrow_string_length@?$output_processor@_WV?$string_output_adapter@_W@__crt_stdio_output@@V?$standard_base@_WV?$string_output_adapter@_W@__crt_stdio_output@@@2@@__crt_stdio_output@@ABEHH_W@Z 1003b11c f i libucrt:output.obj
 0001:0003a168       ?type_case_u@?$output_processor@DV?$stream_output_adapter@D@__crt_stdio_output@@V?$format_validation_base@DV?$stream_output_adapter@D@__crt_stdio_output@@@2@@__crt_stdio_output@@AAE_NXZ 1003b168 f i libucrt:output.obj
 0001:0003a174       ?type_case_u@?$output_processor@DV?$stream_output_adapter@D@__crt_stdio_output@@V?$positional_parameter_base@DV?$stream_output_adapter@D@__crt_stdio_output@@@2@@__crt_stdio_output@@AAE_NXZ 1003b174 f i libucrt:output.obj
 0001:0003a180       ?type_case_u@?$output_processor@DV?$stream_output_adapter@D@__crt_stdio_output@@V?$standard_base@DV?$stream_output_adapter@D@__crt_stdio_output@@@2@@__crt_stdio_output@@AAE_NXZ 1003b180 f i libucrt:output.obj
 0001:0003a18c       ?type_case_u@?$output_processor@DV?$string_output_adapter@D@__crt_stdio_output@@V?$format_validation_base@DV?$string_output_adapter@D@__crt_stdio_output@@@2@@__crt_stdio_output@@AAE_NXZ 1003b18c f i libucrt:output.obj
 0001:0003a198       ?type_case_u@?$output_processor@DV?$string_output_adapter@D@__crt_stdio_output@@V?$positional_parameter_base@DV?$string_output_adapter@D@__crt_stdio_output@@@2@@__crt_stdio_output@@AAE_NXZ 1003b198 f i libucrt:output.obj
 0001:0003a1a4       ?type_case_u@?$output_processor@DV?$string_output_adapter@D@__crt_stdio_output@@V?$standard_base@DV?$string_output_adapter@D@__crt_stdio_output@@@2@@__crt_stdio_output@@AAE_NXZ 1003b1a4 f i libucrt:output.obj
 0001:0003a1b0       ?type_case_u@?$output_processor@_WV?$stream_output_adapter@_W@__crt_stdio_output@@V?$format_validation_base@_WV?$stream_output_adapter@_W@__crt_stdio_output@@@2@@__crt_stdio_output@@AAE_NXZ 1003b1b0 f i libucrt:output.obj
 0001:0003a1bc       ?type_case_u@?$output_processor@_WV?$stream_output_adapter@_W@__crt_stdio_output@@V?$positional_parameter_base@_WV?$stream_output_adapter@_W@__crt_stdio_output@@@2@@__crt_stdio_output@@AAE_NXZ 1003b1bc f i libucrt:output.obj
 0001:0003a1c8       ?type_case_u@?$output_processor@_WV?$stream_output_adapter@_W@__crt_stdio_output@@V?$standard_base@_WV?$stream_output_adapter@_W@__crt_stdio_output@@@2@@__crt_stdio_output@@AAE_NXZ 1003b1c8 f i libucrt:output.obj
 0001:0003a1d4       ?type_case_u@?$output_processor@_WV?$string_output_adapter@_W@__crt_stdio_output@@V?$format_validation_base@_WV?$string_output_adapter@_W@__crt_stdio_output@@@2@@__crt_stdio_output@@AAE_NXZ 1003b1d4 f i libucrt:output.obj
 0001:0003a1e0       ?type_case_u@?$output_processor@_WV?$string_output_adapter@_W@__crt_stdio_output@@V?$positional_parameter_base@_WV?$string_output_adapter@_W@__crt_stdio_output@@@2@@__crt_stdio_output@@AAE_NXZ 1003b1e0 f i libucrt:output.obj
 0001:0003a1ec       ?type_case_u@?$output_processor@_WV?$string_output_adapter@_W@__crt_stdio_output@@V?$standard_base@_WV?$string_output_adapter@_W@__crt_stdio_output@@@2@@__crt_stdio_output@@AAE_NXZ 1003b1ec f i libucrt:output.obj
 0001:0003a1f8       ?type_case_x@?$output_processor@DV?$stream_output_adapter@D@__crt_stdio_output@@V?$format_validation_base@DV?$stream_output_adapter@D@__crt_stdio_output@@@2@@__crt_stdio_output@@AAE_NXZ 1003b1f8 f i libucrt:output.obj
 0001:0003a204       ?type_case_x@?$output_processor@DV?$stream_output_adapter@D@__crt_stdio_output@@V?$positional_parameter_base@DV?$stream_output_adapter@D@__crt_stdio_output@@@2@@__crt_stdio_output@@AAE_NXZ 1003b204 f i libucrt:output.obj
 0001:0003a210       ?type_case_x@?$output_processor@DV?$stream_output_adapter@D@__crt_stdio_output@@V?$standard_base@DV?$stream_output_adapter@D@__crt_stdio_output@@@2@@__crt_stdio_output@@AAE_NXZ 1003b210 f i libucrt:output.obj
 0001:0003a21c       ?type_case_x@?$output_processor@DV?$string_output_adapter@D@__crt_stdio_output@@V?$format_validation_base@DV?$string_output_adapter@D@__crt_stdio_output@@@2@@__crt_stdio_output@@AAE_NXZ 1003b21c f i libucrt:output.obj
 0001:0003a228       ?type_case_x@?$output_processor@DV?$string_output_adapter@D@__crt_stdio_output@@V?$positional_parameter_base@DV?$string_output_adapter@D@__crt_stdio_output@@@2@@__crt_stdio_output@@AAE_NXZ 1003b228 f i libucrt:output.obj
 0001:0003a234       ?type_case_x@?$output_processor@DV?$string_output_adapter@D@__crt_stdio_output@@V?$standard_base@DV?$string_output_adapter@D@__crt_stdio_output@@@2@@__crt_stdio_output@@AAE_NXZ 1003b234 f i libucrt:output.obj
 0001:0003a240       ?type_case_x@?$output_processor@_WV?$stream_output_adapter@_W@__crt_stdio_output@@V?$format_validation_base@_WV?$stream_output_adapter@_W@__crt_stdio_output@@@2@@__crt_stdio_output@@AAE_NXZ 1003b240 f i libucrt:output.obj
 0001:0003a24c       ?type_case_x@?$output_processor@_WV?$stream_output_adapter@_W@__crt_stdio_output@@V?$positional_parameter_base@_WV?$stream_output_adapter@_W@__crt_stdio_output@@@2@@__crt_stdio_output@@AAE_NXZ 1003b24c f i libucrt:output.obj
 0001:0003a258       ?type_case_x@?$output_processor@_WV?$stream_output_adapter@_W@__crt_stdio_output@@V?$standard_base@_WV?$stream_output_adapter@_W@__crt_stdio_output@@@2@@__crt_stdio_output@@AAE_NXZ 1003b258 f i libucrt:output.obj
 0001:0003a264       ?type_case_x@?$output_processor@_WV?$string_output_adapter@_W@__crt_stdio_output@@V?$format_validation_base@_WV?$string_output_adapter@_W@__crt_stdio_output@@@2@@__crt_stdio_output@@AAE_NXZ 1003b264 f i libucrt:output.obj
 0001:0003a270       ?type_case_x@?$output_processor@_WV?$string_output_adapter@_W@__crt_stdio_output@@V?$positional_parameter_base@_WV?$string_output_adapter@_W@__crt_stdio_output@@@2@@__crt_stdio_output@@AAE_NXZ 1003b270 f i libucrt:output.obj
 0001:0003a27c       ?type_case_x@?$output_processor@_WV?$string_output_adapter@_W@__crt_stdio_output@@V?$standard_base@_WV?$string_output_adapter@_W@__crt_stdio_output@@@2@@__crt_stdio_output@@AAE_NXZ 1003b27c f i libucrt:output.obj
 0001:0003a288       ?unset_flag@?$output_processor@DV?$stream_output_adapter@D@__crt_stdio_output@@V?$format_validation_base@DV?$stream_output_adapter@D@__crt_stdio_output@@@2@@__crt_stdio_output@@AAEXI@Z 1003b288 f i libucrt:output.obj
 0001:0003a29d       ?unset_flag@?$output_processor@DV?$stream_output_adapter@D@__crt_stdio_output@@V?$positional_parameter_base@DV?$stream_output_adapter@D@__crt_stdio_output@@@2@@__crt_stdio_output@@AAEXI@Z 1003b29d f i libucrt:output.obj
 0001:0003a2b2       ?unset_flag@?$output_processor@DV?$stream_output_adapter@D@__crt_stdio_output@@V?$standard_base@DV?$stream_output_adapter@D@__crt_stdio_output@@@2@@__crt_stdio_output@@AAEXI@Z 1003b2b2 f i libucrt:output.obj
 0001:0003a2c7       ?unset_flag@?$output_processor@DV?$string_output_adapter@D@__crt_stdio_output@@V?$format_validation_base@DV?$string_output_adapter@D@__crt_stdio_output@@@2@@__crt_stdio_output@@AAEXI@Z 1003b2c7 f i libucrt:output.obj
 0001:0003a2dc       ?unset_flag@?$output_processor@DV?$string_output_adapter@D@__crt_stdio_output@@V?$positional_parameter_base@DV?$string_output_adapter@D@__crt_stdio_output@@@2@@__crt_stdio_output@@AAEXI@Z 1003b2dc f i libucrt:output.obj
 0001:0003a2f1       ?unset_flag@?$output_processor@DV?$string_output_adapter@D@__crt_stdio_output@@V?$standard_base@DV?$string_output_adapter@D@__crt_stdio_output@@@2@@__crt_stdio_output@@AAEXI@Z 1003b2f1 f i libucrt:output.obj
 0001:0003a306       ?unset_flag@?$output_processor@_WV?$stream_output_adapter@_W@__crt_stdio_output@@V?$format_validation_base@_WV?$stream_output_adapter@_W@__crt_stdio_output@@@2@@__crt_stdio_output@@AAEXI@Z 1003b306 f i libucrt:output.obj
 0001:0003a31b       ?unset_flag@?$output_processor@_WV?$stream_output_adapter@_W@__crt_stdio_output@@V?$positional_parameter_base@_WV?$stream_output_adapter@_W@__crt_stdio_output@@@2@@__crt_stdio_output@@AAEXI@Z 1003b31b f i libucrt:output.obj
 0001:0003a330       ?unset_flag@?$output_processor@_WV?$stream_output_adapter@_W@__crt_stdio_output@@V?$standard_base@_WV?$stream_output_adapter@_W@__crt_stdio_output@@@2@@__crt_stdio_output@@AAEXI@Z 1003b330 f i libucrt:output.obj
 0001:0003a345       ?unset_flag@?$output_processor@_WV?$string_output_adapter@_W@__crt_stdio_output@@V?$format_validation_base@_WV?$string_output_adapter@_W@__crt_stdio_output@@@2@@__crt_stdio_output@@AAEXI@Z 1003b345 f i libucrt:output.obj
 0001:0003a35a       ?unset_flag@?$output_processor@_WV?$string_output_adapter@_W@__crt_stdio_output@@V?$positional_parameter_base@_WV?$string_output_adapter@_W@__crt_stdio_output@@@2@@__crt_stdio_output@@AAEXI@Z 1003b35a f i libucrt:output.obj
 0001:0003a36f       ?unset_flag@?$output_processor@_WV?$string_output_adapter@_W@__crt_stdio_output@@V?$standard_base@_WV?$string_output_adapter@_W@__crt_stdio_output@@@2@@__crt_stdio_output@@AAEXI@Z 1003b36f f i libucrt:output.obj
 0001:0003a384       ?update_field_width@?$positional_parameter_base@DV?$stream_output_adapter@D@__crt_stdio_output@@@__crt_stdio_output@@IAE_NXZ 1003b384 f i libucrt:output.obj
 0001:0003a467       ?update_field_width@?$positional_parameter_base@DV?$string_output_adapter@D@__crt_stdio_output@@@__crt_stdio_output@@IAE_NXZ 1003b467 f i libucrt:output.obj
 0001:0003a54a       ?update_field_width@?$positional_parameter_base@_WV?$stream_output_adapter@_W@__crt_stdio_output@@@__crt_stdio_output@@IAE_NXZ 1003b54a f i libucrt:output.obj
 0001:0003a62e       ?update_field_width@?$positional_parameter_base@_WV?$string_output_adapter@_W@__crt_stdio_output@@@__crt_stdio_output@@IAE_NXZ 1003b62e f i libucrt:output.obj
 0001:0003a712       ?update_field_width@?$standard_base@DV?$stream_output_adapter@D@__crt_stdio_output@@@__crt_stdio_output@@IAE_NXZ 1003b712 f i libucrt:output.obj
 0001:0003a726       ?update_field_width@?$standard_base@DV?$string_output_adapter@D@__crt_stdio_output@@@__crt_stdio_output@@IAE_NXZ 1003b726 f i libucrt:output.obj
 0001:0003a73a       ?update_field_width@?$standard_base@_WV?$stream_output_adapter@_W@__crt_stdio_output@@@__crt_stdio_output@@IAE_NXZ 1003b73a f i libucrt:output.obj
 0001:0003a74e       ?update_field_width@?$standard_base@_WV?$string_output_adapter@_W@__crt_stdio_output@@@__crt_stdio_output@@IAE_NXZ 1003b74e f i libucrt:output.obj
 0001:0003a762       ?update_precision@?$positional_parameter_base@DV?$stream_output_adapter@D@__crt_stdio_output@@@__crt_stdio_output@@IAE_NXZ 1003b762 f i libucrt:output.obj
 0001:0003a845       ?update_precision@?$positional_parameter_base@DV?$string_output_adapter@D@__crt_stdio_output@@@__crt_stdio_output@@IAE_NXZ 1003b845 f i libucrt:output.obj
 0001:0003a928       ?update_precision@?$positional_parameter_base@_WV?$stream_output_adapter@_W@__crt_stdio_output@@@__crt_stdio_output@@IAE_NXZ 1003b928 f i libucrt:output.obj
 0001:0003aa0c       ?update_precision@?$positional_parameter_base@_WV?$string_output_adapter@_W@__crt_stdio_output@@@__crt_stdio_output@@IAE_NXZ 1003ba0c f i libucrt:output.obj
 0001:0003aaf0       ?update_precision@?$standard_base@DV?$stream_output_adapter@D@__crt_stdio_output@@@__crt_stdio_output@@IAE_NXZ 1003baf0 f i libucrt:output.obj
 0001:0003ab04       ?update_precision@?$standard_base@DV?$string_output_adapter@D@__crt_stdio_output@@@__crt_stdio_output@@IAE_NXZ 1003bb04 f i libucrt:output.obj
 0001:0003ab18       ?update_precision@?$standard_base@_WV?$stream_output_adapter@_W@__crt_stdio_output@@@__crt_stdio_output@@IAE_NXZ 1003bb18 f i libucrt:output.obj
 0001:0003ab2c       ?update_precision@?$standard_base@_WV?$string_output_adapter@_W@__crt_stdio_output@@@__crt_stdio_output@@IAE_NXZ 1003bb2c f i libucrt:output.obj
 0001:0003ab40       ?validate@?$stream_output_adapter@D@__crt_stdio_output@@QBE_NXZ 1003bb40 f i libucrt:output.obj
 0001:0003ab69       ?validate@?$stream_output_adapter@_W@__crt_stdio_output@@QBE_NXZ 1003bb69 f i libucrt:output.obj
 0001:0003ab8a       ?validate@?$string_output_adapter@D@__crt_stdio_output@@QBE_NXZ 1003bb8a f i libucrt:output.obj
 0001:0003abab       ?validate@?$string_output_adapter@_W@__crt_stdio_output@@QBE_NXZ 1003bbab f i libucrt:output.obj
 0001:0003abcc       ?validate_and_store_parameter_data@?$positional_parameter_base@DV?$stream_output_adapter@D@__crt_stdio_output@@@__crt_stdio_output@@AAE_NAAUparameter_data@12@W4parameter_type@12@DW4length_modifier@2@@Z 1003bbcc f i libucrt:output.obj
 0001:0003ac29       ?validate_and_store_parameter_data@?$positional_parameter_base@DV?$string_output_adapter@D@__crt_stdio_output@@@__crt_stdio_output@@AAE_NAAUparameter_data@12@W4parameter_type@12@DW4length_modifier@2@@Z 1003bc29 f i libucrt:output.obj
 0001:0003ac86       ?validate_and_store_parameter_data@?$positional_parameter_base@_WV?$stream_output_adapter@_W@__crt_stdio_output@@@__crt_stdio_output@@AAE_NAAUparameter_data@12@W4parameter_type@12@_WW4length_modifier@2@@Z 1003bc86 f i libucrt:output.obj
 0001:0003ace6       ?validate_and_store_parameter_data@?$positional_parameter_base@_WV?$string_output_adapter@_W@__crt_stdio_output@@@__crt_stdio_output@@AAE_NAAUparameter_data@12@W4parameter_type@12@_WW4length_modifier@2@@Z 1003bce6 f i libucrt:output.obj
 0001:0003ad46       ?validate_and_update_state_at_beginning_of_format_character@?$positional_parameter_base@DV?$stream_output_adapter@D@__crt_stdio_output@@@__crt_stdio_output@@IAE_NXZ 1003bd46 f i libucrt:output.obj
 0001:0003ae7e       ?validate_and_update_state_at_beginning_of_format_character@?$positional_parameter_base@DV?$string_output_adapter@D@__crt_stdio_output@@@__crt_stdio_output@@IAE_NXZ 1003be7e f i libucrt:output.obj
 0001:0003afb6       ?validate_and_update_state_at_beginning_of_format_character@?$positional_parameter_base@_WV?$stream_output_adapter@_W@__crt_stdio_output@@@__crt_stdio_output@@IAE_NXZ 1003bfb6 f i libucrt:output.obj
 0001:0003b0f9       ?validate_and_update_state_at_beginning_of_format_character@?$positional_parameter_base@_WV?$string_output_adapter@_W@__crt_stdio_output@@@__crt_stdio_output@@IAE_NXZ 1003c0f9 f i libucrt:output.obj
 0001:0003b23c       ?validate_and_update_state_at_beginning_of_format_character@?$standard_base@DV?$stream_output_adapter@D@__crt_stdio_output@@@__crt_stdio_output@@IAE_NXZ 1003c23c f i libucrt:output.obj
 0001:0003b23f       ?validate_and_update_state_at_beginning_of_format_character@?$standard_base@DV?$string_output_adapter@D@__crt_stdio_output@@@__crt_stdio_output@@IAE_NXZ 1003c23f f i libucrt:output.obj
 0001:0003b242       ?validate_and_update_state_at_beginning_of_format_character@?$standard_base@_WV?$stream_output_adapter@_W@__crt_stdio_output@@@__crt_stdio_output@@IAE_NXZ 1003c242 f i libucrt:output.obj
 0001:0003b245       ?validate_and_update_state_at_beginning_of_format_character@?$standard_base@_WV?$string_output_adapter@_W@__crt_stdio_output@@@__crt_stdio_output@@IAE_NXZ 1003c245 f i libucrt:output.obj
 0001:0003b248       ?validate_and_update_state_at_end_of_format_string@?$format_validation_base@DV?$stream_output_adapter@D@__crt_stdio_output@@@__crt_stdio_output@@IBE_NXZ 1003c248 f i libucrt:output.obj
 0001:0003b272       ?validate_and_update_state_at_end_of_format_string@?$format_validation_base@DV?$string_output_adapter@D@__crt_stdio_output@@@__crt_stdio_output@@IBE_NXZ 1003c272 f i libucrt:output.obj
 0001:0003b29c       ?validate_and_update_state_at_end_of_format_string@?$format_validation_base@_WV?$stream_output_adapter@_W@__crt_stdio_output@@@__crt_stdio_output@@IBE_NXZ 1003c29c f i libucrt:output.obj
 0001:0003b2c6       ?validate_and_update_state_at_end_of_format_string@?$format_validation_base@_WV?$string_output_adapter@_W@__crt_stdio_output@@@__crt_stdio_output@@IBE_NXZ 1003c2c6 f i libucrt:output.obj
 0001:0003b2f0       ?validate_and_update_state_at_end_of_format_string@?$positional_parameter_base@DV?$stream_output_adapter@D@__crt_stdio_output@@@__crt_stdio_output@@IAE_NXZ 1003c2f0 f i libucrt:output.obj
 0001:0003b396       ?validate_and_update_state_at_end_of_format_string@?$positional_parameter_base@DV?$string_output_adapter@D@__crt_stdio_output@@@__crt_stdio_output@@IAE_NXZ 1003c396 f i libucrt:output.obj
 0001:0003b43c       ?validate_and_update_state_at_end_of_format_string@?$positional_parameter_base@_WV?$stream_output_adapter@_W@__crt_stdio_output@@@__crt_stdio_output@@IAE_NXZ 1003c43c f i libucrt:output.obj
 0001:0003b4e2       ?validate_and_update_state_at_end_of_format_string@?$positional_parameter_base@_WV?$string_output_adapter@_W@__crt_stdio_output@@@__crt_stdio_output@@IAE_NXZ 1003c4e2 f i libucrt:output.obj
 0001:0003b588       ?validate_and_update_state_at_end_of_format_string@?$standard_base@DV?$stream_output_adapter@D@__crt_stdio_output@@@__crt_stdio_output@@IBE_NXZ 1003c588 f i libucrt:output.obj
 0001:0003b58b       ?validate_and_update_state_at_end_of_format_string@?$standard_base@DV?$string_output_adapter@D@__crt_stdio_output@@@__crt_stdio_output@@IBE_NXZ 1003c58b f i libucrt:output.obj
 0001:0003b58e       ?validate_and_update_state_at_end_of_format_string@?$standard_base@_WV?$stream_output_adapter@_W@__crt_stdio_output@@@__crt_stdio_output@@IBE_NXZ 1003c58e f i libucrt:output.obj
 0001:0003b591       ?validate_and_update_state_at_end_of_format_string@?$standard_base@_WV?$string_output_adapter@_W@__crt_stdio_output@@@__crt_stdio_output@@IBE_NXZ 1003c591 f i libucrt:output.obj
 0001:0003b594       ?validate_state_for_type_case_a@?$positional_parameter_base@DV?$stream_output_adapter@D@__crt_stdio_output@@@__crt_stdio_output@@IAE_NXZ 1003c594 f i libucrt:output.obj
 0001:0003b5f6       ?validate_state_for_type_case_a@?$positional_parameter_base@DV?$string_output_adapter@D@__crt_stdio_output@@@__crt_stdio_output@@IAE_NXZ 1003c5f6 f i libucrt:output.obj
 0001:0003b658       ?validate_state_for_type_case_a@?$positional_parameter_base@_WV?$stream_output_adapter@_W@__crt_stdio_output@@@__crt_stdio_output@@IAE_NXZ 1003c658 f i libucrt:output.obj
 0001:0003b6ba       ?validate_state_for_type_case_a@?$positional_parameter_base@_WV?$string_output_adapter@_W@__crt_stdio_output@@@__crt_stdio_output@@IAE_NXZ 1003c6ba f i libucrt:output.obj
 0001:0003b71c       ?validate_state_for_type_case_a@?$standard_base@DV?$stream_output_adapter@D@__crt_stdio_output@@@__crt_stdio_output@@IBE_NXZ 1003c71c f i libucrt:output.obj
 0001:0003b71f       ?validate_state_for_type_case_a@?$standard_base@DV?$string_output_adapter@D@__crt_stdio_output@@@__crt_stdio_output@@IBE_NXZ 1003c71f f i libucrt:output.obj
 0001:0003b722       ?validate_state_for_type_case_a@?$standard_base@_WV?$stream_output_adapter@_W@__crt_stdio_output@@@__crt_stdio_output@@IBE_NXZ 1003c722 f i libucrt:output.obj
 0001:0003b725       ?validate_state_for_type_case_a@?$standard_base@_WV?$string_output_adapter@_W@__crt_stdio_output@@@__crt_stdio_output@@IBE_NXZ 1003c725 f i libucrt:output.obj
 0001:0003b728       ?validate_stream_is_ansi_if_required@?$__acrt_stdio_char_traits@D@@SA_NQAU_iobuf@@@Z 1003c728 f i libucrt:output.obj
 0001:0003b7cf       ?validate_stream_is_ansi_if_required@?$__acrt_stdio_char_traits@_W@@SA_NQAU_iobuf@@@Z 1003c7cf f i libucrt:output.obj
 0001:0003b7d2       ?wide_null_string@?$output_processor@DV?$stream_output_adapter@D@__crt_stdio_output@@V?$format_validation_base@DV?$stream_output_adapter@D@__crt_stdio_output@@@2@@__crt_stdio_output@@CAPA_WXZ 1003c7d2 f i libucrt:output.obj
 0001:0003b7d8       ?wide_null_string@?$output_processor@DV?$stream_output_adapter@D@__crt_stdio_output@@V?$positional_parameter_base@DV?$stream_output_adapter@D@__crt_stdio_output@@@2@@__crt_stdio_output@@CAPA_WXZ 1003c7d8 f i libucrt:output.obj
 0001:0003b7de       ?wide_null_string@?$output_processor@DV?$stream_output_adapter@D@__crt_stdio_output@@V?$standard_base@DV?$stream_output_adapter@D@__crt_stdio_output@@@2@@__crt_stdio_output@@CAPA_WXZ 1003c7de f i libucrt:output.obj
 0001:0003b7e4       ?wide_null_string@?$output_processor@DV?$string_output_adapter@D@__crt_stdio_output@@V?$format_validation_base@DV?$string_output_adapter@D@__crt_stdio_output@@@2@@__crt_stdio_output@@CAPA_WXZ 1003c7e4 f i libucrt:output.obj
 0001:0003b7ea       ?wide_null_string@?$output_processor@DV?$string_output_adapter@D@__crt_stdio_output@@V?$positional_parameter_base@DV?$string_output_adapter@D@__crt_stdio_output@@@2@@__crt_stdio_output@@CAPA_WXZ 1003c7ea f i libucrt:output.obj
 0001:0003b7f0       ?wide_null_string@?$output_processor@DV?$string_output_adapter@D@__crt_stdio_output@@V?$standard_base@DV?$string_output_adapter@D@__crt_stdio_output@@@2@@__crt_stdio_output@@CAPA_WXZ 1003c7f0 f i libucrt:output.obj
 0001:0003b7f6       ?wide_null_string@?$output_processor@_WV?$stream_output_adapter@_W@__crt_stdio_output@@V?$format_validation_base@_WV?$stream_output_adapter@_W@__crt_stdio_output@@@2@@__crt_stdio_output@@CAPA_WXZ 1003c7f6 f i libucrt:output.obj
 0001:0003b7fc       ?wide_null_string@?$output_processor@_WV?$stream_output_adapter@_W@__crt_stdio_output@@V?$positional_parameter_base@_WV?$stream_output_adapter@_W@__crt_stdio_output@@@2@@__crt_stdio_output@@CAPA_WXZ 1003c7fc f i libucrt:output.obj
 0001:0003b802       ?wide_null_string@?$output_processor@_WV?$stream_output_adapter@_W@__crt_stdio_output@@V?$standard_base@_WV?$stream_output_adapter@_W@__crt_stdio_output@@@2@@__crt_stdio_output@@CAPA_WXZ 1003c802 f i libucrt:output.obj
 0001:0003b808       ?wide_null_string@?$output_processor@_WV?$string_output_adapter@_W@__crt_stdio_output@@V?$format_validation_base@_WV?$string_output_adapter@_W@__crt_stdio_output@@@2@@__crt_stdio_output@@CAPA_WXZ 1003c808 f i libucrt:output.obj
 0001:0003b80e       ?wide_null_string@?$output_processor@_WV?$string_output_adapter@_W@__crt_stdio_output@@V?$positional_parameter_base@_WV?$string_output_adapter@_W@__crt_stdio_output@@@2@@__crt_stdio_output@@CAPA_WXZ 1003c80e f i libucrt:output.obj
 0001:0003b814       ?wide_null_string@?$output_processor@_WV?$string_output_adapter@_W@__crt_stdio_output@@V?$standard_base@_WV?$string_output_adapter@_W@__crt_stdio_output@@@2@@__crt_stdio_output@@CAPA_WXZ 1003c814 f i libucrt:output.obj
 0001:0003b81a       ?write_character@?$output_adapter_common@DV?$stream_output_adapter@D@__crt_stdio_output@@@__crt_stdio_output@@QBEXDQAH@Z 1003c81a f i libucrt:output.obj
 0001:0003b840       ?write_character@?$output_adapter_common@_WV?$stream_output_adapter@_W@__crt_stdio_output@@@__crt_stdio_output@@QBEX_WQAH@Z 1003c840 f i libucrt:output.obj
 0001:0003b866       ?write_character@?$string_output_adapter@D@__crt_stdio_output@@QBE_NDQAH@Z 1003c866 f i libucrt:output.obj
 0001:0003b8b8       ?write_character@?$string_output_adapter@_W@__crt_stdio_output@@QBE_N_WQAH@Z 1003c8b8 f i libucrt:output.obj
 0001:0003b90e       ?write_character_without_count_update@?$stream_output_adapter@D@__crt_stdio_output@@QBE_ND@Z 1003c90e f i libucrt:output.obj
 0001:0003b950       ?write_character_without_count_update@?$stream_output_adapter@_W@__crt_stdio_output@@QBE_N_W@Z 1003c950 f i libucrt:output.obj
 0001:0003b996       ?write_stored_string_tchar@?$output_processor@DV?$stream_output_adapter@D@__crt_stdio_output@@V?$format_validation_base@DV?$stream_output_adapter@D@__crt_stdio_output@@@2@@__crt_stdio_output@@AAE_ND@Z 1003c996 f i libucrt:output.obj
 0001:0003ba69       ?write_stored_string_tchar@?$output_processor@DV?$stream_output_adapter@D@__crt_stdio_output@@V?$positional_parameter_base@DV?$stream_output_adapter@D@__crt_stdio_output@@@2@@__crt_stdio_output@@AAE_ND@Z 1003ca69 f i libucrt:output.obj
 0001:0003bb3c       ?write_stored_string_tchar@?$output_processor@DV?$stream_output_adapter@D@__crt_stdio_output@@V?$standard_base@DV?$stream_output_adapter@D@__crt_stdio_output@@@2@@__crt_stdio_output@@AAE_ND@Z 1003cb3c f i libucrt:output.obj
 0001:0003bc0f       ?write_stored_string_tchar@?$output_processor@DV?$string_output_adapter@D@__crt_stdio_output@@V?$format_validation_base@DV?$string_output_adapter@D@__crt_stdio_output@@@2@@__crt_stdio_output@@AAE_ND@Z 1003cc0f f i libucrt:output.obj
 0001:0003bce2       ?write_stored_string_tchar@?$output_processor@DV?$string_output_adapter@D@__crt_stdio_output@@V?$positional_parameter_base@DV?$string_output_adapter@D@__crt_stdio_output@@@2@@__crt_stdio_output@@AAE_ND@Z 1003cce2 f i libucrt:output.obj
 0001:0003bdb5       ?write_stored_string_tchar@?$output_processor@DV?$string_output_adapter@D@__crt_stdio_output@@V?$standard_base@DV?$string_output_adapter@D@__crt_stdio_output@@@2@@__crt_stdio_output@@AAE_ND@Z 1003cdb5 f i libucrt:output.obj
 0001:0003be88       ?write_stored_string_tchar@?$output_processor@_WV?$stream_output_adapter@_W@__crt_stdio_output@@V?$format_validation_base@_WV?$stream_output_adapter@_W@__crt_stdio_output@@@2@@__crt_stdio_output@@AAE_N_W@Z 1003ce88 f i libucrt:output.obj
 0001:0003bf42       ?write_stored_string_tchar@?$output_processor@_WV?$stream_output_adapter@_W@__crt_stdio_output@@V?$positional_parameter_base@_WV?$stream_output_adapter@_W@__crt_stdio_output@@@2@@__crt_stdio_output@@AAE_N_W@Z 1003cf42 f i libucrt:output.obj
 0001:0003bffc       ?write_stored_string_tchar@?$output_processor@_WV?$stream_output_adapter@_W@__crt_stdio_output@@V?$standard_base@_WV?$stream_output_adapter@_W@__crt_stdio_output@@@2@@__crt_stdio_output@@AAE_N_W@Z 1003cffc f i libucrt:output.obj
 0001:0003c0b6       ?write_stored_string_tchar@?$output_processor@_WV?$string_output_adapter@_W@__crt_stdio_output@@V?$format_validation_base@_WV?$string_output_adapter@_W@__crt_stdio_output@@@2@@__crt_stdio_output@@AAE_N_W@Z 1003d0b6 f i libucrt:output.obj
 0001:0003c170       ?write_stored_string_tchar@?$output_processor@_WV?$string_output_adapter@_W@__crt_stdio_output@@V?$positional_parameter_base@_WV?$string_output_adapter@_W@__crt_stdio_output@@@2@@__crt_stdio_output@@AAE_N_W@Z 1003d170 f i libucrt:output.obj
 0001:0003c22a       ?write_stored_string_tchar@?$output_processor@_WV?$string_output_adapter@_W@__crt_stdio_output@@V?$standard_base@_WV?$string_output_adapter@_W@__crt_stdio_output@@@2@@__crt_stdio_output@@AAE_N_W@Z 1003d22a f i libucrt:output.obj
 0001:0003c2e4       ?write_string@?$stream_output_adapter@D@__crt_stdio_output@@QBEXQBDHQAHAAV__crt_deferred_errno_cache@@@Z 1003d2e4 f i libucrt:output.obj
 0001:0003c319       ?write_string@?$stream_output_adapter@_W@__crt_stdio_output@@QBEXQB_WHQAHAAV__crt_deferred_errno_cache@@@Z 1003d319 f i libucrt:output.obj
 0001:0003c34e       ?write_string@?$string_output_adapter@D@__crt_stdio_output@@QBEXQBDHQAHAAV__crt_deferred_errno_cache@@@Z 1003d34e f i libucrt:output.obj
 0001:0003c3ce       ?write_string@?$string_output_adapter@_W@__crt_stdio_output@@QBEXQB_WHQAHAAV__crt_deferred_errno_cache@@@Z 1003d3ce f i libucrt:output.obj
 0001:0003c45d       ?write_string_impl@?$output_adapter_common@DV?$stream_output_adapter@D@__crt_stdio_output@@@__crt_stdio_output@@IBEXQBDHQAHAAV__crt_deferred_errno_cache@@@Z 1003d45d f i libucrt:output.obj
 0001:0003c525       ?write_string_impl@?$output_adapter_common@_WV?$stream_output_adapter@_W@__crt_stdio_output@@@__crt_stdio_output@@IBEXQB_WHQAHAAV__crt_deferred_errno_cache@@@Z 1003d525 f i libucrt:output.obj
 0001:0003c5f0       ___acrt_isleadbyte_l_noupdate 1003d5f0 f i libucrt:output.obj
 0001:0003c611       ___stdio_common_vfprintf   1003d611 f   libucrt:output.obj
 0001:0003c6b7       ___stdio_common_vfprintf_p 1003d6b7 f   libucrt:output.obj
 0001:0003c75d       ___stdio_common_vfprintf_s 1003d75d f   libucrt:output.obj
 0001:0003c803       ___stdio_common_vfwprintf  1003d803 f   libucrt:output.obj
 0001:0003c8a9       ___stdio_common_vfwprintf_p 1003d8a9 f   libucrt:output.obj
 0001:0003c94f       ___stdio_common_vfwprintf_s 1003d94f f   libucrt:output.obj
 0001:0003c9f5       ___stdio_common_vsnprintf_s 1003d9f5 f   libucrt:output.obj
 0001:0003ca25       ___stdio_common_vsnwprintf_s 1003da25 f   libucrt:output.obj
 0001:0003ca55       ___stdio_common_vsprintf   1003da55 f   libucrt:output.obj
 0001:0003ca82       ___stdio_common_vsprintf_p 1003da82 f   libucrt:output.obj
 0001:0003caaf       ___stdio_common_vsprintf_s 1003daaf f   libucrt:output.obj
 0001:0003cadc       ___stdio_common_vswprintf  1003dadc f   libucrt:output.obj
 0001:0003cb09       ___stdio_common_vswprintf_p 1003db09 f   libucrt:output.obj
 0001:0003cb36       ___stdio_common_vswprintf_s 1003db36 f   libucrt:output.obj
 0001:0003cb63       _ldexp                     1003db63 f   libucrt:ldexp.obj
 0001:0003cddc       __errcode                  1003dddc f   libucrt:fpexcept.obj
 0001:0003ce1d       __except1                  1003de1d f   libucrt:fpexcept.obj
 0001:0003cf1e       __except2                  1003df1e f   libucrt:fpexcept.obj
 0001:0003d067       __handle_exc               1003e067 f   libucrt:fpexcept.obj
 0001:0003d2cf       __handle_qnan2             1003e2cf f   libucrt:fpexcept.obj
 0001:0003d2df       __raise_exc                1003e2df f   libucrt:fpexcept.obj
 0001:0003d30a       __raise_exc_ex             1003e30a f   libucrt:fpexcept.obj
 0001:0003d6bd       __raise_excf               1003e6bd f   libucrt:fpexcept.obj
 0001:0003d6e8       __set_errno_from_matherr   1003e6e8 f   libucrt:fpexcept.obj
 0001:0003d722       __umatherr                 1003e722 f   libucrt:fpexcept.obj
 0001:0003d7ec       __initterm                 1003e7ec f   libucrt:initterm.obj
 0001:0003d85f       __initterm_e               1003e85f f   libucrt:initterm.obj
 0001:0003d8e2       __seh_filter_dll           1003e8e2 f   libucrt:exception_filter.obj
 0001:0003d90a       __seh_filter_exe           1003e90a f   libucrt:exception_filter.obj
 0001:0003dac9       ??$?RE@__crt_internal_free_policy@@QBEXQBE@Z 1003eac9 f i libucrt:argv_parsing.obj
 0001:0003dadf       ??$?RPAD@__crt_internal_free_policy@@QBEXQBQAD@Z 1003eadf f i libucrt:argv_parsing.obj
 0001:0003daf5       ??$?RPA_W@__crt_internal_free_policy@@QBEXQBQA_W@Z 1003eaf5 f i libucrt:argv_parsing.obj
 0001:0003de0e       ??$get_module_file_name@$$TAAY0BAF@DH@?$__crt_char_traits@D@@SAK$$QA$$TAAY0BAF@D$$QAH@Z 1003ee0e f i libucrt:argv_parsing.obj
 0001:0003de31       ??$get_module_file_name@$$TAAY0BAF@_WH@?$__crt_char_traits@_W@@SAK$$QA$$TAAY0BAF@_W$$QAH@Z 1003ee31 f i libucrt:argv_parsing.obj
 0001:0003e224       ??$set_program_name@PAD@?$__crt_char_traits@D@@SAX$$QAPAD@Z 1003f224 f i libucrt:argv_parsing.obj
 0001:0003e239       ??$set_program_name@PA_W@?$__crt_char_traits@_W@@SAX$$QAPA_W@Z 1003f239 f i libucrt:argv_parsing.obj
 0001:0003e276       ??0?$__crt_unique_heap_ptr@EU__crt_internal_free_policy@@@@QAE@QAE@Z 1003f276 f i libucrt:argv_parsing.obj
 0001:0003e28a       ??0?$__crt_unique_heap_ptr@PADU__crt_internal_free_policy@@@@QAE@QAPAD@Z 1003f28a f i libucrt:argv_parsing.obj
 0001:0003e29e       ??0?$__crt_unique_heap_ptr@PA_WU__crt_internal_free_policy@@@@QAE@QAPA_W@Z 1003f29e f i libucrt:argv_parsing.obj
 0001:0003e2b2       ??1?$__crt_unique_heap_ptr@EU__crt_internal_free_policy@@@@QAE@XZ 1003f2b2 f i libucrt:argv_parsing.obj
 0001:0003e2c8       ??1?$__crt_unique_heap_ptr@PADU__crt_internal_free_policy@@@@QAE@XZ 1003f2c8 f i libucrt:argv_parsing.obj
 0001:0003e2de       ??1?$__crt_unique_heap_ptr@PA_WU__crt_internal_free_policy@@@@QAE@XZ 1003f2de f i libucrt:argv_parsing.obj
 0001:0003e2f4       ??B?$__crt_unique_heap_ptr@EU__crt_internal_free_policy@@@@QBE_NXZ 1003f2f4 f i libucrt:argv_parsing.obj
 0001:0003e331       ?detach@?$__crt_unique_heap_ptr@EU__crt_internal_free_policy@@@@QAEPAEXZ 1003f331 f i libucrt:argv_parsing.obj
 0001:0003e337       ?detach@?$__crt_unique_heap_ptr@PADU__crt_internal_free_policy@@@@QAEPAPADXZ 1003f337 f i libucrt:argv_parsing.obj
 0001:0003e33d       ?detach@?$__crt_unique_heap_ptr@PA_WU__crt_internal_free_policy@@@@QAEPAPA_WXZ 1003f33d f i libucrt:argv_parsing.obj
 0001:0003e363       ?get@?$__crt_unique_heap_ptr@EU__crt_internal_free_policy@@@@QBEPAEXZ 1003f363 f i libucrt:argv_parsing.obj
 0001:0003e366       ?get@?$__crt_unique_heap_ptr@PADU__crt_internal_free_policy@@@@QBEPAPADXZ 1003f366 f i libucrt:argv_parsing.obj
 0001:0003e369       ?get@?$__crt_unique_heap_ptr@PA_WU__crt_internal_free_policy@@@@QBEPAPA_WXZ 1003f369 f i libucrt:argv_parsing.obj
 0001:0003e36c       ?get_address_of@?$__crt_unique_heap_ptr@PADU__crt_internal_free_policy@@@@QAEPAPAPADXZ 1003f36c f i libucrt:argv_parsing.obj
 0001:0003e36f       ?get_address_of@?$__crt_unique_heap_ptr@PA_WU__crt_internal_free_policy@@@@QAEPAPAPA_WXZ 1003f36f f i libucrt:argv_parsing.obj
 0001:0003e38a       ?is_valid@?$__crt_unique_heap_ptr@EU__crt_internal_free_policy@@@@QBE_NXZ 1003f38a f i libucrt:argv_parsing.obj
 0001:0003e391       ?release@?$__crt_unique_heap_ptr@EU__crt_internal_free_policy@@@@QAEXXZ 1003f391 f i libucrt:argv_parsing.obj
 0001:0003e3a7       ?release@?$__crt_unique_heap_ptr@PADU__crt_internal_free_policy@@@@QAEXXZ 1003f3a7 f i libucrt:argv_parsing.obj
 0001:0003e3bd       ?release@?$__crt_unique_heap_ptr@PA_WU__crt_internal_free_policy@@@@QAEXXZ 1003f3bd f i libucrt:argv_parsing.obj
 0001:0003e3f2       ___acrt_allocate_buffer_for_argv 1003f3f2 f   libucrt:argv_parsing.obj
 0001:0003e454       __configure_narrow_argv    1003f454 f   libucrt:argv_parsing.obj
 0001:0003e461       __configure_wide_argv      1003f461 f   libucrt:argv_parsing.obj
 0001:0003e46e       __set_pgmptr               1003f46e f i libucrt:argv_parsing.obj
 0001:0003e480       __set_wpgmptr              1003f480 f i libucrt:argv_parsing.obj
 0001:0003e492       ??$?R_W@__crt_internal_free_policy@@QBEXQB_W@Z 1003f492 f i libucrt:environment_initialization.obj
 0001:0003e978       ??$get_environment_from_os@$$V@?$__crt_char_traits@D@@SAPADXZ 1003f978 f i libucrt:environment_initialization.obj
 0001:0003e97d       ??$get_environment_from_os@$$V@?$__crt_char_traits@_W@@SAPA_WXZ 1003f97d f i libucrt:environment_initialization.obj
 0001:0003eace       ??$set_variable_in_environment_nolock@PADH@?$__crt_char_traits@D@@SAH$$QAPAD$$QAH@Z 1003face f i libucrt:environment_initialization.obj
 0001:0003eaec       ??$set_variable_in_environment_nolock@PA_WH@?$__crt_char_traits@_W@@SAH$$QAPA_W$$QAH@Z 1003faec f i libucrt:environment_initialization.obj
 0001:0003eb0a       ??$tcscpy_s@PADABIAAPAD@?$__crt_char_traits@D@@SAH$$QAPADABIAAPAD@Z 1003fb0a f i libucrt:environment_initialization.obj
 0001:0003eb2f       ??$tcscpy_s@PA_WABIAAPA_W@?$__crt_char_traits@_W@@SAH$$QAPA_WABIAAPA_W@Z 1003fb2f f i libucrt:environment_initialization.obj
 0001:0003eb54       ??$tcslen@AAPAD@?$__crt_char_traits@D@@SAIAAPAD@Z 1003fb54 f i libucrt:environment_initialization.obj
 0001:0003eb72       ??$tcslen@AAPA_W@?$__crt_char_traits@_W@@SAIAAPA_W@Z 1003fb72 f i libucrt:environment_initialization.obj
 0001:0003eb97       ??$uninitialize@A6AXAAPAPAD@Z@?$dual_state_global@PAPAD@__crt_state_management@@QAEXA6AXAAPAPAD@Z@Z 1003fb97 f i libucrt:environment_initialization.obj
 0001:0003ebe7       ??$uninitialize@A6AXAAPAPA_W@Z@?$dual_state_global@PAPA_W@__crt_state_management@@QAEXA6AXAAPAPA_W@Z@Z 1003fbe7 f i libucrt:environment_initialization.obj
 0001:0003ec79       ??0?$__crt_unique_heap_ptr@_WU__crt_internal_free_policy@@@@QAE@QA_W@Z 1003fc79 f i libucrt:environment_initialization.obj
 0001:0003ec8d       ??1?$__crt_unique_heap_ptr@_WU__crt_internal_free_policy@@@@QAE@XZ 1003fc8d f i libucrt:environment_initialization.obj
 0001:0003eca3       ??B?$__crt_unique_heap_ptr@PADU__crt_internal_free_policy@@@@QBE_NXZ 1003fca3 f i libucrt:environment_initialization.obj
 0001:0003ecaa       ??B?$__crt_unique_heap_ptr@PA_WU__crt_internal_free_policy@@@@QBE_NXZ 1003fcaa f i libucrt:environment_initialization.obj
 0001:0003ecb1       ??B?$__crt_unique_heap_ptr@_WU__crt_internal_free_policy@@@@QBE_NXZ 1003fcb1 f i libucrt:environment_initialization.obj
 0001:0003ecb8       ?__crt_compute_required_transform_buffer_count@@YAIIQBD@Z 1003fcb8 f i libucrt:environment_initialization.obj
 0001:0003ecdb       ?__crt_compute_required_transform_buffer_count@@YAIIQB_W@Z 1003fcdb f i libucrt:environment_initialization.obj
 0001:0003ed00       ?__crt_transform_string@@YAIIQBDQA_WI@Z 1003fd00 f i libucrt:environment_initialization.obj
 0001:0003ed26       ?__crt_transform_string@@YAIIQB_WQADI@Z 1003fd26 f i libucrt:environment_initialization.obj
 0001:0003ed50       ?detach@?$__crt_unique_heap_ptr@DU__crt_internal_free_policy@@@@QAEPADXZ 1003fd50 f i libucrt:environment_initialization.obj
 0001:0003ed56       ?detach@?$__crt_unique_heap_ptr@_WU__crt_internal_free_policy@@@@QAEPA_WXZ 1003fd56 f i libucrt:environment_initialization.obj
 0001:0003ed5c       ?get@?$__crt_unique_heap_ptr@_WU__crt_internal_free_policy@@@@QBEPA_WXZ 1003fd5c f i libucrt:environment_initialization.obj
 0001:0003ed5f       ?get_current_state_index@__crt_state_management@@YAIXZ 1003fd5f f i libucrt:environment_initialization.obj
 0001:0003ed86       ?initialize@?$dual_state_global@PAPAD@__crt_state_management@@QAEXQAPAD@Z 1003fd86 f i libucrt:environment_initialization.obj
 0001:0003edb5       ?initialize@?$dual_state_global@PAPA_W@__crt_state_management@@QAEXQAPA_W@Z 1003fdb5 f i libucrt:environment_initialization.obj
 0001:0003ede4       ?is_valid@?$__crt_unique_heap_ptr@PADU__crt_internal_free_policy@@@@QBE_NXZ 1003fde4 f i libucrt:environment_initialization.obj
 0001:0003edeb       ?is_valid@?$__crt_unique_heap_ptr@PA_WU__crt_internal_free_policy@@@@QBE_NXZ 1003fdeb f i libucrt:environment_initialization.obj
 0001:0003edf2       ?is_valid@?$__crt_unique_heap_ptr@_WU__crt_internal_free_policy@@@@QBE_NXZ 1003fdf2 f i libucrt:environment_initialization.obj
 0001:0003edff       ?release@?$__crt_unique_heap_ptr@_WU__crt_internal_free_policy@@@@QAEXXZ 1003fdff f i libucrt:environment_initialization.obj
 0001:0003ee15       ?value@?$dual_state_global@PAPAD@__crt_state_management@@QAEAAPAPADXZ 1003fe15 f i libucrt:environment_initialization.obj
 0001:0003ee18       ?value@?$dual_state_global@PAPA_W@__crt_state_management@@QAEAAPAPA_WXZ 1003fe18 f i libucrt:environment_initialization.obj
 0001:0003ee1b       ___dcrt_get_or_create_narrow_environment_nolock 1003fe1b f   libucrt:environment_initialization.obj
 0001:0003ee20       ___dcrt_get_or_create_wide_environment_nolock 1003fe20 f   libucrt:environment_initialization.obj
 0001:0003ee25       ___dcrt_uninitialize_environments_nolock 1003fe25 f   libucrt:environment_initialization.obj
 0001:0003ee69       ___p__environ              1003fe69 f   libucrt:environment_initialization.obj
 0001:0003ee6f       ___p__wenviron             1003fe6f f   libucrt:environment_initialization.obj
 0001:0003ee75       __get_initial_narrow_environment 1003fe75 f   libucrt:environment_initialization.obj
 0001:0003ee8e       __get_initial_wide_environment 1003fe8e f   libucrt:environment_initialization.obj
 0001:0003eea7       __initialize_narrow_environment 1003fea7 f   libucrt:environment_initialization.obj
 0001:0003eeac       __initialize_wide_environment 1003feac f   libucrt:environment_initialization.obj
 0001:0003eeb1       ??$?BP6AXXZ@__crt_fast_encoded_nullptr_t@@QBEPAP6AXXZXZ 1003feb1 f i libucrt:onexit.obj
 0001:0003eecf       ??$?RP6AXXZ@__crt_internal_free_policy@@QBEXQBQ6AXXZ@Z 1003fecf f i libucrt:onexit.obj
 0001:0003f013       ??$__crt_fast_encode_pointer@P6AHXZ@@YAP6AHXZQ6AHXZ@Z 10040013 f i libucrt:onexit.obj
 0001:0003f0c0       ??0?$__crt_unique_heap_ptr@P6AXXZU__crt_internal_free_policy@@@@QAE@QAP6AXXZ@Z 100400c0 f i libucrt:onexit.obj
 0001:0003f0d4       ??1?$__crt_unique_heap_ptr@P6AXXZU__crt_internal_free_policy@@@@QAE@XZ 100400d4 f i libucrt:onexit.obj
 0001:0003f0ea       ??1scoped_global_state_reset@__crt_state_management@@QAE@XZ 100400ea f i libucrt:onexit.obj
 0001:0003f415       ?detach@?$__crt_unique_heap_ptr@P6AXXZU__crt_internal_free_policy@@@@QAEPAP6AXXZXZ 10040415 f i libucrt:onexit.obj
 0001:0003f41b       ?release@?$__crt_unique_heap_ptr@P6AXXZU__crt_internal_free_policy@@@@QAEXXZ 1004041b f i libucrt:onexit.obj
 0001:0003f431       __crt_at_quick_exit        10040431 f   libucrt:onexit.obj
 0001:0003f44c       __crt_atexit               1004044c f   libucrt:onexit.obj
 0001:0003f467       __execute_onexit_table     10040467 f   libucrt:onexit.obj
 0001:0003f4a1       __initialize_onexit_table  100404a1 f   libucrt:onexit.obj
 0001:0003f4ed       __register_onexit_function 100404ed f   libucrt:onexit.obj
 0001:0003f6b8       ?__acrt_stdio_is_initialized@@YA_NXZ 100406b8 f i libucrt:initialization.obj
 0001:0003f6c5       ?initialize@?$dual_state_global@PAU__crt_locale_data@@@__crt_state_management@@QAEXQAU__crt_locale_data@@@Z 100406c5 f i libucrt:initialization.obj
 0001:0003f6f4       ___acrt_initialize         100406f4 f   libucrt:initialization.obj
 0001:0003f70a       ___acrt_thread_attach      1004070a f   libucrt:initialization.obj
 0001:0003f717       ___acrt_thread_detach      10040717 f   libucrt:initialization.obj
 0001:0003f721       ___acrt_uninitialize       10040721 f   libucrt:initialization.obj
 0001:0003f75d       ___acrt_uninitialize_critical 1004075d f   libucrt:initialization.obj
 0001:0003f78e       __get_terminate            1004078e f   libucrt:terminate.obj
 0001:0003f7a4       _set_terminate             100407a4 f   libucrt:terminate.obj
 0001:0003f7cc       _terminate                 100407cc f   libucrt:terminate.obj
 0001:0003f887       _strcpy_s                  10040887 f   libucrt:strcpy_s.obj
 0001:0003f8f7       ??$is_overflow_condition@K@__crt_strtox@@YA_NIK@Z 100408f7 f i libucrt:atox.obj
 0001:0003f934       ??$is_overflow_condition@_K@__crt_strtox@@YA_NI_K@Z 10040934 f i libucrt:atox.obj
 0001:0003f985       ??$make_c_string_character_source@D$$T@__crt_strtox@@YA?AV?$c_string_character_source@D@0@QBD$$T@Z 10040985 f i libucrt:atox.obj
 0001:0003f9a6       ??$make_c_string_character_source@_W$$T@__crt_strtox@@YA?AV?$c_string_character_source@_W@0@QB_W$$T@Z 100409a6 f i libucrt:atox.obj
 0001:0003f9c7       ??$parse_integer@KV?$c_string_character_source@D@__crt_strtox@@@__crt_strtox@@YAKQAU__crt_locale_pointers@@V?$c_string_character_source@D@0@H_N@Z 100409c7 f i libucrt:atox.obj
 0001:0003fc7a       ??$parse_integer@KV?$c_string_character_source@_W@__crt_strtox@@@__crt_strtox@@YAKQAU__crt_locale_pointers@@V?$c_string_character_source@_W@0@H_N@Z 10040c7a f i libucrt:atox.obj
 0001:0004044b       ??$parse_integer@_KV?$c_string_character_source@D@__crt_strtox@@@__crt_strtox@@YA_KQAU__crt_locale_pointers@@V?$c_string_character_source@D@0@H_N@Z 1004144b f i libucrt:atox.obj
 0001:0004079b       ??$parse_integer@_KV?$c_string_character_source@_W@__crt_strtox@@@__crt_strtox@@YA_KQAU__crt_locale_pointers@@V?$c_string_character_source@_W@0@H_N@Z 1004179b f i libucrt:atox.obj
 0001:00041068       ??$parse_integer_from_string@JD$$T@__crt_strtox@@YAJQBD$$THQAU__crt_locale_pointers@@@Z 10042068 f i libucrt:atox.obj
 0001:000410a0       ??$parse_integer_from_string@J_W$$T@__crt_strtox@@YAJQB_W$$THQAU__crt_locale_pointers@@@Z 100420a0 f i libucrt:atox.obj
 0001:000410d8       ??$parse_integer_from_string@_JD$$T@__crt_strtox@@YA_JQBD$$THQAU__crt_locale_pointers@@@Z 100420d8 f i libucrt:atox.obj
 0001:00041110       ??$parse_integer_from_string@_J_W$$T@__crt_strtox@@YA_JQB_W$$THQAU__crt_locale_pointers@@@Z 10042110 f i libucrt:atox.obj
 0001:00041148       ??0?$c_string_character_source@D@__crt_strtox@@QAE@QBDQAPBD@Z 10042148 f i libucrt:atox.obj
 0001:0004116b       ??0?$c_string_character_source@_W@__crt_strtox@@QAE@QB_WQAPB_W@Z 1004216b f i libucrt:atox.obj
 0001:0004118e       ??1?$c_string_character_source@D@__crt_strtox@@QAE@XZ 1004218e f i libucrt:atox.obj
 0001:0004119d       ??1?$c_string_character_source@_W@__crt_strtox@@QAE@XZ 1004219d f i libucrt:atox.obj
 0001:000411ac       ?get@?$c_string_character_source@D@__crt_strtox@@QAEDXZ 100421ac f i libucrt:atox.obj
 0001:000411b6       ?get@?$c_string_character_source@_W@__crt_strtox@@QAE_WXZ 100421b6 f i libucrt:atox.obj
 0001:000411c3       ?is_space@__crt_strtox@@YA_NDQAU__crt_locale_pointers@@@Z 100421c3 f i libucrt:atox.obj
 0001:000411e8       ?is_space@__crt_strtox@@YA_N_WPAU__crt_locale_pointers@@@Z 100421e8 f i libucrt:atox.obj
 0001:00041206       ?maximum_signed_value@__crt_strtox@@YAJK@Z 10042206 f i libucrt:atox.obj
 0001:0004120c       ?maximum_signed_value@__crt_strtox@@YA_J_K@Z 1004220c f i libucrt:atox.obj
 0001:00041217       ?minimum_signed_value@__crt_strtox@@YAJK@Z 10042217 f i libucrt:atox.obj
 0001:0004121d       ?minimum_signed_value@__crt_strtox@@YA_J_K@Z 1004221d f i libucrt:atox.obj
 0001:00041227       ?parse_digit@__crt_strtox@@YAID@Z 10042227 f i libucrt:atox.obj
 0001:0004126f       ?parse_digit@__crt_strtox@@YAI_W@Z 1004226f f i libucrt:atox.obj
 0001:000414e0       ?restore_state@?$c_string_character_source@D@__crt_strtox@@QAE_NQBD@Z 100424e0 f i libucrt:atox.obj
 0001:000414f4       ?restore_state@?$c_string_character_source@_W@__crt_strtox@@QAE_NQB_W@Z 100424f4 f i libucrt:atox.obj
 0001:00041508       ?save_state@?$c_string_character_source@D@__crt_strtox@@QBEPBDXZ 10042508 f i libucrt:atox.obj
 0001:0004150b       ?save_state@?$c_string_character_source@_W@__crt_strtox@@QBEPB_WXZ 1004250b f i libucrt:atox.obj
 0001:0004150e       ?unget@?$c_string_character_source@D@__crt_strtox@@QAEXD@Z 1004250e f i libucrt:atox.obj
 0001:00041541       ?unget@?$c_string_character_source@_W@__crt_strtox@@QAEX_W@Z 10042541 f i libucrt:atox.obj
 0001:0004157a       ?validate@?$c_string_character_source@D@__crt_strtox@@QBE_NXZ 1004257a f i libucrt:atox.obj
 0001:0004159b       ?validate@?$c_string_character_source@_W@__crt_strtox@@QBE_NXZ 1004259b f i libucrt:atox.obj
 0001:000415bc       ?wide_character_to_digit@__crt_strtox@@YAH_W@Z 100425bc f i libucrt:atox.obj
 0001:000417c5       ___acrt_get_locale_data_prefix 100427c5 f i libucrt:atox.obj
 0001:000417d4       __atoi64                   100427d4 f   libucrt:atox.obj
 0001:00041802       __atoi64_l                 10042802 f   libucrt:atox.obj
 0001:00041831       __atoi_l                   10042831 f   libucrt:atox.obj
 0001:00041860       __atol_l                   10042860 f   libucrt:atox.obj
 0001:0004188f       __atoll_l                  1004288f f   libucrt:atox.obj
 0001:000418be       __chvalidchk_l             100428be f i libucrt:atox.obj
 0001:000418ed       __ischartype_l             100428ed f i libucrt:atox.obj
 0001:0004192c       __wtoi                     1004292c f   libucrt:atox.obj
 0001:0004195a       __wtoi64                   1004295a f   libucrt:atox.obj
 0001:00041988       __wtoi64_l                 10042988 f   libucrt:atox.obj
 0001:000419b7       __wtoi_l                   100429b7 f   libucrt:atox.obj
 0001:000419e6       __wtol                     100429e6 f   libucrt:atox.obj
 0001:00041a14       __wtol_l                   10042a14 f   libucrt:atox.obj
 0001:00041a43       __wtoll                    10042a43 f   libucrt:atox.obj
 0001:00041a71       __wtoll_l                  10042a71 f   libucrt:atox.obj
 0001:00041aa0       _atoi                      10042aa0 f   libucrt:atox.obj
 0001:00041ace       _atol                      10042ace f   libucrt:atox.obj
 0001:00041afc       _atoll                     10042afc f   libucrt:atox.obj
 0001:00041b30       _strncmp                   10042b30 f   libucrt:strncmp.obj
 0001:00041bc6       __set_abort_behavior       10042bc6 f   libucrt:abort.obj
 0001:00041bef       _abort                     10042bef f   libucrt:abort.obj
 0001:00041c44       _wcsncmp                   10042c44 f   libucrt:wcsncmp.obj
 0001:00041c8c       __malloc_base              10042c8c f   libucrt:malloc_base.obj
 0001:00041ced       __calloc_base              10042ced f   libucrt:calloc_base.obj
 0001:00041d67       __free_base                10042d67 f   libucrt:free_base.obj
 0001:00041daf       ??$__crt_fast_decode_pointer@P6AXPB_W00II@Z@@YAP6AXPB_W00II@ZQ6AX000II@Z@Z 10042daf f i libucrt:invalid_parameter.obj
 0001:00041dca       ??$__crt_fast_encode_pointer@P6AXPB_W00II@Z@@YAP6AXPB_W00II@ZQ6AX000II@Z@Z 10042dca f i libucrt:invalid_parameter.obj
 0001:00041df0       ??$initialize_from_array@$$BY00Q6AXPB_W00II@Z@?$dual_state_global@P6AXPB_W00II@Z@__crt_state_management@@QAAXAAY00Q6AXPB_W00II@Z@Z 10042df0 f i libucrt:invalid_parameter.obj
 0001:00041e05       ?dangerous_get_state_array@?$dual_state_global@P6AXPB_W00II@Z@__crt_state_management@@QAEPAP6AXPB_W00II@ZXZ 10042e05 f i libucrt:invalid_parameter.obj
 0001:00041e08       ?value@?$dual_state_global@P6AXPB_W00II@Z@__crt_state_management@@QAEAAP6AXPB_W00II@ZXZ 10042e08 f i libucrt:invalid_parameter.obj
 0001:00041e0b       ___acrt_call_reportfault   10042e0b f   libucrt:invalid_parameter.obj
 0001:00041f94       ___acrt_initialize_invalid_parameter_handler 10042f94 f   libucrt:invalid_parameter.obj
 0001:00041fa6       __get_invalid_parameter_handler 10042fa6 f   libucrt:invalid_parameter.obj
 0001:00041fbd       __get_thread_local_invalid_parameter_handler 10042fbd f   libucrt:invalid_parameter.obj
 0001:00041fd2       __invalid_parameter        10042fd2 f   libucrt:invalid_parameter.obj
 0001:0004206b       __invalid_parameter_noinfo 1004306b f   libucrt:invalid_parameter.obj
 0001:0004207f       __invalid_parameter_noinfo_noreturn 1004307f f   libucrt:invalid_parameter.obj
 0001:000420a3       __invoke_watson            100430a3 f   libucrt:invalid_parameter.obj
 0001:000420e4       __set_invalid_parameter_handler 100430e4 f   libucrt:invalid_parameter.obj
 0001:00042120       __set_thread_local_invalid_parameter_handler 10043120 f   libucrt:invalid_parameter.obj
 0001:0004220b       ___acrt_report_runtime_error 1004320b f   libucrt:report_runtime_error.obj
 0001:00042365       __query_app_type           10043365 f   libucrt:report_runtime_error.obj
 0001:0004236b       __set_app_type             1004336b f   libucrt:report_runtime_error.obj
 0001:0004237d       ___acrt_errno_from_os_error 1004337d f   libucrt:errno.obj
 0001:000423d0       ___acrt_errno_map_os_error 100433d0 f   libucrt:errno.obj
 0001:000423fb       ___doserrno                100433fb f   libucrt:errno.obj
 0001:00042412       __errno                    10043412 f   libucrt:errno.obj
 0001:00042429       __get_doserrno             10043429 f   libucrt:errno.obj
 0001:00042457       __get_errno                10043457 f   libucrt:errno.obj
 0001:00042485       __set_doserrno             10043485 f   libucrt:errno.obj
 0001:000424ae       __set_errno                100434ae f   libucrt:errno.obj
 0001:00042adc       __i64toa                   10043adc f   libucrt:xtoa.obj
 0001:00042b2f       __i64toa_s                 10043b2f f   libucrt:xtoa.obj
 0001:00042b80       __i64tow                   10043b80 f   libucrt:xtoa.obj
 0001:00042bd3       __i64tow_s                 10043bd3 f   libucrt:xtoa.obj
 0001:00042c24       __itoa                     10043c24 f   libucrt:xtoa.obj
 0001:00042c68       __itoa_s                   10043c68 f   libucrt:xtoa.obj
 0001:00042caa       __itow                     10043caa f   libucrt:xtoa.obj
 0001:00042cee       __itow_s                   10043cee f   libucrt:xtoa.obj
 0001:00042d30       __ltoa                     10043d30 f   libucrt:xtoa.obj
 0001:00042d74       __ltoa_s                   10043d74 f   libucrt:xtoa.obj
 0001:00042db6       __ltow                     10043db6 f   libucrt:xtoa.obj
 0001:00042dfa       __ltow_s                   10043dfa f   libucrt:xtoa.obj
 0001:00042e3c       __ui64toa                  10043e3c f   libucrt:xtoa.obj
 0001:00042e66       __ui64toa_s                10043e66 f   libucrt:xtoa.obj
 0001:00042e8e       __ui64tow                  10043e8e f   libucrt:xtoa.obj
 0001:00042eb8       __ui64tow_s                10043eb8 f   libucrt:xtoa.obj
 0001:00042ee0       __ultoa                    10043ee0 f   libucrt:xtoa.obj
 0001:00042f06       __ultoa_s                  10043f06 f   libucrt:xtoa.obj
 0001:00042f2a       __ultow                    10043f2a f   libucrt:xtoa.obj
 0001:00042f50       __ultow_s                  10043f50 f   libucrt:xtoa.obj
 0001:00042f74       __set_error_mode           10043f74 f   libucrt:set_error_mode.obj
 0001:00043050       _wcscat_s                  10044050 f   libucrt:wcscat_s.obj
 0001:0004315a       _wcscpy_s                  1004415a f   libucrt:wcscpy_s.obj
 0001:000432fa       _wcsncat_s                 100442fa f   libucrt:wcsncat_s.obj
 0001:0004338a       _strcat_s                  1004438a f   libucrt:strcat_s.obj
 0001:00043511       _strncat_s                 10044511 f   libucrt:strncat_s.obj
 0001:0004351e       ___acrt_GetModuleFileNameA 1004451e f   libucrt:getmodulefilenamea.obj
 0001:000436d6       ??$message_box@$$TABQBDABQBDK@?$__crt_char_traits@D@@SAH$$QA$$TABQBD1$$QAK@Z 100446d6 f i libucrt:crtmbox.obj
 0001:000436fe       ??$message_box@$$TABQB_WABQB_WK@?$__crt_char_traits@_W@@SAH$$QA$$TABQB_W1$$QAK@Z 100446fe f i libucrt:crtmbox.obj
 0001:00043726       ??$message_box@PAUHWND__@@ABQBDABQBDABI@?$__crt_char_traits@D@@SAH$$QAPAUHWND__@@ABQBD1ABI@Z 10044726 f i libucrt:crtmbox.obj
 0001:0004374e       ??$message_box@PAUHWND__@@ABQB_WABQB_WABI@?$__crt_char_traits@_W@@SAH$$QAPAUHWND__@@ABQB_W1ABI@Z 1004474e f i libucrt:crtmbox.obj
 0001:00043776       ??$output_debug_string@ABQBD@?$__crt_char_traits@D@@SAXABQBD@Z 10044776 f i libucrt:crtmbox.obj
 0001:0004378b       ??$output_debug_string@ABQB_W@?$__crt_char_traits@_W@@SAXABQB_W@Z 1004478b f i libucrt:crtmbox.obj
 0001:000437a1       ___acrt_show_narrow_message_box 100447a1 f   libucrt:crtmbox.obj
 0001:000437ae       ___acrt_show_wide_message_box 100447ae f   libucrt:crtmbox.obj
 0001:00043b0c       ??0__crt_stdio_stream@@QAE@QAU__crt_stdio_stream_data@@@Z 10044b0c f i libucrt:fflush.obj
 0001:00043d75       ___acrt_stdio_flush_nolock 10044d75 f   libucrt:fflush.obj
 0001:00043df0       __fflush_nolock            10044df0 f   libucrt:fflush.obj
 0001:00043e48       __flushall                 10044e48 f   libucrt:fflush.obj
 0001:00043e53       _fflush                    10044e53 f   libucrt:fflush.obj
 0001:000440be       _setvbuf                   100450be f   libucrt:setvbuf.obj
 0001:00044163       ??$?B$$A6AXH@Z@__crt_fast_encoded_nullptr_t@@QBEP6AXH@ZXZ 10045163 f i libucrt:signal.obj
 0001:00044223       ??$__crt_fast_decode_pointer@P6AXH@Z@@YAP6AXH@ZQ6AXH@Z@Z 10045223 f i libucrt:signal.obj
 0001:0004423e       ??$__crt_fast_encode_pointer@P6AXH@Z@@YAP6AXH@ZQ6AXH@Z@Z 1004523e f i libucrt:signal.obj
 0001:000443e8       ?initialize@?$dual_state_global@P6AXH@Z@__crt_state_management@@QAEXQ6AXH@Z@Z 100453e8 f i libucrt:signal.obj
 0001:000444c6       ?value@?$dual_state_global@P6AXH@Z@__crt_state_management@@QAEAAP6AXH@ZXZ 100454c6 f i libucrt:signal.obj
 0001:000444c9       ___acrt_get_sigabrt_handler 100454c9 f   libucrt:signal.obj
 0001:000444fc       ___acrt_initialize_signal_handlers 100454fc f   libucrt:signal.obj
 0001:00044521       ___fpecode                 10045521 f   libucrt:signal.obj
 0001:0004452c       ___pxcptinfoptrs           1004552c f   libucrt:signal.obj
 0001:00044537       _raise                     10045537 f   libucrt:signal.obj
 0001:000447b9       _signal                    100457b9 f   libucrt:signal.obj
 0001:000449d6       __realloc_base             100459d6 f   libucrt:realloc_base.obj
 0001:00044a59       ___acrt_initialize_locks   10045a59 f   libucrt:locks.obj
 0001:00044aaa       ___acrt_lock               10045aaa f   libucrt:locks.obj
 0001:00044ac6       ___acrt_uninitialize_locks 10045ac6 f   libucrt:locks.obj
 0001:00044b03       ___acrt_unlock             10045b03 f   libucrt:locks.obj
 0001:00044b1f       __lock_locales             10045b1f f   libucrt:locks.obj
 0001:00044b30       __unlock_locales           10045b30 f   libucrt:locks.obj
 0001:00044d4e       ___acrt_get_begin_thread_init_policy 10045d4e f   libucrt:win_policies.obj
 0001:00044da4       ___acrt_get_developer_information_policy 10045da4 f   libucrt:win_policies.obj
 0001:00044dfa       ___acrt_get_process_end_policy 10045dfa f   libucrt:win_policies.obj
 0001:00044e39       ___acrt_get_windowing_model_policy 10045e39 f   libucrt:win_policies.obj
 0001:00044ebd       ??$?B$$A6GHPA_WKJ@Z@__crt_fast_encoded_nullptr_t@@QBEP6GHPA_WKJ@ZXZ 10045ebd f i libucrt:winapi_thunks.obj
 0001:00044fb7       ??$__crt_fast_decode_pointer@P6GHPA_WKJ@Z@@YAP6GHPA_WKJ@ZQ6GH0KJ@Z@Z 10045fb7 f i libucrt:winapi_thunks.obj
 0001:00044fd2       ??$__crt_fast_encode_pointer@P6GHPA_WKJ@Z@@YAP6GHPA_WKJ@ZQ6GH0KJ@Z@Z 10045fd2 f i libucrt:winapi_thunks.obj
 0001:00045831       _GetCurrentThreadEffectiveToken 10046831 f i libucrt:winapi_thunks.obj
 0001:00045835       ___acrt_AppPolicyGetProcessTerminationMethodInternal@4 10046835 f   libucrt:winapi_thunks.obj
 0001:000458a1       ___acrt_AppPolicyGetShowDeveloperDiagnosticInternal@4 100468a1 f   libucrt:winapi_thunks.obj
 0001:0004590d       ___acrt_AppPolicyGetThreadInitializationTypeInternal@4 1004690d f   libucrt:winapi_thunks.obj
 0001:00045979       ___acrt_AppPolicyGetWindowingModelInternal@4 10046979 f   libucrt:winapi_thunks.obj
 0001:000459e5       ___acrt_AreFileApisANSI@0  100469e5 f   libucrt:winapi_thunks.obj
 0001:00045a2d       ___acrt_CompareStringEx@36 10046a2d f   libucrt:winapi_thunks.obj
 0001:00045abe       ___acrt_EnumSystemLocalesEx@16 10046abe f   libucrt:winapi_thunks.obj
 0001:00045b42       ___acrt_FlsAlloc@4         10046b42 f   libucrt:winapi_thunks.obj
 0001:00045bad       ___acrt_FlsFree@4          10046bad f   libucrt:winapi_thunks.obj
 0001:00045c18       ___acrt_FlsGetValue@4      10046c18 f   libucrt:winapi_thunks.obj
 0001:00045c83       ___acrt_FlsSetValue@8      10046c83 f   libucrt:winapi_thunks.obj
 0001:00045cf2       ___acrt_GetDateFormatEx@28 10046cf2 f   libucrt:winapi_thunks.obj
 0001:00045d7b       ___acrt_GetEnabledXStateFeatures@0 10046d7b f   libucrt:winapi_thunks.obj
 0001:00045ddd       ___acrt_GetLocaleInfoEx@16 10046ddd f   libucrt:winapi_thunks.obj
 0001:00045e48       ___acrt_GetSystemTimePreciseAsFileTime@4 10046e48 f   libucrt:winapi_thunks.obj
 0001:00045eb3       ___acrt_GetTimeFormatEx@24 10046eb3 f   libucrt:winapi_thunks.obj
 0001:00045f26       ___acrt_GetUserDefaultLocaleName@8 10046f26 f   libucrt:winapi_thunks.obj
 0001:00045f8d       ___acrt_GetXStateFeaturesMask@8 10046f8d f   libucrt:winapi_thunks.obj
 0001:00045ff9       ___acrt_InitializeCriticalSectionEx@12 10046ff9 f   libucrt:winapi_thunks.obj
 0001:00046073       ___acrt_IsValidLocaleName@4 10047073 f   libucrt:winapi_thunks.obj
 0001:000460d5       ___acrt_LCIDToLocaleName@16 100470d5 f   libucrt:winapi_thunks.obj
 0001:00046140       ___acrt_LCMapStringEx@36   10047140 f   libucrt:winapi_thunks.obj
 0001:000461d1       ___acrt_LocaleNameToLCID@8 100471d1 f   libucrt:winapi_thunks.obj
 0001:0004622b       ___acrt_LocateXStateFeature@12 1004722b f   libucrt:winapi_thunks.obj
 0001:00046282       ___acrt_MessageBoxA@16     10047282 f   libucrt:winapi_thunks.obj
 0001:000462dd       ___acrt_MessageBoxW@16     100472dd f   libucrt:winapi_thunks.obj
 0001:00046338       ___acrt_RoInitialize@4     10047338 f   libucrt:winapi_thunks.obj
 0001:0004639e       ___acrt_RoUninitialize@0   1004739e f   libucrt:winapi_thunks.obj
 0001:000463f9       ___acrt_RtlGenRandom@8     100473f9 f   libucrt:winapi_thunks.obj
 0001:00046465       ___acrt_SetThreadStackGuarantee@4 10047465 f   libucrt:winapi_thunks.obj
 0001:000464cb       ___acrt_can_show_message_box 100474cb f   libucrt:winapi_thunks.obj
 0001:000464fb       ___acrt_can_use_vista_locale_apis 100474fb f   libucrt:winapi_thunks.obj
 0001:00046508       ___acrt_can_use_xstate_apis 10047508 f   libucrt:winapi_thunks.obj
 0001:00046515       ___acrt_eagerly_load_locale_apis 10047515 f   libucrt:winapi_thunks.obj
 0001:00046559       ___acrt_get_parent_window  10047559 f   libucrt:winapi_thunks.obj
 0001:000465f7       ___acrt_initialize_winapi_thunks 100475f7 f   libucrt:winapi_thunks.obj
 0001:00046642       ___acrt_is_interactive     10047642 f   libucrt:winapi_thunks.obj
 0001:00046711       ___acrt_uninitialize_winapi_thunks 10047711 f   libucrt:winapi_thunks.obj
 0001:00046754       __fcloseall                10047754 f   libucrt:closeall.obj
 0001:0004681c       ?has_crt_buffer@__crt_stdio_stream@@QBE_NXZ 1004781c f i libucrt:_freebuf.obj
 0001:00046829       ___acrt_stdio_free_buffer_nolock 10047829 f   libucrt:_freebuf.obj
 0001:00046a67       ___acrt_initialize_lowio   10047a67 f   libucrt:ioinit.obj
 0001:00046ad2       ___acrt_uninitialize_lowio 10047ad2 f   libucrt:ioinit.obj
 0001:00046cfe       __close                    10047cfe f   libucrt:close.obj
 0001:00046db0       __close_nolock             10047db0 f   libucrt:close.obj
 0001:00046e73       ?lowio_handle@__crt_stdio_stream@@QBEHXZ 10047e73 f i libucrt:fileno.obj
 0001:00046e79       __fileno                   10047e79 f   libucrt:fileno.obj
 0001:00046ea8       ??$?RU__crt_stdio_stream_data@@@__crt_internal_free_policy@@QBEXQBU__crt_stdio_stream_data@@@Z 10047ea8 f i libucrt:stream.obj
 0001:00046ebe       ??0?$__crt_unique_heap_ptr@U__crt_stdio_stream_data@@U__crt_internal_free_policy@@@@QAE@QAU__crt_stdio_stream_data@@@Z 10047ebe f i libucrt:stream.obj
 0001:00046ed2       ??0__crt_stdio_stream@@QAE@XZ 10047ed2 f i libucrt:stream.obj
 0001:00046ed8       ??1?$__crt_unique_heap_ptr@U__crt_stdio_stream_data@@U__crt_internal_free_policy@@@@QAE@XZ 10047ed8 f i libucrt:stream.obj
 0001:00046eee       ?__acrt_stdio_allocate_stream@@YA?AV__crt_stdio_stream@@XZ 10047eee f   libucrt:stream.obj
 0001:00046f64       ?__acrt_stdio_free_stream@@YAXV__crt_stdio_stream@@@Z 10047f64 f   libucrt:stream.obj
 0001:00046fad       ?deallocate@__crt_stdio_stream@@QAEXXZ 10047fad f i libucrt:stream.obj
 0001:00046fb9       ?detach@?$__crt_unique_heap_ptr@U__crt_stdio_stream_data@@U__crt_internal_free_policy@@@@QAEPAU__crt_stdio_stream_data@@XZ 10047fb9 f i libucrt:stream.obj
 0001:000470b2       ?lock@__crt_stdio_stream@@QBEXXZ 100480b2 f i libucrt:stream.obj
 0001:000470bd       ?release@?$__crt_unique_heap_ptr@U__crt_stdio_stream_data@@U__crt_internal_free_policy@@@@QAEXXZ 100480bd f i libucrt:stream.obj
 0001:000470d3       ?try_allocate@__crt_stdio_stream@@QAE_NXZ 100480d3 f i libucrt:stream.obj
 0001:000470fb       ??$__acrt_stdio_parse_mode@D@@YA?AU__acrt_stdio_stream_mode@@QBD@Z 100480fb f i libucrt:openfile.obj
 0001:000473b5       ??$__acrt_stdio_parse_mode@_W@@YA?AU__acrt_stdio_stream_mode@@QB_W@Z 100483b5 f i libucrt:openfile.obj
 0001:0004780a       ??$tcsncmp@AAPBDAAY02$$CBDI@?$__crt_char_traits@D@@SAHAAPBDAAY02$$CBD$$QAI@Z 1004880a f i libucrt:openfile.obj
 0001:0004782d       ??$tcsncmp@AAPB_WAAY02$$CB_WI@?$__crt_char_traits@_W@@SAHAAPB_WAAY02$$CB_W$$QAI@Z 1004882d f i libucrt:openfile.obj
 0001:00047850       ??$tcsnicmp@AAPBDAAY04$$CBDI@?$__crt_char_traits@D@@SAHAAPBDAAY04$$CBD$$QAI@Z 10048850 f i libucrt:openfile.obj
 0001:00047873       ??$tcsnicmp@AAPBDAAY06$$CBDI@?$__crt_char_traits@D@@SAHAAPBDAAY06$$CBD$$QAI@Z 10048873 f i libucrt:openfile.obj
 0001:00047896       ??$tcsnicmp@AAPBDAAY07$$CBDI@?$__crt_char_traits@D@@SAHAAPBDAAY07$$CBD$$QAI@Z 10048896 f i libucrt:openfile.obj
 0001:000478b9       ??$tcsnicmp@AAPB_WAAY04$$CB_WI@?$__crt_char_traits@_W@@SAHAAPB_WAAY04$$CB_W$$QAI@Z 100488b9 f i libucrt:openfile.obj
 0001:000478dc       ??$tcsnicmp@AAPB_WAAY06$$CB_WI@?$__crt_char_traits@_W@@SAHAAPB_WAAY06$$CB_W$$QAI@Z 100488dc f i libucrt:openfile.obj
 0001:000478ff       ??$tcsnicmp@AAPB_WAAY07$$CB_WI@?$__crt_char_traits@_W@@SAHAAPB_WAAY07$$CB_W$$QAI@Z 100488ff f i libucrt:openfile.obj
 0001:00047922       ??$tsopen_s@PAHABQBDABHABHH@?$__crt_char_traits@D@@SAH$$QAPAHABQBDABH2$$QAH@Z 10048922 f i libucrt:openfile.obj
 0001:00047954       ??$tsopen_s@PAHABQB_WABHABHH@?$__crt_char_traits@_W@@SAH$$QAPAHABQB_WABH2$$QAH@Z 10048954 f i libucrt:openfile.obj
 0001:00047986       ?__acrt_stdio_parse_mode_D@@YA_NAAU__acrt_stdio_stream_mode@@@Z 10048986 f i libucrt:openfile.obj
 0001:000479a7       ?__acrt_stdio_parse_mode_N@@YA_NAAU__acrt_stdio_stream_mode@@@Z 100489a7 f i libucrt:openfile.obj
 0001:000479bd       ?__acrt_stdio_parse_mode_R@@YA_NAAU__acrt_stdio_stream_mode@@AA_N@Z 100489bd f i libucrt:openfile.obj
 0001:000479e2       ?__acrt_stdio_parse_mode_S@@YA_NAAU__acrt_stdio_stream_mode@@AA_N@Z 100489e2 f i libucrt:openfile.obj
 0001:00047a07       ?__acrt_stdio_parse_mode_T@@YA_NAAU__acrt_stdio_stream_mode@@@Z 10048a07 f i libucrt:openfile.obj
 0001:00047a2d       ?__acrt_stdio_parse_mode_b@@YA_NAAU__acrt_stdio_stream_mode@@@Z 10048a2d f i libucrt:openfile.obj
 0001:00047a55       ?__acrt_stdio_parse_mode_c@@YA_NAAU__acrt_stdio_stream_mode@@AA_N@Z 10048a55 f i libucrt:openfile.obj
 0001:00047a7f       ?__acrt_stdio_parse_mode_n@@YA_NAAU__acrt_stdio_stream_mode@@AA_N@Z 10048a7f f i libucrt:openfile.obj
 0001:00047aa9       ?__acrt_stdio_parse_mode_plus@@YA_NAAU__acrt_stdio_stream_mode@@AA_N@Z 10048aa9 f i libucrt:openfile.obj
 0001:00047aeb       ?__acrt_stdio_parse_mode_t@@YA_NAAU__acrt_stdio_stream_mode@@@Z 10048aeb f i libucrt:openfile.obj
 0001:00047b13       ?__acrt_stdio_parse_mode_x@@YA_NAAU__acrt_stdio_stream_mode@@@Z 10048b13 f i libucrt:openfile.obj
 0001:00047b3b       __openfile                 10048b3b f   libucrt:openfile.obj
 0001:00047b48       __wopenfile                10048b48 f   libucrt:openfile.obj
 0001:0004821b       __read                     1004921b f   libucrt:read.obj
 0001:00048367       __read_nolock              10049367 f   libucrt:read.obj
 0001:00048805       __utf8_no_of_trailbytes    10049805 f i libucrt:read.obj
 0001:00048d24       ___acrt_stdio_refill_and_read_narrow_nolock 10049d24 f   libucrt:_filbuf.obj
 0001:00048d31       ___acrt_stdio_refill_and_read_wide_nolock 10049d31 f   libucrt:_filbuf.obj
 0001:000494b3       __write                    1004a4b3 f   libucrt:write.obj
 0001:000495d5       __write_nolock             1004a5d5 f   libucrt:write.obj
 0001:00049d17       ___acrt_stdio_flush_and_write_narrow_nolock 1004ad17 f   libucrt:_flsbuf.obj
 0001:00049d24       ___acrt_stdio_flush_and_write_wide_nolock 1004ad24 f   libucrt:_flsbuf.obj
 0001:00049d31       ?has_temporary_buffer@__crt_stdio_stream@@QBE_NXZ 1004ad31 f i libucrt:_sftbuf.obj
 0001:00049d3e       ___acrt_stdio_begin_temporary_buffering_nolock 1004ad3e f   libucrt:_sftbuf.obj
 0001:00049e20       ___acrt_stdio_end_temporary_buffering_nolock 1004ae20 f   libucrt:_sftbuf.obj
 0001:00049ee9       ___acrt_MultiByteToWideChar 1004aee9 f   libucrt:multibytetowidechar.obj
 0001:00049f84       ??$?RU__acrt_ptd@@@__crt_internal_free_policy@@QBEXQBU__acrt_ptd@@@Z 1004af84 f i libucrt:per_thread_data.obj
 0001:0004a2fd       ??0?$__crt_unique_heap_ptr@U__acrt_ptd@@U__crt_internal_free_policy@@@@QAE@QAU__acrt_ptd@@@Z 1004b2fd f i libucrt:per_thread_data.obj
 0001:0004a311       ??0__crt_scoped_get_last_error_reset@@QAE@XZ 1004b311 f i libucrt:per_thread_data.obj
 0001:0004a326       ??1?$__crt_unique_heap_ptr@U__acrt_ptd@@U__crt_internal_free_policy@@@@QAE@XZ 1004b326 f i libucrt:per_thread_data.obj
 0001:0004a33c       ??1__crt_scoped_get_last_error_reset@@QAE@XZ 1004b33c f i libucrt:per_thread_data.obj
 0001:0004a347       ??B?$__crt_unique_heap_ptr@U__acrt_ptd@@U__crt_internal_free_policy@@@@QBE_NXZ 1004b347 f i libucrt:per_thread_data.obj
 0001:0004a4e4       ?dangerous_get_state_array@?$dual_state_global@PAU__crt_locale_data@@@__crt_state_management@@QAEPAPAU__crt_locale_data@@XZ 1004b4e4 f i libucrt:per_thread_data.obj
 0001:0004a617       ?detach@?$__crt_unique_heap_ptr@U__acrt_ptd@@U__crt_internal_free_policy@@@@QAEPAU__acrt_ptd@@XZ 1004b617 f i libucrt:per_thread_data.obj
 0001:0004a61d       ?get@?$__crt_unique_heap_ptr@U__acrt_ptd@@U__crt_internal_free_policy@@@@QBEPAU__acrt_ptd@@XZ 1004b61d f i libucrt:per_thread_data.obj
 0001:0004a620       ?get_current_state_index@__crt_state_management@@YAIABV__crt_scoped_get_last_error_reset@@@Z 1004b620 f i libucrt:per_thread_data.obj
 0001:0004a7a6       ?is_valid@?$__crt_unique_heap_ptr@U__acrt_ptd@@U__crt_internal_free_policy@@@@QBE_NXZ 1004b7a6 f i libucrt:per_thread_data.obj
 0001:0004a7ad       ?release@?$__crt_unique_heap_ptr@U__acrt_ptd@@U__crt_internal_free_policy@@@@QAEXXZ 1004b7ad f i libucrt:per_thread_data.obj
 0001:0004a839       ?value@?$dual_state_global@PAU__crt_locale_data@@@__crt_state_management@@QAEAAPAU__crt_locale_data@@XZ 1004b839 f i libucrt:per_thread_data.obj
 0001:0004a83c       ___acrt_freeptd            1004b83c f   libucrt:per_thread_data.obj
 0001:0004a873       ___acrt_getptd             1004b873 f   libucrt:per_thread_data.obj
 0001:0004a957       ___acrt_getptd_head        1004b957 f   libucrt:per_thread_data.obj
 0001:0004aa17       ___acrt_getptd_noexit      1004ba17 f   libucrt:per_thread_data.obj
 0001:0004aaef       ___acrt_initialize_ptd     1004baef f   libucrt:per_thread_data.obj
 0001:0004ab26       ___acrt_uninitialize_ptd   1004bb26 f   libucrt:per_thread_data.obj
 0001:0004ab46       ___threadhandle            1004bb46 f   libucrt:per_thread_data.obj
 0001:0004ab4c       ___threadid                1004bb4c f   libucrt:per_thread_data.obj
 0001:0004ab52       ?value@?$dual_state_global@PAU__crt_multibyte_data@@@__crt_state_management@@QAEAAPAU__crt_multibyte_data@@XZ 1004bb52 f i libucrt:locale_update.obj
 0001:0004ab55       ___acrt_update_locale_info 1004bb55 f   libucrt:locale_update.obj
 0001:0004ab8d       ___acrt_update_multibyte_info 1004bb8d f   libucrt:locale_update.obj
 0001:0004abc5       __wremove                  1004bbc5 f   libucrt:wunlink.obj
 0001:0004abf7       __wunlink                  1004bbf7 f   libucrt:wunlink.obj
 0001:0004ac07       ??$?RU__crt_locale_data@@@__crt_internal_free_policy@@QBEXQBU__crt_locale_data@@@Z 1004bc07 f i libucrt:wsetlocale.obj
 0001:0004ac1d       ??$?RU__crt_locale_pointers@@@__crt_internal_free_policy@@QBEXQBU__crt_locale_pointers@@@Z 1004bc1d f i libucrt:wsetlocale.obj
 0001:0004ac33       ??$?RU__crt_multibyte_data@@@__crt_internal_free_policy@@QBEXQBU__crt_multibyte_data@@@Z 1004bc33 f i libucrt:wsetlocale.obj
 0001:0004af03       ??$__vcrt_va_start_verify_argument_type@H@@YAXXZ 1004bf03 f i libucrt:wsetlocale.obj
 0001:0004b08e       ??0?$__crt_unique_heap_ptr@U__crt_locale_data@@U__crt_internal_free_policy@@@@QAE@QAU__crt_locale_data@@@Z 1004c08e f i libucrt:wsetlocale.obj
 0001:0004b0a2       ??0?$__crt_unique_heap_ptr@U__crt_locale_pointers@@U__crt_internal_free_policy@@@@QAE@QAU__crt_locale_pointers@@@Z 1004c0a2 f i libucrt:wsetlocale.obj
 0001:0004b0b6       ??0?$__crt_unique_heap_ptr@U__crt_multibyte_data@@U__crt_internal_free_policy@@@@QAE@QAU__crt_multibyte_data@@@Z 1004c0b6 f i libucrt:wsetlocale.obj
 0001:0004b0ca       ??1?$__crt_unique_heap_ptr@U__crt_locale_data@@U__crt_internal_free_policy@@@@QAE@XZ 1004c0ca f i libucrt:wsetlocale.obj
 0001:0004b0e0       ??1?$__crt_unique_heap_ptr@U__crt_locale_pointers@@U__crt_internal_free_policy@@@@QAE@XZ 1004c0e0 f i libucrt:wsetlocale.obj
 0001:0004b0f6       ??1?$__crt_unique_heap_ptr@U__crt_multibyte_data@@U__crt_internal_free_policy@@@@QAE@XZ 1004c0f6 f i libucrt:wsetlocale.obj
 0001:0004b10c       ??B?$__crt_unique_heap_ptr@U__crt_locale_data@@U__crt_internal_free_policy@@@@QBE_NXZ 1004c10c f i libucrt:wsetlocale.obj
 0001:0004b113       ??B?$__crt_unique_heap_ptr@U__crt_locale_pointers@@U__crt_internal_free_policy@@@@QBE_NXZ 1004c113 f i libucrt:wsetlocale.obj
 0001:0004b11a       ??B?$__crt_unique_heap_ptr@U__crt_multibyte_data@@U__crt_internal_free_policy@@@@QBE_NXZ 1004c11a f i libucrt:wsetlocale.obj
 0001:0004b3bc       ?detach@?$__crt_unique_heap_ptr@U__crt_locale_data@@U__crt_internal_free_policy@@@@QAEPAU__crt_locale_data@@XZ 1004c3bc f i libucrt:wsetlocale.obj
 0001:0004b3c2       ?detach@?$__crt_unique_heap_ptr@U__crt_locale_pointers@@U__crt_internal_free_policy@@@@QAEPAU__crt_locale_pointers@@XZ 1004c3c2 f i libucrt:wsetlocale.obj
 0001:0004b3c8       ?detach@?$__crt_unique_heap_ptr@U__crt_multibyte_data@@U__crt_internal_free_policy@@@@QAEPAU__crt_multibyte_data@@XZ 1004c3c8 f i libucrt:wsetlocale.obj
 0001:0004b3ce       ?get@?$__crt_unique_heap_ptr@U__crt_locale_data@@U__crt_internal_free_policy@@@@QBEPAU__crt_locale_data@@XZ 1004c3ce f i libucrt:wsetlocale.obj
 0001:0004b3d1       ?get@?$__crt_unique_heap_ptr@U__crt_locale_pointers@@U__crt_internal_free_policy@@@@QBEPAU__crt_locale_pointers@@XZ 1004c3d1 f i libucrt:wsetlocale.obj
 0001:0004b3d4       ?get@?$__crt_unique_heap_ptr@U__crt_multibyte_data@@U__crt_internal_free_policy@@@@QBEPAU__crt_multibyte_data@@XZ 1004c3d4 f i libucrt:wsetlocale.obj
 0001:0004b3d7       ?is_valid@?$__crt_unique_heap_ptr@U__crt_locale_data@@U__crt_internal_free_policy@@@@QBE_NXZ 1004c3d7 f i libucrt:wsetlocale.obj
 0001:0004b3de       ?is_valid@?$__crt_unique_heap_ptr@U__crt_locale_pointers@@U__crt_internal_free_policy@@@@QBE_NXZ 1004c3de f i libucrt:wsetlocale.obj
 0001:0004b3e5       ?is_valid@?$__crt_unique_heap_ptr@U__crt_multibyte_data@@U__crt_internal_free_policy@@@@QBE_NXZ 1004c3e5 f i libucrt:wsetlocale.obj
 0001:0004b3ec       ?release@?$__crt_unique_heap_ptr@U__crt_locale_data@@U__crt_internal_free_policy@@@@QAEXXZ 1004c3ec f i libucrt:wsetlocale.obj
 0001:0004b402       ?release@?$__crt_unique_heap_ptr@U__crt_locale_pointers@@U__crt_internal_free_policy@@@@QAEXXZ 1004c402 f i libucrt:wsetlocale.obj
 0001:0004b418       ?release@?$__crt_unique_heap_ptr@U__crt_multibyte_data@@U__crt_internal_free_policy@@@@QAEXXZ 1004c418 f i libucrt:wsetlocale.obj
 0001:0004b42e       ___acrt_copy_locale_name   1004c42e f   libucrt:wsetlocale.obj
 0001:0004b4ad       ___acrt_set_locale_changed 1004c4ad f   libucrt:wsetlocale.obj
 0001:0004b4ba       ___acrt_uninitialize_locale 1004c4ba f   libucrt:wsetlocale.obj
 0001:0004b4ed       ___lc_lctowcs              1004c4ed f   libucrt:wsetlocale.obj
 0001:0004b579       ___lc_wcstolc              1004c579 f   libucrt:wsetlocale.obj
 0001:0004b719       __configthreadlocale       1004c719 f   libucrt:wsetlocale.obj
 0001:0004b7cd       __create_locale            1004c7cd f   libucrt:wsetlocale.obj
 0001:0004b84c       __expandlocale             1004c84c f   libucrt:wsetlocale.obj
 0001:0004bd20       __free_locale              1004cd20 f   libucrt:wsetlocale.obj
 0001:0004be06       __get_current_locale       1004ce06 f   libucrt:wsetlocale.obj
 0001:0004beca       __wcreate_locale           1004ceca f   libucrt:wsetlocale.obj
 0001:0004c015       __wcscats                  1004d015 f   libucrt:wsetlocale.obj
 0001:0004c066       __wsetlocale               1004d066 f   libucrt:wsetlocale.obj
 0001:0004cb9d       ___p___mb_cur_max          1004db9d f   libucrt:nlsdata.obj
 0001:0004d02d       __lseek                    1004e02d f   libucrt:lseek.obj
 0001:0004d03a       __lseek_nolock             1004e03a f   libucrt:lseek.obj
 0001:0004d047       __lseeki64                 1004e047 f   libucrt:lseek.obj
 0001:0004d068       __lseeki64_nolock          1004e068 f   libucrt:lseek.obj
 0001:0004d0a5       ___isascii                 1004e0a5 f i libucrt:_ctype.obj
 0001:0004d0bb       ___iscsym                  1004e0bb f i libucrt:_ctype.obj
 0001:0004d0e5       ___iscsymf                 1004e0e5 f i libucrt:_ctype.obj
 0001:0004d10b       ___toascii                 1004e10b f i libucrt:_ctype.obj
 0001:0004d11b       __isalnum_l                1004e11b f i libucrt:_ctype.obj
 0001:0004d164       __isalpha_l                1004e164 f i libucrt:_ctype.obj
 0001:0004d1ad       __isblank_l                1004e1ad f i libucrt:_ctype.obj
 0001:0004d200       __iscntrl_l                1004e200 f i libucrt:_ctype.obj
 0001:0004d246       __iscsym_l                 1004e246 f i libucrt:_ctype.obj
 0001:0004d271       __iscsymf_l                1004e271 f i libucrt:_ctype.obj
 0001:0004d29c       __isdigit_l                1004e29c f i libucrt:_ctype.obj
 0001:0004d2e2       __isgraph_l                1004e2e2 f i libucrt:_ctype.obj
 0001:0004d32b       __islower_l                1004e32b f i libucrt:_ctype.obj
 0001:0004d371       __isprint_l                1004e371 f i libucrt:_ctype.obj
 0001:0004d3ba       __ispunct_l                1004e3ba f i libucrt:_ctype.obj
 0001:0004d400       __isspace_l                1004e400 f i libucrt:_ctype.obj
 0001:0004d446       __isupper_l                1004e446 f i libucrt:_ctype.obj
 0001:0004d48c       __isxdigit_l               1004e48c f i libucrt:_ctype.obj
 0001:0004d4d5       _isalnum                   1004e4d5 f i libucrt:_ctype.obj
 0001:0004d511       _isalpha                   1004e511 f i libucrt:_ctype.obj
 0001:0004d54d       _isblank                   1004e54d f i libucrt:_ctype.obj
 0001:0004d595       _iscntrl                   1004e595 f i libucrt:_ctype.obj
 0001:0004d5ce       _isdigit                   1004e5ce f i libucrt:_ctype.obj
 0001:0004d607       _isgraph                   1004e607 f i libucrt:_ctype.obj
 0001:0004d643       _islower                   1004e643 f i libucrt:_ctype.obj
 0001:0004d67c       _isprint                   1004e67c f i libucrt:_ctype.obj
 0001:0004d6b8       _ispunct                   1004e6b8 f i libucrt:_ctype.obj
 0001:0004d6f1       _isspace                   1004e6f1 f i libucrt:_ctype.obj
 0001:0004d72a       _isupper                   1004e72a f i libucrt:_ctype.obj
 0001:0004d763       _isxdigit                  1004e763 f i libucrt:_ctype.obj
 0001:0004db5b       __tolower                  1004eb5b f   libucrt:tolower_toupper.obj
 0001:0004db6b       __tolower_l                1004eb6b f   libucrt:tolower_toupper.obj
 0001:0004db8b       __toupper                  1004eb8b f   libucrt:tolower_toupper.obj
 0001:0004db9b       __toupper_l                1004eb9b f   libucrt:tolower_toupper.obj
 0001:0004dbbb       _tolower                   1004ebbb f   libucrt:tolower_toupper.obj
 0001:0004dbf7       _toupper                   1004ebf7 f   libucrt:tolower_toupper.obj
 0001:0004dc33       ??$make_c_string_character_source@DPAPAD@__crt_strtox@@YA?AV?$c_string_character_source@D@0@QBDQAPAD@Z 1004ec33 f i libucrt:strtox.obj
 0001:0004dc54       ??$make_c_string_character_source@_WPAPA_W@__crt_strtox@@YA?AV?$c_string_character_source@_W@0@QB_WQAPA_W@Z 1004ec54 f i libucrt:strtox.obj
 0001:0004dc75       ??$parse_integer_from_string@JDPAPAD@__crt_strtox@@YAJQBDQAPADHQAU__crt_locale_pointers@@@Z 1004ec75 f i libucrt:strtox.obj
 0001:0004dcad       ??$parse_integer_from_string@J_WPAPA_W@__crt_strtox@@YAJQB_WQAPA_WHQAU__crt_locale_pointers@@@Z 1004ecad f i libucrt:strtox.obj
 0001:0004dce5       ??$parse_integer_from_string@KDPAPAD@__crt_strtox@@YAKQBDQAPADHQAU__crt_locale_pointers@@@Z 1004ece5 f i libucrt:strtox.obj
 0001:0004dd1d       ??$parse_integer_from_string@K_WPAPA_W@__crt_strtox@@YAKQB_WQAPA_WHQAU__crt_locale_pointers@@@Z 1004ed1d f i libucrt:strtox.obj
 0001:0004dd55       ??$parse_integer_from_string@_JDPAPAD@__crt_strtox@@YA_JQBDQAPADHQAU__crt_locale_pointers@@@Z 1004ed55 f i libucrt:strtox.obj
 0001:0004dd8d       ??$parse_integer_from_string@_J_WPAPA_W@__crt_strtox@@YA_JQB_WQAPA_WHQAU__crt_locale_pointers@@@Z 1004ed8d f i libucrt:strtox.obj
 0001:0004ddc5       ??$parse_integer_from_string@_KDPAPAD@__crt_strtox@@YA_KQBDQAPADHQAU__crt_locale_pointers@@@Z 1004edc5 f i libucrt:strtox.obj
 0001:0004ddfd       ??$parse_integer_from_string@_K_WPAPA_W@__crt_strtox@@YA_KQB_WQAPA_WHQAU__crt_locale_pointers@@@Z 1004edfd f i libucrt:strtox.obj
 0001:0004de35       __strtoi64                 1004ee35 f   libucrt:strtox.obj
 0001:0004de6c       __strtoi64_l               1004ee6c f   libucrt:strtox.obj
 0001:0004dea4       __strtoimax_l              1004eea4 f   libucrt:strtox.obj
 0001:0004dedc       __strtol_l                 1004eedc f   libucrt:strtox.obj
 0001:0004df14       __strtoll_l                1004ef14 f   libucrt:strtox.obj
 0001:0004df4c       __strtoui64                1004ef4c f   libucrt:strtox.obj
 0001:0004df83       __strtoui64_l              1004ef83 f   libucrt:strtox.obj
 0001:0004dfbb       __strtoul_l                1004efbb f   libucrt:strtox.obj
 0001:0004dff3       __strtoull_l               1004eff3 f   libucrt:strtox.obj
 0001:0004e02b       __strtoumax_l              1004f02b f   libucrt:strtox.obj
 0001:0004e063       __wcstoi64                 1004f063 f   libucrt:strtox.obj
 0001:0004e09a       __wcstoi64_l               1004f09a f   libucrt:strtox.obj
 0001:0004e0d2       __wcstoimax_l              1004f0d2 f   libucrt:strtox.obj
 0001:0004e10a       __wcstol_l                 1004f10a f   libucrt:strtox.obj
 0001:0004e142       __wcstoll_l                1004f142 f   libucrt:strtox.obj
 0001:0004e17a       __wcstoui64                1004f17a f   libucrt:strtox.obj
 0001:0004e1b1       __wcstoui64_l              1004f1b1 f   libucrt:strtox.obj
 0001:0004e1e9       __wcstoul_l                1004f1e9 f   libucrt:strtox.obj
 0001:0004e221       __wcstoull_l               1004f221 f   libucrt:strtox.obj
 0001:0004e259       __wcstoumax_l              1004f259 f   libucrt:strtox.obj
 0001:0004e291       _strtoimax                 1004f291 f   libucrt:strtox.obj
 0001:0004e2c8       _strtol                    1004f2c8 f   libucrt:strtox.obj
 0001:0004e2ff       _strtoll                   1004f2ff f   libucrt:strtox.obj
 0001:0004e336       _strtoul                   1004f336 f   libucrt:strtox.obj
 0001:0004e36d       _strtoull                  1004f36d f   libucrt:strtox.obj
 0001:0004e3a4       _strtoumax                 1004f3a4 f   libucrt:strtox.obj
 0001:0004e3db       _wcstoimax                 1004f3db f   libucrt:strtox.obj
 0001:0004e412       _wcstol                    1004f412 f   libucrt:strtox.obj
 0001:0004e449       _wcstoll                   1004f449 f   libucrt:strtox.obj
 0001:0004e480       _wcstoul                   1004f480 f   libucrt:strtox.obj
 0001:0004e4b7       _wcstoull                  1004f4b7 f   libucrt:strtox.obj
 0001:0004e4ee       _wcstoumax                 1004f4ee f   libucrt:strtox.obj
 0001:0004e525       __mbtowc_l                 1004f525 f   libucrt:mbtowc.obj
 0001:0004e6ba       _mbtowc                    1004f6ba f   libucrt:mbtowc.obj
 0001:0004e6da       __wctomb_l                 1004f6da f   libucrt:wctomb.obj
 0001:0004e741       __wctomb_s_l               1004f741 f   libucrt:wctomb.obj
 0001:0004e8ac       _wctomb                    1004f8ac f   libucrt:wctomb.obj
 0001:0004e8ed       _wctomb_s                  1004f8ed f   libucrt:wctomb.obj
 0001:0004f30a       ??1?$__crt_simd_cleanup_guard@$00@@QAE@XZ 1005030a f i libucrt:strnlen.obj
 0001:0004f30e       ??1?$__crt_simd_cleanup_guard@$0A@@@QAE@XZ 1005030e f i libucrt:strnlen.obj
 0001:0004f30f       ?compare_equals@?$__crt_simd_traits@$00E@@SA?AT__m256i@@T2@0@Z 1005030f f i libucrt:strnlen.obj
 0001:0004f314       ?compare_equals@?$__crt_simd_traits@$00G@@SA?AT__m256i@@T2@0@Z 10050314 f i libucrt:strnlen.obj
 0001:0004f319       ?compare_equals@?$__crt_simd_traits@$0A@E@@SA?AT__m128i@@T2@0@Z 10050319 f i libucrt:strnlen.obj
 0001:0004f31e       ?compare_equals@?$__crt_simd_traits@$0A@G@@SA?AT__m128i@@T2@0@Z 1005031e f i libucrt:strnlen.obj
 0001:0004f323       ?compute_byte_mask@?$__crt_simd_pack_traits@$00@@SAHT__m256i@@@Z 10050323 f i libucrt:strnlen.obj
 0001:0004f328       ?compute_byte_mask@?$__crt_simd_pack_traits@$0A@@@SAHT__m128i@@@Z 10050328 f i libucrt:strnlen.obj
 0001:0004f32d       ?get_zero_pack@?$__crt_simd_pack_traits@$00@@SA?AT__m256i@@XZ 1005032d f i libucrt:strnlen.obj
 0001:0004f332       ?get_zero_pack@?$__crt_simd_pack_traits@$0A@@@SA?AT__m128i@@XZ 10050332 f i libucrt:strnlen.obj
 0001:0004f336       _strnlen                   10050336 f   libucrt:strnlen.obj
 0001:0004f4a0       _wcslen                    100504a0 f   libucrt:strnlen.obj
 0001:0004f612       _wcsnlen                   10050612 f   libucrt:strnlen.obj
 0001:0004f82e       ?__acrt_fp_classify@@YA?AW4__acrt_fp_class@@ABN@Z 1005082e f i libucrt:cvt.obj
 0001:0004f8a8       ?__acrt_fp_is_negative@@YA_NABN@Z 100508a8 f i libucrt:cvt.obj
 0001:0005032d       ?strrchr@@YAPADQADH@Z      1005132d f i libucrt:cvt.obj
 0001:0005033a       ___acrt_fp_format          1005133a f   libucrt:cvt.obj
 0001:00050502       __fputwc_nolock            10051502 f   libucrt:fputwc.obj
 0001:00050676       __fputwchar                10051676 f   libucrt:fputwc.obj
 0001:00050696       __putwc_nolock             10051696 f   libucrt:fputwc.obj
 0001:000506a3       _fputwc                    100516a3 f   libucrt:fputwc.obj
 0001:00050734       _putwc                     10051734 f   libucrt:fputwc.obj
 0001:00050741       _putwchar                  10051741 f   libucrt:fputwc.obj
 0001:0005074e       __fputc_nolock             1005174e f   libucrt:fputc.obj
 0001:00050781       __fputchar                 10051781 f   libucrt:fputc.obj
 0001:000507a1       __putc_nolock              100517a1 f   libucrt:fputc.obj
 0001:000507ae       _fputc                     100517ae f   libucrt:fputc.obj
 0001:000508ec       _putc                      100518ec f   libucrt:fputc.obj
 0001:000508f9       _putchar                   100518f9 f   libucrt:fputc.obj
 0001:00050906       __get_printf_count_output  10051906 f   libucrt:printf_count_output.obj
 0001:00050920       __set_printf_count_output  10051920 f   libucrt:printf_count_output.obj
 0001:00050954       __chgsign                  10051954 f   libucrt:ieeemisc.obj
 0001:0005098e       __chgsignf                 1005198e f   libucrt:ieeemisc.obj
 0001:000509b9       __copysign                 100519b9 f   libucrt:ieeemisc.obj
 0001:000509ed       __copysignf                100519ed f   libucrt:ieeemisc.obj
 0001:00050a12       __finite                   10051a12 f   libucrt:ieeemisc.obj
 0001:00050a32       __fpclass                  10051a32 f   libucrt:ieeemisc.obj
 0001:00050aff       __isnan                    10051aff f   libucrt:ieeemisc.obj
 0001:00050b42       __logb                     10051b42 f   libucrt:ieeemisc.obj
 0001:00050c47       __nextafter                10051c47 f   libucrt:ieeemisc.obj
 0001:00050c6d       __scalb                    10051c6d f   libucrt:ieeemisc.obj
 0001:00050c8d       __add_exp                  10051c8d f   libucrt:util.obj
 0001:00050cc7       __decomp                   10051cc7 f   libucrt:util.obj
 0001:00050ddc       __get_exp                  10051ddc f   libucrt:util.obj
 0001:00050dfa       __set_bexp                 10051dfa f   libucrt:util.obj
 0001:00050e2d       __set_exp                  10051e2d f   libucrt:util.obj
 0001:00050e67       __sptype                   10051e67 f   libucrt:util.obj
 0001:00050edc       ___clrfp_sse2              10051edc f   libucrt:fpctrl.obj
 0001:00050f05       ___ctrlfp_sse2             10051f05 f   libucrt:fpctrl.obj
 0001:00050f4e       ___fclrf_sse2              10051f4e f   libucrt:fpctrl.obj
 0001:00050f74       ___get_fpsr_sse2           10051f74 f   libucrt:fpctrl.obj
 0001:00050f99       ___set_fpsr_sse2           10051f99 f   libucrt:fpctrl.obj
 0001:0005102c       ___set_statfp_sse2         1005202c f   libucrt:fpctrl.obj
 0001:0005104d       ___statfp_sse2             1005204d f   libucrt:fpctrl.obj
 0001:00051067       __clrfp                    10052067 f   libucrt:fpctrl.obj
 0001:0005107e       __ctrlfp                   1005207e f   libucrt:fpctrl.obj
 0001:000510b5       __set_statfp               100520b5 f   libucrt:fpctrl.obj
 0001:00051126       __statfp                   10052126 f   libucrt:fpctrl.obj
 0001:0005113c       ??$__crt_fast_decode_pointer@P6AHPAU_exception@@@Z@@YAP6AHPAU_exception@@@ZQ6AH0@Z@Z 1005213c f i libucrt:matherr.obj
 0001:00051157       ??$__crt_fast_encode_pointer@P6AHPAU_exception@@@Z@@YAP6AHPAU_exception@@@ZQ6AH0@Z@Z 10052157 f i libucrt:matherr.obj
 0001:0005117d       ?initialize@?$dual_state_global@P6AHPAU_exception@@@Z@__crt_state_management@@QAEXQ6AHPAU_exception@@@Z@Z 1005217d f i libucrt:matherr.obj
 0001:000511ac       ?value@?$dual_state_global@P6AHPAU_exception@@@Z@__crt_state_management@@QAEAAP6AHPAU_exception@@@ZXZ 100521ac f i libucrt:matherr.obj
 0001:000511af       ___acrt_has_user_matherr   100521af f   libucrt:matherr.obj
 0001:000511cd       ___acrt_initialize_user_matherr 100521cd f   libucrt:matherr.obj
 0001:000511df       ___acrt_invoke_user_matherr 100521df f   libucrt:matherr.obj
 0001:0005123a       ___setusermatherr          1005223a f   libucrt:matherr.obj
 0001:00051d45       ??$find_first_file_ex@ABQADW4_FINDEX_INFO_LEVELS@@PAU_WIN32_FIND_DATAA@@W4_FINDEX_SEARCH_OPS@@$$TH@?$__crt_char_traits@D@@SAPAXABQAD$$QAW4_FINDEX_INFO_LEVELS@@$$QAPAU_WIN32_FIND_DATAA@@$$QAW4_FINDEX_SEARCH_OPS@@$$QA$$T$$QAH@Z 10052d45 f i libucrt:argv_wildcards.obj
 0001:00051d7d       ??$find_first_file_ex@ABQA_WW4_FINDEX_INFO_LEVELS@@PAU_WIN32_FIND_DATAW@@W4_FINDEX_SEARCH_OPS@@$$TH@?$__crt_char_traits@_W@@SAPAXABQA_W$$QAW4_FINDEX_INFO_LEVELS@@$$QAPAU_WIN32_FIND_DATAW@@$$QAW4_FINDEX_SEARCH_OPS@@$$QA$$T$$QAH@Z 10052d7d f i libucrt:argv_wildcards.obj
 0001:00051db2       ??$find_next_file@PAXPAU_WIN32_FIND_DATAA@@@?$__crt_char_traits@D@@SAH$$QAPAX$$QAPAU_WIN32_FIND_DATAA@@@Z 10052db2 f i libucrt:argv_wildcards.obj
 0001:00051dd0       ??$find_next_file@PAXPAU_WIN32_FIND_DATAW@@@?$__crt_char_traits@_W@@SAH$$QAPAX$$QAPAU_WIN32_FIND_DATAW@@@Z 10052dd0 f i libucrt:argv_wildcards.obj
 0001:00051dec       ??$tcsncpy_s@AAPADIAAPADABI@?$__crt_char_traits@D@@SAHAAPAD$$QAI0ABI@Z 10052dec f i libucrt:argv_wildcards.obj
 0001:00051e17       ??$tcsncpy_s@AAPA_WIAAPA_WABI@?$__crt_char_traits@_W@@SAHAAPA_W$$QAI0ABI@Z 10052e17 f i libucrt:argv_wildcards.obj
 0001:00051e42       ??$tcsncpy_s@PADABIABQBDABI@?$__crt_char_traits@D@@SAH$$QAPADABIABQBD1@Z 10052e42 f i libucrt:argv_wildcards.obj
 0001:00051e6d       ??$tcsncpy_s@PADIABQBDABI@?$__crt_char_traits@D@@SAH$$QAPAD$$QAIABQBDABI@Z 10052e6d f i libucrt:argv_wildcards.obj
 0001:00051e98       ??$tcsncpy_s@PA_WABIABQB_WABI@?$__crt_char_traits@_W@@SAH$$QAPA_WABIABQB_W1@Z 10052e98 f i libucrt:argv_wildcards.obj
 0001:00051ec3       ??$tcsncpy_s@PA_WIABQB_WABI@?$__crt_char_traits@_W@@SAH$$QAPA_W$$QAIABQB_WABI@Z 10052ec3 f i libucrt:argv_wildcards.obj
 0001:00051eee       ??$tcspbrk@AAPADAAY02$$CBD@?$__crt_char_traits@D@@SAPADAAPADAAY02$$CBD@Z 10052eee f i libucrt:argv_wildcards.obj
 0001:00051f09       ??$tcspbrk@AAPA_WAAY02$$CB_W@?$__crt_char_traits@_W@@SAPA_WAAPA_WAAY02$$CB_W@Z 10052f09 f i libucrt:argv_wildcards.obj
 0001:00051f24       ??0?$__crt_unique_handle_t@U__crt_findfile_traits@@@@QAE@QAX@Z 10052f24 f i libucrt:argv_wildcards.obj
 0001:00051f58       ??1?$__crt_unique_handle_t@U__crt_findfile_traits@@@@QAE@XZ 10052f58 f i libucrt:argv_wildcards.obj
 0001:00052102       ?close@?$__crt_unique_handle_t@U__crt_findfile_traits@@@@QAEXXZ 10053102 f i libucrt:argv_wildcards.obj
 0001:0005211e       ?close@__crt_findfile_traits@@SA_NPAX@Z 1005311e f i libucrt:argv_wildcards.obj
 0001:00052290       ?get@?$__crt_unique_handle_t@U__crt_findfile_traits@@@@QBEPAXXZ 10053290 f i libucrt:argv_wildcards.obj
 0001:00052293       ?get_invalid_value@__crt_findfile_traits@@SAPAXXZ 10053293 f i libucrt:argv_wildcards.obj
 0001:000522ca       ?strpbrk@@YAPADQADQBD@Z    100532ca f i libucrt:argv_wildcards.obj
 0001:000522d7       ?wcspbrk@@YAPA_WPA_WPB_W@Z 100532d7 f i libucrt:argv_wildcards.obj
 0001:000522e4       ___acrt_expand_narrow_argv_wildcards 100532e4 f   libucrt:argv_wildcards.obj
 0001:000522f1       ___acrt_expand_wide_argv_wildcards 100532f1 f   libucrt:argv_wildcards.obj
 0001:00052383       ??$initialize_from_array@$$BY10BAA@E@?$dual_state_global@PAE@__crt_state_management@@QAAXAAY10BAA@E@Z 10053383 f i libucrt:mbctype.obj
 0001:00052395       ??$initialize_from_array@$$BY10BAB@E@?$dual_state_global@PAE@__crt_state_management@@QAAXAAY10BAB@E@Z 10053395 f i libucrt:mbctype.obj
 0001:000524f4       ?dangerous_get_state_array@?$dual_state_global@PAE@__crt_state_management@@QAEPAPAEXZ 100534f4 f i libucrt:mbctype.obj
 0001:000524f7       ?dangerous_get_state_array@?$dual_state_global@PAU__crt_multibyte_data@@@__crt_state_management@@QAEPAPAU__crt_multibyte_data@@XZ 100534f7 f i libucrt:mbctype.obj
 0001:00052589       ?initialize@?$dual_state_global@PAU__crt_multibyte_data@@@__crt_state_management@@QAEXQAU__crt_multibyte_data@@@Z 10053589 f i libucrt:mbctype.obj
 0001:00052a78       ?value@?$dual_state_global@PAE@__crt_state_management@@QAEAAPAEXZ 10053a78 f i libucrt:mbctype.obj
 0001:00052a7b       ___acrt_initialize_multibyte 10053a7b f   libucrt:mbctype.obj
 0001:00052ad5       ___acrt_update_thread_multibyte_data 10053ad5 f   libucrt:mbctype.obj
 0001:00052aec       ___p__mbcasemap            10053aec f   libucrt:mbctype.obj
 0001:00052af2       ___p__mbctype              10053af2 f   libucrt:mbctype.obj
 0001:00052af8       __getmbcp                  10053af8 f   libucrt:mbctype.obj
 0001:00052b3b       __setmbcp                  10053b3b f   libucrt:mbctype.obj
 0001:00052b61       __setmbcp_nolock           10053b61 f   libucrt:mbctype.obj
 0001:00052eea       __ismbbalnum               10053eea f   libucrt:ismbbyte.obj
 0001:00052f0b       __ismbbalnum_l             10053f0b f   libucrt:ismbbyte.obj
 0001:00052f2e       __ismbbalpha               10053f2e f   libucrt:ismbbyte.obj
 0001:00052f4f       __ismbbalpha_l             10053f4f f   libucrt:ismbbyte.obj
 0001:00052f72       __ismbbblank               10053f72 f   libucrt:ismbbyte.obj
 0001:00052f9d       __ismbbblank_l             10053f9d f   libucrt:ismbbyte.obj
 0001:00052fca       __ismbbgraph               10053fca f   libucrt:ismbbyte.obj
 0001:00052feb       __ismbbgraph_l             10053feb f   libucrt:ismbbyte.obj
 0001:0005300e       __ismbbkalnum              1005400e f   libucrt:ismbbyte.obj
 0001:0005302c       __ismbbkalnum_l            1005402c f   libucrt:ismbbyte.obj
 0001:0005304b       __ismbbkana                1005404b f   libucrt:ismbbyte.obj
 0001:00053062       __ismbbkana_l              10054062 f   libucrt:ismbbyte.obj
 0001:000530c7       __ismbbkprint              100540c7 f   libucrt:ismbbyte.obj
 0001:000530e5       __ismbbkprint_l            100540e5 f   libucrt:ismbbyte.obj
 0001:00053104       __ismbbkpunct              10054104 f   libucrt:ismbbyte.obj
 0001:00053122       __ismbbkpunct_l            10054122 f   libucrt:ismbbyte.obj
 0001:00053141       __ismbblead                10054141 f   libucrt:ismbbyte.obj
 0001:0005315f       __ismbblead_l              1005415f f   libucrt:ismbbyte.obj
 0001:0005317e       __ismbbprint               1005417e f   libucrt:ismbbyte.obj
 0001:0005319f       __ismbbprint_l             1005419f f   libucrt:ismbbyte.obj
 0001:000531c2       __ismbbpunct               100541c2 f   libucrt:ismbbyte.obj
 0001:000531e0       __ismbbpunct_l             100541e0 f   libucrt:ismbbyte.obj
 0001:000531ff       __ismbbtrail               100541ff f   libucrt:ismbbyte.obj
 0001:0005321d       __ismbbtrail_l             1005421d f   libucrt:ismbbyte.obj
 0001:0005323c       ___acrt_initialize_command_line 1005423c f   libucrt:argv_data.obj
 0001:0005325b       ___acrt_uninitialize_command_line 1005425b f   libucrt:argv_data.obj
 0001:0005325e       ___p___argc                1005425e f   libucrt:argv_data.obj
 0001:00053264       ___p___argv                10054264 f   libucrt:argv_data.obj
 0001:0005326a       ___p___wargv               1005426a f   libucrt:argv_data.obj
 0001:00053270       ___p__acmdln               10054270 f   libucrt:argv_data.obj
 0001:00053276       ___p__pgmptr               10054276 f   libucrt:argv_data.obj
 0001:0005327c       ___p__wcmdln               1005427c f   libucrt:argv_data.obj
 0001:00053282       ___p__wpgmptr              10054282 f   libucrt:argv_data.obj
 0001:00053288       __get_pgmptr               10054288 f   libucrt:argv_data.obj
 0001:000532c5       __get_wpgmptr              100542c5 f   libucrt:argv_data.obj
 0001:00053380       ___acrt_WideCharToMultiByte 10054380 f   libucrt:widechartomultibyte.obj
 0001:00053512       ___dcrt_get_narrow_environment_from_os 10054512 f   libucrt:get_environment_from_os.obj
 0001:000535b9       ___dcrt_get_wide_environment_from_os 100545b9 f   libucrt:get_environment_from_os.obj
 0001:00053ebd       ??$get_or_create_environment_nolock@$$V@?$__crt_char_traits@D@@SAPAPADXZ 10054ebd f i libucrt:setenv.obj
 0001:00053ec2       ??$get_or_create_environment_nolock@$$V@?$__crt_char_traits@_W@@SAPAPA_WXZ 10054ec2 f i libucrt:setenv.obj
 0001:00053ec7       ??$set_environment_variable@ABQADQAD@?$__crt_char_traits@D@@SAHABQAD$$QBQAD@Z 10054ec7 f i libucrt:setenv.obj
 0001:00053ee5       ??$set_environment_variable@ABQA_WQA_W@?$__crt_char_traits@_W@@SAHABQA_W$$QBQA_W@Z 10054ee5 f i libucrt:setenv.obj
 0001:00053f01       ??$tcschr@ABQADD@?$__crt_char_traits@D@@SAPADABQAD$$QAD@Z 10054f01 f i libucrt:setenv.obj
 0001:00053f21       ??$tcschr@ABQA_WD@?$__crt_char_traits@_W@@SAPA_WABQA_W$$QAD@Z 10054f21 f i libucrt:setenv.obj
 0001:00053f46       ??$tcscpy_s@AAPADABIAAPAD@?$__crt_char_traits@D@@SAHAAPADABI0@Z 10054f46 f i libucrt:setenv.obj
 0001:00053f6b       ??$tcscpy_s@AAPA_WABIAAPA_W@?$__crt_char_traits@_W@@SAHAAPA_WABI0@Z 10054f6b f i libucrt:setenv.obj
 0001:00053f90       ??$tcscpy_s@ABQADABIABQAD@?$__crt_char_traits@D@@SAHABQADABI0@Z 10054f90 f i libucrt:setenv.obj
 0001:00053fb5       ??$tcscpy_s@ABQA_WABIABQA_W@?$__crt_char_traits@_W@@SAHABQA_WABI0@Z 10054fb5 f i libucrt:setenv.obj
 0001:00053fda       ??$tcsnicoll@ABQBDAAPADABI@?$__crt_char_traits@D@@SAHABQBDAAPADABI@Z 10054fda f i libucrt:setenv.obj
 0001:00053fff       ??$tcsnicoll@ABQB_WAAPA_WABI@?$__crt_char_traits@_W@@SAHABQB_WAAPA_WABI@Z 10054fff f i libucrt:setenv.obj
 0001:00054048       ?strchr@@YAPADQADH@Z       10055048 f i libucrt:setenv.obj
 0001:00054055       ?wcschr@@YAPA_WPA_W_W@Z    10055055 f i libucrt:setenv.obj
 0001:00054062       ___dcrt_set_variable_in_narrow_environment_nolock 10055062 f   libucrt:setenv.obj
 0001:0005406f       ___dcrt_set_variable_in_wide_environment_nolock 1005506f f   libucrt:setenv.obj
 0001:0005407c       __recalloc                 1005507c f   libucrt:recalloc.obj
 0001:00054089       __recalloc_base            10055089 f   libucrt:recalloc.obj
 0001:00054111       ___acrt_getheap            10055111 f   libucrt:heap_handle.obj
 0001:00054117       ___acrt_initialize_heap    10055117 f   libucrt:heap_handle.obj
 0001:0005412c       ___acrt_uninitialize_heap  1005512c f   libucrt:heap_handle.obj
 0001:00054138       __get_heap_handle          10055138 f   libucrt:heap_handle.obj
 0001:0005413e       ___acrt_execute_initializers 1005513e f   libucrt:shared_initialization.obj
 0001:000541e1       ___acrt_execute_uninitializers 100551e1 f   libucrt:shared_initialization.obj
 0001:0005423b       ??$?B$$A6AHI@Z@__crt_fast_encoded_nullptr_t@@QBEP6AHI@ZXZ 1005523b f i libucrt:new_handler.obj
 0001:00054259       ??$__crt_fast_decode_pointer@P6AHI@Z@@YAP6AHI@ZQ6AHI@Z@Z 10055259 f i libucrt:new_handler.obj
 0001:00054274       ??$__crt_fast_encode_pointer@P6AHI@Z@@YAP6AHI@ZQ6AHI@Z@Z 10055274 f i libucrt:new_handler.obj
 0001:0005429a       ?_set_new_handler@@YAP6AHI@ZH@Z 1005529a f   libucrt:new_handler.obj
 0001:000542c0       ?initialize@?$dual_state_global@P6AHI@Z@__crt_state_management@@QAEXQ6AHI@Z@Z 100552c0 f i libucrt:new_handler.obj
 0001:000542ef       ?value@?$dual_state_global@P6AHI@Z@__crt_state_management@@QAEAAP6AHI@ZXZ 100552ef f i libucrt:new_handler.obj
 0001:000542f2       ___acrt_initialize_new_handler 100552f2 f   libucrt:new_handler.obj
 0001:00054304       __callnewh                 10055304 f   libucrt:new_handler.obj
 0001:00054359       __query_new_handler        10055359 f   libucrt:new_handler.obj
 0001:000543bf       __set_new_handler          100553bf f   libucrt:new_handler.obj
 0001:00054437       ___pctype_func             10055437 f   libucrt:ctype.obj
 0001:00054466       ___pwctype_func            10055466 f   libucrt:ctype.obj
 0001:0005446c       __iswctype_l               1005546c f   libucrt:iswctype.obj
 0001:00054485       _iswctype                  10055485 f   libucrt:iswctype.obj
 0001:0005450a       __isctype                  1005550a f   libucrt:isctype.obj
 0001:00054548       __isctype_l                10055548 f   libucrt:isctype.obj
 0001:00054656       ?value@?$dual_state_global@J@__crt_state_management@@QAEAAJXZ 10055656 f i libucrt:new_mode.obj
 0001:00054659       __query_new_mode           10055659 f   libucrt:new_mode.obj
 0001:0005465f       __set_new_mode             1005565f f   libucrt:new_mode.obj
 0001:00054798       _wcsncpy_s                 10055798 f   libucrt:wcsncpy_s.obj
 0001:000549b3       __mbstowcs_l               100559b3 f   libucrt:mbstowcs.obj
 0001:000549c0       __mbstowcs_s_l             100559c0 f   libucrt:mbstowcs.obj
 0001:00054ada       _mbstowcs                  10055ada f   libucrt:mbstowcs.obj
 0001:00054b0e       _mbstowcs_s                10055b0e f   libucrt:mbstowcs.obj
 0001:00054b36       ___acrt_OutputDebugStringA@4 10055b36 f   libucrt:outputdebugstringa.obj
 0001:00054d73       __commit                   10055d73 f   libucrt:commit.obj
 0001:00054fbd       ___acrt_DownlevelLCIDToLocaleName 10055fbd f   libucrt:lcidtoname_downlevel.obj
 0001:00055091       ___acrt_DownlevelLocaleNameToLCID 10056091 f   libucrt:lcidtoname_downlevel.obj
 0001:000550c8       ??$?RU__crt_lowio_handle_data@@@__crt_internal_free_policy@@QBEXQBU__crt_lowio_handle_data@@@Z 100560c8 f i libucrt:osfinfo.obj
 0001:000550de       ??0?$__crt_unique_heap_ptr@U__crt_lowio_handle_data@@U__crt_internal_free_policy@@@@QAE@QAU__crt_lowio_handle_data@@@Z 100560de f i libucrt:osfinfo.obj
 0001:000550f2       ??1?$__crt_unique_heap_ptr@U__crt_lowio_handle_data@@U__crt_internal_free_policy@@@@QAE@XZ 100560f2 f i libucrt:osfinfo.obj
 0001:00055108       ??B?$__crt_unique_heap_ptr@U__crt_lowio_handle_data@@U__crt_internal_free_policy@@@@QBE_NXZ 10056108 f i libucrt:osfinfo.obj
 0001:0005510f       ?detach@?$__crt_unique_heap_ptr@U__crt_lowio_handle_data@@U__crt_internal_free_policy@@@@QAEPAU__crt_lowio_handle_data@@XZ 1005610f f i libucrt:osfinfo.obj
 0001:00055115       ?get@?$__crt_unique_heap_ptr@U__crt_lowio_handle_data@@U__crt_internal_free_policy@@@@QBEPAU__crt_lowio_handle_data@@XZ 10056115 f i libucrt:osfinfo.obj
 0001:00055118       ?is_valid@?$__crt_unique_heap_ptr@U__crt_lowio_handle_data@@U__crt_internal_free_policy@@@@QBE_NXZ 10056118 f i libucrt:osfinfo.obj
 0001:0005511f       ?release@?$__crt_unique_heap_ptr@U__crt_lowio_handle_data@@U__crt_internal_free_policy@@@@QAEXXZ 1005611f f i libucrt:osfinfo.obj
 0001:00055135       ___acrt_lowio_create_handle_array 10056135 f   libucrt:osfinfo.obj
 0001:000551cd       ___acrt_lowio_destroy_handle_array 100561cd f   libucrt:osfinfo.obj
 0001:0005520f       ___acrt_lowio_ensure_fh_exists 1005620f f   libucrt:osfinfo.obj
 0001:000552c8       ___acrt_lowio_lock_fh      100562c8 f   libucrt:osfinfo.obj
 0001:000552f3       ___acrt_lowio_set_os_handle 100562f3 f   libucrt:osfinfo.obj
 0001:000553ac       ___acrt_lowio_unlock_fh    100563ac f   libucrt:osfinfo.obj
 0001:000553d7       __alloc_osfhnd             100563d7 f   libucrt:osfinfo.obj
 0001:00055522       __free_osfhnd              10056522 f   libucrt:osfinfo.obj
 0001:000555d7       __get_osfhandle            100565d7 f   libucrt:osfinfo.obj
 0001:0005565b       __open_osfhandle           1005665b f   libucrt:osfinfo.obj
 0001:000557aa       __wcsnicmp                 100567aa f   libucrt:wcsnicmp.obj
 0001:00055887       __wcsnicmp_l               10056887 f   libucrt:wcsnicmp.obj
 0001:000559c3       __strnicmp                 100569c3 f   libucrt:strnicmp.obj
 0001:00055a4b       __strnicmp_l               10056a4b f   libucrt:strnicmp.obj
 0001:00055bd4       ??$__vcrt_va_start_verify_argument_type@$$CBH@@YAXXZ 10056bd4 f i libucrt:open.obj
 0001:00055f45       ??$tsopen_nolock@PAHABQAHABQBDABHABHABHABH@?$__crt_char_traits@D@@SAH$$QAPAHABQAHABQBDABH333@Z 10056f45 f i libucrt:open.obj
 0001:00055f83       ??$tsopen_nolock@PAHABQAHABQB_WABHABHABHABH@?$__crt_char_traits@_W@@SAH$$QAPAHABQAHABQB_WABH333@Z 10056f83 f i libucrt:open.obj
 0001:00055fc1       ??$tsopen_nolock@PAHPAHABQBDABHHABHH@?$__crt_char_traits@D@@SAH$$QAPAH0ABQBDABH$$QAH23@Z 10056fc1 f i libucrt:open.obj
 0001:00055fff       ??$tsopen_nolock@PAHPAHABQB_WABHHABHH@?$__crt_char_traits@_W@@SAH$$QAPAH0ABQB_WABH$$QAH23@Z 10056fff f i libucrt:open.obj
 0001:000567f1       __open                     100577f1 f   libucrt:open.obj
 0001:0005680f       __sopen                    1005780f f   libucrt:open.obj
 0001:00056851       __sopen_dispatch           10057851 f   libucrt:open.obj
 0001:0005685e       __sopen_nolock             1005785e f   libucrt:open.obj
 0001:000568ea       __sopen_s                  100578ea f   libucrt:open.obj
 0001:00056912       __wopen                    10057912 f   libucrt:open.obj
 0001:00056930       __wsopen                   10057930 f   libucrt:open.obj
 0001:00056972       __wsopen_dispatch          10057972 f   libucrt:open.obj
 0001:0005697f       __wsopen_nolock            1005797f f   libucrt:open.obj
 0001:00056d76       __wsopen_s                 10057d76 f   libucrt:open.obj
 0001:00056d9e       ___p__commode              10057d9e f   libucrt:ncommode.obj
 0001:00056da4       __isatty                   10057da4 f   libucrt:isatty.obj
 0001:00056e0f       ___acrt_stdio_allocate_buffer_nolock 10057e0f f   libucrt:_getbuf.obj
 0001:00056f8b       __putwch                   10057f8b f   libucrt:putwch.obj
 0001:00056fc5       __putwch_nolock            10057fc5 f   libucrt:putwch.obj
 0001:00057006       ___acrt_add_locale_ref     10058006 f   libucrt:locale_refcounting.obj
 0001:000570a2       ___acrt_free_locale        100580a2 f   libucrt:locale_refcounting.obj
 0001:0005723e       ___acrt_locale_add_lc_time_reference 1005823e f   libucrt:locale_refcounting.obj
 0001:00057271       ___acrt_locale_free_lc_time_if_unreferenced 10058271 f   libucrt:locale_refcounting.obj
 0001:000572ad       ___acrt_locale_release_lc_time_reference 100582ad f   libucrt:locale_refcounting.obj
 0001:000572e0       ___acrt_release_locale_ref 100582e0 f   libucrt:locale_refcounting.obj
 0001:00057381       ___acrt_update_thread_locale_data 10058381 f   libucrt:locale_refcounting.obj
 0001:00057415       __updatetlocinfoEx_nolock  10058415 f   libucrt:locale_refcounting.obj
 0001:00057479       ??$?RG@__crt_internal_free_policy@@QBEXQBG@Z 10058479 f i libucrt:initctype.obj
 0001:0005748f       ??$?RJ@__crt_internal_free_policy@@QBEXQBJ@Z 1005848f f i libucrt:initctype.obj
 0001:000574a5       ??0?$__crt_unique_heap_ptr@GU__crt_internal_free_policy@@@@QAE@QAG@Z 100584a5 f i libucrt:initctype.obj
 0001:000574b9       ??0?$__crt_unique_heap_ptr@JU__crt_internal_free_policy@@@@QAE@QAJ@Z 100584b9 f i libucrt:initctype.obj
 0001:000574cd       ??1?$__crt_unique_heap_ptr@GU__crt_internal_free_policy@@@@QAE@XZ 100584cd f i libucrt:initctype.obj
 0001:000574e3       ??1?$__crt_unique_heap_ptr@JU__crt_internal_free_policy@@@@QAE@XZ 100584e3 f i libucrt:initctype.obj
 0001:000574f9       ?detach@?$__crt_unique_heap_ptr@GU__crt_internal_free_policy@@@@QAEPAGXZ 100584f9 f i libucrt:initctype.obj
 0001:000574ff       ?detach@?$__crt_unique_heap_ptr@JU__crt_internal_free_policy@@@@QAEPAJXZ 100584ff f i libucrt:initctype.obj
 0001:00057505       ?release@?$__crt_unique_heap_ptr@GU__crt_internal_free_policy@@@@QAEXXZ 10058505 f i libucrt:initctype.obj
 0001:0005751b       ?release@?$__crt_unique_heap_ptr@JU__crt_internal_free_policy@@@@QAEXXZ 1005851b f i libucrt:initctype.obj
 0001:00057531       ____lc_codepage_func       10058531 f   libucrt:initctype.obj
 0001:00057561       ____lc_collate_cp_func     10058561 f   libucrt:initctype.obj
 0001:00057591       ____lc_locale_name_func    10058591 f   libucrt:initctype.obj
 0001:000575c4       ____mb_cur_max_func        100585c4 f   libucrt:initctype.obj
 0001:000575f4       ____mb_cur_max_l_func      100585f4 f   libucrt:initctype.obj
 0001:00057613       ___acrt_locale_initialize_ctype 10058613 f   libucrt:initctype.obj
 0001:00057b54       ??$?RUlconv@@@__crt_internal_free_policy@@QBEXQBUlconv@@@Z 10058b54 f i libucrt:initmon.obj
 0001:00057b6a       ??0?$__crt_unique_heap_ptr@Ulconv@@U__crt_internal_free_policy@@@@QAE@QAUlconv@@@Z 10058b6a f i libucrt:initmon.obj
 0001:00057b7e       ??1?$__crt_unique_heap_ptr@Ulconv@@U__crt_internal_free_policy@@@@QAE@XZ 10058b7e f i libucrt:initmon.obj
 0001:00057b94       ?detach@?$__crt_unique_heap_ptr@Ulconv@@U__crt_internal_free_policy@@@@QAEPAUlconv@@XZ 10058b94 f i libucrt:initmon.obj
 0001:00057b9a       ?release@?$__crt_unique_heap_ptr@Ulconv@@U__crt_internal_free_policy@@@@QAEXXZ 10058b9a f i libucrt:initmon.obj
 0001:00057bb0       ___acrt_locale_free_monetary 10058bb0 f   libucrt:initmon.obj
 0001:00057ced       ___acrt_locale_initialize_monetary 10058ced f   libucrt:initmon.obj
 0001:000581da       ___acrt_locale_free_numeric 100591da f   libucrt:initnum.obj
 0001:0005825d       ___acrt_locale_initialize_numeric 1005925d f   libucrt:initnum.obj
 0001:00058538       ??$?RU__crt_lc_time_data@@@__crt_internal_free_policy@@QBEXQBU__crt_lc_time_data@@@Z 10059538 f i libucrt:inittime.obj
 0001:000585d8       ??0?$__crt_unique_heap_ptr@U__crt_lc_time_data@@U__crt_internal_free_policy@@@@QAE@QAU__crt_lc_time_data@@@Z 100595d8 f i libucrt:inittime.obj
 0001:000585ec       ??1?$__crt_unique_heap_ptr@U__crt_lc_time_data@@U__crt_internal_free_policy@@@@QAE@XZ 100595ec f i libucrt:inittime.obj
 0001:00058602       ??B?$__crt_unique_heap_ptr@U__crt_lc_time_data@@U__crt_internal_free_policy@@@@QBE_NXZ 10059602 f i libucrt:inittime.obj
 0001:00058609       ?detach@?$__crt_unique_heap_ptr@U__crt_lc_time_data@@U__crt_internal_free_policy@@@@QAEPAU__crt_lc_time_data@@XZ 10059609 f i libucrt:inittime.obj
 0001:00058655       ?get@?$__crt_unique_heap_ptr@U__crt_lc_time_data@@U__crt_internal_free_policy@@@@QBEPAU__crt_lc_time_data@@XZ 10059655 f i libucrt:inittime.obj
 0001:000589ee       ?is_valid@?$__crt_unique_heap_ptr@U__crt_lc_time_data@@U__crt_internal_free_policy@@@@QBE_NXZ 100599ee f i libucrt:inittime.obj
 0001:000589f5       ?release@?$__crt_unique_heap_ptr@U__crt_lc_time_data@@U__crt_internal_free_policy@@@@QAEXXZ 100599f5 f i libucrt:inittime.obj
 0001:00058a0b       ___acrt_locale_free_time   10059a0b f   libucrt:inittime.obj
 0001:00058b28       ___acrt_locale_initialize_time 10059b28 f   libucrt:inittime.obj
 0001:00058bc1       _wcscspn                   10059bc1 f   libucrt:wcscspn.obj
 0001:00058c32       _wcspbrk                   10059c32 f   libucrt:wcspbrk.obj
 0001:00058c93       __wcsicmp                  10059c93 f   libucrt:wcsicmp.obj
 0001:00058d44       __wcsicmp_l                10059d44 f   libucrt:wcsicmp.obj
 0001:00058e58       ??0?$__crt_scoped_stack_ptr@_W@@QAE@U?$__crt_scoped_stack_ptr_tag@_W@@@Z 10059e58 f i libucrt:getstringtypea.obj
 0001:00058e6c       ??0?$__crt_scoped_stack_ptr_tag@_W@@QAE@QA_W@Z 10059e6c f i libucrt:getstringtypea.obj
 0001:00058e80       ??1?$__crt_scoped_stack_ptr@_W@@QAE@XZ 10059e80 f i libucrt:getstringtypea.obj
 0001:00058e8b       ?get@?$__crt_scoped_stack_ptr@_W@@QBEPA_WXZ 10059e8b f i libucrt:getstringtypea.obj
 0001:00058e8e       __MallocaComputeSize       10059e8e f i libucrt:getstringtypea.obj
 0001:00058ea5       __MarkAllocaS              10059ea5 f i libucrt:getstringtypea.obj
 0001:00058ec0       ___acrt_GetStringTypeA     10059ec0 f   libucrt:getstringtypea.obj
 0001:00059006       __freea_crt                1005a006 f i libucrt:getstringtypea.obj
 0001:0005995d       ___acrt_get_qualified_locale 1005a95d f   libucrt:get_qualified_locale.obj
 0001:0005a54b       ___acrt_get_qualified_locale_downlevel 1005b54b f   libucrt:getqloc_downlevel.obj
 0001:0005a7bf       _localeconv                1005b7bf f   libucrt:localeconv.obj
 0001:0005a7f3       ___iswcsym                 1005b7f3 f i libucrt:_wctype.obj
 0001:0005a822       ___iswcsymf                1005b822 f i libucrt:_wctype.obj
 0001:0005a851       __isleadbyte_l             1005b851 f i libucrt:_wctype.obj
 0001:0005a898       __iswalnum_l               1005b898 f i libucrt:_wctype.obj
 0001:0005a8b3       __iswalpha_l               1005b8b3 f i libucrt:_wctype.obj
 0001:0005a8ce       __iswblank_l               1005b8ce f i libucrt:_wctype.obj
 0001:0005a8f2       __iswcntrl_l               1005b8f2 f i libucrt:_wctype.obj
 0001:0005a909       __iswcsym_l                1005b909 f i libucrt:_wctype.obj
 0001:0005a938       __iswcsymf_l               1005b938 f i libucrt:_wctype.obj
 0001:0005a967       __iswdigit_l               1005b967 f i libucrt:_wctype.obj
 0001:0005a97e       __iswgraph_l               1005b97e f i libucrt:_wctype.obj
 0001:0005a999       __iswlower_l               1005b999 f i libucrt:_wctype.obj
 0001:0005a9b0       __iswprint_l               1005b9b0 f i libucrt:_wctype.obj
 0001:0005a9cb       __iswpunct_l               1005b9cb f i libucrt:_wctype.obj
 0001:0005a9e2       __iswspace_l               1005b9e2 f i libucrt:_wctype.obj
 0001:0005a9f9       __iswupper_l               1005b9f9 f i libucrt:_wctype.obj
 0001:0005aa10       __iswxdigit_l              1005ba10 f i libucrt:_wctype.obj
 0001:0005aa2b       _isleadbyte                1005ba2b f i libucrt:_wctype.obj
 0001:0005aa42       _iswalnum                  1005ba42 f i libucrt:_wctype.obj
 0001:0005aa5d       _iswalpha                  1005ba5d f i libucrt:_wctype.obj
 0001:0005aa78       _iswascii                  1005ba78 f i libucrt:_wctype.obj
 0001:0005aa91       _iswblank                  1005ba91 f i libucrt:_wctype.obj
 0001:0005aab5       _iswcntrl                  1005bab5 f i libucrt:_wctype.obj
 0001:0005aacc       _iswdigit                  1005bacc f i libucrt:_wctype.obj
 0001:0005aae3       _iswgraph                  1005bae3 f i libucrt:_wctype.obj
 0001:0005aafe       _iswlower                  1005bafe f i libucrt:_wctype.obj
 0001:0005ab15       _iswprint                  1005bb15 f i libucrt:_wctype.obj
 0001:0005ab30       _iswpunct                  1005bb30 f i libucrt:_wctype.obj
 0001:0005ab47       _iswspace                  1005bb47 f i libucrt:_wctype.obj
 0001:0005ab5e       _iswupper                  1005bb5e f i libucrt:_wctype.obj
 0001:0005ab75       _iswxdigit                 1005bb75 f i libucrt:_wctype.obj
 0001:0005ab90       ??B?$__crt_scoped_stack_ptr@_W@@QBE_NXZ 1005bb90 f i libucrt:lcmapstringa.obj
 0001:0005adfe       ___acrt_LCMapStringA       1005bdfe f   libucrt:lcmapstringa.obj
 0001:0005ae92       ?__mbrtowc_utf8@__crt_mbstring@@YAIPA_WPBDIPAU_Mbstatet@@@Z 1005be92 f   libucrt:mbrtowc.obj
 0001:0005aee4       ?__mbsrtowcs_utf8@__crt_mbstring@@YAIPA_WPAPBDIPAU_Mbstatet@@@Z 1005bee4 f   libucrt:mbrtowc.obj
 0001:0005b401       _btowc                     1005c401 f   libucrt:mbrtowc.obj
 0001:0005b471       _mbrlen                    1005c471 f   libucrt:mbrtowc.obj
 0001:0005b4b2       _mbrtowc                   1005c4b2 f   libucrt:mbrtowc.obj
 0001:0005b519       _mbsrtowcs                 1005c519 f   libucrt:mbrtowc.obj
 0001:0005b526       _mbsrtowcs_s               1005c526 f   libucrt:mbrtowc.obj
 0001:0005b5f1       ___acrt_fp_strflt_to_string 1005c5f1 f   libucrt:_fptostr.obj
 0001:0005cf10       ??0big_integer@__crt_strtox@@QAE@ABU01@@Z 1005df10 f i libucrt:cfout.obj
 0001:0005cf50       ??0big_integer@__crt_strtox@@QAE@XZ 1005df50 f i libucrt:cfout.obj
 0001:0005cfb0       ??4big_integer@__crt_strtox@@QAEAAU01@ABU01@@Z 1005dfb0 f i libucrt:cfout.obj
 0001:0005cff0       ??8__crt_strtox@@YA_NABUbig_integer@0@0@Z 1005dff0 f i libucrt:cfout.obj
 0001:0005d040       ??9__crt_strtox@@YA_NABUbig_integer@0@0@Z 1005e040 f i libucrt:cfout.obj
 0001:0005d090       ?add_carry@__crt_strtox@@YAIAAIII@Z 1005e090 f i libucrt:cfout.obj
 0001:0005d0c0       ?add_multiply_carry@__crt_strtox@@YAIAAIIII@Z 1005e0c0 f i libucrt:cfout.obj
 0001:0005d0f0       ?bit_scan_reverse@__crt_strtox@@YAII@Z 1005e0f0 f i libucrt:cfout.obj
 0001:0005d120       ?count_sequential_high_zeroes@__crt_strtox@@YAII@Z 1005e120 f i libucrt:cfout.obj
 0001:0005d150       ?divide@__crt_strtox@@YA_KAAUbig_integer@1@ABU21@@Z 1005e150 f i libucrt:cfout.obj
 0001:0005d700       ?is_zero@__crt_strtox@@YA_NABUbig_integer@1@@Z 1005e700 f i libucrt:cfout.obj
 0001:0005d720       ?make_big_integer@__crt_strtox@@YA?AUbig_integer@1@_K@Z 1005e720 f i libucrt:cfout.obj
 0001:0005d750       ?make_big_integer_power_of_two@__crt_strtox@@YA?AUbig_integer@1@I@Z 1005e750 f i libucrt:cfout.obj
 0001:0005d7b0       ?multiply@__crt_strtox@@YA_NAAUbig_integer@1@ABU21@@Z 1005e7b0 f i libucrt:cfout.obj
 0001:0005dbc0       ?multiply@__crt_strtox@@YA_NAAUbig_integer@1@I@Z 1005ebc0 f i libucrt:cfout.obj
 0001:0005dcc0       ?multiply_64_32@__crt_strtox@@YA_K_KI@Z 1005ecc0 f i libucrt:cfout.obj
 0001:0005dce0       ?multiply_by_power_of_ten@__crt_strtox@@YA_NAAUbig_integer@1@I@Z 1005ece0 f i libucrt:cfout.obj
 0001:0005e350       ?multiply_core@__crt_strtox@@YAIQAIII@Z 1005f350 f i libucrt:cfout.obj
 0001:0005e3a0       ?shift_left@__crt_strtox@@YA_NAAUbig_integer@1@I@Z 1005f3a0 f i libucrt:cfout.obj
 0001:0005e54b       ___acrt_fltout             1005f54b f   libucrt:cfout.obj
 0001:0005fe36       _nextafter                 10060e36 f   libucrt:nextafter.obj
 0001:0005ff70       _qsort                     10060f70 f   libucrt:qsort.obj
 0001:000605a1       _strncpy_s                 100615a1 f   libucrt:strncpy_s.obj
 0001:000605b0       _strpbrk                   100615b0 f   libucrt:strpbrk.obj
 0001:00060600       ??$__acrt_convert_wcs_mbs@D_W$$A6AIPA_WPBDIPAU__crt_locale_pointers@@@ZU__crt_win32_buffer_internal_dynamic_resizing@@@@YAHQBDAAV?$__crt_win32_buffer@_WU__crt_win32_buffer_internal_dynamic_resizing@@@@A6AIPA_WPBDIPAU__crt_locale_pointers@@@Z4@Z 10061600 f i libucrt:findfirstfileexa.obj
 0001:000606c9       ??$__acrt_mbs_to_wcs@U__crt_win32_buffer_internal_dynamic_resizing@@@@YAHQBDAAV?$__crt_win32_buffer@_WU__crt_win32_buffer_internal_dynamic_resizing@@@@PAU__crt_locale_pointers@@@Z 100616c9 f i libucrt:findfirstfileexa.obj
 0001:000606ed       ?set_to_nullptr@?$__crt_win32_buffer@_WU__crt_win32_buffer_internal_dynamic_resizing@@@@QAEXXZ 100616ed f i libucrt:findfirstfileexa.obj
 0001:00060709       ___acrt_FindFirstFileExA   10061709 f   libucrt:findfirstfileexa.obj
 0001:00060788       ??$?0$0BAE@@?$__crt_win32_buffer@DU__crt_win32_buffer_no_resizing@@@@QAE@AAY0BAE@D@Z 10061788 f i libucrt:findnextfilea.obj
 0001:000607b7       ??$?0$0O@@?$__crt_win32_buffer@DU__crt_win32_buffer_no_resizing@@@@QAE@AAY0O@D@Z 100617b7 f i libucrt:findnextfilea.obj
 0001:000607e4       ??$__acrt_convert_wcs_mbs@_WD$$A6AIPADPB_WIPAU__crt_locale_pointers@@@ZU__crt_win32_buffer_no_resizing@@@@YAHQB_WAAV?$__crt_win32_buffer@DU__crt_win32_buffer_no_resizing@@@@A6AIPADPB_WIPAU__crt_locale_pointers@@@Z4@Z 100617e4 f i libucrt:findnextfilea.obj
 0001:000608ae       ??$__acrt_wcs_to_mbs@U__crt_win32_buffer_no_resizing@@@@YAHQB_WAAV?$__crt_win32_buffer@DU__crt_win32_buffer_no_resizing@@@@PAU__crt_locale_pointers@@@Z 100618ae f i libucrt:findnextfilea.obj
 0001:000608d2       ??1?$__crt_win32_buffer@DU__crt_win32_buffer_no_resizing@@@@QAE@XZ 100618d2 f i libucrt:findnextfilea.obj
 0001:000608df       ?_deallocate@?$__crt_win32_buffer@DU__crt_win32_buffer_no_resizing@@@@AAEXXZ 100618df f i libucrt:findnextfilea.obj
 0001:000608ec       ?allocate@?$__crt_win32_buffer@DU__crt_win32_buffer_no_resizing@@@@QAEHI@Z 100618ec f i libucrt:findnextfilea.obj
 0001:0006091c       ?allocate@__crt_win32_buffer_no_resizing@@SAHQAPAXIABV__crt_win32_buffer_empty_debug_info@@@Z 1006191c f i libucrt:findnextfilea.obj
 0001:0006092c       ?capacity@?$__crt_win32_buffer@DU__crt_win32_buffer_no_resizing@@@@QBEIXZ 1006192c f i libucrt:findnextfilea.obj
 0001:00060930       ?data@?$__crt_win32_buffer@DU__crt_win32_buffer_no_resizing@@@@QAEPADXZ 10061930 f i libucrt:findnextfilea.obj
 0001:00060934       ?deallocate@__crt_win32_buffer_no_resizing@@SAXQAXABV__crt_win32_buffer_empty_debug_info@@@Z 10061934 f i libucrt:findnextfilea.obj
 0001:00060935       ?debug_info@?$__crt_win32_buffer@DU__crt_win32_buffer_no_resizing@@@@QBEABV__crt_win32_buffer_empty_debug_info@@XZ 10061935 f i libucrt:findnextfilea.obj
 0001:00060938       ?set_to_nullptr@?$__crt_win32_buffer@DU__crt_win32_buffer_no_resizing@@@@QAEXXZ 10061938 f i libucrt:findnextfilea.obj
 0001:00060951       ?size@?$__crt_win32_buffer@DU__crt_win32_buffer_no_resizing@@@@QAEXI@Z 10061951 f i libucrt:findnextfilea.obj
 0001:00060963       ___acrt_FindNextFileA      10061963 f   libucrt:findnextfilea.obj
 0001:00060af4       __mbsdec                   10061af4 f   libucrt:mbsdec.obj
 0001:00060b10       __mbsdec_l                 10061b10 f   libucrt:mbsdec.obj
 0001:00060bd4       __wcsnicoll                10061bd4 f   libucrt:wcsnicol.obj
 0001:00060ccc       __wcsnicoll_l              10061ccc f   libucrt:wcsnicol.obj
 0001:00060e31       __strnicoll                10061e31 f   libucrt:strnicol.obj
 0001:00060e64       __strnicoll_l              10061e64 f   libucrt:strnicol.obj
 0001:00060f60       ___acrt_SetEnvironmentVariableA 10061f60 f   libucrt:setenvironmentvariablea.obj
 0001:0006102f       __msize                    1006202f f   libucrt:msize.obj
 0001:0006103c       __msize_base               1006203c f   libucrt:msize.obj
 0001:0006107b       ___acrt_GetStringTypeW     1006207b f   libucrt:getstringtypew.obj
 0001:0006109a       __towlower_l               1006209a f   libucrt:towlower.obj
 0001:00061195       _towlower                  10062195 f   libucrt:towlower.obj
 0001:000611b0       ___ascii_strnicmp          100621b0 f   libucrt:_strnicm.obj
 0001:00061229       ??$__crt_interlocked_read@H@@YAHPDH@Z 10062229 f i libucrt:setmode.obj
 0001:00061238       ?value@?$dual_state_global@H@__crt_state_management@@QAEAAHXZ 10062238 f i libucrt:setmode.obj
 0001:0006123b       __get_fmode                1006223b f   libucrt:setmode.obj
 0001:00061272       __set_fmode                10062272 f   libucrt:setmode.obj
 0001:000612be       __setmode                  100622be f   libucrt:setmode.obj
 0001:00061406       __setmode_nolock           10062406 f   libucrt:setmode.obj
 0001:00061697       __chsize                   10062697 f   libucrt:chsize.obj
 0001:000616ba       __chsize_nolock            100626ba f   libucrt:chsize.obj
 0001:000618af       __chsize_s                 100628af f   libucrt:chsize.obj
 0001:00061987       __umask                    10062987 f   libucrt:umask.obj
 0001:000619b5       __umask_s                  100629b5 f   libucrt:umask.obj
 0001:00061ad8       ___dcrt_lowio_ensure_console_output_initialized 10062ad8 f   libucrt:initcon.obj
 0001:00061afe       ___dcrt_terminate_console_output 10062afe f   libucrt:initcon.obj
 0001:00061b1a       ___dcrt_write_console      10062b1a f   libucrt:initcon.obj
 0001:00061c9d       ___acrt_GetLocaleInfoA     10062c9d f   libucrt:getlocaleinfoa.obj
 0001:00061ebb       ___strncnt                 10062ebb f   libucrt:strncnt.obj
 0001:00061ede       ?__mbrtoc32_utf8@__crt_mbstring@@YAIPA_UPBDIPAU_Mbstatet@@@Z 10062ede f   libucrt:mbrtoc32.obj
 0001:000620ff       ?reset_and_return@__crt_mbstring@@YAIIPAU_Mbstatet@@@Z 100630ff f i libucrt:mbrtoc32.obj
 0001:00062118       ?return_illegal_sequence@__crt_mbstring@@YAIPAU_Mbstatet@@@Z 10063118 f i libucrt:mbrtoc32.obj
 0001:0006213e       _mbrtoc32                  1006313e f   libucrt:mbrtoc32.obj
 0001:0006214b       _fegetenv                  1006314b f   libucrt:fegetenv.obj
 0001:0006216f       _fesetenv                  1006316f f   libucrt:fesetenv.obj
 0001:000621cf       _feholdexcept              100631cf f   libucrt:feholdexcept.obj
 0001:00062240       __CIlog10                  10063240 f   libucrt:log10_impl.obj
 0001:0006227b       __CIlog10_default          1006327b f   libucrt:log10_impl.obj
 0001:0006228f       __log10_default            1006328f     libucrt:log10_impl.obj
 0001:000623a0       _ceil                      100633a0 f   libucrt:ceil_pentium4.obj
 0001:000623e0       __ceil_pentium4            100633e0 f   libucrt:ceil_pentium4.obj
 0001:00062504       _nexttoward                10063504 f   libucrt:nexttoward.obj
 0001:00062a4c       __wcstombs_l               10063a4c f   libucrt:wcstombs.obj
 0001:00062a59       __wcstombs_s_l             10063a59 f   libucrt:wcstombs.obj
 0001:00062b59       _wcstombs                  10063b59 f   libucrt:wcstombs.obj
 0001:00062b79       _wcstombs_s                10063b79 f   libucrt:wcstombs.obj
 0001:00062ba1       ___acrt_CompareStringW     10063ba1 f   libucrt:comparestringw.obj
 0001:00062f38       ___acrt_CompareStringA     10063f38 f   libucrt:comparestringa.obj
 0001:00062f92       ___acrt_LCMapStringW       10063f92 f   libucrt:lcmapstringw.obj
 0001:00062fdf       ___p__fmode                10063fdf f   libucrt:txtmode.obj
 0001:00062fe5       ??$__acrt_fenv_shift_bits@W4__acrt_fenv_abstract_control@@@@YA?AW4__acrt_fenv_abstract_control@@W40@0I@Z 10063fe5 f i libucrt:_fenvutils.obj
 0001:00062ffb       ??$__acrt_fenv_shift_bits@W4__acrt_fenv_abstract_status@@@@YA?AW4__acrt_fenv_abstract_status@@W40@0I@Z 10063ffb f i libucrt:_fenvutils.obj
 0001:00063011       ??$__acrt_fenv_translate_bit@W4__acrt_fenv_abstract_control@@W4__acrt_fenv_machine_sse_control@@@@YA?AW4__acrt_fenv_abstract_control@@W4__acrt_fenv_machine_sse_control@@0W40@1@Z 10064011 f i libucrt:_fenvutils.obj
 0001:0006302f       ??$__acrt_fenv_translate_bit@W4__acrt_fenv_abstract_control@@W4__acrt_fenv_machine_x87_control@@@@YA?AW4__acrt_fenv_abstract_control@@W4__acrt_fenv_machine_x87_control@@0W40@1@Z 1006402f f i libucrt:_fenvutils.obj
 0001:0006304d       ??$__acrt_fenv_translate_bit@W4__acrt_fenv_abstract_status@@W4__acrt_fenv_machine_sse_status@@@@YA?AW4__acrt_fenv_abstract_status@@W4__acrt_fenv_machine_sse_status@@0W40@1@Z 1006404d f i libucrt:_fenvutils.obj
 0001:00063067       ??$__acrt_fenv_translate_bit@W4__acrt_fenv_abstract_status@@W4__acrt_fenv_machine_x87_status@@@@YA?AW4__acrt_fenv_abstract_status@@W4__acrt_fenv_machine_x87_status@@0W40@1@Z 10064067 f i libucrt:_fenvutils.obj
 0001:00063081       ??$__acrt_fenv_translate_bit@W4__acrt_fenv_machine_sse_control@@W4__acrt_fenv_abstract_control@@@@YA?AW4__acrt_fenv_machine_sse_control@@W4__acrt_fenv_abstract_control@@0W40@1@Z 10064081 f i libucrt:_fenvutils.obj
 0001:0006309d       ??$__acrt_fenv_translate_bit@W4__acrt_fenv_machine_sse_status@@W4__acrt_fenv_abstract_status@@@@YA?AW4__acrt_fenv_machine_sse_status@@W4__acrt_fenv_abstract_status@@0W40@1@Z 1006409d f i libucrt:_fenvutils.obj
 0001:000630b7       ??$__acrt_fenv_translate_bit@W4__acrt_fenv_machine_x87_control@@W4__acrt_fenv_abstract_control@@@@YA?AW4__acrt_fenv_machine_x87_control@@W4__acrt_fenv_abstract_control@@0W40@1@Z 100640b7 f i libucrt:_fenvutils.obj
 0001:000630d3       ??$__acrt_fenv_translate_bit@W4__acrt_fenv_machine_x87_status@@W4__acrt_fenv_abstract_status@@@@YA?AW4__acrt_fenv_machine_x87_status@@W4__acrt_fenv_abstract_status@@0W40@1@Z 100640d3 f i libucrt:_fenvutils.obj
 0001:000630ed       ??$__acrt_fenv_unshift_bits@W4__acrt_fenv_abstract_control@@@@YA?AW4__acrt_fenv_abstract_control@@W40@0I@Z 100640ed f i libucrt:_fenvutils.obj
 0001:00063103       ??$__acrt_fenv_unshift_bits@W4__acrt_fenv_abstract_status@@@@YA?AW4__acrt_fenv_abstract_status@@W40@0I@Z 10064103 f i libucrt:_fenvutils.obj
 0001:0006372e       ??I@YA?AW4__acrt_fenv_abstract_control@@W40@0@Z 1006472e f i libucrt:_fenvutils.obj
 0001:0006373e       ??I@YA?AW4__acrt_fenv_abstract_status@@W40@0@Z 1006473e f i libucrt:_fenvutils.obj
 0001:0006374e       ??I@YA?AW4__acrt_fenv_machine_sse_control@@W40@0@Z 1006474e f i libucrt:_fenvutils.obj
 0001:0006375e       ??I@YA?AW4__acrt_fenv_machine_sse_status@@W40@0@Z 1006475e f i libucrt:_fenvutils.obj
 0001:0006376e       ??I@YA?AW4__acrt_fenv_machine_x87_control@@W40@0@Z 1006476e f i libucrt:_fenvutils.obj
 0001:0006377e       ??I@YA?AW4__acrt_fenv_machine_x87_status@@W40@0@Z 1006477e f i libucrt:_fenvutils.obj
 0001:0006378e       ??U@YA?AW4__acrt_fenv_abstract_control@@W40@0@Z 1006478e f i libucrt:_fenvutils.obj
 0001:0006379e       ??U@YA?AW4__acrt_fenv_abstract_status@@W40@0@Z 1006479e f i libucrt:_fenvutils.obj
 0001:000637ae       ??U@YA?AW4__acrt_fenv_machine_sse_control@@W40@0@Z 100647ae f i libucrt:_fenvutils.obj
 0001:000637be       ??U@YA?AW4__acrt_fenv_machine_x87_control@@W40@0@Z 100647be f i libucrt:_fenvutils.obj
 0001:000637ce       ??_5@YAAAW4__acrt_fenv_abstract_control@@AAW40@W40@@Z 100647ce f i libucrt:_fenvutils.obj
 0001:000637e0       ??_5@YAAAW4__acrt_fenv_abstract_status@@AAW40@W40@@Z 100647e0 f i libucrt:_fenvutils.obj
 0001:000637f2       ??_5@YAAAW4__acrt_fenv_machine_sse_control@@AAW40@W40@@Z 100647f2 f i libucrt:_fenvutils.obj
 0001:00063807       ??_5@YAAAW4__acrt_fenv_machine_sse_status@@AAW40@W40@@Z 10064807 f i libucrt:_fenvutils.obj
 0001:00063819       ??_5@YAAAW4__acrt_fenv_machine_x87_control@@AAW40@W40@@Z 10064819 f i libucrt:_fenvutils.obj
 0001:0006382e       ??_5@YAAAW4__acrt_fenv_machine_x87_status@@AAW40@W40@@Z 1006482e f i libucrt:_fenvutils.obj
 0001:00063840       ?__acrt_fenv_shift_abstract_sse_control@@YA?AW4__acrt_fenv_abstract_control@@W41@@Z 10064840 f i libucrt:_fenvutils.obj
 0001:00063864       ?__acrt_fenv_shift_abstract_sse_status@@YA?AW4__acrt_fenv_abstract_status@@W41@@Z 10064864 f i libucrt:_fenvutils.obj
 0001:00063878       ?__acrt_fenv_shift_abstract_x87_control@@YA?AW4__acrt_fenv_abstract_control@@W41@@Z 10064878 f i libucrt:_fenvutils.obj
 0001:0006389c       ?__acrt_fenv_shift_abstract_x87_status@@YA?AW4__acrt_fenv_abstract_status@@W41@@Z 1006489c f i libucrt:_fenvutils.obj
 0001:000638b0       ?__acrt_fenv_unshift_abstract_sse_control@@YA?AW4__acrt_fenv_abstract_control@@W41@@Z 100648b0 f i libucrt:_fenvutils.obj
 0001:000638d6       ?__acrt_fenv_unshift_abstract_sse_status@@YA?AW4__acrt_fenv_abstract_status@@W41@@Z 100648d6 f i libucrt:_fenvutils.obj
 0001:000638ea       ?__acrt_fenv_unshift_abstract_x87_control@@YA?AW4__acrt_fenv_abstract_control@@W41@@Z 100648ea f i libucrt:_fenvutils.obj
 0001:00063910       ?__acrt_fenv_unshift_abstract_x87_status@@YA?AW4__acrt_fenv_abstract_status@@W41@@Z 10064910 f i libucrt:_fenvutils.obj
 0001:00063fc7       ___acrt_fenv_expand_round_control 10064fc7 f   libucrt:_fenvutils.obj
 0001:0006400a       ___acrt_fenv_get_common_round_control 1006500a f   libucrt:_fenvutils.obj
 0001:00064034       ___acrt_fenv_get_control   10065034 f   libucrt:_fenvutils.obj
 0001:000640d6       ___acrt_fenv_get_fp_status_word_from_exception_mask 100650d6 f   libucrt:_fenvutils.obj
 0001:000640f6       ___acrt_fenv_get_status    100650f6 f   libucrt:_fenvutils.obj
 0001:000641e8       ___acrt_fenv_set_control   100651e8 f   libucrt:_fenvutils.obj
 0001:0006426c       ___acrt_fenv_set_status    1006526c f   libucrt:_fenvutils.obj
 0001:00064538       ___control87_2             10065538 f   libucrt:ieee87.obj
 0001:00064b04       ___fpreset_sse2            10065b04 f   libucrt:ieee87.obj
 0001:00064d4d       __clearfp                  10065d4d f   libucrt:ieee87.obj
 0001:00064e65       __control87                10065e65 f   libucrt:ieee87.obj
 0001:00065223       __controlfp                10066223 f   libucrt:ieee87.obj
 0001:00065243       __fpreset                  10066243 f   libucrt:ieee87.obj
 0001:00065346       __set_controlfp            10066346 f   libucrt:ieee87.obj
 0001:000653dc       __statusfp                 100663dc f   libucrt:ieee87.obj
 0001:000654a0       __statusfp2                100664a0 f   libucrt:ieee87.obj
 0001:0006551e       ___acrt_initialize_sse2    1006651e f   libucrt:mathfcns.obj
 0001:00065532       __set_SSE2_enable          10066532 f   libucrt:mathfcns.obj
 0001:00065560       __CIlog10_pentium4         10066560 f   libucrt:log10_pentium4.obj
 0001:00065578       __log10_pentium4           10066578     libucrt:log10_pentium4.obj
 0001:000658c0       __fFEXP                    100668c0 f   libucrt:87tran.obj
 0001:00065917       __rtinfpopse               10066917     libucrt:87tran.obj
 0001:00065919       __rtinfnpopse              10066919     libucrt:87tran.obj
 0001:00065929       __fFLN                     10066929     libucrt:87tran.obj
 0001:000659de       __rtinfpop                 100669de     libucrt:87tran.obj
 0001:000659e0       __rtinfnpop                100669e0     libucrt:87tran.obj
 0001:000659f0       __rtforexpinf              100669f0 f   libucrt:87tran.obj
 0001:000659fd       __ffexpm1                  100669fd     libucrt:87tran.obj
 0001:00065b30       __trandisp1                10066b30 f   libucrt:87disp.obj
 0001:00065ba5       __trandisp2                10066ba5 f   libucrt:87disp.obj
 0001:00065c3f       __rttospopde               10066c3f     libucrt:87disp.obj
 0001:00065c44       __rttospop                 10066c44     libucrt:87disp.obj
 0001:00065c50       __rtnospop                 10066c50 f   libucrt:87disp.obj
 0001:00065c60       __rttosnpop                10066c60 f   libucrt:87disp.obj
 0001:00065c61       __rtnospopde               10066c61     libucrt:87disp.obj
 0001:00065c68       __rtzeropop                10066c68     libucrt:87disp.obj
 0001:00065c6a       __rtzeronpop               10066c6a     libucrt:87disp.obj
 0001:00065c70       __rtzerospop               10066c70 f   libucrt:87disp.obj
 0001:00065c7d       __rtonepop                 10066c7d     libucrt:87disp.obj
 0001:00065c80       __rtonenpop                10066c80 f   libucrt:87disp.obj
 0001:00065c90       __tosnan1                  10066c90 f   libucrt:87disp.obj
 0001:00065cc0       __nosnan2                  10066cc0 f   libucrt:87disp.obj
 0001:00065cd0       __tosnan2                  10066cd0 f   libucrt:87disp.obj
 0001:00065d00       __nan2                     10066d00 f   libucrt:87disp.obj
 0001:00065d40       __rtindfpop                10066d40 f   libucrt:87disp.obj
 0001:00065d42       __rtindfnpop               10066d42     libucrt:87disp.obj
 0001:00065d53       __rttosnpopde              10066d53     libucrt:87disp.obj
 0001:00065d60       __rtatan2inf               10066d60 f   libucrt:87disp.obj
 0001:00065d7d       __rtchsifneg               10066d7d     libucrt:87disp.obj
 0001:00065e19       ___setfflag                10066e19 f   libucrt:fp_flags.obj
 0001:00065e40       __twoToTOS                 10066e40 f   libucrt:common.obj
 0001:00065e55       __load_CW                  10066e55 f   libucrt:common.obj
 0001:00065e6c       __convertTOStoQNaN         10066e6c f   libucrt:common.obj
 0001:00065e85       __fload_withFB             10066e85 f   libucrt:common.obj
 0001:00065ec8       __checkTOS_withFB          10066ec8 f   libucrt:common.obj
 0001:00065ede       __fast_exit                10066ede f   libucrt:common.obj
 0001:00065eeb       __math_exit                10066eeb f   libucrt:common.obj
 0001:00065f15       __check_overflow_exit      10066f15 f   libucrt:common.obj
 0001:00065f29       __check_range_exit         10066f29 f   libucrt:common.obj
 0001:00066030       __startTwoArgErrorHandling 10067030 f   libucrt:genexcep.obj
 0001:00066047       __startOneArgErrorHandling 10067047 f   libucrt:genexcep.obj
 0001:00066097       ___libm_error_support      10067097 f   libucrt:libm_error.obj
 0001:00066335       ___libm_setusermatherr     10067335 f   libucrt:libm_error.obj
 0001:00066365       __ceil_default             10067365 f   libucrt:ceil.obj
 0001:000664e2       __d_int                    100674e2 f   libucrt:_test.obj
 0001:0006662c       __dtest                    1006762c f   libucrt:_test.obj
 0001:000666a9       __fd_int                   100676a9 f   libucrt:_test.obj
 0001:000667ab       __fdtest                   100677ab f   libucrt:_test.obj
 0001:0006680c       __fperrraise               1006780c f   libucrt:_test.obj
 0001:00066837       __ld_int                   10067837 f   libucrt:_test.obj
 0001:00066844       __ldtest                   10067844 f   libucrt:_test.obj
 0001:00066851       ?__wcsrtombs_utf8@__crt_mbstring@@YAIPADPAPB_WIPAU_Mbstatet@@@Z 10067851 f   libucrt:wcrtomb.obj
 0001:00066cfb       _wcrtomb                   10067cfb f   libucrt:wcrtomb.obj
 0001:00066d38       _wcrtomb_s                 10067d38 f   libucrt:wcrtomb.obj
 0001:00066dcf       _wcsrtombs                 10067dcf f   libucrt:wcrtomb.obj
 0001:00066ddc       _wcsrtombs_s               10067ddc f   libucrt:wcrtomb.obj
 0001:00066e9b       _wctob                     10067e9b f   libucrt:wcrtomb.obj
 0001:00066f0f       __controlfp_s              10067f0f f   libucrt:contrlfp.obj
 0001:00066f85       __d_inttype                10067f85 f   libucrt:powhlp.obj
 0001:00067009       __powhlp                   10068009 f   libucrt:powhlp.obj
 0001:0006717e       __87except                 1006817e f   libucrt:87except.obj
 0001:000672ca       __frnd                     100682ca f   libucrt:frnd.obj
 0001:000672e5       ??_4@YAAAW4__acrt_fenv_abstract_status@@AAW40@W40@@Z 100682e5 f i libucrt:fegetexceptflag.obj
 0001:000672f7       _fegetexceptflag           100682f7 f   libucrt:fegetexceptflag.obj
 0001:00067334       ??S@YA?AW4__acrt_fenv_abstract_status@@W40@@Z 10068334 f i libucrt:fesetexceptflag.obj
 0001:00067343       _fesetexceptflag           10068343 f   libucrt:fesetexceptflag.obj
 0001:000673b2       ?__c16rtomb_utf8@__crt_mbstring@@YAIPAD_SPAU_Mbstatet@@@Z 100683b2 f   libucrt:c16rtomb.obj
 0001:0006750a       _c16rtomb                  1006850a f   libucrt:c16rtomb.obj
 0001:00067517       _fetestexcept              10068517 f   libucrt:fetestexcept.obj
 0001:00067541       ?__c32rtomb_utf8@__crt_mbstring@@YAIPAD_UPAU_Mbstatet@@@Z 10068541 f   libucrt:c32rtomb.obj
 0001:0006761b       _c32rtomb                  1006861b f   libucrt:c32rtomb.obj
 0001:00067630       __FindPESection            10068630 f   LIBCMT:pesect.obj
 0001:00067690       __IsNonwritableInCurrentImage 10068690 f   LIBCMT:pesect.obj
 0001:00067780       __ValidateImageBase        10068780 f   LIBCMT:pesect.obj
 0001:000677bf       __EH_epilog3               100687bf f   LIBCMT:ehprolg3.obj
 0001:000677d9       __EH_epilog3_GS            100687d9 f   LIBCMT:ehprolg3.obj
 0001:000677ee       __EH_epilog3_catch_GS      100687ee f   LIBCMT:ehprolg3.obj
 0001:00067803       __EH_prolog3               10068803 f   LIBCMT:ehprolg3.obj
 0001:00067844       __EH_prolog3_GS            10068844 f   LIBCMT:ehprolg3.obj
 0001:00067888       __EH_prolog3_catch         10068888 f   LIBCMT:ehprolg3.obj
 0001:000678cc       __EH_prolog3_catch_GS      100688cc f   LIBCMT:ehprolg3.obj
 0001:00067920       __aulldvrm                 10068920 f   LIBCMT:ulldvrm.obj
 0001:000679da       ??1type_info@@UAE@XZ       100689da f   LIBCMT:std_type_info_static.obj
 0001:000679e1       ??_Gtype_info@@UAEPAXI@Z   100689e1 f i LIBCMT:std_type_info_static.obj
 0001:000679e1       ??_Etype_info@@UAEPAXI@Z   100689e1 f i LIBCMT:std_type_info_static.obj
 0001:00067a0c       ??3@YAXPAXI@Z              10068a0c f   LIBCMT:delete_scalar_size.obj
 0001:00067a20       __SEH_prolog4_GS           10068a20 f   LIBCMT:sehprolg4gs.obj
 0001:00067a69       __SEH_epilog4_GS           10068a69 f   LIBCMT:sehprolg4gs.obj
 0001:00067a90       __allmul                   10068a90 f   LIBCMT:llmul.obj
 0001:00067ae0       __alloca_probe             10068ae0 f   LIBCMT:chkstk.obj
 0001:00067ae0       __chkstk                   10068ae0 f   LIBCMT:chkstk.obj
 0001:00067b20       __alldvrm                  10068b20 f   LIBCMT:lldvrm.obj
 0001:00067c40       __aullshr                  10068c40 f   LIBCMT:ullshr.obj
 0001:00067c70       __alloca_probe_16          10068c70 f   LIBCMT:alloca16.obj
 0001:00067c86       __alloca_probe_8           10068c86     LIBCMT:alloca16.obj
 0001:00067cb0       __allshl                   10068cb0 f   LIBCMT:llshl.obj
 0001:00067ce0       __ftol2_sse                10068ce0 f   LIBCMT:ftol2.obj
 0001:00067ce9       __ftol2_pentium4           10068ce9 f   LIBCMT:ftol2.obj
 0001:00067cfc       __ftol2_sse_excpt          10068cfc f   LIBCMT:ftol2.obj
 0001:00067d20       __ftol2                    10068d20 f   LIBCMT:ftol2.obj
 0001:00067dc2       __initialize_default_precision 10068dc2 f   LIBCMT:default_precision.obj
 0001:00067deb       ??3@YAXPAX@Z               10068deb f   LIBCMT:delete_scalar.obj
 0001:00067df0       _InterlockedPushEntrySList@8 10068df0 f   kernel32:KERNEL32.dll
 0001:00067df6       _InterlockedFlushSList@4   10068df6 f   kernel32:KERNEL32.dll
 0001:00067dfc       _RtlUnwind@16              10068dfc f   kernel32:KERNEL32.dll
 0001:00067e02       _GetLastError@0            10068e02 f   kernel32:KERNEL32.dll
 0001:00067e08       _SetLastError@4            10068e08 f   kernel32:KERNEL32.dll
 0001:00067e0e       _EnterCriticalSection@4    10068e0e f   kernel32:KERNEL32.dll
 0001:00067e14       _LeaveCriticalSection@4    10068e14 f   kernel32:KERNEL32.dll
 0001:00067e1a       _DeleteCriticalSection@4   10068e1a f   kernel32:KERNEL32.dll
 0001:00067e20       _InitializeCriticalSectionAndSpinCount@8 10068e20 f   kernel32:KERNEL32.dll
 0001:00067e26       _TlsAlloc@0                10068e26 f   kernel32:KERNEL32.dll
 0001:00067e2c       _TlsGetValue@4             10068e2c f   kernel32:KERNEL32.dll
 0001:00067e32       _TlsSetValue@8             10068e32 f   kernel32:KERNEL32.dll
 0001:00067e38       _TlsFree@4                 10068e38 f   kernel32:KERNEL32.dll
 0001:00067e3e       _FreeLibrary@4             10068e3e f   kernel32:KERNEL32.dll
 0001:00067e44       _LoadLibraryExW@12         10068e44 f   kernel32:KERNEL32.dll
 0001:00067e4a       _EncodePointer@4           10068e4a f   kernel32:KERNEL32.dll
 0001:00067e50       _RaiseException@16         10068e50 f   kernel32:KERNEL32.dll
 0001:00067e56       _GetStdHandle@4            10068e56 f   kernel32:KERNEL32.dll
 0001:00067e5c       _GetFileType@4             10068e5c f   kernel32:KERNEL32.dll
 0001:00067e62       _GetModuleFileNameW@12     10068e62 f   kernel32:KERNEL32.dll
 0001:00067e68       _GetModuleHandleExW@12     10068e68 f   kernel32:KERNEL32.dll
 0001:00067e6e       _WriteConsoleW@20          10068e6e f   kernel32:KERNEL32.dll
 0001:00067e74       _ExitProcess@4             10068e74 f   kernel32:KERNEL32.dll
 0001:00067e7a       _HeapAlloc@12              10068e7a f   kernel32:KERNEL32.dll
 0001:00067e80       _HeapFree@12               10068e80 f   kernel32:KERNEL32.dll
 0001:00067e86       _WriteFile@20              10068e86 f   kernel32:KERNEL32.dll
 0001:00067e8c       _OutputDebugStringW@4      10068e8c f   kernel32:KERNEL32.dll
 0001:00067e92       _SetConsoleCtrlHandler@8   10068e92 f   kernel32:KERNEL32.dll
 0001:00067e98       _HeapReAlloc@16            10068e98 f   kernel32:KERNEL32.dll
 0001:00067e9e       _GetDateFormatW@24         10068e9e f   kernel32:KERNEL32.dll
 0001:00067ea4       _GetTimeFormatW@24         10068ea4 f   kernel32:KERNEL32.dll
 0001:00067eaa       _CompareStringW@24         10068eaa f   kernel32:KERNEL32.dll
 0001:00067eb0       _LCMapStringW@24           10068eb0 f   kernel32:KERNEL32.dll
 0001:00067eb6       _GetLocaleInfoW@16         10068eb6 f   kernel32:KERNEL32.dll
 0001:00067ebc       _IsValidLocale@8           10068ebc f   kernel32:KERNEL32.dll
 0001:00067ec2       _GetUserDefaultLCID@0      10068ec2 f   kernel32:KERNEL32.dll
 0001:00067ec8       _EnumSystemLocalesW@8      10068ec8 f   kernel32:KERNEL32.dll
 0001:00067ece       _CloseHandle@4             10068ece f   kernel32:KERNEL32.dll
 0001:00067ed4       _ReadFile@20               10068ed4 f   kernel32:KERNEL32.dll
 0001:00067eda       _GetConsoleMode@8          10068eda f   kernel32:KERNEL32.dll
 0001:00067ee0       _ReadConsoleW@20           10068ee0 f   kernel32:KERNEL32.dll
 0001:00067ee6       _GetConsoleCP@0            10068ee6 f   kernel32:KERNEL32.dll
 0001:00067eec       _MultiByteToWideChar@24    10068eec f   kernel32:KERNEL32.dll
 0001:00067ef2       _GetCurrentThread@0        10068ef2 f   kernel32:KERNEL32.dll
 0001:00067ef8       _DeleteFileW@4             10068ef8 f   kernel32:KERNEL32.dll
 0001:00067efe       _SetFilePointerEx@20       10068efe f   kernel32:KERNEL32.dll
 0001:00067f04       _FindClose@4               10068f04 f   kernel32:KERNEL32.dll
 0001:00067f0a       _FindFirstFileExW@24       10068f0a f   kernel32:KERNEL32.dll
 0001:00067f10       _FindNextFileW@8           10068f10 f   kernel32:KERNEL32.dll
 0001:00067f16       _IsValidCodePage@4         10068f16 f   kernel32:KERNEL32.dll
 0001:00067f1c       _GetACP@0                  10068f1c f   kernel32:KERNEL32.dll
 0001:00067f22       _GetOEMCP@0                10068f22 f   kernel32:KERNEL32.dll
 0001:00067f28       _GetCPInfo@8               10068f28 f   kernel32:KERNEL32.dll
 0001:00067f2e       _GetCommandLineA@0         10068f2e f   kernel32:KERNEL32.dll
 0001:00067f34       _GetCommandLineW@0         10068f34 f   kernel32:KERNEL32.dll
 0001:00067f3a       _WideCharToMultiByte@32    10068f3a f   kernel32:KERNEL32.dll
 0001:00067f40       _GetEnvironmentStringsW@0  10068f40 f   kernel32:KERNEL32.dll
 0001:00067f46       _FreeEnvironmentStringsW@4 10068f46 f   kernel32:KERNEL32.dll
 0001:00067f4c       _SetEnvironmentVariableW@8 10068f4c f   kernel32:KERNEL32.dll
 0001:00067f52       _GetProcessHeap@0          10068f52 f   kernel32:KERNEL32.dll
 0001:00067f58       _FlushFileBuffers@4        10068f58 f   kernel32:KERNEL32.dll
 0001:00067f5e       _SetStdHandle@8            10068f5e f   kernel32:KERNEL32.dll
 0001:00067f64       _CreateFileW@28            10068f64 f   kernel32:KERNEL32.dll
 0001:00067f6a       _GetStringTypeW@16         10068f6a f   kernel32:KERNEL32.dll
 0001:00067f70       _HeapSize@12               10068f70 f   kernel32:KERNEL32.dll
 0001:00067f76       _SetEndOfFile@4            10068f76 f   kernel32:KERNEL32.dll
 0001:00067f7c       _DecodePointer@4           10068f7c f   kernel32:KERNEL32.dll
 0001:000680b3       _memcmp                    100690b3 f   libvcruntime:memcmp.obj
 0001:0006a5a0       _strrchr                   1006b5a0 f   libvcruntime:strrchr.obj
 0001:0006a724       _wcschr                    1006b724 f   libvcruntime:wcschr.obj
 0002:00000000       ___xc_a                    10070000     LIBCMT:initializers.obj
 0002:00000104       ___xc_z                    10070104     LIBCMT:initializers.obj
 0002:00000208       ___xi_a                    10070208     LIBCMT:initializers.obj
 0002:0000030c       ___acrt_stdio_initializer  1007030c     libucrt:stdio_initializer.obj
 0002:00000310       ___acrt_multibyte_initializer 10070310     libucrt:multibyte_initializer.obj
 0002:00000314       ___acrt_tran_sse2_initializer 10070314     libucrt:sse2_initializer.obj
 0002:0000041c       ___xi_z                    1007041c     LIBCMT:initializers.obj
 0002:00000520       ___xp_a                    10070520     LIBCMT:initializers.obj
 0002:00000624       ___acrt_locale_terminator  10070624     libucrt:locale_initializer.obj
 0002:00000628       ___dcrt_console_output_terminator 10070628     libucrt:console_output_initializer.obj
 0002:00000730       ___acrt_stdio_terminator   10070730     libucrt:stdio_initializer.obj
 0002:00000834       ___xp_z                    10070834     LIBCMT:initializers.obj
 0002:00000938       ___xt_a                    10070938     LIBCMT:initializers.obj
 0002:00000a3c       ___xt_z                    10070a3c     LIBCMT:initializers.obj
 0002:00000b40       _lettura_finecorsa_M       10070b40     lettura_finecorsa.obj
 0002:00000b44       ??_C@_0BC@OJJPBDHH@FixedStepDiscrete@ 10070b44     lettura_finecorsa.obj
 0002:00000b5c       ??_C@_04EPKDLPPB@tout@     10070b5c     lettura_finecorsa.obj
 0002:00000b62       ??_C@_00CNPNBAHC@@         10070b62     lettura_finecorsa.obj
 0002:00000b64       ??_C@_03HBFGMJOD@rt_@      10070b64     lettura_finecorsa.obj
 0002:00000b68       ??_C@_0N@EHDMGGGB@PCI?96229?5DO1@ 10070b68     lettura_finecorsa.obj
 0002:00000b78       ??_C@_0BP@IELECBAO@lettura_finecorsa?1PCI?96229?5DO1@ 10070b78     lettura_finecorsa.obj
 0002:00000ba0       ??_C@_0M@EBPEDDFK@PCI?96229?5DA@ 10070ba0     lettura_finecorsa.obj
 0002:00000bb0       ??_C@_0BO@MFDNPNKH@lettura_finecorsa?1PCI?96229?5DA@ 10070bb0     lettura_finecorsa.obj
 0002:00000bd4       ??_C@_0N@ENKCELGL@PCI?96229?5DA1@ 10070bd4     lettura_finecorsa.obj
 0002:00000be4       ??_C@_0BP@IOCKAMAE@lettura_finecorsa?1PCI?96229?5DA1@ 10070be4     lettura_finecorsa.obj
 0002:00000c0c       ??_C@_0O@LGELPGOG@PCI?56229?5ENC?5@ 10070c0c     lettura_finecorsa.obj
 0002:00000c1c       ??_C@_0CA@GLIFACGI@lettura_finecorsa?1PCI?56229?5ENC?5@ 10070c1c     lettura_finecorsa.obj
 0002:00000c44       ??_C@_0P@KEKPFIMK@PCI?56229?5ENC?52@ 10070c44     lettura_finecorsa.obj
 0002:00000c58       ??_C@_0CB@KOHCDIBJ@lettura_finecorsa?1PCI?56229?5ENC?5@ 10070c58     lettura_finecorsa.obj
 0002:00000c80       ??_C@_0P@IPICALAJ@PCI?56229?5ENC?51@ 10070c80     lettura_finecorsa.obj
 0002:00000c94       ??_C@_0CB@IFFPGLNK@lettura_finecorsa?1PCI?56229?5ENC?5@ 10070c94     lettura_finecorsa.obj
 0002:00000cbc       ??_C@_0P@LNLEGJIL@PCI?56229?5ENC?53@ 10070cbc     lettura_finecorsa.obj
 0002:00000cd0       ??_C@_0CB@LHGJAJFI@lettura_finecorsa?1PCI?56229?5ENC?5@ 10070cd0     lettura_finecorsa.obj
 0002:00000cf8       ??_C@_0M@IJCNLJFC@PCI?96229?5DI@ 10070cf8     lettura_finecorsa.obj
 0002:00000d08       ??_C@_0BO@NOEHHKP@lettura_finecorsa?1PCI?96229?5DI@ 10070d08     lettura_finecorsa.obj
 0002:00000d30       __real@3f50624dd2f1a9fc    10070d30     lettura_finecorsa.obj
 0002:00000d40       __real@41f0000000000000    10070d40     lettura_finecorsa.obj
 0002:00000d50       __real@bff0000000000000    10070d50     lettura_finecorsa.obj
 0002:00000d60       __xmm@00000000000000003f50624dd2f1a9fc 10070d60     lettura_finecorsa.obj
 0002:00000d80       __xmm@000000e00000001b0000003400000001 10070d80     lettura_finecorsa.obj
 0002:00000da0       __xmm@41f00000000000000000000000000000 10070da0     lettura_finecorsa.obj
 0002:00000db8       __real@3cb0000000000000    10070db8     rt_matrx.obj
 0002:00000dc8       __real@3fe0000000000000    10070dc8     rt_matrx.obj
 0002:00000dd8       __real@3ff0000000000000    10070dd8     rt_matrx.obj
 0002:00001a10       ??_C@_09IIHOELEE@Constant1@ 10071a10     lettura_finecorsa_capi.obj
 0002:00001a1c       ??_C@_09KDFDBIIH@Constant2@ 10071a1c     lettura_finecorsa_capi.obj
 0002:00001a28       ??_C@_09LKEICJMG@Constant3@ 10071a28     lettura_finecorsa_capi.obj
 0002:00001a34       ??_C@_04OMOMKKFL@Gain@     10071a34     lettura_finecorsa_capi.obj
 0002:00001a3c       ??_C@_0BD@EPFMCPOH@posizione?5motore?5x@ 10071a3c     lettura_finecorsa_capi.obj
 0002:00001a54       ??_C@_05DKAIGDGE@Gain1@    10071a54     lettura_finecorsa_capi.obj
 0002:00001a5c       ??_C@_0BF@HBPOPMFC@posizione?5carrello?5y@ 10071a5c     lettura_finecorsa_capi.obj
 0002:00001a78       ??_C@_05BBCFDAKH@Gain2@    10071a78     lettura_finecorsa_capi.obj
 0002:00001a80       ??_C@_0BD@FGEHBOKG@posizione?5motore?5y@ 10071a80     lettura_finecorsa_capi.obj
 0002:00001a98       ??_C@_05IDOABOG@Gain3@     10071a98     lettura_finecorsa_capi.obj
 0002:00001aa0       ??_C@_0BF@GIOFMNBD@posizione?5carrello?5x@ 10071aa0     lettura_finecorsa_capi.obj
 0002:00001abc       ??_C@_0BB@CMNBNJBK@pozione?5motore?5y@ 10071abc     lettura_finecorsa_capi.obj
 0002:00001ad0       ??_C@_0P@HFBNGDFJ@PCI?96229?5DI?1p1@ 10071ad0     lettura_finecorsa_capi.obj
 0002:00001ae4       ??_C@_0P@FODADAJK@PCI?96229?5DI?1p2@ 10071ae4     lettura_finecorsa_capi.obj
 0002:00001af8       ??_C@_0P@EHCLABNL@PCI?96229?5DI?1p3@ 10071af8     lettura_finecorsa_capi.obj
 0002:00001b0c       ??_C@_0P@IGKJHBM@PCI?96229?5DI?1p4@ 10071b0c     lettura_finecorsa_capi.obj
 0002:00001b20       ??_C@_0BJ@CPBFEPCF@Discrete?5Derivative?1Diff@ 10071b20     lettura_finecorsa_capi.obj
 0002:00001b40       ??_C@_0BK@BNNBMNBK@Discrete?5Derivative?1TSamp@ 10071b40     lettura_finecorsa_capi.obj
 0002:00001b60       ??_C@_0BH@MAOHMDCI@Discrete?5Derivative?1UD@ 10071b60     lettura_finecorsa_capi.obj
 0002:00001b7c       ??_C@_06CFNEEADJ@U?$CIk?91?$CJ@ 10071b7c     lettura_finecorsa_capi.obj
 0002:00001b84       ??_C@_0BK@EMGMOOMA@Discrete?5Derivative1?1Diff@ 10071b84     lettura_finecorsa_capi.obj
 0002:00001ba4       ??_C@_0BL@MNNCKCEM@Discrete?5Derivative1?1TSamp@ 10071ba4     lettura_finecorsa_capi.obj
 0002:00001bc4       ??_C@_0BI@GHNGGFGE@Discrete?5Derivative1?1UD@ 10071bc4     lettura_finecorsa_capi.obj
 0002:00001be0       ??_C@_0BK@HNIEPEFN@Discrete?5Derivative2?1Diff@ 10071be0     lettura_finecorsa_capi.obj
 0002:00001c00       ??_C@_0BL@EDFNKFKP@Discrete?5Derivative2?1TSamp@ 10071c00     lettura_finecorsa_capi.obj
 0002:00001c20       ??_C@_0BI@CAHGBPLE@Discrete?5Derivative2?1UD@ 10071c20     lettura_finecorsa_capi.obj
 0002:00001c3c       ??_C@_0BK@NLPDPPOJ@Discrete?5Derivative3?1Diff@ 10071c3c     lettura_finecorsa_capi.obj
 0002:00001c5c       ??_C@_0BL@IPPHKFDB@Discrete?5Derivative3?1TSamp@ 10071c5c     lettura_finecorsa_capi.obj
 0002:00001c7c       ??_C@_0BI@BNBGDGAE@Discrete?5Derivative3?1UD@ 10071c7c     lettura_finecorsa_capi.obj
 0002:00001c98       ??_C@_0BE@OCAEDHHH@Discrete?5Derivative@ 10071c98     lettura_finecorsa_capi.obj
 0002:00001cb0       ??_C@_0BC@DNAKAAEE@ICPrevScaledInput@ 10071cb0     lettura_finecorsa_capi.obj
 0002:00001cc8       ??_C@_0BF@INOOHBK@Discrete?5Derivative1@ 10071cc8     lettura_finecorsa_capi.obj
 0002:00001ce4       ??_C@_0BF@CDPDLENJ@Discrete?5Derivative2@ 10071ce4     lettura_finecorsa_capi.obj
 0002:00001d00       ??_C@_0BF@DKOIIFJI@Discrete?5Derivative3@ 10071d00     lettura_finecorsa_capi.obj
 0002:00001d1c       ??_C@_05LPIJGKJ@Value@     10071d1c     lettura_finecorsa_capi.obj
 0002:00001d24       ??_C@_02KKFPAPOP@P1@       10071d24     lettura_finecorsa_capi.obj
 0002:00001d28       ??_C@_02IBHCFMCM@P2@       10071d28     lettura_finecorsa_capi.obj
 0002:00001d2c       ??_C@_02JIGJGNGN@P3@       10071d2c     lettura_finecorsa_capi.obj
 0002:00001d30       ??_C@_02NHCIPLKK@P4@       10071d30     lettura_finecorsa_capi.obj
 0002:00001d34       ??_C@_02MODDMKOL@P5@       10071d34     lettura_finecorsa_capi.obj
 0002:00001d38       ??_C@_02OFBOJJCI@P6@       10071d38     lettura_finecorsa_capi.obj
 0002:00001d3c       ??_C@_02PMAFKIGJ@P7@       10071d3c     lettura_finecorsa_capi.obj
 0002:00001d40       ??_C@_02HLJNLEKG@P8@       10071d40     lettura_finecorsa_capi.obj
 0002:00001d44       ??_C@_02GCIGIFOH@P9@       10071d44     lettura_finecorsa_capi.obj
 0002:00001d48       ??_C@_03OPFJJGBF@P10@      10071d48     lettura_finecorsa_capi.obj
 0002:00001d4c       ??_C@_04GKLBNPCL@WtEt@     10071d4c     lettura_finecorsa_capi.obj
 0002:00001d54       ??_C@_06BNJCAIGJ@double@   10071d54     lettura_finecorsa_capi.obj
 0002:00001d5c       ??_C@_06CNMIJIPB@real_T@   10071d5c     lettura_finecorsa_capi.obj
 0002:00001d64       ??_C@_05KNFBNCOH@float@    10071d64     lettura_finecorsa_capi.obj
 0002:00001d6c       _serialfifoground          10071d6c     xpc_datatype_ground.obj
 0002:00001d78       _bcmsg1553ground           10071d78     xpc_datatype_ground.obj
 0002:00001d88       _bcstatground              10071d88     xpc_datatype_ground.obj
 0002:00001da0       _bmmsg1553ground           10071da0     xpc_datatype_ground.obj
 0002:00001ddc       ??_C@_0BI@INNPNFJN@Memory?5Allocation?5Error@ 10071ddc     rtw_modelmap_utils.obj
 0002:00001df8       ??_C@_1GI@IBKOBJLJ@?$AAC?$AA?3?$AA?2?$AAP?$AAR?$AAO?$AAG?$AAR?$AAA?$AA?$HO?$AA1?$AA?2?$AAM?$AAA?$AAT@ 10071df8     rtw_modelmap_utils.obj
 0002:00001e74       ??_C@_1CI@OEAJCJND@?$AAj?$AA?5?$AA?$DN?$AA?$DN?$AA?5?$AAe?$AAn?$AAc?$AAo?$AAd?$AAe?$AAd?$AAP?$AAa?$AAt@ 10071e74     rtw_modelmap_utils.obj
 0002:00001ea4       ??_C@_1DC@NFAOIFKB@?$AAe?$AAn?$AAc?$AAo?$AAd?$AAe?$AAd?$AAP?$AAa?$AAt?$AAh?$AA?$FL?$AAj?$AA?9?$AA1@ 10071ea4     rtw_modelmap_utils.obj
 0002:00001ee0       ??_C@_1DI@FLNJGPEE@?$AAs?$AAi?$AAg?$AAC?$AAo?$AAm?$AAp?$AAl?$AAe?$AAx?$AAi?$AAt?$AAy?$AA?$FL?$AA?$CK@ 10071ee0     rtw_modelmap_utils.obj
 0002:00001f28       ??_C@_1KI@OFELMGBG@?$AA?$CI?$AA?$CI?$AA?$CI?$AAd?$AAa?$AAt?$AAa?$AAT?$AAy?$AAp?$AAe?$AAM?$AAa?$AAp?$AA?$CJ@ 10071f28     rtw_modelmap_utils.obj
 0002:00001ff4       ??_C@_1DA@ILCMPHNE@?$AAf?$AAu?$AAl?$AAl?$AAP?$AAa?$AAt?$AAh?$AA?5?$AA?$CB?$AA?$DN?$AA?5?$AA?$CI?$AA?$CI?$AAv@ 10071ff4     rtw_modelmap_utils.obj
 0002:00002030       ??_C@_1CI@OEPPFCCA@?$AAp?$AAa?$AAt?$AAh?$AA?5?$AA?$CB?$AA?$DN?$AA?5?$AA?$CI?$AA?$CI?$AAv?$AAo?$AAi?$AAd?$AA?5@ 10072030     rtw_modelmap_utils.obj
 0002:00002060       ??_C@_1FK@GLJIMFHB@?$AA?$CI?$AA?$CI?$AAm?$AAm?$AAi?$AA?$CJ?$AA?9?$AA?$DO?$AAI?$AAn?$AAs?$AAt?$AAa?$AAn?$AAc@ 10072060     rtw_modelmap_utils.obj
 0002:000020cc       ??_C@_1DG@HPCJGNCE@?$AAm?$AAm?$AAi?$AAP?$AAa?$AAt?$AAh?$AA?$FL?$AAp?$AAa?$AAt?$AAh?$AAL?$AAe?$AAn@ 100720cc     rtw_modelmap_utils.obj
 0002:0000210c       ??_C@_1DM@DBAOGGOO@?$AAm?$AAm?$AAi?$AAP?$AAa?$AAt?$AAh?$AA?$FL?$AAm?$AAm?$AAi?$AAP?$AAa?$AAt?$AAh@ 1007210c     rtw_modelmap_utils.obj
 0002:00002154       ??_C@_1DC@LHIAKAFE@?$AAb?$AAl?$AAo?$AAc?$AAk?$AAP?$AAa?$AAt?$AAh?$AA?5?$AA?$CB?$AA?$DN?$AA?5?$AA?$CI?$AA?$CI@ 10072154     rtw_modelmap_utils.obj
 0002:00002190       ??_C@_1GI@KIEJKPGC@?$AAf?$AAu?$AAl?$AAl?$AAS?$AAt?$AAa?$AAt?$AAe?$AAB?$AAl?$AAo?$AAc?$AAk?$AAP@ 10072190     rtw_modelmap_utils.obj
 0002:00002210       ??_C@_1EE@DNPIBJHC@?$AA?$CI?$AA?$CI?$AAd?$AAi?$AAm?$AAM?$AAa?$AAp?$AA?$CJ?$AA?$FL?$AA?$CI?$AAm?$AAa?$AAp?$AAI@ 10072210     rtw_modelmap_utils.obj
 0002:00002264       ??_C@_06JFOKFOED@CSTATE@   10072264     rtw_modelmap_utils.obj
 0002:0000226c       ??_C@_06FAENGAMN@DSTATE@   1007226c     rtw_modelmap_utils.obj
 0002:00002274       ??_C@_1BI@LEBJNOGG@?$AAc?$AAs?$AAv?$AAI?$AAd?$AAx?$AA?5?$AA?$DO?$AA?$DN?$AA?5?$AA0@ 10072274     rtw_modelmap_utils.obj
 0002:00002290       ??_C@_1BA@KDMGHCHP@?$AAT?$AAI?$AAD?$AA?$DN?$AA?$DN?$AA?9?$AA1@ 10072290     rtw_modelmap_utils.obj
 0002:000022a4       ??_C@_1DM@DHGKBPCE@?$AAs?$AAi?$AAg?$AAP?$AAa?$AAt?$AAh?$AA?$FL?$AAs?$AAi?$AAg?$AAP?$AAa?$AAt?$AAh@ 100722a4     rtw_modelmap_utils.obj
 0002:00002b50       ??_C@_0DJ@FHKINPLE@Unexpected?5itemKind?5?$DN?5DATA_ITEM@ 10072b50     rt_logging.obj
 0002:00002b94       ??_C@_0DA@IEHFPFCJ@Unexpected?5itemKind?$DN?$CFd?5in?5rt_Pr@ 10072b94     rt_logging.obj
 0002:00002bd0       ??_C@_0DA@IFLHJPBO@Unexpected?5itemKind?$DN?$CFd?5in?5rt_Pr@ 10072bd0     rt_logging.obj
 0002:00002c0c       ??_C@_0DA@IAPIIJJL@Unexpected?5itemKind?$DN?$CFd?5in?5rt_Pr@ 10072c0c     rt_logging.obj
 0002:00002c48       ??_C@_0BE@LCIGPJIG@MATLAB?55?40?5MAT?9file@ 10072c48     rt_logging.obj
 0002:00002c60       ??_C@_0FB@PCJEAJIB@?$CK?$CK?$CK?5Log?5variable?5?$CFs?5has?5wrapped@ 10072c60     rt_logging.obj
 0002:00002cc8       ??_C@_0MG@NKMLMOGF@?$CK?$CK?$CK?5To?5avoid?5wrapping?0?5explicit@ 10072cc8     rt_logging.obj
 0002:00002db8       ??_C@_0N@IPAEOLLP@_rtw_tmw?4tmw@ 10072db8     rt_logging.obj
 0002:00002dc8       ??_C@_04HDOCAJNK@?$CFs?$CFs@ 10072dc8     rt_logging.obj
 0002:00002dd0       ??_C@_03ELIABIOC@w?$CLb@   10072dd0     rt_logging.obj
 0002:00002dd4       ??_C@_0BF@JPILDDFA@?$CK?$CK?$CK?5Error?5opening?5?$CFs@ 10072dd4     rt_logging.obj
 0002:00002df0       ??_C@_0BK@EEMDELA@unable?5to?5open?5data?5file?6@ 10072df0     rt_logging.obj
 0002:00002e10       ??_C@_04CGFJFPFD@none@     10072e10     rt_logging.obj
 0002:00002e18       ??_C@_0EE@LCGFPNON@?$CK?$CK?$CK?5Error?5creating?5signals?5stru@ 10072e18     rt_logging.obj
 0002:00002e6c       ??_C@_0CE@NHECEDMK@?$CK?$CK?$CK?5Error?5creating?5log?5variable@ 10072e6c     rt_logging.obj
 0002:00002e98       ??_C@_0DB@IOCGKAGH@?$CK?$CK?$CK?5Errors?5occurred?5when?5starti@ 10072e98     rt_logging.obj
 0002:00002ed4       ??_C@_0BO@BBLOGEBK@?$CK?$CK?$CK?5Memory?5allocation?5error?4?6@ 10072ed4     rt_logging.obj
 0002:00002ef8       ??_C@_0N@LGFBAGEL@?5?$CIreal?5part?$CJ@ 10072ef8     rt_logging.obj
 0002:00002f08       ??_C@_0KH@CGNMHNFE@?5?5?5?5varName?5?5?5?5?5?5?5?5?5?5?$DN?5?$CFs?$CFs?6?5?5?5@ 10072f08     rt_logging.obj
 0002:00002fd0       ??_C@_0LE@OALKKEFM@?5?5?5?5varName?5?5?5?5?5?5?5?5?5?5?$DN?5?$CFs?5?$CIcomp@ 10072fd0     rt_logging.obj
 0002:000030a8       ??_C@_0KF@JDDLEOKO@?5?5?5?5varName?5?5?5?5?5?5?5?5?5?5?$DN?5?$CFs?6?5?5?5?5n@ 100730a8     rt_logging.obj
 0002:00003170       ??_C@_0DP@HPDMIOFM@?$CK?$CK?$CK?5Using?5a?5default?5buffer?5of?5s@ 10073170     rt_logging.obj
 0002:000031c0       ??_C@_0KE@JEFOLKNF@?6?$CK?$CK?$CK?5Memory?5required?5to?5log?5var@ 100731c0     rt_logging.obj
 0002:00003288       ??_C@_0JP@DKLMHCBI@?$CK?$CK?$CK?5Details?3?6?5?5?5?5?5?5?5varName?5?5?5?5@ 10073288     rt_logging.obj
 0002:00003348       ??_C@_0CM@CAMILBED@?$CK?$CK?$CK?5Error?5allocating?5memory?5for@ 10073348     rt_logging.obj
 0002:0000337c       ??_C@_0DF@BBCNMOPM@?$CK?$CK?$CK?5Error?5allocating?5memory?5for@ 1007337c     rt_logging.obj
 0002:000033c0       ??_C@_0JP@DBCLPCCI@?$CK?$CK?$CK?5Details?3?6?5?5?5?5?5?5?5varName?5?5?5?5@ 100733c0     rt_logging.obj
 0002:00003480       ??_C@_0FK@DPGAOBGA@?$CK?$CK?$CK?5Error?5allocating?5memory?5for@ 10073480     rt_logging.obj
 0002:000034ec       ??_C@_0BI@GGDNPHLJ@?$CK?$CK?$CK?5Error?5writing?5to?5?$CFs@ 100734ec     rt_logging.obj
 0002:00003508       ??_C@_0CB@IBGJGELG@?$CK?$CK?$CK?5Error?5writing?5?$CFs?5due?5to?3?5?$CFs@ 10073508     rt_logging.obj
 0002:00003530       ??_C@_0CN@FLMCHCPB@?$CK?$CK?$CK?5Error?5writing?5log?5variable?5@ 10073530     rt_logging.obj
 0002:00003568       ??_C@_0DH@GAJCNOJP@?$CK?$CK?$CK?5Error?5writing?5structure?5log@ 10073568     rt_logging.obj
 0002:000035ac       ??_C@_0BD@POEALECL@?$CK?$CK?5created?5?$CFs?5?$CK?$CK?6?6@ 100735ac     rt_logging.obj
 0002:000035c8       __real@4020000000000000    100735c8     rt_logging.obj
 0002:000035d8       __real@41dfffffffc00000    100735d8     rt_logging.obj
 0002:000035e8       __real@41efffffffe00000    100735e8     rt_logging.obj
 0002:000035f8       __real@4330000000000000    100735f8     rt_logging.obj
 0002:00003608       __real@8000000000000000    10073608     rt_logging.obj
 0002:00003618       __real@bfbf9add3afd2773    10073618     rt_logging.obj
 0002:00003628       __real@c000000000000000    10073628     rt_logging.obj
 0002:00003640       __xmm@20202020202020202020202020202020 10073640     rt_logging.obj
 0002:00003654       _ptsetfilename             10073654     xpctarget.obj
 0002:00003658       _xmlfile                   10073658     xpctarget.obj
 0002:00003660       ??_C@_0BC@MBIMIMMK@lettura_finecorsa@ 10073660     xpctarget.obj
 0002:00003678       ??_C@_0L@CHBJKKFC@xpceSetVar@ 10073678     xpctarget.obj
 0002:00003688       ??_C@_03LADEHNAB@6?46@     10073688     xpctarget.obj
 0002:00003690       __real@3fb999999999999a    10073690     xpctarget.obj
 0002:000036a0       __real@408f400000000000    100736a0     xpctarget.obj
 0002:000036b0       _lettura_finecorsa_BIOMAP  100736b0     appmappingData.obj
 0002:00003800       _lettura_finecorsa_LBLMAP  10073800     appmappingData.obj
 0002:00003950       _lettura_finecorsa_SIDMAP  10073950     appmappingData.obj
 0002:00003aa0       _lettura_finecorsa_SBIO    10073aa0     appmappingData.obj
 0002:00003b10       _lettura_finecorsa_SLBL    10073b10     appmappingData.obj
 0002:00003b80       _lettura_finecorsa_PTIDSMAP 10073b80     appmappingData.obj
 0002:00003e10       _lettura_finecorsa_PTNAMESMAP 10073e10     appmappingData.obj
 0002:000040a0       _lettura_finecorsa_SPTMAP  100740a0     appmappingData.obj
 0002:000041e8       _lettura_finecorsa_dtmap   100741e8     appmappingData.obj
 0002:000041f8       _appInfo                   100741f8     appmappingData.obj
 0002:00004498       ??_C@_0ED@LKHIFFLC@Wrong?5number?5of?5input?5arguments@ 10074498     danipcim.obj
 0002:000044e8       ??_C@_0DB@HFHLNKLE@Channel?5?$CFd?5exceeds?5the?5max?5DA?5c@ 100744e8     danipcim.obj
 0002:00004524       ??_C@_0CL@GCJHHCMG@Output?5range?5?$CFd?5is?5not?5supporte@ 10074524     danipcim.obj
 0002:00004558       ??_C@_0CC@FIFFDAB@?$CFd?5input?5args?5expected?0?5?$CFd?5pass@ 10074558     encnipcim.obj
 0002:00004580       ??_C@_0BN@JIEFLHEB@?$CFs?3?5Too?5many?5M?5series?5boards@ 10074580     encnipcim.obj
 0002:000045a4       ??_C@_0M@IMCLKBPP@NI?5PCI?96220@ 100745a4     xpcionim.obj
 0002:000045b4       ??_C@_0M@JFDAJALO@NI?5PCI?96221@ 100745b4     xpcionim.obj
 0002:000045c4       ??_C@_0P@NGCDCNKM@NI?5PCI?96221?137@ 100745c4     xpcionim.obj
 0002:000045d8       ??_C@_0M@OIEHGEPL@NI?5PCI?96224@ 100745d8     xpcionim.obj
 0002:000045e8       ??_C@_0M@PBFMFFLK@NI?5PCI?96225@ 100745e8     xpcionim.obj
 0002:000045f8       ??_C@_0M@FNOJBKLG@NI?5PCI?96229@ 100745f8     xpcionim.obj
 0002:00004608       ??_C@_0M@INOJMLMI@NI?5PCI?96230@ 10074608     xpcionim.obj
 0002:00004618       ??_C@_0M@LPNPKJEK@NI?5PCI?96232@ 10074618     xpcionim.obj
 0002:00004628       ??_C@_0M@KGMEJIAL@NI?5PCI?96233@ 10074628     xpcionim.obj
 0002:00004638       ??_C@_0M@NLLDGMEO@NI?5PCI?96236@ 10074638     xpcionim.obj
 0002:00004648       ??_C@_0M@EFDAEBMA@NI?5PCI?96238@ 10074648     xpcionim.obj
 0002:00004658       ??_C@_0M@FMCLHAIB@NI?5PCI?96239@ 10074658     xpcionim.obj
 0002:00004668       ??_C@_0M@IJGELHHK@NI?5PCI?96250@ 10074668     xpcionim.obj
 0002:00004678       ??_C@_0M@JAHPIGDL@NI?5PCI?96251@ 10074678     xpcionim.obj
 0002:00004688       ??_C@_0M@ONAIHCHO@NI?5PCI?96254@ 10074688     xpcionim.obj
 0002:00004698       ??_C@_0M@PEBDEDDP@NI?5PCI?96255@ 10074698     xpcionim.obj
 0002:000046a8       ??_C@_0M@FIKGAMDD@NI?5PCI?96259@ 100746a8     xpcionim.obj
 0002:000046b8       ??_C@_0M@IBLMCECJ@NI?5PCI?96280@ 100746b8     xpcionim.obj
 0002:000046c8       ??_C@_0M@JIKHBFGI@NI?5PCI?96281@ 100746c8     xpcionim.obj
 0002:000046d8       ??_C@_0M@OFNAOBCN@NI?5PCI?96284@ 100746d8     xpcionim.obj
 0002:000046e8       ??_C@_0M@FAHOJPGA@NI?5PCI?96289@ 100746e8     xpcionim.obj
 0002:000046f8       ??_C@_0CI@NFFNBHJA@?$CFs?5?$CIbus?5?$CFd?0?5slot?5?$CFd?$CJ?3?5board?5not@ 100746f8     xpcionim.obj
 0002:00004728       ??_C@_0CD@MBDNCLAI@NI?5M?5series?3?5Unknown?5board?5type@ 10074728     xpcionim.obj
 0002:00004754       ??_C@_0CC@DMFKNLL@VendorId?5?$DN?50x?$CFx?0?5DeviceId?5?$DN?50x?$CF@ 10074754     xpcruntime:xpcimports.obj
 0002:0000477c       ??_C@_0DH@OHCBLNMG@Subsystem?5Device?5ID?5?$DN?50x?$CFx?6Subs@ 1007477c     xpcruntime:xpcimports.obj
 0002:000047c0       ??_C@_0BD@MMMMEFCM@Class?5Code?5?$DN?50x?$CFx?6@ 100747c0     xpcruntime:xpcimports.obj
 0002:000047d8       ??_C@_0BE@OLDDDNHM@InterruptLine?5?$DN?5?$CFd?6@ 100747d8     xpcruntime:xpcimports.obj
 0002:000047f0       ??_C@_0BF@OLKLEKBD@bus?5?$DN?5?$CFd?0?5slot?5?$DN?5?$CFd?6@ 100747f0     xpcruntime:xpcimports.obj
 0002:0000480c       ??_C@_0CE@DGLLGDFH@?5?5?5?5Phys?5?5?5Virtual?5?5?5Length?5IO?1@ 1007480c     xpcruntime:xpcimports.obj
 0002:00004838       ??_C@_0BI@FEOPLEMG@?$CF08x?5?$CF08x?5?$CF08x?5?5?5?5?5?5?$CFc?6@ 10074838     xpcruntime:xpcimports.obj
 0002:00004854       ??_C@_0BB@BNNCEDPC@rl32eScopeExists@ 10074854     xpcruntime:xpcimports.obj
 0002:00004868       ??_C@_0BM@FJBFEGFG@rl32eScopeExists?5not?5found?6@ 10074868     xpcruntime:xpcimports.obj
 0002:0000488c       ??_C@_0O@BNNGKJEA@rl32eDefScope@ 1007488c     xpcruntime:xpcimports.obj
 0002:0000489c       ??_C@_0BJ@CDNOENKA@rl32eDefScope?5not?5found?6@ 1007489c     xpcruntime:xpcimports.obj
 0002:000048bc       ??_C@_0P@CKNKILDP@rl32eAddSignal@ 100748bc     xpcruntime:xpcimports.obj
 0002:000048d0       ??_C@_0BK@GMJAJBAI@rl32eAddSignal?5not?5found?6@ 100748d0     xpcruntime:xpcimports.obj
 0002:000048f0       ??_C@_0BB@LDMIHGCE@rl32eGetSignalNo@ 100748f0     xpcruntime:xpcimports.obj
 0002:00004904       ??_C@_0BM@LGAMBAID@rl32eGetSignalNo?5not?5found?6@ 10074904     xpcruntime:xpcimports.obj
 0002:00004928       ??_C@_0O@CFDGALBP@rl32eSetScope@ 10074928     xpcruntime:xpcimports.obj
 0002:00004938       ??_C@_0BJ@JCLHHIN@rl32eSetScope?5not?5found?6@ 10074938     xpcruntime:xpcimports.obj
 0002:00004958       ??_C@_0P@IKMCBMHH@xpceFSScopeSet@ 10074958     xpcruntime:xpcimports.obj
 0002:0000496c       ??_C@_0BK@JODJPNNH@xpceFSScopeSet?5not?5found?6@ 1007496c     xpcruntime:xpcimports.obj
 0002:0000498c       ??_C@_0BE@DLACEEJM@rl32eSetTargetScope@ 1007498c     xpcruntime:xpcimports.obj
 0002:000049a4       ??_C@_0BP@JCHFMKPJ@rl32eSetTargetScope?5not?5found?6@ 100749a4     xpcruntime:xpcimports.obj
 0002:000049cc       ??_C@_0BJ@LIDLNDHC@rl32eSetTargetScopeSigFt@ 100749cc     xpcruntime:xpcimports.obj
 0002:000049ec       ??_C@_0CE@JLGHCFHI@rl32eSetTargetScopeSigFt?5not?5fo@ 100749ec     xpcruntime:xpcimports.obj
 0002:00004a18       ??_C@_0BI@JAPOIDNG@rl32eRestartAcquisition@ 10074a18     xpcruntime:xpcimports.obj
 0002:00004a34       ??_C@_0CD@LLBEFFBO@rl32eRestartAcquisition?5not?5fou@ 10074a34     xpcruntime:xpcimports.obj
 0002:00004a60       ??_C@_0P@IEIIADJB@xpceScopeAcqOK@ 10074a60     xpcruntime:xpcimports.obj
 0002:00004a74       ??_C@_0BK@NJCKNFPN@xpceScopeAcqOK?5not?5found?6@ 10074a74     xpcruntime:xpcimports.obj
 0002:00004a94       ??_C@_0BA@IJINKAHF@xpceRegisterISR@ 10074a94     xpcruntime:xpcimports.obj
 0002:00004aa8       ??_C@_0BL@NNDLOEJE@xpceRegisterISR?5not?5found?6@ 10074aa8     xpcruntime:xpcimports.obj
 0002:00004ac8       ??_C@_0BC@NLBADGKF@xpceDeRegisterISR@ 10074ac8     xpcruntime:xpcimports.obj
 0002:00004ae0       ??_C@_0BN@DCAIKFFD@xpceDeRegisterISR?5not?5found?6@ 10074ae0     xpcruntime:xpcimports.obj
 0002:00004b04       ??_C@_07JPMEPILD@xpcInpB@  10074b04     xpcruntime:xpcimports.obj
 0002:00004b10       ??_C@_0BD@PGABEJOL@xpcInpB?5not?5found?6@ 10074b10     xpcruntime:xpcimports.obj
 0002:00004b28       ??_C@_07KIHBBOKH@xpcInpW@  10074b28     xpcruntime:xpcimports.obj
 0002:00004b34       ??_C@_0BD@FPCJFMCC@xpcInpW?5not?5found?6@ 10074b34     xpcruntime:xpcimports.obj
 0002:00004b4c       ??_C@_08KDIAJBOP@xpcInpDW@ 10074b4c     xpcruntime:xpcimports.obj
 0002:00004b58       ??_C@_0BE@PIELDNIL@xpcInpDW?5not?5found?6@ 10074b58     xpcruntime:xpcimports.obj
 0002:00004b70       ??_C@_08PJFMOIGO@xpcOutpB@ 10074b70     xpcruntime:xpcimports.obj
 0002:00004b7c       ??_C@_0BE@HCKNCEKF@xpcOutpB?5not?5found?6@ 10074b7c     xpcruntime:xpcimports.obj
 0002:00004b94       ??_C@_08MOOJAOHK@xpcOutpW@ 10074b94     xpcruntime:xpcimports.obj
 0002:00004ba0       ??_C@_0BE@NLIFDBGM@xpcOutpW?5not?5found?6@ 10074ba0     xpcruntime:xpcimports.obj
 0002:00004bb8       ??_C@_09FLIEKHJG@xpcOutpDW@ 10074bb8     xpcruntime:xpcimports.obj
 0002:00004bc4       ??_C@_0BF@GJKLPNHB@xpcOutpDW?5not?5found?6@ 10074bc4     xpcruntime:xpcimports.obj
 0002:00004be0       ??_C@_0BH@EHOLELHH@xpcReserveMemoryRegion@ 10074be0     xpcruntime:xpcimports.obj
 0002:00004bfc       ??_C@_0CC@KAAAGPI@xpcReserveMemoryRegion?5not?5foun@ 10074bfc     xpcruntime:xpcimports.obj
 0002:00004c24       ??_C@_0BA@JGPMHGAF@rl32eShowPCIDev@ 10074c24     xpcruntime:xpcimports.obj
 0002:00004c38       ??_C@_0BL@DDFFLNHI@rl32eShowPCIDev?5not?5found?6@ 10074c38     xpcruntime:xpcimports.obj
 0002:00004c58       ??_C@_0BB@KBCOJPFB@rl32eShowPCIInfo@ 10074c58     xpcruntime:xpcimports.obj
 0002:00004c6c       ??_C@_0BM@IFDMAGLO@rl32eShowPCIInfo?5not?5found?6@ 10074c6c     xpcruntime:xpcimports.obj
 0002:00004c90       ??_C@_0BA@BGPAADB@rl32eGetPCIInfo@ 10074c90     xpcruntime:xpcimports.obj
 0002:00004ca4       ??_C@_0BL@IGOMLDCK@rl32eGetPCIInfo?5not?5found?6@ 10074ca4     xpcruntime:xpcimports.obj
 0002:00004cc4       ??_C@_0BG@NJPFKFDP@rl32eGetPCIInfoAtSlot@ 10074cc4     xpcruntime:xpcimports.obj
 0002:00004ce0       ??_C@_0CB@BBKIPMLA@rl32eGetPCIInfoAtSlot?5not?5found@ 10074ce0     xpcruntime:xpcimports.obj
 0002:00004d08       ??_C@_0BH@OKBOPNFG@xpceAssignPCIInterrupt@ 10074d08     xpcruntime:xpcimports.obj
 0002:00004d24       ??_C@_0CC@CDNDNJBJ@xpceAssignPCIInterrupt?5not?5foun@ 10074d24     xpcruntime:xpcimports.obj
 0002:00004d4c       ??_C@_0BD@PCKOKHO@xpceGetSignalValue@ 10074d4c     xpcruntime:xpcimports.obj
 0002:00004d64       ??_C@_0BO@GCBDJHMB@xpceGetSignalValue?5not?5found?6@ 10074d64     xpcruntime:xpcimports.obj
 0002:00004d88       ??_C@_0BB@BJONJAGA@xpceSetParameter@ 10074d88     xpcruntime:xpcimports.obj
 0002:00004d9c       ??_C@_0BM@BJIKDLHA@xpceSetParameter?5not?5found?6@ 10074d9c     xpcruntime:xpcimports.obj
 0002:00004dc0       ??_C@_0BB@GNFDFMCM@xpceGetParameter@ 10074dc0     xpcruntime:xpcimports.obj
 0002:00004dd4       ??_C@_0BM@POHNKBC@xpceGetParameter?5not?5found?6@ 10074dd4     xpcruntime:xpcimports.obj
 0002:00004df8       ??_C@_0BB@CEIJLFCD@xpceGetParamDims@ 10074df8     xpcruntime:xpcimports.obj
 0002:00004e0c       ??_C@_0BM@OABDBKAO@xpceGetParamDims?5not?5found?6@ 10074e0c     xpcruntime:xpcimports.obj
 0002:00004e30       ??_C@_0L@OCBLLHBM@xpceGetTET@ 10074e30     xpcruntime:xpcimports.obj
 0002:00004e40       ??_C@_0BG@HNOFBOB@xpceGetTET?5not?5found?6@ 10074e40     xpcruntime:xpcimports.obj
 0002:00004e5c       ??_C@_0P@OKGNGAGH@xpcIsModelInit@ 10074e5c     xpcruntime:xpcimports.obj
 0002:00004e70       ??_C@_0BK@DHEMLBIM@xpcIsModelInit?5not?5found?6@ 10074e70     xpcruntime:xpcimports.obj
 0002:00004e90       ??_C@_0BH@KJJLCAOJ@xpcAllocPhysicalMemory@ 10074e90     xpcruntime:xpcimports.obj
 0002:00004eac       ??_C@_0CC@MOJPNHKL@xpcAllocPhysicalMemory?5not?5foun@ 10074eac     xpcruntime:xpcimports.obj
 0002:00004ed4       ??_C@_0BG@CBNPGAEL@xpcFreePhysicalMemory@ 10074ed4     xpcruntime:xpcimports.obj
 0002:00004ef0       ??_C@_0CB@PKJEBPOG@xpcFreePhysicalMemory?5not?5found@ 10074ef0     xpcruntime:xpcimports.obj
 0002:00004f18       ??_C@_0BC@JGKNLICL@xpcGetElapsedTime@ 10074f18     xpcruntime:xpcimports.obj
 0002:00004f30       ??_C@_0BN@OEOAHCIO@xpcGetElapsedTime?5not?5found?6@ 10074f30     xpcruntime:xpcimports.obj
 0002:00004f54       ??_C@_0M@ICBLMODA@xpcBusyWait@ 10074f54     xpcruntime:xpcimports.obj
 0002:00004f64       ??_C@_0BH@FBOPECBI@xpcBusyWait?5not?5found?6@ 10074f64     xpcruntime:xpcimports.obj
 0002:00004f80       ??_C@_0N@LKKJEKKA@TBCreateSpin@ 10074f80     xpcruntime:xpcimports.obj
 0002:00004f90       ??_C@_0BI@FHKMLKOE@TBCreateSpin?5not?5found?6@ 10074f90     xpcruntime:xpcimports.obj
 0002:00004fac       ??_C@_0N@HOAJHNBD@TBDeleteSpin@ 10074fac     xpcruntime:xpcimports.obj
 0002:00004fbc       ??_C@_0BI@BKCPAAG@TBDeleteSpin?5not?5found?6@ 10074fbc     xpcruntime:xpcimports.obj
 0002:00004fd8       ??_C@_0P@DAHDDBJG@TBTakeSpinFast@ 10074fd8     xpcruntime:xpcimports.obj
 0002:00004fec       ??_C@_0BK@NKAIBHGB@TBTakeSpinFast?5not?5found?6@ 10074fec     xpcruntime:xpcimports.obj
 0002:0000500c       ??_C@_0P@FKNAAELA@TBGiveSpinFast@ 1007500c     xpcruntime:xpcimports.obj
 0002:00005020       ??_C@_0BK@KGPJBJND@TBGiveSpinFast?5not?5found?6@ 10075020     xpcruntime:xpcimports.obj
 0002:00005040       ??_C@_0BE@IIGBFDHK@xpceCreateSemaphore@ 10075040     xpcruntime:xpcimports.obj
 0002:00005058       ??_C@_0BP@KFBAFFKJ@xpceCreateSemaphore?5not?5found?6@ 10075058     xpcruntime:xpcimports.obj
 0002:00005080       ??_C@_0BC@IFNIONKJ@xpceWaitSemaphore@ 10075080     xpcruntime:xpcimports.obj
 0002:00005098       ??_C@_0BN@NMFAADIO@xpceWaitSemaphore?5not?5found?6@ 10075098     xpcruntime:xpcimports.obj
 0002:000050bc       ??_C@_0BE@NNDIOBKE@xpceSignalSemaphore@ 100750bc     xpcruntime:xpcimports.obj
 0002:000050d4       ??_C@_0BP@LBANMHJP@xpceSignalSemaphore?5not?5found?6@ 100750d4     xpcruntime:xpcimports.obj
 0002:000050fc       ??_C@_0BE@MEBEKOIM@xpceDeleteSemaphore@ 100750fc     xpcruntime:xpcimports.obj
 0002:00005114       ??_C@_0BP@OFNCKOJH@xpceDeleteSemaphore?5not?5found?6@ 10075114     xpcruntime:xpcimports.obj
 0002:0000513c       ??_C@_0BD@MFNDMBOF@FindUsbVideoDevice@ 1007513c     xpcruntime:xpcimports.obj
 0002:00005154       ??_C@_0BO@POKLDHMI@FindUsbVideoDevice?5not?5found?6@ 10075154     xpcruntime:xpcimports.obj
 0002:00005178       ??_C@_0BA@PLPAPNAB@GetVideoConfigs@ 10075178     xpcruntime:xpcimports.obj
 0002:0000518c       ??_C@_0BL@DALDHKHC@GetVideoConfigs?5not?5found?6@ 1007518c     xpcruntime:xpcimports.obj
 0002:000051ac       ??_C@_0L@GBAEMHMH@StartVideo@ 100751ac     xpcruntime:xpcimports.obj
 0002:000051bc       ??_C@_0BG@HDCELEBP@StartVideo?5not?5found?6@ 100751bc     xpcruntime:xpcimports.obj
 0002:000051d8       ??_C@_0BA@FDNPOCLN@ReadFrameBuffer@ 100751d8     xpcruntime:xpcimports.obj
 0002:000051ec       ??_C@_0BL@JHGHPNBI@ReadFrameBuffer?5not?5found?6@ 100751ec     xpcruntime:xpcimports.obj
 0002:0000520c       ??_C@_09FAHCLKAG@StopVideo@ 1007520c     xpcruntime:xpcimports.obj
 0002:00005218       ??_C@_0BF@NKGKKADL@StopVideo?5not?5found?6@ 10075218     xpcruntime:xpcimports.obj
 0002:00005234       ??_C@_0O@MCPKDLLL@ConvertUImage@ 10075234     xpcruntime:xpcimports.obj
 0002:00005244       ??_C@_0BJ@PHJKOAFL@ConvertUImage?5not?5found?6@ 10075244     xpcruntime:xpcimports.obj
 0002:00005264       ??_C@_0BD@NKCBPBJJ@CreateVideoDisplay@ 10075264     xpcruntime:xpcimports.obj
 0002:0000527c       ??_C@_0BO@HPPLLNFP@CreateVideoDisplay?5not?5found?6@ 1007527c     xpcruntime:xpcimports.obj
 0002:000052a0       ??_C@_0BE@KJCKGPHA@DestroyVideoDisplay@ 100752a0     xpcruntime:xpcimports.obj
 0002:000052b8       ??_C@_0BP@FMGLJAIJ@DestroyVideoDisplay?5not?5found?6@ 100752b8     xpcruntime:xpcimports.obj
 0002:000052e0       ??_C@_0BC@HCMIMIDN@StartVideoDisplay@ 100752e0     xpcruntime:xpcimports.obj
 0002:000052f8       ??_C@_0BN@EFIEBGOO@StartVideoDisplay?5not?5found?6@ 100752f8     xpcruntime:xpcimports.obj
 0002:0000531c       ??_C@_0BB@JBBLMILG@StopVideoDisplay@ 1007531c     xpcruntime:xpcimports.obj
 0002:00005330       ??_C@_0BM@DBJBPLEL@StopVideoDisplay?5not?5found?6@ 10075330     xpcruntime:xpcimports.obj
 0002:00005354       ??_C@_0M@MFJEGMHC@StreamVideo@ 10075354     xpcruntime:xpcimports.obj
 0002:00005364       ??_C@_0BH@OINCDMLA@StreamVideo?5not?5found?6@ 10075364     xpcruntime:xpcimports.obj
 0002:00005380       ??_C@_0N@IGGLCIGE@xpceaddEvent@ 10075380     xpcruntime:xpcimports.obj
 0002:00005390       ??_C@_0BI@NHJNFMKH@xpceaddEvent?5not?5found?6@ 10075390     xpcruntime:xpcimports.obj
 0002:000053ac       ??_C@_0BB@HDPOIJAB@xpceDAQPostEvent@ 100753ac     xpcruntime:xpcimports.obj
 0002:000053c0       ??_C@_0BM@IHANBKGN@xpceDAQPostEvent?5not?5found?6@ 100753c0     xpcruntime:xpcimports.obj
 0002:000053e4       ??_C@_0BH@MBACMOD@xpceDAQUpdateTimeStamp@ 100753e4     xpcruntime:xpcimports.obj
 0002:00005400       ??_C@_0CC@DAKBBINL@xpceDAQUpdateTimeStamp?5not?5foun@ 10075400     xpcruntime:xpcimports.obj
 0002:00005428       ??_C@_0BN@HJOHIFOM@xpceGetIntTimerGranularityNS@ 10075428     xpcruntime:xpcimports.obj
 0002:0000544c       ??_C@_0CI@OADDPMKB@xpceGetIntTimerGranularityNS?5no@ 1007544c     xpcruntime:xpcimports.obj
 0002:0000547c       ??_C@_0BG@CCHICKPN@slrteSetStepSizeDelta@ 1007547c     xpcruntime:xpcimports.obj
 0002:00005498       ??_C@_0CB@MKHINEIJ@slrteSetStepSizeDelta?5not?5found@ 10075498     xpcruntime:xpcimports.obj
 0002:000054c0       ??_C@_0BI@CLNBLDKJ@slrteGetCurrentStepSize@ 100754c0     xpcruntime:xpcimports.obj
 0002:000054dc       ??_C@_0CD@GIOJPGJA@slrteGetCurrentStepSize?5not?5fou@ 100754dc     xpcruntime:xpcimports.obj
 0002:00005508       ??_C@_0BE@FCLCBOC@registerPTPTimeRead@ 10075508     xpcruntime:xpcimports.obj
 0002:00005520       ??_C@_0BP@LHPKAJIP@registerPTPTimeRead?5not?5found?6@ 10075520     xpcruntime:xpcimports.obj
 0002:00005548       ??_C@_0BG@KIGCDDJI@unRegisterPTPTimeRead@ 10075548     xpcruntime:xpcimports.obj
 0002:00005564       ??_C@_0CB@MLFFBFCM@unRegisterPTPTimeRead?5not?5found@ 10075564     xpcruntime:xpcimports.obj
 0002:0000558c       ??_C@_0BB@IPMDDBHK@slTestInitialize@ 1007558c     xpcruntime:xpcimports.obj
 0002:000055a0       ??_C@_0BM@LAJFCCJH@slTestInitialize?5not?5found?6@ 100755a0     xpcruntime:xpcimports.obj
 0002:000055c4       ??_C@_0BF@OOMPMEBC@slTestLogAssessments@ 100755c4     xpcruntime:xpcimports.obj
 0002:000055e0       ??_C@_0CA@FGJCEBAG@slTestLogAssessments?5not?5found?6@ 100755e0     xpcruntime:xpcimports.obj
 0002:00005608       ??_C@_0BB@HJHKONHO@slTestEvalOnFail@ 10075608     xpcruntime:xpcimports.obj
 0002:0000561c       ??_C@_0BM@JIKCFFNJ@slTestEvalOnFail?5not?5found?6@ 1007561c     xpcruntime:xpcimports.obj
 0002:00005640       ??_C@_0BA@LBHLABFP@slTestTerminate@ 10075640     xpcruntime:xpcimports.obj
 0002:00005654       ??_C@_0BL@EMFGKAPA@slTestTerminate?5not?5found?6@ 10075654     xpcruntime:xpcimports.obj
 0002:00005674       ??_C@_0BE@JPNPBBEO@slTestRegAssessment@ 10075674     xpcruntime:xpcimports.obj
 0002:0000568c       ??_C@_0BP@FBDEJJJH@slTestRegAssessment?5not?5found?6@ 1007568c     xpcruntime:xpcimports.obj
 0002:000056b4       ??_C@_0O@NCLGDNIB@slrteSetupMSI@ 100756b4     xpcruntime:xpcimports.obj
 0002:000056c4       ??_C@_0BJ@HEFMECLM@slrteSetupMSI?5not?5found?6@ 100756c4     xpcruntime:xpcimports.obj
 0002:000056e4       ??_C@_0BH@BPOLALHD@slrtGetCRBScratchSpace@ 100756e4     xpcruntime:xpcimports.obj
 0002:00005700       ??_C@_0CC@KCKAJKKJ@slrtGetCRBScratchSpace?5not?5foun@ 10075700     xpcruntime:xpcimports.obj
 0002:00005728       ??_C@_0BC@MKFDAKOL@slrtGetSgCRBSpace@ 10075728     xpcruntime:xpcimports.obj
 0002:00005740       ??_C@_0BN@JDPHPLHL@slrtGetSgCRBSpace?5not?5found?6@ 10075740     xpcruntime:xpcimports.obj
 0002:00005764       ??_C@_0P@EPAPKLIF@slrtfsOpenFile@ 10075764     xpcruntime:xpcimports.obj
 0002:00005778       ??_C@_0BK@FIHCBOHG@slrtfsOpenFile?5not?5found?6@ 10075778     xpcruntime:xpcimports.obj
 0002:00005798       ??_C@_0BA@LILAFDDL@slrtfsCloseFile@ 10075798     xpcruntime:xpcimports.obj
 0002:000057ac       ??_C@_0BL@DEGHJFIB@slrtfsCloseFile?5not?5found?6@ 100757ac     xpcruntime:xpcimports.obj
 0002:000057cc       ??_C@_0BC@OKMJDIEH@slrtfsWriteToFile@ 100757cc     xpcruntime:xpcimports.obj
 0002:000057e4       ??_C@_0BN@KCFLCLAH@slrtfsWriteToFile?5not?5found?6@ 100757e4     xpcruntime:xpcimports.obj
 0002:00005808       ??_C@_0BK@GIPNFFFF@slrtfsGetFileErrorMessage@ 10075808     xpcruntime:xpcimports.obj
 0002:00005828       ??_C@_0CF@BCBLMKLE@slrtfsGetFileErrorMessage?5not?5f@ 10075828     xpcruntime:xpcimports.obj
 0002:00005854       ??_C@_0BD@ICBOKMK@slrtfsGetFileError@ 10075854     xpcruntime:xpcimports.obj
 0002:0000586c       ??_C@_0BO@FNBANAE@slrtfsGetFileError?5not?5found?6@ 1007586c     xpcruntime:xpcimports.obj
 0002:00005890       ??_C@_0BE@PPAJMHJP@slrtfsOpenFileAsync@ 10075890     xpcruntime:xpcimports.obj
 0002:000058a8       ??_C@_0BP@HKBMMJOK@slrtfsOpenFileAsync?5not?5found?6@ 100758a8     xpcruntime:xpcimports.obj
 0002:000058d0       ??_C@_0BF@IGNDIBPF@slrtfsCloseFileAsync@ 100758d0     xpcruntime:xpcimports.obj
 0002:000058ec       ??_C@_0CA@GJPFDBKN@slrtfsCloseFileAsync?5not?5found?6@ 100758ec     xpcruntime:xpcimports.obj
 0002:00005914       ??_C@_0BE@IOLEBNB@slrtfsGetFileStatus@ 10075914     xpcruntime:xpcimports.obj
 0002:0000592c       ??_C@_0BP@PEFHDGHL@slrtfsGetFileStatus?5not?5found?6@ 1007592c     xpcruntime:xpcimports.obj
 0002:00005954       ??_C@_0M@HKIJIMG@slrtfsFread@ 10075954     xpcruntime:xpcimports.obj
 0002:00005964       ??_C@_0BH@OOKBGONO@slrtfsFread?5not?5found?6@ 10075964     xpcruntime:xpcimports.obj
 0002:00005980       ??_C@_0BE@OGCMPLAP@slrtGetDefaultDrive@ 10075980     xpcruntime:xpcimports.obj
 0002:00005998       ??_C@_0BP@HKFGLHOE@slrtGetDefaultDrive?5not?5found?6@ 10075998     xpcruntime:xpcimports.obj
 0002:000059c0       ??_C@_0N@NAJIKFFI@slrtLogEvent@ 100759c0     xpcruntime:xpcimports.obj
 0002:000059d0       ??_C@_0BI@NKCEACND@slrtLogEvent?5not?5found?6@ 100759d0     xpcruntime:xpcimports.obj
 0002:000059ec       ??_C@_0N@IDKFJOHI@getlasterror@ 100759ec     xpcruntime:xpcimports.obj
 0002:000059fc       ??_C@_0BI@MIHMCHGL@getlasterror?5not?5found?6@ 100759fc     xpcruntime:xpcimports.obj
 0002:00005a18       ??_C@_0P@OKHGKJKN@geterrorstring@ 10075a18     xpcruntime:xpcimports.obj
 0002:00005a2c       ??_C@_0BK@NOHFDMLP@geterrorstring?5not?5found?6@ 10075a2c     xpcruntime:xpcimports.obj
 0002:00005a4c       ??_C@_0BD@HNFFKMGJ@slrtGetCPUTCelsius@ 10075a4c     xpcruntime:xpcimports.obj
 0002:00005a64       ??_C@_0BO@LHBFKLIH@slrtGetCPUTCelsius?5not?5found?6@ 10075a64     xpcruntime:xpcimports.obj
 0002:00005a88       ??_C@_0M@OONCNCLM@slrtWarning@ 10075a88     xpcruntime:xpcimports.obj
 0002:00005a98       ??_C@_0BH@ICKGIEMB@slrtWarning?5not?5found?6@ 10075a98     xpcruntime:xpcimports.obj
 0002:00005ab4       ??_C@_0N@EAAOMIIE@isUsedByRTIP@ 10075ab4     xpcruntime:xpcimports.obj
 0002:00005ac4       ??_C@_0BI@GNHHHICK@isUsedByRTIP?5not?5found?6@ 10075ac4     xpcruntime:xpcimports.obj
 0002:00005ae0       ??_C@_0BC@HLDKJAG@SetIPTASKPriority@ 10075ae0     xpcruntime:xpcimports.obj
 0002:00005af8       ??_C@_0BN@OGKMHHAE@SetIPTASKPriority?5not?5found?6@ 10075af8     xpcruntime:xpcimports.obj
 0002:00005b1c       ??_C@_0O@LHENMBDD@OpenInterface@ 10075b1c     xpcruntime:xpcimports.obj
 0002:00005b2c       ??_C@_0BJ@PFGDBKHB@OpenInterface?5not?5found?6@ 10075b2c     xpcruntime:xpcimports.obj
 0002:00005b4c       ??_C@_0P@IINFELKD@CloseInterface@ 10075b4c     xpcruntime:xpcimports.obj
 0002:00005b60       ??_C@_0BK@PAPDNDBK@CloseInterface?5not?5found?6@ 10075b60     xpcruntime:xpcimports.obj
 0002:00005b80       ??_C@_05LEFIAAOI@SetIP@    10075b80     xpcruntime:xpcimports.obj
 0002:00005b88       ??_C@_0BB@CGLIBAMM@SetIP?5not?5found?6@ 10075b88     xpcruntime:xpcimports.obj
 0002:00005b9c       ??_C@_0BA@HIJJHHMD@AddGatewayRoute@ 10075b9c     xpcruntime:xpcimports.obj
 0002:00005bb0       ??_C@_0BL@BFCFMDMN@AddGatewayRoute?5not?5found?6@ 10075bb0     xpcruntime:xpcimports.obj
 0002:00005bd0       ??_C@_0M@PHMABFPI@DeleteRoute@ 10075bd0     xpcruntime:xpcimports.obj
 0002:00005be0       ??_C@_0BH@JPJGLLID@DeleteRoute?5not?5found?6@ 10075be0     xpcruntime:xpcimports.obj
 0002:00005bfc       ??_C@_0BA@FCDIMKIJ@GetHostTarIPAdd@ 10075bfc     xpcruntime:xpcimports.obj
 0002:00005c10       ??_C@_0BL@MBKDGKBO@GetHostTarIPAdd?5not?5found?6@ 10075c10     xpcruntime:xpcimports.obj
 0002:00005c30       ??_C@_0M@HPMIPIBI@GetDCUUsage@ 10075c30     xpcruntime:xpcimports.obj
 0002:00005c40       ??_C@_0BH@EBLJKCJC@GetDCUUsage?5not?5found?6@ 10075c40     xpcruntime:xpcimports.obj
 0002:00005c5c       ??_C@_06MPKMECK@accept@    10075c5c     xpcruntime:xpcimports.obj
 0002:00005c64       ??_C@_0BC@GBGIEMNO@accept?5not?5found?6@ 10075c64     xpcruntime:xpcimports.obj
 0002:00005c7c       ??_C@_04NPNJNMMP@bind@     10075c7c     xpcruntime:xpcimports.obj
 0002:00005c84       ??_C@_0BA@DAJNENLO@bind?5not?5found?6@ 10075c84     xpcruntime:xpcimports.obj
 0002:00005c98       ??_C@_0L@CKHNIFCM@setsockopt@ 10075c98     xpcruntime:xpcimports.obj
 0002:00005ca8       ??_C@_0BG@MFIIOMFE@setsockopt?5not?5found?6@ 10075ca8     xpcruntime:xpcimports.obj
 0002:00005cc4       ??_C@_0M@ODDJDCDK@closesocket@ 10075cc4     xpcruntime:xpcimports.obj
 0002:00005cd4       ??_C@_0BH@JHGHMIL@closesocket?5not?5found?6@ 10075cd4     xpcruntime:xpcimports.obj
 0002:00005cf0       ??_C@_07KAIBNCHO@connect@  10075cf0     xpcruntime:xpcimports.obj
 0002:00005cfc       ??_C@_0BD@MKLLMBM@connect?5not?5found?6@ 10075cfc     xpcruntime:xpcimports.obj
 0002:00005d14       ??_C@_0M@PBPOCKDG@ioctlsocket@ 10075d14     xpcruntime:xpcimports.obj
 0002:00005d24       ??_C@_0BH@NFCNHHIH@ioctlsocket?5not?5found?6@ 10075d24     xpcruntime:xpcimports.obj
 0002:00005d40       ??_C@_06OODDLKLE@listen@   10075d40     xpcruntime:xpcimports.obj
 0002:00005d48       ??_C@_0BC@NHBILEKI@listen?5not?5found?6@ 10075d48     xpcruntime:xpcimports.obj
 0002:00005d60       ??_C@_08HMBBGFHE@recvfrom@ 10075d60     xpcruntime:xpcimports.obj
 0002:00005d6c       ??_C@_0BE@BJAJFFLF@recvfrom?5not?5found?6@ 10075d6c     xpcruntime:xpcimports.obj
 0002:00005d84       ??_C@_06MEPBGKEC@sendto@   10075d84     xpcruntime:xpcimports.obj
 0002:00005d8c       ??_C@_0BC@BHPIMDJO@sendto?5not?5found?6@ 10075d8c     xpcruntime:xpcimports.obj
 0002:00005da4       ??_C@_09JKBDEEOB@inet_addr@ 10075da4     xpcruntime:xpcimports.obj
 0002:00005db0       ??_C@_0BF@HKJPGECN@inet_addr?5not?5found?6@ 10075db0     xpcruntime:xpcimports.obj
 0002:00005dcc       ??_C@_06HBELJPBO@socket@   10075dcc     xpcruntime:xpcimports.obj
 0002:00005dd4       ??_C@_0BC@NAGFFJGA@socket?5not?5found?6@ 10075dd4     xpcruntime:xpcimports.obj
 0002:00005dec       ??_C@_09ICJIFGNC@GetSocket@ 10075dec     xpcruntime:xpcimports.obj
 0002:00005df8       ??_C@_0BF@KDBCKMOJ@GetSocket?5not?5found?6@ 10075df8     xpcruntime:xpcimports.obj
 0002:00005e14       ??_C@_0P@KJEGJMJI@GetSocketState@ 10075e14     xpcruntime:xpcimports.obj
 0002:00005e28       ??_C@_0BK@IALBJHEB@GetSocketState?5not?5found?6@ 10075e28     xpcruntime:xpcimports.obj
 0002:00005e48       ??_C@_0L@MEAJHNHB@SocketSend@ 10075e48     xpcruntime:xpcimports.obj
 0002:00005e58       ??_C@_0BG@EOCMBFJA@SocketSend?5not?5found?6@ 10075e58     xpcruntime:xpcimports.obj
 0002:00005e74       ??_C@_0O@PFPCLEMF@SocketReceive@ 10075e74     xpcruntime:xpcimports.obj
 0002:00005e84       ??_C@_0BJ@HIBADDFO@SocketReceive?5not?5found?6@ 10075e84     xpcruntime:xpcimports.obj
 0002:00005ea4       ??_C@_0BD@OOGFNAIK@CreateServerSocket@ 10075ea4     xpcruntime:xpcimports.obj
 0002:00005ebc       ??_C@_0BO@GKIJHIPH@CreateServerSocket?5not?5found?6@ 10075ebc     xpcruntime:xpcimports.obj
 0002:00005ee0       ??_C@_0BB@KGHJGFFO@OpenServerListen@ 10075ee0     xpcruntime:xpcimports.obj
 0002:00005ef4       ??_C@_0BM@NFMMLIO@OpenServerListen?5not?5found?6@ 10075ef4     xpcruntime:xpcimports.obj
 0002:00005f18       ??_C@_0BE@BAJLDJAH@ConnectServerSocket@ 10075f18     xpcruntime:xpcimports.obj
 0002:00005f30       ??_C@_0BP@KJNODIKE@ConnectServerSocket?5not?5found?6@ 10075f30     xpcruntime:xpcimports.obj
 0002:00005f58       ??_C@_0BC@PLKKJDIM@CloseServerSocket@ 10075f58     xpcruntime:xpcimports.obj
 0002:00005f70       ??_C@_0BN@KEJEPNMB@CloseServerSocket?5not?5found?6@ 10075f70     xpcruntime:xpcimports.obj
 0002:00005f94       ??_C@_0BD@MCLPKCPP@CreateClientSocket@ 10075f94     xpcruntime:xpcimports.obj
 0002:00005fac       ??_C@_0BO@DILAGPFN@CreateClientSocket?5not?5found?6@ 10075fac     xpcruntime:xpcimports.obj
 0002:00005fd0       ??_C@_0BB@DAPKNNLG@BindClientSocket@ 10075fd0     xpcruntime:xpcimports.obj
 0002:00005fe4       ??_C@_0BM@LLLMMDFN@BindClientSocket?5not?5found?6@ 10075fe4     xpcruntime:xpcimports.obj
 0002:00006008       ??_C@_0BE@DMEBELHC@ConnectClientSocket@ 10076008     xpcruntime:xpcimports.obj
 0002:00006020       ??_C@_0BP@PLOHCPAO@ConnectClientSocket?5not?5found?6@ 10076020     xpcruntime:xpcimports.obj
 0002:00006048       ??_C@_0BC@NHHAOBPJ@CloseClientSocket@ 10076048     xpcruntime:xpcimports.obj
 0002:00006060       ??_C@_0BN@PGKNOKGL@CloseClientSocket?5not?5found?6@ 10076060     xpcruntime:xpcimports.obj
 0002:00006138       __pRawDllMain              10076138     LIBCMT:dll_dllmain.obj
 0002:00006138       __pDefaultRawDllMain       10076138     LIBCMT:dll_dllmain.obj
 0002:00006330       ??_C@_08EHJDFFNH@__based?$CI@ 10076330     libvcruntime:undname.obj
 0002:0000633c       ??_C@_07KOLFKCDI@__cdecl@  1007633c     libvcruntime:undname.obj
 0002:00006348       ??_C@_08GHMPAG@__pascal@   10076348     libvcruntime:undname.obj
 0002:00006354       ??_C@_09IFJBGAPI@__stdcall@ 10076354     libvcruntime:undname.obj
 0002:00006360       ??_C@_0L@NPHFGOKO@__thiscall@ 10076360     libvcruntime:undname.obj
 0002:00006370       ??_C@_0L@JMKHOMEK@__fastcall@ 10076370     libvcruntime:undname.obj
 0002:00006380       ??_C@_0N@BCKKPABJ@__vectorcall@ 10076380     libvcruntime:undname.obj
 0002:00006390       ??_C@_09HIJEGCPM@__clrcall@ 10076390     libvcruntime:undname.obj
 0002:0000639c       ??_C@_06GHPCKEAG@__eabi@   1007639c     libvcruntime:undname.obj
 0002:000063a4       ??_C@_09IOPIDJLG@__swift_1@ 100763a4     libvcruntime:undname.obj
 0002:000063b0       ??_C@_09KFNFGKHF@__swift_2@ 100763b0     libvcruntime:undname.obj
 0002:000063bc       ??_C@_07JOMMBBKO@__ptr64@  100763bc     libvcruntime:undname.obj
 0002:000063c8       ??_C@_0L@PILCLIHE@__restrict@ 100763c8     libvcruntime:undname.obj
 0002:000063d8       ??_C@_0M@GFIIJFMG@__unaligned@ 100763d8     libvcruntime:undname.obj
 0002:000063e8       ??_C@_09DHDLOLLB@restrict?$CI@ 100763e8     libvcruntime:undname.obj
 0002:000063f4       ??_C@_04NIHEBCM@?5new@     100763f4     libvcruntime:undname.obj
 0002:000063fc       ??_C@_07FPCDHGMM@?5delete@ 100763fc     libvcruntime:undname.obj
 0002:00006408       ??_C@_01NEMOKFLO@?$DN@     10076408     libvcruntime:undname.obj
 0002:0000640c       ??_C@_02GPIOPFAK@?$DO?$DO@ 1007640c     libvcruntime:undname.obj
 0002:00006410       ??_C@_02FODMEDOG@?$DM?$DM@ 10076410     libvcruntime:undname.obj
 0002:00006414       ??_C@_01DCLJPIOD@?$CB@     10076414     libvcruntime:undname.obj
 0002:00006418       ??_C@_02EGOFBIJA@?$DN?$DN@ 10076418     libvcruntime:undname.obj
 0002:0000641c       ??_C@_02FDNJECIE@?$CB?$DN@ 1007641c     libvcruntime:undname.obj
 0002:00006420       ??_C@_02GPECMEKF@?$FL?$FN@ 10076420     libvcruntime:undname.obj
 0002:00006424       ??_C@_08LHJFAFGD@operator@ 10076424     libvcruntime:undname.obj
 0002:00006430       ??_C@_02HBOOOICD@?9?$DO@   10076430     libvcruntime:undname.obj
 0002:00006434       ??_C@_01NBENCBCI@?$CK@     10076434     libvcruntime:undname.obj
 0002:00006438       ??_C@_02ECNGHCIF@?$CL?$CL@ 10076438     libvcruntime:undname.obj
 0002:0000643c       ??_C@_02BAABKJLB@?9?9@     1007643c     libvcruntime:undname.obj
 0002:00006440       ??_C@_01JOAMLHOP@?9@       10076440     libvcruntime:undname.obj
 0002:00006444       ??_C@_01MIFGBAGJ@?$CL@     10076444     libvcruntime:undname.obj
 0002:00006448       ??_C@_01HNPIGOCE@?$CG@     10076448     libvcruntime:undname.obj
 0002:0000644c       ??_C@_03MNHNFDLC@?9?$DO?$CK@ 1007644c     libvcruntime:undname.obj
 0002:00006450       ??_C@_01KMDKNFGN@?1@       10076450     libvcruntime:undname.obj
 0002:00006454       ??_C@_01FGNFDNOH@?$CF@     10076454     libvcruntime:undname.obj
 0002:00006458       ??_C@_01MNNFJEPP@?$DM@     10076458     libvcruntime:undname.obj
 0002:0000645c       ??_C@_02EHCHHCKH@?$DM?$DN@ 1007645c     libvcruntime:undname.obj
 0002:00006460       ??_C@_01PPODPGHN@?$DO@     10076460     libvcruntime:undname.obj
 0002:00006464       ??_C@_02EEKDKGMJ@?$DO?$DN@ 10076464     libvcruntime:undname.obj
 0002:00006468       ??_C@_01IHBHIGKO@?0@       10076468     libvcruntime:undname.obj
 0002:0000646c       ??_C@_02HCKGKOFO@?$CI?$CJ@ 1007646c     libvcruntime:undname.obj
 0002:00006470       ??_C@_01PJKLJHI@?$HO@      10076470     libvcruntime:undname.obj
 0002:00006474       ??_C@_01JKBOJNNK@?$FO@     10076474     libvcruntime:undname.obj
 0002:00006478       ??_C@_01DNKMNLPK@?$HM@     10076478     libvcruntime:undname.obj
 0002:0000647c       ??_C@_02PPKAJPJL@?$CG?$CG@ 1007647c     libvcruntime:undname.obj
 0002:00006480       ??_C@_02NONPIBCD@?$HM?$HM@ 10076480     libvcruntime:undname.obj
 0002:00006484       ??_C@_02FPIMKNGF@?$CK?$DN@ 10076484     libvcruntime:undname.obj
 0002:00006488       ??_C@_02FOEOMHFC@?$CL?$DN@ 10076488     libvcruntime:undname.obj
 0002:0000648c       ??_C@_02FKMDLLOA@?9?$DN@   1007648c     libvcruntime:undname.obj
 0002:00006490       ??_C@_02FJEHGPIO@?1?$DN@   10076490     libvcruntime:undname.obj
 0002:00006494       ??_C@_02FENAOKFI@?$CF?$DN@ 10076494     libvcruntime:undname.obj
 0002:00006498       ??_C@_03IKFCCPFF@?$DO?$DO?$DN@ 10076498     libvcruntime:undname.obj
 0002:0000649c       ??_C@_03CDNPDDLA@?$DM?$DM?$DN@ 1007649c     libvcruntime:undname.obj
 0002:000064a0       ??_C@_02FGJGFEAB@?$CG?$DN@ 100764a0     libvcruntime:undname.obj
 0002:000064a4       ??_C@_02DHLNPPGH@?$HM?$DN@ 100764a4     libvcruntime:undname.obj
 0002:000064a8       ??_C@_02MHEGNOJ@?$FO?$DN@  100764a8     libvcruntime:undname.obj
 0002:000064ac       ??_C@_09IFPLHPGF@?$GAvftable?8@ 100764ac     libvcruntime:undname.obj
 0002:000064b8       ??_C@_09BLBHBJP@?$GAvbtable?8@ 100764b8     libvcruntime:undname.obj
 0002:000064c4       ??_C@_07FEEIOKP@?$GAvcall?8@ 100764c4     libvcruntime:undname.obj
 0002:000064d0       ??_C@_08LLFFHHDJ@?$GAtypeof?8@ 100764d0     libvcruntime:undname.obj
 0002:000064dc       ??_C@_0BF@KDPPACIK@?$GAlocal?5static?5guard?8@ 100764dc     libvcruntime:undname.obj
 0002:000064f8       ??_C@_08OBABFOLI@?$GAstring?8@ 100764f8     libvcruntime:undname.obj
 0002:00006504       ??_C@_0BD@JDLKDPAB@?$GAvbase?5destructor?8@ 10076504     libvcruntime:undname.obj
 0002:0000651c       ??_C@_0BN@DEGPLNFK@?$GAvector?5deleting?5destructor?8@ 1007651c     libvcruntime:undname.obj
 0002:00006540       ??_C@_0BO@OBMKPJIG@?$GAdefault?5constructor?5closure?8@ 10076540     libvcruntime:undname.obj
 0002:00006564       ??_C@_0BN@IMDCHIKM@?$GAscalar?5deleting?5destructor?8@ 10076564     libvcruntime:undname.obj
 0002:00006588       ??_C@_0BO@PFGOCPJJ@?$GAvector?5constructor?5iterator?8@ 10076588     libvcruntime:undname.obj
 0002:000065ac       ??_C@_0BN@LFPFMEDL@?$GAvector?5destructor?5iterator?8@ 100765ac     libvcruntime:undname.obj
 0002:000065d0       ??_C@_0CE@IKBNEHA@?$GAvector?5vbase?5constructor?5itera@ 100765d0     libvcruntime:undname.obj
 0002:000065fc       ??_C@_0BL@NILFHHPC@?$GAvirtual?5displacement?5map?8@ 100765fc     libvcruntime:undname.obj
 0002:0000661c       ??_C@_0CB@JONCMFFK@?$GAeh?5vector?5constructor?5iterator@ 1007661c     libvcruntime:undname.obj
 0002:00006644       ??_C@_0CA@GCEOPDGL@?$GAeh?5vector?5destructor?5iterator?8@ 10076644     libvcruntime:undname.obj
 0002:0000666c       ??_C@_0CH@OOJPLCPH@?$GAeh?5vector?5vbase?5constructor?5it@ 1007666c     libvcruntime:undname.obj
 0002:0000669c       ??_C@_0BL@LLKPOHJI@?$GAcopy?5constructor?5closure?8@ 1007669c     libvcruntime:undname.obj
 0002:000066bc       ??_C@_0BA@KBCDOMBN@?$GAudt?5returning?8@ 100766bc     libvcruntime:undname.obj
 0002:000066d0       ??_C@_03KLGMFNMG@?$GAEH@   100766d0     libvcruntime:undname.obj
 0002:000066d4       ??_C@_05KHLCHHI@?$GARTTI@  100766d4     libvcruntime:undname.obj
 0002:000066dc       ??_C@_0BA@KKLDJDLB@?$GAlocal?5vftable?8@ 100766dc     libvcruntime:undname.obj
 0002:000066f0       ??_C@_0CE@IIHCMGGL@?$GAlocal?5vftable?5constructor?5clos@ 100766f0     libvcruntime:undname.obj
 0002:0000671c       ??_C@_06FHBGPFGH@?5new?$FL?$FN@ 1007671c     libvcruntime:undname.obj
 0002:00006724       ??_C@_09LBNFPBCA@?5delete?$FL?$FN@ 10076724     libvcruntime:undname.obj
 0002:00006730       ??_C@_0P@HJKNJFNN@?$GAomni?5callsig?8@ 10076730     libvcruntime:undname.obj
 0002:00006744       ??_C@_0BL@CNOONJFP@?$GAplacement?5delete?5closure?8@ 10076744     libvcruntime:undname.obj
 0002:00006764       ??_C@_0BN@CKNJLHMB@?$GAplacement?5delete?$FL?$FN?5closure?8@ 10076764     libvcruntime:undname.obj
 0002:00006788       ??_C@_0CG@CFDHKGGD@?$GAmanaged?5vector?5constructor?5ite@ 10076788     libvcruntime:undname.obj
 0002:000067b8       ??_C@_0CF@IMGKMJNO@?$GAmanaged?5vector?5destructor?5iter@ 100767b8     libvcruntime:undname.obj
 0002:000067e4       ??_C@_0CG@HLDDJMAG@?$GAeh?5vector?5copy?5constructor?5ite@ 100767e4     libvcruntime:undname.obj
 0002:00006814       ??_C@_0CM@FCBBDIGB@?$GAeh?5vector?5vbase?5copy?5construct@ 10076814     libvcruntime:undname.obj
 0002:00006848       ??_C@_0BL@CLIPGLGB@?$GAdynamic?5initializer?5for?5?8@ 10076848     libvcruntime:undname.obj
 0002:00006868       ??_C@_0CB@PDBIFEP@?$GAdynamic?5atexit?5destructor?5for?5@ 10076868     libvcruntime:undname.obj
 0002:00006890       ??_C@_0CD@CGAJBKEJ@?$GAvector?5copy?5constructor?5iterat@ 10076890     libvcruntime:undname.obj
 0002:000068bc       ??_C@_0CJ@GJELGAMM@?$GAvector?5vbase?5copy?5constructor?5@ 100768bc     libvcruntime:undname.obj
 0002:000068f0       ??_C@_0CL@FGIJHLCE@?$GAmanaged?5vector?5copy?5constructo@ 100768f0     libvcruntime:undname.obj
 0002:00006924       ??_C@_0BM@PMGGMLDN@?$GAlocal?5static?5thread?5guard?8@ 10076924     libvcruntime:undname.obj
 0002:00006948       ??_C@_0N@BDNMDMOL@operator?5?$CC?$CC?5@ 10076948     libvcruntime:undname.obj
 0002:00006958       ??_C@_0BC@GGEBGALA@operator?5co_await@ 10076958     libvcruntime:undname.obj
 0002:00006970       ??_C@_0BC@DAFEJGAK@?5Type?5Descriptor?8@ 10076970     libvcruntime:undname.obj
 0002:00006988       ??_C@_0BM@LDKODKLH@?5Base?5Class?5Descriptor?5at?5?$CI@ 10076988     libvcruntime:undname.obj
 0002:000069ac       ??_C@_0BD@LGICGFMM@?5Base?5Class?5Array?8@ 100769ac     libvcruntime:undname.obj
 0002:000069c4       ??_C@_0BN@MECKDCOJ@?5Class?5Hierarchy?5Descriptor?8@ 100769c4     libvcruntime:undname.obj
 0002:000069e8       ??_C@_0BK@CFCOFLF@?5Complete?5Object?5Locator?8@ 100769e8     libvcruntime:undname.obj
 0002:00006a08       ??_C@_04HEJADOOB@CV?3?5@   10076a08     libvcruntime:undname.obj
 0002:00006a10       ??_C@_02MOLJINC@?3?3@      10076a10     libvcruntime:undname.obj
 0002:00006a14       ??_C@_0BE@JAEOCHPE@template?9parameter?9@ 10076a14     libvcruntime:undname.obj
 0002:00006a2c       ??_C@_0O@KHGCOMHP@generic?9type?9@ 10076a2c     libvcruntime:undname.obj
 0002:00006a3c       ??_C@_01NLNLIGKH@?$GA@     10076a3c     libvcruntime:undname.obj
 0002:00006a40       ??_C@_01GEODFPGF@?8@       10076a40     libvcruntime:undname.obj
 0002:00006a44       ??_C@_0BG@JNJLAMPM@?$GAanonymous?5namespace?8@ 10076a44     libvcruntime:undname.obj
 0002:00006a60       ??_C@_02OHHJMEON@?8?8@     10076a60     libvcruntime:undname.obj
 0002:00006a64       ??_C@_0BN@IBLMMFAP@?$GAnon?9type?9template?9parameter@ 10076a64     libvcruntime:undname.obj
 0002:00006a88       ??_C@_04GKJNKENE@void@     10076a88     libvcruntime:undname.obj
 0002:00006a90       ??_C@_0BE@EODMJLIF@?$GAtemplate?9parameter@ 10076a90     libvcruntime:undname.obj
 0002:00006aa8       ??_C@_03KHICJKCI@?4?4?4@   10076aa8     libvcruntime:undname.obj
 0002:00006aac       ??_C@_04HIBGFPH@NULL@      10076aac     libvcruntime:undname.obj
 0002:00006ab4       ??_C@_02DPKJAMEF@?$CFd@    10076ab4     libvcruntime:undname.obj
 0002:00006ab8       ??_C@_0BK@IHCCFNEL@?$GAtemplate?9type?9parameter?9@ 10076ab8     libvcruntime:undname.obj
 0002:00006ad8       ??_C@_0BK@OFCNNNKO@?$GAgeneric?9class?9parameter?9@ 10076ad8     libvcruntime:undname.obj
 0002:00006af8       ??_C@_0BL@NGJBLFIL@?$GAgeneric?9method?9parameter?9@ 10076af8     libvcruntime:undname.obj
 0002:00006b18       ??_C@_03OPGICMGF@?$HN?8?5@ 10076b18     libvcruntime:undname.obj
 0002:00006b1c       ??_C@_02IGFCGPIL@?$HN?8@   10076b1c     libvcruntime:undname.obj
 0002:00006b20       ??_C@_01CLKCMJKC@?5@       10076b20     libvcruntime:undname.obj
 0002:00006b24       ??_C@_0N@CBHHHENL@?$GAvtordispex?$HL@ 10076b24     libvcruntime:undname.obj
 0002:00006b34       ??_C@_0L@GHPFDFH@?$GAvtordisp?$HL@ 10076b34     libvcruntime:undname.obj
 0002:00006b44       ??_C@_0L@HNGCOGAE@?$GAadjustor?$HL@ 10076b44     libvcruntime:undname.obj
 0002:00006b54       ??_C@_0CB@KJDOOODE@?$GAlocal?5static?5destructor?5helper@ 10076b54     libvcruntime:undname.obj
 0002:00006b7c       ??_C@_0DB@ILEFOCIJ@?$GAtemplate?5static?5data?5member?5co@ 10076b7c     libvcruntime:undname.obj
 0002:00006bb8       ??_C@_0DA@HGFJFBBE@?$GAtemplate?5static?5data?5member?5de@ 10076bb8     libvcruntime:undname.obj
 0002:00006bf4       ??_C@_07PGOEDBHP@static?5@ 10076bf4     libvcruntime:undname.obj
 0002:00006c00       ??_C@_08NIEOINHE@virtual?5@ 10076c00     libvcruntime:undname.obj
 0002:00006c0c       ??_C@_09LAPHOOG@private?3?5@ 10076c0c     libvcruntime:undname.obj
 0002:00006c18       ??_C@_0M@GAIFPFIP@protected?3?5@ 10076c18     libvcruntime:undname.obj
 0002:00006c28       ??_C@_08GPDDCMKI@public?3?5@ 10076c28     libvcruntime:undname.obj
 0002:00006c34       ??_C@_08KJLFOPNE@?$FLthunk?$FN?3@ 10076c34     libvcruntime:undname.obj
 0002:00006c40       ??_C@_0M@DHNBOJMP@extern?5?$CCC?$CC?5@ 10076c40     libvcruntime:undname.obj
 0002:00006c50       ??_C@_02KCKGHPCA@?$CJ?5@   10076c50     libvcruntime:undname.obj
 0002:00006c54       ??_C@_05CIHEBHNO@char?5@   10076c54     libvcruntime:undname.obj
 0002:00006c5c       ??_C@_06EHJMALKF@short?5@  10076c5c     libvcruntime:undname.obj
 0002:00006c64       ??_C@_04LAHKHJMA@int?5@    10076c64     libvcruntime:undname.obj
 0002:00006c6c       ??_C@_05CJIMAING@long?5@   10076c6c     libvcruntime:undname.obj
 0002:00006c74       ??_C@_09EBBEKKIH@unsigned?5@ 10076c74     libvcruntime:undname.obj
 0002:00006c80       ??_C@_05BEFAKPML@void?5@   10076c80     libvcruntime:undname.obj
 0002:00006c88       ??_C@_08PABEKFH@volatile@  10076c88     libvcruntime:undname.obj
 0002:00006c94       ??_C@_0BA@LKIJLKPP@std?3?3nullptr_t?5@ 10076c94     libvcruntime:undname.obj
 0002:00006ca8       ??_C@_0P@GCOCNKDM@std?3?3nullptr_t@ 10076ca8     libvcruntime:undname.obj
 0002:00006cbc       ??_C@_0L@EGPHHEKN@?$DMellipsis?$DO@ 10076cbc     libvcruntime:undname.obj
 0002:00006ccc       ??_C@_04EENFHACM@?0?4?4?4@ 10076ccc     libvcruntime:undname.obj
 0002:00006cd4       ??_C@_0M@ELJOJFFH@?0?$DMellipsis?$DO@ 10076cd4     libvcruntime:undname.obj
 0002:00006ce4       ??_C@_09DNHFEOJI@?5noexcept@ 10076ce4     libvcruntime:undname.obj
 0002:00006cf0       ??_C@_03PBJBJNON@cpu@      10076cf0     libvcruntime:undname.obj
 0002:00006cf4       ??_C@_03DCBBJBAA@amp@      10076cf4     libvcruntime:undname.obj
 0002:00006cf8       ??_C@_02KEGNLNML@?0?5@     10076cf8     libvcruntime:undname.obj
 0002:00006cfc       ??_C@_04ENMBGAPA@char@     10076cfc     libvcruntime:undname.obj
 0002:00006d04       ??_C@_05BFKKPKCG@short@    10076d04     libvcruntime:undname.obj
 0002:00006d0c       ??_C@_03JBIPMCLC@int@      10076d0c     libvcruntime:undname.obj
 0002:00006d10       ??_C@_04GOKPGOLB@long@     10076d10     libvcruntime:undname.obj
 0002:00006d18       ??_C@_04DDKJGDCM@bool@     10076d18     libvcruntime:undname.obj
 0002:00006d20       ??_C@_06EBGKOKIG@__int8@   10076d20     libvcruntime:undname.obj
 0002:00006d28       ??_C@_07ICFHOGAF@__int16@  10076d28     libvcruntime:undname.obj
 0002:00006d34       ??_C@_07OFLPPHGP@__int32@  10076d34     libvcruntime:undname.obj
 0002:00006d40       ??_C@_07LFCOJCAC@__int64@  10076d40     libvcruntime:undname.obj
 0002:00006d4c       ??_C@_08GAHOLHEO@__int128@ 10076d4c     libvcruntime:undname.obj
 0002:00006d58       ??_C@_09EEKGDCPH@?$DMunknown?$DO@ 10076d58     libvcruntime:undname.obj
 0002:00006d64       ??_C@_08HBIPOFJB@char16_t@ 10076d64     libvcruntime:undname.obj
 0002:00006d70       ??_C@_08IECNCBKG@char32_t@ 10076d70     libvcruntime:undname.obj
 0002:00006d7c       ??_C@_07CLGGIAMF@wchar_t@  10076d7c     libvcruntime:undname.obj
 0002:00006d88       ??_C@_06GCICPBLB@__w64?5@  10076d88     libvcruntime:undname.obj
 0002:00006d90       ??_C@_07NFANNNEC@UNKNOWN@  10076d90     libvcruntime:undname.obj
 0002:00006d9c       ??_C@_07EDHNAJHC@signed?5@ 10076d9c     libvcruntime:undname.obj
 0002:00006da8       ??_C@_05BNCCCJPP@const@    10076da8     libvcruntime:undname.obj
 0002:00006db0       ??_C@_09EFNPDFFP@?5volatile@ 10076db0     libvcruntime:undname.obj
 0002:00006dbc       ??_C@_0P@GCIFDJCJ@?$GAunknown?5ecsu?8@ 10076dbc     libvcruntime:undname.obj
 0002:00006dd0       ??_C@_06MOJHIBMG@union?5@  10076dd0     libvcruntime:undname.obj
 0002:00006dd8       ??_C@_07DIBCDNGL@struct?5@ 10076dd8     libvcruntime:undname.obj
 0002:00006de4       ??_C@_06LJBABKPM@class?5@  10076de4     libvcruntime:undname.obj
 0002:00006dec       ??_C@_08KOFANOFK@coclass?5@ 10076dec     libvcruntime:undname.obj
 0002:00006df8       ??_C@_0N@DLIEFKNA@cointerface?5@ 10076df8     libvcruntime:undname.obj
 0002:00006e08       ??_C@_05LJGMCFOG@enum?5@   10076e08     libvcruntime:undname.obj
 0002:00006e10       ??_C@_09GAIEOBLP@volatile?5@ 10076e10     libvcruntime:undname.obj
 0002:00006e1c       ??_C@_06LIJLOJAG@const?5@  10076e1c     libvcruntime:undname.obj
 0002:00006e24       ??_C@_02KJPKDIBN@?$CG?5@   10076e24     libvcruntime:undname.obj
 0002:00006e28       ??_C@_03PCKGMOPB@?$CG?$CG?5@ 10076e28     libvcruntime:undname.obj
 0002:00006e2c       ??_C@_0M@EALIELKG@cli?3?3array?$DM@ 10076e2c     libvcruntime:undname.obj
 0002:00006e3c       ??_C@_0O@GKABPPIF@cli?3?3pin_ptr?$DM@ 10076e3c     libvcruntime:undname.obj
 0002:00006e4c       ??_C@_02GOGNNPBN@?$CJ?$FL@ 10076e4c     libvcruntime:undname.obj
 0002:00006e50       ??_C@_06EEGAIFAK@?$HLflat?$HN@ 10076e50     libvcruntime:undname.obj
 0002:00006e58       ??_C@_05JIBOFOHK@?$HLfor?5@ 10076e58     libvcruntime:undname.obj
 0002:00006e60       ??_C@_02MDINNEEG@s?5@      10076e60     libvcruntime:undname.obj
 0002:00006e68       ??_7DNameNode@@6B@         10076e68     libvcruntime:undname.obj
 0002:00006e7c       ??_7charNode@@6B@          10076e7c     libvcruntime:undname.obj
 0002:00006e90       ??_7pcharNode@@6B@         10076e90     libvcruntime:undname.obj
 0002:00006ea4       ??_7pDNameNode@@6B@        10076ea4     libvcruntime:undname.obj
 0002:00006eb8       ??_7DNameStatusNode@@6B@   10076eb8     libvcruntime:undname.obj
 0002:00006ecc       ??_7pairNode@@6B@          10076ecc     libvcruntime:undname.obj
 0002:00006edc       ??_C@_04OKOHEJBO@?5?$DP?$DP?5@ 10076edc     libvcruntime:undname.obj
 0002:00006ee4       ?nodes@?1??make@DNameStatusNode@@SAPBV2@W4DNameStatus@@@Z@4QBV2@B 10076ee4     libvcruntime:undname.obj
 0002:00006f30       ??_C@_1DM@KHCHBNEB@?$AAa?$AAp?$AAi?$AA?9?$AAm?$AAs?$AA?9?$AAw?$AAi?$AAn?$AA?9?$AAc?$AAo?$AAr?$AAe@ 10076f30     libvcruntime:winapi_downlevel.obj
 0002:00006f78       ??_C@_1DK@LPPGFMPP@?$AAa?$AAp?$AAi?$AA?9?$AAm?$AAs?$AA?9?$AAw?$AAi?$AAn?$AA?9?$AAc?$AAo?$AAr?$AAe@ 10076f78     libvcruntime:winapi_downlevel.obj
 0002:00006fc0       ??_C@_1BC@GDMECMAK@?$AAk?$AAe?$AAr?$AAn?$AAe?$AAl?$AA3?$AA2@ 10076fc0     libvcruntime:winapi_downlevel.obj
 0002:00006fd8       ??_C@_1BA@PFFKHIOG@?$AAa?$AAp?$AAi?$AA?9?$AAm?$AAs?$AA?9@ 10076fd8     libvcruntime:winapi_downlevel.obj
 0002:00006fec       ??_C@_1BA@IAIFMGEF@?$AAe?$AAx?$AAt?$AA?9?$AAm?$AAs?$AA?9@ 10076fec     libvcruntime:winapi_downlevel.obj
 0002:0000700c       ??_C@_08KNHFBNJ@FlsAlloc@  1007700c     libvcruntime:winapi_downlevel.obj
 0002:00007024       ??_C@_07PEJMOBNF@FlsFree@  10077024     libvcruntime:winapi_downlevel.obj
 0002:0000703c       ??_C@_0M@GDNOONDI@FlsGetValue@ 1007703c     libvcruntime:winapi_downlevel.obj
 0002:00007058       ??_C@_0M@JCPCPOEF@FlsSetValue@ 10077058     libvcruntime:winapi_downlevel.obj
 0002:00007074       ??_C@_0BM@HCFOFFN@InitializeCriticalSectionEx@ 10077074     libvcruntime:winapi_downlevel.obj
 0002:0000709c       ??_7exception@std@@6B@     1007709c     libvcruntime:frame.obj
 0002:000070a8       ??_C@_0BC@EOODALEL@Unknown?5exception@ 100770a8     libvcruntime:frame.obj
 0002:000070c4       ??_7bad_exception@std@@6B@ 100770c4     libvcruntime:frame.obj
 0002:000070d0       ??_C@_0O@DPKOEFFH@bad?5exception@ 100770d0     libvcruntime:frame.obj
 0002:000070e0       __pDestructExceptionObject 100770e0     libvcruntime:ehhelpers.obj
 0002:0000710c       ??_C@_0CK@CFPGFGGO@Assertion?5failed?3?5?$CFTs?0?5file?5?$CFTs?0@ 1007710c     libucrt:assert.obj
 0002:00007140       ??_C@_1FE@LHBLIKM@?$AAA?$AAs?$AAs?$AAe?$AAr?$AAt?$AAi?$AAo?$AAn?$AA?5?$AAf?$AAa?$AAi?$AAl?$AAe?$AAd?$AA?3?$AA?5?$AA?$CF?$AAT?$AAs?$AA?0?$AA?5?$AAf?$AAi?$AAl?$AAe?$AA?5?$AA?$CF?$AAT?$AAs?$AA?0@ 10077140     libucrt:assert.obj
 0002:000071a4       ??_C@_0CF@GOGNBNAK@Microsoft?5Visual?5C?$CL?$CL?5Runtime?5Lib@ 100771a4     libucrt:assert.obj
 0002:000071d0       ??_C@_1EK@MBDPDCGA@?$AAM?$AAi?$AAc?$AAr?$AAo?$AAs?$AAo?$AAf?$AAt?$AA?5?$AAV?$AAi?$AAs?$AAu?$AAa?$AAl?$AA?5?$AAC?$AA?$CL?$AA?$CL?$AA?5?$AAR?$AAu?$AAn?$AAt?$AAi?$AAm?$AAe?$AA?5?$AAL?$AAi?$AAb@ 100771d0     libucrt:assert.obj
 0002:00007228       ??_C@_0BC@LAIDCHCH@Assertion?5failed?$CB?$AA@ 10077228     libucrt:assert.obj
 0002:00007240       ??_C@_1CE@OJBNHDMO@?$AAA?$AAs?$AAs?$AAe?$AAr?$AAt?$AAi?$AAo?$AAn?$AA?5?$AAf?$AAa?$AAi?$AAl?$AAe?$AAd?$AA?$CB?$AA?$AA@ 10077240     libucrt:assert.obj
 0002:0000726c       ??_C@_09KLGCKDOD@Program?3?5?$AA@ 1007726c     libucrt:assert.obj
 0002:00007278       ??_C@_1BE@PHKBBGE@?$AAP?$AAr?$AAo?$AAg?$AAr?$AAa?$AAm?$AA?3?$AA?5?$AA?$AA@ 10077278     libucrt:assert.obj
 0002:00007290       ??_C@_06IGPBOHMJ@File?3?5?$AA@ 10077290     libucrt:assert.obj
 0002:00007298       ??_C@_1O@HEMHKNDC@?$AAF?$AAi?$AAl?$AAe?$AA?3?$AA?5?$AA?$AA@ 10077298     libucrt:assert.obj
 0002:000072a8       ??_C@_06FIEBOLOH@Line?3?5?$AA@ 100772a8     libucrt:assert.obj
 0002:000072b0       ??_C@_1O@KCAFKHJE@?$AAL?$AAi?$AAn?$AAe?$AA?3?$AA?5?$AA?$AA@ 100772b0     libucrt:assert.obj
 0002:000072c0       ??_C@_0N@MEECIJGN@Expression?3?5?$AA@ 100772c0     libucrt:assert.obj
 0002:000072d0       ??_C@_1BK@PEDCIPMA@?$AAE?$AAx?$AAp?$AAr?$AAe?$AAs?$AAs?$AAi?$AAo?$AAn?$AA?3?$AA?5?$AA?$AA@ 100772d0     libucrt:assert.obj
 0002:000072f0       ??_C@_0HA@OJHAGA@For?5information?5on?5how?5your?5prog@ 100772f0     libucrt:assert.obj
 0002:00007378       ??_C@_1OA@EGMLFBHJ@?$AAF?$AAo?$AAr?$AA?5?$AAi?$AAn?$AAf?$AAo?$AAr?$AAm?$AAa?$AAt?$AAi?$AAo?$AAn?$AA?5?$AAo?$AAn?$AA?5?$AAh?$AAo?$AAw?$AA?5?$AAy?$AAo?$AAu?$AAr?$AA?5?$AAp?$AAr?$AAo?$AAg@ 10077378     libucrt:assert.obj
 0002:00007484       ??_C@_0DN@EBBNMLME@?$CIPress?5Retry?5to?5debug?5the?5applic@ 10077484     libucrt:assert.obj
 0002:000074d0       ??_C@_1HK@POCJMFGK@?$AA?$CI?$AAP?$AAr?$AAe?$AAs?$AAs?$AA?5?$AAR?$AAe?$AAt?$AAr?$AAy?$AA?5?$AAt?$AAo?$AA?5?$AAd?$AAe?$AAb?$AAu?$AAg?$AA?5?$AAt?$AAh?$AAe?$AA?5?$AAa?$AAp?$AAp?$AAl?$AAi?$AAc@ 100774d0     libucrt:assert.obj
 0002:00007564       ??_C@_03KHICJKCI@?4?4?4?$AA@ 10077564     libucrt:assert.obj
 0002:00007568       ??_C@_17LGKOMLJ@?$AA?4?$AA?4?$AA?4?$AA?$AA@ 10077568     libucrt:assert.obj
 0002:00007574       ??_C@_01EEMJAFIK@?6?$AA@   10077574     libucrt:assert.obj
 0002:00007578       ??_C@_13LBAGMAIH@?$AA?6?$AA?$AA@ 10077578     libucrt:assert.obj
 0002:0000757c       ??_C@_02PHMGELLB@?6?6?$AA@ 1007757c     libucrt:assert.obj
 0002:00007580       ??_C@_15IABLJNFO@?$AA?6?$AA?6?$AA?$AA@ 10077580     libucrt:assert.obj
 0002:00007588       ??_C@_0BH@DNAGHKFM@?$DMprogram?5name?5unknown?$DO?$AA@ 10077588     libucrt:assert.obj
 0002:000075a4       ??_C@_1CO@EAEJAADC@?$AA?$DM?$AAp?$AAr?$AAo?$AAg?$AAr?$AAa?$AAm?$AA?5?$AAn?$AAa?$AAm?$AAe?$AA?5?$AAu?$AAn?$AAk?$AAn?$AAo?$AAw?$AAn?$AA?$DO?$AA?$AA@ 100775a4     libucrt:assert.obj
 0002:000075dc       _RtlNtPathSeperatorString  100775dc     libucrt:exit.obj
 0002:000075e8       ??_C@_13FPGAJAPJ@?$AA?2?$AA?$AA@ 100775e8     libucrt:exit.obj
 0002:000075ec       _RtlDosPathSeperatorsString 100775ec     libucrt:exit.obj
 0002:000075f8       ??_C@_15MNCACJLI@?$AA?2?$AA?1?$AA?$AA@ 100775f8     libucrt:exit.obj
 0002:00007600       _RtlAlternateDosPathSeperatorString 10077600     libucrt:exit.obj
 0002:0000760c       ??_C@_13CGOKJPIL@?$AA?1?$AA?$AA@ 1007760c     libucrt:exit.obj
 0002:00007610       ??_C@_1BI@BGOHAHKC@?$AAm?$AAs?$AAc?$AAo?$AAr?$AAe?$AAe?$AA?4?$AAd?$AAl?$AAl?$AA?$AA@ 10077610     libucrt:exit.obj
 0002:0000762c       ??_C@_0P@MIGLKIOC@CorExitProcess?$AA@ 1007762c     libucrt:exit.obj
 0002:00007640       _standard_lookup_table     10077640     libucrt:output.obj
 0002:000076b0       _format_validation_lookup_table 100776b0     libucrt:output.obj
 0002:00007720       ??_C@_1O@CEDCILHN@?$AA?$CI?$AAn?$AAu?$AAl?$AAl?$AA?$CJ?$AA?$AA@ 10077720     libucrt:output.obj
 0002:00007730       ??_C@_06OJHGLDPL@?$CInull?$CJ?$AA@ 10077730     libucrt:output.obj
 0002:00007738       __real@0000000000000000    10077738     libucrt:ldexp.obj
 0002:00007860       ??_C@_03KHJOGHMM@exp?$AA@  10077860     libucrt:fpexcept.obj
 0002:00007864       ??_C@_03JGHBODFD@pow?$AA@  10077864     libucrt:fpexcept.obj
 0002:00007868       ??_C@_03MGHMBJCF@log?$AA@  10077868     libucrt:fpexcept.obj
 0002:0000786c       ??_C@_05HGHHAHAP@log10?$AA@ 1007786c     libucrt:fpexcept.obj
 0002:00007874       ??_C@_04COOMCNPB@sinh?$AA@ 10077874     libucrt:fpexcept.obj
 0002:0000787c       ??_C@_04HPJJNFIM@cosh?$AA@ 1007787c     libucrt:fpexcept.obj
 0002:00007884       ??_C@_04FJHINJAO@tanh?$AA@ 10077884     libucrt:fpexcept.obj
 0002:0000788c       ??_C@_04FIHNOPOL@asin?$AA@ 1007788c     libucrt:fpexcept.obj
 0002:00007894       ??_C@_04PDIFKINK@acos?$AA@ 10077894     libucrt:fpexcept.obj
 0002:0000789c       ??_C@_04MLLJIGOK@atan?$AA@ 1007789c     libucrt:fpexcept.obj
 0002:000078a4       ??_C@_05KNGEOGJB@atan2?$AA@ 100778a4     libucrt:fpexcept.obj
 0002:000078ac       ??_C@_04EIAKFFMI@sqrt?$AA@ 100778ac     libucrt:fpexcept.obj
 0002:000078b4       ??_C@_03BLEJJJBH@sin?$AA@  100778b4     libucrt:fpexcept.obj
 0002:000078b8       ??_C@_03LALBNOCG@cos?$AA@  100778b8     libucrt:fpexcept.obj
 0002:000078bc       ??_C@_03IIINPABG@tan?$AA@  100778bc     libucrt:fpexcept.obj
 0002:000078c0       ??_C@_04GFPJNGEK@ceil?$AA@ 100778c0     libucrt:fpexcept.obj
 0002:000078c8       ??_C@_05PBJFFIGL@floor?$AA@ 100778c8     libucrt:fpexcept.obj
 0002:000078d0       ??_C@_04ODHECPBC@fabs?$AA@ 100778d0     libucrt:fpexcept.obj
 0002:000078d8       ??_C@_04EHEDPDJG@modf?$AA@ 100778d8     libucrt:fpexcept.obj
 0002:000078e0       ??_C@_05CEJMAHNP@ldexp?$AA@ 100778e0     libucrt:fpexcept.obj
 0002:000078e8       ??_C@_05KBKMEMPO@_cabs?$AA@ 100778e8     libucrt:fpexcept.obj
 0002:000078f0       ??_C@_06MEIMCGCF@_hypot?$AA@ 100778f0     libucrt:fpexcept.obj
 0002:000078f8       ??_C@_04KEPJIHGP@fmod?$AA@ 100778f8     libucrt:fpexcept.obj
 0002:00007900       ??_C@_05GKKHEGJL@frexp?$AA@ 10077900     libucrt:fpexcept.obj
 0002:00007908       ??_C@_03MJLDFKDL@_y0?$AA@  10077908     libucrt:fpexcept.obj
 0002:0000790c       ??_C@_03NAKIGLHK@_y1?$AA@  1007790c     libucrt:fpexcept.obj
 0002:00007910       ??_C@_03ONILCKOB@_yn?$AA@  10077910     libucrt:fpexcept.obj
 0002:00007914       ??_C@_05JGDBENOH@_logb?$AA@ 10077914     libucrt:fpexcept.obj
 0002:0000791c       ??_C@_0L@KDOEJCKC@_nextafter?$AA@ 1007791c     libucrt:fpexcept.obj
 0002:00007930       ___acrt_exception_action_table 10077930     libucrt:exception_filter.obj
 0002:000079dc       ___acrt_signal_action_table_count 100779dc     libucrt:exception_filter.obj
 0002:000079e0       ___acrt_signal_action_table_size 100779e0     libucrt:exception_filter.obj
 0002:000079e4       ___acrt_signal_action_first_fpe_index 100779e4     libucrt:exception_filter.obj
 0002:000079e8       ___acrt_signal_action_fpe_count 100779e8     libucrt:exception_filter.obj
 0002:00007a8c       __Fenv1                    10077a8c     libucrt:atox.obj
 0002:00007a98       ??_C@_1DE@JNGNBFGO@?$AAR?$AAu?$AAn?$AAt?$AAi?$AAm?$AAe?$AA?5?$AAE?$AAr?$AAr?$AAo?$AAr?$AA?$CB?$AA?6?$AA?6?$AAP?$AAr?$AAo?$AAg?$AAr?$AAa?$AAm?$AA?3?$AA?5?$AA?$AA@ 10077a98     libucrt:report_runtime_error.obj
 0002:00007ce0       ??_C@_1EA@JGEFHKEI@?$AAa?$AAp?$AAi?$AA?9?$AAm?$AAs?$AA?9?$AAw?$AAi?$AAn?$AA?9?$AAc?$AAo?$AAr?$AAe?$AA?9?$AAd?$AAa?$AAt?$AAe?$AAt?$AAi?$AAm?$AAe?$AA?9?$AAl?$AA1?$AA?9?$AA1?$AA?9?$AA1?$AA?$AA@ 10077ce0     libucrt:winapi_thunks.obj
 0002:00007d2c       ??_C@_1DM@KHCHBNEB@?$AAa?$AAp?$AAi?$AA?9?$AAm?$AAs?$AA?9?$AAw?$AAi?$AAn?$AA?9?$AAc?$AAo?$AAr?$AAe?$AA?9?$AAf?$AAi?$AAb?$AAe?$AAr?$AAs?$AA?9?$AAl?$AA1?$AA?9?$AA1?$AA?9?$AA1?$AA?$AA@ 10077d2c     libucrt:winapi_thunks.obj
 0002:00007d74       ??_C@_1DI@IJCEHOCB@?$AAa?$AAp?$AAi?$AA?9?$AAm?$AAs?$AA?9?$AAw?$AAi?$AAn?$AA?9?$AAc?$AAo?$AAr?$AAe?$AA?9?$AAf?$AAi?$AAl?$AAe?$AA?9?$AAl?$AA1?$AA?9?$AA2?$AA?9?$AA2?$AA?$AA@ 10077d74     libucrt:winapi_thunks.obj
 0002:00007db8       ??_C@_1EI@MPIAOHOC@?$AAa?$AAp?$AAi?$AA?9?$AAm?$AAs?$AA?9?$AAw?$AAi?$AAn?$AA?9?$AAc?$AAo?$AAr?$AAe?$AA?9?$AAl?$AAo?$AAc?$AAa?$AAl?$AAi?$AAz?$AAa?$AAt?$AAi?$AAo?$AAn?$AA?9?$AAl?$AA1?$AA?9@ 10077db8     libucrt:winapi_thunks.obj
 0002:00007e10       ??_C@_1FK@FPHCKFIE@?$AAa?$AAp?$AAi?$AA?9?$AAm?$AAs?$AA?9?$AAw?$AAi?$AAn?$AA?9?$AAc?$AAo?$AAr?$AAe?$AA?9?$AAl?$AAo?$AAc?$AAa?$AAl?$AAi?$AAz?$AAa?$AAt?$AAi?$AAo?$AAn?$AA?9?$AAo?$AAb?$AAs@ 10077e10     libucrt:winapi_thunks.obj
 0002:00007e80       ??_C@_1EM@DILCGIIO@?$AAa?$AAp?$AAi?$AA?9?$AAm?$AAs?$AA?9?$AAw?$AAi?$AAn?$AA?9?$AAc?$AAo?$AAr?$AAe?$AA?9?$AAp?$AAr?$AAo?$AAc?$AAe?$AAs?$AAs?$AAt?$AAh?$AAr?$AAe?$AAa?$AAd?$AAs?$AA?9?$AAl@ 10077e80     libucrt:winapi_thunks.obj
 0002:00007edc       ??_C@_1DM@LNCGDDPN@?$AAa?$AAp?$AAi?$AA?9?$AAm?$AAs?$AA?9?$AAw?$AAi?$AAn?$AA?9?$AAc?$AAo?$AAr?$AAe?$AA?9?$AAs?$AAt?$AAr?$AAi?$AAn?$AAg?$AA?9?$AAl?$AA1?$AA?9?$AA1?$AA?9?$AA0?$AA?$AA@ 10077edc     libucrt:winapi_thunks.obj
 0002:00007f24       ??_C@_1DK@LPPGFMPP@?$AAa?$AAp?$AAi?$AA?9?$AAm?$AAs?$AA?9?$AAw?$AAi?$AAn?$AA?9?$AAc?$AAo?$AAr?$AAe?$AA?9?$AAs?$AAy?$AAn?$AAc?$AAh?$AA?9?$AAl?$AA1?$AA?9?$AA2?$AA?9?$AA0?$AA?$AA@ 10077f24     libucrt:winapi_thunks.obj
 0002:00007f6c       ??_C@_1DO@FPAPJEMD@?$AAa?$AAp?$AAi?$AA?9?$AAm?$AAs?$AA?9?$AAw?$AAi?$AAn?$AA?9?$AAc?$AAo?$AAr?$AAe?$AA?9?$AAs?$AAy?$AAs?$AAi?$AAn?$AAf?$AAo?$AA?9?$AAl?$AA1?$AA?9?$AA2?$AA?9?$AA1?$AA?$AA@ 10077f6c     libucrt:winapi_thunks.obj
 0002:00007fb8       ??_C@_1DK@NDHNAHIO@?$AAa?$AAp?$AAi?$AA?9?$AAm?$AAs?$AA?9?$AAw?$AAi?$AAn?$AA?9?$AAc?$AAo?$AAr?$AAe?$AA?9?$AAw?$AAi?$AAn?$AAr?$AAt?$AA?9?$AAl?$AA1?$AA?9?$AA1?$AA?9?$AA0?$AA?$AA@ 10077fb8     libucrt:winapi_thunks.obj
 0002:00008000       ??_C@_1DM@KGHDGBCM@?$AAa?$AAp?$AAi?$AA?9?$AAm?$AAs?$AA?9?$AAw?$AAi?$AAn?$AA?9?$AAc?$AAo?$AAr?$AAe?$AA?9?$AAx?$AAs?$AAt?$AAa?$AAt?$AAe?$AA?9?$AAl?$AA2?$AA?9?$AA1?$AA?9?$AA0?$AA?$AA@ 10078000     libucrt:winapi_thunks.obj
 0002:00008048       ??_C@_1EO@IJIOEFOH@?$AAa?$AAp?$AAi?$AA?9?$AAm?$AAs?$AA?9?$AAw?$AAi?$AAn?$AA?9?$AAr?$AAt?$AAc?$AAo?$AAr?$AAe?$AA?9?$AAn?$AAt?$AAu?$AAs?$AAe?$AAr?$AA?9?$AAw?$AAi?$AAn?$AAd?$AAo?$AAw?$AA?9@ 10078048     libucrt:winapi_thunks.obj
 0002:000080a8       ??_C@_1FG@HHGEKANL@?$AAa?$AAp?$AAi?$AA?9?$AAm?$AAs?$AA?9?$AAw?$AAi?$AAn?$AA?9?$AAs?$AAe?$AAc?$AAu?$AAr?$AAi?$AAt?$AAy?$AA?9?$AAs?$AAy?$AAs?$AAt?$AAe?$AAm?$AAf?$AAu?$AAn?$AAc?$AAt?$AAi@ 100780a8     libucrt:winapi_thunks.obj
 0002:00008110       ??_C@_1EG@DBIOJECG@?$AAe?$AAx?$AAt?$AA?9?$AAm?$AAs?$AA?9?$AAw?$AAi?$AAn?$AA?9?$AAn?$AAt?$AAu?$AAs?$AAe?$AAr?$AA?9?$AAd?$AAi?$AAa?$AAl?$AAo?$AAg?$AAb?$AAo?$AAx?$AA?9?$AAl?$AA1?$AA?9?$AA1@ 10078110     libucrt:winapi_thunks.obj
 0002:00008168       ??_C@_1EO@FIHMJCLF@?$AAe?$AAx?$AAt?$AA?9?$AAm?$AAs?$AA?9?$AAw?$AAi?$AAn?$AA?9?$AAn?$AAt?$AAu?$AAs?$AAe?$AAr?$AA?9?$AAw?$AAi?$AAn?$AAd?$AAo?$AAw?$AAs?$AAt?$AAa?$AAt?$AAi?$AAo?$AAn?$AA?9@ 10078168     libucrt:winapi_thunks.obj
 0002:000081c8       ??_C@_1BC@DNHGCMLG@?$AAa?$AAd?$AAv?$AAa?$AAp?$AAi?$AA3?$AA2?$AA?$AA@ 100781c8     libucrt:winapi_thunks.obj
 0002:000081e0       ??_C@_1BC@GDMECMAK@?$AAk?$AAe?$AAr?$AAn?$AAe?$AAl?$AA3?$AA2?$AA?$AA@ 100781e0     libucrt:winapi_thunks.obj
 0002:000081f8       ??_C@_1M@OAIMIKLP@?$AAn?$AAt?$AAd?$AAl?$AAl?$AA?$AA@ 100781f8     libucrt:winapi_thunks.obj
 0002:00008208       ??_C@_1EG@DPGNFKGC@?$AAa?$AAp?$AAi?$AA?9?$AAm?$AAs?$AA?9?$AAw?$AAi?$AAn?$AA?9?$AAa?$AAp?$AAp?$AAm?$AAo?$AAd?$AAe?$AAl?$AA?9?$AAr?$AAu?$AAn?$AAt?$AAi?$AAm?$AAe?$AA?9?$AAl?$AA1?$AA?9?$AA1@ 10078208     libucrt:winapi_thunks.obj
 0002:0000825c       ??_C@_1O@BCCLBEOE@?$AAu?$AAs?$AAe?$AAr?$AA3?$AA2?$AA?$AA@ 1007825c     libucrt:winapi_thunks.obj
 0002:0000826c       ??_C@_1BA@PFFKHIOG@?$AAa?$AAp?$AAi?$AA?9?$AAm?$AAs?$AA?9?$AA?$AA@ 1007826c     libucrt:winapi_thunks.obj
 0002:00008280       ??_C@_1BA@IAIFMGEF@?$AAe?$AAx?$AAt?$AA?9?$AAm?$AAs?$AA?9?$AA?$AA@ 10078280     libucrt:winapi_thunks.obj
 0002:00008298       ??_C@_0BA@FHFNEAED@AreFileApisANSI?$AA@ 10078298     libucrt:winapi_thunks.obj
 0002:000082b8       ??_C@_0BA@IHGNDAEB@CompareStringEx?$AA@ 100782b8     libucrt:winapi_thunks.obj
 0002:000082d8       ??_C@_0BE@LJANKFHF@EnumSystemLocalesEx?$AA@ 100782d8     libucrt:winapi_thunks.obj
 0002:000082fc       ??_C@_08KNHFBNJ@FlsAlloc?$AA@ 100782fc     libucrt:winapi_thunks.obj
 0002:00008314       ??_C@_07PEJMOBNF@FlsFree?$AA@ 10078314     libucrt:winapi_thunks.obj
 0002:0000832c       ??_C@_0M@GDNOONDI@FlsGetValue?$AA@ 1007832c     libucrt:winapi_thunks.obj
 0002:00008348       ??_C@_0M@JCPCPOEF@FlsSetValue?$AA@ 10078348     libucrt:winapi_thunks.obj
 0002:00008364       ??_C@_0BA@HNOPNCHB@GetActiveWindow?$AA@ 10078364     libucrt:winapi_thunks.obj
 0002:00008384       ??_C@_0BA@EPCJIIPD@GetDateFormatEx?$AA@ 10078384     libucrt:winapi_thunks.obj
 0002:000083a4       ??_C@_0BJ@DIBIJBHA@GetEnabledXStateFeatures?$AA@ 100783a4     libucrt:winapi_thunks.obj
 0002:000083d0       ??_C@_0BD@HHGDFDBJ@GetLastActivePopup?$AA@ 100783d0     libucrt:winapi_thunks.obj
 0002:000083f4       ??_C@_0BA@ONOKGCMP@GetLocaleInfoEx?$AA@ 100783f4     libucrt:winapi_thunks.obj
 0002:00008414       ??_C@_0BI@DFKBFLJE@GetProcessWindowStation?$AA@ 10078414     libucrt:winapi_thunks.obj
 0002:00008434       ??_C@_0BP@FPNJPEJC@GetSystemTimePreciseAsFileTime?$AA@ 10078434     libucrt:winapi_thunks.obj
 0002:00008468       ??_C@_0BA@CIJJKCJJ@GetTimeFormatEx?$AA@ 10078468     libucrt:winapi_thunks.obj
 0002:00008488       ??_C@_0BJ@PBCCBIPI@GetUserDefaultLocaleName?$AA@ 10078488     libucrt:winapi_thunks.obj
 0002:000084b4       ??_C@_0BK@DEKFELLI@GetUserObjectInformationW?$AA@ 100784b4     libucrt:winapi_thunks.obj
 0002:000084e0       ??_C@_0BG@IKLDMBLM@GetXStateFeaturesMask?$AA@ 100784e0     libucrt:winapi_thunks.obj
 0002:00008508       ??_C@_0BM@HCFOFFN@InitializeCriticalSectionEx?$AA@ 10078508     libucrt:winapi_thunks.obj
 0002:00008538       ??_C@_0BC@CELBKLLA@IsValidLocaleName?$AA@ 10078538     libucrt:winapi_thunks.obj
 0002:0000855c       ??_C@_0O@KKBNKAPF@LCMapStringEx?$AA@ 1007855c     libucrt:winapi_thunks.obj
 0002:00008578       ??_C@_0BB@CDHDDLLP@LCIDToLocaleName?$AA@ 10078578     libucrt:winapi_thunks.obj
 0002:00008598       ??_C@_0BB@HBDEELFH@LocaleNameToLCID?$AA@ 10078598     libucrt:winapi_thunks.obj
 0002:000085b8       ??_C@_0BE@KINNKFDA@LocateXStateFeature?$AA@ 100785b8     libucrt:winapi_thunks.obj
 0002:000085dc       ??_C@_0M@CHKKJDAI@MessageBoxA?$AA@ 100785dc     libucrt:winapi_thunks.obj
 0002:000085f8       ??_C@_0M@DLDCCGNP@MessageBoxW?$AA@ 100785f8     libucrt:winapi_thunks.obj
 0002:0000860c       ??_C@_0N@PPOMPGGK@RoInitialize?$AA@ 1007860c     libucrt:winapi_thunks.obj
 0002:00008620       ??_C@_0P@LLFHBIJD@RoUninitialize?$AA@ 10078620     libucrt:winapi_thunks.obj
 0002:00008638       ??_C@_0CF@OJOFEIGO@AppPolicyGetProcessTerminationMe@ 10078638     libucrt:winapi_thunks.obj
 0002:00008668       ??_C@_0CF@NNDFDCOC@AppPolicyGetThreadInitialization@ 10078668     libucrt:winapi_thunks.obj
 0002:00008698       ??_C@_0CE@OICFMIKE@AppPolicyGetShowDeveloperDiagnos@ 10078698     libucrt:winapi_thunks.obj
 0002:000086c8       ??_C@_0BL@ODDJNEDA@AppPolicyGetWindowingModel?$AA@ 100786c8     libucrt:winapi_thunks.obj
 0002:000086f4       ??_C@_0BI@BKLFFAPO@SetThreadStackGuarantee?$AA@ 100786f4     libucrt:winapi_thunks.obj
 0002:0000871c       ??_C@_0BC@JEAENNKH@SystemFunction036?$AA@ 1007871c     libucrt:winapi_thunks.obj
 0002:00008734       ?ccs@?1???$__acrt_stdio_parse_mode@D@@YA?AU__acrt_stdio_stream_mode@@QBD@Z@4QBDB 10078734     libucrt:openfile.obj
 0002:00008738       ?utf8_encoding@?1???$__acrt_stdio_parse_mode@D@@YA?AU__acrt_stdio_stream_mode@@QBD@Z@4QBDB 10078738     libucrt:openfile.obj
 0002:00008740       ?utf16_encoding@?1???$__acrt_stdio_parse_mode@D@@YA?AU__acrt_stdio_stream_mode@@QBD@Z@4QBDB 10078740     libucrt:openfile.obj
 0002:0000874c       ?unicode_encoding@?1???$__acrt_stdio_parse_mode@D@@YA?AU__acrt_stdio_stream_mode@@QBD@Z@4QBDB 1007874c     libucrt:openfile.obj
 0002:00008754       ?ccs@?1???$__acrt_stdio_parse_mode@_W@@YA?AU__acrt_stdio_stream_mode@@QB_W@Z@4QB_WB 10078754     libucrt:openfile.obj
 0002:0000875c       ?utf8_encoding@?1???$__acrt_stdio_parse_mode@_W@@YA?AU__acrt_stdio_stream_mode@@QB_W@Z@4QB_WB 1007875c     libucrt:openfile.obj
 0002:00008768       ?utf16_encoding@?1???$__acrt_stdio_parse_mode@_W@@YA?AU__acrt_stdio_stream_mode@@QB_W@Z@4QB_WB 10078768     libucrt:openfile.obj
 0002:0000877c       ?unicode_encoding@?1???$__acrt_stdio_parse_mode@_W@@YA?AU__acrt_stdio_stream_mode@@QB_W@Z@4QB_WB 1007877c     libucrt:openfile.obj
 0002:00008828       ___lc_category             10078828     libucrt:wsetlocale.obj
 0002:00008880       ??_C@_1O@GIFLHMA@?$AAL?$AAC?$AA_?$AAA?$AAL?$AAL?$AA?$AA@ 10078880     libucrt:wsetlocale.obj
 0002:00008890       ??_C@_1BG@PPOMIBNJ@?$AAL?$AAC?$AA_?$AAC?$AAO?$AAL?$AAL?$AAA?$AAT?$AAE?$AA?$AA@ 10078890     libucrt:wsetlocale.obj
 0002:000088ac       ??_C@_1BC@FFJGAPJM@?$AAL?$AAC?$AA_?$AAC?$AAT?$AAY?$AAP?$AAE?$AA?$AA@ 100788ac     libucrt:wsetlocale.obj
 0002:000088c4       ??_C@_1BI@PCKFNJFB@?$AAL?$AAC?$AA_?$AAM?$AAO?$AAN?$AAE?$AAT?$AAA?$AAR?$AAY?$AA?$AA@ 100788c4     libucrt:wsetlocale.obj
 0002:000088e0       ??_C@_1BG@ENIEDKID@?$AAL?$AAC?$AA_?$AAN?$AAU?$AAM?$AAE?$AAR?$AAI?$AAC?$AA?$AA@ 100788e0     libucrt:wsetlocale.obj
 0002:000088fc       ??_C@_1BA@HAAOMIIG@?$AAL?$AAC?$AA_?$AAT?$AAI?$AAM?$AAE?$AA?$AA@ 100788fc     libucrt:wsetlocale.obj
 0002:00008910       ??_C@_15NBPDDFIP@?$AA?$DN?$AA?$DL?$AA?$AA@ 10078910     libucrt:wsetlocale.obj
 0002:00008918       ??_C@_13PJJBFPED@?$AA?$DL?$AA?$AA@ 10078918     libucrt:wsetlocale.obj
 0002:0000891c       ??_C@_13NMPKAAJP@?$AA?$DN?$AA?$AA@ 1007891c     libucrt:wsetlocale.obj
 0002:00008920       ??_C@_13FHBKNHDA@?$AAC?$AA?$AA@ 10078920     libucrt:wsetlocale.obj
 0002:00008924       ??_C@_19MPDNHKDG@?$AAu?$AAt?$AAf?$AA8?$AA?$AA@ 10078924     libucrt:wsetlocale.obj
 0002:00008930       ??_C@_1M@FPEIIFAM@?$AAu?$AAt?$AAf?$AA?9?$AA8?$AA?$AA@ 10078930     libucrt:wsetlocale.obj
 0002:00008940       ??_C@_17MBJJLFDM@?$AA_?$AA?4?$AA?0?$AA?$AA@ 10078940     libucrt:wsetlocale.obj
 0002:0000894c       ??_C@_13ENNFDPBH@?$AA_?$AA?$AA@ 1007894c     libucrt:wsetlocale.obj
 0002:00008950       ??_C@_13JOFGPIOO@?$AA?4?$AA?$AA@ 10078950     libucrt:wsetlocale.obj
 0002:00008958       ___lc_time_c               10078958     libucrt:nlsdata.obj
 0002:00008b04       ??_C@_03KOEHGMDN@Sun?$AA@  10078b04     libucrt:nlsdata.obj
 0002:00008b08       ??_C@_03PDAGKDH@Mon?$AA@   10078b08     libucrt:nlsdata.obj
 0002:00008b0c       ??_C@_03NAGEINEP@Tue?$AA@  10078b0c     libucrt:nlsdata.obj
 0002:00008b10       ??_C@_03MHOMLAJA@Wed?$AA@  10078b10     libucrt:nlsdata.obj
 0002:00008b14       ??_C@_03IOFIKPDN@Thu?$AA@  10078b14     libucrt:nlsdata.obj
 0002:00008b18       ??_C@_03IDIOELNC@Fri?$AA@  10078b18     libucrt:nlsdata.obj
 0002:00008b1c       ??_C@_03FEFJNEK@Sat?$AA@   10078b1c     libucrt:nlsdata.obj
 0002:00008b20       ??_C@_06OOPIFAJ@Sunday?$AA@ 10078b20     libucrt:nlsdata.obj
 0002:00008b28       ??_C@_06JLEDEDGH@Monday?$AA@ 10078b28     libucrt:nlsdata.obj
 0002:00008b30       ??_C@_07BAAGCFCM@Tuesday?$AA@ 10078b30     libucrt:nlsdata.obj
 0002:00008b3c       ??_C@_09DLIGFAKA@Wednesday?$AA@ 10078b3c     libucrt:nlsdata.obj
 0002:00008b48       ??_C@_08HACCIKIA@Thursday?$AA@ 10078b48     libucrt:nlsdata.obj
 0002:00008b54       ??_C@_06JECMNKMI@Friday?$AA@ 10078b54     libucrt:nlsdata.obj
 0002:00008b5c       ??_C@_08INBOOONO@Saturday?$AA@ 10078b5c     libucrt:nlsdata.obj
 0002:00008b68       ??_C@_03JIHJHPIE@Jan?$AA@  10078b68     libucrt:nlsdata.obj
 0002:00008b6c       ??_C@_03HJBDCHOM@Feb?$AA@  10078b6c     libucrt:nlsdata.obj
 0002:00008b70       ??_C@_03ODNJBKGA@Mar?$AA@  10078b70     libucrt:nlsdata.obj
 0002:00008b74       ??_C@_03LEOLGMJP@Apr?$AA@  10078b74     libucrt:nlsdata.obj
 0002:00008b78       ??_C@_03CNMDKL@May?$AA@    10078b78     libucrt:nlsdata.obj
 0002:00008b7c       ??_C@_03IDFGHECI@Jun?$AA@  10078b7c     libucrt:nlsdata.obj
 0002:00008b80       ??_C@_03LBGABGKK@Jul?$AA@  10078b80     libucrt:nlsdata.obj
 0002:00008b84       ??_C@_03IFJFEIGA@Aug?$AA@  10078b84     libucrt:nlsdata.obj
 0002:00008b88       ??_C@_03GGCAPAJC@Sep?$AA@  10078b88     libucrt:nlsdata.obj
 0002:00008b8c       ??_C@_03BMAOKBAD@Oct?$AA@  10078b8c     libucrt:nlsdata.obj
 0002:00008b90       ??_C@_03JPJOFNIA@Nov?$AA@  10078b90     libucrt:nlsdata.obj
 0002:00008b94       ??_C@_03MKABNOCG@Dec?$AA@  10078b94     libucrt:nlsdata.obj
 0002:00008b98       ??_C@_07CGJPFGJA@January?$AA@ 10078b98     libucrt:nlsdata.obj
 0002:00008ba4       ??_C@_08GNJGEPFN@February?$AA@ 10078ba4     libucrt:nlsdata.obj
 0002:00008bb0       ??_C@_05HPCKOFNC@March?$AA@ 10078bb0     libucrt:nlsdata.obj
 0002:00008bb8       ??_C@_05DMJDNLEJ@April?$AA@ 10078bb8     libucrt:nlsdata.obj
 0002:00008bc0       ??_C@_04CNLMGBGM@June?$AA@ 10078bc0     libucrt:nlsdata.obj
 0002:00008bc8       ??_C@_04MIEPOIFP@July?$AA@ 10078bc8     libucrt:nlsdata.obj
 0002:00008bd0       ??_C@_06LBBHFDDG@August?$AA@ 10078bd0     libucrt:nlsdata.obj
 0002:00008bd8       ??_C@_09BHHEALKD@September?$AA@ 10078bd8     libucrt:nlsdata.obj
 0002:00008be4       ??_C@_07JJNFCEND@October?$AA@ 10078be4     libucrt:nlsdata.obj
 0002:00008bf0       ??_C@_08HCHEGEOA@November?$AA@ 10078bf0     libucrt:nlsdata.obj
 0002:00008bfc       ??_C@_08EDHMEBNP@December?$AA@ 10078bfc     libucrt:nlsdata.obj
 0002:00008c08       ??_C@_02DEDBPAFC@AM?$AA@   10078c08     libucrt:nlsdata.obj
 0002:00008c0c       ??_C@_02CJNFDJBF@PM?$AA@   10078c0c     libucrt:nlsdata.obj
 0002:00008c10       ??_C@_08BPBNCDIB@MM?1dd?1yy?$AA@ 10078c10     libucrt:nlsdata.obj
 0002:00008c1c       ??_C@_0BE@CKGJFCPC@dddd?0?5MMMM?5dd?0?5yyyy?$AA@ 10078c1c     libucrt:nlsdata.obj
 0002:00008c34       ??_C@_08JCCMCCIL@HH?3mm?3ss?$AA@ 10078c34     libucrt:nlsdata.obj
 0002:00008c40       ??_C@_17MBGCMIPB@?$AAS?$AAu?$AAn?$AA?$AA@ 10078c40     libucrt:nlsdata.obj
 0002:00008c4c       ??_C@_17KBOMKBF@?$AAM?$AAo?$AAn?$AA?$AA@ 10078c4c     libucrt:nlsdata.obj
 0002:00008c58       ??_C@_17BMKGEGOJ@?$AAT?$AAu?$AAe?$AA?$AA@ 10078c58     libucrt:nlsdata.obj
 0002:00008c64       ??_C@_17CJEDCEPE@?$AAW?$AAe?$AAd?$AA?$AA@ 10078c64     libucrt:nlsdata.obj
 0002:00008c70       ??_C@_17PDPHAADD@?$AAT?$AAh?$AAu?$AA?$AA@ 10078c70     libucrt:nlsdata.obj
 0002:00008c7c       ??_C@_17HFOLPPLP@?$AAF?$AAr?$AAi?$AA?$AA@ 10078c7c     libucrt:nlsdata.obj
 0002:00008c88       ??_C@_17GGIBDPIH@?$AAS?$AAa?$AAt?$AA?$AA@ 10078c88     libucrt:nlsdata.obj
 0002:00008c94       ??_C@_1O@IHNHDHPB@?$AAS?$AAu?$AAn?$AAd?$AAa?$AAy?$AA?$AA@ 10078c94     libucrt:nlsdata.obj
 0002:00008ca4       ??_C@_1O@MMNBFLIA@?$AAM?$AAo?$AAn?$AAd?$AAa?$AAy?$AA?$AA@ 10078ca4     libucrt:nlsdata.obj
 0002:00008cb4       ??_C@_1BA@ENFBFFEK@?$AAT?$AAu?$AAe?$AAs?$AAd?$AAa?$AAy?$AA?$AA@ 10078cb4     libucrt:nlsdata.obj
 0002:00008cc8       ??_C@_1BE@EBOGMDOH@?$AAW?$AAe?$AAd?$AAn?$AAe?$AAs?$AAd?$AAa?$AAy?$AA?$AA@ 10078cc8     libucrt:nlsdata.obj
 0002:00008ce0       ??_C@_1BC@HHMNLIHE@?$AAT?$AAh?$AAu?$AAr?$AAs?$AAd?$AAa?$AAy?$AA?$AA@ 10078ce0     libucrt:nlsdata.obj
 0002:00008cf8       ??_C@_1O@PDICJHAG@?$AAF?$AAr?$AAi?$AAd?$AAa?$AAy?$AA?$AA@ 10078cf8     libucrt:nlsdata.obj
 0002:00008d08       ??_C@_1BC@ENMNNPAJ@?$AAS?$AAa?$AAt?$AAu?$AAr?$AAd?$AAa?$AAy?$AA?$AA@ 10078d08     libucrt:nlsdata.obj
 0002:00008d20       ??_C@_17DKNBKCHM@?$AAJ?$AAa?$AAn?$AA?$AA@ 10078d20     libucrt:nlsdata.obj
 0002:00008d2c       ??_C@_17LMDJEKJN@?$AAF?$AAe?$AAb?$AA?$AA@ 10078d2c     libucrt:nlsdata.obj
 0002:00008d38       ??_C@_17CKNLEDEC@?$AAM?$AAa?$AAr?$AA?$AA@ 10078d38     libucrt:nlsdata.obj
 0002:00008d44       ??_C@_17LFPOIHDD@?$AAA?$AAp?$AAr?$AA?$AA@ 10078d44     libucrt:nlsdata.obj
 0002:00008d50       ??_C@_17PNNKMEED@?$AAM?$AAa?$AAy?$AA?$AA@ 10078d50     libucrt:nlsdata.obj
 0002:00008d5c       ??_C@_17KCJGOCPB@?$AAJ?$AAu?$AAn?$AA?$AA@ 10078d5c     libucrt:nlsdata.obj
 0002:00008d68       ??_C@_17IJPCKHK@?$AAJ?$AAu?$AAl?$AA?$AA@ 10078d68     libucrt:nlsdata.obj
 0002:00008d74       ??_C@_17ICPELBCN@?$AAA?$AAu?$AAg?$AA?$AA@ 10078d74     libucrt:nlsdata.obj
 0002:00008d80       ??_C@_17HCHCOKMG@?$AAS?$AAe?$AAp?$AA?$AA@ 10078d80     libucrt:nlsdata.obj
 0002:00008d8c       ??_C@_17FNLKOI@?$AAO?$AAc?$AAt?$AA?$AA@ 10078d8c     libucrt:nlsdata.obj
 0002:00008d98       ??_C@_17BBDMLCIG@?$AAN?$AAo?$AAv?$AA?$AA@ 10078d98     libucrt:nlsdata.obj
 0002:00008da4       ??_C@_17EGKACKIF@?$AAD?$AAe?$AAc?$AA?$AA@ 10078da4     libucrt:nlsdata.obj
 0002:00008db0       ??_C@_1BA@EFMEIEBA@?$AAJ?$AAa?$AAn?$AAu?$AAa?$AAr?$AAy?$AA?$AA@ 10078db0     libucrt:nlsdata.obj
 0002:00008dc4       ??_C@_1BC@JGDDFFAM@?$AAF?$AAe?$AAb?$AAr?$AAu?$AAa?$AAr?$AAy?$AA?$AA@ 10078dc4     libucrt:nlsdata.obj
 0002:00008ddc       ??_C@_1M@IKEENEDF@?$AAM?$AAa?$AAr?$AAc?$AAh?$AA?$AA@ 10078ddc     libucrt:nlsdata.obj
 0002:00008dec       ??_C@_1M@GJNLMHFD@?$AAA?$AAp?$AAr?$AAi?$AAl?$AA?$AA@ 10078dec     libucrt:nlsdata.obj
 0002:00008dfc       ??_C@_19EPFLPGAP@?$AAJ?$AAu?$AAn?$AAe?$AA?$AA@ 10078dfc     libucrt:nlsdata.obj
 0002:00008e08       ??_C@_19BIFMLPCD@?$AAJ?$AAu?$AAl?$AAy?$AA?$AA@ 10078e08     libucrt:nlsdata.obj
 0002:00008e14       ??_C@_1O@PAHLKOAC@?$AAA?$AAu?$AAg?$AAu?$AAs?$AAt?$AA?$AA@ 10078e14     libucrt:nlsdata.obj
 0002:00008e24       ??_C@_1BE@DKAAMBJL@?$AAS?$AAe?$AAp?$AAt?$AAe?$AAm?$AAb?$AAe?$AAr?$AA?$AA@ 10078e24     libucrt:nlsdata.obj
 0002:00008e3c       ??_C@_1BA@EPANDLNG@?$AAO?$AAc?$AAt?$AAo?$AAb?$AAe?$AAr?$AA?$AA@ 10078e3c     libucrt:nlsdata.obj
 0002:00008e50       ??_C@_1BC@BGLIFPF@?$AAN?$AAo?$AAv?$AAe?$AAm?$AAb?$AAe?$AAr?$AA?$AA@ 10078e50     libucrt:nlsdata.obj
 0002:00008e68       ??_C@_1BC@FEMKIFH@?$AAD?$AAe?$AAc?$AAe?$AAm?$AAb?$AAe?$AAr?$AA?$AA@ 10078e68     libucrt:nlsdata.obj
 0002:00008e80       ??_C@_15ODEHAHHF@?$AAA?$AAM?$AA?$AA@ 10078e80     libucrt:nlsdata.obj
 0002:00008e88       ??_C@_15CLMNNGEL@?$AAP?$AAM?$AA?$AA@ 10078e88     libucrt:nlsdata.obj
 0002:00008e90       ??_C@_1BC@IEBCMHCM@?$AAM?$AAM?$AA?1?$AAd?$AAd?$AA?1?$AAy?$AAy?$AA?$AA@ 10078e90     libucrt:nlsdata.obj
 0002:00008ea8       ??_C@_1CI@KNAKOEBC@?$AAd?$AAd?$AAd?$AAd?$AA?0?$AA?5?$AAM?$AAM?$AAM?$AAM?$AA?5?$AAd?$AAd?$AA?0?$AA?5?$AAy?$AAy?$AAy?$AAy?$AA?$AA@ 10078ea8     libucrt:nlsdata.obj
 0002:00008ed8       ??_C@_1BC@GDGBMEMK@?$AAH?$AAH?$AA?3?$AAm?$AAm?$AA?3?$AAs?$AAs?$AA?$AA@ 10078ed8     libucrt:nlsdata.obj
 0002:00008ef0       ??_C@_1M@BMHNFIME@?$AAe?$AAn?$AA?9?$AAU?$AAS?$AA?$AA@ 10078ef0     libucrt:nlsdata.obj
 0002:00008f00       ??_C@_03OEIAHPBN@INF?$AA@  10078f00     libucrt:cvt.obj
 0002:00008f04       ??_C@_03OJHLLCGB@inf?$AA@  10078f04     libucrt:cvt.obj
 0002:00008f08       ??_C@_03LKNCIKJB@NAN?$AA@  10078f08     libucrt:cvt.obj
 0002:00008f0c       ??_C@_03LHCJEHON@nan?$AA@  10078f0c     libucrt:cvt.obj
 0002:00008f10       ??_C@_09OFJJIMPC@NAN?$CISNAN?$CJ?$AA@ 10078f10     libucrt:cvt.obj
 0002:00008f1c       ??_C@_09IPFBKMDL@nan?$CIsnan?$CJ?$AA@ 10078f1c     libucrt:cvt.obj
 0002:00008f28       ??_C@_08IKHNHAJ@NAN?$CIIND?$CJ?$AA@ 10078f28     libucrt:cvt.obj
 0002:00008f34       ??_C@_08OFCDMILK@nan?$CIind?$CJ?$AA@ 10078f34     libucrt:cvt.obj
 0002:00008f40       ??_C@_05KLBDPFGC@e?$CL000?$AA@ 10078f40     libucrt:cvt.obj
 0002:00008f48       __d_inf                    10078f48     libucrt:util.obj
 0002:00008f58       __d_ind                    10078f58     libucrt:util.obj
 0002:00008f68       __d_max                    10078f68     libucrt:util.obj
 0002:00008f78       __d_min                    10078f78     libucrt:util.obj
 0002:00008f88       __d_mzero                  10078f88     libucrt:util.obj
 0002:00008fc8       ??_C@_1M@HPNHIDJI@?$AAj?$AAa?$AA?9?$AAJ?$AAP?$AA?$AA@ 10078fc8     libucrt:mbctype.obj
 0002:00008fd8       ??_C@_1M@BIBDDEMK@?$AAz?$AAh?$AA?9?$AAC?$AAN?$AA?$AA@ 10078fd8     libucrt:mbctype.obj
 0002:00008fe8       ??_C@_1M@JLOOOEGK@?$AAk?$AAo?$AA?9?$AAK?$AAR?$AA?$AA@ 10078fe8     libucrt:mbctype.obj
 0002:00008ff8       ??_C@_1M@CLNBBOPM@?$AAz?$AAh?$AA?9?$AAT?$AAW?$AA?$AA@ 10078ff8     libucrt:mbctype.obj
 0002:00009008       ___newctype                10079008     libucrt:ctype.obj
 0002:000093a8       ___newclmap                100793a8     libucrt:ctype.obj
 0002:00009578       ___newcumap                10079578     libucrt:ctype.obj
 0002:00009748       __wctype                   10079748     libucrt:ctype.obj
 0002:0000a244       ??_C@_15EMKDOKLE@?$AAa?$AAr?$AA?$AA@ 1007a244     libucrt:lcidtoname_downlevel.obj
 0002:0000a24c       ??_C@_15KNPADPLH@?$AAb?$AAg?$AA?$AA@ 1007a24c     libucrt:lcidtoname_downlevel.obj
 0002:0000a254       ??_C@_15EDMHLDMO@?$AAc?$AAa?$AA?$AA@ 1007a254     libucrt:lcidtoname_downlevel.obj
 0002:0000a25c       ??_C@_1O@BPEAJADD@?$AAz?$AAh?$AA?9?$AAC?$AAH?$AAS?$AA?$AA@ 1007a25c     libucrt:lcidtoname_downlevel.obj
 0002:0000a26c       ??_C@_15LJNHCMNK@?$AAc?$AAs?$AA?$AA@ 1007a26c     libucrt:lcidtoname_downlevel.obj
 0002:0000a274       ??_C@_15FOMCIDHG@?$AAd?$AAa?$AA?$AA@ 1007a274     libucrt:lcidtoname_downlevel.obj
 0002:0000a27c       ??_C@_15NBKABECB@?$AAd?$AAe?$AA?$AA@ 1007a27c     libucrt:lcidtoname_downlevel.obj
 0002:0000a284       ??_C@_15GHPEIIAO@?$AAe?$AAl?$AA?$AA@ 1007a284     libucrt:lcidtoname_downlevel.obj
 0002:0000a28c       ??_C@_15MNPNEAIF@?$AAe?$AAn?$AA?$AA@ 1007a28c     libucrt:lcidtoname_downlevel.obj
 0002:0000a294       ??_C@_15GPIOMPMH@?$AAe?$AAs?$AA?$AA@ 1007a294     libucrt:lcidtoname_downlevel.obj
 0002:0000a29c       ??_C@_15NGLOAKJC@?$AAf?$AAi?$AA?$AA@ 1007a29c     libucrt:lcidtoname_downlevel.obj
 0002:0000a2a4       ??_C@_15FBKGNKAM@?$AAf?$AAr?$AA?$AA@ 1007a2a4     libucrt:lcidtoname_downlevel.obj
 0002:0000a2ac       ??_C@_15KGGCNEFK@?$AAh?$AAe?$AA?$AA@ 1007a2ac     libucrt:lcidtoname_downlevel.obj
 0002:0000a2b4       ??_C@_15PGHLIDMF@?$AAh?$AAu?$AA?$AA@ 1007a2b4     libucrt:lcidtoname_downlevel.obj
 0002:0000a2bc       ??_C@_15BIEMAPLM@?$AAi?$AAs?$AA?$AA@ 1007a2bc     libucrt:lcidtoname_downlevel.obj
 0002:0000a2c4       ??_C@_15IFJLDHAF@?$AAi?$AAt?$AA?$AA@ 1007a2c4     libucrt:lcidtoname_downlevel.obj
 0002:0000a2cc       ??_C@_15GEMIOCAG@?$AAj?$AAa?$AA?$AA@ 1007a2cc     libucrt:lcidtoname_downlevel.obj
 0002:0000a2d4       ??_C@_15EPELEGJA@?$AAk?$AAo?$AA?$AA@ 1007a2d4     libucrt:lcidtoname_downlevel.obj
 0002:0000a2dc       ??_C@_15NDDHIMN@?$AAn?$AAl?$AA?$AA@ 1007a2dc     libucrt:lcidtoname_downlevel.obj
 0002:0000a2e4       ??_C@_15BPIGNHCD@?$AAn?$AAo?$AA?$AA@ 1007a2e4     libucrt:lcidtoname_downlevel.obj
 0002:0000a2ec       ??_C@_15DEOPBLCG@?$AAp?$AAl?$AA?$AA@ 1007a2ec     libucrt:lcidtoname_downlevel.obj
 0002:0000a2f4       ??_C@_15KBECGEFG@?$AAp?$AAt?$AA?$AA@ 1007a2f4     libucrt:lcidtoname_downlevel.obj
 0002:0000a2fc       ??_C@_15GLJCBFMD@?$AAr?$AAo?$AA?$AA@ 1007a2fc     libucrt:lcidtoname_downlevel.obj
 0002:0000a304       ??_C@_15FEDGKCDI@?$AAr?$AAu?$AA?$AA@ 1007a304     libucrt:lcidtoname_downlevel.obj
 0002:0000a30c       ??_C@_15GLKMLLHM@?$AAh?$AAr?$AA?$AA@ 1007a30c     libucrt:lcidtoname_downlevel.obj
 0002:0000a314       ??_C@_15CPKMFBDB@?$AAs?$AAk?$AA?$AA@ 1007a314     libucrt:lcidtoname_downlevel.obj
 0002:0000a31c       ??_C@_15BAAIOGMK@?$AAs?$AAq?$AA?$AA@ 1007a31c     libucrt:lcidtoname_downlevel.obj
 0002:0000a324       ??_C@_15INNPNOHD@?$AAs?$AAv?$AA?$AA@ 1007a324     libucrt:lcidtoname_downlevel.obj
 0002:0000a32c       ??_C@_15CABMMOGH@?$AAt?$AAh?$AA?$AA@ 1007a32c     libucrt:lcidtoname_downlevel.obj
 0002:0000a334       ??_C@_15BPLIHJJM@?$AAt?$AAr?$AA?$AA@ 1007a334     libucrt:lcidtoname_downlevel.obj
 0002:0000a33c       ??_C@_15NEOEKKDJ@?$AAu?$AAr?$AA?$AA@ 1007a33c     libucrt:lcidtoname_downlevel.obj
 0002:0000a344       ??_C@_15NFICGAJK@?$AAi?$AAd?$AA?$AA@ 1007a344     libucrt:lcidtoname_downlevel.obj
 0002:0000a34c       ??_C@_15PJPFLCCM@?$AAu?$AAk?$AA?$AA@ 1007a34c     libucrt:lcidtoname_downlevel.obj
 0002:0000a354       ??_C@_15HPJPHDM@?$AAb?$AAe?$AA?$AA@ 1007a354     libucrt:lcidtoname_downlevel.obj
 0002:0000a35c       ??_C@_15LCHLGJII@?$AAs?$AAl?$AA?$AA@ 1007a35c     libucrt:lcidtoname_downlevel.obj
 0002:0000a364       ??_C@_15PCFJPHHO@?$AAe?$AAt?$AA?$AA@ 1007a364     libucrt:lcidtoname_downlevel.obj
 0002:0000a36c       ??_C@_15HPFPGODN@?$AAl?$AAv?$AA?$AA@ 1007a36c     libucrt:lcidtoname_downlevel.obj
 0002:0000a374       ??_C@_15NFFGKGLG@?$AAl?$AAt?$AA?$AA@ 1007a374     libucrt:lcidtoname_downlevel.obj
 0002:0000a37c       ??_C@_15BDAKCCHN@?$AAf?$AAa?$AA?$AA@ 1007a37c     libucrt:lcidtoname_downlevel.obj
 0002:0000a384       ??_C@_15NFGIAIAJ@?$AAv?$AAi?$AA?$AA@ 1007a384     libucrt:lcidtoname_downlevel.obj
 0002:0000a38c       ??_C@_15LMKNDMHN@?$AAh?$AAy?$AA?$AA@ 1007a38c     libucrt:lcidtoname_downlevel.obj
 0002:0000a394       ??_C@_15IJBHMCFL@?$AAa?$AAz?$AA?$AA@ 1007a394     libucrt:lcidtoname_downlevel.obj
 0002:0000a39c       ??_C@_15EKOFJABL@?$AAe?$AAu?$AA?$AA@ 1007a39c     libucrt:lcidtoname_downlevel.obj
 0002:0000a3a4       ??_C@_15BGHADCNK@?$AAm?$AAk?$AA?$AA@ 1007a3a4     libucrt:lcidtoname_downlevel.obj
 0002:0000a3ac       ??_C@_15JDNICKHM@?$AAa?$AAf?$AA?$AA@ 1007a3ac     libucrt:lcidtoname_downlevel.obj
 0002:0000a3b4       ??_C@_15KPJEDBKD@?$AAk?$AAa?$AA?$AA@ 1007a3b4     libucrt:lcidtoname_downlevel.obj
 0002:0000a3bc       ??_C@_15PDNFFFEO@?$AAf?$AAo?$AA?$AA@ 1007a3bc     libucrt:lcidtoname_downlevel.obj
 0002:0000a3c4       ??_C@_15OMLEGLOC@?$AAh?$AAi?$AA?$AA@ 1007a3c4     libucrt:lcidtoname_downlevel.obj
 0002:0000a3cc       ??_C@_15IDNNENKK@?$AAm?$AAs?$AA?$AA@ 1007a3cc     libucrt:lcidtoname_downlevel.obj
 0002:0000a3d4       ??_C@_15MACJNBMH@?$AAk?$AAk?$AA?$AA@ 1007a3d4     libucrt:lcidtoname_downlevel.obj
 0002:0000a3dc       ??_C@_15DKDJEOND@?$AAk?$AAy?$AA?$AA@ 1007a3dc     libucrt:lcidtoname_downlevel.obj
 0002:0000a3e4       ??_C@_15DFGDLJBG@?$AAs?$AAw?$AA?$AA@ 1007a3e4     libucrt:lcidtoname_downlevel.obj
 0002:0000a3ec       ??_C@_15BBFAICNG@?$AAu?$AAz?$AA?$AA@ 1007a3ec     libucrt:lcidtoname_downlevel.obj
 0002:0000a3f4       ??_C@_15DKNDCGEA@?$AAt?$AAt?$AA?$AA@ 1007a3f4     libucrt:lcidtoname_downlevel.obj
 0002:0000a3fc       ??_C@_15MGIFMDPL@?$AAp?$AAa?$AA?$AA@ 1007a3fc     libucrt:lcidtoname_downlevel.obj
 0002:0000a404       ??_C@_15HCNDBBA@?$AAg?$AAu?$AA?$AA@ 1007a404     libucrt:lcidtoname_downlevel.obj
 0002:0000a40c       ??_C@_15FNBEIBON@?$AAt?$AAa?$AA?$AA@ 1007a40c     libucrt:lcidtoname_downlevel.obj
 0002:0000a414       ??_C@_15NCHGBGLK@?$AAt?$AAe?$AA?$AA@ 1007a414     libucrt:lcidtoname_downlevel.obj
 0002:0000a41c       ??_C@_15PHPHCBPF@?$AAk?$AAn?$AA?$AA@ 1007a41c     libucrt:lcidtoname_downlevel.obj
 0002:0000a424       ??_C@_15DLGBCKMP@?$AAm?$AAr?$AA?$AA@ 1007a424     libucrt:lcidtoname_downlevel.obj
 0002:0000a42c       ??_C@_15EABBLBFF@?$AAs?$AAa?$AA?$AA@ 1007a42c     libucrt:lcidtoname_downlevel.obj
 0002:0000a434       ??_C@_15CBKOMCOI@?$AAm?$AAn?$AA?$AA@ 1007a434     libucrt:lcidtoname_downlevel.obj
 0002:0000a43c       ??_C@_15CKDMCJAF@?$AAg?$AAl?$AA?$AA@ 1007a43c     libucrt:lcidtoname_downlevel.obj
 0002:0000a444       ??_C@_17CNJFBPG@?$AAk?$AAo?$AAk?$AA?$AA@ 1007a444     libucrt:lcidtoname_downlevel.obj
 0002:0000a450       ??_C@_17FFBJICPL@?$AAs?$AAy?$AAr?$AA?$AA@ 1007a450     libucrt:lcidtoname_downlevel.obj
 0002:0000a45c       ??_C@_17KPNDCPAF@?$AAd?$AAi?$AAv?$AA?$AA@ 1007a45c     libucrt:lcidtoname_downlevel.obj
 0002:0000a468       ??_C@_11LOCGONAA@?$AA?$AA@ 1007a468     libucrt:lcidtoname_downlevel.obj
 0002:0000a46c       ??_C@_1M@OKAHONE@?$AAa?$AAr?$AA?9?$AAS?$AAA?$AA?$AA@ 1007a46c     libucrt:lcidtoname_downlevel.obj
 0002:0000a47c       ??_C@_1M@FFFIGIGK@?$AAb?$AAg?$AA?9?$AAB?$AAG?$AA?$AA@ 1007a47c     libucrt:lcidtoname_downlevel.obj
 0002:0000a48c       ??_C@_1M@BJNKEDC@?$AAc?$AAa?$AA?9?$AAE?$AAS?$AA?$AA@ 1007a48c     libucrt:lcidtoname_downlevel.obj
 0002:0000a49c       ??_C@_1M@IJJHFJHA@?$AAc?$AAs?$AA?9?$AAC?$AAZ?$AA?$AA@ 1007a49c     libucrt:lcidtoname_downlevel.obj
 0002:0000a4ac       ??_C@_1M@CLPEOBGI@?$AAd?$AAa?$AA?9?$AAD?$AAK?$AA?$AA@ 1007a4ac     libucrt:lcidtoname_downlevel.obj
 0002:0000a4bc       ??_C@_1M@MCMADGCB@?$AAd?$AAe?$AA?9?$AAD?$AAE?$AA?$AA@ 1007a4bc     libucrt:lcidtoname_downlevel.obj
 0002:0000a4cc       ??_C@_1M@OOCKEMAM@?$AAe?$AAl?$AA?9?$AAG?$AAR?$AA?$AA@ 1007a4cc     libucrt:lcidtoname_downlevel.obj
 0002:0000a4dc       ??_C@_1M@DDNJFGID@?$AAf?$AAi?$AA?9?$AAF?$AAI?$AA?$AA@ 1007a4dc     libucrt:lcidtoname_downlevel.obj
 0002:0000a4ec       ??_C@_1M@GLIPPMAC@?$AAf?$AAr?$AA?9?$AAF?$AAR?$AA?$AA@ 1007a4ec     libucrt:lcidtoname_downlevel.obj
 0002:0000a4fc       ??_C@_1M@GFMCHPE@?$AAh?$AAe?$AA?9?$AAI?$AAL?$AA?$AA@ 1007a4fc     libucrt:lcidtoname_downlevel.obj
 0002:0000a50c       ??_C@_1M@MHLPGNKM@?$AAh?$AAu?$AA?9?$AAH?$AAU?$AA?$AA@ 1007a50c     libucrt:lcidtoname_downlevel.obj
 0002:0000a51c       ??_C@_1M@LPDDNNPN@?$AAi?$AAs?$AA?9?$AAI?$AAS?$AA?$AA@ 1007a51c     libucrt:lcidtoname_downlevel.obj
 0002:0000a52c       ??_C@_1M@MADIPODN@?$AAi?$AAt?$AA?9?$AAI?$AAT?$AA?$AA@ 1007a52c     libucrt:lcidtoname_downlevel.obj
 0002:0000a53c       ??_C@_1M@IHBJJGG@?$AAn?$AAl?$AA?9?$AAN?$AAL?$AA?$AA@ 1007a53c     libucrt:lcidtoname_downlevel.obj
 0002:0000a54c       ??_C@_1M@EANAGDL@?$AAn?$AAb?$AA?9?$AAN?$AAO?$AA?$AA@ 1007a54c     libucrt:lcidtoname_downlevel.obj
 0002:0000a55c       ??_C@_1M@NEIEMEGP@?$AAp?$AAl?$AA?9?$AAP?$AAL?$AA?$AA@ 1007a55c     libucrt:lcidtoname_downlevel.obj
 0002:0000a56c       ??_C@_1M@BOCFIGEP@?$AAp?$AAt?$AA?9?$AAB?$AAR?$AA?$AA@ 1007a56c     libucrt:lcidtoname_downlevel.obj
 0002:0000a57c       ??_C@_1M@IMPFOPBG@?$AAr?$AAo?$AA?9?$AAR?$AAO?$AA?$AA@ 1007a57c     libucrt:lcidtoname_downlevel.obj
 0002:0000a58c       ??_C@_1M@IDNNEJMM@?$AAr?$AAu?$AA?9?$AAR?$AAU?$AA?$AA@ 1007a58c     libucrt:lcidtoname_downlevel.obj
 0002:0000a59c       ??_C@_1M@LILEEOGM@?$AAh?$AAr?$AA?9?$AAH?$AAR?$AA?$AA@ 1007a59c     libucrt:lcidtoname_downlevel.obj
 0002:0000a5ac       ??_C@_1M@FKIFEHPB@?$AAs?$AAk?$AA?9?$AAS?$AAK?$AA?$AA@ 1007a5ac     libucrt:lcidtoname_downlevel.obj
 0002:0000a5bc       ??_C@_1M@LJMAMNPJ@?$AAs?$AAq?$AA?9?$AAA?$AAL?$AA?$AA@ 1007a5bc     libucrt:lcidtoname_downlevel.obj
 0002:0000a5cc       ??_C@_1M@GIAKDKJK@?$AAs?$AAv?$AA?9?$AAS?$AAE?$AA?$AA@ 1007a5cc     libucrt:lcidtoname_downlevel.obj
 0002:0000a5dc       ??_C@_1M@MKJKIKCL@?$AAt?$AAh?$AA?9?$AAT?$AAH?$AA?$AA@ 1007a5dc     libucrt:lcidtoname_downlevel.obj
 0002:0000a5ec       ??_C@_1M@MFLCCMPB@?$AAt?$AAr?$AA?9?$AAT?$AAR?$AA?$AA@ 1007a5ec     libucrt:lcidtoname_downlevel.obj
 0002:0000a5fc       ??_C@_1M@OIJHDKJN@?$AAu?$AAr?$AA?9?$AAP?$AAK?$AA?$AA@ 1007a5fc     libucrt:lcidtoname_downlevel.obj
 0002:0000a60c       ??_C@_1M@LHIPCIEK@?$AAi?$AAd?$AA?9?$AAI?$AAD?$AA?$AA@ 1007a60c     libucrt:lcidtoname_downlevel.obj
 0002:0000a61c       ??_C@_1M@MFMOBGI@?$AAu?$AAk?$AA?9?$AAU?$AAA?$AA?$AA@ 1007a61c     libucrt:lcidtoname_downlevel.obj
 0002:0000a62c       ??_C@_1M@OBGLJIPL@?$AAb?$AAe?$AA?9?$AAB?$AAY?$AA?$AA@ 1007a62c     libucrt:lcidtoname_downlevel.obj
 0002:0000a63c       ??_C@_1M@BCFAJEAD@?$AAs?$AAl?$AA?9?$AAS?$AAI?$AA?$AA@ 1007a63c     libucrt:lcidtoname_downlevel.obj
 0002:0000a64c       ??_C@_1M@FKFFEDDN@?$AAe?$AAt?$AA?9?$AAE?$AAE?$AA?$AA@ 1007a64c     libucrt:lcidtoname_downlevel.obj
 0002:0000a65c       ??_C@_1M@KGKKAACI@?$AAl?$AAv?$AA?9?$AAL?$AAV?$AA?$AA@ 1007a65c     libucrt:lcidtoname_downlevel.obj
 0002:0000a66c       ??_C@_1M@IFGBIJO@?$AAl?$AAt?$AA?9?$AAL?$AAT?$AA?$AA@ 1007a66c     libucrt:lcidtoname_downlevel.obj
 0002:0000a67c       ??_C@_1M@FGEAHEDM@?$AAf?$AAa?$AA?9?$AAI?$AAR?$AA?$AA@ 1007a67c     libucrt:lcidtoname_downlevel.obj
 0002:0000a68c       ??_C@_1M@KBMAIBFN@?$AAv?$AAi?$AA?9?$AAV?$AAN?$AA?$AA@ 1007a68c     libucrt:lcidtoname_downlevel.obj
 0002:0000a69c       ??_C@_1M@GPCBKDJK@?$AAh?$AAy?$AA?9?$AAA?$AAM?$AA?$AA@ 1007a69c     libucrt:lcidtoname_downlevel.obj
 0002:0000a6ac       ??_C@_1BG@BECMDDJB@?$AAa?$AAz?$AA?9?$AAA?$AAZ?$AA?9?$AAL?$AAa?$AAt?$AAn?$AA?$AA@ 1007a6ac     libucrt:lcidtoname_downlevel.obj
 0002:0000a6c8       ??_C@_1M@MAOFCAEA@?$AAe?$AAu?$AA?9?$AAE?$AAS?$AA?$AA@ 1007a6c8     libucrt:lcidtoname_downlevel.obj
 0002:0000a6d8       ??_C@_1M@IGHABKPI@?$AAm?$AAk?$AA?9?$AAM?$AAK?$AA?$AA@ 1007a6d8     libucrt:lcidtoname_downlevel.obj
 0002:0000a6e8       ??_C@_1M@IAIGNEJG@?$AAt?$AAn?$AA?9?$AAZ?$AAA?$AA?$AA@ 1007a6e8     libucrt:lcidtoname_downlevel.obj
 0002:0000a6f8       ??_C@_1M@IIJCOJFA@?$AAx?$AAh?$AA?9?$AAZ?$AAA?$AA?$AA@ 1007a6f8     libucrt:lcidtoname_downlevel.obj
 0002:0000a708       ??_C@_1M@LGPJHNJH@?$AAz?$AAu?$AA?9?$AAZ?$AAA?$AA?$AA@ 1007a708     libucrt:lcidtoname_downlevel.obj
 0002:0000a718       ??_C@_1M@HOKAOIO@?$AAa?$AAf?$AA?9?$AAZ?$AAA?$AA?$AA@ 1007a718     libucrt:lcidtoname_downlevel.obj
 0002:0000a728       ??_C@_1M@DPCLHLIE@?$AAk?$AAa?$AA?9?$AAG?$AAE?$AA?$AA@ 1007a728     libucrt:lcidtoname_downlevel.obj
 0002:0000a738       ??_C@_1M@BLKMHJBI@?$AAf?$AAo?$AA?9?$AAF?$AAO?$AA?$AA@ 1007a738     libucrt:lcidtoname_downlevel.obj
 0002:0000a748       ??_C@_1M@LGGJAPPB@?$AAh?$AAi?$AA?9?$AAI?$AAN?$AA?$AA@ 1007a748     libucrt:lcidtoname_downlevel.obj
 0002:0000a758       ??_C@_1M@FIKPIHFE@?$AAm?$AAt?$AA?9?$AAM?$AAT?$AA?$AA@ 1007a758     libucrt:lcidtoname_downlevel.obj
 0002:0000a768       ??_C@_1M@HEGGPBFA@?$AAs?$AAe?$AA?9?$AAN?$AAO?$AA?$AA@ 1007a768     libucrt:lcidtoname_downlevel.obj
 0002:0000a778       ??_C@_1M@EIBJEEPA@?$AAm?$AAs?$AA?9?$AAM?$AAY?$AA?$AA@ 1007a778     libucrt:lcidtoname_downlevel.obj
 0002:0000a788       ??_C@_1M@FHLBGMPP@?$AAk?$AAk?$AA?9?$AAK?$AAZ?$AA?$AA@ 1007a788     libucrt:lcidtoname_downlevel.obj
 0002:0000a798       ??_C@_1M@NGJJLCGI@?$AAk?$AAy?$AA?9?$AAK?$AAG?$AA?$AA@ 1007a798     libucrt:lcidtoname_downlevel.obj
 0002:0000a7a8       ??_C@_1M@GIENNBFC@?$AAs?$AAw?$AA?9?$AAK?$AAE?$AA?$AA@ 1007a7a8     libucrt:lcidtoname_downlevel.obj
 0002:0000a7b8       ??_C@_1BG@NDGMJIMJ@?$AAu?$AAz?$AA?9?$AAU?$AAZ?$AA?9?$AAL?$AAa?$AAt?$AAn?$AA?$AA@ 1007a7b8     libucrt:lcidtoname_downlevel.obj
 0002:0000a7d4       ??_C@_1M@IDCCIHBC@?$AAt?$AAt?$AA?9?$AAR?$AAU?$AA?$AA@ 1007a7d4     libucrt:lcidtoname_downlevel.obj
 0002:0000a7e4       ??_C@_1M@LOICPMOJ@?$AAb?$AAn?$AA?9?$AAI?$AAN?$AA?$AA@ 1007a7e4     libucrt:lcidtoname_downlevel.obj
 0002:0000a7f4       ??_C@_1M@KPKKNEAH@?$AAp?$AAa?$AA?9?$AAI?$AAN?$AA?$AA@ 1007a7f4     libucrt:lcidtoname_downlevel.obj
 0002:0000a804       ??_C@_1M@PJGPPBOG@?$AAg?$AAu?$AA?9?$AAI?$AAN?$AA?$AA@ 1007a804     libucrt:lcidtoname_downlevel.obj
 0002:0000a814       ??_C@_1M@KMKMOPHI@?$AAt?$AAa?$AA?9?$AAI?$AAN?$AA?$AA@ 1007a814     libucrt:lcidtoname_downlevel.obj
 0002:0000a824       ??_C@_1M@KFEHEPAC@?$AAt?$AAe?$AA?9?$AAI?$AAN?$AA?$AA@ 1007a824     libucrt:lcidtoname_downlevel.obj
 0002:0000a834       ??_C@_1M@CDCLMGHI@?$AAk?$AAn?$AA?9?$AAI?$AAN?$AA?$AA@ 1007a834     libucrt:lcidtoname_downlevel.obj
 0002:0000a844       ??_C@_1M@MIODLDKF@?$AAm?$AAl?$AA?9?$AAI?$AAN?$AA?$AA@ 1007a844     libucrt:lcidtoname_downlevel.obj
 0002:0000a854       ??_C@_1M@PBIEACPO@?$AAm?$AAr?$AA?9?$AAI?$AAN?$AA?$AA@ 1007a854     libucrt:lcidtoname_downlevel.obj
 0002:0000a864       ??_C@_1M@NIDEAGPH@?$AAs?$AAa?$AA?9?$AAI?$AAN?$AA?$AA@ 1007a864     libucrt:lcidtoname_downlevel.obj
 0002:0000a874       ??_C@_1M@FHIHCBIO@?$AAm?$AAn?$AA?9?$AAM?$AAN?$AA?$AA@ 1007a874     libucrt:lcidtoname_downlevel.obj
 0002:0000a884       ??_C@_1M@JAIJPENP@?$AAc?$AAy?$AA?9?$AAG?$AAB?$AA?$AA@ 1007a884     libucrt:lcidtoname_downlevel.obj
 0002:0000a894       ??_C@_1M@PHGFBEPN@?$AAg?$AAl?$AA?9?$AAE?$AAS?$AA?$AA@ 1007a894     libucrt:lcidtoname_downlevel.obj
 0002:0000a8a4       ??_C@_1O@KPIPDNCP@?$AAk?$AAo?$AAk?$AA?9?$AAI?$AAN?$AA?$AA@ 1007a8a4     libucrt:lcidtoname_downlevel.obj
 0002:0000a8b4       ??_C@_1O@KNHJLDJA@?$AAs?$AAy?$AAr?$AA?9?$AAS?$AAY?$AA?$AA@ 1007a8b4     libucrt:lcidtoname_downlevel.obj
 0002:0000a8c4       ??_C@_1O@MKEKBLAH@?$AAd?$AAi?$AAv?$AA?9?$AAM?$AAV?$AA?$AA@ 1007a8c4     libucrt:lcidtoname_downlevel.obj
 0002:0000a8d4       ??_C@_1O@OHDCKDDF@?$AAq?$AAu?$AAz?$AA?9?$AAB?$AAO?$AA?$AA@ 1007a8d4     libucrt:lcidtoname_downlevel.obj
 0002:0000a8e4       ??_C@_1M@LEPJNLFD@?$AAn?$AAs?$AA?9?$AAZ?$AAA?$AA?$AA@ 1007a8e4     libucrt:lcidtoname_downlevel.obj
 0002:0000a8f4       ??_C@_1M@OMLEIIJB@?$AAm?$AAi?$AA?9?$AAN?$AAZ?$AA?$AA@ 1007a8f4     libucrt:lcidtoname_downlevel.obj
 0002:0000a904       ??_C@_1M@PMPEAILG@?$AAa?$AAr?$AA?9?$AAI?$AAQ?$AA?$AA@ 1007a904     libucrt:lcidtoname_downlevel.obj
 0002:0000a914       ??_C@_1M@CNKPNOEE@?$AAd?$AAe?$AA?9?$AAC?$AAH?$AA?$AA@ 1007a914     libucrt:lcidtoname_downlevel.obj
 0002:0000a924       ??_C@_1M@LKMGMLKO@?$AAe?$AAn?$AA?9?$AAG?$AAB?$AA?$AA@ 1007a924     libucrt:lcidtoname_downlevel.obj
 0002:0000a934       ??_C@_1M@PGKJFFGL@?$AAe?$AAs?$AA?9?$AAM?$AAX?$AA?$AA@ 1007a934     libucrt:lcidtoname_downlevel.obj
 0002:0000a944       ??_C@_1M@DNNANBDC@?$AAf?$AAr?$AA?9?$AAB?$AAE?$AA?$AA@ 1007a944     libucrt:lcidtoname_downlevel.obj
 0002:0000a954       ??_C@_1M@HLGMDFHM@?$AAi?$AAt?$AA?9?$AAC?$AAH?$AA?$AA@ 1007a954     libucrt:lcidtoname_downlevel.obj
 0002:0000a964       ??_C@_1M@CLLBGJH@?$AAn?$AAl?$AA?9?$AAB?$AAE?$AA?$AA@ 1007a964     libucrt:lcidtoname_downlevel.obj
 0002:0000a974       ??_C@_1M@BODBOGLF@?$AAn?$AAn?$AA?9?$AAN?$AAO?$AA?$AA@ 1007a974     libucrt:lcidtoname_downlevel.obj
 0002:0000a984       ??_C@_1M@HFFAHKAD@?$AAp?$AAt?$AA?9?$AAP?$AAT?$AA?$AA@ 1007a984     libucrt:lcidtoname_downlevel.obj
 0002:0000a994       ??_C@_1BG@LNOAKHIE@?$AAs?$AAr?$AA?9?$AAS?$AAP?$AA?9?$AAL?$AAa?$AAt?$AAn?$AA?$AA@ 1007a994     libucrt:lcidtoname_downlevel.obj
 0002:0000a9b0       ??_C@_1M@HBMHBGAK@?$AAs?$AAv?$AA?9?$AAF?$AAI?$AA?$AA@ 1007a9b0     libucrt:lcidtoname_downlevel.obj
 0002:0000a9c0       ??_C@_1BG@DGCJGJBE@?$AAa?$AAz?$AA?9?$AAA?$AAZ?$AA?9?$AAC?$AAy?$AAr?$AAl?$AA?$AA@ 1007a9c0     libucrt:lcidtoname_downlevel.obj
 0002:0000a9dc       ??_C@_1M@KEJDAAHB@?$AAs?$AAe?$AA?9?$AAS?$AAE?$AA?$AA@ 1007a9dc     libucrt:lcidtoname_downlevel.obj
 0002:0000a9ec       ??_C@_1M@HEIBJJAD@?$AAm?$AAs?$AA?9?$AAB?$AAN?$AA?$AA@ 1007a9ec     libucrt:lcidtoname_downlevel.obj
 0002:0000a9fc       ??_C@_1BG@PBGJMCEM@?$AAu?$AAz?$AA?9?$AAU?$AAZ?$AA?9?$AAC?$AAy?$AAr?$AAl?$AA?$AA@ 1007a9fc     libucrt:lcidtoname_downlevel.obj
 0002:0000aa18       ??_C@_1O@LAOBCMDF@?$AAq?$AAu?$AAz?$AA?9?$AAE?$AAC?$AA?$AA@ 1007aa18     libucrt:lcidtoname_downlevel.obj
 0002:0000aa28       ??_C@_1M@POEEMAIO@?$AAa?$AAr?$AA?9?$AAE?$AAG?$AA?$AA@ 1007aa28     libucrt:lcidtoname_downlevel.obj
 0002:0000aa38       ??_C@_1M@EFAKDEDL@?$AAz?$AAh?$AA?9?$AAH?$AAK?$AA?$AA@ 1007aa38     libucrt:lcidtoname_downlevel.obj
 0002:0000aa48       ??_C@_1M@HKKIJHGI@?$AAd?$AAe?$AA?9?$AAA?$AAT?$AA?$AA@ 1007aa48     libucrt:lcidtoname_downlevel.obj
 0002:0000aa58       ??_C@_1M@KBFBEHJF@?$AAe?$AAn?$AA?9?$AAA?$AAU?$AA?$AA@ 1007aa58     libucrt:lcidtoname_downlevel.obj
 0002:0000aa68       ??_C@_1M@MNPLFAAH@?$AAe?$AAs?$AA?9?$AAE?$AAS?$AA?$AA@ 1007aa68     libucrt:lcidtoname_downlevel.obj
 0002:0000aa78       ??_C@_1M@HJOOJFMA@?$AAf?$AAr?$AA?9?$AAC?$AAA?$AA?$AA@ 1007aa78     libucrt:lcidtoname_downlevel.obj
 0002:0000aa88       ??_C@_1BG@JPOFPNAB@?$AAs?$AAr?$AA?9?$AAS?$AAP?$AA?9?$AAC?$AAy?$AAr?$AAl?$AA?$AA@ 1007aa88     libucrt:lcidtoname_downlevel.obj
 0002:0000aaa4       ??_C@_1M@LNFOCMOB@?$AAs?$AAe?$AA?9?$AAF?$AAI?$AA?$AA@ 1007aaa4     libucrt:lcidtoname_downlevel.obj
 0002:0000aab4       ??_C@_1O@MGJBOAMB@?$AAq?$AAu?$AAz?$AA?9?$AAP?$AAE?$AA?$AA@ 1007aab4     libucrt:lcidtoname_downlevel.obj
 0002:0000aac4       ??_C@_1M@GJINLBOK@?$AAa?$AAr?$AA?9?$AAL?$AAY?$AA?$AA@ 1007aac4     libucrt:lcidtoname_downlevel.obj
 0002:0000aad4       ??_C@_1M@GGMNHJNL@?$AAz?$AAh?$AA?9?$AAS?$AAG?$AA?$AA@ 1007aad4     libucrt:lcidtoname_downlevel.obj
 0002:0000aae4       ??_C@_1M@HOIKODND@?$AAd?$AAe?$AA?9?$AAL?$AAU?$AA?$AA@ 1007aae4     libucrt:lcidtoname_downlevel.obj
 0002:0000aaf4       ??_C@_1M@DDOCCGFG@?$AAe?$AAn?$AA?9?$AAC?$AAA?$AA?$AA@ 1007aaf4     libucrt:lcidtoname_downlevel.obj
 0002:0000ab04       ??_C@_1M@BNOEMJLF@?$AAe?$AAs?$AA?9?$AAG?$AAT?$AA?$AA@ 1007ab04     libucrt:lcidtoname_downlevel.obj
 0002:0000ab14       ??_C@_1M@EOGNKEK@?$AAf?$AAr?$AA?9?$AAC?$AAH?$AA?$AA@ 1007ab14     libucrt:lcidtoname_downlevel.obj
 0002:0000ab24       ??_C@_1M@FLIDJFHL@?$AAh?$AAr?$AA?9?$AAB?$AAA?$AA?$AA@ 1007ab24     libucrt:lcidtoname_downlevel.obj
 0002:0000ab34       ??_C@_1O@FMCELNAJ@?$AAs?$AAm?$AAj?$AA?9?$AAN?$AAO?$AA?$AA@ 1007ab34     libucrt:lcidtoname_downlevel.obj
 0002:0000ab44       ??_C@_1M@JHGLJMGJ@?$AAa?$AAr?$AA?9?$AAD?$AAZ?$AA?$AA@ 1007ab44     libucrt:lcidtoname_downlevel.obj
 0002:0000ab54       ??_C@_1M@JKKFDCNP@?$AAz?$AAh?$AA?9?$AAM?$AAO?$AA?$AA@ 1007ab54     libucrt:lcidtoname_downlevel.obj
 0002:0000ab64       ??_C@_1M@GEEFALPE@?$AAd?$AAe?$AA?9?$AAL?$AAI?$AA?$AA@ 1007ab64     libucrt:lcidtoname_downlevel.obj
 0002:0000ab74       ??_C@_1M@IGEOFBG@?$AAe?$AAn?$AA?9?$AAN?$AAZ?$AA?$AA@ 1007ab74     libucrt:lcidtoname_downlevel.obj
 0002:0000ab84       ??_C@_1M@KDBONEHP@?$AAe?$AAs?$AA?9?$AAC?$AAR?$AA?$AA@ 1007ab84     libucrt:lcidtoname_downlevel.obj
 0002:0000ab94       ??_C@_1M@FHMDOHNN@?$AAf?$AAr?$AA?9?$AAL?$AAU?$AA?$AA@ 1007ab94     libucrt:lcidtoname_downlevel.obj
 0002:0000aba4       ??_C@_1BG@NFKKMAFG@?$AAb?$AAs?$AA?9?$AAB?$AAA?$AA?9?$AAL?$AAa?$AAt?$AAn?$AA?$AA@ 1007aba4     libucrt:lcidtoname_downlevel.obj
 0002:0000abc0       ??_C@_1O@IMNBEMCI@?$AAs?$AAm?$AAj?$AA?9?$AAS?$AAE?$AA?$AA@ 1007abc0     libucrt:lcidtoname_downlevel.obj
 0002:0000abd0       ??_C@_1M@DHHMBNDP@?$AAa?$AAr?$AA?9?$AAM?$AAA?$AA?$AA@ 1007abd0     libucrt:lcidtoname_downlevel.obj
 0002:0000abe0       ??_C@_1M@BNBLJCGH@?$AAe?$AAn?$AA?9?$AAI?$AAE?$AA?$AA@ 1007abe0     libucrt:lcidtoname_downlevel.obj
 0002:0000abf0       ??_C@_1M@GEPAFMDL@?$AAe?$AAs?$AA?9?$AAP?$AAA?$AA?$AA@ 1007abf0     libucrt:lcidtoname_downlevel.obj
 0002:0000ac00       ??_C@_1M@OJONDMDL@?$AAf?$AAr?$AA?9?$AAM?$AAC?$AA?$AA@ 1007ac00     libucrt:lcidtoname_downlevel.obj
 0002:0000ac10       ??_C@_1BG@OBCNFJB@?$AAs?$AAr?$AA?9?$AAB?$AAA?$AA?9?$AAL?$AAa?$AAt?$AAn?$AA?$AA@ 1007ac10     libucrt:lcidtoname_downlevel.obj
 0002:0000ac2c       ??_C@_1O@KEMEEGPO@?$AAs?$AAm?$AAa?$AA?9?$AAN?$AAO?$AA?$AA@ 1007ac2c     libucrt:lcidtoname_downlevel.obj
 0002:0000ac3c       ??_C@_1M@ELMGFODK@?$AAa?$AAr?$AA?9?$AAT?$AAN?$AA?$AA@ 1007ac3c     libucrt:lcidtoname_downlevel.obj
 0002:0000ac4c       ??_C@_1M@BHDLHFAF@?$AAe?$AAn?$AA?9?$AAZ?$AAA?$AA?$AA@ 1007ac4c     libucrt:lcidtoname_downlevel.obj
 0002:0000ac5c       ??_C@_1M@BMGIGLIF@?$AAe?$AAs?$AA?9?$AAD?$AAO?$AA?$AA@ 1007ac5c     libucrt:lcidtoname_downlevel.obj
 0002:0000ac6c       ??_C@_1BG@CMBHIPBE@?$AAs?$AAr?$AA?9?$AAB?$AAA?$AA?9?$AAC?$AAy?$AAr?$AAl?$AA?$AA@ 1007ac6c     libucrt:lcidtoname_downlevel.obj
 0002:0000ac88       ??_C@_1O@HEDBLHNP@?$AAs?$AAm?$AAa?$AA?9?$AAS?$AAE?$AA?$AA@ 1007ac88     libucrt:lcidtoname_downlevel.obj
 0002:0000ac98       ??_C@_1M@DAGCADIM@?$AAa?$AAr?$AA?9?$AAO?$AAM?$AA?$AA@ 1007ac98     libucrt:lcidtoname_downlevel.obj
 0002:0000aca8       ??_C@_1M@FODLMICG@?$AAe?$AAn?$AA?9?$AAJ?$AAM?$AA?$AA@ 1007aca8     libucrt:lcidtoname_downlevel.obj
 0002:0000acb8       ??_C@_1M@DNMLCIHB@?$AAe?$AAs?$AA?9?$AAV?$AAE?$AA?$AA@ 1007acb8     libucrt:lcidtoname_downlevel.obj
 0002:0000acc8       ??_C@_1O@EOKHMKJK@?$AAs?$AAm?$AAs?$AA?9?$AAF?$AAI?$AA?$AA@ 1007acc8     libucrt:lcidtoname_downlevel.obj
 0002:0000acd8       ??_C@_1M@CAFJMKOF@?$AAa?$AAr?$AA?9?$AAY?$AAE?$AA?$AA@ 1007acd8     libucrt:lcidtoname_downlevel.obj
 0002:0000ace8       ??_C@_1M@CBFHIJLI@?$AAe?$AAn?$AA?9?$AAC?$AAB?$AA?$AA@ 1007ace8     libucrt:lcidtoname_downlevel.obj
 0002:0000acf8       ??_C@_1M@BGNFLDN@?$AAe?$AAs?$AA?9?$AAC?$AAO?$AA?$AA@ 1007acf8     libucrt:lcidtoname_downlevel.obj
 0002:0000ad08       ??_C@_1O@JMPHMAMC@?$AAs?$AAm?$AAn?$AA?9?$AAF?$AAI?$AA?$AA@ 1007ad08     libucrt:lcidtoname_downlevel.obj
 0002:0000ad18       ??_C@_1M@JLANABKE@?$AAa?$AAr?$AA?9?$AAS?$AAY?$AA?$AA@ 1007ad18     libucrt:lcidtoname_downlevel.obj
 0002:0000ad28       ??_C@_1M@HPKGCFGN@?$AAe?$AAn?$AA?9?$AAB?$AAZ?$AA?$AA@ 1007ad28     libucrt:lcidtoname_downlevel.obj
 0002:0000ad38       ??_C@_1M@OLJCMLGM@?$AAe?$AAs?$AA?9?$AAP?$AAE?$AA?$AA@ 1007ad38     libucrt:lcidtoname_downlevel.obj
 0002:0000ad48       ??_C@_1M@MKKGFKLE@?$AAa?$AAr?$AA?9?$AAJ?$AAO?$AA?$AA@ 1007ad48     libucrt:lcidtoname_downlevel.obj
 0002:0000ad58       ??_C@_1M@EKPGLDNI@?$AAe?$AAn?$AA?9?$AAT?$AAT?$AA?$AA@ 1007ad58     libucrt:lcidtoname_downlevel.obj
 0002:0000ad68       ??_C@_1M@OONGHFHE@?$AAe?$AAs?$AA?9?$AAA?$AAR?$AA?$AA@ 1007ad68     libucrt:lcidtoname_downlevel.obj
 0002:0000ad78       ??_C@_1M@OOJFGBHE@?$AAa?$AAr?$AA?9?$AAL?$AAB?$AA?$AA@ 1007ad78     libucrt:lcidtoname_downlevel.obj
 0002:0000ad88       ??_C@_1M@GCEJHNEG@?$AAe?$AAn?$AA?9?$AAZ?$AAW?$AA?$AA@ 1007ad88     libucrt:lcidtoname_downlevel.obj
 0002:0000ad98       ??_C@_1M@JNOCAHJI@?$AAe?$AAs?$AA?9?$AAE?$AAC?$AA?$AA@ 1007ad98     libucrt:lcidtoname_downlevel.obj
 0002:0000ada8       ??_C@_1M@JEFHPGGB@?$AAa?$AAr?$AA?9?$AAK?$AAW?$AA?$AA@ 1007ada8     libucrt:lcidtoname_downlevel.obj
 0002:0000adb8       ??_C@_1M@MLKIBJOJ@?$AAe?$AAn?$AA?9?$AAP?$AAH?$AA?$AA@ 1007adb8     libucrt:lcidtoname_downlevel.obj
 0002:0000adc8       ??_C@_1M@BDNIPEND@?$AAe?$AAs?$AA?9?$AAC?$AAL?$AA?$AA@ 1007adc8     libucrt:lcidtoname_downlevel.obj
 0002:0000add8       ??_C@_1M@MPNMEKBD@?$AAa?$AAr?$AA?9?$AAA?$AAE?$AA?$AA@ 1007add8     libucrt:lcidtoname_downlevel.obj
 0002:0000ade8       ??_C@_1M@KBJALCPI@?$AAe?$AAs?$AA?9?$AAU?$AAY?$AA?$AA@ 1007ade8     libucrt:lcidtoname_downlevel.obj
 0002:0000adf8       ??_C@_1M@LLCCOAGA@?$AAa?$AAr?$AA?9?$AAB?$AAH?$AA?$AA@ 1007adf8     libucrt:lcidtoname_downlevel.obj
 0002:0000ae08       ??_C@_1M@PBFNCDEL@?$AAe?$AAs?$AA?9?$AAP?$AAY?$AA?$AA@ 1007ae08     libucrt:lcidtoname_downlevel.obj
 0002:0000ae18       ??_C@_1M@EDGINPNP@?$AAa?$AAr?$AA?9?$AAQ?$AAA?$AA?$AA@ 1007ae18     libucrt:lcidtoname_downlevel.obj
 0002:0000ae28       ??_C@_1M@MKDBIIJI@?$AAe?$AAs?$AA?9?$AAB?$AAO?$AA?$AA@ 1007ae28     libucrt:lcidtoname_downlevel.obj
 0002:0000ae38       ??_C@_1M@CPKKEBLD@?$AAe?$AAs?$AA?9?$AAS?$AAV?$AA?$AA@ 1007ae38     libucrt:lcidtoname_downlevel.obj
 0002:0000ae48       ??_C@_1M@NDBGMMJL@?$AAe?$AAs?$AA?9?$AAH?$AAN?$AA?$AA@ 1007ae48     libucrt:lcidtoname_downlevel.obj
 0002:0000ae58       ??_C@_1M@JIJIBHDP@?$AAe?$AAs?$AA?9?$AAN?$AAI?$AA?$AA@ 1007ae58     libucrt:lcidtoname_downlevel.obj
 0002:0000ae68       ??_C@_1M@CGFMKEEK@?$AAe?$AAs?$AA?9?$AAP?$AAR?$AA?$AA@ 1007ae68     libucrt:lcidtoname_downlevel.obj
 0002:0000ae78       ??_C@_1O@ICJHKIIK@?$AAz?$AAh?$AA?9?$AAC?$AAH?$AAT?$AA?$AA@ 1007ae78     libucrt:lcidtoname_downlevel.obj
 0002:0000ae88       ??_C@_15CLNEJCE@?$AAs?$AAr?$AA?$AA@ 1007ae88     libucrt:lcidtoname_downlevel.obj
 0002:0000b71c       ??_C@_1M@KAHEKEIG@?$AAa?$AAf?$AA?9?$AAz?$AAa?$AA?$AA@ 1007b71c     libucrt:lcidtoname_downlevel.obj
 0002:0000b72c       ??_C@_1M@GIECOABL@?$AAa?$AAr?$AA?9?$AAa?$AAe?$AA?$AA@ 1007b72c     libucrt:lcidtoname_downlevel.obj
 0002:0000b73c       ??_C@_1M@BMLMEKGI@?$AAa?$AAr?$AA?9?$AAb?$AAh?$AA?$AA@ 1007b73c     libucrt:lcidtoname_downlevel.obj
 0002:0000b74c       ??_C@_1M@DAPFDGGB@?$AAa?$AAr?$AA?9?$AAd?$AAz?$AA?$AA@ 1007b74c     libucrt:lcidtoname_downlevel.obj
 0002:0000b75c       ??_C@_1M@FJNKGKIG@?$AAa?$AAr?$AA?9?$AAe?$AAg?$AA?$AA@ 1007b75c     libucrt:lcidtoname_downlevel.obj
 0002:0000b76c       ??_C@_1M@FLGKKCLO@?$AAa?$AAr?$AA?9?$AAi?$AAq?$AA?$AA@ 1007b76c     libucrt:lcidtoname_downlevel.obj
 0002:0000b77c       ??_C@_1M@GNDIPALM@?$AAa?$AAr?$AA?9?$AAj?$AAo?$AA?$AA@ 1007b77c     libucrt:lcidtoname_downlevel.obj
 0002:0000b78c       ??_C@_1M@DDMJFMGJ@?$AAa?$AAr?$AA?9?$AAk?$AAw?$AA?$AA@ 1007b78c     libucrt:lcidtoname_downlevel.obj
 0002:0000b79c       ??_C@_1M@EJALMLHM@?$AAa?$AAr?$AA?9?$AAl?$AAb?$AA?$AA@ 1007b79c     libucrt:lcidtoname_downlevel.obj
 0002:0000b7ac       ??_C@_1M@MOBDBLOC@?$AAa?$AAr?$AA?9?$AAl?$AAy?$AA?$AA@ 1007b7ac     libucrt:lcidtoname_downlevel.obj
 0002:0000b7bc       ??_C@_1M@JAOCLHDH@?$AAa?$AAr?$AA?9?$AAm?$AAa?$AA?$AA@ 1007b7bc     libucrt:lcidtoname_downlevel.obj
 0002:0000b7cc       ??_C@_1M@JHPMKJIE@?$AAa?$AAr?$AA?9?$AAo?$AAm?$AA?$AA@ 1007b7cc     libucrt:lcidtoname_downlevel.obj
 0002:0000b7dc       ??_C@_1M@OEPGHFNH@?$AAa?$AAr?$AA?9?$AAq?$AAa?$AA?$AA@ 1007b7dc     libucrt:lcidtoname_downlevel.obj
 0002:0000b7ec       ??_C@_1M@KJDONENM@?$AAa?$AAr?$AA?9?$AAs?$AAa?$AA?$AA@ 1007b7ec     libucrt:lcidtoname_downlevel.obj
 0002:0000b7fc       ??_C@_1M@DMJDKLKM@?$AAa?$AAr?$AA?9?$AAs?$AAy?$AA?$AA@ 1007b7fc     libucrt:lcidtoname_downlevel.obj
 0002:0000b80c       ??_C@_1M@OMFIPEDC@?$AAa?$AAr?$AA?9?$AAt?$AAn?$AA?$AA@ 1007b80c     libucrt:lcidtoname_downlevel.obj
 0002:0000b81c       ??_C@_1M@IHMHGAON@?$AAa?$AAr?$AA?9?$AAy?$AAe?$AA?$AA@ 1007b81c     libucrt:lcidtoname_downlevel.obj
 0002:0000b82c       ??_C@_1BG@KDCPGJGB@?$AAa?$AAz?$AA?9?$AAa?$AAz?$AA?9?$AAc?$AAy?$AAr?$AAl?$AA?$AA@ 1007b82c     libucrt:lcidtoname_downlevel.obj
 0002:0000b848       ??_C@_1BG@IBCKDDOE@?$AAa?$AAz?$AA?9?$AAa?$AAz?$AA?9?$AAl?$AAa?$AAt?$AAn?$AA?$AA@ 1007b848     libucrt:lcidtoname_downlevel.obj
 0002:0000b864       ??_C@_1M@EGPFDCPD@?$AAb?$AAe?$AA?9?$AAb?$AAy?$AA?$AA@ 1007b864     libucrt:lcidtoname_downlevel.obj
 0002:0000b874       ??_C@_1M@PCMGMCGC@?$AAb?$AAg?$AA?9?$AAb?$AAg?$AA?$AA@ 1007b874     libucrt:lcidtoname_downlevel.obj
 0002:0000b884       ??_C@_1M@BJBMFGOB@?$AAb?$AAn?$AA?9?$AAi?$AAn?$AA?$AA@ 1007b884     libucrt:lcidtoname_downlevel.obj
 0002:0000b894       ??_C@_1BG@EAKMMACD@?$AAb?$AAs?$AA?9?$AAb?$AAa?$AA?9?$AAl?$AAa?$AAt?$AAn?$AA?$AA@ 1007b894     libucrt:lcidtoname_downlevel.obj
 0002:0000b8b0       ??_C@_1M@KGADAODK@?$AAc?$AAa?$AA?9?$AAe?$AAs?$AA?$AA@ 1007b8b0     libucrt:lcidtoname_downlevel.obj
 0002:0000b8c0       ??_C@_1M@COAJPDHI@?$AAc?$AAs?$AA?9?$AAc?$AAz?$AA?$AA@ 1007b8c0     libucrt:lcidtoname_downlevel.obj
 0002:0000b8d0       ??_C@_1M@DHBHFONH@?$AAc?$AAy?$AA?9?$AAg?$AAb?$AA?$AA@ 1007b8d0     libucrt:lcidtoname_downlevel.obj
 0002:0000b8e0       ??_C@_1M@IMGKELGA@?$AAd?$AAa?$AA?9?$AAd?$AAk?$AA?$AA@ 1007b8e0     libucrt:lcidtoname_downlevel.obj
 0002:0000b8f0       ??_C@_1M@NNDGDNGA@?$AAd?$AAe?$AA?9?$AAa?$AAt?$AA?$AA@ 1007b8f0     libucrt:lcidtoname_downlevel.obj
 0002:0000b900       ??_C@_1M@IKDBHEEM@?$AAd?$AAe?$AA?9?$AAc?$AAh?$AA?$AA@ 1007b900     libucrt:lcidtoname_downlevel.obj
 0002:0000b910       ??_C@_1M@GFFOJMCJ@?$AAd?$AAe?$AA?9?$AAd?$AAe?$AA?$AA@ 1007b910     libucrt:lcidtoname_downlevel.obj
 0002:0000b920       ??_C@_1M@MDNLKBPM@?$AAd?$AAe?$AA?9?$AAl?$AAi?$AA?$AA@ 1007b920     libucrt:lcidtoname_downlevel.obj
 0002:0000b930       ??_C@_1M@NJBEEJNL@?$AAd?$AAe?$AA?9?$AAl?$AAu?$AA?$AA@ 1007b930     libucrt:lcidtoname_downlevel.obj
 0002:0000b940       ??_C@_1O@GNNELBAP@?$AAd?$AAi?$AAv?$AA?9?$AAm?$AAv?$AA?$AA@ 1007b940     libucrt:lcidtoname_downlevel.obj
 0002:0000b950       ??_C@_1M@EJLEOGAE@?$AAe?$AAl?$AA?9?$AAg?$AAr?$AA?$AA@ 1007b950     libucrt:lcidtoname_downlevel.obj
 0002:0000b960       ??_C@_1M@GMPONJN@?$AAe?$AAn?$AA?9?$AAa?$AAu?$AA?$AA@ 1007b960     libucrt:lcidtoname_downlevel.obj
 0002:0000b970       ??_C@_1M@NIDIIPGF@?$AAe?$AAn?$AA?9?$AAb?$AAz?$AA?$AA@ 1007b970     libucrt:lcidtoname_downlevel.obj
 0002:0000b980       ??_C@_1M@JEHMIMFO@?$AAe?$AAn?$AA?9?$AAc?$AAa?$AA?$AA@ 1007b980     libucrt:lcidtoname_downlevel.obj
 0002:0000b990       ??_C@_1M@IGMJCDLA@?$AAe?$AAn?$AA?9?$AAc?$AAb?$AA?$AA@ 1007b990     libucrt:lcidtoname_downlevel.obj
 0002:0000b9a0       ??_C@_1M@BNFIGBKG@?$AAe?$AAn?$AA?9?$AAg?$AAb?$AA?$AA@ 1007b9a0     libucrt:lcidtoname_downlevel.obj
 0002:0000b9b0       ??_C@_1M@LKIFDIGP@?$AAe?$AAn?$AA?9?$AAi?$AAe?$AA?$AA@ 1007b9b0     libucrt:lcidtoname_downlevel.obj
 0002:0000b9c0       ??_C@_1M@PJKFGCCO@?$AAe?$AAn?$AA?9?$AAj?$AAm?$AA?$AA@ 1007b9c0     libucrt:lcidtoname_downlevel.obj
 0002:0000b9d0       ??_C@_1M@KPPKEPBO@?$AAe?$AAn?$AA?9?$AAn?$AAz?$AA?$AA@ 1007b9d0     libucrt:lcidtoname_downlevel.obj
 0002:0000b9e0       ??_C@_1M@GMDGLDOB@?$AAe?$AAn?$AA?9?$AAp?$AAh?$AA?$AA@ 1007b9e0     libucrt:lcidtoname_downlevel.obj
 0002:0000b9f0       ??_C@_1M@ONGIBJNA@?$AAe?$AAn?$AA?9?$AAt?$AAt?$AA?$AA@ 1007b9f0     libucrt:lcidtoname_downlevel.obj
 0002:0000ba00       ??_C@_1M@LLODPCMM@?$AAe?$AAn?$AA?9?$AAu?$AAs?$AA?$AA@ 1007ba00     libucrt:lcidtoname_downlevel.obj
 0002:0000ba10       ??_C@_1M@LAKFNPAN@?$AAe?$AAn?$AA?9?$AAz?$AAa?$AA?$AA@ 1007ba10     libucrt:lcidtoname_downlevel.obj
 0002:0000ba20       ??_C@_1M@MFNHNHEO@?$AAe?$AAn?$AA?9?$AAz?$AAw?$AA?$AA@ 1007ba20     libucrt:lcidtoname_downlevel.obj
 0002:0000ba30       ??_C@_1M@EJEINPHM@?$AAe?$AAs?$AA?9?$AAa?$AAr?$AA?$AA@ 1007ba30     libucrt:lcidtoname_downlevel.obj
 0002:0000ba40       ??_C@_1M@GNKPCCJA@?$AAe?$AAs?$AA?9?$AAb?$AAo?$AA?$AA@ 1007ba40     libucrt:lcidtoname_downlevel.obj
 0002:0000ba50       ??_C@_1M@LEEGFONL@?$AAe?$AAs?$AA?9?$AAc?$AAl?$AA?$AA@ 1007ba50     libucrt:lcidtoname_downlevel.obj
 0002:0000ba60       ??_C@_1M@KGPDPBDF@?$AAe?$AAs?$AA?9?$AAc?$AAo?$AA?$AA@ 1007ba60     libucrt:lcidtoname_downlevel.obj
 0002:0000ba70       ??_C@_1M@EIAHOHH@?$AAe?$AAs?$AA?9?$AAc?$AAr?$AA?$AA@ 1007ba70     libucrt:lcidtoname_downlevel.obj
 0002:0000ba80       ??_C@_1M@LLPGMBIN@?$AAe?$AAs?$AA?9?$AAd?$AAo?$AA?$AA@ 1007ba80     libucrt:lcidtoname_downlevel.obj
 0002:0000ba90       ??_C@_1M@DKHMKNJA@?$AAe?$AAs?$AA?9?$AAe?$AAc?$AA?$AA@ 1007ba90     libucrt:lcidtoname_downlevel.obj
 0002:0000baa0       ??_C@_1M@GKGFPKAP@?$AAe?$AAs?$AA?9?$AAe?$AAs?$AA?$AA@ 1007baa0     libucrt:lcidtoname_downlevel.obj
 0002:0000bab0       ??_C@_1M@LKHKGDLN@?$AAe?$AAs?$AA?9?$AAg?$AAt?$AA?$AA@ 1007bab0     libucrt:lcidtoname_downlevel.obj
 0002:0000bac0       ??_C@_1M@HEIIGGJD@?$AAe?$AAs?$AA?9?$AAh?$AAn?$AA?$AA@ 1007bac0     libucrt:lcidtoname_downlevel.obj
 0002:0000bad0       ??_C@_1M@FBDHPPGD@?$AAe?$AAs?$AA?9?$AAm?$AAx?$AA?$AA@ 1007bad0     libucrt:lcidtoname_downlevel.obj
 0002:0000bae0       ??_C@_1M@DPAGLNDH@?$AAe?$AAs?$AA?9?$AAn?$AAi?$AA?$AA@ 1007bae0     libucrt:lcidtoname_downlevel.obj
 0002:0000baf0       ??_C@_1M@MDGOPGDD@?$AAe?$AAs?$AA?9?$AAp?$AAa?$AA?$AA@ 1007baf0     libucrt:lcidtoname_downlevel.obj
 0002:0000bb00       ??_C@_1M@EMAMGBGE@?$AAe?$AAs?$AA?9?$AAp?$AAe?$AA?$AA@ 1007bb00     libucrt:lcidtoname_downlevel.obj
 0002:0000bb10       ??_C@_1M@IBMCAOEC@?$AAe?$AAs?$AA?9?$AAp?$AAr?$AA?$AA@ 1007bb10     libucrt:lcidtoname_downlevel.obj
 0002:0000bb20       ??_C@_1M@FGMDIJED@?$AAe?$AAs?$AA?9?$AAp?$AAy?$AA?$AA@ 1007bb20     libucrt:lcidtoname_downlevel.obj
 0002:0000bb30       ??_C@_1M@IIDEOLLL@?$AAe?$AAs?$AA?9?$AAs?$AAv?$AA?$AA@ 1007bb30     libucrt:lcidtoname_downlevel.obj
 0002:0000bb40       ??_C@_1M@GAOBIPA@?$AAe?$AAs?$AA?9?$AAu?$AAy?$AA?$AA@ 1007bb40     libucrt:lcidtoname_downlevel.obj
 0002:0000bb50       ??_C@_1M@JKFFICHJ@?$AAe?$AAs?$AA?9?$AAv?$AAe?$AA?$AA@ 1007bb50     libucrt:lcidtoname_downlevel.obj
 0002:0000bb60       ??_C@_1M@PNMLOJDF@?$AAe?$AAt?$AA?9?$AAe?$AAe?$AA?$AA@ 1007bb60     libucrt:lcidtoname_downlevel.obj
 0002:0000bb70       ??_C@_1M@GHHLIKEI@?$AAe?$AAu?$AA?9?$AAe?$AAs?$AA?$AA@ 1007bb70     libucrt:lcidtoname_downlevel.obj
 0002:0000bb80       ??_C@_1M@PBNONODE@?$AAf?$AAa?$AA?9?$AAi?$AAr?$AA?$AA@ 1007bb80     libucrt:lcidtoname_downlevel.obj
 0002:0000bb90       ??_C@_1M@JEEHPMIL@?$AAf?$AAi?$AA?9?$AAf?$AAi?$AA?$AA@ 1007bb90     libucrt:lcidtoname_downlevel.obj
 0002:0000bba0       ??_C@_1M@LMDCNDBA@?$AAf?$AAo?$AA?9?$AAf?$AAo?$AA?$AA@ 1007bba0     libucrt:lcidtoname_downlevel.obj
 0002:0000bbb0       ??_C@_1M@JKEOHLDK@?$AAf?$AAr?$AA?9?$AAb?$AAe?$AA?$AA@ 1007bbb0     libucrt:lcidtoname_downlevel.obj
 0002:0000bbc0       ??_C@_1M@NOHADPMI@?$AAf?$AAr?$AA?9?$AAc?$AAa?$AA?$AA@ 1007bbc0     libucrt:lcidtoname_downlevel.obj
 0002:0000bbd0       ??_C@_1M@KDHIHAEC@?$AAf?$AAr?$AA?9?$AAc?$AAh?$AA?$AA@ 1007bbd0     libucrt:lcidtoname_downlevel.obj
 0002:0000bbe0       ??_C@_1M@MMBBFGAK@?$AAf?$AAr?$AA?9?$AAf?$AAr?$AA?$AA@ 1007bbe0     libucrt:lcidtoname_downlevel.obj
 0002:0000bbf0       ??_C@_1M@PAFNENNF@?$AAf?$AAr?$AA?9?$AAl?$AAu?$AA?$AA@ 1007bbf0     libucrt:lcidtoname_downlevel.obj
 0002:0000bc00       ??_C@_1M@EOHDJGDD@?$AAf?$AAr?$AA?9?$AAm?$AAc?$AA?$AA@ 1007bc00     libucrt:lcidtoname_downlevel.obj
 0002:0000bc10       ??_C@_1M@FAPLLOPF@?$AAg?$AAl?$AA?9?$AAe?$AAs?$AA?$AA@ 1007bc10     libucrt:lcidtoname_downlevel.obj
 0002:0000bc20       ??_C@_1M@FOPBFLOO@?$AAg?$AAu?$AA?9?$AAi?$AAn?$AA?$AA@ 1007bc20     libucrt:lcidtoname_downlevel.obj
 0002:0000bc30       ??_C@_1M@KBMCINPM@?$AAh?$AAe?$AA?9?$AAi?$AAl?$AA?$AA@ 1007bc30     libucrt:lcidtoname_downlevel.obj
 0002:0000bc40       ??_C@_1M@BBPHKFPJ@?$AAh?$AAi?$AA?9?$AAi?$AAn?$AA?$AA@ 1007bc40     libucrt:lcidtoname_downlevel.obj
 0002:0000bc50       ??_C@_1M@PMBNDPHD@?$AAh?$AAr?$AA?9?$AAb?$AAa?$AA?$AA@ 1007bc50     libucrt:lcidtoname_downlevel.obj
 0002:0000bc60       ??_C@_1M@BPCKOEGE@?$AAh?$AAr?$AA?9?$AAh?$AAr?$AA?$AA@ 1007bc60     libucrt:lcidtoname_downlevel.obj
 0002:0000bc70       ??_C@_1M@GACBMHKE@?$AAh?$AAu?$AA?9?$AAh?$AAu?$AA?$AA@ 1007bc70     libucrt:lcidtoname_downlevel.obj
 0002:0000bc80       ??_C@_1M@MILPAJJC@?$AAh?$AAy?$AA?9?$AAa?$AAm?$AA?$AA@ 1007bc80     libucrt:lcidtoname_downlevel.obj
 0002:0000bc90       ??_C@_1M@BABBICEC@?$AAi?$AAd?$AA?9?$AAi?$AAd?$AA?$AA@ 1007bc90     libucrt:lcidtoname_downlevel.obj
 0002:0000bca0       ??_C@_1M@BIKNHHPF@?$AAi?$AAs?$AA?9?$AAi?$AAs?$AA?$AA@ 1007bca0     libucrt:lcidtoname_downlevel.obj
 0002:0000bcb0       ??_C@_1M@NMPCJPHE@?$AAi?$AAt?$AA?9?$AAc?$AAh?$AA?$AA@ 1007bcb0     libucrt:lcidtoname_downlevel.obj
 0002:0000bcc0       ??_C@_1M@GHKGFEDF@?$AAi?$AAt?$AA?9?$AAi?$AAt?$AA?$AA@ 1007bcc0     libucrt:lcidtoname_downlevel.obj
 0002:0000bcd0       ??_C@_1M@NIEJCJJA@?$AAj?$AAa?$AA?9?$AAj?$AAp?$AA?$AA@ 1007bcd0     libucrt:lcidtoname_downlevel.obj
 0002:0000bce0       ??_C@_1M@JILFNBIM@?$AAk?$AAa?$AA?9?$AAg?$AAe?$AA?$AA@ 1007bce0     libucrt:lcidtoname_downlevel.obj
 0002:0000bcf0       ??_C@_1M@PACPMGPH@?$AAk?$AAk?$AA?9?$AAk?$AAz?$AA?$AA@ 1007bcf0     libucrt:lcidtoname_downlevel.obj
 0002:0000bd00       ??_C@_1M@IELFGMHA@?$AAk?$AAn?$AA?9?$AAi?$AAn?$AA?$AA@ 1007bd00     libucrt:lcidtoname_downlevel.obj
 0002:0000bd10       ??_C@_1O@IBBJHCH@?$AAk?$AAo?$AAk?$AA?9?$AAi?$AAn?$AA?$AA@ 1007bd10     libucrt:lcidtoname_downlevel.obj
 0002:0000bd20       ??_C@_1M@DMHAEOGC@?$AAk?$AAo?$AA?9?$AAk?$AAr?$AA?$AA@ 1007bd20     libucrt:lcidtoname_downlevel.obj
 0002:0000bd30       ??_C@_1M@HBAHBIGA@?$AAk?$AAy?$AA?9?$AAk?$AAg?$AA?$AA@ 1007bd30     libucrt:lcidtoname_downlevel.obj
