 homing_ldm_aggiornat_slrt

 Timestamp is 619e6b51 (Wed Nov 24 17:41:53 2021)

 Preferred load address is 10000000

 Start         Length     Name                   Class
 0001:00000000 0006dde3H .text$mn                CODE
 0001:0006dde3 00001085H .text$x                 CODE
 0002:00000000 00000104H .CRT$XCA                DATA
 0002:00000104 00000104H .CRT$XCZ                DATA
 0002:00000208 00000104H .CRT$XIA                DATA
 0002:0000030c 00000110H .CRT$XIC                DATA
 0002:0000041c 00000104H .CRT$XIZ                DATA
 0002:00000520 00000104H .CRT$XPA                DATA
 0002:00000624 0000010cH .CRT$XPX                DATA
 0002:00000730 00000104H .CRT$XPXA               DATA
 0002:00000834 00000104H .CRT$XPZ                DATA
 0002:00000938 00000104H .CRT$XTA                DATA
 0002:00000a3c 00000104H .CRT$XTZ                DATA
 0002:00000b40 0000edbcH .rdata                  DATA
 0002:0000f8fc 00000444H .rdata$r                DATA
 0002:0000fd40 00000128H .rdata$sxdata           DATA
 0002:0000fe68 0000022cH .rdata$zzzdbg           DATA
 0002:00010094 00000104H .rtc$IAA                DATA
 0002:00010198 00000104H .rtc$IZZ                DATA
 0002:0001029c 00000104H .rtc$TAA                DATA
 0002:000103a0 00000108H .rtc$TZZ                DATA
 0002:000104a8 00000ce8H .xdata$x                DATA
 0002:00011190 000001f0H .edata                  DATA
 0003:00000000 00001e04H .data                   DATA
 0003:00001e04 0000025cH .data$r                 DATA
 0003:00002060 00016a14H .bss                    DATA
 0004:00000000 000001b4H .idata$5                DATA
 0004:000001b4 00000014H .idata$2                DATA
 0004:000001c8 00000014H .idata$3                DATA
 0004:000001dc 000001b4H .idata$4                DATA
 0004:00000390 000007a2H .idata$6                DATA
 0005:00000000 00000104H .00cfg                  DATA

  Address         Publics by Value              Rva+Base       Lib:Object

 0000:00000000       ___enclave_config          00000000     <absolute>
 0000:00000000       ___hybrid_auxiliary_iat    00000000     <absolute>
 0000:00000000       ___hybrid_code_map         00000000     <absolute>
 0000:00000000       ___guard_fids_table        00000000     <absolute>
 0000:00000000       ___guard_iat_count         00000000     <absolute>
 0000:00000000       ___volatile_metadata       00000000     <absolute>
 0000:00000000       ___guard_fids_count        00000000     <absolute>
 0000:00000000       ___guard_longjmp_table     00000000     <absolute>
 0000:00000000       ___guard_iat_table         00000000     <absolute>
 0000:00000000       ___hybrid_code_map_count   00000000     <absolute>
 0000:00000000       __except_list              00000000     <absolute>
 0000:00000000       ___dynamic_value_reloc_table 00000000     <absolute>
 0000:00000000       ___guard_longjmp_count     00000000     <absolute>
 0000:00000008       ___safe_se_handler_count   00000008     <absolute>
 0000:00000100       ___guard_flags             00000100     <absolute>
 0000:00000000       ___ImageBase               10000000     <linker-defined>
 0001:00006500       _MdlInitialize             10007500 f   homing_ldm_aggiornat.obj
 0001:00006510       _MdlInitializeSampleTimes  10007510 f   homing_ldm_aggiornat.obj
 0001:00006520       _MdlInitializeSizes        10007520 f   homing_ldm_aggiornat.obj
 0001:00006530       _MdlOutputs                10007530 f   homing_ldm_aggiornat.obj
 0001:00006540       _MdlStart                  10007540 f   homing_ldm_aggiornat.obj
 0001:00006710       _MdlTerminate              10007710 f   homing_ldm_aggiornat.obj
 0001:000067c0       _MdlUpdate                 100077c0 f   homing_ldm_aggiornat.obj
 0001:00006920       _homing_ldm_aggiornat      10007920 f   homing_ldm_aggiornat.obj
 0001:00008f20       _rt_mxCreateCharMatrixFromStrings 10009f20 f   rt_matrx.obj
 0001:00009080       _rt_mxCreateDoubleMatrix   1000a080 f   rt_matrx.obj
 0001:000090e0       _rt_mxCreateNumericArray   1000a0e0 f   rt_matrx.obj
 0001:00009150       _rt_mxCreateString         1000a150 f   rt_matrx.obj
 0001:000091e0       _rt_mxDuplicateArray       1000a1e0 f   rt_matrx.obj
 0001:00009240       _rt_mxGetDimensions        1000a240 f   rt_matrx.obj
 0001:00009280       _rt_mxGetEps               1000a280 f   rt_matrx.obj
 0001:00009290       _rt_mxGetString            1000a290 f   rt_matrx.obj
 0001:00009310       _rtPrintfNoOp              1000a310 f   rt_printf.obj
 0001:00009320       _homing_ldm_aggiornat_GetCAPIStaticMap 1000a320 f   homing_ldm_aggiornat_capi.obj
 0001:00009330       _homing_ldm_aggiornat_InitializeDataMapInfo 1000a330 f   homing_ldm_aggiornat_capi.obj
 0001:000093c0       _rtGetInf                  1000a3c0 f   rtGetInf.obj
 0001:000093f0       _rtGetInfF                 1000a3f0 f   rtGetInf.obj
 0001:00009410       _rtGetMinusInf             1000a410 f   rtGetInf.obj
 0001:00009440       _rtGetMinusInfF            1000a440 f   rtGetInf.obj
 0001:00009460       _rtGetNaN                  1000a460 f   rtGetNaN.obj
 0001:00009490       _rtGetNaNF                 1000a490 f   rtGetNaN.obj
 0001:000094b0       _rtIsInf                   1000a4b0 f   rt_nonfinite.obj
 0001:000094f0       _rtIsInfF                  1000a4f0 f   rt_nonfinite.obj
 0001:00009530       _rtIsNaN                   1000a530 f   rt_nonfinite.obj
 0001:00009540       _rtIsNaNF                  1000a540 f   rt_nonfinite.obj
 0001:00009550       _rt_InitInfAndNaN          1000a550 f   rt_nonfinite.obj
 0001:000095b0       _rt_CleanUpForStateLogWithMMI 1000a5b0 f   rt_logging_mmi.obj
 0001:000096c0       _rt_FillStateSigInfoFromMMI 1000a6c0 f   rt_logging_mmi.obj
 0001:00009a60       _rtwCAPI_CountSysRan       1000aa60 f   rtw_modelmap_utils.obj
 0001:00009b00       _rtwCAPI_EncodePath        1000ab00 f   rtw_modelmap_utils.obj
 0001:00009c10       _rtwCAPI_FillSysRan        1000ac10 f   rtw_modelmap_utils.obj
 0001:00009d00       _rtwCAPI_FreeFullPaths     1000ad00 f   rtw_modelmap_utils.obj
 0001:00009d90       _rtwCAPI_GetFullStateBlockPath 1000ad90 f   rtw_modelmap_utils.obj
 0001:00009f20       _rtwCAPI_GetNumContStateRecords 1000af20 f   rtw_modelmap_utils.obj
 0001:00009fe0       _rtwCAPI_GetNumSigLogRecords 1000afe0 f   rtw_modelmap_utils.obj
 0001:0000a030       _rtwCAPI_GetNumSigLogRecordsForRTWLogging 1000b030 f   rtw_modelmap_utils.obj
 0001:0000a0d0       _rtwCAPI_GetNumStateRecords 1000b0d0 f   rtw_modelmap_utils.obj
 0001:0000a120       _rtwCAPI_GetNumStateRecordsForRTWLogging 1000b120 f   rtw_modelmap_utils.obj
 0001:0000a1c0       _rtwCAPI_GetSigAddrFromMap 1000b1c0 f   rtw_modelmap_utils.obj
 0001:0000a280       _rtwCAPI_GetSigLogRecordInfo 1000b280 f   rtw_modelmap_utils.obj
 0001:0000a6b0       _rtwCAPI_GetStateRecordInfo 1000b6b0 f   rtw_modelmap_utils.obj
 0001:0000ab70       _rtwCAPI_GetStateWidth     1000bb70 f   rtw_modelmap_utils.obj
 0001:0000abd0       _rtwCAPI_HasStates         1000bbd0 f   rtw_modelmap_utils.obj
 0001:0000ac30       _rtwCAPI_UpdateFullPaths   1000bc30 f   rtw_modelmap_utils.obj
 0001:0000ae10       ___local_stdio_printf_options 1000be10 f i rt_logging.obj
 0001:0000ae20       __vfprintf_l               1000be20 f i rt_logging.obj
 0001:0000ae50       __vsnprintf_l              1000be50 f i rt_logging.obj
 0001:0000ae90       __vsprintf_l               1000be90 f i rt_logging.obj
 0001:0000aed0       _fprintf                   1000bed0 f i rt_logging.obj
 0001:0000b3d0       _printf                    1000c3d0 f i rt_logging.obj
 0001:0000b410       _rt_CreateLogVar           1000c410 f   rt_logging.obj
 0001:0000b4a0       _rt_CreateLogVarWithConvert 1000c4a0 f   rt_logging.obj
 0001:0000bdd0       _rt_CreateStructLogVar     1000cdd0 f   rt_logging.obj
 0001:0000cb50       _rt_GetMxIdFromDTypeId     1000db50 f   rt_logging.obj
 0001:0000cb80       _rt_GetMxIdFromDTypeIdForRSim 1000db80 f   rt_logging.obj
 0001:0000f710       _rt_StartDataLogging       10010710 f   rt_logging.obj
 0001:0000fbd0       _rt_StartDataLoggingWithStartTime 10010bd0 f   rt_logging.obj
 0001:00010040       _rt_StopDataLogging        10011040 f   rt_logging.obj
 0001:00010060       _rt_StopDataLoggingImpl    10011060 f   rt_logging.obj
 0001:00010480       _rt_UpdateLogVar           10011480 f   rt_logging.obj
 0001:00011610       _rt_UpdateStructLogVar     10012610 f   rt_logging.obj
 0001:000116a0       _rt_UpdateTXXFYLogVars     100126a0 f   rt_logging.obj
 0001:000119d0       _rt_UpdateTXYLogVars       100129d0 f   rt_logging.obj
 0001:00011c10       _sprintf                   10012c10 f i rt_logging.obj
 0001:00011c50       _DllMain@12                10012c50 f   xpctarget.obj
 0001:00011c60       _SLRTSetErrorStatus        10012c60 f   xpctarget.obj
 0001:00011c80       _changeStepSize            10012c80 f   xpctarget.obj
 0001:00011cf0       _getDLMVersion             10012cf0 f   xpctarget.obj
 0001:00011d00       _getRefMdlPath             10012d00 f   xpctarget.obj
 0001:00011d80       _getRefMdlSignalNumber     10012d80 f   xpctarget.obj
 0001:00011e30       _getrlmdlinfo              10012e30 f   xpctarget.obj
 0001:00012010       _homing_ldm_aggiornat_ChangeStepSize 10013010 f   xpctarget.obj
 0001:00012080       _updateDiscreteEvents      10013080 f   xpctarget.obj
 0001:00012090       _getNumRef                 10013090 f   appmappingData.obj
 0001:000120a0       _vprintf                   100130a0 f i legacy_stdio.obj
 0001:000120e0       _danipcim                  100130e0 f   danipcim.obj
 0001:000128a0       _dinipcim                  100138a0 f   dinipcim.obj
 0001:00012c60       _donipcim                  10013c60 f   donipcim.obj
 0001:00013170       _encnipcim                 10014170 f   encnipcim.obj
 0001:00013830       _niMIdentify               10014830 f   xpcionim.obj
 0001:000139a0       _niM_AISetup               100149a0 f   xpcionim.obj
 0001:00013db0       _niM_AO_Setup              10014db0 f   xpcionim.obj
 0001:00013f40       _niM_Cont_Pulse_Train_Generation 10014f40 f   xpcionim.obj
 0001:00014080       _niM_Counter_Reset_All     10015080 f   xpcionim.obj
 0001:00014130       _niM_CtrArm                10015130 f   xpcionim.obj
 0001:00014150       _niM_CtrDisarm             10015150 f   xpcionim.obj
 0001:00014170       _niM_CtrReadArm            10015170 f   xpcionim.obj
 0001:00014190       _niM_CtrReadDisarm         10015190 f   xpcionim.obj
 0001:000141b0       _niM_PeriodConfigure       100151b0 f   xpcionim.obj
 0001:00014330       _niM_Private_Data          10015330 f   xpcionim.obj
 0001:00014910       _niM_SetPFIFilter          10015910 f   xpcionim.obj
 0001:00014990       _niM_SetPFI_DO             10015990 f   xpcionim.obj
 0001:000149d0       _niM_SetPFI_Select         100159d0 f   xpcionim.obj
 0001:00014a50       _niM_aiConfigureChannel    10015a50 f   xpcionim.obj
 0001:00014ac0       _niM_aiGetScalingCoefficients 10015ac0 f   xpcionim.obj
 0001:00014c90       _niM_aiPolynomialScaler    10015c90 f   xpcionim.obj
 0001:00014dc0       _niM_analogTriggerReset    10015dc0 f   xpcionim.obj
 0001:00014e10       _niM_aoConfigureDAC        10015e10 f   xpcionim.obj
 0001:00014e60       _niM_aoGetScalingCoefficients 10015e60 f   xpcionim.obj
 0001:00014f10       _niM_aoLinearScaler        10015f10 f   xpcionim.obj
 0001:00014f40       _niM_configureTimebase     10015f40 f   xpcionim.obj
 0001:00014f60       _niM_eepromReadMSeries     10015f60 f   xpcionim.obj
 0001:00015030       _niM_pllReset              10016030 f   xpcionim.obj
 0001:00015060       _niM_resetCtr              10016060 f   xpcionim.obj
 0001:00015080       _niM_whichBank             10016080 f   xpcionim.obj
 0001:000150c0       _niMconfig                 100160c0 f   xpcionim.obj
 0001:00015160       _GetPCIDeviceFull          10016160 f   xpcruntime:xpcimports.obj
 0001:000151a0       _ShowPCIDevice             100161a0 f   xpcruntime:xpcimports.obj
 0001:00015980       _xpcGetPciConfigAtSlot     10016980 f   xpcruntime:xpcimports.obj
 0001:00015c90       _xpcInitProcs              10016c90 f   xpcruntime:xpcimports.obj
 0001:00016ff0       _xpceuploadevent           10017ff0 f   xpcruntime:xpcimports.obj
 0001:00017000       __ftoui3                   10018000 f   LIBCMT:ftol3.obj
 0001:0001700f       __ftoul3                   1001800f f   LIBCMT:ftol3.obj
 0001:0001701e       __ftol3                    1001801e f   LIBCMT:ftol3.obj
 0001:0001702b       __ftol3_NaN                1001802b f   LIBCMT:ftol3.obj
 0001:00017043       __ftol3_work               10018043 f   LIBCMT:ftol3.obj
 0001:000170c9       __ftol3_common             100180c9 f   LIBCMT:ftol3.obj
 0001:0001718b       __ftol3_arg_error          1001818b f   LIBCMT:ftol3.obj
 0001:0001719d       __ftol3_except             1001819d f   LIBCMT:ftol3.obj
 0001:000171e1       __dtoui3                   100181e1 f   LIBCMT:ftol3.obj
 0001:000171f0       __dtoul3                   100181f0 f   LIBCMT:ftol3.obj
 0001:000171ff       __dtol3                    100181ff f   LIBCMT:ftol3.obj
 0001:0001720c       __dtol3_NaN                1001820c f   LIBCMT:ftol3.obj
 0001:00017229       __dtol3_work               10018229 f   LIBCMT:ftol3.obj
 0001:00017310       __ultod3                   10018310 f   LIBCMT:ftol3.obj
 0001:00017350       __ltod3                    10018350 f   LIBCMT:ftol3.obj
 0001:00017454       ___raise_securityfailure   10018454 f   LIBCMT:gs_report.obj
 0001:00017486       ___report_gsfailure        10018486 f   LIBCMT:gs_report.obj
 0001:000175bd       ___report_rangecheckfailure 100185bd f   LIBCMT:gs_report.obj
 0001:000175cc       ___report_securityfailure  100185cc f   LIBCMT:gs_report.obj
 0001:000176cd       ___report_securityfailureEx 100186cd f   LIBCMT:gs_report.obj
 0001:00017826       @__security_check_cookie@4 10018826 f   LIBCMT:secchk.obj
 0001:0001783b       ___isa_available_init      1001883b f   LIBCMT:cpu_disp.obj
 0001:00017e1c       __CRT_INIT@12              10018e1c f   LIBCMT:dll_dllmain.obj
 0001:00017e27       __DllMainCRTStartup@12     10018e27 f   LIBCMT:dll_dllmain.obj
 0001:00017eb2       ___security_init_cookie    10018eb2 f   LIBCMT:gs_support.obj
 0001:00017f0f       ?__scrt_initialize_type_info@@YAXXZ 10018f0f f   LIBCMT:tncleanup.obj
 0001:00017f1e       ?__scrt_uninitialize_type_info@@YAXXZ 10018f1e f   LIBCMT:tncleanup.obj
 0001:00017f2d       ___local_stdio_scanf_options 10018f2d f i LIBCMT:default_local_stdio_options.obj
 0001:00017f33       ___scrt_initialize_default_local_stdio_options 10018f33 f   LIBCMT:default_local_stdio_options.obj
 0001:00017f57       ??$__crt_fast_decode_pointer@PAP6AXXZ@@YAPAP6AXXZQAP6AXXZ@Z 10018f57 f i LIBCMT:utility.obj
 0001:00017f70       ??$__crt_fast_encode_pointer@PAP6AXXZ@@YAPAP6AXXZQAP6AXXZ@Z 10018f70 f i LIBCMT:utility.obj
 0001:00017f94       ?__crt_rotate_pointer_value@@YAIIH@Z 10018f94 f i LIBCMT:utility.obj
 0001:00017fa4       ?configure_argv@__scrt_narrow_argv_policy@@SAHXZ 10018fa4 f i LIBCMT:utility.obj
 0001:00018009       ?initialize_environment@__scrt_narrow_environment_policy@@SAHXZ 10019009 f i LIBCMT:utility.obj
 0001:0001804f       _NtCurrentTeb              1001904f f i LIBCMT:utility.obj
 0001:00018056       ___scrt_acquire_startup_lock 10019056 f   LIBCMT:utility.obj
 0001:00018094       ___scrt_dllmain_after_initialize_c 10019094 f   LIBCMT:utility.obj
 0001:000180c9       ___scrt_dllmain_before_initialize_c 100190c9 f   LIBCMT:utility.obj
 0001:000180da       ___scrt_dllmain_crt_thread_attach 100190da f   LIBCMT:utility.obj
 0001:00018100       ___scrt_dllmain_crt_thread_detach 10019100 f   LIBCMT:utility.obj
 0001:00018110       ___scrt_dllmain_exception_filter 10019110 f   LIBCMT:utility.obj
 0001:00018151       ___scrt_dllmain_uninitialize_c 10019151 f   LIBCMT:utility.obj
 0001:0001817c       ___scrt_dllmain_uninitialize_critical 1001917c f   LIBCMT:utility.obj
 0001:0001818c       ___scrt_initialize_crt     1001918c f   LIBCMT:utility.obj
 0001:000181d3       ___scrt_initialize_onexit_tables 100191d3 f   LIBCMT:utility.obj
 0001:000182a1       ___scrt_is_nonwritable_in_current_image 100192a1 f   LIBCMT:utility.obj
 0001:0001835a       ___scrt_release_startup_lock 1001935a f   LIBCMT:utility.obj
 0001:0001837e       ___scrt_uninitialize_crt   1001937e f   LIBCMT:utility.obj
 0001:000183b0       __onexit                   100193b0 f   LIBCMT:utility.obj
 0001:000183f9       _at_quick_exit             100193f9 f   LIBCMT:utility.obj
 0001:00018436       _atexit                    10019436 f   LIBCMT:utility.obj
 0001:00018450       ___scrt_get_dyn_tls_init_callback 10019450 f   LIBCMT:dyn_tls_init.obj
 0001:00018456       ___scrt_fastfail           10019456 f   LIBCMT:utility_desktop.obj
 0001:000185b6       ___scrt_get_show_window_mode 100195b6 f   LIBCMT:utility_desktop.obj
 0001:000185f3       ___scrt_initialize_mta     100195f3 f   LIBCMT:utility_desktop.obj
 0001:000185f8       ___scrt_initialize_winrt   100195f8 f   LIBCMT:utility_desktop.obj
 0001:000185fb       ___scrt_is_managed_app     100195fb f   LIBCMT:utility_desktop.obj
 0001:0001864e       ___scrt_set_unhandled_exception_filter 1001964e f   LIBCMT:utility_desktop.obj
 0001:0001865d       ___scrt_stub_for_initialize_mta 1001965d f   LIBCMT:utility_desktop.obj
 0001:0001865d       ___scrt_exe_initialize_mta 1001965d f   LIBCMT:utility_desktop.obj
 0001:00018660       ___scrt_unhandled_exception_filter@4 10019660 f   LIBCMT:utility_desktop.obj
 0001:000186b1       __crt_debugger_hook        100196b1 f   LIBCMT:utility_desktop.obj
 0001:000186bb       __RTC_Initialize           100196bb f   LIBCMT:initsect.obj
 0001:000186f2       __RTC_Terminate            100196f2 f   LIBCMT:initsect.obj
 0001:00018730       __SEH_prolog4              10019730 f   LIBCMT:sehprolg4.obj
 0001:00018776       __SEH_epilog4              10019776 f   LIBCMT:sehprolg4.obj
 0001:000187a1       @_guard_check_icall_nop@4  100197a1 f i LIBCMT:guard_support.obj
 0001:000187a2       _ReadNoFence               100197a2 f i LIBCMT:guard_support.obj
 0001:000187ae       _ReadPointerNoFence        100197ae f i LIBCMT:guard_support.obj
 0001:000187ba       __guard_icall_checks_enforced 100197ba f i LIBCMT:guard_support.obj
 0001:000187d0       __get_startup_argv_mode    100197d0 f   LIBCMT:argv_mode.obj
 0001:000187d4       ___scrt_is_ucrt_dll_in_use 100197d4 f   LIBCMT:ucrt_detection.obj
 0001:000187e3       _GetModuleHandleA@4        100197e3 f   kernel32:KERNEL32.dll
 0001:000187e9       _GetProcAddress@8          100197e9 f   kernel32:KERNEL32.dll
 0001:000187ef       _UnhandledExceptionFilter@4 100197ef f   kernel32:KERNEL32.dll
 0001:000187f5       _SetUnhandledExceptionFilter@4 100197f5 f   kernel32:KERNEL32.dll
 0001:000187fb       _GetCurrentProcess@0       100197fb f   kernel32:KERNEL32.dll
 0001:00018801       _TerminateProcess@8        10019801 f   kernel32:KERNEL32.dll
 0001:00018807       _IsProcessorFeaturePresent@4 10019807 f   kernel32:KERNEL32.dll
 0001:0001880d       _QueryPerformanceCounter@4 1001980d f   kernel32:KERNEL32.dll
 0001:00018813       _GetCurrentProcessId@0     10019813 f   kernel32:KERNEL32.dll
 0001:00018819       _GetCurrentThreadId@0      10019819 f   kernel32:KERNEL32.dll
 0001:0001881f       _GetSystemTimeAsFileTime@4 1001981f f   kernel32:KERNEL32.dll
 0001:00018825       _InitializeSListHead@4     10019825 f   kernel32:KERNEL32.dll
 0001:0001882b       _IsDebuggerPresent@0       1001982b f   kernel32:KERNEL32.dll
 0001:00018831       _GetStartupInfoW@4         10019831 f   kernel32:KERNEL32.dll
 0001:00018837       _GetModuleHandleW@4        10019837 f   kernel32:KERNEL32.dll
 0001:00018840       _memset                    10019840 f   libvcruntime:memset.obj
 0001:000189f0       _memcpy                    100199f0 f   libvcruntime:memcpy.obj
 0001:000190d0       _strchr                    1001a0d0 f   libvcruntime:strchr.obj
 0001:0001913e       ___from_strstr_to_strchr   1001a13e     libvcruntime:strchr.obj
 0001:00019250       _memmove                   1001a250 f   libvcruntime:memmove.obj
 0001:00019970       __except_handler4          1001a970 f   libvcruntime:chandler4.obj
 0001:00019b2c       ??$?RD@__crt_internal_free_policy@@QBEXQBD@Z 1001ab2c f i libvcruntime:std_type_info.obj
 0001:00019b40       ??$?RX@__crt_internal_free_policy@@QBEXQBX@Z 1001ab40 f i libvcruntime:std_type_info.obj
 0001:00019b54       ??$__crt_interlocked_compare_exchange_pointer@$$CBDPAD$$T@@YAPBDPDSBDQAD$$T@Z 1001ab54 f i libvcruntime:std_type_info.obj
 0001:00019b6a       ??$__crt_interlocked_read_pointer@$$CBD@@YAPBDPDSBD@Z 1001ab6a f i libvcruntime:std_type_info.obj
 0001:00019b76       ??0?$__crt_unique_heap_ptr@DU__crt_internal_free_policy@@@@QAE@QAD@Z 1001ab76 f i libvcruntime:std_type_info.obj
 0001:00019b87       ??0?$__crt_unique_heap_ptr@XU__crt_internal_free_policy@@@@QAE@QAX@Z 1001ab87 f i libvcruntime:std_type_info.obj
 0001:00019b98       ??1?$__crt_unique_heap_ptr@DU__crt_internal_free_policy@@@@QAE@XZ 1001ab98 f i libvcruntime:std_type_info.obj
 0001:00019bac       ??1?$__crt_unique_heap_ptr@XU__crt_internal_free_policy@@@@QAE@XZ 1001abac f i libvcruntime:std_type_info.obj
 0001:00019bcc       ??B?$__crt_unique_heap_ptr@DU__crt_internal_free_policy@@@@QBE_NXZ 1001abcc f i libvcruntime:std_type_info.obj
 0001:00019bd3       ??B?$__crt_unique_heap_ptr@XU__crt_internal_free_policy@@@@QBE_NXZ 1001abd3 f i libvcruntime:std_type_info.obj
 0001:00019c02       ?__crt_interlocked_read_32@@YAHPDH@Z 1001ac02 f i libvcruntime:std_type_info.obj
 0001:00019c0e       ?detach@?$__crt_unique_heap_ptr@XU__crt_internal_free_policy@@@@QAEPAXXZ 1001ac0e f i libvcruntime:std_type_info.obj
 0001:00019c14       ?get@?$__crt_unique_heap_ptr@DU__crt_internal_free_policy@@@@QBEPADXZ 1001ac14 f i libvcruntime:std_type_info.obj
 0001:00019c17       ?get@?$__crt_unique_heap_ptr@XU__crt_internal_free_policy@@@@QBEPAXXZ 1001ac17 f i libvcruntime:std_type_info.obj
 0001:00019c1a       ?is_valid@?$__crt_unique_heap_ptr@DU__crt_internal_free_policy@@@@QBE_NXZ 1001ac1a f i libvcruntime:std_type_info.obj
 0001:00019c21       ?is_valid@?$__crt_unique_heap_ptr@XU__crt_internal_free_policy@@@@QBE_NXZ 1001ac21 f i libvcruntime:std_type_info.obj
 0001:00019c28       ?release@?$__crt_unique_heap_ptr@DU__crt_internal_free_policy@@@@QAEXXZ 1001ac28 f i libvcruntime:std_type_info.obj
 0001:00019c3c       ?release@?$__crt_unique_heap_ptr@XU__crt_internal_free_policy@@@@QAEXXZ 1001ac3c f i libvcruntime:std_type_info.obj
 0001:00019c50       ___std_type_info_compare   1001ac50 f   libvcruntime:std_type_info.obj
 0001:00019c9b       ___std_type_info_destroy_list 1001ac9b f   libvcruntime:std_type_info.obj
 0001:00019cc6       ___std_type_info_hash      1001acc6 f   libvcruntime:std_type_info.obj
 0001:00019cf5       ___std_type_info_name      1001acf5 f   libvcruntime:std_type_info.obj
 0001:00019de8       ___vcrt_initialize         1001ade8 f   libvcruntime:initialization.obj
 0001:00019e1b       ___vcrt_thread_attach      1001ae1b f   libvcruntime:initialization.obj
 0001:00019e28       ___vcrt_thread_detach      1001ae28 f   libvcruntime:initialization.obj
 0001:00019e35       ___vcrt_uninitialize       1001ae35 f   libvcruntime:initialization.obj
 0001:00019e5b       ___vcrt_uninitialize_critical 1001ae5b f   libvcruntime:initialization.obj
 0001:00019e70       __local_unwind4            1001ae70 f   libvcruntime:exsup4.obj
 0001:00019f48       __seh_longjmp_unwind4@4    1001af48 f   libvcruntime:exsup4.obj
 0001:00019f70       @_EH4_CallFilterFunc@8     1001af70 f   libvcruntime:exsup4.obj
 0001:00019f88       @_EH4_TransferToHandler@8  1001af88 f   libvcruntime:exsup4.obj
 0001:00019fa4       @_EH4_GlobalUnwind2@8      1001afa4 f   libvcruntime:exsup4.obj
 0001:00019fc0       @_EH4_LocalUnwind@16       1001afc0 f   libvcruntime:exsup4.obj
 0001:0001a03d       ___except_validate_context_record 1001b03d f   libvcruntime:jbcxrval.obj
 0001:0001a079       ___except_validate_jump_buffer 1001b079 f   libvcruntime:jbcxrval.obj
 0001:0001a0b1       ___except_validate_jump_buffer_common 1001b0b1 f i libvcruntime:jbcxrval.obj
 0001:0001a0f8       ??0Block@_HeapManager@@QAE@XZ 1001b0f8 f i libvcruntime:undname.obj
 0001:0001a0fe       ??0DName@@QAE@AAPBDD@Z     1001b0fe f   libvcruntime:undname.obj
 0001:0001a1dc       ??0DName@@QAE@ABV0@@Z      1001b1dc f i libvcruntime:undname.obj
 0001:0001a1f7       ??0DName@@QAE@D@Z          1001b1f7 f   libvcruntime:undname.obj
 0001:0001a225       ??0DName@@QAE@PAV0@@Z      1001b225 f   libvcruntime:undname.obj
 0001:0001a27f       ??0DName@@QAE@PBD@Z        1001b27f f   libvcruntime:undname.obj
 0001:0001a2be       ??0DName@@QAE@W4DNameStatus@@@Z 1001b2be f   libvcruntime:undname.obj
 0001:0001a30e       ??0DName@@QAE@XZ           1001b30e f i libvcruntime:undname.obj
 0001:0001a31a       ??0DName@@QAE@_J@Z         1001b31a f   libvcruntime:undname.obj
 0001:0001a3c9       ??0DName@@QAE@_K@Z         1001b3c9 f   libvcruntime:undname.obj
 0001:0001a448       ??0DNameNode@@IAE@XZ       1001b448 f i libvcruntime:undname.obj
 0001:0001a453       ??0Replicator@@QAE@XZ      1001b453 f i libvcruntime:undname.obj
 0001:0001a464       ??0UnDecorator@@QAE@PBDP6APADJ@ZK@Z 1001b464 f i libvcruntime:undname.obj
 0001:0001a4c3       ??0charNode@@QAE@D@Z       1001b4c3 f i libvcruntime:undname.obj
 0001:0001a4dd       ??0pDNameNode@@QAE@PAVDName@@@Z 1001b4dd f   libvcruntime:undname.obj
 0001:0001a50f       ??0pairNode@@QAE@PBVDNameNode@@0@Z 1001b50f f i libvcruntime:undname.obj
 0001:0001a535       ??0pcharNode@@QAE@PBDH@Z   1001b535 f   libvcruntime:undname.obj
 0001:0001a5ab       ??2@YAPAXIAAV_HeapManager@@H@Z 1001b5ab f i libvcruntime:undname.obj
 0001:0001a5c5       ??4DName@@QAEAAV0@ABV0@@Z  1001b5c5 f   libvcruntime:undname.obj
 0001:0001a5e0       ??4DName@@QAEAAV0@D@Z      1001b5e0 f i libvcruntime:undname.obj
 0001:0001a60e       ??4DName@@QAEAAV0@PAV0@@Z  1001b60e f   libvcruntime:undname.obj
 0001:0001a660       ??4DName@@QAEAAV0@PBD@Z    1001b660 f   libvcruntime:undname.obj
 0001:0001a695       ??4DName@@QAEAAV0@W4DNameStatus@@@Z 1001b695 f   libvcruntime:undname.obj
 0001:0001a6d3       ??AReplicator@@QBE?AVDName@@H@Z 1001b6d3 f   libvcruntime:undname.obj
 0001:0001a72a       ??H@YA?AVDName@@DABV0@@Z   1001b72a f i libvcruntime:undname.obj
 0001:0001a754       ??H@YA?AVDName@@PBDABV0@@Z 1001b754 f i libvcruntime:undname.obj
 0001:0001a77e       ??H@YA?AVDName@@W4DNameStatus@@ABV0@@Z 1001b77e f i libvcruntime:undname.obj
 0001:0001a7a8       ??HDName@@QBE?AV0@ABV0@@Z  1001b7a8 f   libvcruntime:undname.obj
 0001:0001a7d2       ??HDName@@QBE?AV0@D@Z      1001b7d2 f   libvcruntime:undname.obj
 0001:0001a7fc       ??HDName@@QBE?AV0@PAV0@@Z  1001b7fc f   libvcruntime:undname.obj
 0001:0001a826       ??HDName@@QBE?AV0@PBD@Z    1001b826 f   libvcruntime:undname.obj
 0001:0001a850       ??HDName@@QBE?AV0@W4DNameStatus@@@Z 1001b850 f   libvcruntime:undname.obj
 0001:0001a87a       ??YDName@@QAEAAV0@ABV0@@Z  1001b87a f   libvcruntime:undname.obj
 0001:0001a8cb       ??YDName@@QAEAAV0@D@Z      1001b8cb f   libvcruntime:undname.obj
 0001:0001a92f       ??YDName@@QAEAAV0@PAV0@@Z  1001b92f f   libvcruntime:undname.obj
 0001:0001a9ad       ??YDName@@QAEAAV0@PBD@Z    1001b9ad f   libvcruntime:undname.obj
 0001:0001aa26       ??YDName@@QAEAAV0@W4DNameStatus@@@Z 1001ba26 f   libvcruntime:undname.obj
 0001:0001aa76       ??YReplicator@@QAEAAV0@ABVDName@@@Z 1001ba76 f   libvcruntime:undname.obj
 0001:0001aad2       ??_5DName@@QAEAAV0@ABV0@@Z 1001bad2 f   libvcruntime:undname.obj
 0001:0001aaf5       ?Constructor@_HeapManager@@QAEXP6APAXI@ZP6AXPAX@Z@Z 1001baf5 f i libvcruntime:undname.obj
 0001:0001ab19       ?Destructor@_HeapManager@@QAEXXZ 1001bb19 f i libvcruntime:undname.obj
 0001:0001ab5f       ?UScore@UnDecorator@@SAPBDW4Tokens@@@Z 1001bb5f f   libvcruntime:undname.obj
 0001:0001ab85       ?append@DName@@AAEXPBVDNameNode@@@Z 1001bb85 f   libvcruntime:undname.obj
 0001:0001abdc       ?composeDeclaration@UnDecorator@@CA?AVDName@@ABV2@@Z 1001bbdc f i libvcruntime:undname.obj
 0001:0001bbf0       ?doAccessSpecifiers@UnDecorator@@SAHXZ 1001cbf0 f i libvcruntime:undname.obj
 0001:0001bc01       ?doAllocationLanguage@UnDecorator@@SAHXZ 1001cc01 f i libvcruntime:undname.obj
 0001:0001bc12       ?doAllocationModel@UnDecorator@@SAHXZ 1001cc12 f i libvcruntime:undname.obj
 0001:0001bc23       ?doEcsu@UnDecorator@@SAHXZ 1001cc23 f i libvcruntime:undname.obj
 0001:0001bc34       ?doEllipsis@UnDecorator@@SAHXZ 1001cc34 f i libvcruntime:undname.obj
 0001:0001bc45       ?doFunctionReturns@UnDecorator@@SAHXZ 1001cc45 f i libvcruntime:undname.obj
 0001:0001bc56       ?doMSKeywords@UnDecorator@@SAHXZ 1001cc56 f i libvcruntime:undname.obj
 0001:0001bc66       ?doMemberTypes@UnDecorator@@SAHXZ 1001cc66 f i libvcruntime:undname.obj
 0001:0001bc77       ?doNameOnly@UnDecorator@@SAHXZ 1001cc77 f i libvcruntime:undname.obj
 0001:0001bc84       ?doNoIdentCharCheck@UnDecorator@@SAHXZ 1001cc84 f i libvcruntime:undname.obj
 0001:0001bc91       ?doPchar@DName@@AAEXPBDH@Z 1001cc91 f   libvcruntime:undname.obj
 0001:0001bd38       ?doPtr64@UnDecorator@@SAHXZ 1001cd38 f i libvcruntime:undname.obj
 0001:0001bd49       ?doRestrictionSpec@UnDecorator@@SAHXZ 1001cd49 f i libvcruntime:undname.obj
 0001:0001bd5a       ?doThisTypes@UnDecorator@@SAHXZ 1001cd5a f i libvcruntime:undname.obj
 0001:0001bd70       ?doThrowTypes@UnDecorator@@SAHXZ 1001cd70 f i libvcruntime:undname.obj
 0001:0001bd81       ?doTypeOnly@UnDecorator@@SAHXZ 1001cd81 f i libvcruntime:undname.obj
 0001:0001bd8e       ?doUnderScore@UnDecorator@@SAHXZ 1001cd8e f i libvcruntime:undname.obj
 0001:0001bd9b       ?getArgumentList@UnDecorator@@CA?AVDName@@XZ 1001cd9b f   libvcruntime:undname.obj
 0001:0001bece       ?getArgumentTypes@UnDecorator@@CA?AVDName@@XZ 1001cece f   libvcruntime:undname.obj
 0001:0001bfca       ?getArrayType@UnDecorator@@CA?AVDName@@ABV2@@Z 1001cfca f i libvcruntime:undname.obj
 0001:0001c1e7       ?getBasedType@UnDecorator@@CA?AVDName@@XZ 1001d1e7 f   libvcruntime:undname.obj
 0001:0001c2a5       ?getBasicDataType@UnDecorator@@CA?AVDName@@ABV2@@Z 1001d2a5 f   libvcruntime:undname.obj
 0001:0001c77b       ?getCHPEName@UnDecorator@@QAEPADPADH@Z 1001d77b f i libvcruntime:undname.obj
 0001:0001c891       ?getCallIndex@UnDecorator@@CA?AVDName@@XZ 1001d891 f i libvcruntime:undname.obj
 0001:0001c8aa       ?getCallingConvention@UnDecorator@@CA?AVDName@@XZ 1001d8aa f   libvcruntime:undname.obj
 0001:0001c9b1       ?getDataIndirectType@UnDecorator@@CA?AVDName@@ABV2@PBD0H@Z 1001d9b1 f   libvcruntime:undname.obj
 0001:0001d115       ?getDataIndirectType@UnDecorator@@CA?AVDName@@XZ 1001e115 f i libvcruntime:undname.obj
 0001:0001d153       ?getDataType@UnDecorator@@CA?AVDName@@PAV2@@Z 1001e153 f   libvcruntime:undname.obj
 0001:0001d249       ?getDecoratedName@UnDecorator@@CA?AVDName@@XZ 1001e249 f   libvcruntime:undname.obj
 0001:0001d51b       ?getDimension@UnDecorator@@CA?AVDName@@_N@Z 1001e51b f   libvcruntime:undname.obj
 0001:0001d681       ?getDispatchTarget@UnDecorator@@CA?AVDName@@XZ 1001e681 f   libvcruntime:undname.obj
 0001:0001d6ea       ?getDisplacement@UnDecorator@@CA?AVDName@@XZ 1001e6ea f i libvcruntime:undname.obj
 0001:0001d703       ?getECSUDataType@UnDecorator@@CA?AVDName@@XZ 1001e703 f   libvcruntime:undname.obj
 0001:0001d861       ?getECSUName@UnDecorator@@CA?AVDName@@XZ 1001e861 f i libvcruntime:undname.obj
 0001:0001d876       ?getEnumType@UnDecorator@@CA?AVDName@@XZ 1001e876 f i libvcruntime:undname.obj
 0001:0001d9a2       ?getExtendedDataIndirectType@UnDecorator@@CA?AVDName@@AAPBDAA_NH@Z 1001e9a2 f   libvcruntime:undname.obj
 0001:0001dbc6       ?getExternalDataType@UnDecorator@@CA?AVDName@@ABV2@@Z 1001ebc6 f i libvcruntime:undname.obj
 0001:0001dc46       ?getFunctionIndirectType@UnDecorator@@CA?AVDName@@ABV2@@Z 1001ec46 f   libvcruntime:undname.obj
 0001:0001e114       ?getGuardNumber@UnDecorator@@CA?AVDName@@XZ 1001f114 f i libvcruntime:undname.obj
 0001:0001e12d       ?getLastChar@DName@@QBEDXZ 1001f12d f i libvcruntime:undname.obj
 0001:0001e155       ?getLastChar@DNameStatusNode@@UBEDXZ 1001f155 f i libvcruntime:undname.obj
 0001:0001e164       ?getLastChar@charNode@@UBEDXZ 1001f164 f i libvcruntime:undname.obj
 0001:0001e168       ?getLastChar@pDNameNode@@UBEDXZ 1001f168 f i libvcruntime:undname.obj
 0001:0001e179       ?getLastChar@pairNode@@UBEDXZ 1001f179 f i libvcruntime:undname.obj
 0001:0001e1bb       ?getLastChar@pcharNode@@UBEDXZ 1001f1bb f i libvcruntime:undname.obj
 0001:0001e1d1       ?getLexicalFrame@UnDecorator@@CA?AVDName@@XZ 1001f1d1 f i libvcruntime:undname.obj
 0001:0001e21f       ?getMemory@_HeapManager@@QAEPAXIH@Z 1001f21f f   libvcruntime:undname.obj
 0001:0001e2c7       ?getNoexcept@UnDecorator@@CA?AVDName@@XZ 1001f2c7 f   libvcruntime:undname.obj
 0001:0001e31d       ?getNumberOfDimensions@UnDecorator@@CAHXZ 1001f31d f   libvcruntime:undname.obj
 0001:0001e396       ?getOperatorName@UnDecorator@@CA?AVDName@@_NPA_N@Z 1001f396 f i libvcruntime:undname.obj
 0001:0001eb84       ?getPointerType@UnDecorator@@CA?AVDName@@ABV2@0@Z 1001fb84 f i libvcruntime:undname.obj
 0001:0001eba9       ?getPointerTypeArray@UnDecorator@@CA?AVDName@@ABV2@0@Z 1001fba9 f i libvcruntime:undname.obj
 0001:0001ebce       ?getPrimaryDataType@UnDecorator@@CA?AVDName@@ABV2@@Z 1001fbce f   libvcruntime:undname.obj
 0001:0001ee2b       ?getPtrRefDataType@UnDecorator@@CA?AVDName@@ABV2@H@Z 1001fe2b f   libvcruntime:undname.obj
 0001:0001ef9e       ?getPtrRefType@UnDecorator@@CA?AVDName@@ABV2@0PBD@Z 1001ff9e f   libvcruntime:undname.obj
 0001:0001f0d6       ?getReferenceType@UnDecorator@@CA?AVDName@@ABV2@0PBD@Z 100200d6 f i libvcruntime:undname.obj
 0001:0001f0f9       ?getRestrictionSpec@UnDecorator@@CA?AVDName@@XZ 100200f9 f   libvcruntime:undname.obj
 0001:0001f230       ?getReturnType@UnDecorator@@CA?AVDName@@PAV2@@Z 10020230 f   libvcruntime:undname.obj
 0001:0001f26a       ?getScope@UnDecorator@@CA?AVDName@@XZ 1002026a f   libvcruntime:undname.obj
 0001:0001f6e3       ?getScopedName@UnDecorator@@CA?AVDName@@XZ 100206e3 f   libvcruntime:undname.obj
 0001:0001f7ec       ?getSignedDimension@UnDecorator@@CA?AVDName@@XZ 100207ec f   libvcruntime:undname.obj
 0001:0001f851       ?getStorageConvention@UnDecorator@@CA?AVDName@@XZ 10020851 f i libvcruntime:undname.obj
 0001:0001f866       ?getString@DName@@QBEPADPAD0@Z 10020866 f i libvcruntime:undname.obj
 0001:0001f89e       ?getString@DName@@QBEPADPADH@Z 1002089e f i libvcruntime:undname.obj
 0001:0001f909       ?getString@DNameStatusNode@@UBEPADPAD0@Z 10020909 f i libvcruntime:undname.obj
 0001:0001f939       ?getString@charNode@@UBEPADPAD0@Z 10020939 f i libvcruntime:undname.obj
 0001:0001f953       ?getString@pDNameNode@@UBEPADPAD0@Z 10020953 f i libvcruntime:undname.obj
 0001:0001f96f       ?getString@pairNode@@UBEPADPAD0@Z 1002096f f i libvcruntime:undname.obj
 0001:0001f9c6       ?getString@pcharNode@@UBEPADPAD0@Z 100209c6 f i libvcruntime:undname.obj
 0001:0001f9e7       ?getStringEncoding@UnDecorator@@CA?AVDName@@PBDH@Z 100209e7 f   libvcruntime:undname.obj
 0001:0001fac3       ?getStringHelper@@YAPADPADPBD1H@Z 10020ac3 f i libvcruntime:undname.obj
 0001:0001fb07       ?getSymbolName@UnDecorator@@CA?AVDName@@XZ 10020b07 f i libvcruntime:undname.obj
 0001:0001fb61       ?getTemplateArgumentList@UnDecorator@@CA?AVDName@@XZ 10020b61 f   libvcruntime:undname.obj
 0001:0001fea5       ?getTemplateConstant@UnDecorator@@CA?AVDName@@XZ 10020ea5 f   libvcruntime:undname.obj
 0001:000202a3       ?getTemplateName@UnDecorator@@CA?AVDName@@_N@Z 100212a3 f   libvcruntime:undname.obj
 0001:0002045d       ?getThisType@UnDecorator@@CA?AVDName@@XZ 1002145d f i libvcruntime:undname.obj
 0001:0002049c       ?getThrowTypes@UnDecorator@@CA?AVDName@@XZ 1002149c f   libvcruntime:undname.obj
 0001:000204c7       ?getTypeEncoding@UnDecorator@@CAHXZ 100214c7 f i libvcruntime:undname.obj
 0001:000208b9       ?getUndecoratedName@UnDecorator@@QAEPADPADH@Z 100218b9 f i libvcruntime:undname.obj
 0001:000209ae       ?getVCallThunkType@UnDecorator@@CA?AVDName@@XZ 100219ae f i libvcruntime:undname.obj
 0001:00020a06       ?getVbTableType@UnDecorator@@CA?AVDName@@ABV2@@Z 10021a06 f i libvcruntime:undname.obj
 0001:00020a20       ?getVdispMapType@UnDecorator@@CA?AVDName@@ABV2@@Z 10021a20 f i libvcruntime:undname.obj
 0001:00020a89       ?getVfTableType@UnDecorator@@CA?AVDName@@ABV2@@Z 10021a89 f i libvcruntime:undname.obj
 0001:00020c44       ?getZName@UnDecorator@@CA?AVDName@@_N0@Z 10021c44 f   libvcruntime:undname.obj
 0001:00020ec2       ?haveTemplateParameters@UnDecorator@@SAHXZ 10021ec2 f i libvcruntime:undname.obj
 0001:00020ecf       ?isArray@DName@@QBEHXZ     10021ecf f i libvcruntime:undname.obj
 0001:00020edb       ?isComArray@DName@@QBEHXZ  10021edb f i libvcruntime:undname.obj
 0001:00020ee7       ?isEmpty@DName@@QBEHXZ     10021ee7 f i libvcruntime:undname.obj
 0001:00020ef1       ?isFull@Replicator@@QBEHXZ 10021ef1 f i libvcruntime:undname.obj
 0001:00020efc       ?isNoTE@DName@@QBEHXZ      10021efc f i libvcruntime:undname.obj
 0001:00020f08       ?isPinPtr@DName@@QBEHXZ    10021f08 f i libvcruntime:undname.obj
 0001:00020f14       ?isPtrRef@DName@@QBEHXZ    10021f14 f i libvcruntime:undname.obj
 0001:00020f20       ?isUDC@DName@@QBEHXZ       10021f20 f i libvcruntime:undname.obj
 0001:00020f35       ?isUDTThunk@DName@@QBEHXZ  10021f35 f i libvcruntime:undname.obj
 0001:00020f4a       ?isVCallThunk@DName@@QBEHXZ 10021f4a f i libvcruntime:undname.obj
 0001:00020f56       ?isValid@DName@@QBEHXZ     10021f56 f i libvcruntime:undname.obj
 0001:00020f62       ?length@DName@@QBEHXZ      10021f62 f i libvcruntime:undname.obj
 0001:00020f88       ?length@DNameStatusNode@@UBEHXZ 10021f88 f i libvcruntime:undname.obj
 0001:00020f8c       ?length@charNode@@UBEHXZ   10021f8c f i libvcruntime:undname.obj
 0001:00020f90       ?length@pDNameNode@@UBEHXZ 10021f90 f i libvcruntime:undname.obj
 0001:00020fa1       ?length@pairNode@@UBEHXZ   10021fa1 f i libvcruntime:undname.obj
 0001:00020ff8       ?length@pcharNode@@UBEHXZ  10021ff8 f i libvcruntime:undname.obj
 0001:00020ffc       ?make@DNameStatusNode@@SAPBV1@W4DNameStatus@@@Z 10021ffc f i libvcruntime:undname.obj
 0001:0002101f       ?parseDecoratedName@UnDecorator@@CA?AVDName@@XZ 1002201f f   libvcruntime:undname.obj
 0001:00021148       ?setIsArray@DName@@QAEXXZ  10022148 f i libvcruntime:undname.obj
 0001:00021152       ?setIsComArray@DName@@QAEXXZ 10022152 f i libvcruntime:undname.obj
 0001:0002115c       ?setIsNoTE@DName@@QAEXXZ   1002215c f i libvcruntime:undname.obj
 0001:00021166       ?setIsPinPtr@DName@@QAEXXZ 10022166 f i libvcruntime:undname.obj
 0001:00021170       ?setIsUDC@DName@@QAEXXZ    10022170 f i libvcruntime:undname.obj
 0001:00021180       ?setIsVCallThunk@DName@@QAEXXZ 10022180 f i libvcruntime:undname.obj
 0001:0002118a       ?setPtrRef@DName@@QAEAAV1@XZ 1002218a f i libvcruntime:undname.obj
 0001:00021196       ?status@DName@@QBE?AW4DNameStatus@@XZ 10022196 f i libvcruntime:undname.obj
 0001:0002121b       ___unDName                 1002221b f   libvcruntime:undname.obj
 0001:00021246       ___unDNameEx               10022246 f   libvcruntime:undname.obj
 0001:0002130c       __vsprintf_s_l             1002230c f i libvcruntime:undname.obj
 0001:00021344       _sprintf_s                 10022344 f i libvcruntime:undname.obj
 0001:00021367       _unDNameGenerateCHPE       10022367 f   libvcruntime:undname.obj
 0001:000213da       ??$?RU__vcrt_ptd@@@__crt_internal_free_policy@@QBEXQBU__vcrt_ptd@@@Z 100223da f i libvcruntime:per_thread_data.obj
 0001:000213ee       ??0?$__crt_unique_heap_ptr@U__vcrt_ptd@@U__crt_internal_free_policy@@@@QAE@QAU__vcrt_ptd@@@Z 100223ee f i libvcruntime:per_thread_data.obj
 0001:00021411       ??1?$__crt_unique_heap_ptr@U__vcrt_ptd@@U__crt_internal_free_policy@@@@QAE@XZ 10022411 f i libvcruntime:per_thread_data.obj
 0001:00021430       ??B?$__crt_unique_heap_ptr@U__vcrt_ptd@@U__crt_internal_free_policy@@@@QBE_NXZ 10022430 f i libvcruntime:per_thread_data.obj
 0001:00021437       ?detach@?$__crt_unique_heap_ptr@U__vcrt_ptd@@U__crt_internal_free_policy@@@@QAEPAU__vcrt_ptd@@XZ 10022437 f i libvcruntime:per_thread_data.obj
 0001:0002143d       ?get@?$__crt_unique_heap_ptr@U__vcrt_ptd@@U__crt_internal_free_policy@@@@QBEPAU__vcrt_ptd@@XZ 1002243d f i libvcruntime:per_thread_data.obj
 0001:00021440       ?is_valid@?$__crt_unique_heap_ptr@U__vcrt_ptd@@U__crt_internal_free_policy@@@@QBE_NXZ 10022440 f i libvcruntime:per_thread_data.obj
 0001:00021447       ?release@?$__crt_unique_heap_ptr@U__vcrt_ptd@@U__crt_internal_free_policy@@@@QAEXXZ 10022447 f i libvcruntime:per_thread_data.obj
 0001:0002147b       ___vcrt_freefls@4          1002247b f   libvcruntime:per_thread_data.obj
 0001:0002149e       ___vcrt_freeptd            1002249e f   libvcruntime:per_thread_data.obj
 0001:000214e1       ___vcrt_getptd             100224e1 f   libvcruntime:per_thread_data.obj
 0001:000214f2       ___vcrt_getptd_noexit      100224f2 f   libvcruntime:per_thread_data.obj
 0001:000215a8       ___vcrt_getptd_noinit      100225a8 f   libvcruntime:per_thread_data.obj
 0001:000215ec       ___vcrt_initialize_ptd     100225ec f   libvcruntime:per_thread_data.obj
 0001:0002162b       ___vcrt_uninitialize_ptd   1002262b f   libvcruntime:per_thread_data.obj
 0001:0002164c       ___vcrt_initialize_locks   1002264c f   libvcruntime:locks.obj
 0001:00021697       ___vcrt_lock               10022697 f   libvcruntime:locks.obj
 0001:000216b1       ___vcrt_uninitialize_locks 100226b1 f   libvcruntime:locks.obj
 0001:000216eb       ___vcrt_unlock             100226eb f   libvcruntime:locks.obj
 0001:00021705       ??$?BX@__crt_fast_encoded_nullptr_t@@QBEPAXXZ 10022705 f i libvcruntime:winapi_downlevel.obj
 0001:0002170b       ??$__crt_fast_decode_pointer@PAX@@YAPAXQAX@Z 1002270b f i libvcruntime:winapi_downlevel.obj
 0001:00021724       ??$__crt_fast_encode_pointer@PAX@@YAPAXQAX@Z 10022724 f i libvcruntime:winapi_downlevel.obj
 0001:00021748       ??$__crt_interlocked_exchange_pointer@UHINSTANCE__@@PAU1@@@YAPAUHINSTANCE__@@PDSAU0@QAU0@@Z 10022748 f i libvcruntime:winapi_downlevel.obj
 0001:00021758       ??$__crt_interlocked_exchange_pointer@UHINSTANCE__@@PAX@@YAPAUHINSTANCE__@@PDSAU0@QAX@Z 10022758 f i libvcruntime:winapi_downlevel.obj
 0001:00021768       ??$__crt_interlocked_exchange_pointer@XPAX@@YAPAXPDSAXQAX@Z 10022768 f i libvcruntime:winapi_downlevel.obj
 0001:00021778       ??$__crt_interlocked_read_pointer@UHINSTANCE__@@@@YAPAUHINSTANCE__@@PDSAU0@@Z 10022778 f i libvcruntime:winapi_downlevel.obj
 0001:00021784       ??$__crt_interlocked_read_pointer@X@@YAPAXPDSAX@Z 10022784 f i libvcruntime:winapi_downlevel.obj
 0001:00021790       ?__crt_fast_encode_pointer@@YA?AU__crt_fast_encoded_nullptr_t@@$$T@Z 10022790 f i libvcruntime:winapi_downlevel.obj
 0001:00021ac3       ___vcrt_FlsAlloc           10022ac3 f   libvcruntime:winapi_downlevel.obj
 0001:00021b0c       ___vcrt_FlsFree            10022b0c f   libvcruntime:winapi_downlevel.obj
 0001:00021b55       ___vcrt_FlsGetValue        10022b55 f   libvcruntime:winapi_downlevel.obj
 0001:00021b9e       ___vcrt_FlsSetValue        10022b9e f   libvcruntime:winapi_downlevel.obj
 0001:00021beb       ___vcrt_InitializeCriticalSectionEx 10022beb f   libvcruntime:winapi_downlevel.obj
 0001:00021c43       ___vcrt_initialize_winapi_thunks 10022c43 f   libvcruntime:winapi_downlevel.obj
 0001:00021c76       ___vcrt_uninitialize_winapi_thunks 10022c76 f   libvcruntime:winapi_downlevel.obj
 0001:00021cb4       ??$?B$$A6AXXZ@__crt_fast_encoded_nullptr_t@@QBEP6AXXZXZ 10022cb4 f i libvcruntime:purevirt_data.obj
 0001:00021cba       ??$__crt_fast_encode_pointer@P6AXXZ@@YAP6AXXZQ6AXXZ@Z 10022cba f i libvcruntime:purevirt_data.obj
 0001:00021cde       ___vcrt_initialize_pure_virtual_call_handler 10022cde f   libvcruntime:purevirt_data.obj
 0001:00021cf0       __global_unwind2           10022cf0 f   libvcruntime:exsup.obj
 0001:00021d56       __local_unwind2            10022d56 f   libvcruntime:exsup.obj
 0001:00021dda       __abnormal_termination     10022dda f   libvcruntime:exsup.obj
 0001:00021e00       __NLG_Notify1              10022e00 f   libvcruntime:exsup.obj
 0001:00021e0c       __NLG_Notify               10022e0c f   libvcruntime:exsup.obj
 0001:00021e23       __NLG_Dispatch             10022e23     libvcruntime:exsup.obj
 0001:00021e23       __NLG_Dispatch2            10022e23     libvcruntime:exsup.obj
 0001:00021e2b       __NLG_Call                 10022e2b f   libvcruntime:exsup.obj
 0001:00021e2d       __NLG_Return2              10022e2d     libvcruntime:exsup.obj
 0001:00021e7d       ??$__crt_fast_decode_pointer@P6AXXZ@@YAP6AXXZQ6AXXZ@Z 10022e7d f i libvcruntime:purevirt.obj
 0001:00021e96       ??$__crt_interlocked_exchange_pointer@$$A6AXXZP6AXXZ@@YAP6AXXZPDS6AXXZQ6AXXZ@Z 10022e96 f i libvcruntime:purevirt.obj
 0001:00021ea6       ??$__crt_interlocked_read_pointer@$$A6AXXZ@@YAP6AXXZPDS6AXXZ@Z 10022ea6 f i libvcruntime:purevirt.obj
 0001:00021eb2       __get_purecall_handler     10022eb2 f   libvcruntime:purevirt.obj
 0001:00021ecc       __purecall                 10022ecc f   libvcruntime:purevirt.obj
 0001:00021eef       __set_purecall_handler     10022eef f   libvcruntime:purevirt.obj
 0001:00021f1d       ??$?0AAViterator@TryBlockMap@__FrameHandler3@@AAV012@$0A@@?$pair@Viterator@TryBlockMap@__FrameHandler3@@V123@@std@@QAE@AAViterator@TryBlockMap@__FrameHandler3@@0@Z 10022f1d f i libvcruntime:trnsctrl.obj
 0001:00021f4a       ??$forward@AAViterator@TryBlockMap@__FrameHandler3@@@std@@YAAAViterator@TryBlockMap@__FrameHandler3@@AAV123@@Z 10022f4a f i libvcruntime:trnsctrl.obj
 0001:00021f54       ??0iterator@TryBlockMap@__FrameHandler3@@QAE@AAV12@I@Z 10022f54 f i libvcruntime:trnsctrl.obj
 0001:00021f6d       ?GetRangeOfTrysToCheck@__FrameHandler3@@SA?AU?$pair@Viterator@TryBlockMap@__FrameHandler3@@V123@@std@@AAVTryBlockMap@1@HH@Z 10022f6d f   libvcruntime:trnsctrl.obj
 0001:0002200f       ?_CallCatchBlock2@@YAPAXPAUEHRegistrationNode@@PBU_s_FuncInfo@@PAXHK@Z 1002300f f   libvcruntime:trnsctrl.obj
 0001:00022084       ?_CallSETranslator@@YAHPAUEHExceptionRecord@@PAUEHRegistrationNode@@PAX2PBU_s_FuncInfo@@H1@Z 10023084 f   libvcruntime:trnsctrl.obj
 0001:00022195       ?_JumpToContinuation@@YGXPAXPAUEHRegistrationNode@@@Z 10023195 f   libvcruntime:trnsctrl.obj
 0001:000221d1       ?_UnwindNestedFrames@@YGXPAUEHRegistrationNode@@PAUEHExceptionRecord@@@Z 100231d1 f   libvcruntime:trnsctrl.obj
 0001:00022238       ?getFuncInfo@TryBlockMap@__FrameHandler3@@QAEPBU_s_FuncInfo@@XZ 10023238 f i libvcruntime:trnsctrl.obj
 0001:0002223b       __CatchGuardHandler        1002323b f   libvcruntime:trnsctrl.obj
 0001:00022278       __CreateFrameInfo          10023278 f   libvcruntime:trnsctrl.obj
 0001:000222a5       __FindAndUnlinkFrame       100232a5 f   libvcruntime:trnsctrl.obj
 0001:000222fb       __TranslatorGuardHandler   100232fb f   libvcruntime:trnsctrl.obj
 0001:000223bf       ___CxxFrameHandler         100233bf f   libvcruntime:trnsctrl.obj
 0001:00022402       ___CxxFrameHandler2        10023402 f   libvcruntime:trnsctrl.obj
 0001:00022445       ___CxxFrameHandler3        10023445 f   libvcruntime:trnsctrl.obj
 0001:00022488       ___CxxLongjmpUnwind@4      10023488 f   libvcruntime:trnsctrl.obj
 0001:00022d69       ??$TypeMatchHelper@V__FrameHandler3@@@@YAHPBU_s_HandlerType@@PBU_s_CatchableType@@PBU_s_ThrowInfo@@@Z 10023d69 f i libvcruntime:frame.obj
 0001:00022e1a       ??$__InternalCxxFrameHandler@V__FrameHandler3@@@@YA?AW4_EXCEPTION_DISPOSITION@@PAUEHExceptionRecord@@PAUEHRegistrationNode@@PAU_CONTEXT@@PAXPBU_s_FuncInfo@@H1E@Z 10023e1a f i libvcruntime:frame.obj
 0001:00022f5c       ??0HandlerMap@__FrameHandler3@@QAE@PBU_s_TryBlockMapEntry@@PAX@Z 10023f5c f i libvcruntime:frame.obj
 0001:00022f78       ??0TryBlockMap@__FrameHandler3@@QAE@PBU_s_FuncInfo@@PAX@Z 10023f78 f i libvcruntime:frame.obj
 0001:00022f91       ??0bad_exception@std@@QAE@ABV01@@Z 10023f91 f i libvcruntime:frame.obj
 0001:00022fb2       ??0bad_exception@std@@QAE@XZ 10023fb2 f i libvcruntime:frame.obj
 0001:00022fd0       ??0exception@std@@QAE@ABV01@@Z 10023fd0 f i libvcruntime:frame.obj
 0001:00023007       ??0exception@std@@QAE@QBDH@Z 10024007 f i libvcruntime:frame.obj
 0001:0002302b       ??0iterator@HandlerMap@__FrameHandler3@@QAE@AAV12@I@Z 1002402b f i libvcruntime:frame.obj
 0001:00023044       ??1bad_exception@std@@UAE@XZ 10024044 f i libvcruntime:frame.obj
 0001:00023059       ??1exception@std@@UAE@XZ   10024059 f i libvcruntime:frame.obj
 0001:0002306e       ??8iterator@HandlerMap@__FrameHandler3@@QBE_NABV012@@Z 1002406e f i libvcruntime:frame.obj
 0001:00023085       ??8type_info@@QBE_NABV0@@Z 10024085 f i libvcruntime:frame.obj
 0001:000230ab       ??9iterator@HandlerMap@__FrameHandler3@@QBE_NABV012@@Z 100240ab f i libvcruntime:frame.obj
 0001:000230c2       ??Diterator@HandlerMap@__FrameHandler3@@QAEPBU_s_HandlerType@@XZ 100240c2 f i libvcruntime:frame.obj
 0001:000230d1       ??Diterator@TryBlockMap@__FrameHandler3@@QAEPBU_s_TryBlockMapEntry@@XZ 100240d1 f i libvcruntime:frame.obj
 0001:000230e0       ??Eiterator@HandlerMap@__FrameHandler3@@QAEAAV012@XZ 100240e0 f i libvcruntime:frame.obj
 0001:000230e6       ??Eiterator@TryBlockMap@__FrameHandler3@@QAEAAV012@XZ 100240e6 f i libvcruntime:frame.obj
 0001:000230ec       ??Miterator@TryBlockMap@__FrameHandler3@@QBE_NABV012@@Z 100240ec f i libvcruntime:frame.obj
 0001:00023103       ??_Ebad_exception@std@@UAEPAXI@Z 10024103 f i libvcruntime:frame.obj
 0001:00023103       ??_Gbad_exception@std@@UAEPAXI@Z 10024103 f i libvcruntime:frame.obj
 0001:0002313b       ??_Gexception@std@@UAEPAXI@Z 1002413b f i libvcruntime:frame.obj
 0001:0002313b       ??_Eexception@std@@UAEPAXI@Z 1002413b f i libvcruntime:frame.obj
 0001:00023173       ?BuildCatchObject@__FrameHandler3@@SAXPAUEHExceptionRecord@@PAXPBU_s_HandlerType@@PBU_s_CatchableType@@@Z 10024173 f   libvcruntime:frame.obj
 0001:00023178       ?BuildCatchObjectHelper@__FrameHandler3@@SAHPAUEHExceptionRecord@@PAXPBU_s_HandlerType@@PBU_s_CatchableType@@@Z 10024178 f   libvcruntime:frame.obj
 0001:0002345c       ?FrameUnwindToEmptyState@__FrameHandler3@@SAXPAUEHRegistrationNode@@PAXPBU_s_FuncInfo@@@Z 1002445c f   libvcruntime:frame.obj
 0001:0002347a       ?FrameUnwindToState@__FrameHandler3@@SAXPAUEHRegistrationNode@@PAXPBU_s_FuncInfo@@H@Z 1002447a f   libvcruntime:frame.obj
 0001:0002359c       ?GetMaxState@__FrameHandler3@@SAHPAXPBU_s_FuncInfo@@@Z 1002459c f i libvcruntime:frame.obj
 0001:000236b0       ?TypeMatch@__FrameHandler3@@SAHPBU_s_HandlerType@@PBU_s_CatchableType@@PBU_s_ThrowInfo@@@Z 100246b0 f   libvcruntime:frame.obj
 0001:000236bb       ?_CallMemberFunction1@@YGXQAX00@Z 100246bb f i libvcruntime:frame.obj
 0001:000236cf       ?_CallMemberFunction2@@YGXQAX00H@Z 100246cf f i libvcruntime:frame.obj
 0001:000236e6       ?_ValidateExecute@@YA_NP6GHXZ@Z 100246e6 f i libvcruntime:frame.obj
 0001:000236f5       ?_ValidateRead@@YA_NPBXI@Z 100246f5 f i libvcruntime:frame.obj
 0001:00023704       ?_ValidateWrite@@YA_NPAXI@Z 10024704 f i libvcruntime:frame.obj
 0001:00023713       ?begin@HandlerMap@__FrameHandler3@@QAE?AViterator@12@XZ 10024713 f i libvcruntime:frame.obj
 0001:00023727       ?end@HandlerMap@__FrameHandler3@@QAE?AViterator@12@XZ 10024727 f i libvcruntime:frame.obj
 0001:0002373c       ?getESTypes@__FrameHandler3@@SAPBU_s_ESTypeList@@PBU_s_FuncInfo@@@Z 1002473c f i libvcruntime:frame.obj
 0001:00023749       ?getLastEntry@HandlerMap@__FrameHandler3@@QAEPBU_s_HandlerType@@XZ 10024749 f i libvcruntime:frame.obj
 0001:0002375a       ?getMagicNum@__FrameHandler3@@SAIPBU_s_FuncInfo@@@Z 1002475a f i libvcruntime:frame.obj
 0001:0002376c       ?getNumTryBlocks@TryBlockMap@__FrameHandler3@@QAEIXZ 1002476c f i libvcruntime:frame.obj
 0001:00023772       ?isEHs@__FrameHandler3@@SA_NPBU_s_FuncInfo@@@Z 10024772 f i libvcruntime:frame.obj
 0001:00023782       ?isNoExcept@__FrameHandler3@@SA_NPBU_s_FuncInfo@@@Z 10024782 f i libvcruntime:frame.obj
 0001:00023796       ?what@exception@std@@UBEPBDXZ 10024796 f i libvcruntime:frame.obj
 0001:000237a6       ___BuildCatchObject        100247a6 f   libvcruntime:frame.obj
 0001:000237ab       ___BuildCatchObjectHelper  100247ab f   libvcruntime:frame.obj
 0001:000237b6       ___TypeMatch               100247b6 f   libvcruntime:frame.obj
 0001:000237c1       ___vcrt_EncodePointer      100247c1 f i libvcruntime:frame.obj
 0001:000237e0       __CallSettingFrame@12      100247e0 f   libvcruntime:lowhelpr.obj
 0001:00023807       __NLG_Return               10024807     libvcruntime:lowhelpr.obj
 0001:00023858       __get_unexpected           10024858 f   libvcruntime:unexpected.obj
 0001:0002386e       _set_unexpected            1002486e f   libvcruntime:unexpected.obj
 0001:00023893       _unexpected                10024893 f   libvcruntime:unexpected.obj
 0001:000238b7       ?GetCurrentState@__FrameHandler3@@SAHPAUEHRegistrationNode@@PAXPBU_s_FuncInfo@@@Z 100248b7 f   libvcruntime:ehstate.obj
 0001:000238db       ?SetState@__FrameHandler3@@SAXPAUEHRegistrationNode@@PBU_s_FuncInfo@@H@Z 100248db f   libvcruntime:ehstate.obj
 0001:000238ec       ___DestructExceptionObject 100248ec f   libvcruntime:ehhelpers.obj
 0001:000239b4       ?_CallMemberFunction0@@YGXQAX0@Z 100249b4 f i libvcruntime:ehhelpers.obj
 0001:000239c4       ?raw_name@type_info@@QBEPBDXZ 100249c4 f i libvcruntime:ehhelpers.obj
 0001:000239c8       __IsExceptionObjectToBeDestroyed 100249c8 f   libvcruntime:ehhelpers.obj
 0001:000239f7       __SetWinRTOutOfMemoryExceptionCallback 100249f7 f   libvcruntime:ehhelpers.obj
 0001:00023a07       ___AdjustPointer           10024a07 f   libvcruntime:ehhelpers.obj
 0001:00023a35       ___FrameUnwindFilter       10024a35 f   libvcruntime:ehhelpers.obj
 0001:00023a8b       ___GetPlatformExceptionInfo 10024a8b f   libvcruntime:ehhelpers.obj
 0001:00023aea       ___current_exception       10024aea f   libvcruntime:ehhelpers.obj
 0001:00023af5       ___current_exception_context 10024af5 f   libvcruntime:ehhelpers.obj
 0001:00023b00       ___processing_throw        10024b00 f   libvcruntime:ehhelpers.obj
 0001:00023b0b       ___std_terminate           10024b0b f   libvcruntime:ehhelpers.obj
 0001:00023b10       __is_exception_typeof      10024b10 f   libvcruntime:ehhelpers.obj
 0001:00023bdd       ??$?RD@__crt_public_free_policy@@QBEXQBD@Z 10024bdd f i libvcruntime:std_exception.obj
 0001:00023bf1       ??0?$__crt_unique_heap_ptr@DU__crt_public_free_policy@@@@QAE@QAD@Z 10024bf1 f i libvcruntime:std_exception.obj
 0001:00023c02       ??1?$__crt_unique_heap_ptr@DU__crt_public_free_policy@@@@QAE@XZ 10024c02 f i libvcruntime:std_exception.obj
 0001:00023c16       ??B?$__crt_unique_heap_ptr@DU__crt_public_free_policy@@@@QBE_NXZ 10024c16 f i libvcruntime:std_exception.obj
 0001:00023c1d       ?detach@?$__crt_unique_heap_ptr@DU__crt_public_free_policy@@@@QAEPADXZ 10024c1d f i libvcruntime:std_exception.obj
 0001:00023c23       ?get@?$__crt_unique_heap_ptr@DU__crt_public_free_policy@@@@QBEPADXZ 10024c23 f i libvcruntime:std_exception.obj
 0001:00023c26       ?is_valid@?$__crt_unique_heap_ptr@DU__crt_public_free_policy@@@@QBE_NXZ 10024c26 f i libvcruntime:std_exception.obj
 0001:00023c2d       ?release@?$__crt_unique_heap_ptr@DU__crt_public_free_policy@@@@QAEXXZ 10024c2d f i libvcruntime:std_exception.obj
 0001:00023c41       ___std_exception_copy      10024c41 f   libvcruntime:std_exception.obj
 0001:00023cbc       ___std_exception_destroy   10024cbc f   libvcruntime:std_exception.obj
 0001:00023ce2       __CxxThrowException@8      10024ce2 f   libvcruntime:throw.obj
 0001:00023d6a       _malloc                    10024d6a f   libucrt:malloc.obj
 0001:00023d77       _calloc                    10024d77 f   libucrt:calloc.obj
 0001:00023d84       _free                      10024d84 f   libucrt:free.obj
 0001:00023da8       ??$__crt_interlocked_read@J@@YAJPDJ@Z 10024da8 f i libucrt:assert.obj
 0001:00023db7       ??$__vcrt_va_start_verify_argument_type@QBD@@YAXXZ 10024db7 f i libucrt:assert.obj
 0001:00023db8       ??$__vcrt_va_start_verify_argument_type@QB_W@@YAXXZ 10024db8 f i libucrt:assert.obj
 0001:00024d5a       ??$ftprintf@PAU_iobuf@@PBDABQBDABQBDABI@?$__crt_char_traits@D@@SAH$$QAPAU_iobuf@@$$QAPBDABQBD2ABI@Z 10025d5a f i libucrt:assert.obj
 0001:00024d8c       ??$ftprintf@PAU_iobuf@@PB_WABQB_WABQB_WABI@?$__crt_char_traits@_W@@SAH$$QAPAU_iobuf@@$$QAPB_WABQB_W2ABI@Z 10025d8c f i libucrt:assert.obj
 0001:00024dbe       ??$get_module_file_name@AAPAUHINSTANCE__@@AAY0BAF@DK@?$__crt_char_traits@D@@SAKAAPAUHINSTANCE__@@AAY0BAF@D$$QAK@Z 10025dbe f i libucrt:assert.obj
 0001:00024de1       ??$get_module_file_name@AAPAUHINSTANCE__@@AAY0BAF@_WK@?$__crt_char_traits@_W@@SAKAAPAUHINSTANCE__@@AAY0BAF@_W$$QAK@Z 10025de1 f i libucrt:assert.obj
 0001:00024e01       ??$itot_s@ABIPADIH@?$__crt_char_traits@D@@SAHABI$$QAPAD$$QAI$$QAH@Z 10025e01 f i libucrt:assert.obj
 0001:00024e2c       ??$itot_s@ABIPA_WIH@?$__crt_char_traits@_W@@SAHABI$$QAPA_W$$QAI$$QAH@Z 10025e2c f i libucrt:assert.obj
 0001:00024e57       ??$show_message_box@AAY0CEA@DPBDJ@?$__crt_char_traits@D@@SAHAAY0CEA@D$$QAPBD$$QAJ@Z 10025e57 f i libucrt:assert.obj
 0001:00024e7a       ??$show_message_box@AAY0CEA@_WPB_WJ@?$__crt_char_traits@_W@@SAHAAY0CEA@_W$$QAPB_W$$QAJ@Z 10025e7a f i libucrt:assert.obj
 0001:00024e9d       ??$tcscat_s@ABQADABIAAPAD@?$__crt_char_traits@D@@SAHABQADABIAAPAD@Z 10025e9d f i libucrt:assert.obj
 0001:00024ec2       ??$tcscat_s@ABQADABIABQBD@?$__crt_char_traits@D@@SAHABQADABIABQBD@Z 10025ec2 f i libucrt:assert.obj
 0001:00024ee7       ??$tcscat_s@ABQADABIPBD@?$__crt_char_traits@D@@SAHABQADABI$$QAPBD@Z 10025ee7 f i libucrt:assert.obj
 0001:00024f0c       ??$tcscat_s@ABQA_WABIAAPA_W@?$__crt_char_traits@_W@@SAHABQA_WABIAAPA_W@Z 10025f0c f i libucrt:assert.obj
 0001:00024f31       ??$tcscat_s@ABQA_WABIABQB_W@?$__crt_char_traits@_W@@SAHABQA_WABIABQB_W@Z 10025f31 f i libucrt:assert.obj
 0001:00024f56       ??$tcscat_s@ABQA_WABIPB_W@?$__crt_char_traits@_W@@SAHABQA_WABI$$QAPB_W@Z 10025f56 f i libucrt:assert.obj
 0001:00024f7b       ??$tcscpy_s@AAY0BAF@DIPBD@?$__crt_char_traits@D@@SAHAAY0BAF@D$$QAI$$QAPBD@Z 10025f7b f i libucrt:assert.obj
 0001:00024f9e       ??$tcscpy_s@AAY0BAF@_WIPB_W@?$__crt_char_traits@_W@@SAHAAY0BAF@_W$$QAI$$QAPB_W@Z 10025f9e f i libucrt:assert.obj
 0001:00024fc1       ??$tcscpy_s@ABQADABIPBD@?$__crt_char_traits@D@@SAHABQADABI$$QAPBD@Z 10025fc1 f i libucrt:assert.obj
 0001:00024fe6       ??$tcscpy_s@ABQA_WABIPB_W@?$__crt_char_traits@_W@@SAHABQA_WABI$$QAPB_W@Z 10025fe6 f i libucrt:assert.obj
 0001:0002500b       ??$tcslen@AAY0BAF@D@?$__crt_char_traits@D@@SAIAAY0BAF@D@Z 1002600b f i libucrt:assert.obj
 0001:00025026       ??$tcslen@AAY0BAF@_W@?$__crt_char_traits@_W@@SAIAAY0BAF@_W@Z 10026026 f i libucrt:assert.obj
 0001:00025049       ??$tcslen@ABQAD@?$__crt_char_traits@D@@SAIABQAD@Z 10026049 f i libucrt:assert.obj
 0001:00025067       ??$tcslen@ABQA_W@?$__crt_char_traits@_W@@SAIABQA_W@Z 10026067 f i libucrt:assert.obj
 0001:0002508c       ??$tcslen@ABQBD@?$__crt_char_traits@D@@SAIABQBD@Z 1002608c f i libucrt:assert.obj
 0001:000250aa       ??$tcslen@ABQB_W@?$__crt_char_traits@_W@@SAIABQB_W@Z 100260aa f i libucrt:assert.obj
 0001:000250cf       ??$tcsncat_s@ABQADABIAAPBDI@?$__crt_char_traits@D@@SAHABQADABIAAPBD$$QAI@Z 100260cf f i libucrt:assert.obj
 0001:000250fa       ??$tcsncat_s@ABQADABIABQBDABI@?$__crt_char_traits@D@@SAHABQADABIABQBD1@Z 100260fa f i libucrt:assert.obj
 0001:00025125       ??$tcsncat_s@ABQADABIPBDI@?$__crt_char_traits@D@@SAHABQADABI$$QAPBD$$QAI@Z 10026125 f i libucrt:assert.obj
 0001:00025150       ??$tcsncat_s@ABQA_WABIAAPB_WI@?$__crt_char_traits@_W@@SAHABQA_WABIAAPB_W$$QAI@Z 10026150 f i libucrt:assert.obj
 0001:0002517b       ??$tcsncat_s@ABQA_WABIABQB_WABI@?$__crt_char_traits@_W@@SAHABQA_WABIABQB_W1@Z 1002617b f i libucrt:assert.obj
 0001:000251a6       ??$tcsncat_s@ABQA_WABIPB_WI@?$__crt_char_traits@_W@@SAHABQA_WABI$$QAPB_W$$QAI@Z 100261a6 f i libucrt:assert.obj
 0001:000251d1       ??0__crt_stdio_stream@@QAE@QAU_iobuf@@@Z 100261d1 f i libucrt:assert.obj
 0001:00025317       ?get_flags@__crt_stdio_stream@@QBEJXZ 10026317 f i libucrt:assert.obj
 0001:00025365       ?has_any_buffer@__crt_stdio_stream@@QBE_NXZ 10026365 f i libucrt:assert.obj
 0001:00025376       ?has_any_of@__crt_stdio_stream@@QBE_NJ@Z 10026376 f i libucrt:assert.obj
 0001:0002538f       __assert                   1002638f f   libucrt:assert.obj
 0001:000253e9       __invoke_watson_if_error   100263e9 f i libucrt:assert.obj
 0001:00025413       __vfwprintf_l              10026413 f i libucrt:assert.obj
 0001:00025441       __vswprintf_c_l            10026441 f i libucrt:assert.obj
 0001:0002547b       __wassert                  1002647b f   libucrt:assert.obj
 0001:000254d5       _fwprintf                  100264d5 f i libucrt:assert.obj
 0001:00025597       _swprintf                  10026597 f i libucrt:assert.obj
 0001:000255bc       _realloc                   100265bc f   libucrt:realloc.obj
 0001:000255c9       ??$?B$$A6GXPAXK0@Z@__crt_fast_encoded_nullptr_t@@QBEP6GXPAXK0@ZXZ 100265c9 f i libucrt:exit.obj
 0001:0002566c       ??$__crt_fast_decode_pointer@P6GXPAXK0@Z@@YAP6GXPAXK0@ZQ6GX0K0@Z@Z 1002666c f i libucrt:exit.obj
 0001:00025687       ??$__crt_fast_encode_pointer@P6GXPAXK0@Z@@YAP6GXPAXK0@ZQ6GX0K0@Z@Z 10026687 f i libucrt:exit.obj
 0001:000256ad       ??$__crt_get_proc_address@P6GXI@Z@@YAP6GXI@ZQAUHINSTANCE__@@QBD@Z 100266ad f i libucrt:exit.obj
 0001:00025713       ??0?$__crt_unique_handle_t@U__crt_hmodule_traits@@@@QAE@QAUHINSTANCE__@@@Z 10026713 f i libucrt:exit.obj
 0001:00025727       ??1?$__crt_unique_handle_t@U__crt_hmodule_traits@@@@QAE@XZ 10026727 f i libucrt:exit.obj
 0001:0002586c       ?__acrt_select_exit_lock@@YA?AW4__acrt_lock_id@@XZ 1002686c f i libucrt:exit.obj
 0001:00025887       ?close@?$__crt_unique_handle_t@U__crt_hmodule_traits@@@@QAEXXZ 10026887 f i libucrt:exit.obj
 0001:000258a3       ?close@__crt_hmodule_traits@@SA_NPAUHINSTANCE__@@@Z 100268a3 f i libucrt:exit.obj
 0001:0002598e       ?get@?$__crt_unique_handle_t@U__crt_hmodule_traits@@@@QBEPAUHINSTANCE__@@XZ 1002698e f i libucrt:exit.obj
 0001:00025991       ?get_address_of@?$__crt_unique_handle_t@U__crt_hmodule_traits@@@@QAEPAPAUHINSTANCE__@@XZ 10026991 f i libucrt:exit.obj
 0001:00025994       ?get_invalid_value@__crt_hmodule_traits@@SAPAUHINSTANCE__@@XZ 10026994 f i libucrt:exit.obj
 0001:00025a95       __Exit                     10026a95 f   libucrt:exit.obj
 0001:00025ab0       ___acrt_initialize_thread_local_exit_callback 10026ab0 f   libucrt:exit.obj
 0001:00025ac2       __c_exit                   10026ac2 f   libucrt:exit.obj
 0001:00025ad4       __cexit                    10026ad4 f   libucrt:exit.obj
 0001:00025ae6       __exit                     10026ae6 f   libucrt:exit.obj
 0001:00025b01       __is_c_termination_complete 10026b01 f   libucrt:exit.obj
 0001:00025b07       __register_thread_local_exe_atexit_callback 10026b07 f   libucrt:exit.obj
 0001:00025b4d       _exit                      10026b4d f   libucrt:exit.obj
 0001:00025b68       _quick_exit                10026b68 f   libucrt:exit.obj
 0001:00025b90       _strncat                   10026b90 f   libucrt:strncat.obj
 0001:00025d20       _strncpy                   10026d20 f   libucrt:strncpy.obj
 0001:00025e8d       ??$?RPAU__crt_stdio_stream_data@@@__crt_internal_free_policy@@QBEXQBQAU__crt_stdio_stream_data@@@Z 10026e8d f i libucrt:_file.obj
 0001:00025ea3       ??0?$__crt_unique_heap_ptr@PAU__crt_stdio_stream_data@@U__crt_internal_free_policy@@@@QAE@QAPAU__crt_stdio_stream_data@@@Z 10026ea3 f i libucrt:_file.obj
 0001:00025eb7       ??1?$__crt_unique_heap_ptr@PAU__crt_stdio_stream_data@@U__crt_internal_free_policy@@@@QAE@XZ 10026eb7 f i libucrt:_file.obj
 0001:00025ecd       ??C__crt_stdio_stream@@QBEPAU__crt_stdio_stream_data@@XZ 10026ecd f i libucrt:_file.obj
 0001:00025ed0       ?detach@?$__crt_unique_heap_ptr@PAU__crt_stdio_stream_data@@U__crt_internal_free_policy@@@@QAEPAPAU__crt_stdio_stream_data@@XZ 10026ed0 f i libucrt:_file.obj
 0001:00025ed6       ?release@?$__crt_unique_heap_ptr@PAU__crt_stdio_stream_data@@U__crt_internal_free_policy@@@@QAEXXZ 10026ed6 f i libucrt:_file.obj
 0001:00025eec       ___acrt_initialize_stdio   10026eec f   libucrt:_file.obj
 0001:00025fe6       ___acrt_iob_func           10026fe6 f   libucrt:_file.obj
 0001:00025ffa       ___acrt_uninitialize_stdio 10026ffa f   libucrt:_file.obj
 0001:00026059       __get_stream_buffer_pointers 10027059 f   libucrt:_file.obj
 0001:000260b0       __lock_file                100270b0 f   libucrt:_file.obj
 0001:000260c9       __unlock_file              100270c9 f   libucrt:_file.obj
 0001:000260e2       ?is_in_use@__crt_stdio_stream@@QBE_NXZ 100270e2 f i libucrt:fclose.obj
 0001:000260ef       ?is_string_backed@__crt_stdio_stream@@QBE_NXZ 100270ef f i libucrt:fclose.obj
 0001:000260fc       ?public_stream@__crt_stdio_stream@@QBEPAU_iobuf@@XZ 100270fc f i libucrt:fclose.obj
 0001:000260ff       ?valid@__crt_stdio_stream@@QBE_NXZ 100270ff f i libucrt:fclose.obj
 0001:00026106       __fclose_nolock            10027106 f   libucrt:fclose.obj
 0001:00026199       _fclose                    10027199 f   libucrt:fclose.obj
 0001:0002648f       ??$open_file@ABQBDABQBDABHPAU_iobuf@@@?$__crt_char_traits@D@@SAPAU_iobuf@@ABQBD0ABH$$QAPAU1@@Z 1002748f f i libucrt:fopen.obj
 0001:000264ba       ??$open_file@ABQB_WABQB_WABHPAU_iobuf@@@?$__crt_char_traits@_W@@SAPAU_iobuf@@ABQB_W0ABH$$QAPAU1@@Z 100274ba f i libucrt:fopen.obj
 0001:000264e5       ?unlock@__crt_stdio_stream@@QBEXXZ 100274e5 f i libucrt:fopen.obj
 0001:000264f0       __fsopen                   100274f0 f   libucrt:fopen.obj
 0001:000264fd       __wfopen                   100274fd f   libucrt:fopen.obj
 0001:00026519       __wfopen_s                 10027519 f   libucrt:fopen.obj
 0001:00026571       __wfsopen                  10027571 f   libucrt:fopen.obj
 0001:0002657e       _fopen                     1002757e f   libucrt:fopen.obj
 0001:0002659a       _fopen_s                   1002759a f   libucrt:fopen.obj
 0001:000265f2       ?__acrt_stdio_reset_buffer@@YAXV__crt_stdio_stream@@@Z 100275f2 f i libucrt:fread.obj
 0001:0002660d       ?set_flags@__crt_stdio_stream@@QBE_NJ@Z 1002760d f i libucrt:fread.obj
 0001:0002663a       __fread_nolock             1002763a f   libucrt:fread.obj
 0001:0002665e       __fread_nolock_s           1002765e f   libucrt:fread.obj
 0001:000268ad       _fread                     100278ad f   libucrt:fread.obj
 0001:000268d1       _fread_s                   100278d1 f   libucrt:fread.obj
 0001:00026b16       ??0__acrt_stdio_temporary_buffering_guard@@QAE@QAU_iobuf@@@Z 10027b16 f i libucrt:fwrite.obj
 0001:00026b3b       ??1__acrt_stdio_temporary_buffering_guard@@QAE@XZ 10027b3b f i libucrt:fwrite.obj
 0001:00026bb9       ?has_big_buffer@__crt_stdio_stream@@QBE_NXZ 10027bb9 f i libucrt:fwrite.obj
 0001:00026bc6       __fwrite_nolock            10027bc6 f   libucrt:fwrite.obj
 0001:00026d9f       _fwrite                    10027d9f f   libucrt:fwrite.obj
 0001:00026ec2       ??$__acrt_mbs_to_wcs_cp@U__crt_win32_buffer_internal_dynamic_resizing@@@@YAHQBDAAV?$__crt_win32_buffer@_WU__crt_win32_buffer_internal_dynamic_resizing@@@@I@Z 10027ec2 f i libucrt:unlink.obj
 0001:00026ee8       ??0?$__crt_win32_buffer@_WU__crt_win32_buffer_internal_dynamic_resizing@@@@QAE@XZ 10027ee8 f i libucrt:unlink.obj
 0001:00026f03       ??0_LocaleUpdate@@QAE@QAU__crt_locale_pointers@@@Z 10027f03 f i libucrt:unlink.obj
 0001:00026fa6       ??1?$__crt_win32_buffer@_WU__crt_win32_buffer_internal_dynamic_resizing@@@@QAE@XZ 10027fa6 f i libucrt:unlink.obj
 0001:00026fab       ??1_LocaleUpdate@@QAE@XZ   10027fab f i libucrt:unlink.obj
 0001:00026fe8       ?GetLocaleT@_LocaleUpdate@@QAEPAU__crt_locale_pointers@@XZ 10027fe8 f i libucrt:unlink.obj
 0001:00026fec       ?__acrt_get_utf8_acp_compatibility_codepage@@YAIXZ 10027fec f i libucrt:unlink.obj
 0001:0002703d       ?_deallocate@?$__crt_win32_buffer@_WU__crt_win32_buffer_internal_dynamic_resizing@@@@AAEXXZ 1002803d f i libucrt:unlink.obj
 0001:0002705d       ?allocate@?$__crt_win32_buffer@_WU__crt_win32_buffer_internal_dynamic_resizing@@@@QAEHI@Z 1002805d f i libucrt:unlink.obj
 0001:000270ab       ?allocate@__crt_win32_buffer_internal_dynamic_resizing@@SAHQAPAXIABV__crt_win32_buffer_empty_debug_info@@@Z 100280ab f i libucrt:unlink.obj
 0001:000270d1       ?capacity@?$__crt_win32_buffer@_WU__crt_win32_buffer_internal_dynamic_resizing@@@@QBEIXZ 100280d1 f i libucrt:unlink.obj
 0001:000270d5       ?data@?$__crt_win32_buffer@_WU__crt_win32_buffer_internal_dynamic_resizing@@@@QAEPA_WXZ 100280d5 f i libucrt:unlink.obj
 0001:000270d9       ?deallocate@__crt_win32_buffer_internal_dynamic_resizing@@SAXQAXABV__crt_win32_buffer_empty_debug_info@@@Z 100280d9 f i libucrt:unlink.obj
 0001:000270ed       ?debug_info@?$__crt_win32_buffer@_WU__crt_win32_buffer_internal_dynamic_resizing@@@@QBEABV__crt_win32_buffer_empty_debug_info@@XZ 100280ed f i libucrt:unlink.obj
 0001:000270f0       ?size@?$__crt_win32_buffer@_WU__crt_win32_buffer_internal_dynamic_resizing@@@@QAEXI@Z 100280f0 f i libucrt:unlink.obj
 0001:00027102       ___acrt_locale_changed     10028102 f i libucrt:unlink.obj
 0001:0002710f       __unlink                   1002810f f   libucrt:unlink.obj
 0001:0002711c       _remove                    1002811c f   libucrt:unlink.obj
 0001:000271a3       ?has_all_of@__crt_stdio_stream@@QBE_NJ@Z 100281a3 f i libucrt:rewind.obj
 0001:000271bf       ?unset_flags@__crt_stdio_stream@@QBE_NJ@Z 100281bf f i libucrt:rewind.obj
 0001:000271f2       _rewind                    100281f2 f   libucrt:rewind.obj
 0001:000272e4       ??$?0ABV?$stream_output_adapter@D@__crt_stdio_output@@AB_KABQBDABQAU__crt_locale_pointers@@ABQAD@?$format_validation_base@DV?$stream_output_adapter@D@__crt_stdio_output@@@__crt_stdio_output@@IAE@ABV?$stream_output_adapter@D@1@AB_KABQBDABQAU__crt_locale_pointers@@ABQAD@Z 100282e4 f i libucrt:output.obj
 0001:0002730f       ??$?0ABV?$stream_output_adapter@D@__crt_stdio_output@@AB_KABQBDABQAU__crt_locale_pointers@@ABQAD@?$positional_parameter_base@DV?$stream_output_adapter@D@__crt_stdio_output@@@__crt_stdio_output@@IAE@ABV?$stream_output_adapter@D@1@AB_KABQBDABQAU__crt_locale_pointers@@ABQAD@Z 1002830f f i libucrt:output.obj
 0001:00027369       ??$?0ABV?$stream_output_adapter@D@__crt_stdio_output@@AB_KABQBDABQAU__crt_locale_pointers@@ABQAD@?$standard_base@DV?$stream_output_adapter@D@__crt_stdio_output@@@__crt_stdio_output@@IAE@ABV?$stream_output_adapter@D@1@AB_KABQBDABQAU__crt_locale_pointers@@ABQAD@Z 10028369 f i libucrt:output.obj
 0001:000273ab       ??$?0ABV?$stream_output_adapter@_W@__crt_stdio_output@@AB_KABQB_WABQAU__crt_locale_pointers@@ABQAD@?$format_validation_base@_WV?$stream_output_adapter@_W@__crt_stdio_output@@@__crt_stdio_output@@IAE@ABV?$stream_output_adapter@_W@1@AB_KABQB_WABQAU__crt_locale_pointers@@ABQAD@Z 100283ab f i libucrt:output.obj
 0001:000273d6       ??$?0ABV?$stream_output_adapter@_W@__crt_stdio_output@@AB_KABQB_WABQAU__crt_locale_pointers@@ABQAD@?$positional_parameter_base@_WV?$stream_output_adapter@_W@__crt_stdio_output@@@__crt_stdio_output@@IAE@ABV?$stream_output_adapter@_W@1@AB_KABQB_WABQAU__crt_locale_pointers@@ABQAD@Z 100283d6 f i libucrt:output.obj
 0001:00027430       ??$?0ABV?$stream_output_adapter@_W@__crt_stdio_output@@AB_KABQB_WABQAU__crt_locale_pointers@@ABQAD@?$standard_base@_WV?$stream_output_adapter@_W@__crt_stdio_output@@@__crt_stdio_output@@IAE@ABV?$stream_output_adapter@_W@1@AB_KABQB_WABQAU__crt_locale_pointers@@ABQAD@Z 10028430 f i libucrt:output.obj
 0001:00027472       ??$?0ABV?$string_output_adapter@D@__crt_stdio_output@@AB_KABQBDABQAU__crt_locale_pointers@@ABQAD@?$format_validation_base@DV?$string_output_adapter@D@__crt_stdio_output@@@__crt_stdio_output@@IAE@ABV?$string_output_adapter@D@1@AB_KABQBDABQAU__crt_locale_pointers@@ABQAD@Z 10028472 f i libucrt:output.obj
 0001:0002749d       ??$?0ABV?$string_output_adapter@D@__crt_stdio_output@@AB_KABQBDABQAU__crt_locale_pointers@@ABQAD@?$positional_parameter_base@DV?$string_output_adapter@D@__crt_stdio_output@@@__crt_stdio_output@@IAE@ABV?$string_output_adapter@D@1@AB_KABQBDABQAU__crt_locale_pointers@@ABQAD@Z 1002849d f i libucrt:output.obj
 0001:000274f7       ??$?0ABV?$string_output_adapter@D@__crt_stdio_output@@AB_KABQBDABQAU__crt_locale_pointers@@ABQAD@?$standard_base@DV?$string_output_adapter@D@__crt_stdio_output@@@__crt_stdio_output@@IAE@ABV?$string_output_adapter@D@1@AB_KABQBDABQAU__crt_locale_pointers@@ABQAD@Z 100284f7 f i libucrt:output.obj
 0001:00027539       ??$?0ABV?$string_output_adapter@_W@__crt_stdio_output@@AB_KABQB_WABQAU__crt_locale_pointers@@ABQAD@?$format_validation_base@_WV?$string_output_adapter@_W@__crt_stdio_output@@@__crt_stdio_output@@IAE@ABV?$string_output_adapter@_W@1@AB_KABQB_WABQAU__crt_locale_pointers@@ABQAD@Z 10028539 f i libucrt:output.obj
 0001:00027564       ??$?0ABV?$string_output_adapter@_W@__crt_stdio_output@@AB_KABQB_WABQAU__crt_locale_pointers@@ABQAD@?$positional_parameter_base@_WV?$string_output_adapter@_W@__crt_stdio_output@@@__crt_stdio_output@@IAE@ABV?$string_output_adapter@_W@1@AB_KABQB_WABQAU__crt_locale_pointers@@ABQAD@Z 10028564 f i libucrt:output.obj
 0001:000275be       ??$?0ABV?$string_output_adapter@_W@__crt_stdio_output@@AB_KABQB_WABQAU__crt_locale_pointers@@ABQAD@?$standard_base@_WV?$string_output_adapter@_W@__crt_stdio_output@@@__crt_stdio_output@@IAE@ABV?$string_output_adapter@_W@1@AB_KABQB_WABQAU__crt_locale_pointers@@ABQAD@Z 100285be f i libucrt:output.obj
 0001:00028be4       ??$count@D@formatting_buffer@__crt_stdio_output@@QBEIXZ 10029be4 f i libucrt:output.obj
 0001:00028c02       ??$count@_W@formatting_buffer@__crt_stdio_output@@QBEIXZ 10029c02 f i libucrt:output.obj
 0001:00028c21       ??$data@D@formatting_buffer@__crt_stdio_output@@QAEPADXZ 10029c21 f i libucrt:output.obj
 0001:00028c31       ??$data@_W@formatting_buffer@__crt_stdio_output@@QAEPA_WXZ 10029c31 f i libucrt:output.obj
 0001:00028c41       ??$ensure_buffer_is_big_enough@D@formatting_buffer@__crt_stdio_output@@QAE_NI@Z 10029c41 f i libucrt:output.obj
 0001:00028cdf       ??$ensure_buffer_is_big_enough@_W@formatting_buffer@__crt_stdio_output@@QAE_NI@Z 10029cdf f i libucrt:output.obj
 0001:00028d7f       ??$extract_argument_from_va_list@C_J@?$positional_parameter_base@DV?$stream_output_adapter@D@__crt_stdio_output@@@__crt_stdio_output@@IAE_NAA_J@Z 10029d7f f i libucrt:output.obj
 0001:00028e16       ??$extract_argument_from_va_list@C_J@?$positional_parameter_base@DV?$string_output_adapter@D@__crt_stdio_output@@@__crt_stdio_output@@IAE_NAA_J@Z 10029e16 f i libucrt:output.obj
 0001:00028ead       ??$extract_argument_from_va_list@C_J@?$positional_parameter_base@_WV?$stream_output_adapter@_W@__crt_stdio_output@@@__crt_stdio_output@@IAE_NAA_J@Z 10029ead f i libucrt:output.obj
 0001:00028f44       ??$extract_argument_from_va_list@C_J@?$positional_parameter_base@_WV?$string_output_adapter@_W@__crt_stdio_output@@@__crt_stdio_output@@IAE_NAA_J@Z 10029f44 f i libucrt:output.obj
 0001:00028fdb       ??$extract_argument_from_va_list@C_J@?$standard_base@DV?$stream_output_adapter@D@__crt_stdio_output@@@__crt_stdio_output@@IAE_NAA_J@Z 10029fdb f i libucrt:output.obj
 0001:00029001       ??$extract_argument_from_va_list@C_J@?$standard_base@DV?$string_output_adapter@D@__crt_stdio_output@@@__crt_stdio_output@@IAE_NAA_J@Z 1002a001 f i libucrt:output.obj
 0001:00029027       ??$extract_argument_from_va_list@C_J@?$standard_base@_WV?$stream_output_adapter@_W@__crt_stdio_output@@@__crt_stdio_output@@IAE_NAA_J@Z 1002a027 f i libucrt:output.obj
 0001:0002904d       ??$extract_argument_from_va_list@C_J@?$standard_base@_WV?$string_output_adapter@_W@__crt_stdio_output@@@__crt_stdio_output@@IAE_NAA_J@Z 1002a04d f i libucrt:output.obj
 0001:00029073       ??$extract_argument_from_va_list@E_J@?$positional_parameter_base@DV?$stream_output_adapter@D@__crt_stdio_output@@@__crt_stdio_output@@IAE_NAA_J@Z 1002a073 f i libucrt:output.obj
 0001:0002910a       ??$extract_argument_from_va_list@E_J@?$positional_parameter_base@DV?$string_output_adapter@D@__crt_stdio_output@@@__crt_stdio_output@@IAE_NAA_J@Z 1002a10a f i libucrt:output.obj
 0001:000291a1       ??$extract_argument_from_va_list@E_J@?$positional_parameter_base@_WV?$stream_output_adapter@_W@__crt_stdio_output@@@__crt_stdio_output@@IAE_NAA_J@Z 1002a1a1 f i libucrt:output.obj
 0001:00029238       ??$extract_argument_from_va_list@E_J@?$positional_parameter_base@_WV?$string_output_adapter@_W@__crt_stdio_output@@@__crt_stdio_output@@IAE_NAA_J@Z 1002a238 f i libucrt:output.obj
 0001:000292cf       ??$extract_argument_from_va_list@E_J@?$standard_base@DV?$stream_output_adapter@D@__crt_stdio_output@@@__crt_stdio_output@@IAE_NAA_J@Z 1002a2cf f i libucrt:output.obj
 0001:000292f5       ??$extract_argument_from_va_list@E_J@?$standard_base@DV?$string_output_adapter@D@__crt_stdio_output@@@__crt_stdio_output@@IAE_NAA_J@Z 1002a2f5 f i libucrt:output.obj
 0001:0002931b       ??$extract_argument_from_va_list@E_J@?$standard_base@_WV?$stream_output_adapter@_W@__crt_stdio_output@@@__crt_stdio_output@@IAE_NAA_J@Z 1002a31b f i libucrt:output.obj
 0001:00029341       ??$extract_argument_from_va_list@E_J@?$standard_base@_WV?$string_output_adapter@_W@__crt_stdio_output@@@__crt_stdio_output@@IAE_NAA_J@Z 1002a341 f i libucrt:output.obj
 0001:00029367       ??$extract_argument_from_va_list@F_J@?$positional_parameter_base@DV?$stream_output_adapter@D@__crt_stdio_output@@@__crt_stdio_output@@IAE_NAA_J@Z 1002a367 f i libucrt:output.obj
 0001:000293fe       ??$extract_argument_from_va_list@F_J@?$positional_parameter_base@DV?$string_output_adapter@D@__crt_stdio_output@@@__crt_stdio_output@@IAE_NAA_J@Z 1002a3fe f i libucrt:output.obj
 0001:00029495       ??$extract_argument_from_va_list@F_J@?$positional_parameter_base@_WV?$stream_output_adapter@_W@__crt_stdio_output@@@__crt_stdio_output@@IAE_NAA_J@Z 1002a495 f i libucrt:output.obj
 0001:0002952c       ??$extract_argument_from_va_list@F_J@?$positional_parameter_base@_WV?$string_output_adapter@_W@__crt_stdio_output@@@__crt_stdio_output@@IAE_NAA_J@Z 1002a52c f i libucrt:output.obj
 0001:000295c3       ??$extract_argument_from_va_list@F_J@?$standard_base@DV?$stream_output_adapter@D@__crt_stdio_output@@@__crt_stdio_output@@IAE_NAA_J@Z 1002a5c3 f i libucrt:output.obj
 0001:000295e9       ??$extract_argument_from_va_list@F_J@?$standard_base@DV?$string_output_adapter@D@__crt_stdio_output@@@__crt_stdio_output@@IAE_NAA_J@Z 1002a5e9 f i libucrt:output.obj
 0001:0002960f       ??$extract_argument_from_va_list@F_J@?$standard_base@_WV?$stream_output_adapter@_W@__crt_stdio_output@@@__crt_stdio_output@@IAE_NAA_J@Z 1002a60f f i libucrt:output.obj
 0001:00029635       ??$extract_argument_from_va_list@F_J@?$standard_base@_WV?$string_output_adapter@_W@__crt_stdio_output@@@__crt_stdio_output@@IAE_NAA_J@Z 1002a635 f i libucrt:output.obj
 0001:0002965b       ??$extract_argument_from_va_list@GD@?$positional_parameter_base@DV?$stream_output_adapter@D@__crt_stdio_output@@@__crt_stdio_output@@IAE_NAAD@Z 1002a65b f i libucrt:output.obj
 0001:000296f1       ??$extract_argument_from_va_list@GD@?$positional_parameter_base@DV?$string_output_adapter@D@__crt_stdio_output@@@__crt_stdio_output@@IAE_NAAD@Z 1002a6f1 f i libucrt:output.obj
 0001:00029787       ??$extract_argument_from_va_list@GD@?$standard_base@DV?$stream_output_adapter@D@__crt_stdio_output@@@__crt_stdio_output@@IAE_NAAD@Z 1002a787 f i libucrt:output.obj
 0001:000297a7       ??$extract_argument_from_va_list@GD@?$standard_base@DV?$string_output_adapter@D@__crt_stdio_output@@@__crt_stdio_output@@IAE_NAAD@Z 1002a7a7 f i libucrt:output.obj
 0001:000297c7       ??$extract_argument_from_va_list@G_J@?$positional_parameter_base@DV?$stream_output_adapter@D@__crt_stdio_output@@@__crt_stdio_output@@IAE_NAA_J@Z 1002a7c7 f i libucrt:output.obj
 0001:0002985e       ??$extract_argument_from_va_list@G_J@?$positional_parameter_base@DV?$string_output_adapter@D@__crt_stdio_output@@@__crt_stdio_output@@IAE_NAA_J@Z 1002a85e f i libucrt:output.obj
 0001:000298f5       ??$extract_argument_from_va_list@G_J@?$positional_parameter_base@_WV?$stream_output_adapter@_W@__crt_stdio_output@@@__crt_stdio_output@@IAE_NAA_J@Z 1002a8f5 f i libucrt:output.obj
 0001:0002998c       ??$extract_argument_from_va_list@G_J@?$positional_parameter_base@_WV?$string_output_adapter@_W@__crt_stdio_output@@@__crt_stdio_output@@IAE_NAA_J@Z 1002a98c f i libucrt:output.obj
 0001:00029a23       ??$extract_argument_from_va_list@G_J@?$standard_base@DV?$stream_output_adapter@D@__crt_stdio_output@@@__crt_stdio_output@@IAE_NAA_J@Z 1002aa23 f i libucrt:output.obj
 0001:00029a49       ??$extract_argument_from_va_list@G_J@?$standard_base@DV?$string_output_adapter@D@__crt_stdio_output@@@__crt_stdio_output@@IAE_NAA_J@Z 1002aa49 f i libucrt:output.obj
 0001:00029a6f       ??$extract_argument_from_va_list@G_J@?$standard_base@_WV?$stream_output_adapter@_W@__crt_stdio_output@@@__crt_stdio_output@@IAE_NAA_J@Z 1002aa6f f i libucrt:output.obj
 0001:00029a95       ??$extract_argument_from_va_list@G_J@?$standard_base@_WV?$string_output_adapter@_W@__crt_stdio_output@@@__crt_stdio_output@@IAE_NAA_J@Z 1002aa95 f i libucrt:output.obj
 0001:00029abb       ??$extract_argument_from_va_list@H_J@?$positional_parameter_base@DV?$stream_output_adapter@D@__crt_stdio_output@@@__crt_stdio_output@@IAE_NAA_J@Z 1002aabb f i libucrt:output.obj
 0001:00029b4f       ??$extract_argument_from_va_list@H_J@?$positional_parameter_base@DV?$string_output_adapter@D@__crt_stdio_output@@@__crt_stdio_output@@IAE_NAA_J@Z 1002ab4f f i libucrt:output.obj
 0001:00029be3       ??$extract_argument_from_va_list@H_J@?$positional_parameter_base@_WV?$stream_output_adapter@_W@__crt_stdio_output@@@__crt_stdio_output@@IAE_NAA_J@Z 1002abe3 f i libucrt:output.obj
 0001:00029c77       ??$extract_argument_from_va_list@H_J@?$positional_parameter_base@_WV?$string_output_adapter@_W@__crt_stdio_output@@@__crt_stdio_output@@IAE_NAA_J@Z 1002ac77 f i libucrt:output.obj
 0001:00029d0b       ??$extract_argument_from_va_list@H_J@?$standard_base@DV?$stream_output_adapter@D@__crt_stdio_output@@@__crt_stdio_output@@IAE_NAA_J@Z 1002ad0b f i libucrt:output.obj
 0001:00029d30       ??$extract_argument_from_va_list@H_J@?$standard_base@DV?$string_output_adapter@D@__crt_stdio_output@@@__crt_stdio_output@@IAE_NAA_J@Z 1002ad30 f i libucrt:output.obj
 0001:00029d55       ??$extract_argument_from_va_list@H_J@?$standard_base@_WV?$stream_output_adapter@_W@__crt_stdio_output@@@__crt_stdio_output@@IAE_NAA_J@Z 1002ad55 f i libucrt:output.obj
 0001:00029d7a       ??$extract_argument_from_va_list@H_J@?$standard_base@_WV?$string_output_adapter@_W@__crt_stdio_output@@@__crt_stdio_output@@IAE_NAA_J@Z 1002ad7a f i libucrt:output.obj
 0001:00029d9f       ??$extract_argument_from_va_list@I_J@?$positional_parameter_base@DV?$stream_output_adapter@D@__crt_stdio_output@@@__crt_stdio_output@@IAE_NAA_J@Z 1002ad9f f i libucrt:output.obj
 0001:00029e3f       ??$extract_argument_from_va_list@I_J@?$positional_parameter_base@DV?$string_output_adapter@D@__crt_stdio_output@@@__crt_stdio_output@@IAE_NAA_J@Z 1002ae3f f i libucrt:output.obj
 0001:00029edf       ??$extract_argument_from_va_list@I_J@?$positional_parameter_base@_WV?$stream_output_adapter@_W@__crt_stdio_output@@@__crt_stdio_output@@IAE_NAA_J@Z 1002aedf f i libucrt:output.obj
 0001:00029f7f       ??$extract_argument_from_va_list@I_J@?$positional_parameter_base@_WV?$string_output_adapter@_W@__crt_stdio_output@@@__crt_stdio_output@@IAE_NAA_J@Z 1002af7f f i libucrt:output.obj
 0001:0002a01f       ??$extract_argument_from_va_list@I_J@?$standard_base@DV?$stream_output_adapter@D@__crt_stdio_output@@@__crt_stdio_output@@IAE_NAA_J@Z 1002b01f f i libucrt:output.obj
 0001:0002a044       ??$extract_argument_from_va_list@I_J@?$standard_base@DV?$string_output_adapter@D@__crt_stdio_output@@@__crt_stdio_output@@IAE_NAA_J@Z 1002b044 f i libucrt:output.obj
 0001:0002a069       ??$extract_argument_from_va_list@I_J@?$standard_base@_WV?$stream_output_adapter@_W@__crt_stdio_output@@@__crt_stdio_output@@IAE_NAA_J@Z 1002b069 f i libucrt:output.obj
 0001:0002a08e       ??$extract_argument_from_va_list@I_J@?$standard_base@_WV?$string_output_adapter@_W@__crt_stdio_output@@@__crt_stdio_output@@IAE_NAA_J@Z 1002b08e f i libucrt:output.obj
 0001:0002a0b3       ??$extract_argument_from_va_list@PADPAD@?$positional_parameter_base@DV?$stream_output_adapter@D@__crt_stdio_output@@@__crt_stdio_output@@IAE_NAAPAD@Z 1002b0b3 f i libucrt:output.obj
 0001:0002a149       ??$extract_argument_from_va_list@PADPAD@?$positional_parameter_base@DV?$string_output_adapter@D@__crt_stdio_output@@@__crt_stdio_output@@IAE_NAAPAD@Z 1002b149 f i libucrt:output.obj
 0001:0002a1df       ??$extract_argument_from_va_list@PADPAD@?$positional_parameter_base@_WV?$stream_output_adapter@_W@__crt_stdio_output@@@__crt_stdio_output@@IAE_NAAPAD@Z 1002b1df f i libucrt:output.obj
 0001:0002a275       ??$extract_argument_from_va_list@PADPAD@?$positional_parameter_base@_WV?$string_output_adapter@_W@__crt_stdio_output@@@__crt_stdio_output@@IAE_NAAPAD@Z 1002b275 f i libucrt:output.obj
 0001:0002a30b       ??$extract_argument_from_va_list@PADPAD@?$standard_base@DV?$stream_output_adapter@D@__crt_stdio_output@@@__crt_stdio_output@@IAE_NAAPAD@Z 1002b30b f i libucrt:output.obj
 0001:0002a32b       ??$extract_argument_from_va_list@PADPAD@?$standard_base@DV?$string_output_adapter@D@__crt_stdio_output@@@__crt_stdio_output@@IAE_NAAPAD@Z 1002b32b f i libucrt:output.obj
 0001:0002a34b       ??$extract_argument_from_va_list@PADPAD@?$standard_base@_WV?$stream_output_adapter@_W@__crt_stdio_output@@@__crt_stdio_output@@IAE_NAAPAD@Z 1002b34b f i libucrt:output.obj
 0001:0002a36b       ??$extract_argument_from_va_list@PADPAD@?$standard_base@_WV?$string_output_adapter@_W@__crt_stdio_output@@@__crt_stdio_output@@IAE_NAAPAD@Z 1002b36b f i libucrt:output.obj
 0001:0002a763       ??$extract_argument_from_va_list@PAXPAX@?$positional_parameter_base@DV?$stream_output_adapter@D@__crt_stdio_output@@@__crt_stdio_output@@IAE_NAAPAX@Z 1002b763 f i libucrt:output.obj
 0001:0002a7f9       ??$extract_argument_from_va_list@PAXPAX@?$positional_parameter_base@DV?$string_output_adapter@D@__crt_stdio_output@@@__crt_stdio_output@@IAE_NAAPAX@Z 1002b7f9 f i libucrt:output.obj
 0001:0002a88f       ??$extract_argument_from_va_list@PAXPAX@?$positional_parameter_base@_WV?$stream_output_adapter@_W@__crt_stdio_output@@@__crt_stdio_output@@IAE_NAAPAX@Z 1002b88f f i libucrt:output.obj
 0001:0002a925       ??$extract_argument_from_va_list@PAXPAX@?$positional_parameter_base@_WV?$string_output_adapter@_W@__crt_stdio_output@@@__crt_stdio_output@@IAE_NAAPAX@Z 1002b925 f i libucrt:output.obj
 0001:0002a9bb       ??$extract_argument_from_va_list@PAXPAX@?$standard_base@DV?$stream_output_adapter@D@__crt_stdio_output@@@__crt_stdio_output@@IAE_NAAPAX@Z 1002b9bb f i libucrt:output.obj
 0001:0002a9db       ??$extract_argument_from_va_list@PAXPAX@?$standard_base@DV?$string_output_adapter@D@__crt_stdio_output@@@__crt_stdio_output@@IAE_NAAPAX@Z 1002b9db f i libucrt:output.obj
 0001:0002a9fb       ??$extract_argument_from_va_list@PAXPAX@?$standard_base@_WV?$stream_output_adapter@_W@__crt_stdio_output@@@__crt_stdio_output@@IAE_NAAPAX@Z 1002b9fb f i libucrt:output.obj
 0001:0002aa1b       ??$extract_argument_from_va_list@PAXPAX@?$standard_base@_WV?$string_output_adapter@_W@__crt_stdio_output@@@__crt_stdio_output@@IAE_NAAPAX@Z 1002ba1b f i libucrt:output.obj
 0001:0002aa3b       ??$extract_argument_from_va_list@U_CRT_DOUBLE@@U1@@?$positional_parameter_base@DV?$stream_output_adapter@D@__crt_stdio_output@@@__crt_stdio_output@@IAE_NAAU_CRT_DOUBLE@@@Z 1002ba3b f i libucrt:output.obj
 0001:0002aae2       ??$extract_argument_from_va_list@U_CRT_DOUBLE@@U1@@?$positional_parameter_base@DV?$string_output_adapter@D@__crt_stdio_output@@@__crt_stdio_output@@IAE_NAAU_CRT_DOUBLE@@@Z 1002bae2 f i libucrt:output.obj
 0001:0002ab89       ??$extract_argument_from_va_list@U_CRT_DOUBLE@@U1@@?$positional_parameter_base@_WV?$stream_output_adapter@_W@__crt_stdio_output@@@__crt_stdio_output@@IAE_NAAU_CRT_DOUBLE@@@Z 1002bb89 f i libucrt:output.obj
 0001:0002ac30       ??$extract_argument_from_va_list@U_CRT_DOUBLE@@U1@@?$positional_parameter_base@_WV?$string_output_adapter@_W@__crt_stdio_output@@@__crt_stdio_output@@IAE_NAAU_CRT_DOUBLE@@@Z 1002bc30 f i libucrt:output.obj
 0001:0002acd7       ??$extract_argument_from_va_list@U_CRT_DOUBLE@@U1@@?$standard_base@DV?$stream_output_adapter@D@__crt_stdio_output@@@__crt_stdio_output@@IAE_NAAU_CRT_DOUBLE@@@Z 1002bcd7 f i libucrt:output.obj
 0001:0002acff       ??$extract_argument_from_va_list@U_CRT_DOUBLE@@U1@@?$standard_base@DV?$string_output_adapter@D@__crt_stdio_output@@@__crt_stdio_output@@IAE_NAAU_CRT_DOUBLE@@@Z 1002bcff f i libucrt:output.obj
 0001:0002ad27       ??$extract_argument_from_va_list@U_CRT_DOUBLE@@U1@@?$standard_base@_WV?$stream_output_adapter@_W@__crt_stdio_output@@@__crt_stdio_output@@IAE_NAAU_CRT_DOUBLE@@@Z 1002bd27 f i libucrt:output.obj
 0001:0002ad4f       ??$extract_argument_from_va_list@U_CRT_DOUBLE@@U1@@?$standard_base@_WV?$string_output_adapter@_W@__crt_stdio_output@@@__crt_stdio_output@@IAE_NAAU_CRT_DOUBLE@@@Z 1002bd4f f i libucrt:output.obj
 0001:0002ad77       ??$extract_argument_from_va_list@_J_J@?$positional_parameter_base@DV?$stream_output_adapter@D@__crt_stdio_output@@@__crt_stdio_output@@IAE_NAA_J@Z 1002bd77 f i libucrt:output.obj
 0001:0002ae1e       ??$extract_argument_from_va_list@_J_J@?$positional_parameter_base@DV?$string_output_adapter@D@__crt_stdio_output@@@__crt_stdio_output@@IAE_NAA_J@Z 1002be1e f i libucrt:output.obj
 0001:0002aec5       ??$extract_argument_from_va_list@_J_J@?$positional_parameter_base@_WV?$stream_output_adapter@_W@__crt_stdio_output@@@__crt_stdio_output@@IAE_NAA_J@Z 1002bec5 f i libucrt:output.obj
 0001:0002af6c       ??$extract_argument_from_va_list@_J_J@?$positional_parameter_base@_WV?$string_output_adapter@_W@__crt_stdio_output@@@__crt_stdio_output@@IAE_NAA_J@Z 1002bf6c f i libucrt:output.obj
 0001:0002b013       ??$extract_argument_from_va_list@_J_J@?$standard_base@DV?$stream_output_adapter@D@__crt_stdio_output@@@__crt_stdio_output@@IAE_NAA_J@Z 1002c013 f i libucrt:output.obj
 0001:0002b03b       ??$extract_argument_from_va_list@_J_J@?$standard_base@DV?$string_output_adapter@D@__crt_stdio_output@@@__crt_stdio_output@@IAE_NAA_J@Z 1002c03b f i libucrt:output.obj
 0001:0002b063       ??$extract_argument_from_va_list@_J_J@?$standard_base@_WV?$stream_output_adapter@_W@__crt_stdio_output@@@__crt_stdio_output@@IAE_NAA_J@Z 1002c063 f i libucrt:output.obj
 0001:0002b08b       ??$extract_argument_from_va_list@_J_J@?$standard_base@_WV?$string_output_adapter@_W@__crt_stdio_output@@@__crt_stdio_output@@IAE_NAA_J@Z 1002c08b f i libucrt:output.obj
 0001:0002b0b3       ??$extract_argument_from_va_list@_K_J@?$positional_parameter_base@DV?$stream_output_adapter@D@__crt_stdio_output@@@__crt_stdio_output@@IAE_NAA_J@Z 1002c0b3 f i libucrt:output.obj
 0001:0002b15a       ??$extract_argument_from_va_list@_K_J@?$positional_parameter_base@DV?$string_output_adapter@D@__crt_stdio_output@@@__crt_stdio_output@@IAE_NAA_J@Z 1002c15a f i libucrt:output.obj
 0001:0002b201       ??$extract_argument_from_va_list@_K_J@?$positional_parameter_base@_WV?$stream_output_adapter@_W@__crt_stdio_output@@@__crt_stdio_output@@IAE_NAA_J@Z 1002c201 f i libucrt:output.obj
 0001:0002b2a8       ??$extract_argument_from_va_list@_K_J@?$positional_parameter_base@_WV?$string_output_adapter@_W@__crt_stdio_output@@@__crt_stdio_output@@IAE_NAA_J@Z 1002c2a8 f i libucrt:output.obj
 0001:0002b34f       ??$extract_argument_from_va_list@_K_J@?$standard_base@DV?$stream_output_adapter@D@__crt_stdio_output@@@__crt_stdio_output@@IAE_NAA_J@Z 1002c34f f i libucrt:output.obj
 0001:0002b377       ??$extract_argument_from_va_list@_K_J@?$standard_base@DV?$string_output_adapter@D@__crt_stdio_output@@@__crt_stdio_output@@IAE_NAA_J@Z 1002c377 f i libucrt:output.obj
 0001:0002b39f       ??$extract_argument_from_va_list@_K_J@?$standard_base@_WV?$stream_output_adapter@_W@__crt_stdio_output@@@__crt_stdio_output@@IAE_NAA_J@Z 1002c39f f i libucrt:output.obj
 0001:0002b3c7       ??$extract_argument_from_va_list@_K_J@?$standard_base@_WV?$string_output_adapter@_W@__crt_stdio_output@@@__crt_stdio_output@@IAE_NAA_J@Z 1002c3c7 f i libucrt:output.obj
 0001:0002b3ef       ??$extract_argument_from_va_list@_W_W@?$positional_parameter_base@DV?$stream_output_adapter@D@__crt_stdio_output@@@__crt_stdio_output@@IAE_NAA_W@Z 1002c3ef f i libucrt:output.obj
 0001:0002b48a       ??$extract_argument_from_va_list@_W_W@?$positional_parameter_base@DV?$string_output_adapter@D@__crt_stdio_output@@@__crt_stdio_output@@IAE_NAA_W@Z 1002c48a f i libucrt:output.obj
 0001:0002b525       ??$extract_argument_from_va_list@_W_W@?$positional_parameter_base@_WV?$stream_output_adapter@_W@__crt_stdio_output@@@__crt_stdio_output@@IAE_NAA_W@Z 1002c525 f i libucrt:output.obj
 0001:0002b5c0       ??$extract_argument_from_va_list@_W_W@?$positional_parameter_base@_WV?$string_output_adapter@_W@__crt_stdio_output@@@__crt_stdio_output@@IAE_NAA_W@Z 1002c5c0 f i libucrt:output.obj
 0001:0002b65b       ??$extract_argument_from_va_list@_W_W@?$standard_base@DV?$stream_output_adapter@D@__crt_stdio_output@@@__crt_stdio_output@@IAE_NAA_W@Z 1002c65b f i libucrt:output.obj
 0001:0002b67e       ??$extract_argument_from_va_list@_W_W@?$standard_base@DV?$string_output_adapter@D@__crt_stdio_output@@@__crt_stdio_output@@IAE_NAA_W@Z 1002c67e f i libucrt:output.obj
 0001:0002b6a1       ??$extract_argument_from_va_list@_W_W@?$standard_base@_WV?$stream_output_adapter@_W@__crt_stdio_output@@@__crt_stdio_output@@IAE_NAA_W@Z 1002c6a1 f i libucrt:output.obj
 0001:0002b6c4       ??$extract_argument_from_va_list@_W_W@?$standard_base@_WV?$string_output_adapter@_W@__crt_stdio_output@@@__crt_stdio_output@@IAE_NAA_W@Z 1002c6c4 f i libucrt:output.obj
 0001:0002b6e7       ??$get_parameter_type@D@?$positional_parameter_base@DV?$stream_output_adapter@D@__crt_stdio_output@@@__crt_stdio_output@@CA?AW4parameter_type@01@PAD@Z 1002c6e7 f i libucrt:output.obj
 0001:0002b6eb       ??$get_parameter_type@D@?$positional_parameter_base@DV?$string_output_adapter@D@__crt_stdio_output@@@__crt_stdio_output@@CA?AW4parameter_type@01@PAD@Z 1002c6eb f i libucrt:output.obj
 0001:0002b6ef       ??$get_parameter_type@D@?$positional_parameter_base@_WV?$stream_output_adapter@_W@__crt_stdio_output@@@__crt_stdio_output@@CA?AW4parameter_type@01@PAD@Z 1002c6ef f i libucrt:output.obj
 0001:0002b6f3       ??$get_parameter_type@D@?$positional_parameter_base@_WV?$string_output_adapter@_W@__crt_stdio_output@@@__crt_stdio_output@@CA?AW4parameter_type@01@PAD@Z 1002c6f3 f i libucrt:output.obj
 0001:0002b707       ??$get_parameter_type@X@?$positional_parameter_base@DV?$stream_output_adapter@D@__crt_stdio_output@@@__crt_stdio_output@@CA?AW4parameter_type@01@PAX@Z 1002c707 f i libucrt:output.obj
 0001:0002b70b       ??$get_parameter_type@X@?$positional_parameter_base@DV?$string_output_adapter@D@__crt_stdio_output@@@__crt_stdio_output@@CA?AW4parameter_type@01@PAX@Z 1002c70b f i libucrt:output.obj
 0001:0002b70f       ??$get_parameter_type@X@?$positional_parameter_base@_WV?$stream_output_adapter@_W@__crt_stdio_output@@@__crt_stdio_output@@CA?AW4parameter_type@01@PAX@Z 1002c70f f i libucrt:output.obj
 0001:0002b713       ??$get_parameter_type@X@?$positional_parameter_base@_WV?$string_output_adapter@_W@__crt_stdio_output@@@__crt_stdio_output@@CA?AW4parameter_type@01@PAX@Z 1002c713 f i libucrt:output.obj
 0001:0002b717       ??$is_character_specifier@D@?$positional_parameter_base@DV?$stream_output_adapter@D@__crt_stdio_output@@@__crt_stdio_output@@CA_ND@Z 1002c717 f i libucrt:output.obj
 0001:0002b735       ??$is_character_specifier@D@?$positional_parameter_base@DV?$string_output_adapter@D@__crt_stdio_output@@@__crt_stdio_output@@CA_ND@Z 1002c735 f i libucrt:output.obj
 0001:0002b753       ??$is_character_specifier@_W@?$positional_parameter_base@_WV?$stream_output_adapter@_W@__crt_stdio_output@@@__crt_stdio_output@@CA_N_W@Z 1002c753 f i libucrt:output.obj
 0001:0002b774       ??$is_character_specifier@_W@?$positional_parameter_base@_WV?$string_output_adapter@_W@__crt_stdio_output@@@__crt_stdio_output@@CA_N_W@Z 1002c774 f i libucrt:output.obj
 0001:0002b795       ??$is_integral_specifier@D@?$positional_parameter_base@DV?$stream_output_adapter@D@__crt_stdio_output@@@__crt_stdio_output@@CA_ND@Z 1002c795 f i libucrt:output.obj
 0001:0002b7cc       ??$is_integral_specifier@D@?$positional_parameter_base@DV?$string_output_adapter@D@__crt_stdio_output@@@__crt_stdio_output@@CA_ND@Z 1002c7cc f i libucrt:output.obj
 0001:0002b803       ??$is_integral_specifier@_W@?$positional_parameter_base@_WV?$stream_output_adapter@_W@__crt_stdio_output@@@__crt_stdio_output@@CA_N_W@Z 1002c803 f i libucrt:output.obj
 0001:0002b84c       ??$is_integral_specifier@_W@?$positional_parameter_base@_WV?$string_output_adapter@_W@__crt_stdio_output@@@__crt_stdio_output@@CA_N_W@Z 1002c84c f i libucrt:output.obj
 0001:0002b895       ??$is_pointer_specifier@D@?$positional_parameter_base@DV?$stream_output_adapter@D@__crt_stdio_output@@@__crt_stdio_output@@CA_ND@Z 1002c895 f i libucrt:output.obj
 0001:0002b8a6       ??$is_pointer_specifier@D@?$positional_parameter_base@DV?$string_output_adapter@D@__crt_stdio_output@@@__crt_stdio_output@@CA_ND@Z 1002c8a6 f i libucrt:output.obj
 0001:0002b8b7       ??$is_pointer_specifier@_W@?$positional_parameter_base@_WV?$stream_output_adapter@_W@__crt_stdio_output@@@__crt_stdio_output@@CA_N_W@Z 1002c8b7 f i libucrt:output.obj
 0001:0002b8c9       ??$is_pointer_specifier@_W@?$positional_parameter_base@_WV?$string_output_adapter@_W@__crt_stdio_output@@@__crt_stdio_output@@CA_N_W@Z 1002c8c9 f i libucrt:output.obj
 0001:0002b8db       ??$is_string_specifier@D@?$positional_parameter_base@DV?$stream_output_adapter@D@__crt_stdio_output@@@__crt_stdio_output@@CA_ND@Z 1002c8db f i libucrt:output.obj
 0001:0002b8f9       ??$is_string_specifier@D@?$positional_parameter_base@DV?$string_output_adapter@D@__crt_stdio_output@@@__crt_stdio_output@@CA_ND@Z 1002c8f9 f i libucrt:output.obj
 0001:0002b917       ??$is_string_specifier@_W@?$positional_parameter_base@_WV?$stream_output_adapter@_W@__crt_stdio_output@@@__crt_stdio_output@@CA_N_W@Z 1002c917 f i libucrt:output.obj
 0001:0002b938       ??$is_string_specifier@_W@?$positional_parameter_base@_WV?$string_output_adapter@_W@__crt_stdio_output@@@__crt_stdio_output@@CA_N_W@Z 1002c938 f i libucrt:output.obj
 0001:0002b959       ??$is_wide_character_specifier@D@__crt_stdio_output@@YA_N_KDW4length_modifier@0@@Z 1002c959 f i libucrt:output.obj
 0001:0002b996       ??$is_wide_character_specifier@_W@__crt_stdio_output@@YA_N_K_WW4length_modifier@0@@Z 1002c996 f i libucrt:output.obj
 0001:0002b9f7       ??$peek_va_arg@C@__crt_stdio_output@@YACPAD@Z 1002c9f7 f i libucrt:output.obj
 0001:0002ba06       ??$peek_va_arg@E@__crt_stdio_output@@YAEPAD@Z 1002ca06 f i libucrt:output.obj
 0001:0002ba15       ??$peek_va_arg@F@__crt_stdio_output@@YAFPAD@Z 1002ca15 f i libucrt:output.obj
 0001:0002ba25       ??$peek_va_arg@G@__crt_stdio_output@@YAGPAD@Z 1002ca25 f i libucrt:output.obj
 0001:0002ba35       ??$peek_va_arg@H@__crt_stdio_output@@YAHPAD@Z 1002ca35 f i libucrt:output.obj
 0001:0002ba44       ??$peek_va_arg@I@__crt_stdio_output@@YAIPAD@Z 1002ca44 f i libucrt:output.obj
 0001:0002ba53       ??$peek_va_arg@PAD@__crt_stdio_output@@YAPADPAD@Z 1002ca53 f i libucrt:output.obj
 0001:0002ba9e       ??$peek_va_arg@PAX@__crt_stdio_output@@YAPAXPAD@Z 1002ca9e f i libucrt:output.obj
 0001:0002baad       ??$peek_va_arg@U_CRT_DOUBLE@@@__crt_stdio_output@@YA?AU_CRT_DOUBLE@@PAD@Z 1002caad f i libucrt:output.obj
 0001:0002babf       ??$peek_va_arg@_J@__crt_stdio_output@@YA_JPAD@Z 1002cabf f i libucrt:output.obj
 0001:0002bad1       ??$peek_va_arg@_K@__crt_stdio_output@@YA_KPAD@Z 1002cad1 f i libucrt:output.obj
 0001:0002bae3       ??$peek_va_arg@_W@__crt_stdio_output@@YA_WPAD@Z 1002cae3 f i libucrt:output.obj
 0001:0002baf3       ??$puttc_nolock@ABDPAU_iobuf@@@?$__crt_char_traits@D@@SAHABD$$QAPAU_iobuf@@@Z 1002caf3 f i libucrt:output.obj
 0001:0002bb13       ??$puttc_nolock@AB_WPAU_iobuf@@@?$__crt_char_traits@_W@@SAGAB_W$$QAPAU_iobuf@@@Z 1002cb13 f i libucrt:output.obj
 0001:0002bb33       ??$read_va_arg@C@__crt_stdio_output@@YACAAPAD@Z 1002cb33 f i libucrt:output.obj
 0001:0002bb49       ??$read_va_arg@E@__crt_stdio_output@@YAEAAPAD@Z 1002cb49 f i libucrt:output.obj
 0001:0002bb5f       ??$read_va_arg@F@__crt_stdio_output@@YAFAAPAD@Z 1002cb5f f i libucrt:output.obj
 0001:0002bb76       ??$read_va_arg@G@__crt_stdio_output@@YAGAAPAD@Z 1002cb76 f i libucrt:output.obj
 0001:0002bb8d       ??$read_va_arg@H@__crt_stdio_output@@YAHAAPAD@Z 1002cb8d f i libucrt:output.obj
 0001:0002bba3       ??$read_va_arg@I@__crt_stdio_output@@YAIAAPAD@Z 1002cba3 f i libucrt:output.obj
 0001:0002bbb9       ??$read_va_arg@PAD@__crt_stdio_output@@YAPADAAPAD@Z 1002cbb9 f i libucrt:output.obj
 0001:0002bcd7       ??$read_va_arg@PAX@__crt_stdio_output@@YAPAXAAPAD@Z 1002ccd7 f i libucrt:output.obj
 0001:0002bced       ??$read_va_arg@U_CRT_DOUBLE@@@__crt_stdio_output@@YA?AU_CRT_DOUBLE@@AAPAD@Z 1002cced f i libucrt:output.obj
 0001:0002bd08       ??$read_va_arg@_J@__crt_stdio_output@@YA_JAAPAD@Z 1002cd08 f i libucrt:output.obj
 0001:0002bd22       ??$read_va_arg@_K@__crt_stdio_output@@YA_KAAPAD@Z 1002cd22 f i libucrt:output.obj
 0001:0002bd3c       ??$read_va_arg@_W@__crt_stdio_output@@YA_WAAPAD@Z 1002cd3c f i libucrt:output.obj
 0001:0002bd53       ??$scratch_count@D@formatting_buffer@__crt_stdio_output@@QBEIXZ 1002cd53 f i libucrt:output.obj
 0001:0002bd58       ??$scratch_data@D@formatting_buffer@__crt_stdio_output@@QAEPADXZ 1002cd58 f i libucrt:output.obj
 0001:0002bd7d       ??$tcstol@AAPBDPAPADH@?$__crt_char_traits@D@@SAJAAPBD$$QAPAPAD$$QAH@Z 1002cd7d f i libucrt:output.obj
 0001:0002bda2       ??$tcstol@AAPB_WPAPA_WH@?$__crt_char_traits@_W@@SAJAAPB_W$$QAPAPA_W$$QAH@Z 1002cda2 f i libucrt:output.obj
 0001:0002bdc7       ??$tcstol@PBDPAPADH@?$__crt_char_traits@D@@SAJ$$QAPBD$$QAPAPAD$$QAH@Z 1002cdc7 f i libucrt:output.obj
 0001:0002bdec       ??$tcstol@PB_WPAPA_WH@?$__crt_char_traits@_W@@SAJ$$QAPB_W$$QAPAPA_W$$QAH@Z 1002cdec f i libucrt:output.obj
 0001:0002be11       ??$type_case_integer_parse_into_buffer@I@?$output_processor@DV?$stream_output_adapter@D@__crt_stdio_output@@V?$format_validation_base@DV?$stream_output_adapter@D@__crt_stdio_output@@@2@@__crt_stdio_output@@AAEXII_N@Z 1002ce11 f i libucrt:output.obj
 0001:0002bea0       ??$type_case_integer_parse_into_buffer@I@?$output_processor@DV?$stream_output_adapter@D@__crt_stdio_output@@V?$positional_parameter_base@DV?$stream_output_adapter@D@__crt_stdio_output@@@2@@__crt_stdio_output@@AAEXII_N@Z 1002cea0 f i libucrt:output.obj
 0001:0002bf2f       ??$type_case_integer_parse_into_buffer@I@?$output_processor@DV?$stream_output_adapter@D@__crt_stdio_output@@V?$standard_base@DV?$stream_output_adapter@D@__crt_stdio_output@@@2@@__crt_stdio_output@@AAEXII_N@Z 1002cf2f f i libucrt:output.obj
 0001:0002bfbe       ??$type_case_integer_parse_into_buffer@I@?$output_processor@DV?$string_output_adapter@D@__crt_stdio_output@@V?$format_validation_base@DV?$string_output_adapter@D@__crt_stdio_output@@@2@@__crt_stdio_output@@AAEXII_N@Z 1002cfbe f i libucrt:output.obj
 0001:0002c04d       ??$type_case_integer_parse_into_buffer@I@?$output_processor@DV?$string_output_adapter@D@__crt_stdio_output@@V?$positional_parameter_base@DV?$string_output_adapter@D@__crt_stdio_output@@@2@@__crt_stdio_output@@AAEXII_N@Z 1002d04d f i libucrt:output.obj
 0001:0002c0dc       ??$type_case_integer_parse_into_buffer@I@?$output_processor@DV?$string_output_adapter@D@__crt_stdio_output@@V?$standard_base@DV?$string_output_adapter@D@__crt_stdio_output@@@2@@__crt_stdio_output@@AAEXII_N@Z 1002d0dc f i libucrt:output.obj
 0001:0002c16b       ??$type_case_integer_parse_into_buffer@I@?$output_processor@_WV?$stream_output_adapter@_W@__crt_stdio_output@@V?$format_validation_base@_WV?$stream_output_adapter@_W@__crt_stdio_output@@@2@@__crt_stdio_output@@AAEXII_N@Z 1002d16b f i libucrt:output.obj
 0001:0002c20b       ??$type_case_integer_parse_into_buffer@I@?$output_processor@_WV?$stream_output_adapter@_W@__crt_stdio_output@@V?$positional_parameter_base@_WV?$stream_output_adapter@_W@__crt_stdio_output@@@2@@__crt_stdio_output@@AAEXII_N@Z 1002d20b f i libucrt:output.obj
 0001:0002c2ab       ??$type_case_integer_parse_into_buffer@I@?$output_processor@_WV?$stream_output_adapter@_W@__crt_stdio_output@@V?$standard_base@_WV?$stream_output_adapter@_W@__crt_stdio_output@@@2@@__crt_stdio_output@@AAEXII_N@Z 1002d2ab f i libucrt:output.obj
 0001:0002c34b       ??$type_case_integer_parse_into_buffer@I@?$output_processor@_WV?$string_output_adapter@_W@__crt_stdio_output@@V?$format_validation_base@_WV?$string_output_adapter@_W@__crt_stdio_output@@@2@@__crt_stdio_output@@AAEXII_N@Z 1002d34b f i libucrt:output.obj
 0001:0002c3eb       ??$type_case_integer_parse_into_buffer@I@?$output_processor@_WV?$string_output_adapter@_W@__crt_stdio_output@@V?$positional_parameter_base@_WV?$string_output_adapter@_W@__crt_stdio_output@@@2@@__crt_stdio_output@@AAEXII_N@Z 1002d3eb f i libucrt:output.obj
 0001:0002c48b       ??$type_case_integer_parse_into_buffer@I@?$output_processor@_WV?$string_output_adapter@_W@__crt_stdio_output@@V?$standard_base@_WV?$string_output_adapter@_W@__crt_stdio_output@@@2@@__crt_stdio_output@@AAEXII_N@Z 1002d48b f i libucrt:output.obj
 0001:0002c52b       ??$type_case_integer_parse_into_buffer@_K@?$output_processor@DV?$stream_output_adapter@D@__crt_stdio_output@@V?$format_validation_base@DV?$stream_output_adapter@D@__crt_stdio_output@@@2@@__crt_stdio_output@@AAEX_KI_N@Z 1002d52b f i libucrt:output.obj
 0001:0002c5dd       ??$type_case_integer_parse_into_buffer@_K@?$output_processor@DV?$stream_output_adapter@D@__crt_stdio_output@@V?$positional_parameter_base@DV?$stream_output_adapter@D@__crt_stdio_output@@@2@@__crt_stdio_output@@AAEX_KI_N@Z 1002d5dd f i libucrt:output.obj
 0001:0002c68f       ??$type_case_integer_parse_into_buffer@_K@?$output_processor@DV?$stream_output_adapter@D@__crt_stdio_output@@V?$standard_base@DV?$stream_output_adapter@D@__crt_stdio_output@@@2@@__crt_stdio_output@@AAEX_KI_N@Z 1002d68f f i libucrt:output.obj
 0001:0002c741       ??$type_case_integer_parse_into_buffer@_K@?$output_processor@DV?$string_output_adapter@D@__crt_stdio_output@@V?$format_validation_base@DV?$string_output_adapter@D@__crt_stdio_output@@@2@@__crt_stdio_output@@AAEX_KI_N@Z 1002d741 f i libucrt:output.obj
 0001:0002c7f3       ??$type_case_integer_parse_into_buffer@_K@?$output_processor@DV?$string_output_adapter@D@__crt_stdio_output@@V?$positional_parameter_base@DV?$string_output_adapter@D@__crt_stdio_output@@@2@@__crt_stdio_output@@AAEX_KI_N@Z 1002d7f3 f i libucrt:output.obj
 0001:0002c8a5       ??$type_case_integer_parse_into_buffer@_K@?$output_processor@DV?$string_output_adapter@D@__crt_stdio_output@@V?$standard_base@DV?$string_output_adapter@D@__crt_stdio_output@@@2@@__crt_stdio_output@@AAEX_KI_N@Z 1002d8a5 f i libucrt:output.obj
 0001:0002c957       ??$type_case_integer_parse_into_buffer@_K@?$output_processor@_WV?$stream_output_adapter@_W@__crt_stdio_output@@V?$format_validation_base@_WV?$stream_output_adapter@_W@__crt_stdio_output@@@2@@__crt_stdio_output@@AAEX_KI_N@Z 1002d957 f i libucrt:output.obj
 0001:0002ca1a       ??$type_case_integer_parse_into_buffer@_K@?$output_processor@_WV?$stream_output_adapter@_W@__crt_stdio_output@@V?$positional_parameter_base@_WV?$stream_output_adapter@_W@__crt_stdio_output@@@2@@__crt_stdio_output@@AAEX_KI_N@Z 1002da1a f i libucrt:output.obj
 0001:0002cadd       ??$type_case_integer_parse_into_buffer@_K@?$output_processor@_WV?$stream_output_adapter@_W@__crt_stdio_output@@V?$standard_base@_WV?$stream_output_adapter@_W@__crt_stdio_output@@@2@@__crt_stdio_output@@AAEX_KI_N@Z 1002dadd f i libucrt:output.obj
 0001:0002cba0       ??$type_case_integer_parse_into_buffer@_K@?$output_processor@_WV?$string_output_adapter@_W@__crt_stdio_output@@V?$format_validation_base@_WV?$string_output_adapter@_W@__crt_stdio_output@@@2@@__crt_stdio_output@@AAEX_KI_N@Z 1002dba0 f i libucrt:output.obj
 0001:0002cc63       ??$type_case_integer_parse_into_buffer@_K@?$output_processor@_WV?$string_output_adapter@_W@__crt_stdio_output@@V?$positional_parameter_base@_WV?$string_output_adapter@_W@__crt_stdio_output@@@2@@__crt_stdio_output@@AAEX_KI_N@Z 1002dc63 f i libucrt:output.obj
 0001:0002cd26       ??$type_case_integer_parse_into_buffer@_K@?$output_processor@_WV?$string_output_adapter@_W@__crt_stdio_output@@V?$standard_base@_WV?$string_output_adapter@_W@__crt_stdio_output@@@2@@__crt_stdio_output@@AAEX_KI_N@Z 1002dd26 f i libucrt:output.obj
 0001:0002cde9       ??$write_multiple_characters@V?$stream_output_adapter@D@__crt_stdio_output@@D@__crt_stdio_output@@YAXABV?$stream_output_adapter@D@0@DHQAH@Z 1002dde9 f i libucrt:output.obj
 0001:0002ce32       ??$write_multiple_characters@V?$stream_output_adapter@_W@__crt_stdio_output@@D@__crt_stdio_output@@YAXABV?$stream_output_adapter@_W@0@DHQAH@Z 1002de32 f i libucrt:output.obj
 0001:0002ce82       ??$write_multiple_characters@V?$string_output_adapter@D@__crt_stdio_output@@D@__crt_stdio_output@@YAXABV?$string_output_adapter@D@0@DHQAH@Z 1002de82 f i libucrt:output.obj
 0001:0002ceb9       ??$write_multiple_characters@V?$string_output_adapter@_W@__crt_stdio_output@@D@__crt_stdio_output@@YAXABV?$string_output_adapter@_W@0@DHQAH@Z 1002deb9 f i libucrt:output.obj
 0001:0002d12a       ??0?$common_data@D@__crt_stdio_output@@IAE@XZ 1002e12a f i libucrt:output.obj
 0001:0002d182       ??0?$common_data@_W@__crt_stdio_output@@IAE@XZ 1002e182 f i libucrt:output.obj
 0001:0002d1e1       ??0?$output_adapter_data@DV?$stream_output_adapter@D@__crt_stdio_output@@@__crt_stdio_output@@IAE@ABV?$stream_output_adapter@D@1@_KQBDQAU__crt_locale_pointers@@QAD@Z 1002e1e1 f i libucrt:output.obj
 0001:0002d22c       ??0?$output_adapter_data@DV?$string_output_adapter@D@__crt_stdio_output@@@__crt_stdio_output@@IAE@ABV?$string_output_adapter@D@1@_KQBDQAU__crt_locale_pointers@@QAD@Z 1002e22c f i libucrt:output.obj
 0001:0002d277       ??0?$output_adapter_data@_WV?$stream_output_adapter@_W@__crt_stdio_output@@@__crt_stdio_output@@IAE@ABV?$stream_output_adapter@_W@1@_KQB_WQAU__crt_locale_pointers@@QAD@Z 1002e277 f i libucrt:output.obj
 0001:0002d2c2       ??0?$output_adapter_data@_WV?$string_output_adapter@_W@__crt_stdio_output@@@__crt_stdio_output@@IAE@ABV?$string_output_adapter@_W@1@_KQB_WQAU__crt_locale_pointers@@QAD@Z 1002e2c2 f i libucrt:output.obj
 0001:0002d30d       ??0?$output_processor@DV?$stream_output_adapter@D@__crt_stdio_output@@V?$format_validation_base@DV?$stream_output_adapter@D@__crt_stdio_output@@@2@@__crt_stdio_output@@QAE@ABV?$stream_output_adapter@D@1@_KQBDQAU__crt_locale_pointers@@QAD@Z 1002e30d f i libucrt:output.obj
 0001:0002d345       ??0?$output_processor@DV?$stream_output_adapter@D@__crt_stdio_output@@V?$positional_parameter_base@DV?$stream_output_adapter@D@__crt_stdio_output@@@2@@__crt_stdio_output@@QAE@ABV?$stream_output_adapter@D@1@_KQBDQAU__crt_locale_pointers@@QAD@Z 1002e345 f i libucrt:output.obj
 0001:0002d375       ??0?$output_processor@DV?$stream_output_adapter@D@__crt_stdio_output@@V?$standard_base@DV?$stream_output_adapter@D@__crt_stdio_output@@@2@@__crt_stdio_output@@QAE@ABV?$stream_output_adapter@D@1@_KQBDQAU__crt_locale_pointers@@QAD@Z 1002e375 f i libucrt:output.obj
 0001:0002d3ad       ??0?$output_processor@DV?$string_output_adapter@D@__crt_stdio_output@@V?$format_validation_base@DV?$string_output_adapter@D@__crt_stdio_output@@@2@@__crt_stdio_output@@QAE@ABV?$string_output_adapter@D@1@_KQBDQAU__crt_locale_pointers@@QAD@Z 1002e3ad f i libucrt:output.obj
 0001:0002d3e5       ??0?$output_processor@DV?$string_output_adapter@D@__crt_stdio_output@@V?$positional_parameter_base@DV?$string_output_adapter@D@__crt_stdio_output@@@2@@__crt_stdio_output@@QAE@ABV?$string_output_adapter@D@1@_KQBDQAU__crt_locale_pointers@@QAD@Z 1002e3e5 f i libucrt:output.obj
 0001:0002d415       ??0?$output_processor@DV?$string_output_adapter@D@__crt_stdio_output@@V?$standard_base@DV?$string_output_adapter@D@__crt_stdio_output@@@2@@__crt_stdio_output@@QAE@ABV?$string_output_adapter@D@1@_KQBDQAU__crt_locale_pointers@@QAD@Z 1002e415 f i libucrt:output.obj
 0001:0002d44d       ??0?$output_processor@_WV?$stream_output_adapter@_W@__crt_stdio_output@@V?$format_validation_base@_WV?$stream_output_adapter@_W@__crt_stdio_output@@@2@@__crt_stdio_output@@QAE@ABV?$stream_output_adapter@_W@1@_KQB_WQAU__crt_locale_pointers@@QAD@Z 1002e44d f i libucrt:output.obj
 0001:0002d485       ??0?$output_processor@_WV?$stream_output_adapter@_W@__crt_stdio_output@@V?$positional_parameter_base@_WV?$stream_output_adapter@_W@__crt_stdio_output@@@2@@__crt_stdio_output@@QAE@ABV?$stream_output_adapter@_W@1@_KQB_WQAU__crt_locale_pointers@@QAD@Z 1002e485 f i libucrt:output.obj
 0001:0002d4b5       ??0?$output_processor@_WV?$stream_output_adapter@_W@__crt_stdio_output@@V?$standard_base@_WV?$stream_output_adapter@_W@__crt_stdio_output@@@2@@__crt_stdio_output@@QAE@ABV?$stream_output_adapter@_W@1@_KQB_WQAU__crt_locale_pointers@@QAD@Z 1002e4b5 f i libucrt:output.obj
 0001:0002d4ed       ??0?$output_processor@_WV?$string_output_adapter@_W@__crt_stdio_output@@V?$format_validation_base@_WV?$string_output_adapter@_W@__crt_stdio_output@@@2@@__crt_stdio_output@@QAE@ABV?$string_output_adapter@_W@1@_KQB_WQAU__crt_locale_pointers@@QAD@Z 1002e4ed f i libucrt:output.obj
 0001:0002d525       ??0?$output_processor@_WV?$string_output_adapter@_W@__crt_stdio_output@@V?$positional_parameter_base@_WV?$string_output_adapter@_W@__crt_stdio_output@@@2@@__crt_stdio_output@@QAE@ABV?$string_output_adapter@_W@1@_KQB_WQAU__crt_locale_pointers@@QAD@Z 1002e525 f i libucrt:output.obj
 0001:0002d555       ??0?$output_processor@_WV?$string_output_adapter@_W@__crt_stdio_output@@V?$standard_base@_WV?$string_output_adapter@_W@__crt_stdio_output@@@2@@__crt_stdio_output@@QAE@ABV?$string_output_adapter@_W@1@_KQB_WQAU__crt_locale_pointers@@QAD@Z 1002e555 f i libucrt:output.obj
 0001:0002d58d       ??0?$stream_output_adapter@D@__crt_stdio_output@@QAE@QAU_iobuf@@@Z 1002e58d f i libucrt:output.obj
 0001:0002d5a1       ??0?$stream_output_adapter@_W@__crt_stdio_output@@QAE@QAU_iobuf@@@Z 1002e5a1 f i libucrt:output.obj
 0001:0002d5b5       ??0?$string_output_adapter@D@__crt_stdio_output@@QAE@QAU?$string_output_adapter_context@D@1@@Z 1002e5b5 f i libucrt:output.obj
 0001:0002d5c9       ??0?$string_output_adapter@_W@__crt_stdio_output@@QAE@QAU?$string_output_adapter_context@_W@1@@Z 1002e5c9 f i libucrt:output.obj
 0001:0002d5dd       ??0__crt_deferred_errno_cache@@QAE@XZ 1002e5dd f i libucrt:output.obj
 0001:0002d5e3       ??0__crt_errno_guard@@QAE@QAH@Z 1002e5e3 f i libucrt:output.obj
 0001:0002d601       ??0formatting_buffer@__crt_stdio_output@@QAE@XZ 1002e601 f i libucrt:output.obj
 0001:0002d616       ??1?$common_data@D@__crt_stdio_output@@QAE@XZ 1002e616 f i libucrt:output.obj
 0001:0002d620       ??1?$common_data@_W@__crt_stdio_output@@QAE@XZ 1002e620 f i libucrt:output.obj
 0001:0002d62a       ??1?$format_validation_base@DV?$stream_output_adapter@D@__crt_stdio_output@@@__crt_stdio_output@@QAE@XZ 1002e62a f i libucrt:output.obj
 0001:0002d634       ??1?$format_validation_base@DV?$string_output_adapter@D@__crt_stdio_output@@@__crt_stdio_output@@QAE@XZ 1002e634 f i libucrt:output.obj
 0001:0002d63e       ??1?$format_validation_base@_WV?$stream_output_adapter@_W@__crt_stdio_output@@@__crt_stdio_output@@QAE@XZ 1002e63e f i libucrt:output.obj
 0001:0002d648       ??1?$format_validation_base@_WV?$string_output_adapter@_W@__crt_stdio_output@@@__crt_stdio_output@@QAE@XZ 1002e648 f i libucrt:output.obj
 0001:0002d652       ??1?$output_adapter_data@DV?$stream_output_adapter@D@__crt_stdio_output@@@__crt_stdio_output@@QAE@XZ 1002e652 f i libucrt:output.obj
 0001:0002d65c       ??1?$output_adapter_data@DV?$string_output_adapter@D@__crt_stdio_output@@@__crt_stdio_output@@QAE@XZ 1002e65c f i libucrt:output.obj
 0001:0002d666       ??1?$output_adapter_data@_WV?$stream_output_adapter@_W@__crt_stdio_output@@@__crt_stdio_output@@QAE@XZ 1002e666 f i libucrt:output.obj
 0001:0002d670       ??1?$output_adapter_data@_WV?$string_output_adapter@_W@__crt_stdio_output@@@__crt_stdio_output@@QAE@XZ 1002e670 f i libucrt:output.obj
 0001:0002d67a       ??1?$output_processor@DV?$stream_output_adapter@D@__crt_stdio_output@@V?$format_validation_base@DV?$stream_output_adapter@D@__crt_stdio_output@@@2@@__crt_stdio_output@@QAE@XZ 1002e67a f i libucrt:output.obj
 0001:0002d684       ??1?$output_processor@DV?$stream_output_adapter@D@__crt_stdio_output@@V?$positional_parameter_base@DV?$stream_output_adapter@D@__crt_stdio_output@@@2@@__crt_stdio_output@@QAE@XZ 1002e684 f i libucrt:output.obj
 0001:0002d68e       ??1?$output_processor@DV?$stream_output_adapter@D@__crt_stdio_output@@V?$standard_base@DV?$stream_output_adapter@D@__crt_stdio_output@@@2@@__crt_stdio_output@@QAE@XZ 1002e68e f i libucrt:output.obj
 0001:0002d698       ??1?$output_processor@DV?$string_output_adapter@D@__crt_stdio_output@@V?$format_validation_base@DV?$string_output_adapter@D@__crt_stdio_output@@@2@@__crt_stdio_output@@QAE@XZ 1002e698 f i libucrt:output.obj
 0001:0002d6a2       ??1?$output_processor@DV?$string_output_adapter@D@__crt_stdio_output@@V?$positional_parameter_base@DV?$string_output_adapter@D@__crt_stdio_output@@@2@@__crt_stdio_output@@QAE@XZ 1002e6a2 f i libucrt:output.obj
 0001:0002d6ac       ??1?$output_processor@DV?$string_output_adapter@D@__crt_stdio_output@@V?$standard_base@DV?$string_output_adapter@D@__crt_stdio_output@@@2@@__crt_stdio_output@@QAE@XZ 1002e6ac f i libucrt:output.obj
 0001:0002d6b6       ??1?$output_processor@_WV?$stream_output_adapter@_W@__crt_stdio_output@@V?$format_validation_base@_WV?$stream_output_adapter@_W@__crt_stdio_output@@@2@@__crt_stdio_output@@QAE@XZ 1002e6b6 f i libucrt:output.obj
 0001:0002d6c0       ??1?$output_processor@_WV?$stream_output_adapter@_W@__crt_stdio_output@@V?$positional_parameter_base@_WV?$stream_output_adapter@_W@__crt_stdio_output@@@2@@__crt_stdio_output@@QAE@XZ 1002e6c0 f i libucrt:output.obj
 0001:0002d6ca       ??1?$output_processor@_WV?$stream_output_adapter@_W@__crt_stdio_output@@V?$standard_base@_WV?$stream_output_adapter@_W@__crt_stdio_output@@@2@@__crt_stdio_output@@QAE@XZ 1002e6ca f i libucrt:output.obj
 0001:0002d6d4       ??1?$output_processor@_WV?$string_output_adapter@_W@__crt_stdio_output@@V?$format_validation_base@_WV?$string_output_adapter@_W@__crt_stdio_output@@@2@@__crt_stdio_output@@QAE@XZ 1002e6d4 f i libucrt:output.obj
 0001:0002d6de       ??1?$output_processor@_WV?$string_output_adapter@_W@__crt_stdio_output@@V?$positional_parameter_base@_WV?$string_output_adapter@_W@__crt_stdio_output@@@2@@__crt_stdio_output@@QAE@XZ 1002e6de f i libucrt:output.obj
 0001:0002d6e8       ??1?$output_processor@_WV?$string_output_adapter@_W@__crt_stdio_output@@V?$standard_base@_WV?$string_output_adapter@_W@__crt_stdio_output@@@2@@__crt_stdio_output@@QAE@XZ 1002e6e8 f i libucrt:output.obj
 0001:0002d6f2       ??1?$positional_parameter_base@DV?$stream_output_adapter@D@__crt_stdio_output@@@__crt_stdio_output@@QAE@XZ 1002e6f2 f i libucrt:output.obj
 0001:0002d6fc       ??1?$positional_parameter_base@DV?$string_output_adapter@D@__crt_stdio_output@@@__crt_stdio_output@@QAE@XZ 1002e6fc f i libucrt:output.obj
 0001:0002d706       ??1?$positional_parameter_base@_WV?$stream_output_adapter@_W@__crt_stdio_output@@@__crt_stdio_output@@QAE@XZ 1002e706 f i libucrt:output.obj
 0001:0002d710       ??1?$positional_parameter_base@_WV?$string_output_adapter@_W@__crt_stdio_output@@@__crt_stdio_output@@QAE@XZ 1002e710 f i libucrt:output.obj
 0001:0002d71a       ??1?$standard_base@DV?$stream_output_adapter@D@__crt_stdio_output@@@__crt_stdio_output@@QAE@XZ 1002e71a f i libucrt:output.obj
 0001:0002d724       ??1?$standard_base@DV?$string_output_adapter@D@__crt_stdio_output@@@__crt_stdio_output@@QAE@XZ 1002e724 f i libucrt:output.obj
 0001:0002d72e       ??1?$standard_base@_WV?$stream_output_adapter@_W@__crt_stdio_output@@@__crt_stdio_output@@QAE@XZ 1002e72e f i libucrt:output.obj
 0001:0002d738       ??1?$standard_base@_WV?$string_output_adapter@_W@__crt_stdio_output@@@__crt_stdio_output@@QAE@XZ 1002e738 f i libucrt:output.obj
 0001:0002d742       ??1__crt_errno_guard@@QAE@XZ 1002e742 f i libucrt:output.obj
 0001:0002d757       ??1formatting_buffer@__crt_stdio_output@@QAE@XZ 1002e757 f i libucrt:output.obj
 0001:0002d777       ??4?$__crt_unique_heap_ptr@DU__crt_internal_free_policy@@@@QAEAAV0@$$QAV0@@Z 1002e777 f i libucrt:output.obj
 0001:0002de52       ?adjust_hexit@?$output_processor@DV?$stream_output_adapter@D@__crt_stdio_output@@V?$format_validation_base@DV?$stream_output_adapter@D@__crt_stdio_output@@@2@@__crt_stdio_output@@CADH_N@Z 1002ee52 f i libucrt:output.obj
 0001:0002de6b       ?adjust_hexit@?$output_processor@DV?$stream_output_adapter@D@__crt_stdio_output@@V?$positional_parameter_base@DV?$stream_output_adapter@D@__crt_stdio_output@@@2@@__crt_stdio_output@@CADH_N@Z 1002ee6b f i libucrt:output.obj
 0001:0002de84       ?adjust_hexit@?$output_processor@DV?$stream_output_adapter@D@__crt_stdio_output@@V?$standard_base@DV?$stream_output_adapter@D@__crt_stdio_output@@@2@@__crt_stdio_output@@CADH_N@Z 1002ee84 f i libucrt:output.obj
 0001:0002de9d       ?adjust_hexit@?$output_processor@DV?$string_output_adapter@D@__crt_stdio_output@@V?$format_validation_base@DV?$string_output_adapter@D@__crt_stdio_output@@@2@@__crt_stdio_output@@CADH_N@Z 1002ee9d f i libucrt:output.obj
 0001:0002deb6       ?adjust_hexit@?$output_processor@DV?$string_output_adapter@D@__crt_stdio_output@@V?$positional_parameter_base@DV?$string_output_adapter@D@__crt_stdio_output@@@2@@__crt_stdio_output@@CADH_N@Z 1002eeb6 f i libucrt:output.obj
 0001:0002decf       ?adjust_hexit@?$output_processor@DV?$string_output_adapter@D@__crt_stdio_output@@V?$standard_base@DV?$string_output_adapter@D@__crt_stdio_output@@@2@@__crt_stdio_output@@CADH_N@Z 1002eecf f i libucrt:output.obj
 0001:0002dee8       ?adjust_hexit@?$output_processor@_WV?$stream_output_adapter@_W@__crt_stdio_output@@V?$format_validation_base@_WV?$stream_output_adapter@_W@__crt_stdio_output@@@2@@__crt_stdio_output@@CADH_N@Z 1002eee8 f i libucrt:output.obj
 0001:0002df01       ?adjust_hexit@?$output_processor@_WV?$stream_output_adapter@_W@__crt_stdio_output@@V?$positional_parameter_base@_WV?$stream_output_adapter@_W@__crt_stdio_output@@@2@@__crt_stdio_output@@CADH_N@Z 1002ef01 f i libucrt:output.obj
 0001:0002df1a       ?adjust_hexit@?$output_processor@_WV?$stream_output_adapter@_W@__crt_stdio_output@@V?$standard_base@_WV?$stream_output_adapter@_W@__crt_stdio_output@@@2@@__crt_stdio_output@@CADH_N@Z 1002ef1a f i libucrt:output.obj
 0001:0002df33       ?adjust_hexit@?$output_processor@_WV?$string_output_adapter@_W@__crt_stdio_output@@V?$format_validation_base@_WV?$string_output_adapter@_W@__crt_stdio_output@@@2@@__crt_stdio_output@@CADH_N@Z 1002ef33 f i libucrt:output.obj
 0001:0002df4c       ?adjust_hexit@?$output_processor@_WV?$string_output_adapter@_W@__crt_stdio_output@@V?$positional_parameter_base@_WV?$string_output_adapter@_W@__crt_stdio_output@@@2@@__crt_stdio_output@@CADH_N@Z 1002ef4c f i libucrt:output.obj
 0001:0002df65       ?adjust_hexit@?$output_processor@_WV?$string_output_adapter@_W@__crt_stdio_output@@V?$standard_base@_WV?$string_output_adapter@_W@__crt_stdio_output@@@2@@__crt_stdio_output@@CADH_N@Z 1002ef65 f i libucrt:output.obj
 0001:0002df7e       ?advance_to_next_pass@?$positional_parameter_base@DV?$stream_output_adapter@D@__crt_stdio_output@@@__crt_stdio_output@@IAE_NXZ 1002ef7e f i libucrt:output.obj
 0001:0002dfdd       ?advance_to_next_pass@?$positional_parameter_base@DV?$string_output_adapter@D@__crt_stdio_output@@@__crt_stdio_output@@IAE_NXZ 1002efdd f i libucrt:output.obj
 0001:0002e03c       ?advance_to_next_pass@?$positional_parameter_base@_WV?$stream_output_adapter@_W@__crt_stdio_output@@@__crt_stdio_output@@IAE_NXZ 1002f03c f i libucrt:output.obj
 0001:0002e09b       ?advance_to_next_pass@?$positional_parameter_base@_WV?$string_output_adapter@_W@__crt_stdio_output@@@__crt_stdio_output@@IAE_NXZ 1002f09b f i libucrt:output.obj
 0001:0002e0fa       ?advance_to_next_pass@?$standard_base@DV?$stream_output_adapter@D@__crt_stdio_output@@@__crt_stdio_output@@IAE_NXZ 1002f0fa f i libucrt:output.obj
 0001:0002e10f       ?advance_to_next_pass@?$standard_base@DV?$string_output_adapter@D@__crt_stdio_output@@@__crt_stdio_output@@IAE_NXZ 1002f10f f i libucrt:output.obj
 0001:0002e124       ?advance_to_next_pass@?$standard_base@_WV?$stream_output_adapter@_W@__crt_stdio_output@@@__crt_stdio_output@@IAE_NXZ 1002f124 f i libucrt:output.obj
 0001:0002e139       ?advance_to_next_pass@?$standard_base@_WV?$string_output_adapter@_W@__crt_stdio_output@@@__crt_stdio_output@@IAE_NXZ 1002f139 f i libucrt:output.obj
 0001:0002e14e       ?crop_zeroes@__crt_stdio_output@@YAXPADQAU__crt_locale_pointers@@@Z 1002f14e f i libucrt:output.obj
 0001:0002e1c6       ?find_next_state@?$output_processor@DV?$stream_output_adapter@D@__crt_stdio_output@@V?$format_validation_base@DV?$stream_output_adapter@D@__crt_stdio_output@@@2@@__crt_stdio_output@@ABE?AW4state@2@DW432@@Z 1002f1c6 f i libucrt:output.obj
 0001:0002e218       ?find_next_state@?$output_processor@DV?$stream_output_adapter@D@__crt_stdio_output@@V?$positional_parameter_base@DV?$stream_output_adapter@D@__crt_stdio_output@@@2@@__crt_stdio_output@@ABE?AW4state@2@DW432@@Z 1002f218 f i libucrt:output.obj
 0001:0002e26a       ?find_next_state@?$output_processor@DV?$stream_output_adapter@D@__crt_stdio_output@@V?$standard_base@DV?$stream_output_adapter@D@__crt_stdio_output@@@2@@__crt_stdio_output@@ABE?AW4state@2@DW432@@Z 1002f26a f i libucrt:output.obj
 0001:0002e2b8       ?find_next_state@?$output_processor@DV?$string_output_adapter@D@__crt_stdio_output@@V?$format_validation_base@DV?$string_output_adapter@D@__crt_stdio_output@@@2@@__crt_stdio_output@@ABE?AW4state@2@DW432@@Z 1002f2b8 f i libucrt:output.obj
 0001:0002e30a       ?find_next_state@?$output_processor@DV?$string_output_adapter@D@__crt_stdio_output@@V?$positional_parameter_base@DV?$string_output_adapter@D@__crt_stdio_output@@@2@@__crt_stdio_output@@ABE?AW4state@2@DW432@@Z 1002f30a f i libucrt:output.obj
 0001:0002e35c       ?find_next_state@?$output_processor@DV?$string_output_adapter@D@__crt_stdio_output@@V?$standard_base@DV?$string_output_adapter@D@__crt_stdio_output@@@2@@__crt_stdio_output@@ABE?AW4state@2@DW432@@Z 1002f35c f i libucrt:output.obj
 0001:0002e3aa       ?find_next_state@?$output_processor@_WV?$stream_output_adapter@_W@__crt_stdio_output@@V?$format_validation_base@_WV?$stream_output_adapter@_W@__crt_stdio_output@@@2@@__crt_stdio_output@@ABE?AW4state@2@_WW432@@Z 1002f3aa f i libucrt:output.obj
 0001:0002e3ff       ?find_next_state@?$output_processor@_WV?$stream_output_adapter@_W@__crt_stdio_output@@V?$positional_parameter_base@_WV?$stream_output_adapter@_W@__crt_stdio_output@@@2@@__crt_stdio_output@@ABE?AW4state@2@_WW432@@Z 1002f3ff f i libucrt:output.obj
 0001:0002e454       ?find_next_state@?$output_processor@_WV?$stream_output_adapter@_W@__crt_stdio_output@@V?$standard_base@_WV?$stream_output_adapter@_W@__crt_stdio_output@@@2@@__crt_stdio_output@@ABE?AW4state@2@_WW432@@Z 1002f454 f i libucrt:output.obj
 0001:0002e4a5       ?find_next_state@?$output_processor@_WV?$string_output_adapter@_W@__crt_stdio_output@@V?$format_validation_base@_WV?$string_output_adapter@_W@__crt_stdio_output@@@2@@__crt_stdio_output@@ABE?AW4state@2@_WW432@@Z 1002f4a5 f i libucrt:output.obj
 0001:0002e4fa       ?find_next_state@?$output_processor@_WV?$string_output_adapter@_W@__crt_stdio_output@@V?$positional_parameter_base@_WV?$string_output_adapter@_W@__crt_stdio_output@@@2@@__crt_stdio_output@@ABE?AW4state@2@_WW432@@Z 1002f4fa f i libucrt:output.obj
 0001:0002e54f       ?find_next_state@?$output_processor@_WV?$string_output_adapter@_W@__crt_stdio_output@@V?$standard_base@_WV?$string_output_adapter@_W@__crt_stdio_output@@@2@@__crt_stdio_output@@ABE?AW4state@2@_WW432@@Z 1002f54f f i libucrt:output.obj
 0001:0002e5a0       ?force_decimal_point@__crt_stdio_output@@YAXPADQAU__crt_locale_pointers@@@Z 1002f5a0 f i libucrt:output.obj
 0001:0002e613       ?get@__crt_deferred_errno_cache@@QAEAAHXZ 1002f613 f i libucrt:output.obj
 0001:0002e62c       ?get_parameter_type@?$positional_parameter_base@DV?$stream_output_adapter@D@__crt_stdio_output@@@__crt_stdio_output@@CA?AW4parameter_type@12@F@Z 1002f62c f i libucrt:output.obj
 0001:0002e630       ?get_parameter_type@?$positional_parameter_base@DV?$stream_output_adapter@D@__crt_stdio_output@@@__crt_stdio_output@@CA?AW4parameter_type@12@G@Z 1002f630 f i libucrt:output.obj
 0001:0002e634       ?get_parameter_type@?$positional_parameter_base@DV?$stream_output_adapter@D@__crt_stdio_output@@@__crt_stdio_output@@CA?AW4parameter_type@12@H@Z 1002f634 f i libucrt:output.obj
 0001:0002e638       ?get_parameter_type@?$positional_parameter_base@DV?$stream_output_adapter@D@__crt_stdio_output@@@__crt_stdio_output@@CA?AW4parameter_type@12@I@Z 1002f638 f i libucrt:output.obj
 0001:0002e63c       ?get_parameter_type@?$positional_parameter_base@DV?$stream_output_adapter@D@__crt_stdio_output@@@__crt_stdio_output@@CA?AW4parameter_type@12@U_CRT_DOUBLE@@@Z 1002f63c f i libucrt:output.obj
 0001:0002e640       ?get_parameter_type@?$positional_parameter_base@DV?$stream_output_adapter@D@__crt_stdio_output@@@__crt_stdio_output@@CA?AW4parameter_type@12@_J@Z 1002f640 f i libucrt:output.obj
 0001:0002e644       ?get_parameter_type@?$positional_parameter_base@DV?$stream_output_adapter@D@__crt_stdio_output@@@__crt_stdio_output@@CA?AW4parameter_type@12@_K@Z 1002f644 f i libucrt:output.obj
 0001:0002e648       ?get_parameter_type@?$positional_parameter_base@DV?$stream_output_adapter@D@__crt_stdio_output@@@__crt_stdio_output@@CA?AW4parameter_type@12@_W@Z 1002f648 f i libucrt:output.obj
 0001:0002e64c       ?get_parameter_type@?$positional_parameter_base@DV?$string_output_adapter@D@__crt_stdio_output@@@__crt_stdio_output@@CA?AW4parameter_type@12@F@Z 1002f64c f i libucrt:output.obj
 0001:0002e650       ?get_parameter_type@?$positional_parameter_base@DV?$string_output_adapter@D@__crt_stdio_output@@@__crt_stdio_output@@CA?AW4parameter_type@12@G@Z 1002f650 f i libucrt:output.obj
 0001:0002e654       ?get_parameter_type@?$positional_parameter_base@DV?$string_output_adapter@D@__crt_stdio_output@@@__crt_stdio_output@@CA?AW4parameter_type@12@H@Z 1002f654 f i libucrt:output.obj
 0001:0002e658       ?get_parameter_type@?$positional_parameter_base@DV?$string_output_adapter@D@__crt_stdio_output@@@__crt_stdio_output@@CA?AW4parameter_type@12@I@Z 1002f658 f i libucrt:output.obj
 0001:0002e65c       ?get_parameter_type@?$positional_parameter_base@DV?$string_output_adapter@D@__crt_stdio_output@@@__crt_stdio_output@@CA?AW4parameter_type@12@U_CRT_DOUBLE@@@Z 1002f65c f i libucrt:output.obj
 0001:0002e660       ?get_parameter_type@?$positional_parameter_base@DV?$string_output_adapter@D@__crt_stdio_output@@@__crt_stdio_output@@CA?AW4parameter_type@12@_J@Z 1002f660 f i libucrt:output.obj
 0001:0002e664       ?get_parameter_type@?$positional_parameter_base@DV?$string_output_adapter@D@__crt_stdio_output@@@__crt_stdio_output@@CA?AW4parameter_type@12@_K@Z 1002f664 f i libucrt:output.obj
 0001:0002e668       ?get_parameter_type@?$positional_parameter_base@DV?$string_output_adapter@D@__crt_stdio_output@@@__crt_stdio_output@@CA?AW4parameter_type@12@_W@Z 1002f668 f i libucrt:output.obj
 0001:0002e66c       ?get_parameter_type@?$positional_parameter_base@_WV?$stream_output_adapter@_W@__crt_stdio_output@@@__crt_stdio_output@@CA?AW4parameter_type@12@F@Z 1002f66c f i libucrt:output.obj
 0001:0002e670       ?get_parameter_type@?$positional_parameter_base@_WV?$stream_output_adapter@_W@__crt_stdio_output@@@__crt_stdio_output@@CA?AW4parameter_type@12@G@Z 1002f670 f i libucrt:output.obj
 0001:0002e674       ?get_parameter_type@?$positional_parameter_base@_WV?$stream_output_adapter@_W@__crt_stdio_output@@@__crt_stdio_output@@CA?AW4parameter_type@12@H@Z 1002f674 f i libucrt:output.obj
 0001:0002e678       ?get_parameter_type@?$positional_parameter_base@_WV?$stream_output_adapter@_W@__crt_stdio_output@@@__crt_stdio_output@@CA?AW4parameter_type@12@I@Z 1002f678 f i libucrt:output.obj
 0001:0002e67c       ?get_parameter_type@?$positional_parameter_base@_WV?$stream_output_adapter@_W@__crt_stdio_output@@@__crt_stdio_output@@CA?AW4parameter_type@12@U_CRT_DOUBLE@@@Z 1002f67c f i libucrt:output.obj
 0001:0002e680       ?get_parameter_type@?$positional_parameter_base@_WV?$stream_output_adapter@_W@__crt_stdio_output@@@__crt_stdio_output@@CA?AW4parameter_type@12@_J@Z 1002f680 f i libucrt:output.obj
 0001:0002e684       ?get_parameter_type@?$positional_parameter_base@_WV?$stream_output_adapter@_W@__crt_stdio_output@@@__crt_stdio_output@@CA?AW4parameter_type@12@_K@Z 1002f684 f i libucrt:output.obj
 0001:0002e688       ?get_parameter_type@?$positional_parameter_base@_WV?$stream_output_adapter@_W@__crt_stdio_output@@@__crt_stdio_output@@CA?AW4parameter_type@12@_W@Z 1002f688 f i libucrt:output.obj
 0001:0002e68c       ?get_parameter_type@?$positional_parameter_base@_WV?$string_output_adapter@_W@__crt_stdio_output@@@__crt_stdio_output@@CA?AW4parameter_type@12@F@Z 1002f68c f i libucrt:output.obj
 0001:0002e690       ?get_parameter_type@?$positional_parameter_base@_WV?$string_output_adapter@_W@__crt_stdio_output@@@__crt_stdio_output@@CA?AW4parameter_type@12@G@Z 1002f690 f i libucrt:output.obj
 0001:0002e694       ?get_parameter_type@?$positional_parameter_base@_WV?$string_output_adapter@_W@__crt_stdio_output@@@__crt_stdio_output@@CA?AW4parameter_type@12@H@Z 1002f694 f i libucrt:output.obj
 0001:0002e698       ?get_parameter_type@?$positional_parameter_base@_WV?$string_output_adapter@_W@__crt_stdio_output@@@__crt_stdio_output@@CA?AW4parameter_type@12@I@Z 1002f698 f i libucrt:output.obj
 0001:0002e69c       ?get_parameter_type@?$positional_parameter_base@_WV?$string_output_adapter@_W@__crt_stdio_output@@@__crt_stdio_output@@CA?AW4parameter_type@12@U_CRT_DOUBLE@@@Z 1002f69c f i libucrt:output.obj
 0001:0002e6a0       ?get_parameter_type@?$positional_parameter_base@_WV?$string_output_adapter@_W@__crt_stdio_output@@@__crt_stdio_output@@CA?AW4parameter_type@12@_J@Z 1002f6a0 f i libucrt:output.obj
 0001:0002e6a4       ?get_parameter_type@?$positional_parameter_base@_WV?$string_output_adapter@_W@__crt_stdio_output@@@__crt_stdio_output@@CA?AW4parameter_type@12@_K@Z 1002f6a4 f i libucrt:output.obj
 0001:0002e6a8       ?get_parameter_type@?$positional_parameter_base@_WV?$string_output_adapter@_W@__crt_stdio_output@@@__crt_stdio_output@@CA?AW4parameter_type@12@_W@Z 1002f6a8 f i libucrt:output.obj
 0001:0002e6ac       ?has_flag@?$output_processor@DV?$stream_output_adapter@D@__crt_stdio_output@@V?$format_validation_base@DV?$stream_output_adapter@D@__crt_stdio_output@@@2@@__crt_stdio_output@@ABE_NI@Z 1002f6ac f i libucrt:output.obj
 0001:0002e6c2       ?has_flag@?$output_processor@DV?$stream_output_adapter@D@__crt_stdio_output@@V?$positional_parameter_base@DV?$stream_output_adapter@D@__crt_stdio_output@@@2@@__crt_stdio_output@@ABE_NI@Z 1002f6c2 f i libucrt:output.obj
 0001:0002e6d8       ?has_flag@?$output_processor@DV?$stream_output_adapter@D@__crt_stdio_output@@V?$standard_base@DV?$stream_output_adapter@D@__crt_stdio_output@@@2@@__crt_stdio_output@@ABE_NI@Z 1002f6d8 f i libucrt:output.obj
 0001:0002e6ee       ?has_flag@?$output_processor@DV?$string_output_adapter@D@__crt_stdio_output@@V?$format_validation_base@DV?$string_output_adapter@D@__crt_stdio_output@@@2@@__crt_stdio_output@@ABE_NI@Z 1002f6ee f i libucrt:output.obj
 0001:0002e704       ?has_flag@?$output_processor@DV?$string_output_adapter@D@__crt_stdio_output@@V?$positional_parameter_base@DV?$string_output_adapter@D@__crt_stdio_output@@@2@@__crt_stdio_output@@ABE_NI@Z 1002f704 f i libucrt:output.obj
 0001:0002e71a       ?has_flag@?$output_processor@DV?$string_output_adapter@D@__crt_stdio_output@@V?$standard_base@DV?$string_output_adapter@D@__crt_stdio_output@@@2@@__crt_stdio_output@@ABE_NI@Z 1002f71a f i libucrt:output.obj
 0001:0002e730       ?has_flag@?$output_processor@_WV?$stream_output_adapter@_W@__crt_stdio_output@@V?$format_validation_base@_WV?$stream_output_adapter@_W@__crt_stdio_output@@@2@@__crt_stdio_output@@ABE_NI@Z 1002f730 f i libucrt:output.obj
 0001:0002e746       ?has_flag@?$output_processor@_WV?$stream_output_adapter@_W@__crt_stdio_output@@V?$positional_parameter_base@_WV?$stream_output_adapter@_W@__crt_stdio_output@@@2@@__crt_stdio_output@@ABE_NI@Z 1002f746 f i libucrt:output.obj
 0001:0002e75c       ?has_flag@?$output_processor@_WV?$stream_output_adapter@_W@__crt_stdio_output@@V?$standard_base@_WV?$stream_output_adapter@_W@__crt_stdio_output@@@2@@__crt_stdio_output@@ABE_NI@Z 1002f75c f i libucrt:output.obj
 0001:0002e772       ?has_flag@?$output_processor@_WV?$string_output_adapter@_W@__crt_stdio_output@@V?$format_validation_base@_WV?$string_output_adapter@_W@__crt_stdio_output@@@2@@__crt_stdio_output@@ABE_NI@Z 1002f772 f i libucrt:output.obj
 0001:0002e788       ?has_flag@?$output_processor@_WV?$string_output_adapter@_W@__crt_stdio_output@@V?$positional_parameter_base@_WV?$string_output_adapter@_W@__crt_stdio_output@@@2@@__crt_stdio_output@@ABE_NI@Z 1002f788 f i libucrt:output.obj
 0001:0002e79e       ?has_flag@?$output_processor@_WV?$string_output_adapter@_W@__crt_stdio_output@@V?$standard_base@_WV?$string_output_adapter@_W@__crt_stdio_output@@@2@@__crt_stdio_output@@ABE_NI@Z 1002f79e f i libucrt:output.obj
 0001:0002e7b4       ?is_positional_parameter_reappearance_consistent@?$positional_parameter_base@DV?$stream_output_adapter@D@__crt_stdio_output@@@__crt_stdio_output@@AAE_NABUparameter_data@12@W4parameter_type@12@DW4length_modifier@2@@Z 1002f7b4 f i libucrt:output.obj
 0001:0002e914       ?is_positional_parameter_reappearance_consistent@?$positional_parameter_base@DV?$string_output_adapter@D@__crt_stdio_output@@@__crt_stdio_output@@AAE_NABUparameter_data@12@W4parameter_type@12@DW4length_modifier@2@@Z 1002f914 f i libucrt:output.obj
 0001:0002ea74       ?is_positional_parameter_reappearance_consistent@?$positional_parameter_base@_WV?$stream_output_adapter@_W@__crt_stdio_output@@@__crt_stdio_output@@AAE_NABUparameter_data@12@W4parameter_type@12@_WW4length_modifier@2@@Z 1002fa74 f i libucrt:output.obj
 0001:0002ebd3       ?is_positional_parameter_reappearance_consistent@?$positional_parameter_base@_WV?$string_output_adapter@_W@__crt_stdio_output@@@__crt_stdio_output@@AAE_NABUparameter_data@12@W4parameter_type@12@_WW4length_modifier@2@@Z 1002fbd3 f i libucrt:output.obj
 0001:0002ed32       ?narrow_null_string@?$output_processor@DV?$stream_output_adapter@D@__crt_stdio_output@@V?$format_validation_base@DV?$stream_output_adapter@D@__crt_stdio_output@@@2@@__crt_stdio_output@@CAPADXZ 1002fd32 f i libucrt:output.obj
 0001:0002ed38       ?narrow_null_string@?$output_processor@DV?$stream_output_adapter@D@__crt_stdio_output@@V?$positional_parameter_base@DV?$stream_output_adapter@D@__crt_stdio_output@@@2@@__crt_stdio_output@@CAPADXZ 1002fd38 f i libucrt:output.obj
 0001:0002ed3e       ?narrow_null_string@?$output_processor@DV?$stream_output_adapter@D@__crt_stdio_output@@V?$standard_base@DV?$stream_output_adapter@D@__crt_stdio_output@@@2@@__crt_stdio_output@@CAPADXZ 1002fd3e f i libucrt:output.obj
 0001:0002ed44       ?narrow_null_string@?$output_processor@DV?$string_output_adapter@D@__crt_stdio_output@@V?$format_validation_base@DV?$string_output_adapter@D@__crt_stdio_output@@@2@@__crt_stdio_output@@CAPADXZ 1002fd44 f i libucrt:output.obj
 0001:0002ed4a       ?narrow_null_string@?$output_processor@DV?$string_output_adapter@D@__crt_stdio_output@@V?$positional_parameter_base@DV?$string_output_adapter@D@__crt_stdio_output@@@2@@__crt_stdio_output@@CAPADXZ 1002fd4a f i libucrt:output.obj
 0001:0002ed50       ?narrow_null_string@?$output_processor@DV?$string_output_adapter@D@__crt_stdio_output@@V?$standard_base@DV?$string_output_adapter@D@__crt_stdio_output@@@2@@__crt_stdio_output@@CAPADXZ 1002fd50 f i libucrt:output.obj
 0001:0002ed56       ?narrow_null_string@?$output_processor@_WV?$stream_output_adapter@_W@__crt_stdio_output@@V?$format_validation_base@_WV?$stream_output_adapter@_W@__crt_stdio_output@@@2@@__crt_stdio_output@@CAPADXZ 1002fd56 f i libucrt:output.obj
 0001:0002ed5c       ?narrow_null_string@?$output_processor@_WV?$stream_output_adapter@_W@__crt_stdio_output@@V?$positional_parameter_base@_WV?$stream_output_adapter@_W@__crt_stdio_output@@@2@@__crt_stdio_output@@CAPADXZ 1002fd5c f i libucrt:output.obj
 0001:0002ed62       ?narrow_null_string@?$output_processor@_WV?$stream_output_adapter@_W@__crt_stdio_output@@V?$standard_base@_WV?$stream_output_adapter@_W@__crt_stdio_output@@@2@@__crt_stdio_output@@CAPADXZ 1002fd62 f i libucrt:output.obj
 0001:0002ed68       ?narrow_null_string@?$output_processor@_WV?$string_output_adapter@_W@__crt_stdio_output@@V?$format_validation_base@_WV?$string_output_adapter@_W@__crt_stdio_output@@@2@@__crt_stdio_output@@CAPADXZ 1002fd68 f i libucrt:output.obj
 0001:0002ed6e       ?narrow_null_string@?$output_processor@_WV?$string_output_adapter@_W@__crt_stdio_output@@V?$positional_parameter_base@_WV?$string_output_adapter@_W@__crt_stdio_output@@@2@@__crt_stdio_output@@CAPADXZ 1002fd6e f i libucrt:output.obj
 0001:0002ed74       ?narrow_null_string@?$output_processor@_WV?$string_output_adapter@_W@__crt_stdio_output@@V?$standard_base@_WV?$string_output_adapter@_W@__crt_stdio_output@@@2@@__crt_stdio_output@@CAPADXZ 1002fd74 f i libucrt:output.obj
 0001:0002ed7a       ?parse_int_from_format_string@?$output_processor@DV?$stream_output_adapter@D@__crt_stdio_output@@V?$format_validation_base@DV?$stream_output_adapter@D@__crt_stdio_output@@@2@@__crt_stdio_output@@AAE_NQAH@Z 1002fd7a f i libucrt:output.obj
 0001:0002ee0d       ?parse_int_from_format_string@?$output_processor@DV?$stream_output_adapter@D@__crt_stdio_output@@V?$positional_parameter_base@DV?$stream_output_adapter@D@__crt_stdio_output@@@2@@__crt_stdio_output@@AAE_NQAH@Z 1002fe0d f i libucrt:output.obj
 0001:0002eea0       ?parse_int_from_format_string@?$output_processor@DV?$stream_output_adapter@D@__crt_stdio_output@@V?$standard_base@DV?$stream_output_adapter@D@__crt_stdio_output@@@2@@__crt_stdio_output@@AAE_NQAH@Z 1002fea0 f i libucrt:output.obj
 0001:0002ef33       ?parse_int_from_format_string@?$output_processor@DV?$string_output_adapter@D@__crt_stdio_output@@V?$format_validation_base@DV?$string_output_adapter@D@__crt_stdio_output@@@2@@__crt_stdio_output@@AAE_NQAH@Z 1002ff33 f i libucrt:output.obj
 0001:0002efc6       ?parse_int_from_format_string@?$output_processor@DV?$string_output_adapter@D@__crt_stdio_output@@V?$positional_parameter_base@DV?$string_output_adapter@D@__crt_stdio_output@@@2@@__crt_stdio_output@@AAE_NQAH@Z 1002ffc6 f i libucrt:output.obj
 0001:0002f059       ?parse_int_from_format_string@?$output_processor@DV?$string_output_adapter@D@__crt_stdio_output@@V?$standard_base@DV?$string_output_adapter@D@__crt_stdio_output@@@2@@__crt_stdio_output@@AAE_NQAH@Z 10030059 f i libucrt:output.obj
 0001:0002f0ec       ?parse_int_from_format_string@?$output_processor@_WV?$stream_output_adapter@_W@__crt_stdio_output@@V?$format_validation_base@_WV?$stream_output_adapter@_W@__crt_stdio_output@@@2@@__crt_stdio_output@@AAE_NQAH@Z 100300ec f i libucrt:output.obj
 0001:0002f182       ?parse_int_from_format_string@?$output_processor@_WV?$stream_output_adapter@_W@__crt_stdio_output@@V?$positional_parameter_base@_WV?$stream_output_adapter@_W@__crt_stdio_output@@@2@@__crt_stdio_output@@AAE_NQAH@Z 10030182 f i libucrt:output.obj
 0001:0002f218       ?parse_int_from_format_string@?$output_processor@_WV?$stream_output_adapter@_W@__crt_stdio_output@@V?$standard_base@_WV?$stream_output_adapter@_W@__crt_stdio_output@@@2@@__crt_stdio_output@@AAE_NQAH@Z 10030218 f i libucrt:output.obj
 0001:0002f2ae       ?parse_int_from_format_string@?$output_processor@_WV?$string_output_adapter@_W@__crt_stdio_output@@V?$format_validation_base@_WV?$string_output_adapter@_W@__crt_stdio_output@@@2@@__crt_stdio_output@@AAE_NQAH@Z 100302ae f i libucrt:output.obj
 0001:0002f344       ?parse_int_from_format_string@?$output_processor@_WV?$string_output_adapter@_W@__crt_stdio_output@@V?$positional_parameter_base@_WV?$string_output_adapter@_W@__crt_stdio_output@@@2@@__crt_stdio_output@@AAE_NQAH@Z 10030344 f i libucrt:output.obj
 0001:0002f3da       ?parse_int_from_format_string@?$output_processor@_WV?$string_output_adapter@_W@__crt_stdio_output@@V?$standard_base@_WV?$string_output_adapter@_W@__crt_stdio_output@@@2@@__crt_stdio_output@@AAE_NQAH@Z 100303da f i libucrt:output.obj
 0001:0002f470       ?process@?$output_processor@DV?$stream_output_adapter@D@__crt_stdio_output@@V?$format_validation_base@DV?$stream_output_adapter@D@__crt_stdio_output@@@2@@__crt_stdio_output@@QAEHXZ 10030470 f i libucrt:output.obj
 0001:0002f5e2       ?process@?$output_processor@DV?$stream_output_adapter@D@__crt_stdio_output@@V?$positional_parameter_base@DV?$stream_output_adapter@D@__crt_stdio_output@@@2@@__crt_stdio_output@@QAEHXZ 100305e2 f i libucrt:output.obj
 0001:0002f795       ?process@?$output_processor@DV?$stream_output_adapter@D@__crt_stdio_output@@V?$standard_base@DV?$stream_output_adapter@D@__crt_stdio_output@@@2@@__crt_stdio_output@@QAEHXZ 10030795 f i libucrt:output.obj
 0001:0002f8f8       ?process@?$output_processor@DV?$string_output_adapter@D@__crt_stdio_output@@V?$format_validation_base@DV?$string_output_adapter@D@__crt_stdio_output@@@2@@__crt_stdio_output@@QAEHXZ 100308f8 f i libucrt:output.obj
 0001:0002fa6a       ?process@?$output_processor@DV?$string_output_adapter@D@__crt_stdio_output@@V?$positional_parameter_base@DV?$string_output_adapter@D@__crt_stdio_output@@@2@@__crt_stdio_output@@QAEHXZ 10030a6a f i libucrt:output.obj
 0001:0002fc1d       ?process@?$output_processor@DV?$string_output_adapter@D@__crt_stdio_output@@V?$standard_base@DV?$string_output_adapter@D@__crt_stdio_output@@@2@@__crt_stdio_output@@QAEHXZ 10030c1d f i libucrt:output.obj
 0001:0002fd80       ?process@?$output_processor@_WV?$stream_output_adapter@_W@__crt_stdio_output@@V?$format_validation_base@_WV?$stream_output_adapter@_W@__crt_stdio_output@@@2@@__crt_stdio_output@@QAEHXZ 10030d80 f i libucrt:output.obj
 0001:0002fefc       ?process@?$output_processor@_WV?$stream_output_adapter@_W@__crt_stdio_output@@V?$positional_parameter_base@_WV?$stream_output_adapter@_W@__crt_stdio_output@@@2@@__crt_stdio_output@@QAEHXZ 10030efc f i libucrt:output.obj
 0001:000300b4       ?process@?$output_processor@_WV?$stream_output_adapter@_W@__crt_stdio_output@@V?$standard_base@_WV?$stream_output_adapter@_W@__crt_stdio_output@@@2@@__crt_stdio_output@@QAEHXZ 100310b4 f i libucrt:output.obj
 0001:0003021c       ?process@?$output_processor@_WV?$string_output_adapter@_W@__crt_stdio_output@@V?$format_validation_base@_WV?$string_output_adapter@_W@__crt_stdio_output@@@2@@__crt_stdio_output@@QAEHXZ 1003121c f i libucrt:output.obj
 0001:00030398       ?process@?$output_processor@_WV?$string_output_adapter@_W@__crt_stdio_output@@V?$positional_parameter_base@_WV?$string_output_adapter@_W@__crt_stdio_output@@@2@@__crt_stdio_output@@QAEHXZ 10031398 f i libucrt:output.obj
 0001:00030550       ?process@?$output_processor@_WV?$string_output_adapter@_W@__crt_stdio_output@@V?$standard_base@_WV?$string_output_adapter@_W@__crt_stdio_output@@@2@@__crt_stdio_output@@QAEHXZ 10031550 f i libucrt:output.obj
 0001:000306b8       ?set_flag@?$output_processor@DV?$stream_output_adapter@D@__crt_stdio_output@@V?$format_validation_base@DV?$stream_output_adapter@D@__crt_stdio_output@@@2@@__crt_stdio_output@@AAEXI@Z 100316b8 f i libucrt:output.obj
 0001:000306ca       ?set_flag@?$output_processor@DV?$stream_output_adapter@D@__crt_stdio_output@@V?$positional_parameter_base@DV?$stream_output_adapter@D@__crt_stdio_output@@@2@@__crt_stdio_output@@AAEXI@Z 100316ca f i libucrt:output.obj
 0001:000306dc       ?set_flag@?$output_processor@DV?$stream_output_adapter@D@__crt_stdio_output@@V?$standard_base@DV?$stream_output_adapter@D@__crt_stdio_output@@@2@@__crt_stdio_output@@AAEXI@Z 100316dc f i libucrt:output.obj
 0001:000306ee       ?set_flag@?$output_processor@DV?$string_output_adapter@D@__crt_stdio_output@@V?$format_validation_base@DV?$string_output_adapter@D@__crt_stdio_output@@@2@@__crt_stdio_output@@AAEXI@Z 100316ee f i libucrt:output.obj
 0001:00030700       ?set_flag@?$output_processor@DV?$string_output_adapter@D@__crt_stdio_output@@V?$positional_parameter_base@DV?$string_output_adapter@D@__crt_stdio_output@@@2@@__crt_stdio_output@@AAEXI@Z 10031700 f i libucrt:output.obj
 0001:00030712       ?set_flag@?$output_processor@DV?$string_output_adapter@D@__crt_stdio_output@@V?$standard_base@DV?$string_output_adapter@D@__crt_stdio_output@@@2@@__crt_stdio_output@@AAEXI@Z 10031712 f i libucrt:output.obj
 0001:00030724       ?set_flag@?$output_processor@_WV?$stream_output_adapter@_W@__crt_stdio_output@@V?$format_validation_base@_WV?$stream_output_adapter@_W@__crt_stdio_output@@@2@@__crt_stdio_output@@AAEXI@Z 10031724 f i libucrt:output.obj
 0001:00030736       ?set_flag@?$output_processor@_WV?$stream_output_adapter@_W@__crt_stdio_output@@V?$positional_parameter_base@_WV?$stream_output_adapter@_W@__crt_stdio_output@@@2@@__crt_stdio_output@@AAEXI@Z 10031736 f i libucrt:output.obj
 0001:00030748       ?set_flag@?$output_processor@_WV?$stream_output_adapter@_W@__crt_stdio_output@@V?$standard_base@_WV?$stream_output_adapter@_W@__crt_stdio_output@@@2@@__crt_stdio_output@@AAEXI@Z 10031748 f i libucrt:output.obj
 0001:0003075a       ?set_flag@?$output_processor@_WV?$string_output_adapter@_W@__crt_stdio_output@@V?$format_validation_base@_WV?$string_output_adapter@_W@__crt_stdio_output@@@2@@__crt_stdio_output@@AAEXI@Z 1003175a f i libucrt:output.obj
 0001:0003076c       ?set_flag@?$output_processor@_WV?$string_output_adapter@_W@__crt_stdio_output@@V?$positional_parameter_base@_WV?$string_output_adapter@_W@__crt_stdio_output@@@2@@__crt_stdio_output@@AAEXI@Z 1003176c f i libucrt:output.obj
 0001:0003077e       ?set_flag@?$output_processor@_WV?$string_output_adapter@_W@__crt_stdio_output@@V?$standard_base@_WV?$string_output_adapter@_W@__crt_stdio_output@@@2@@__crt_stdio_output@@AAEXI@Z 1003177e f i libucrt:output.obj
 0001:00030790       ?should_format@?$positional_parameter_base@DV?$stream_output_adapter@D@__crt_stdio_output@@@__crt_stdio_output@@IAE_NXZ 10031790 f i libucrt:output.obj
 0001:000307ab       ?should_format@?$positional_parameter_base@DV?$string_output_adapter@D@__crt_stdio_output@@@__crt_stdio_output@@IAE_NXZ 100317ab f i libucrt:output.obj
 0001:000307c6       ?should_format@?$positional_parameter_base@_WV?$stream_output_adapter@_W@__crt_stdio_output@@@__crt_stdio_output@@IAE_NXZ 100317c6 f i libucrt:output.obj
 0001:000307e1       ?should_format@?$positional_parameter_base@_WV?$string_output_adapter@_W@__crt_stdio_output@@@__crt_stdio_output@@IAE_NXZ 100317e1 f i libucrt:output.obj
 0001:000307fc       ?should_format@?$standard_base@DV?$stream_output_adapter@D@__crt_stdio_output@@@__crt_stdio_output@@IAE_NXZ 100317fc f i libucrt:output.obj
 0001:000307ff       ?should_format@?$standard_base@DV?$string_output_adapter@D@__crt_stdio_output@@@__crt_stdio_output@@IAE_NXZ 100317ff f i libucrt:output.obj
 0001:00030802       ?should_format@?$standard_base@_WV?$stream_output_adapter@_W@__crt_stdio_output@@@__crt_stdio_output@@IAE_NXZ 10031802 f i libucrt:output.obj
 0001:00030805       ?should_format@?$standard_base@_WV?$string_output_adapter@_W@__crt_stdio_output@@@__crt_stdio_output@@IAE_NXZ 10031805 f i libucrt:output.obj
 0001:00030808       ?should_skip_normal_state_processing@?$positional_parameter_base@DV?$stream_output_adapter@D@__crt_stdio_output@@@__crt_stdio_output@@IAE_NXZ 10031808 f i libucrt:output.obj
 0001:0003083a       ?should_skip_normal_state_processing@?$positional_parameter_base@DV?$string_output_adapter@D@__crt_stdio_output@@@__crt_stdio_output@@IAE_NXZ 1003183a f i libucrt:output.obj
 0001:0003086c       ?should_skip_normal_state_processing@?$positional_parameter_base@_WV?$stream_output_adapter@_W@__crt_stdio_output@@@__crt_stdio_output@@IAE_NXZ 1003186c f i libucrt:output.obj
 0001:0003089e       ?should_skip_normal_state_processing@?$positional_parameter_base@_WV?$string_output_adapter@_W@__crt_stdio_output@@@__crt_stdio_output@@IAE_NXZ 1003189e f i libucrt:output.obj
 0001:000308d0       ?should_skip_normal_state_processing@?$standard_base@DV?$stream_output_adapter@D@__crt_stdio_output@@@__crt_stdio_output@@IAE_NXZ 100318d0 f i libucrt:output.obj
 0001:000308d3       ?should_skip_normal_state_processing@?$standard_base@DV?$string_output_adapter@D@__crt_stdio_output@@@__crt_stdio_output@@IAE_NXZ 100318d3 f i libucrt:output.obj
 0001:000308d6       ?should_skip_normal_state_processing@?$standard_base@_WV?$stream_output_adapter@_W@__crt_stdio_output@@@__crt_stdio_output@@IAE_NXZ 100318d6 f i libucrt:output.obj
 0001:000308d9       ?should_skip_normal_state_processing@?$standard_base@_WV?$string_output_adapter@_W@__crt_stdio_output@@@__crt_stdio_output@@IAE_NXZ 100318d9 f i libucrt:output.obj
 0001:000308dc       ?should_skip_type_state_output@?$positional_parameter_base@DV?$stream_output_adapter@D@__crt_stdio_output@@@__crt_stdio_output@@IBE_NXZ 100318dc f i libucrt:output.obj
 0001:000308f8       ?should_skip_type_state_output@?$positional_parameter_base@DV?$string_output_adapter@D@__crt_stdio_output@@@__crt_stdio_output@@IBE_NXZ 100318f8 f i libucrt:output.obj
 0001:00030914       ?should_skip_type_state_output@?$positional_parameter_base@_WV?$stream_output_adapter@_W@__crt_stdio_output@@@__crt_stdio_output@@IBE_NXZ 10031914 f i libucrt:output.obj
 0001:00030930       ?should_skip_type_state_output@?$positional_parameter_base@_WV?$string_output_adapter@_W@__crt_stdio_output@@@__crt_stdio_output@@IBE_NXZ 10031930 f i libucrt:output.obj
 0001:0003094c       ?should_skip_type_state_output@?$standard_base@DV?$stream_output_adapter@D@__crt_stdio_output@@@__crt_stdio_output@@IBE_NXZ 1003194c f i libucrt:output.obj
 0001:0003094f       ?should_skip_type_state_output@?$standard_base@DV?$string_output_adapter@D@__crt_stdio_output@@@__crt_stdio_output@@IBE_NXZ 1003194f f i libucrt:output.obj
 0001:00030952       ?should_skip_type_state_output@?$standard_base@_WV?$stream_output_adapter@_W@__crt_stdio_output@@@__crt_stdio_output@@IBE_NXZ 10031952 f i libucrt:output.obj
 0001:00030955       ?should_skip_type_state_output@?$standard_base@_WV?$string_output_adapter@_W@__crt_stdio_output@@@__crt_stdio_output@@IBE_NXZ 10031955 f i libucrt:output.obj
 0001:00030958       ?state_case_dot@?$output_processor@DV?$stream_output_adapter@D@__crt_stdio_output@@V?$format_validation_base@DV?$stream_output_adapter@D@__crt_stdio_output@@@2@@__crt_stdio_output@@AAE_NXZ 10031958 f i libucrt:output.obj
 0001:0003095f       ?state_case_dot@?$output_processor@DV?$stream_output_adapter@D@__crt_stdio_output@@V?$positional_parameter_base@DV?$stream_output_adapter@D@__crt_stdio_output@@@2@@__crt_stdio_output@@AAE_NXZ 1003195f f i libucrt:output.obj
 0001:00030966       ?state_case_dot@?$output_processor@DV?$stream_output_adapter@D@__crt_stdio_output@@V?$standard_base@DV?$stream_output_adapter@D@__crt_stdio_output@@@2@@__crt_stdio_output@@AAE_NXZ 10031966 f i libucrt:output.obj
 0001:0003096d       ?state_case_dot@?$output_processor@DV?$string_output_adapter@D@__crt_stdio_output@@V?$format_validation_base@DV?$string_output_adapter@D@__crt_stdio_output@@@2@@__crt_stdio_output@@AAE_NXZ 1003196d f i libucrt:output.obj
 0001:00030974       ?state_case_dot@?$output_processor@DV?$string_output_adapter@D@__crt_stdio_output@@V?$positional_parameter_base@DV?$string_output_adapter@D@__crt_stdio_output@@@2@@__crt_stdio_output@@AAE_NXZ 10031974 f i libucrt:output.obj
 0001:0003097b       ?state_case_dot@?$output_processor@DV?$string_output_adapter@D@__crt_stdio_output@@V?$standard_base@DV?$string_output_adapter@D@__crt_stdio_output@@@2@@__crt_stdio_output@@AAE_NXZ 1003197b f i libucrt:output.obj
 0001:00030982       ?state_case_dot@?$output_processor@_WV?$stream_output_adapter@_W@__crt_stdio_output@@V?$format_validation_base@_WV?$stream_output_adapter@_W@__crt_stdio_output@@@2@@__crt_stdio_output@@AAE_NXZ 10031982 f i libucrt:output.obj
 0001:00030989       ?state_case_dot@?$output_processor@_WV?$stream_output_adapter@_W@__crt_stdio_output@@V?$positional_parameter_base@_WV?$stream_output_adapter@_W@__crt_stdio_output@@@2@@__crt_stdio_output@@AAE_NXZ 10031989 f i libucrt:output.obj
 0001:00030990       ?state_case_dot@?$output_processor@_WV?$stream_output_adapter@_W@__crt_stdio_output@@V?$standard_base@_WV?$stream_output_adapter@_W@__crt_stdio_output@@@2@@__crt_stdio_output@@AAE_NXZ 10031990 f i libucrt:output.obj
 0001:00030997       ?state_case_dot@?$output_processor@_WV?$string_output_adapter@_W@__crt_stdio_output@@V?$format_validation_base@_WV?$string_output_adapter@_W@__crt_stdio_output@@@2@@__crt_stdio_output@@AAE_NXZ 10031997 f i libucrt:output.obj
 0001:0003099e       ?state_case_dot@?$output_processor@_WV?$string_output_adapter@_W@__crt_stdio_output@@V?$positional_parameter_base@_WV?$string_output_adapter@_W@__crt_stdio_output@@@2@@__crt_stdio_output@@AAE_NXZ 1003199e f i libucrt:output.obj
 0001:000309a5       ?state_case_dot@?$output_processor@_WV?$string_output_adapter@_W@__crt_stdio_output@@V?$standard_base@_WV?$string_output_adapter@_W@__crt_stdio_output@@@2@@__crt_stdio_output@@AAE_NXZ 100319a5 f i libucrt:output.obj
 0001:000309ac       ?state_case_flag@?$output_processor@DV?$stream_output_adapter@D@__crt_stdio_output@@V?$format_validation_base@DV?$stream_output_adapter@D@__crt_stdio_output@@@2@@__crt_stdio_output@@AAE_NXZ 100319ac f i libucrt:output.obj
 0001:000309f8       ?state_case_flag@?$output_processor@DV?$stream_output_adapter@D@__crt_stdio_output@@V?$positional_parameter_base@DV?$stream_output_adapter@D@__crt_stdio_output@@@2@@__crt_stdio_output@@AAE_NXZ 100319f8 f i libucrt:output.obj
 0001:00030a44       ?state_case_flag@?$output_processor@DV?$stream_output_adapter@D@__crt_stdio_output@@V?$standard_base@DV?$stream_output_adapter@D@__crt_stdio_output@@@2@@__crt_stdio_output@@AAE_NXZ 10031a44 f i libucrt:output.obj
 0001:00030a90       ?state_case_flag@?$output_processor@DV?$string_output_adapter@D@__crt_stdio_output@@V?$format_validation_base@DV?$string_output_adapter@D@__crt_stdio_output@@@2@@__crt_stdio_output@@AAE_NXZ 10031a90 f i libucrt:output.obj
 0001:00030adc       ?state_case_flag@?$output_processor@DV?$string_output_adapter@D@__crt_stdio_output@@V?$positional_parameter_base@DV?$string_output_adapter@D@__crt_stdio_output@@@2@@__crt_stdio_output@@AAE_NXZ 10031adc f i libucrt:output.obj
 0001:00030b28       ?state_case_flag@?$output_processor@DV?$string_output_adapter@D@__crt_stdio_output@@V?$standard_base@DV?$string_output_adapter@D@__crt_stdio_output@@@2@@__crt_stdio_output@@AAE_NXZ 10031b28 f i libucrt:output.obj
 0001:00030b74       ?state_case_flag@?$output_processor@_WV?$stream_output_adapter@_W@__crt_stdio_output@@V?$format_validation_base@_WV?$stream_output_adapter@_W@__crt_stdio_output@@@2@@__crt_stdio_output@@AAE_NXZ 10031b74 f i libucrt:output.obj
 0001:00030bc0       ?state_case_flag@?$output_processor@_WV?$stream_output_adapter@_W@__crt_stdio_output@@V?$positional_parameter_base@_WV?$stream_output_adapter@_W@__crt_stdio_output@@@2@@__crt_stdio_output@@AAE_NXZ 10031bc0 f i libucrt:output.obj
 0001:00030c0c       ?state_case_flag@?$output_processor@_WV?$stream_output_adapter@_W@__crt_stdio_output@@V?$standard_base@_WV?$stream_output_adapter@_W@__crt_stdio_output@@@2@@__crt_stdio_output@@AAE_NXZ 10031c0c f i libucrt:output.obj
 0001:00030c58       ?state_case_flag@?$output_processor@_WV?$string_output_adapter@_W@__crt_stdio_output@@V?$format_validation_base@_WV?$string_output_adapter@_W@__crt_stdio_output@@@2@@__crt_stdio_output@@AAE_NXZ 10031c58 f i libucrt:output.obj
 0001:00030ca4       ?state_case_flag@?$output_processor@_WV?$string_output_adapter@_W@__crt_stdio_output@@V?$positional_parameter_base@_WV?$string_output_adapter@_W@__crt_stdio_output@@@2@@__crt_stdio_output@@AAE_NXZ 10031ca4 f i libucrt:output.obj
 0001:00030cf0       ?state_case_flag@?$output_processor@_WV?$string_output_adapter@_W@__crt_stdio_output@@V?$standard_base@_WV?$string_output_adapter@_W@__crt_stdio_output@@@2@@__crt_stdio_output@@AAE_NXZ 10031cf0 f i libucrt:output.obj
 0001:00030d3c       ?state_case_normal@?$output_processor@DV?$stream_output_adapter@D@__crt_stdio_output@@V?$format_validation_base@DV?$stream_output_adapter@D@__crt_stdio_output@@@2@@__crt_stdio_output@@AAE_NXZ 10031d3c f i libucrt:output.obj
 0001:00030d62       ?state_case_normal@?$output_processor@DV?$stream_output_adapter@D@__crt_stdio_output@@V?$positional_parameter_base@DV?$stream_output_adapter@D@__crt_stdio_output@@@2@@__crt_stdio_output@@AAE_NXZ 10031d62 f i libucrt:output.obj
 0001:00030d9f       ?state_case_normal@?$output_processor@DV?$stream_output_adapter@D@__crt_stdio_output@@V?$standard_base@DV?$stream_output_adapter@D@__crt_stdio_output@@@2@@__crt_stdio_output@@AAE_NXZ 10031d9f f i libucrt:output.obj
 0001:00030dc5       ?state_case_normal@?$output_processor@DV?$string_output_adapter@D@__crt_stdio_output@@V?$format_validation_base@DV?$string_output_adapter@D@__crt_stdio_output@@@2@@__crt_stdio_output@@AAE_NXZ 10031dc5 f i libucrt:output.obj
 0001:00030deb       ?state_case_normal@?$output_processor@DV?$string_output_adapter@D@__crt_stdio_output@@V?$positional_parameter_base@DV?$string_output_adapter@D@__crt_stdio_output@@@2@@__crt_stdio_output@@AAE_NXZ 10031deb f i libucrt:output.obj
 0001:00030e28       ?state_case_normal@?$output_processor@DV?$string_output_adapter@D@__crt_stdio_output@@V?$standard_base@DV?$string_output_adapter@D@__crt_stdio_output@@@2@@__crt_stdio_output@@AAE_NXZ 10031e28 f i libucrt:output.obj
 0001:00030e4e       ?state_case_normal@?$output_processor@_WV?$stream_output_adapter@_W@__crt_stdio_output@@V?$format_validation_base@_WV?$stream_output_adapter@_W@__crt_stdio_output@@@2@@__crt_stdio_output@@AAE_NXZ 10031e4e f i libucrt:output.obj
 0001:00030e74       ?state_case_normal@?$output_processor@_WV?$stream_output_adapter@_W@__crt_stdio_output@@V?$positional_parameter_base@_WV?$stream_output_adapter@_W@__crt_stdio_output@@@2@@__crt_stdio_output@@AAE_NXZ 10031e74 f i libucrt:output.obj
 0001:00030eb1       ?state_case_normal@?$output_processor@_WV?$stream_output_adapter@_W@__crt_stdio_output@@V?$standard_base@_WV?$stream_output_adapter@_W@__crt_stdio_output@@@2@@__crt_stdio_output@@AAE_NXZ 10031eb1 f i libucrt:output.obj
 0001:00030ed7       ?state_case_normal@?$output_processor@_WV?$string_output_adapter@_W@__crt_stdio_output@@V?$format_validation_base@_WV?$string_output_adapter@_W@__crt_stdio_output@@@2@@__crt_stdio_output@@AAE_NXZ 10031ed7 f i libucrt:output.obj
 0001:00030efd       ?state_case_normal@?$output_processor@_WV?$string_output_adapter@_W@__crt_stdio_output@@V?$positional_parameter_base@_WV?$string_output_adapter@_W@__crt_stdio_output@@@2@@__crt_stdio_output@@AAE_NXZ 10031efd f i libucrt:output.obj
 0001:00030f3a       ?state_case_normal@?$output_processor@_WV?$string_output_adapter@_W@__crt_stdio_output@@V?$standard_base@_WV?$string_output_adapter@_W@__crt_stdio_output@@@2@@__crt_stdio_output@@AAE_NXZ 10031f3a f i libucrt:output.obj
 0001:00030f60       ?state_case_normal_common@?$output_processor@DV?$stream_output_adapter@D@__crt_stdio_output@@V?$format_validation_base@DV?$stream_output_adapter@D@__crt_stdio_output@@@2@@__crt_stdio_output@@AAE_NXZ 10031f60 f i libucrt:output.obj
 0001:00030fab       ?state_case_normal_common@?$output_processor@DV?$stream_output_adapter@D@__crt_stdio_output@@V?$positional_parameter_base@DV?$stream_output_adapter@D@__crt_stdio_output@@@2@@__crt_stdio_output@@AAE_NXZ 10031fab f i libucrt:output.obj
 0001:00030ff6       ?state_case_normal_common@?$output_processor@DV?$stream_output_adapter@D@__crt_stdio_output@@V?$standard_base@DV?$stream_output_adapter@D@__crt_stdio_output@@@2@@__crt_stdio_output@@AAE_NXZ 10031ff6 f i libucrt:output.obj
 0001:00031041       ?state_case_normal_common@?$output_processor@DV?$string_output_adapter@D@__crt_stdio_output@@V?$format_validation_base@DV?$string_output_adapter@D@__crt_stdio_output@@@2@@__crt_stdio_output@@AAE_NXZ 10032041 f i libucrt:output.obj
 0001:00031075       ?state_case_normal_common@?$output_processor@DV?$string_output_adapter@D@__crt_stdio_output@@V?$positional_parameter_base@DV?$string_output_adapter@D@__crt_stdio_output@@@2@@__crt_stdio_output@@AAE_NXZ 10032075 f i libucrt:output.obj
 0001:000310a9       ?state_case_normal_common@?$output_processor@DV?$string_output_adapter@D@__crt_stdio_output@@V?$standard_base@DV?$string_output_adapter@D@__crt_stdio_output@@@2@@__crt_stdio_output@@AAE_NXZ 100320a9 f i libucrt:output.obj
 0001:000310dd       ?state_case_normal_common@?$output_processor@_WV?$stream_output_adapter@_W@__crt_stdio_output@@V?$format_validation_base@_WV?$stream_output_adapter@_W@__crt_stdio_output@@@2@@__crt_stdio_output@@AAE_NXZ 100320dd f i libucrt:output.obj
 0001:00031111       ?state_case_normal_common@?$output_processor@_WV?$stream_output_adapter@_W@__crt_stdio_output@@V?$positional_parameter_base@_WV?$stream_output_adapter@_W@__crt_stdio_output@@@2@@__crt_stdio_output@@AAE_NXZ 10032111 f i libucrt:output.obj
 0001:00031145       ?state_case_normal_common@?$output_processor@_WV?$stream_output_adapter@_W@__crt_stdio_output@@V?$standard_base@_WV?$stream_output_adapter@_W@__crt_stdio_output@@@2@@__crt_stdio_output@@AAE_NXZ 10032145 f i libucrt:output.obj
 0001:00031179       ?state_case_normal_common@?$output_processor@_WV?$string_output_adapter@_W@__crt_stdio_output@@V?$format_validation_base@_WV?$string_output_adapter@_W@__crt_stdio_output@@@2@@__crt_stdio_output@@AAE_NXZ 10032179 f i libucrt:output.obj
 0001:0003119a       ?state_case_normal_common@?$output_processor@_WV?$string_output_adapter@_W@__crt_stdio_output@@V?$positional_parameter_base@_WV?$string_output_adapter@_W@__crt_stdio_output@@@2@@__crt_stdio_output@@AAE_NXZ 1003219a f i libucrt:output.obj
 0001:000311bb       ?state_case_normal_common@?$output_processor@_WV?$string_output_adapter@_W@__crt_stdio_output@@V?$standard_base@_WV?$string_output_adapter@_W@__crt_stdio_output@@@2@@__crt_stdio_output@@AAE_NXZ 100321bb f i libucrt:output.obj
 0001:000311dc       ?state_case_normal_tchar@?$output_processor@DV?$stream_output_adapter@D@__crt_stdio_output@@V?$format_validation_base@DV?$stream_output_adapter@D@__crt_stdio_output@@@2@@__crt_stdio_output@@AAE_ND@Z 100321dc f i libucrt:output.obj
 0001:00031256       ?state_case_normal_tchar@?$output_processor@DV?$stream_output_adapter@D@__crt_stdio_output@@V?$positional_parameter_base@DV?$stream_output_adapter@D@__crt_stdio_output@@@2@@__crt_stdio_output@@AAE_ND@Z 10032256 f i libucrt:output.obj
 0001:000312d0       ?state_case_normal_tchar@?$output_processor@DV?$stream_output_adapter@D@__crt_stdio_output@@V?$standard_base@DV?$stream_output_adapter@D@__crt_stdio_output@@@2@@__crt_stdio_output@@AAE_ND@Z 100322d0 f i libucrt:output.obj
 0001:0003134a       ?state_case_normal_tchar@?$output_processor@DV?$string_output_adapter@D@__crt_stdio_output@@V?$format_validation_base@DV?$string_output_adapter@D@__crt_stdio_output@@@2@@__crt_stdio_output@@AAE_ND@Z 1003234a f i libucrt:output.obj
 0001:000313b9       ?state_case_normal_tchar@?$output_processor@DV?$string_output_adapter@D@__crt_stdio_output@@V?$positional_parameter_base@DV?$string_output_adapter@D@__crt_stdio_output@@@2@@__crt_stdio_output@@AAE_ND@Z 100323b9 f i libucrt:output.obj
 0001:00031428       ?state_case_normal_tchar@?$output_processor@DV?$string_output_adapter@D@__crt_stdio_output@@V?$standard_base@DV?$string_output_adapter@D@__crt_stdio_output@@@2@@__crt_stdio_output@@AAE_ND@Z 10032428 f i libucrt:output.obj
 0001:00031497       ?state_case_normal_tchar@?$output_processor@_WV?$stream_output_adapter@_W@__crt_stdio_output@@V?$format_validation_base@_WV?$stream_output_adapter@_W@__crt_stdio_output@@@2@@__crt_stdio_output@@AAE_N_W@Z 10032497 f i libucrt:output.obj
 0001:000314a2       ?state_case_normal_tchar@?$output_processor@_WV?$stream_output_adapter@_W@__crt_stdio_output@@V?$positional_parameter_base@_WV?$stream_output_adapter@_W@__crt_stdio_output@@@2@@__crt_stdio_output@@AAE_N_W@Z 100324a2 f i libucrt:output.obj
 0001:000314ad       ?state_case_normal_tchar@?$output_processor@_WV?$stream_output_adapter@_W@__crt_stdio_output@@V?$standard_base@_WV?$stream_output_adapter@_W@__crt_stdio_output@@@2@@__crt_stdio_output@@AAE_N_W@Z 100324ad f i libucrt:output.obj
 0001:000314b8       ?state_case_normal_tchar@?$output_processor@_WV?$string_output_adapter@_W@__crt_stdio_output@@V?$format_validation_base@_WV?$string_output_adapter@_W@__crt_stdio_output@@@2@@__crt_stdio_output@@AAE_N_W@Z 100324b8 f i libucrt:output.obj
 0001:000314c3       ?state_case_normal_tchar@?$output_processor@_WV?$string_output_adapter@_W@__crt_stdio_output@@V?$positional_parameter_base@_WV?$string_output_adapter@_W@__crt_stdio_output@@@2@@__crt_stdio_output@@AAE_N_W@Z 100324c3 f i libucrt:output.obj
 0001:000314ce       ?state_case_normal_tchar@?$output_processor@_WV?$string_output_adapter@_W@__crt_stdio_output@@V?$standard_base@_WV?$string_output_adapter@_W@__crt_stdio_output@@@2@@__crt_stdio_output@@AAE_N_W@Z 100324ce f i libucrt:output.obj
 0001:000314d9       ?state_case_percent@?$output_processor@DV?$stream_output_adapter@D@__crt_stdio_output@@V?$format_validation_base@DV?$stream_output_adapter@D@__crt_stdio_output@@@2@@__crt_stdio_output@@AAE_NXZ 100324d9 f i libucrt:output.obj
 0001:000314f7       ?state_case_percent@?$output_processor@DV?$stream_output_adapter@D@__crt_stdio_output@@V?$positional_parameter_base@DV?$stream_output_adapter@D@__crt_stdio_output@@@2@@__crt_stdio_output@@AAE_NXZ 100324f7 f i libucrt:output.obj
 0001:00031515       ?state_case_percent@?$output_processor@DV?$stream_output_adapter@D@__crt_stdio_output@@V?$standard_base@DV?$stream_output_adapter@D@__crt_stdio_output@@@2@@__crt_stdio_output@@AAE_NXZ 10032515 f i libucrt:output.obj
 0001:00031533       ?state_case_percent@?$output_processor@DV?$string_output_adapter@D@__crt_stdio_output@@V?$format_validation_base@DV?$string_output_adapter@D@__crt_stdio_output@@@2@@__crt_stdio_output@@AAE_NXZ 10032533 f i libucrt:output.obj
 0001:00031551       ?state_case_percent@?$output_processor@DV?$string_output_adapter@D@__crt_stdio_output@@V?$positional_parameter_base@DV?$string_output_adapter@D@__crt_stdio_output@@@2@@__crt_stdio_output@@AAE_NXZ 10032551 f i libucrt:output.obj
 0001:0003156f       ?state_case_percent@?$output_processor@DV?$string_output_adapter@D@__crt_stdio_output@@V?$standard_base@DV?$string_output_adapter@D@__crt_stdio_output@@@2@@__crt_stdio_output@@AAE_NXZ 1003256f f i libucrt:output.obj
 0001:0003158d       ?state_case_percent@?$output_processor@_WV?$stream_output_adapter@_W@__crt_stdio_output@@V?$format_validation_base@_WV?$stream_output_adapter@_W@__crt_stdio_output@@@2@@__crt_stdio_output@@AAE_NXZ 1003258d f i libucrt:output.obj
 0001:000315ab       ?state_case_percent@?$output_processor@_WV?$stream_output_adapter@_W@__crt_stdio_output@@V?$positional_parameter_base@_WV?$stream_output_adapter@_W@__crt_stdio_output@@@2@@__crt_stdio_output@@AAE_NXZ 100325ab f i libucrt:output.obj
 0001:000315c9       ?state_case_percent@?$output_processor@_WV?$stream_output_adapter@_W@__crt_stdio_output@@V?$standard_base@_WV?$stream_output_adapter@_W@__crt_stdio_output@@@2@@__crt_stdio_output@@AAE_NXZ 100325c9 f i libucrt:output.obj
 0001:000315e7       ?state_case_percent@?$output_processor@_WV?$string_output_adapter@_W@__crt_stdio_output@@V?$format_validation_base@_WV?$string_output_adapter@_W@__crt_stdio_output@@@2@@__crt_stdio_output@@AAE_NXZ 100325e7 f i libucrt:output.obj
 0001:00031605       ?state_case_percent@?$output_processor@_WV?$string_output_adapter@_W@__crt_stdio_output@@V?$positional_parameter_base@_WV?$string_output_adapter@_W@__crt_stdio_output@@@2@@__crt_stdio_output@@AAE_NXZ 10032605 f i libucrt:output.obj
 0001:00031623       ?state_case_percent@?$output_processor@_WV?$string_output_adapter@_W@__crt_stdio_output@@V?$standard_base@_WV?$string_output_adapter@_W@__crt_stdio_output@@@2@@__crt_stdio_output@@AAE_NXZ 10032623 f i libucrt:output.obj
 0001:00031641       ?state_case_precision@?$output_processor@DV?$stream_output_adapter@D@__crt_stdio_output@@V?$format_validation_base@DV?$stream_output_adapter@D@__crt_stdio_output@@@2@@__crt_stdio_output@@AAE_NXZ 10032641 f i libucrt:output.obj
 0001:00031670       ?state_case_precision@?$output_processor@DV?$stream_output_adapter@D@__crt_stdio_output@@V?$positional_parameter_base@DV?$stream_output_adapter@D@__crt_stdio_output@@@2@@__crt_stdio_output@@AAE_NXZ 10032670 f i libucrt:output.obj
 0001:000316b8       ?state_case_precision@?$output_processor@DV?$stream_output_adapter@D@__crt_stdio_output@@V?$standard_base@DV?$stream_output_adapter@D@__crt_stdio_output@@@2@@__crt_stdio_output@@AAE_NXZ 100326b8 f i libucrt:output.obj
 0001:000316e7       ?state_case_precision@?$output_processor@DV?$string_output_adapter@D@__crt_stdio_output@@V?$format_validation_base@DV?$string_output_adapter@D@__crt_stdio_output@@@2@@__crt_stdio_output@@AAE_NXZ 100326e7 f i libucrt:output.obj
 0001:00031716       ?state_case_precision@?$output_processor@DV?$string_output_adapter@D@__crt_stdio_output@@V?$positional_parameter_base@DV?$string_output_adapter@D@__crt_stdio_output@@@2@@__crt_stdio_output@@AAE_NXZ 10032716 f i libucrt:output.obj
 0001:0003175e       ?state_case_precision@?$output_processor@DV?$string_output_adapter@D@__crt_stdio_output@@V?$standard_base@DV?$string_output_adapter@D@__crt_stdio_output@@@2@@__crt_stdio_output@@AAE_NXZ 1003275e f i libucrt:output.obj
 0001:0003178d       ?state_case_precision@?$output_processor@_WV?$stream_output_adapter@_W@__crt_stdio_output@@V?$format_validation_base@_WV?$stream_output_adapter@_W@__crt_stdio_output@@@2@@__crt_stdio_output@@AAE_NXZ 1003278d f i libucrt:output.obj
 0001:000317bd       ?state_case_precision@?$output_processor@_WV?$stream_output_adapter@_W@__crt_stdio_output@@V?$positional_parameter_base@_WV?$stream_output_adapter@_W@__crt_stdio_output@@@2@@__crt_stdio_output@@AAE_NXZ 100327bd f i libucrt:output.obj
 0001:00031806       ?state_case_precision@?$output_processor@_WV?$stream_output_adapter@_W@__crt_stdio_output@@V?$standard_base@_WV?$stream_output_adapter@_W@__crt_stdio_output@@@2@@__crt_stdio_output@@AAE_NXZ 10032806 f i libucrt:output.obj
 0001:00031836       ?state_case_precision@?$output_processor@_WV?$string_output_adapter@_W@__crt_stdio_output@@V?$format_validation_base@_WV?$string_output_adapter@_W@__crt_stdio_output@@@2@@__crt_stdio_output@@AAE_NXZ 10032836 f i libucrt:output.obj
 0001:00031866       ?state_case_precision@?$output_processor@_WV?$string_output_adapter@_W@__crt_stdio_output@@V?$positional_parameter_base@_WV?$string_output_adapter@_W@__crt_stdio_output@@@2@@__crt_stdio_output@@AAE_NXZ 10032866 f i libucrt:output.obj
 0001:000318af       ?state_case_precision@?$output_processor@_WV?$string_output_adapter@_W@__crt_stdio_output@@V?$standard_base@_WV?$string_output_adapter@_W@__crt_stdio_output@@@2@@__crt_stdio_output@@AAE_NXZ 100328af f i libucrt:output.obj
 0001:000318df       ?state_case_size@?$output_processor@DV?$stream_output_adapter@D@__crt_stdio_output@@V?$format_validation_base@DV?$stream_output_adapter@D@__crt_stdio_output@@@2@@__crt_stdio_output@@AAE_NXZ 100328df f i libucrt:output.obj
 0001:00031a8f       ?state_case_size@?$output_processor@DV?$stream_output_adapter@D@__crt_stdio_output@@V?$positional_parameter_base@DV?$stream_output_adapter@D@__crt_stdio_output@@@2@@__crt_stdio_output@@AAE_NXZ 10032a8f f i libucrt:output.obj
 0001:00031c3f       ?state_case_size@?$output_processor@DV?$stream_output_adapter@D@__crt_stdio_output@@V?$standard_base@DV?$stream_output_adapter@D@__crt_stdio_output@@@2@@__crt_stdio_output@@AAE_NXZ 10032c3f f i libucrt:output.obj
 0001:00031def       ?state_case_size@?$output_processor@DV?$string_output_adapter@D@__crt_stdio_output@@V?$format_validation_base@DV?$string_output_adapter@D@__crt_stdio_output@@@2@@__crt_stdio_output@@AAE_NXZ 10032def f i libucrt:output.obj
 0001:00031f9f       ?state_case_size@?$output_processor@DV?$string_output_adapter@D@__crt_stdio_output@@V?$positional_parameter_base@DV?$string_output_adapter@D@__crt_stdio_output@@@2@@__crt_stdio_output@@AAE_NXZ 10032f9f f i libucrt:output.obj
 0001:0003214f       ?state_case_size@?$output_processor@DV?$string_output_adapter@D@__crt_stdio_output@@V?$standard_base@DV?$string_output_adapter@D@__crt_stdio_output@@@2@@__crt_stdio_output@@AAE_NXZ 1003314f f i libucrt:output.obj
 0001:000322ff       ?state_case_size@?$output_processor@_WV?$stream_output_adapter@_W@__crt_stdio_output@@V?$format_validation_base@_WV?$stream_output_adapter@_W@__crt_stdio_output@@@2@@__crt_stdio_output@@AAE_NXZ 100332ff f i libucrt:output.obj
 0001:000324c7       ?state_case_size@?$output_processor@_WV?$stream_output_adapter@_W@__crt_stdio_output@@V?$positional_parameter_base@_WV?$stream_output_adapter@_W@__crt_stdio_output@@@2@@__crt_stdio_output@@AAE_NXZ 100334c7 f i libucrt:output.obj
 0001:0003268f       ?state_case_size@?$output_processor@_WV?$stream_output_adapter@_W@__crt_stdio_output@@V?$standard_base@_WV?$stream_output_adapter@_W@__crt_stdio_output@@@2@@__crt_stdio_output@@AAE_NXZ 1003368f f i libucrt:output.obj
 0001:00032857       ?state_case_size@?$output_processor@_WV?$string_output_adapter@_W@__crt_stdio_output@@V?$format_validation_base@_WV?$string_output_adapter@_W@__crt_stdio_output@@@2@@__crt_stdio_output@@AAE_NXZ 10033857 f i libucrt:output.obj
 0001:00032a1f       ?state_case_size@?$output_processor@_WV?$string_output_adapter@_W@__crt_stdio_output@@V?$positional_parameter_base@_WV?$string_output_adapter@_W@__crt_stdio_output@@@2@@__crt_stdio_output@@AAE_NXZ 10033a1f f i libucrt:output.obj
 0001:00032be7       ?state_case_size@?$output_processor@_WV?$string_output_adapter@_W@__crt_stdio_output@@V?$standard_base@_WV?$string_output_adapter@_W@__crt_stdio_output@@@2@@__crt_stdio_output@@AAE_NXZ 10033be7 f i libucrt:output.obj
 0001:00032daf       ?state_case_type@?$output_processor@DV?$stream_output_adapter@D@__crt_stdio_output@@V?$format_validation_base@DV?$stream_output_adapter@D@__crt_stdio_output@@@2@@__crt_stdio_output@@AAE_NXZ 10033daf f i libucrt:output.obj
 0001:00033062       ?state_case_type@?$output_processor@DV?$stream_output_adapter@D@__crt_stdio_output@@V?$positional_parameter_base@DV?$stream_output_adapter@D@__crt_stdio_output@@@2@@__crt_stdio_output@@AAE_NXZ 10034062 f i libucrt:output.obj
 0001:00033323       ?state_case_type@?$output_processor@DV?$stream_output_adapter@D@__crt_stdio_output@@V?$standard_base@DV?$stream_output_adapter@D@__crt_stdio_output@@@2@@__crt_stdio_output@@AAE_NXZ 10034323 f i libucrt:output.obj
 0001:000335d6       ?state_case_type@?$output_processor@DV?$string_output_adapter@D@__crt_stdio_output@@V?$format_validation_base@DV?$string_output_adapter@D@__crt_stdio_output@@@2@@__crt_stdio_output@@AAE_NXZ 100345d6 f i libucrt:output.obj
 0001:00033889       ?state_case_type@?$output_processor@DV?$string_output_adapter@D@__crt_stdio_output@@V?$positional_parameter_base@DV?$string_output_adapter@D@__crt_stdio_output@@@2@@__crt_stdio_output@@AAE_NXZ 10034889 f i libucrt:output.obj
 0001:00033b4a       ?state_case_type@?$output_processor@DV?$string_output_adapter@D@__crt_stdio_output@@V?$standard_base@DV?$string_output_adapter@D@__crt_stdio_output@@@2@@__crt_stdio_output@@AAE_NXZ 10034b4a f i libucrt:output.obj
 0001:00033dfd       ?state_case_type@?$output_processor@_WV?$stream_output_adapter@_W@__crt_stdio_output@@V?$format_validation_base@_WV?$stream_output_adapter@_W@__crt_stdio_output@@@2@@__crt_stdio_output@@AAE_NXZ 10034dfd f i libucrt:output.obj
 0001:000340fd       ?state_case_type@?$output_processor@_WV?$stream_output_adapter@_W@__crt_stdio_output@@V?$positional_parameter_base@_WV?$stream_output_adapter@_W@__crt_stdio_output@@@2@@__crt_stdio_output@@AAE_NXZ 100350fd f i libucrt:output.obj
 0001:00034410       ?state_case_type@?$output_processor@_WV?$stream_output_adapter@_W@__crt_stdio_output@@V?$standard_base@_WV?$stream_output_adapter@_W@__crt_stdio_output@@@2@@__crt_stdio_output@@AAE_NXZ 10035410 f i libucrt:output.obj
 0001:00034710       ?state_case_type@?$output_processor@_WV?$string_output_adapter@_W@__crt_stdio_output@@V?$format_validation_base@_WV?$string_output_adapter@_W@__crt_stdio_output@@@2@@__crt_stdio_output@@AAE_NXZ 10035710 f i libucrt:output.obj
 0001:00034a10       ?state_case_type@?$output_processor@_WV?$string_output_adapter@_W@__crt_stdio_output@@V?$positional_parameter_base@_WV?$string_output_adapter@_W@__crt_stdio_output@@@2@@__crt_stdio_output@@AAE_NXZ 10035a10 f i libucrt:output.obj
 0001:00034d23       ?state_case_type@?$output_processor@_WV?$string_output_adapter@_W@__crt_stdio_output@@V?$standard_base@_WV?$string_output_adapter@_W@__crt_stdio_output@@@2@@__crt_stdio_output@@AAE_NXZ 10035d23 f i libucrt:output.obj
 0001:00035023       ?state_case_width@?$output_processor@DV?$stream_output_adapter@D@__crt_stdio_output@@V?$format_validation_base@DV?$stream_output_adapter@D@__crt_stdio_output@@@2@@__crt_stdio_output@@AAE_NXZ 10036023 f i libucrt:output.obj
 0001:00035058       ?state_case_width@?$output_processor@DV?$stream_output_adapter@D@__crt_stdio_output@@V?$positional_parameter_base@DV?$stream_output_adapter@D@__crt_stdio_output@@@2@@__crt_stdio_output@@AAE_NXZ 10036058 f i libucrt:output.obj
 0001:000350a8       ?state_case_width@?$output_processor@DV?$stream_output_adapter@D@__crt_stdio_output@@V?$standard_base@DV?$stream_output_adapter@D@__crt_stdio_output@@@2@@__crt_stdio_output@@AAE_NXZ 100360a8 f i libucrt:output.obj
 0001:000350dd       ?state_case_width@?$output_processor@DV?$string_output_adapter@D@__crt_stdio_output@@V?$format_validation_base@DV?$string_output_adapter@D@__crt_stdio_output@@@2@@__crt_stdio_output@@AAE_NXZ 100360dd f i libucrt:output.obj
 0001:00035112       ?state_case_width@?$output_processor@DV?$string_output_adapter@D@__crt_stdio_output@@V?$positional_parameter_base@DV?$string_output_adapter@D@__crt_stdio_output@@@2@@__crt_stdio_output@@AAE_NXZ 10036112 f i libucrt:output.obj
 0001:00035162       ?state_case_width@?$output_processor@DV?$string_output_adapter@D@__crt_stdio_output@@V?$standard_base@DV?$string_output_adapter@D@__crt_stdio_output@@@2@@__crt_stdio_output@@AAE_NXZ 10036162 f i libucrt:output.obj
 0001:00035197       ?state_case_width@?$output_processor@_WV?$stream_output_adapter@_W@__crt_stdio_output@@V?$format_validation_base@_WV?$stream_output_adapter@_W@__crt_stdio_output@@@2@@__crt_stdio_output@@AAE_NXZ 10036197 f i libucrt:output.obj
 0001:000351ce       ?state_case_width@?$output_processor@_WV?$stream_output_adapter@_W@__crt_stdio_output@@V?$positional_parameter_base@_WV?$stream_output_adapter@_W@__crt_stdio_output@@@2@@__crt_stdio_output@@AAE_NXZ 100361ce f i libucrt:output.obj
 0001:0003521f       ?state_case_width@?$output_processor@_WV?$stream_output_adapter@_W@__crt_stdio_output@@V?$standard_base@_WV?$stream_output_adapter@_W@__crt_stdio_output@@@2@@__crt_stdio_output@@AAE_NXZ 1003621f f i libucrt:output.obj
 0001:00035256       ?state_case_width@?$output_processor@_WV?$string_output_adapter@_W@__crt_stdio_output@@V?$format_validation_base@_WV?$string_output_adapter@_W@__crt_stdio_output@@@2@@__crt_stdio_output@@AAE_NXZ 10036256 f i libucrt:output.obj
 0001:0003528d       ?state_case_width@?$output_processor@_WV?$string_output_adapter@_W@__crt_stdio_output@@V?$positional_parameter_base@_WV?$string_output_adapter@_W@__crt_stdio_output@@@2@@__crt_stdio_output@@AAE_NXZ 1003628d f i libucrt:output.obj
 0001:000352de       ?state_case_width@?$output_processor@_WV?$string_output_adapter@_W@__crt_stdio_output@@V?$standard_base@_WV?$string_output_adapter@_W@__crt_stdio_output@@@2@@__crt_stdio_output@@AAE_NXZ 100362de f i libucrt:output.obj
 0001:00035315       ?state_count@?$format_validation_base@DV?$stream_output_adapter@D@__crt_stdio_output@@@__crt_stdio_output@@KAIXZ 10036315 f i libucrt:output.obj
 0001:00035319       ?state_count@?$format_validation_base@DV?$string_output_adapter@D@__crt_stdio_output@@@__crt_stdio_output@@KAIXZ 10036319 f i libucrt:output.obj
 0001:0003531d       ?state_count@?$format_validation_base@_WV?$stream_output_adapter@_W@__crt_stdio_output@@@__crt_stdio_output@@KAIXZ 1003631d f i libucrt:output.obj
 0001:00035321       ?state_count@?$format_validation_base@_WV?$string_output_adapter@_W@__crt_stdio_output@@@__crt_stdio_output@@KAIXZ 10036321 f i libucrt:output.obj
 0001:00035325       ?state_count@?$standard_base@DV?$stream_output_adapter@D@__crt_stdio_output@@@__crt_stdio_output@@KAIXZ 10036325 f i libucrt:output.obj
 0001:00035329       ?state_count@?$standard_base@DV?$string_output_adapter@D@__crt_stdio_output@@@__crt_stdio_output@@KAIXZ 10036329 f i libucrt:output.obj
 0001:0003532d       ?state_count@?$standard_base@_WV?$stream_output_adapter@_W@__crt_stdio_output@@@__crt_stdio_output@@KAIXZ 1003632d f i libucrt:output.obj
 0001:00035331       ?state_count@?$standard_base@_WV?$string_output_adapter@_W@__crt_stdio_output@@@__crt_stdio_output@@KAIXZ 10036331 f i libucrt:output.obj
 0001:00035335       ?state_transition_table@?$format_validation_base@DV?$stream_output_adapter@D@__crt_stdio_output@@@__crt_stdio_output@@KAPBEXZ 10036335 f i libucrt:output.obj
 0001:0003533b       ?state_transition_table@?$format_validation_base@DV?$string_output_adapter@D@__crt_stdio_output@@@__crt_stdio_output@@KAPBEXZ 1003633b f i libucrt:output.obj
 0001:00035341       ?state_transition_table@?$format_validation_base@_WV?$stream_output_adapter@_W@__crt_stdio_output@@@__crt_stdio_output@@KAPBEXZ 10036341 f i libucrt:output.obj
 0001:00035347       ?state_transition_table@?$format_validation_base@_WV?$string_output_adapter@_W@__crt_stdio_output@@@__crt_stdio_output@@KAPBEXZ 10036347 f i libucrt:output.obj
 0001:0003534d       ?state_transition_table@?$standard_base@DV?$stream_output_adapter@D@__crt_stdio_output@@@__crt_stdio_output@@KAPBEXZ 1003634d f i libucrt:output.obj
 0001:00035353       ?state_transition_table@?$standard_base@DV?$string_output_adapter@D@__crt_stdio_output@@@__crt_stdio_output@@KAPBEXZ 10036353 f i libucrt:output.obj
 0001:00035359       ?state_transition_table@?$standard_base@_WV?$stream_output_adapter@_W@__crt_stdio_output@@@__crt_stdio_output@@KAPBEXZ 10036359 f i libucrt:output.obj
 0001:0003535f       ?state_transition_table@?$standard_base@_WV?$string_output_adapter@_W@__crt_stdio_output@@@__crt_stdio_output@@KAPBEXZ 1003635f f i libucrt:output.obj
 0001:00035365       ?tchar_string@?$common_data@D@__crt_stdio_output@@IAEAAPADD@Z 10036365 f i libucrt:output.obj
 0001:0003536b       ?tchar_string@?$common_data@D@__crt_stdio_output@@IAEAAPADXZ 1003636b f i libucrt:output.obj
 0001:0003536f       ?tchar_string@?$common_data@_W@__crt_stdio_output@@IAEAAPA_WXZ 1003636f f i libucrt:output.obj
 0001:00035373       ?tchar_string@?$common_data@_W@__crt_stdio_output@@IAEAAPA_W_W@Z 10036373 f i libucrt:output.obj
 0001:00035379       ?to_integer_size@__crt_stdio_output@@YAIW4length_modifier@1@@Z 10036379 f i libucrt:output.obj
 0001:000353ec       ?type_case_X@?$output_processor@DV?$stream_output_adapter@D@__crt_stdio_output@@V?$format_validation_base@DV?$stream_output_adapter@D@__crt_stdio_output@@@2@@__crt_stdio_output@@AAE_NXZ 100363ec f i libucrt:output.obj
 0001:000353f8       ?type_case_X@?$output_processor@DV?$stream_output_adapter@D@__crt_stdio_output@@V?$positional_parameter_base@DV?$stream_output_adapter@D@__crt_stdio_output@@@2@@__crt_stdio_output@@AAE_NXZ 100363f8 f i libucrt:output.obj
 0001:00035404       ?type_case_X@?$output_processor@DV?$stream_output_adapter@D@__crt_stdio_output@@V?$standard_base@DV?$stream_output_adapter@D@__crt_stdio_output@@@2@@__crt_stdio_output@@AAE_NXZ 10036404 f i libucrt:output.obj
 0001:00035410       ?type_case_X@?$output_processor@DV?$string_output_adapter@D@__crt_stdio_output@@V?$format_validation_base@DV?$string_output_adapter@D@__crt_stdio_output@@@2@@__crt_stdio_output@@AAE_NXZ 10036410 f i libucrt:output.obj
 0001:0003541c       ?type_case_X@?$output_processor@DV?$string_output_adapter@D@__crt_stdio_output@@V?$positional_parameter_base@DV?$string_output_adapter@D@__crt_stdio_output@@@2@@__crt_stdio_output@@AAE_NXZ 1003641c f i libucrt:output.obj
 0001:00035428       ?type_case_X@?$output_processor@DV?$string_output_adapter@D@__crt_stdio_output@@V?$standard_base@DV?$string_output_adapter@D@__crt_stdio_output@@@2@@__crt_stdio_output@@AAE_NXZ 10036428 f i libucrt:output.obj
 0001:00035434       ?type_case_X@?$output_processor@_WV?$stream_output_adapter@_W@__crt_stdio_output@@V?$format_validation_base@_WV?$stream_output_adapter@_W@__crt_stdio_output@@@2@@__crt_stdio_output@@AAE_NXZ 10036434 f i libucrt:output.obj
 0001:00035440       ?type_case_X@?$output_processor@_WV?$stream_output_adapter@_W@__crt_stdio_output@@V?$positional_parameter_base@_WV?$stream_output_adapter@_W@__crt_stdio_output@@@2@@__crt_stdio_output@@AAE_NXZ 10036440 f i libucrt:output.obj
 0001:0003544c       ?type_case_X@?$output_processor@_WV?$stream_output_adapter@_W@__crt_stdio_output@@V?$standard_base@_WV?$stream_output_adapter@_W@__crt_stdio_output@@@2@@__crt_stdio_output@@AAE_NXZ 1003644c f i libucrt:output.obj
 0001:00035458       ?type_case_X@?$output_processor@_WV?$string_output_adapter@_W@__crt_stdio_output@@V?$format_validation_base@_WV?$string_output_adapter@_W@__crt_stdio_output@@@2@@__crt_stdio_output@@AAE_NXZ 10036458 f i libucrt:output.obj
 0001:00035464       ?type_case_X@?$output_processor@_WV?$string_output_adapter@_W@__crt_stdio_output@@V?$positional_parameter_base@_WV?$string_output_adapter@_W@__crt_stdio_output@@@2@@__crt_stdio_output@@AAE_NXZ 10036464 f i libucrt:output.obj
 0001:00035470       ?type_case_X@?$output_processor@_WV?$string_output_adapter@_W@__crt_stdio_output@@V?$standard_base@_WV?$string_output_adapter@_W@__crt_stdio_output@@@2@@__crt_stdio_output@@AAE_NXZ 10036470 f i libucrt:output.obj
 0001:0003547c       ?type_case_Z@?$output_processor@DV?$stream_output_adapter@D@__crt_stdio_output@@V?$format_validation_base@DV?$stream_output_adapter@D@__crt_stdio_output@@@2@@__crt_stdio_output@@AAE_NXZ 1003647c f i libucrt:output.obj
 0001:000354f5       ?type_case_Z@?$output_processor@DV?$stream_output_adapter@D@__crt_stdio_output@@V?$positional_parameter_base@DV?$stream_output_adapter@D@__crt_stdio_output@@@2@@__crt_stdio_output@@AAE_NXZ 100364f5 f i libucrt:output.obj
 0001:0003560b       ?type_case_Z@?$output_processor@DV?$stream_output_adapter@D@__crt_stdio_output@@V?$standard_base@DV?$stream_output_adapter@D@__crt_stdio_output@@@2@@__crt_stdio_output@@AAE_NXZ 1003660b f i libucrt:output.obj
 0001:00035684       ?type_case_Z@?$output_processor@DV?$string_output_adapter@D@__crt_stdio_output@@V?$format_validation_base@DV?$string_output_adapter@D@__crt_stdio_output@@@2@@__crt_stdio_output@@AAE_NXZ 10036684 f i libucrt:output.obj
 0001:000356fd       ?type_case_Z@?$output_processor@DV?$string_output_adapter@D@__crt_stdio_output@@V?$positional_parameter_base@DV?$string_output_adapter@D@__crt_stdio_output@@@2@@__crt_stdio_output@@AAE_NXZ 100366fd f i libucrt:output.obj
 0001:00035813       ?type_case_Z@?$output_processor@DV?$string_output_adapter@D@__crt_stdio_output@@V?$standard_base@DV?$string_output_adapter@D@__crt_stdio_output@@@2@@__crt_stdio_output@@AAE_NXZ 10036813 f i libucrt:output.obj
 0001:0003588c       ?type_case_Z@?$output_processor@_WV?$stream_output_adapter@_W@__crt_stdio_output@@V?$format_validation_base@_WV?$stream_output_adapter@_W@__crt_stdio_output@@@2@@__crt_stdio_output@@AAE_NXZ 1003688c f i libucrt:output.obj
 0001:00035905       ?type_case_Z@?$output_processor@_WV?$stream_output_adapter@_W@__crt_stdio_output@@V?$positional_parameter_base@_WV?$stream_output_adapter@_W@__crt_stdio_output@@@2@@__crt_stdio_output@@AAE_NXZ 10036905 f i libucrt:output.obj
 0001:00035a1b       ?type_case_Z@?$output_processor@_WV?$stream_output_adapter@_W@__crt_stdio_output@@V?$standard_base@_WV?$stream_output_adapter@_W@__crt_stdio_output@@@2@@__crt_stdio_output@@AAE_NXZ 10036a1b f i libucrt:output.obj
 0001:00035a94       ?type_case_Z@?$output_processor@_WV?$string_output_adapter@_W@__crt_stdio_output@@V?$format_validation_base@_WV?$string_output_adapter@_W@__crt_stdio_output@@@2@@__crt_stdio_output@@AAE_NXZ 10036a94 f i libucrt:output.obj
 0001:00035b0d       ?type_case_Z@?$output_processor@_WV?$string_output_adapter@_W@__crt_stdio_output@@V?$positional_parameter_base@_WV?$string_output_adapter@_W@__crt_stdio_output@@@2@@__crt_stdio_output@@AAE_NXZ 10036b0d f i libucrt:output.obj
 0001:00035c23       ?type_case_Z@?$output_processor@_WV?$string_output_adapter@_W@__crt_stdio_output@@V?$standard_base@_WV?$string_output_adapter@_W@__crt_stdio_output@@@2@@__crt_stdio_output@@AAE_NXZ 10036c23 f i libucrt:output.obj
 0001:00035c9c       ?type_case_a@?$output_processor@DV?$stream_output_adapter@D@__crt_stdio_output@@V?$format_validation_base@DV?$stream_output_adapter@D@__crt_stdio_output@@@2@@__crt_stdio_output@@AAE_NXZ 10036c9c f i libucrt:output.obj
 0001:00035e4b       ?type_case_a@?$output_processor@DV?$stream_output_adapter@D@__crt_stdio_output@@V?$positional_parameter_base@DV?$stream_output_adapter@D@__crt_stdio_output@@@2@@__crt_stdio_output@@AAE_NXZ 10036e4b f i libucrt:output.obj
 0001:00036021       ?type_case_a@?$output_processor@DV?$stream_output_adapter@D@__crt_stdio_output@@V?$standard_base@DV?$stream_output_adapter@D@__crt_stdio_output@@@2@@__crt_stdio_output@@AAE_NXZ 10037021 f i libucrt:output.obj
 0001:000361d0       ?type_case_a@?$output_processor@DV?$string_output_adapter@D@__crt_stdio_output@@V?$format_validation_base@DV?$string_output_adapter@D@__crt_stdio_output@@@2@@__crt_stdio_output@@AAE_NXZ 100371d0 f i libucrt:output.obj
 0001:0003637f       ?type_case_a@?$output_processor@DV?$string_output_adapter@D@__crt_stdio_output@@V?$positional_parameter_base@DV?$string_output_adapter@D@__crt_stdio_output@@@2@@__crt_stdio_output@@AAE_NXZ 1003737f f i libucrt:output.obj
 0001:00036555       ?type_case_a@?$output_processor@DV?$string_output_adapter@D@__crt_stdio_output@@V?$standard_base@DV?$string_output_adapter@D@__crt_stdio_output@@@2@@__crt_stdio_output@@AAE_NXZ 10037555 f i libucrt:output.obj
 0001:00036704       ?type_case_a@?$output_processor@_WV?$stream_output_adapter@_W@__crt_stdio_output@@V?$format_validation_base@_WV?$stream_output_adapter@_W@__crt_stdio_output@@@2@@__crt_stdio_output@@AAE_NXZ 10037704 f i libucrt:output.obj
 0001:000368ce       ?type_case_a@?$output_processor@_WV?$stream_output_adapter@_W@__crt_stdio_output@@V?$positional_parameter_base@_WV?$stream_output_adapter@_W@__crt_stdio_output@@@2@@__crt_stdio_output@@AAE_NXZ 100378ce f i libucrt:output.obj
 0001:00036abf       ?type_case_a@?$output_processor@_WV?$stream_output_adapter@_W@__crt_stdio_output@@V?$standard_base@_WV?$stream_output_adapter@_W@__crt_stdio_output@@@2@@__crt_stdio_output@@AAE_NXZ 10037abf f i libucrt:output.obj
 0001:00036c89       ?type_case_a@?$output_processor@_WV?$string_output_adapter@_W@__crt_stdio_output@@V?$format_validation_base@_WV?$string_output_adapter@_W@__crt_stdio_output@@@2@@__crt_stdio_output@@AAE_NXZ 10037c89 f i libucrt:output.obj
 0001:00036e53       ?type_case_a@?$output_processor@_WV?$string_output_adapter@_W@__crt_stdio_output@@V?$positional_parameter_base@_WV?$string_output_adapter@_W@__crt_stdio_output@@@2@@__crt_stdio_output@@AAE_NXZ 10037e53 f i libucrt:output.obj
 0001:00037044       ?type_case_a@?$output_processor@_WV?$string_output_adapter@_W@__crt_stdio_output@@V?$standard_base@_WV?$string_output_adapter@_W@__crt_stdio_output@@@2@@__crt_stdio_output@@AAE_NXZ 10038044 f i libucrt:output.obj
 0001:0003720e       ?type_case_c@?$output_processor@DV?$stream_output_adapter@D@__crt_stdio_output@@V?$format_validation_base@DV?$stream_output_adapter@D@__crt_stdio_output@@@2@@__crt_stdio_output@@AAE_NXZ 1003820e f i libucrt:output.obj
 0001:00037218       ?type_case_c@?$output_processor@DV?$stream_output_adapter@D@__crt_stdio_output@@V?$positional_parameter_base@DV?$stream_output_adapter@D@__crt_stdio_output@@@2@@__crt_stdio_output@@AAE_NXZ 10038218 f i libucrt:output.obj
 0001:00037222       ?type_case_c@?$output_processor@DV?$stream_output_adapter@D@__crt_stdio_output@@V?$standard_base@DV?$stream_output_adapter@D@__crt_stdio_output@@@2@@__crt_stdio_output@@AAE_NXZ 10038222 f i libucrt:output.obj
 0001:0003722c       ?type_case_c@?$output_processor@DV?$string_output_adapter@D@__crt_stdio_output@@V?$format_validation_base@DV?$string_output_adapter@D@__crt_stdio_output@@@2@@__crt_stdio_output@@AAE_NXZ 1003822c f i libucrt:output.obj
 0001:00037236       ?type_case_c@?$output_processor@DV?$string_output_adapter@D@__crt_stdio_output@@V?$positional_parameter_base@DV?$string_output_adapter@D@__crt_stdio_output@@@2@@__crt_stdio_output@@AAE_NXZ 10038236 f i libucrt:output.obj
 0001:00037240       ?type_case_c@?$output_processor@DV?$string_output_adapter@D@__crt_stdio_output@@V?$standard_base@DV?$string_output_adapter@D@__crt_stdio_output@@@2@@__crt_stdio_output@@AAE_NXZ 10038240 f i libucrt:output.obj
 0001:0003724a       ?type_case_c@?$output_processor@_WV?$stream_output_adapter@_W@__crt_stdio_output@@V?$format_validation_base@_WV?$stream_output_adapter@_W@__crt_stdio_output@@@2@@__crt_stdio_output@@AAE_NXZ 1003824a f i libucrt:output.obj
 0001:00037254       ?type_case_c@?$output_processor@_WV?$stream_output_adapter@_W@__crt_stdio_output@@V?$positional_parameter_base@_WV?$stream_output_adapter@_W@__crt_stdio_output@@@2@@__crt_stdio_output@@AAE_NXZ 10038254 f i libucrt:output.obj
 0001:0003725e       ?type_case_c@?$output_processor@_WV?$stream_output_adapter@_W@__crt_stdio_output@@V?$standard_base@_WV?$stream_output_adapter@_W@__crt_stdio_output@@@2@@__crt_stdio_output@@AAE_NXZ 1003825e f i libucrt:output.obj
 0001:00037268       ?type_case_c@?$output_processor@_WV?$string_output_adapter@_W@__crt_stdio_output@@V?$format_validation_base@_WV?$string_output_adapter@_W@__crt_stdio_output@@@2@@__crt_stdio_output@@AAE_NXZ 10038268 f i libucrt:output.obj
 0001:00037272       ?type_case_c@?$output_processor@_WV?$string_output_adapter@_W@__crt_stdio_output@@V?$positional_parameter_base@_WV?$string_output_adapter@_W@__crt_stdio_output@@@2@@__crt_stdio_output@@AAE_NXZ 10038272 f i libucrt:output.obj
 0001:0003727c       ?type_case_c@?$output_processor@_WV?$string_output_adapter@_W@__crt_stdio_output@@V?$standard_base@_WV?$string_output_adapter@_W@__crt_stdio_output@@@2@@__crt_stdio_output@@AAE_NXZ 1003827c f i libucrt:output.obj
 0001:00037286       ?type_case_c_tchar@?$output_processor@DV?$stream_output_adapter@D@__crt_stdio_output@@V?$format_validation_base@DV?$stream_output_adapter@D@__crt_stdio_output@@@2@@__crt_stdio_output@@AAE_ND@Z 10038286 f i libucrt:output.obj
 0001:0003733a       ?type_case_c_tchar@?$output_processor@DV?$stream_output_adapter@D@__crt_stdio_output@@V?$positional_parameter_base@DV?$stream_output_adapter@D@__crt_stdio_output@@@2@@__crt_stdio_output@@AAE_ND@Z 1003833a f i libucrt:output.obj
 0001:0003742a       ?type_case_c_tchar@?$output_processor@DV?$stream_output_adapter@D@__crt_stdio_output@@V?$standard_base@DV?$stream_output_adapter@D@__crt_stdio_output@@@2@@__crt_stdio_output@@AAE_ND@Z 1003842a f i libucrt:output.obj
 0001:000374de       ?type_case_c_tchar@?$output_processor@DV?$string_output_adapter@D@__crt_stdio_output@@V?$format_validation_base@DV?$string_output_adapter@D@__crt_stdio_output@@@2@@__crt_stdio_output@@AAE_ND@Z 100384de f i libucrt:output.obj
 0001:00037592       ?type_case_c_tchar@?$output_processor@DV?$string_output_adapter@D@__crt_stdio_output@@V?$positional_parameter_base@DV?$string_output_adapter@D@__crt_stdio_output@@@2@@__crt_stdio_output@@AAE_ND@Z 10038592 f i libucrt:output.obj
 0001:00037682       ?type_case_c_tchar@?$output_processor@DV?$string_output_adapter@D@__crt_stdio_output@@V?$standard_base@DV?$string_output_adapter@D@__crt_stdio_output@@@2@@__crt_stdio_output@@AAE_ND@Z 10038682 f i libucrt:output.obj
 0001:00037736       ?type_case_c_tchar@?$output_processor@_WV?$stream_output_adapter@_W@__crt_stdio_output@@V?$format_validation_base@_WV?$stream_output_adapter@_W@__crt_stdio_output@@@2@@__crt_stdio_output@@AAE_N_W@Z 10038736 f i libucrt:output.obj
 0001:000377f4       ?type_case_c_tchar@?$output_processor@_WV?$stream_output_adapter@_W@__crt_stdio_output@@V?$positional_parameter_base@_WV?$stream_output_adapter@_W@__crt_stdio_output@@@2@@__crt_stdio_output@@AAE_N_W@Z 100387f4 f i libucrt:output.obj
 0001:000378ce       ?type_case_c_tchar@?$output_processor@_WV?$stream_output_adapter@_W@__crt_stdio_output@@V?$standard_base@_WV?$stream_output_adapter@_W@__crt_stdio_output@@@2@@__crt_stdio_output@@AAE_N_W@Z 100388ce f i libucrt:output.obj
 0001:0003798c       ?type_case_c_tchar@?$output_processor@_WV?$string_output_adapter@_W@__crt_stdio_output@@V?$format_validation_base@_WV?$string_output_adapter@_W@__crt_stdio_output@@@2@@__crt_stdio_output@@AAE_N_W@Z 1003898c f i libucrt:output.obj
 0001:00037a4a       ?type_case_c_tchar@?$output_processor@_WV?$string_output_adapter@_W@__crt_stdio_output@@V?$positional_parameter_base@_WV?$string_output_adapter@_W@__crt_stdio_output@@@2@@__crt_stdio_output@@AAE_N_W@Z 10038a4a f i libucrt:output.obj
 0001:00037b24       ?type_case_c_tchar@?$output_processor@_WV?$string_output_adapter@_W@__crt_stdio_output@@V?$standard_base@_WV?$string_output_adapter@_W@__crt_stdio_output@@@2@@__crt_stdio_output@@AAE_N_W@Z 10038b24 f i libucrt:output.obj
 0001:00037be2       ?type_case_d@?$output_processor@DV?$stream_output_adapter@D@__crt_stdio_output@@V?$format_validation_base@DV?$stream_output_adapter@D@__crt_stdio_output@@@2@@__crt_stdio_output@@AAE_NXZ 10038be2 f i libucrt:output.obj
 0001:00037bf3       ?type_case_d@?$output_processor@DV?$stream_output_adapter@D@__crt_stdio_output@@V?$positional_parameter_base@DV?$stream_output_adapter@D@__crt_stdio_output@@@2@@__crt_stdio_output@@AAE_NXZ 10038bf3 f i libucrt:output.obj
 0001:00037c04       ?type_case_d@?$output_processor@DV?$stream_output_adapter@D@__crt_stdio_output@@V?$standard_base@DV?$stream_output_adapter@D@__crt_stdio_output@@@2@@__crt_stdio_output@@AAE_NXZ 10038c04 f i libucrt:output.obj
 0001:00037c15       ?type_case_d@?$output_processor@DV?$string_output_adapter@D@__crt_stdio_output@@V?$format_validation_base@DV?$string_output_adapter@D@__crt_stdio_output@@@2@@__crt_stdio_output@@AAE_NXZ 10038c15 f i libucrt:output.obj
 0001:00037c26       ?type_case_d@?$output_processor@DV?$string_output_adapter@D@__crt_stdio_output@@V?$positional_parameter_base@DV?$string_output_adapter@D@__crt_stdio_output@@@2@@__crt_stdio_output@@AAE_NXZ 10038c26 f i libucrt:output.obj
 0001:00037c37       ?type_case_d@?$output_processor@DV?$string_output_adapter@D@__crt_stdio_output@@V?$standard_base@DV?$string_output_adapter@D@__crt_stdio_output@@@2@@__crt_stdio_output@@AAE_NXZ 10038c37 f i libucrt:output.obj
 0001:00037c48       ?type_case_d@?$output_processor@_WV?$stream_output_adapter@_W@__crt_stdio_output@@V?$format_validation_base@_WV?$stream_output_adapter@_W@__crt_stdio_output@@@2@@__crt_stdio_output@@AAE_NXZ 10038c48 f i libucrt:output.obj
 0001:00037c59       ?type_case_d@?$output_processor@_WV?$stream_output_adapter@_W@__crt_stdio_output@@V?$positional_parameter_base@_WV?$stream_output_adapter@_W@__crt_stdio_output@@@2@@__crt_stdio_output@@AAE_NXZ 10038c59 f i libucrt:output.obj
 0001:00037c6a       ?type_case_d@?$output_processor@_WV?$stream_output_adapter@_W@__crt_stdio_output@@V?$standard_base@_WV?$stream_output_adapter@_W@__crt_stdio_output@@@2@@__crt_stdio_output@@AAE_NXZ 10038c6a f i libucrt:output.obj
 0001:00037c7b       ?type_case_d@?$output_processor@_WV?$string_output_adapter@_W@__crt_stdio_output@@V?$format_validation_base@_WV?$string_output_adapter@_W@__crt_stdio_output@@@2@@__crt_stdio_output@@AAE_NXZ 10038c7b f i libucrt:output.obj
 0001:00037c8c       ?type_case_d@?$output_processor@_WV?$string_output_adapter@_W@__crt_stdio_output@@V?$positional_parameter_base@_WV?$string_output_adapter@_W@__crt_stdio_output@@@2@@__crt_stdio_output@@AAE_NXZ 10038c8c f i libucrt:output.obj
 0001:00037c9d       ?type_case_d@?$output_processor@_WV?$string_output_adapter@_W@__crt_stdio_output@@V?$standard_base@_WV?$string_output_adapter@_W@__crt_stdio_output@@@2@@__crt_stdio_output@@AAE_NXZ 10038c9d f i libucrt:output.obj
 0001:00037cae       ?type_case_integer@?$output_processor@DV?$stream_output_adapter@D@__crt_stdio_output@@V?$format_validation_base@DV?$stream_output_adapter@D@__crt_stdio_output@@@2@@__crt_stdio_output@@AAE_NI_N@Z 10038cae f i libucrt:output.obj
 0001:00037e55       ?type_case_integer@?$output_processor@DV?$stream_output_adapter@D@__crt_stdio_output@@V?$positional_parameter_base@DV?$stream_output_adapter@D@__crt_stdio_output@@@2@@__crt_stdio_output@@AAE_NI_N@Z 10038e55 f i libucrt:output.obj
 0001:00038038       ?type_case_integer@?$output_processor@DV?$stream_output_adapter@D@__crt_stdio_output@@V?$standard_base@DV?$stream_output_adapter@D@__crt_stdio_output@@@2@@__crt_stdio_output@@AAE_NI_N@Z 10039038 f i libucrt:output.obj
 0001:000381df       ?type_case_integer@?$output_processor@DV?$string_output_adapter@D@__crt_stdio_output@@V?$format_validation_base@DV?$string_output_adapter@D@__crt_stdio_output@@@2@@__crt_stdio_output@@AAE_NI_N@Z 100391df f i libucrt:output.obj
 0001:00038386       ?type_case_integer@?$output_processor@DV?$string_output_adapter@D@__crt_stdio_output@@V?$positional_parameter_base@DV?$string_output_adapter@D@__crt_stdio_output@@@2@@__crt_stdio_output@@AAE_NI_N@Z 10039386 f i libucrt:output.obj
 0001:00038569       ?type_case_integer@?$output_processor@DV?$string_output_adapter@D@__crt_stdio_output@@V?$standard_base@DV?$string_output_adapter@D@__crt_stdio_output@@@2@@__crt_stdio_output@@AAE_NI_N@Z 10039569 f i libucrt:output.obj
 0001:00038710       ?type_case_integer@?$output_processor@_WV?$stream_output_adapter@_W@__crt_stdio_output@@V?$format_validation_base@_WV?$stream_output_adapter@_W@__crt_stdio_output@@@2@@__crt_stdio_output@@AAE_NI_N@Z 10039710 f i libucrt:output.obj
 0001:000388bc       ?type_case_integer@?$output_processor@_WV?$stream_output_adapter@_W@__crt_stdio_output@@V?$positional_parameter_base@_WV?$stream_output_adapter@_W@__crt_stdio_output@@@2@@__crt_stdio_output@@AAE_NI_N@Z 100398bc f i libucrt:output.obj
 0001:00038aa4       ?type_case_integer@?$output_processor@_WV?$stream_output_adapter@_W@__crt_stdio_output@@V?$standard_base@_WV?$stream_output_adapter@_W@__crt_stdio_output@@@2@@__crt_stdio_output@@AAE_NI_N@Z 10039aa4 f i libucrt:output.obj
 0001:00038c50       ?type_case_integer@?$output_processor@_WV?$string_output_adapter@_W@__crt_stdio_output@@V?$format_validation_base@_WV?$string_output_adapter@_W@__crt_stdio_output@@@2@@__crt_stdio_output@@AAE_NI_N@Z 10039c50 f i libucrt:output.obj
 0001:00038dfc       ?type_case_integer@?$output_processor@_WV?$string_output_adapter@_W@__crt_stdio_output@@V?$positional_parameter_base@_WV?$string_output_adapter@_W@__crt_stdio_output@@@2@@__crt_stdio_output@@AAE_NI_N@Z 10039dfc f i libucrt:output.obj
 0001:00038fe4       ?type_case_integer@?$output_processor@_WV?$string_output_adapter@_W@__crt_stdio_output@@V?$standard_base@_WV?$string_output_adapter@_W@__crt_stdio_output@@@2@@__crt_stdio_output@@AAE_NI_N@Z 10039fe4 f i libucrt:output.obj
 0001:00039190       ?type_case_n@?$output_processor@DV?$stream_output_adapter@D@__crt_stdio_output@@V?$format_validation_base@DV?$stream_output_adapter@D@__crt_stdio_output@@@2@@__crt_stdio_output@@AAE_NXZ 1003a190 f i libucrt:output.obj
 0001:00039221       ?type_case_n@?$output_processor@DV?$stream_output_adapter@D@__crt_stdio_output@@V?$positional_parameter_base@DV?$stream_output_adapter@D@__crt_stdio_output@@@2@@__crt_stdio_output@@AAE_NXZ 1003a221 f i libucrt:output.obj
 0001:000392e0       ?type_case_n@?$output_processor@DV?$stream_output_adapter@D@__crt_stdio_output@@V?$standard_base@DV?$stream_output_adapter@D@__crt_stdio_output@@@2@@__crt_stdio_output@@AAE_NXZ 1003a2e0 f i libucrt:output.obj
 0001:00039371       ?type_case_n@?$output_processor@DV?$string_output_adapter@D@__crt_stdio_output@@V?$format_validation_base@DV?$string_output_adapter@D@__crt_stdio_output@@@2@@__crt_stdio_output@@AAE_NXZ 1003a371 f i libucrt:output.obj
 0001:00039402       ?type_case_n@?$output_processor@DV?$string_output_adapter@D@__crt_stdio_output@@V?$positional_parameter_base@DV?$string_output_adapter@D@__crt_stdio_output@@@2@@__crt_stdio_output@@AAE_NXZ 1003a402 f i libucrt:output.obj
 0001:000394c1       ?type_case_n@?$output_processor@DV?$string_output_adapter@D@__crt_stdio_output@@V?$standard_base@DV?$string_output_adapter@D@__crt_stdio_output@@@2@@__crt_stdio_output@@AAE_NXZ 1003a4c1 f i libucrt:output.obj
 0001:00039552       ?type_case_n@?$output_processor@_WV?$stream_output_adapter@_W@__crt_stdio_output@@V?$format_validation_base@_WV?$stream_output_adapter@_W@__crt_stdio_output@@@2@@__crt_stdio_output@@AAE_NXZ 1003a552 f i libucrt:output.obj
 0001:000395e3       ?type_case_n@?$output_processor@_WV?$stream_output_adapter@_W@__crt_stdio_output@@V?$positional_parameter_base@_WV?$stream_output_adapter@_W@__crt_stdio_output@@@2@@__crt_stdio_output@@AAE_NXZ 1003a5e3 f i libucrt:output.obj
 0001:000396a2       ?type_case_n@?$output_processor@_WV?$stream_output_adapter@_W@__crt_stdio_output@@V?$standard_base@_WV?$stream_output_adapter@_W@__crt_stdio_output@@@2@@__crt_stdio_output@@AAE_NXZ 1003a6a2 f i libucrt:output.obj
 0001:00039733       ?type_case_n@?$output_processor@_WV?$string_output_adapter@_W@__crt_stdio_output@@V?$format_validation_base@_WV?$string_output_adapter@_W@__crt_stdio_output@@@2@@__crt_stdio_output@@AAE_NXZ 1003a733 f i libucrt:output.obj
 0001:000397c4       ?type_case_n@?$output_processor@_WV?$string_output_adapter@_W@__crt_stdio_output@@V?$positional_parameter_base@_WV?$string_output_adapter@_W@__crt_stdio_output@@@2@@__crt_stdio_output@@AAE_NXZ 1003a7c4 f i libucrt:output.obj
 0001:00039883       ?type_case_n@?$output_processor@_WV?$string_output_adapter@_W@__crt_stdio_output@@V?$standard_base@_WV?$string_output_adapter@_W@__crt_stdio_output@@@2@@__crt_stdio_output@@AAE_NXZ 1003a883 f i libucrt:output.obj
 0001:00039914       ?type_case_o@?$output_processor@DV?$stream_output_adapter@D@__crt_stdio_output@@V?$format_validation_base@DV?$stream_output_adapter@D@__crt_stdio_output@@@2@@__crt_stdio_output@@AAE_NXZ 1003a914 f i libucrt:output.obj
 0001:0003993a       ?type_case_o@?$output_processor@DV?$stream_output_adapter@D@__crt_stdio_output@@V?$positional_parameter_base@DV?$stream_output_adapter@D@__crt_stdio_output@@@2@@__crt_stdio_output@@AAE_NXZ 1003a93a f i libucrt:output.obj
 0001:00039960       ?type_case_o@?$output_processor@DV?$stream_output_adapter@D@__crt_stdio_output@@V?$standard_base@DV?$stream_output_adapter@D@__crt_stdio_output@@@2@@__crt_stdio_output@@AAE_NXZ 1003a960 f i libucrt:output.obj
 0001:00039986       ?type_case_o@?$output_processor@DV?$string_output_adapter@D@__crt_stdio_output@@V?$format_validation_base@DV?$string_output_adapter@D@__crt_stdio_output@@@2@@__crt_stdio_output@@AAE_NXZ 1003a986 f i libucrt:output.obj
 0001:000399ac       ?type_case_o@?$output_processor@DV?$string_output_adapter@D@__crt_stdio_output@@V?$positional_parameter_base@DV?$string_output_adapter@D@__crt_stdio_output@@@2@@__crt_stdio_output@@AAE_NXZ 1003a9ac f i libucrt:output.obj
 0001:000399d2       ?type_case_o@?$output_processor@DV?$string_output_adapter@D@__crt_stdio_output@@V?$standard_base@DV?$string_output_adapter@D@__crt_stdio_output@@@2@@__crt_stdio_output@@AAE_NXZ 1003a9d2 f i libucrt:output.obj
 0001:000399f8       ?type_case_o@?$output_processor@_WV?$stream_output_adapter@_W@__crt_stdio_output@@V?$format_validation_base@_WV?$stream_output_adapter@_W@__crt_stdio_output@@@2@@__crt_stdio_output@@AAE_NXZ 1003a9f8 f i libucrt:output.obj
 0001:00039a1e       ?type_case_o@?$output_processor@_WV?$stream_output_adapter@_W@__crt_stdio_output@@V?$positional_parameter_base@_WV?$stream_output_adapter@_W@__crt_stdio_output@@@2@@__crt_stdio_output@@AAE_NXZ 1003aa1e f i libucrt:output.obj
 0001:00039a44       ?type_case_o@?$output_processor@_WV?$stream_output_adapter@_W@__crt_stdio_output@@V?$standard_base@_WV?$stream_output_adapter@_W@__crt_stdio_output@@@2@@__crt_stdio_output@@AAE_NXZ 1003aa44 f i libucrt:output.obj
 0001:00039a6a       ?type_case_o@?$output_processor@_WV?$string_output_adapter@_W@__crt_stdio_output@@V?$format_validation_base@_WV?$string_output_adapter@_W@__crt_stdio_output@@@2@@__crt_stdio_output@@AAE_NXZ 1003aa6a f i libucrt:output.obj
 0001:00039a90       ?type_case_o@?$output_processor@_WV?$string_output_adapter@_W@__crt_stdio_output@@V?$positional_parameter_base@_WV?$string_output_adapter@_W@__crt_stdio_output@@@2@@__crt_stdio_output@@AAE_NXZ 1003aa90 f i libucrt:output.obj
 0001:00039ab6       ?type_case_o@?$output_processor@_WV?$string_output_adapter@_W@__crt_stdio_output@@V?$standard_base@_WV?$string_output_adapter@_W@__crt_stdio_output@@@2@@__crt_stdio_output@@AAE_NXZ 1003aab6 f i libucrt:output.obj
 0001:00039adc       ?type_case_p@?$output_processor@DV?$stream_output_adapter@D@__crt_stdio_output@@V?$format_validation_base@DV?$stream_output_adapter@D@__crt_stdio_output@@@2@@__crt_stdio_output@@AAE_NXZ 1003aadc f i libucrt:output.obj
 0001:00039afa       ?type_case_p@?$output_processor@DV?$stream_output_adapter@D@__crt_stdio_output@@V?$positional_parameter_base@DV?$stream_output_adapter@D@__crt_stdio_output@@@2@@__crt_stdio_output@@AAE_NXZ 1003aafa f i libucrt:output.obj
 0001:00039b18       ?type_case_p@?$output_processor@DV?$stream_output_adapter@D@__crt_stdio_output@@V?$standard_base@DV?$stream_output_adapter@D@__crt_stdio_output@@@2@@__crt_stdio_output@@AAE_NXZ 1003ab18 f i libucrt:output.obj
 0001:00039b36       ?type_case_p@?$output_processor@DV?$string_output_adapter@D@__crt_stdio_output@@V?$format_validation_base@DV?$string_output_adapter@D@__crt_stdio_output@@@2@@__crt_stdio_output@@AAE_NXZ 1003ab36 f i libucrt:output.obj
 0001:00039b54       ?type_case_p@?$output_processor@DV?$string_output_adapter@D@__crt_stdio_output@@V?$positional_parameter_base@DV?$string_output_adapter@D@__crt_stdio_output@@@2@@__crt_stdio_output@@AAE_NXZ 1003ab54 f i libucrt:output.obj
 0001:00039b72       ?type_case_p@?$output_processor@DV?$string_output_adapter@D@__crt_stdio_output@@V?$standard_base@DV?$string_output_adapter@D@__crt_stdio_output@@@2@@__crt_stdio_output@@AAE_NXZ 1003ab72 f i libucrt:output.obj
 0001:00039b90       ?type_case_p@?$output_processor@_WV?$stream_output_adapter@_W@__crt_stdio_output@@V?$format_validation_base@_WV?$stream_output_adapter@_W@__crt_stdio_output@@@2@@__crt_stdio_output@@AAE_NXZ 1003ab90 f i libucrt:output.obj
 0001:00039bae       ?type_case_p@?$output_processor@_WV?$stream_output_adapter@_W@__crt_stdio_output@@V?$positional_parameter_base@_WV?$stream_output_adapter@_W@__crt_stdio_output@@@2@@__crt_stdio_output@@AAE_NXZ 1003abae f i libucrt:output.obj
 0001:00039bcc       ?type_case_p@?$output_processor@_WV?$stream_output_adapter@_W@__crt_stdio_output@@V?$standard_base@_WV?$stream_output_adapter@_W@__crt_stdio_output@@@2@@__crt_stdio_output@@AAE_NXZ 1003abcc f i libucrt:output.obj
 0001:00039bea       ?type_case_p@?$output_processor@_WV?$string_output_adapter@_W@__crt_stdio_output@@V?$format_validation_base@_WV?$string_output_adapter@_W@__crt_stdio_output@@@2@@__crt_stdio_output@@AAE_NXZ 1003abea f i libucrt:output.obj
 0001:00039c08       ?type_case_p@?$output_processor@_WV?$string_output_adapter@_W@__crt_stdio_output@@V?$positional_parameter_base@_WV?$string_output_adapter@_W@__crt_stdio_output@@@2@@__crt_stdio_output@@AAE_NXZ 1003ac08 f i libucrt:output.obj
 0001:00039c26       ?type_case_p@?$output_processor@_WV?$string_output_adapter@_W@__crt_stdio_output@@V?$standard_base@_WV?$string_output_adapter@_W@__crt_stdio_output@@@2@@__crt_stdio_output@@AAE_NXZ 1003ac26 f i libucrt:output.obj
 0001:00039c44       ?type_case_s@?$output_processor@DV?$stream_output_adapter@D@__crt_stdio_output@@V?$format_validation_base@DV?$stream_output_adapter@D@__crt_stdio_output@@@2@@__crt_stdio_output@@AAE_NXZ 1003ac44 f i libucrt:output.obj
 0001:00039cd1       ?type_case_s@?$output_processor@DV?$stream_output_adapter@D@__crt_stdio_output@@V?$positional_parameter_base@DV?$stream_output_adapter@D@__crt_stdio_output@@@2@@__crt_stdio_output@@AAE_NXZ 1003acd1 f i libucrt:output.obj
 0001:00039d6e       ?type_case_s@?$output_processor@DV?$stream_output_adapter@D@__crt_stdio_output@@V?$standard_base@DV?$stream_output_adapter@D@__crt_stdio_output@@@2@@__crt_stdio_output@@AAE_NXZ 1003ad6e f i libucrt:output.obj
 0001:00039dfb       ?type_case_s@?$output_processor@DV?$string_output_adapter@D@__crt_stdio_output@@V?$format_validation_base@DV?$string_output_adapter@D@__crt_stdio_output@@@2@@__crt_stdio_output@@AAE_NXZ 1003adfb f i libucrt:output.obj
 0001:00039e88       ?type_case_s@?$output_processor@DV?$string_output_adapter@D@__crt_stdio_output@@V?$positional_parameter_base@DV?$string_output_adapter@D@__crt_stdio_output@@@2@@__crt_stdio_output@@AAE_NXZ 1003ae88 f i libucrt:output.obj
 0001:00039f25       ?type_case_s@?$output_processor@DV?$string_output_adapter@D@__crt_stdio_output@@V?$standard_base@DV?$string_output_adapter@D@__crt_stdio_output@@@2@@__crt_stdio_output@@AAE_NXZ 1003af25 f i libucrt:output.obj
 0001:00039fb2       ?type_case_s@?$output_processor@_WV?$stream_output_adapter@_W@__crt_stdio_output@@V?$format_validation_base@_WV?$stream_output_adapter@_W@__crt_stdio_output@@@2@@__crt_stdio_output@@AAE_NXZ 1003afb2 f i libucrt:output.obj
 0001:0003a041       ?type_case_s@?$output_processor@_WV?$stream_output_adapter@_W@__crt_stdio_output@@V?$positional_parameter_base@_WV?$stream_output_adapter@_W@__crt_stdio_output@@@2@@__crt_stdio_output@@AAE_NXZ 1003b041 f i libucrt:output.obj
 0001:0003a0e1       ?type_case_s@?$output_processor@_WV?$stream_output_adapter@_W@__crt_stdio_output@@V?$standard_base@_WV?$stream_output_adapter@_W@__crt_stdio_output@@@2@@__crt_stdio_output@@AAE_NXZ 1003b0e1 f i libucrt:output.obj
 0001:0003a170       ?type_case_s@?$output_processor@_WV?$string_output_adapter@_W@__crt_stdio_output@@V?$format_validation_base@_WV?$string_output_adapter@_W@__crt_stdio_output@@@2@@__crt_stdio_output@@AAE_NXZ 1003b170 f i libucrt:output.obj
 0001:0003a1ff       ?type_case_s@?$output_processor@_WV?$string_output_adapter@_W@__crt_stdio_output@@V?$positional_parameter_base@_WV?$string_output_adapter@_W@__crt_stdio_output@@@2@@__crt_stdio_output@@AAE_NXZ 1003b1ff f i libucrt:output.obj
 0001:0003a29f       ?type_case_s@?$output_processor@_WV?$string_output_adapter@_W@__crt_stdio_output@@V?$standard_base@_WV?$string_output_adapter@_W@__crt_stdio_output@@@2@@__crt_stdio_output@@AAE_NXZ 1003b29f f i libucrt:output.obj
 0001:0003a32e       ?type_case_s_compute_narrow_string_length@?$output_processor@DV?$stream_output_adapter@D@__crt_stdio_output@@V?$format_validation_base@DV?$stream_output_adapter@D@__crt_stdio_output@@@2@@__crt_stdio_output@@ABEHHD@Z 1003b32e f i libucrt:output.obj
 0001:0003a349       ?type_case_s_compute_narrow_string_length@?$output_processor@DV?$stream_output_adapter@D@__crt_stdio_output@@V?$positional_parameter_base@DV?$stream_output_adapter@D@__crt_stdio_output@@@2@@__crt_stdio_output@@ABEHHD@Z 1003b349 f i libucrt:output.obj
 0001:0003a364       ?type_case_s_compute_narrow_string_length@?$output_processor@DV?$stream_output_adapter@D@__crt_stdio_output@@V?$standard_base@DV?$stream_output_adapter@D@__crt_stdio_output@@@2@@__crt_stdio_output@@ABEHHD@Z 1003b364 f i libucrt:output.obj
 0001:0003a37f       ?type_case_s_compute_narrow_string_length@?$output_processor@DV?$string_output_adapter@D@__crt_stdio_output@@V?$format_validation_base@DV?$string_output_adapter@D@__crt_stdio_output@@@2@@__crt_stdio_output@@ABEHHD@Z 1003b37f f i libucrt:output.obj
 0001:0003a39a       ?type_case_s_compute_narrow_string_length@?$output_processor@DV?$string_output_adapter@D@__crt_stdio_output@@V?$positional_parameter_base@DV?$string_output_adapter@D@__crt_stdio_output@@@2@@__crt_stdio_output@@ABEHHD@Z 1003b39a f i libucrt:output.obj
 0001:0003a3b5       ?type_case_s_compute_narrow_string_length@?$output_processor@DV?$string_output_adapter@D@__crt_stdio_output@@V?$standard_base@DV?$string_output_adapter@D@__crt_stdio_output@@@2@@__crt_stdio_output@@ABEHHD@Z 1003b3b5 f i libucrt:output.obj
 0001:0003a3d0       ?type_case_s_compute_narrow_string_length@?$output_processor@_WV?$stream_output_adapter@_W@__crt_stdio_output@@V?$format_validation_base@_WV?$stream_output_adapter@_W@__crt_stdio_output@@@2@@__crt_stdio_output@@ABEHH_W@Z 1003b3d0 f i libucrt:output.obj
 0001:0003a41c       ?type_case_s_compute_narrow_string_length@?$output_processor@_WV?$stream_output_adapter@_W@__crt_stdio_output@@V?$positional_parameter_base@_WV?$stream_output_adapter@_W@__crt_stdio_output@@@2@@__crt_stdio_output@@ABEHH_W@Z 1003b41c f i libucrt:output.obj
 0001:0003a468       ?type_case_s_compute_narrow_string_length@?$output_processor@_WV?$stream_output_adapter@_W@__crt_stdio_output@@V?$standard_base@_WV?$stream_output_adapter@_W@__crt_stdio_output@@@2@@__crt_stdio_output@@ABEHH_W@Z 1003b468 f i libucrt:output.obj
 0001:0003a4b4       ?type_case_s_compute_narrow_string_length@?$output_processor@_WV?$string_output_adapter@_W@__crt_stdio_output@@V?$format_validation_base@_WV?$string_output_adapter@_W@__crt_stdio_output@@@2@@__crt_stdio_output@@ABEHH_W@Z 1003b4b4 f i libucrt:output.obj
 0001:0003a500       ?type_case_s_compute_narrow_string_length@?$output_processor@_WV?$string_output_adapter@_W@__crt_stdio_output@@V?$positional_parameter_base@_WV?$string_output_adapter@_W@__crt_stdio_output@@@2@@__crt_stdio_output@@ABEHH_W@Z 1003b500 f i libucrt:output.obj
 0001:0003a54c       ?type_case_s_compute_narrow_string_length@?$output_processor@_WV?$string_output_adapter@_W@__crt_stdio_output@@V?$standard_base@_WV?$string_output_adapter@_W@__crt_stdio_output@@@2@@__crt_stdio_output@@ABEHH_W@Z 1003b54c f i libucrt:output.obj
 0001:0003a598       ?type_case_u@?$output_processor@DV?$stream_output_adapter@D@__crt_stdio_output@@V?$format_validation_base@DV?$stream_output_adapter@D@__crt_stdio_output@@@2@@__crt_stdio_output@@AAE_NXZ 1003b598 f i libucrt:output.obj
 0001:0003a5a4       ?type_case_u@?$output_processor@DV?$stream_output_adapter@D@__crt_stdio_output@@V?$positional_parameter_base@DV?$stream_output_adapter@D@__crt_stdio_output@@@2@@__crt_stdio_output@@AAE_NXZ 1003b5a4 f i libucrt:output.obj
 0001:0003a5b0       ?type_case_u@?$output_processor@DV?$stream_output_adapter@D@__crt_stdio_output@@V?$standard_base@DV?$stream_output_adapter@D@__crt_stdio_output@@@2@@__crt_stdio_output@@AAE_NXZ 1003b5b0 f i libucrt:output.obj
 0001:0003a5bc       ?type_case_u@?$output_processor@DV?$string_output_adapter@D@__crt_stdio_output@@V?$format_validation_base@DV?$string_output_adapter@D@__crt_stdio_output@@@2@@__crt_stdio_output@@AAE_NXZ 1003b5bc f i libucrt:output.obj
 0001:0003a5c8       ?type_case_u@?$output_processor@DV?$string_output_adapter@D@__crt_stdio_output@@V?$positional_parameter_base@DV?$string_output_adapter@D@__crt_stdio_output@@@2@@__crt_stdio_output@@AAE_NXZ 1003b5c8 f i libucrt:output.obj
 0001:0003a5d4       ?type_case_u@?$output_processor@DV?$string_output_adapter@D@__crt_stdio_output@@V?$standard_base@DV?$string_output_adapter@D@__crt_stdio_output@@@2@@__crt_stdio_output@@AAE_NXZ 1003b5d4 f i libucrt:output.obj
 0001:0003a5e0       ?type_case_u@?$output_processor@_WV?$stream_output_adapter@_W@__crt_stdio_output@@V?$format_validation_base@_WV?$stream_output_adapter@_W@__crt_stdio_output@@@2@@__crt_stdio_output@@AAE_NXZ 1003b5e0 f i libucrt:output.obj
 0001:0003a5ec       ?type_case_u@?$output_processor@_WV?$stream_output_adapter@_W@__crt_stdio_output@@V?$positional_parameter_base@_WV?$stream_output_adapter@_W@__crt_stdio_output@@@2@@__crt_stdio_output@@AAE_NXZ 1003b5ec f i libucrt:output.obj
 0001:0003a5f8       ?type_case_u@?$output_processor@_WV?$stream_output_adapter@_W@__crt_stdio_output@@V?$standard_base@_WV?$stream_output_adapter@_W@__crt_stdio_output@@@2@@__crt_stdio_output@@AAE_NXZ 1003b5f8 f i libucrt:output.obj
 0001:0003a604       ?type_case_u@?$output_processor@_WV?$string_output_adapter@_W@__crt_stdio_output@@V?$format_validation_base@_WV?$string_output_adapter@_W@__crt_stdio_output@@@2@@__crt_stdio_output@@AAE_NXZ 1003b604 f i libucrt:output.obj
 0001:0003a610       ?type_case_u@?$output_processor@_WV?$string_output_adapter@_W@__crt_stdio_output@@V?$positional_parameter_base@_WV?$string_output_adapter@_W@__crt_stdio_output@@@2@@__crt_stdio_output@@AAE_NXZ 1003b610 f i libucrt:output.obj
 0001:0003a61c       ?type_case_u@?$output_processor@_WV?$string_output_adapter@_W@__crt_stdio_output@@V?$standard_base@_WV?$string_output_adapter@_W@__crt_stdio_output@@@2@@__crt_stdio_output@@AAE_NXZ 1003b61c f i libucrt:output.obj
 0001:0003a628       ?type_case_x@?$output_processor@DV?$stream_output_adapter@D@__crt_stdio_output@@V?$format_validation_base@DV?$stream_output_adapter@D@__crt_stdio_output@@@2@@__crt_stdio_output@@AAE_NXZ 1003b628 f i libucrt:output.obj
 0001:0003a634       ?type_case_x@?$output_processor@DV?$stream_output_adapter@D@__crt_stdio_output@@V?$positional_parameter_base@DV?$stream_output_adapter@D@__crt_stdio_output@@@2@@__crt_stdio_output@@AAE_NXZ 1003b634 f i libucrt:output.obj
 0001:0003a640       ?type_case_x@?$output_processor@DV?$stream_output_adapter@D@__crt_stdio_output@@V?$standard_base@DV?$stream_output_adapter@D@__crt_stdio_output@@@2@@__crt_stdio_output@@AAE_NXZ 1003b640 f i libucrt:output.obj
 0001:0003a64c       ?type_case_x@?$output_processor@DV?$string_output_adapter@D@__crt_stdio_output@@V?$format_validation_base@DV?$string_output_adapter@D@__crt_stdio_output@@@2@@__crt_stdio_output@@AAE_NXZ 1003b64c f i libucrt:output.obj
 0001:0003a658       ?type_case_x@?$output_processor@DV?$string_output_adapter@D@__crt_stdio_output@@V?$positional_parameter_base@DV?$string_output_adapter@D@__crt_stdio_output@@@2@@__crt_stdio_output@@AAE_NXZ 1003b658 f i libucrt:output.obj
 0001:0003a664       ?type_case_x@?$output_processor@DV?$string_output_adapter@D@__crt_stdio_output@@V?$standard_base@DV?$string_output_adapter@D@__crt_stdio_output@@@2@@__crt_stdio_output@@AAE_NXZ 1003b664 f i libucrt:output.obj
 0001:0003a670       ?type_case_x@?$output_processor@_WV?$stream_output_adapter@_W@__crt_stdio_output@@V?$format_validation_base@_WV?$stream_output_adapter@_W@__crt_stdio_output@@@2@@__crt_stdio_output@@AAE_NXZ 1003b670 f i libucrt:output.obj
 0001:0003a67c       ?type_case_x@?$output_processor@_WV?$stream_output_adapter@_W@__crt_stdio_output@@V?$positional_parameter_base@_WV?$stream_output_adapter@_W@__crt_stdio_output@@@2@@__crt_stdio_output@@AAE_NXZ 1003b67c f i libucrt:output.obj
 0001:0003a688       ?type_case_x@?$output_processor@_WV?$stream_output_adapter@_W@__crt_stdio_output@@V?$standard_base@_WV?$stream_output_adapter@_W@__crt_stdio_output@@@2@@__crt_stdio_output@@AAE_NXZ 1003b688 f i libucrt:output.obj
 0001:0003a694       ?type_case_x@?$output_processor@_WV?$string_output_adapter@_W@__crt_stdio_output@@V?$format_validation_base@_WV?$string_output_adapter@_W@__crt_stdio_output@@@2@@__crt_stdio_output@@AAE_NXZ 1003b694 f i libucrt:output.obj
 0001:0003a6a0       ?type_case_x@?$output_processor@_WV?$string_output_adapter@_W@__crt_stdio_output@@V?$positional_parameter_base@_WV?$string_output_adapter@_W@__crt_stdio_output@@@2@@__crt_stdio_output@@AAE_NXZ 1003b6a0 f i libucrt:output.obj
 0001:0003a6ac       ?type_case_x@?$output_processor@_WV?$string_output_adapter@_W@__crt_stdio_output@@V?$standard_base@_WV?$string_output_adapter@_W@__crt_stdio_output@@@2@@__crt_stdio_output@@AAE_NXZ 1003b6ac f i libucrt:output.obj
 0001:0003a6b8       ?unset_flag@?$output_processor@DV?$stream_output_adapter@D@__crt_stdio_output@@V?$format_validation_base@DV?$stream_output_adapter@D@__crt_stdio_output@@@2@@__crt_stdio_output@@AAEXI@Z 1003b6b8 f i libucrt:output.obj
 0001:0003a6cd       ?unset_flag@?$output_processor@DV?$stream_output_adapter@D@__crt_stdio_output@@V?$positional_parameter_base@DV?$stream_output_adapter@D@__crt_stdio_output@@@2@@__crt_stdio_output@@AAEXI@Z 1003b6cd f i libucrt:output.obj
 0001:0003a6e2       ?unset_flag@?$output_processor@DV?$stream_output_adapter@D@__crt_stdio_output@@V?$standard_base@DV?$stream_output_adapter@D@__crt_stdio_output@@@2@@__crt_stdio_output@@AAEXI@Z 1003b6e2 f i libucrt:output.obj
 0001:0003a6f7       ?unset_flag@?$output_processor@DV?$string_output_adapter@D@__crt_stdio_output@@V?$format_validation_base@DV?$string_output_adapter@D@__crt_stdio_output@@@2@@__crt_stdio_output@@AAEXI@Z 1003b6f7 f i libucrt:output.obj
 0001:0003a70c       ?unset_flag@?$output_processor@DV?$string_output_adapter@D@__crt_stdio_output@@V?$positional_parameter_base@DV?$string_output_adapter@D@__crt_stdio_output@@@2@@__crt_stdio_output@@AAEXI@Z 1003b70c f i libucrt:output.obj
 0001:0003a721       ?unset_flag@?$output_processor@DV?$string_output_adapter@D@__crt_stdio_output@@V?$standard_base@DV?$string_output_adapter@D@__crt_stdio_output@@@2@@__crt_stdio_output@@AAEXI@Z 1003b721 f i libucrt:output.obj
 0001:0003a736       ?unset_flag@?$output_processor@_WV?$stream_output_adapter@_W@__crt_stdio_output@@V?$format_validation_base@_WV?$stream_output_adapter@_W@__crt_stdio_output@@@2@@__crt_stdio_output@@AAEXI@Z 1003b736 f i libucrt:output.obj
 0001:0003a74b       ?unset_flag@?$output_processor@_WV?$stream_output_adapter@_W@__crt_stdio_output@@V?$positional_parameter_base@_WV?$stream_output_adapter@_W@__crt_stdio_output@@@2@@__crt_stdio_output@@AAEXI@Z 1003b74b f i libucrt:output.obj
 0001:0003a760       ?unset_flag@?$output_processor@_WV?$stream_output_adapter@_W@__crt_stdio_output@@V?$standard_base@_WV?$stream_output_adapter@_W@__crt_stdio_output@@@2@@__crt_stdio_output@@AAEXI@Z 1003b760 f i libucrt:output.obj
 0001:0003a775       ?unset_flag@?$output_processor@_WV?$string_output_adapter@_W@__crt_stdio_output@@V?$format_validation_base@_WV?$string_output_adapter@_W@__crt_stdio_output@@@2@@__crt_stdio_output@@AAEXI@Z 1003b775 f i libucrt:output.obj
 0001:0003a78a       ?unset_flag@?$output_processor@_WV?$string_output_adapter@_W@__crt_stdio_output@@V?$positional_parameter_base@_WV?$string_output_adapter@_W@__crt_stdio_output@@@2@@__crt_stdio_output@@AAEXI@Z 1003b78a f i libucrt:output.obj
 0001:0003a79f       ?unset_flag@?$output_processor@_WV?$string_output_adapter@_W@__crt_stdio_output@@V?$standard_base@_WV?$string_output_adapter@_W@__crt_stdio_output@@@2@@__crt_stdio_output@@AAEXI@Z 1003b79f f i libucrt:output.obj
 0001:0003a7b4       ?update_field_width@?$positional_parameter_base@DV?$stream_output_adapter@D@__crt_stdio_output@@@__crt_stdio_output@@IAE_NXZ 1003b7b4 f i libucrt:output.obj
 0001:0003a897       ?update_field_width@?$positional_parameter_base@DV?$string_output_adapter@D@__crt_stdio_output@@@__crt_stdio_output@@IAE_NXZ 1003b897 f i libucrt:output.obj
 0001:0003a97a       ?update_field_width@?$positional_parameter_base@_WV?$stream_output_adapter@_W@__crt_stdio_output@@@__crt_stdio_output@@IAE_NXZ 1003b97a f i libucrt:output.obj
 0001:0003aa5e       ?update_field_width@?$positional_parameter_base@_WV?$string_output_adapter@_W@__crt_stdio_output@@@__crt_stdio_output@@IAE_NXZ 1003ba5e f i libucrt:output.obj
 0001:0003ab42       ?update_field_width@?$standard_base@DV?$stream_output_adapter@D@__crt_stdio_output@@@__crt_stdio_output@@IAE_NXZ 1003bb42 f i libucrt:output.obj
 0001:0003ab56       ?update_field_width@?$standard_base@DV?$string_output_adapter@D@__crt_stdio_output@@@__crt_stdio_output@@IAE_NXZ 1003bb56 f i libucrt:output.obj
 0001:0003ab6a       ?update_field_width@?$standard_base@_WV?$stream_output_adapter@_W@__crt_stdio_output@@@__crt_stdio_output@@IAE_NXZ 1003bb6a f i libucrt:output.obj
 0001:0003ab7e       ?update_field_width@?$standard_base@_WV?$string_output_adapter@_W@__crt_stdio_output@@@__crt_stdio_output@@IAE_NXZ 1003bb7e f i libucrt:output.obj
 0001:0003ab92       ?update_precision@?$positional_parameter_base@DV?$stream_output_adapter@D@__crt_stdio_output@@@__crt_stdio_output@@IAE_NXZ 1003bb92 f i libucrt:output.obj
 0001:0003ac75       ?update_precision@?$positional_parameter_base@DV?$string_output_adapter@D@__crt_stdio_output@@@__crt_stdio_output@@IAE_NXZ 1003bc75 f i libucrt:output.obj
 0001:0003ad58       ?update_precision@?$positional_parameter_base@_WV?$stream_output_adapter@_W@__crt_stdio_output@@@__crt_stdio_output@@IAE_NXZ 1003bd58 f i libucrt:output.obj
 0001:0003ae3c       ?update_precision@?$positional_parameter_base@_WV?$string_output_adapter@_W@__crt_stdio_output@@@__crt_stdio_output@@IAE_NXZ 1003be3c f i libucrt:output.obj
 0001:0003af20       ?update_precision@?$standard_base@DV?$stream_output_adapter@D@__crt_stdio_output@@@__crt_stdio_output@@IAE_NXZ 1003bf20 f i libucrt:output.obj
 0001:0003af34       ?update_precision@?$standard_base@DV?$string_output_adapter@D@__crt_stdio_output@@@__crt_stdio_output@@IAE_NXZ 1003bf34 f i libucrt:output.obj
 0001:0003af48       ?update_precision@?$standard_base@_WV?$stream_output_adapter@_W@__crt_stdio_output@@@__crt_stdio_output@@IAE_NXZ 1003bf48 f i libucrt:output.obj
 0001:0003af5c       ?update_precision@?$standard_base@_WV?$string_output_adapter@_W@__crt_stdio_output@@@__crt_stdio_output@@IAE_NXZ 1003bf5c f i libucrt:output.obj
 0001:0003af70       ?validate@?$stream_output_adapter@D@__crt_stdio_output@@QBE_NXZ 1003bf70 f i libucrt:output.obj
 0001:0003af99       ?validate@?$stream_output_adapter@_W@__crt_stdio_output@@QBE_NXZ 1003bf99 f i libucrt:output.obj
 0001:0003afba       ?validate@?$string_output_adapter@D@__crt_stdio_output@@QBE_NXZ 1003bfba f i libucrt:output.obj
 0001:0003afdb       ?validate@?$string_output_adapter@_W@__crt_stdio_output@@QBE_NXZ 1003bfdb f i libucrt:output.obj
 0001:0003affc       ?validate_and_store_parameter_data@?$positional_parameter_base@DV?$stream_output_adapter@D@__crt_stdio_output@@@__crt_stdio_output@@AAE_NAAUparameter_data@12@W4parameter_type@12@DW4length_modifier@2@@Z 1003bffc f i libucrt:output.obj
 0001:0003b059       ?validate_and_store_parameter_data@?$positional_parameter_base@DV?$string_output_adapter@D@__crt_stdio_output@@@__crt_stdio_output@@AAE_NAAUparameter_data@12@W4parameter_type@12@DW4length_modifier@2@@Z 1003c059 f i libucrt:output.obj
 0001:0003b0b6       ?validate_and_store_parameter_data@?$positional_parameter_base@_WV?$stream_output_adapter@_W@__crt_stdio_output@@@__crt_stdio_output@@AAE_NAAUparameter_data@12@W4parameter_type@12@_WW4length_modifier@2@@Z 1003c0b6 f i libucrt:output.obj
 0001:0003b116       ?validate_and_store_parameter_data@?$positional_parameter_base@_WV?$string_output_adapter@_W@__crt_stdio_output@@@__crt_stdio_output@@AAE_NAAUparameter_data@12@W4parameter_type@12@_WW4length_modifier@2@@Z 1003c116 f i libucrt:output.obj
 0001:0003b176       ?validate_and_update_state_at_beginning_of_format_character@?$positional_parameter_base@DV?$stream_output_adapter@D@__crt_stdio_output@@@__crt_stdio_output@@IAE_NXZ 1003c176 f i libucrt:output.obj
 0001:0003b2ae       ?validate_and_update_state_at_beginning_of_format_character@?$positional_parameter_base@DV?$string_output_adapter@D@__crt_stdio_output@@@__crt_stdio_output@@IAE_NXZ 1003c2ae f i libucrt:output.obj
 0001:0003b3e6       ?validate_and_update_state_at_beginning_of_format_character@?$positional_parameter_base@_WV?$stream_output_adapter@_W@__crt_stdio_output@@@__crt_stdio_output@@IAE_NXZ 1003c3e6 f i libucrt:output.obj
 0001:0003b529       ?validate_and_update_state_at_beginning_of_format_character@?$positional_parameter_base@_WV?$string_output_adapter@_W@__crt_stdio_output@@@__crt_stdio_output@@IAE_NXZ 1003c529 f i libucrt:output.obj
 0001:0003b66c       ?validate_and_update_state_at_beginning_of_format_character@?$standard_base@DV?$stream_output_adapter@D@__crt_stdio_output@@@__crt_stdio_output@@IAE_NXZ 1003c66c f i libucrt:output.obj
 0001:0003b66f       ?validate_and_update_state_at_beginning_of_format_character@?$standard_base@DV?$string_output_adapter@D@__crt_stdio_output@@@__crt_stdio_output@@IAE_NXZ 1003c66f f i libucrt:output.obj
 0001:0003b672       ?validate_and_update_state_at_beginning_of_format_character@?$standard_base@_WV?$stream_output_adapter@_W@__crt_stdio_output@@@__crt_stdio_output@@IAE_NXZ 1003c672 f i libucrt:output.obj
 0001:0003b675       ?validate_and_update_state_at_beginning_of_format_character@?$standard_base@_WV?$string_output_adapter@_W@__crt_stdio_output@@@__crt_stdio_output@@IAE_NXZ 1003c675 f i libucrt:output.obj
 0001:0003b678       ?validate_and_update_state_at_end_of_format_string@?$format_validation_base@DV?$stream_output_adapter@D@__crt_stdio_output@@@__crt_stdio_output@@IBE_NXZ 1003c678 f i libucrt:output.obj
 0001:0003b6a2       ?validate_and_update_state_at_end_of_format_string@?$format_validation_base@DV?$string_output_adapter@D@__crt_stdio_output@@@__crt_stdio_output@@IBE_NXZ 1003c6a2 f i libucrt:output.obj
 0001:0003b6cc       ?validate_and_update_state_at_end_of_format_string@?$format_validation_base@_WV?$stream_output_adapter@_W@__crt_stdio_output@@@__crt_stdio_output@@IBE_NXZ 1003c6cc f i libucrt:output.obj
 0001:0003b6f6       ?validate_and_update_state_at_end_of_format_string@?$format_validation_base@_WV?$string_output_adapter@_W@__crt_stdio_output@@@__crt_stdio_output@@IBE_NXZ 1003c6f6 f i libucrt:output.obj
 0001:0003b720       ?validate_and_update_state_at_end_of_format_string@?$positional_parameter_base@DV?$stream_output_adapter@D@__crt_stdio_output@@@__crt_stdio_output@@IAE_NXZ 1003c720 f i libucrt:output.obj
 0001:0003b7c6       ?validate_and_update_state_at_end_of_format_string@?$positional_parameter_base@DV?$string_output_adapter@D@__crt_stdio_output@@@__crt_stdio_output@@IAE_NXZ 1003c7c6 f i libucrt:output.obj
 0001:0003b86c       ?validate_and_update_state_at_end_of_format_string@?$positional_parameter_base@_WV?$stream_output_adapter@_W@__crt_stdio_output@@@__crt_stdio_output@@IAE_NXZ 1003c86c f i libucrt:output.obj
 0001:0003b912       ?validate_and_update_state_at_end_of_format_string@?$positional_parameter_base@_WV?$string_output_adapter@_W@__crt_stdio_output@@@__crt_stdio_output@@IAE_NXZ 1003c912 f i libucrt:output.obj
 0001:0003b9b8       ?validate_and_update_state_at_end_of_format_string@?$standard_base@DV?$stream_output_adapter@D@__crt_stdio_output@@@__crt_stdio_output@@IBE_NXZ 1003c9b8 f i libucrt:output.obj
 0001:0003b9bb       ?validate_and_update_state_at_end_of_format_string@?$standard_base@DV?$string_output_adapter@D@__crt_stdio_output@@@__crt_stdio_output@@IBE_NXZ 1003c9bb f i libucrt:output.obj
 0001:0003b9be       ?validate_and_update_state_at_end_of_format_string@?$standard_base@_WV?$stream_output_adapter@_W@__crt_stdio_output@@@__crt_stdio_output@@IBE_NXZ 1003c9be f i libucrt:output.obj
 0001:0003b9c1       ?validate_and_update_state_at_end_of_format_string@?$standard_base@_WV?$string_output_adapter@_W@__crt_stdio_output@@@__crt_stdio_output@@IBE_NXZ 1003c9c1 f i libucrt:output.obj
 0001:0003b9c4       ?validate_state_for_type_case_a@?$positional_parameter_base@DV?$stream_output_adapter@D@__crt_stdio_output@@@__crt_stdio_output@@IAE_NXZ 1003c9c4 f i libucrt:output.obj
 0001:0003ba26       ?validate_state_for_type_case_a@?$positional_parameter_base@DV?$string_output_adapter@D@__crt_stdio_output@@@__crt_stdio_output@@IAE_NXZ 1003ca26 f i libucrt:output.obj
 0001:0003ba88       ?validate_state_for_type_case_a@?$positional_parameter_base@_WV?$stream_output_adapter@_W@__crt_stdio_output@@@__crt_stdio_output@@IAE_NXZ 1003ca88 f i libucrt:output.obj
 0001:0003baea       ?validate_state_for_type_case_a@?$positional_parameter_base@_WV?$string_output_adapter@_W@__crt_stdio_output@@@__crt_stdio_output@@IAE_NXZ 1003caea f i libucrt:output.obj
 0001:0003bb4c       ?validate_state_for_type_case_a@?$standard_base@DV?$stream_output_adapter@D@__crt_stdio_output@@@__crt_stdio_output@@IBE_NXZ 1003cb4c f i libucrt:output.obj
 0001:0003bb4f       ?validate_state_for_type_case_a@?$standard_base@DV?$string_output_adapter@D@__crt_stdio_output@@@__crt_stdio_output@@IBE_NXZ 1003cb4f f i libucrt:output.obj
 0001:0003bb52       ?validate_state_for_type_case_a@?$standard_base@_WV?$stream_output_adapter@_W@__crt_stdio_output@@@__crt_stdio_output@@IBE_NXZ 1003cb52 f i libucrt:output.obj
 0001:0003bb55       ?validate_state_for_type_case_a@?$standard_base@_WV?$string_output_adapter@_W@__crt_stdio_output@@@__crt_stdio_output@@IBE_NXZ 1003cb55 f i libucrt:output.obj
 0001:0003bb58       ?validate_stream_is_ansi_if_required@?$__acrt_stdio_char_traits@D@@SA_NQAU_iobuf@@@Z 1003cb58 f i libucrt:output.obj
 0001:0003bbff       ?validate_stream_is_ansi_if_required@?$__acrt_stdio_char_traits@_W@@SA_NQAU_iobuf@@@Z 1003cbff f i libucrt:output.obj
 0001:0003bc02       ?wide_null_string@?$output_processor@DV?$stream_output_adapter@D@__crt_stdio_output@@V?$format_validation_base@DV?$stream_output_adapter@D@__crt_stdio_output@@@2@@__crt_stdio_output@@CAPA_WXZ 1003cc02 f i libucrt:output.obj
 0001:0003bc08       ?wide_null_string@?$output_processor@DV?$stream_output_adapter@D@__crt_stdio_output@@V?$positional_parameter_base@DV?$stream_output_adapter@D@__crt_stdio_output@@@2@@__crt_stdio_output@@CAPA_WXZ 1003cc08 f i libucrt:output.obj
 0001:0003bc0e       ?wide_null_string@?$output_processor@DV?$stream_output_adapter@D@__crt_stdio_output@@V?$standard_base@DV?$stream_output_adapter@D@__crt_stdio_output@@@2@@__crt_stdio_output@@CAPA_WXZ 1003cc0e f i libucrt:output.obj
 0001:0003bc14       ?wide_null_string@?$output_processor@DV?$string_output_adapter@D@__crt_stdio_output@@V?$format_validation_base@DV?$string_output_adapter@D@__crt_stdio_output@@@2@@__crt_stdio_output@@CAPA_WXZ 1003cc14 f i libucrt:output.obj
 0001:0003bc1a       ?wide_null_string@?$output_processor@DV?$string_output_adapter@D@__crt_stdio_output@@V?$positional_parameter_base@DV?$string_output_adapter@D@__crt_stdio_output@@@2@@__crt_stdio_output@@CAPA_WXZ 1003cc1a f i libucrt:output.obj
 0001:0003bc20       ?wide_null_string@?$output_processor@DV?$string_output_adapter@D@__crt_stdio_output@@V?$standard_base@DV?$string_output_adapter@D@__crt_stdio_output@@@2@@__crt_stdio_output@@CAPA_WXZ 1003cc20 f i libucrt:output.obj
 0001:0003bc26       ?wide_null_string@?$output_processor@_WV?$stream_output_adapter@_W@__crt_stdio_output@@V?$format_validation_base@_WV?$stream_output_adapter@_W@__crt_stdio_output@@@2@@__crt_stdio_output@@CAPA_WXZ 1003cc26 f i libucrt:output.obj
 0001:0003bc2c       ?wide_null_string@?$output_processor@_WV?$stream_output_adapter@_W@__crt_stdio_output@@V?$positional_parameter_base@_WV?$stream_output_adapter@_W@__crt_stdio_output@@@2@@__crt_stdio_output@@CAPA_WXZ 1003cc2c f i libucrt:output.obj
 0001:0003bc32       ?wide_null_string@?$output_processor@_WV?$stream_output_adapter@_W@__crt_stdio_output@@V?$standard_base@_WV?$stream_output_adapter@_W@__crt_stdio_output@@@2@@__crt_stdio_output@@CAPA_WXZ 1003cc32 f i libucrt:output.obj
 0001:0003bc38       ?wide_null_string@?$output_processor@_WV?$string_output_adapter@_W@__crt_stdio_output@@V?$format_validation_base@_WV?$string_output_adapter@_W@__crt_stdio_output@@@2@@__crt_stdio_output@@CAPA_WXZ 1003cc38 f i libucrt:output.obj
 0001:0003bc3e       ?wide_null_string@?$output_processor@_WV?$string_output_adapter@_W@__crt_stdio_output@@V?$positional_parameter_base@_WV?$string_output_adapter@_W@__crt_stdio_output@@@2@@__crt_stdio_output@@CAPA_WXZ 1003cc3e f i libucrt:output.obj
 0001:0003bc44       ?wide_null_string@?$output_processor@_WV?$string_output_adapter@_W@__crt_stdio_output@@V?$standard_base@_WV?$string_output_adapter@_W@__crt_stdio_output@@@2@@__crt_stdio_output@@CAPA_WXZ 1003cc44 f i libucrt:output.obj
 0001:0003bc4a       ?write_character@?$output_adapter_common@DV?$stream_output_adapter@D@__crt_stdio_output@@@__crt_stdio_output@@QBEXDQAH@Z 1003cc4a f i libucrt:output.obj
 0001:0003bc70       ?write_character@?$output_adapter_common@_WV?$stream_output_adapter@_W@__crt_stdio_output@@@__crt_stdio_output@@QBEX_WQAH@Z 1003cc70 f i libucrt:output.obj
 0001:0003bc96       ?write_character@?$string_output_adapter@D@__crt_stdio_output@@QBE_NDQAH@Z 1003cc96 f i libucrt:output.obj
 0001:0003bce8       ?write_character@?$string_output_adapter@_W@__crt_stdio_output@@QBE_N_WQAH@Z 1003cce8 f i libucrt:output.obj
 0001:0003bd3e       ?write_character_without_count_update@?$stream_output_adapter@D@__crt_stdio_output@@QBE_ND@Z 1003cd3e f i libucrt:output.obj
 0001:0003bd80       ?write_character_without_count_update@?$stream_output_adapter@_W@__crt_stdio_output@@QBE_N_W@Z 1003cd80 f i libucrt:output.obj
 0001:0003bdc6       ?write_stored_string_tchar@?$output_processor@DV?$stream_output_adapter@D@__crt_stdio_output@@V?$format_validation_base@DV?$stream_output_adapter@D@__crt_stdio_output@@@2@@__crt_stdio_output@@AAE_ND@Z 1003cdc6 f i libucrt:output.obj
 0001:0003be99       ?write_stored_string_tchar@?$output_processor@DV?$stream_output_adapter@D@__crt_stdio_output@@V?$positional_parameter_base@DV?$stream_output_adapter@D@__crt_stdio_output@@@2@@__crt_stdio_output@@AAE_ND@Z 1003ce99 f i libucrt:output.obj
 0001:0003bf6c       ?write_stored_string_tchar@?$output_processor@DV?$stream_output_adapter@D@__crt_stdio_output@@V?$standard_base@DV?$stream_output_adapter@D@__crt_stdio_output@@@2@@__crt_stdio_output@@AAE_ND@Z 1003cf6c f i libucrt:output.obj
 0001:0003c03f       ?write_stored_string_tchar@?$output_processor@DV?$string_output_adapter@D@__crt_stdio_output@@V?$format_validation_base@DV?$string_output_adapter@D@__crt_stdio_output@@@2@@__crt_stdio_output@@AAE_ND@Z 1003d03f f i libucrt:output.obj
 0001:0003c112       ?write_stored_string_tchar@?$output_processor@DV?$string_output_adapter@D@__crt_stdio_output@@V?$positional_parameter_base@DV?$string_output_adapter@D@__crt_stdio_output@@@2@@__crt_stdio_output@@AAE_ND@Z 1003d112 f i libucrt:output.obj
 0001:0003c1e5       ?write_stored_string_tchar@?$output_processor@DV?$string_output_adapter@D@__crt_stdio_output@@V?$standard_base@DV?$string_output_adapter@D@__crt_stdio_output@@@2@@__crt_stdio_output@@AAE_ND@Z 1003d1e5 f i libucrt:output.obj
 0001:0003c2b8       ?write_stored_string_tchar@?$output_processor@_WV?$stream_output_adapter@_W@__crt_stdio_output@@V?$format_validation_base@_WV?$stream_output_adapter@_W@__crt_stdio_output@@@2@@__crt_stdio_output@@AAE_N_W@Z 1003d2b8 f i libucrt:output.obj
 0001:0003c372       ?write_stored_string_tchar@?$output_processor@_WV?$stream_output_adapter@_W@__crt_stdio_output@@V?$positional_parameter_base@_WV?$stream_output_adapter@_W@__crt_stdio_output@@@2@@__crt_stdio_output@@AAE_N_W@Z 1003d372 f i libucrt:output.obj
 0001:0003c42c       ?write_stored_string_tchar@?$output_processor@_WV?$stream_output_adapter@_W@__crt_stdio_output@@V?$standard_base@_WV?$stream_output_adapter@_W@__crt_stdio_output@@@2@@__crt_stdio_output@@AAE_N_W@Z 1003d42c f i libucrt:output.obj
 0001:0003c4e6       ?write_stored_string_tchar@?$output_processor@_WV?$string_output_adapter@_W@__crt_stdio_output@@V?$format_validation_base@_WV?$string_output_adapter@_W@__crt_stdio_output@@@2@@__crt_stdio_output@@AAE_N_W@Z 1003d4e6 f i libucrt:output.obj
 0001:0003c5a0       ?write_stored_string_tchar@?$output_processor@_WV?$string_output_adapter@_W@__crt_stdio_output@@V?$positional_parameter_base@_WV?$string_output_adapter@_W@__crt_stdio_output@@@2@@__crt_stdio_output@@AAE_N_W@Z 1003d5a0 f i libucrt:output.obj
 0001:0003c65a       ?write_stored_string_tchar@?$output_processor@_WV?$string_output_adapter@_W@__crt_stdio_output@@V?$standard_base@_WV?$string_output_adapter@_W@__crt_stdio_output@@@2@@__crt_stdio_output@@AAE_N_W@Z 1003d65a f i libucrt:output.obj
 0001:0003c714       ?write_string@?$stream_output_adapter@D@__crt_stdio_output@@QBEXQBDHQAHAAV__crt_deferred_errno_cache@@@Z 1003d714 f i libucrt:output.obj
 0001:0003c749       ?write_string@?$stream_output_adapter@_W@__crt_stdio_output@@QBEXQB_WHQAHAAV__crt_deferred_errno_cache@@@Z 1003d749 f i libucrt:output.obj
 0001:0003c77e       ?write_string@?$string_output_adapter@D@__crt_stdio_output@@QBEXQBDHQAHAAV__crt_deferred_errno_cache@@@Z 1003d77e f i libucrt:output.obj
 0001:0003c7fe       ?write_string@?$string_output_adapter@_W@__crt_stdio_output@@QBEXQB_WHQAHAAV__crt_deferred_errno_cache@@@Z 1003d7fe f i libucrt:output.obj
 0001:0003c88d       ?write_string_impl@?$output_adapter_common@DV?$stream_output_adapter@D@__crt_stdio_output@@@__crt_stdio_output@@IBEXQBDHQAHAAV__crt_deferred_errno_cache@@@Z 1003d88d f i libucrt:output.obj
 0001:0003c955       ?write_string_impl@?$output_adapter_common@_WV?$stream_output_adapter@_W@__crt_stdio_output@@@__crt_stdio_output@@IBEXQB_WHQAHAAV__crt_deferred_errno_cache@@@Z 1003d955 f i libucrt:output.obj
 0001:0003ca20       ___acrt_isleadbyte_l_noupdate 1003da20 f i libucrt:output.obj
 0001:0003ca41       ___stdio_common_vfprintf   1003da41 f   libucrt:output.obj
 0001:0003cae7       ___stdio_common_vfprintf_p 1003dae7 f   libucrt:output.obj
 0001:0003cb8d       ___stdio_common_vfprintf_s 1003db8d f   libucrt:output.obj
 0001:0003cc33       ___stdio_common_vfwprintf  1003dc33 f   libucrt:output.obj
 0001:0003ccd9       ___stdio_common_vfwprintf_p 1003dcd9 f   libucrt:output.obj
 0001:0003cd7f       ___stdio_common_vfwprintf_s 1003dd7f f   libucrt:output.obj
 0001:0003ce25       ___stdio_common_vsnprintf_s 1003de25 f   libucrt:output.obj
 0001:0003ce55       ___stdio_common_vsnwprintf_s 1003de55 f   libucrt:output.obj
 0001:0003ce85       ___stdio_common_vsprintf   1003de85 f   libucrt:output.obj
 0001:0003ceb2       ___stdio_common_vsprintf_p 1003deb2 f   libucrt:output.obj
 0001:0003cedf       ___stdio_common_vsprintf_s 1003dedf f   libucrt:output.obj
 0001:0003cf0c       ___stdio_common_vswprintf  1003df0c f   libucrt:output.obj
 0001:0003cf39       ___stdio_common_vswprintf_p 1003df39 f   libucrt:output.obj
 0001:0003cf66       ___stdio_common_vswprintf_s 1003df66 f   libucrt:output.obj
 0001:0003cf93       _ldexp                     1003df93 f   libucrt:ldexp.obj
 0001:0003d20c       __errcode                  1003e20c f   libucrt:fpexcept.obj
 0001:0003d24d       __except1                  1003e24d f   libucrt:fpexcept.obj
 0001:0003d34e       __except2                  1003e34e f   libucrt:fpexcept.obj
 0001:0003d497       __handle_exc               1003e497 f   libucrt:fpexcept.obj
 0001:0003d6ff       __handle_qnan2             1003e6ff f   libucrt:fpexcept.obj
 0001:0003d70f       __raise_exc                1003e70f f   libucrt:fpexcept.obj
 0001:0003d73a       __raise_exc_ex             1003e73a f   libucrt:fpexcept.obj
 0001:0003daed       __raise_excf               1003eaed f   libucrt:fpexcept.obj
 0001:0003db18       __set_errno_from_matherr   1003eb18 f   libucrt:fpexcept.obj
 0001:0003db52       __umatherr                 1003eb52 f   libucrt:fpexcept.obj
 0001:0003dc1c       __initterm                 1003ec1c f   libucrt:initterm.obj
 0001:0003dc8f       __initterm_e               1003ec8f f   libucrt:initterm.obj
 0001:0003dd12       __seh_filter_dll           1003ed12 f   libucrt:exception_filter.obj
 0001:0003dd3a       __seh_filter_exe           1003ed3a f   libucrt:exception_filter.obj
 0001:0003def9       ??$?RE@__crt_internal_free_policy@@QBEXQBE@Z 1003eef9 f i libucrt:argv_parsing.obj
 0001:0003df0f       ??$?RPAD@__crt_internal_free_policy@@QBEXQBQAD@Z 1003ef0f f i libucrt:argv_parsing.obj
 0001:0003df25       ??$?RPA_W@__crt_internal_free_policy@@QBEXQBQA_W@Z 1003ef25 f i libucrt:argv_parsing.obj
 0001:0003e23e       ??$get_module_file_name@$$TAAY0BAF@DH@?$__crt_char_traits@D@@SAK$$QA$$TAAY0BAF@D$$QAH@Z 1003f23e f i libucrt:argv_parsing.obj
 0001:0003e261       ??$get_module_file_name@$$TAAY0BAF@_WH@?$__crt_char_traits@_W@@SAK$$QA$$TAAY0BAF@_W$$QAH@Z 1003f261 f i libucrt:argv_parsing.obj
 0001:0003e654       ??$set_program_name@PAD@?$__crt_char_traits@D@@SAX$$QAPAD@Z 1003f654 f i libucrt:argv_parsing.obj
 0001:0003e669       ??$set_program_name@PA_W@?$__crt_char_traits@_W@@SAX$$QAPA_W@Z 1003f669 f i libucrt:argv_parsing.obj
 0001:0003e6a6       ??0?$__crt_unique_heap_ptr@EU__crt_internal_free_policy@@@@QAE@QAE@Z 1003f6a6 f i libucrt:argv_parsing.obj
 0001:0003e6ba       ??0?$__crt_unique_heap_ptr@PADU__crt_internal_free_policy@@@@QAE@QAPAD@Z 1003f6ba f i libucrt:argv_parsing.obj
 0001:0003e6ce       ??0?$__crt_unique_heap_ptr@PA_WU__crt_internal_free_policy@@@@QAE@QAPA_W@Z 1003f6ce f i libucrt:argv_parsing.obj
 0001:0003e6e2       ??1?$__crt_unique_heap_ptr@EU__crt_internal_free_policy@@@@QAE@XZ 1003f6e2 f i libucrt:argv_parsing.obj
 0001:0003e6f8       ??1?$__crt_unique_heap_ptr@PADU__crt_internal_free_policy@@@@QAE@XZ 1003f6f8 f i libucrt:argv_parsing.obj
 0001:0003e70e       ??1?$__crt_unique_heap_ptr@PA_WU__crt_internal_free_policy@@@@QAE@XZ 1003f70e f i libucrt:argv_parsing.obj
 0001:0003e724       ??B?$__crt_unique_heap_ptr@EU__crt_internal_free_policy@@@@QBE_NXZ 1003f724 f i libucrt:argv_parsing.obj
 0001:0003e761       ?detach@?$__crt_unique_heap_ptr@EU__crt_internal_free_policy@@@@QAEPAEXZ 1003f761 f i libucrt:argv_parsing.obj
 0001:0003e767       ?detach@?$__crt_unique_heap_ptr@PADU__crt_internal_free_policy@@@@QAEPAPADXZ 1003f767 f i libucrt:argv_parsing.obj
 0001:0003e76d       ?detach@?$__crt_unique_heap_ptr@PA_WU__crt_internal_free_policy@@@@QAEPAPA_WXZ 1003f76d f i libucrt:argv_parsing.obj
 0001:0003e793       ?get@?$__crt_unique_heap_ptr@EU__crt_internal_free_policy@@@@QBEPAEXZ 1003f793 f i libucrt:argv_parsing.obj
 0001:0003e796       ?get@?$__crt_unique_heap_ptr@PADU__crt_internal_free_policy@@@@QBEPAPADXZ 1003f796 f i libucrt:argv_parsing.obj
 0001:0003e799       ?get@?$__crt_unique_heap_ptr@PA_WU__crt_internal_free_policy@@@@QBEPAPA_WXZ 1003f799 f i libucrt:argv_parsing.obj
 0001:0003e79c       ?get_address_of@?$__crt_unique_heap_ptr@PADU__crt_internal_free_policy@@@@QAEPAPAPADXZ 1003f79c f i libucrt:argv_parsing.obj
 0001:0003e79f       ?get_address_of@?$__crt_unique_heap_ptr@PA_WU__crt_internal_free_policy@@@@QAEPAPAPA_WXZ 1003f79f f i libucrt:argv_parsing.obj
 0001:0003e7ba       ?is_valid@?$__crt_unique_heap_ptr@EU__crt_internal_free_policy@@@@QBE_NXZ 1003f7ba f i libucrt:argv_parsing.obj
 0001:0003e7c1       ?release@?$__crt_unique_heap_ptr@EU__crt_internal_free_policy@@@@QAEXXZ 1003f7c1 f i libucrt:argv_parsing.obj
 0001:0003e7d7       ?release@?$__crt_unique_heap_ptr@PADU__crt_internal_free_policy@@@@QAEXXZ 1003f7d7 f i libucrt:argv_parsing.obj
 0001:0003e7ed       ?release@?$__crt_unique_heap_ptr@PA_WU__crt_internal_free_policy@@@@QAEXXZ 1003f7ed f i libucrt:argv_parsing.obj
 0001:0003e822       ___acrt_allocate_buffer_for_argv 1003f822 f   libucrt:argv_parsing.obj
 0001:0003e884       __configure_narrow_argv    1003f884 f   libucrt:argv_parsing.obj
 0001:0003e891       __configure_wide_argv      1003f891 f   libucrt:argv_parsing.obj
 0001:0003e89e       __set_pgmptr               1003f89e f i libucrt:argv_parsing.obj
 0001:0003e8b0       __set_wpgmptr              1003f8b0 f i libucrt:argv_parsing.obj
 0001:0003e8c2       ??$?R_W@__crt_internal_free_policy@@QBEXQB_W@Z 1003f8c2 f i libucrt:environment_initialization.obj
 0001:0003eda8       ??$get_environment_from_os@$$V@?$__crt_char_traits@D@@SAPADXZ 1003fda8 f i libucrt:environment_initialization.obj
 0001:0003edad       ??$get_environment_from_os@$$V@?$__crt_char_traits@_W@@SAPA_WXZ 1003fdad f i libucrt:environment_initialization.obj
 0001:0003eefe       ??$set_variable_in_environment_nolock@PADH@?$__crt_char_traits@D@@SAH$$QAPAD$$QAH@Z 1003fefe f i libucrt:environment_initialization.obj
 0001:0003ef1c       ??$set_variable_in_environment_nolock@PA_WH@?$__crt_char_traits@_W@@SAH$$QAPA_W$$QAH@Z 1003ff1c f i libucrt:environment_initialization.obj
 0001:0003ef3a       ??$tcscpy_s@PADABIAAPAD@?$__crt_char_traits@D@@SAH$$QAPADABIAAPAD@Z 1003ff3a f i libucrt:environment_initialization.obj
 0001:0003ef5f       ??$tcscpy_s@PA_WABIAAPA_W@?$__crt_char_traits@_W@@SAH$$QAPA_WABIAAPA_W@Z 1003ff5f f i libucrt:environment_initialization.obj
 0001:0003ef84       ??$tcslen@AAPAD@?$__crt_char_traits@D@@SAIAAPAD@Z 1003ff84 f i libucrt:environment_initialization.obj
 0001:0003efa2       ??$tcslen@AAPA_W@?$__crt_char_traits@_W@@SAIAAPA_W@Z 1003ffa2 f i libucrt:environment_initialization.obj
 0001:0003efc7       ??$uninitialize@A6AXAAPAPAD@Z@?$dual_state_global@PAPAD@__crt_state_management@@QAEXA6AXAAPAPAD@Z@Z 1003ffc7 f i libucrt:environment_initialization.obj
 0001:0003f017       ??$uninitialize@A6AXAAPAPA_W@Z@?$dual_state_global@PAPA_W@__crt_state_management@@QAEXA6AXAAPAPA_W@Z@Z 10040017 f i libucrt:environment_initialization.obj
 0001:0003f0a9       ??0?$__crt_unique_heap_ptr@_WU__crt_internal_free_policy@@@@QAE@QA_W@Z 100400a9 f i libucrt:environment_initialization.obj
 0001:0003f0bd       ??1?$__crt_unique_heap_ptr@_WU__crt_internal_free_policy@@@@QAE@XZ 100400bd f i libucrt:environment_initialization.obj
 0001:0003f0d3       ??B?$__crt_unique_heap_ptr@PADU__crt_internal_free_policy@@@@QBE_NXZ 100400d3 f i libucrt:environment_initialization.obj
 0001:0003f0da       ??B?$__crt_unique_heap_ptr@PA_WU__crt_internal_free_policy@@@@QBE_NXZ 100400da f i libucrt:environment_initialization.obj
 0001:0003f0e1       ??B?$__crt_unique_heap_ptr@_WU__crt_internal_free_policy@@@@QBE_NXZ 100400e1 f i libucrt:environment_initialization.obj
 0001:0003f0e8       ?__crt_compute_required_transform_buffer_count@@YAIIQBD@Z 100400e8 f i libucrt:environment_initialization.obj
 0001:0003f10b       ?__crt_compute_required_transform_buffer_count@@YAIIQB_W@Z 1004010b f i libucrt:environment_initialization.obj
 0001:0003f130       ?__crt_transform_string@@YAIIQBDQA_WI@Z 10040130 f i libucrt:environment_initialization.obj
 0001:0003f156       ?__crt_transform_string@@YAIIQB_WQADI@Z 10040156 f i libucrt:environment_initialization.obj
 0001:0003f180       ?detach@?$__crt_unique_heap_ptr@DU__crt_internal_free_policy@@@@QAEPADXZ 10040180 f i libucrt:environment_initialization.obj
 0001:0003f186       ?detach@?$__crt_unique_heap_ptr@_WU__crt_internal_free_policy@@@@QAEPA_WXZ 10040186 f i libucrt:environment_initialization.obj
 0001:0003f18c       ?get@?$__crt_unique_heap_ptr@_WU__crt_internal_free_policy@@@@QBEPA_WXZ 1004018c f i libucrt:environment_initialization.obj
 0001:0003f18f       ?get_current_state_index@__crt_state_management@@YAIXZ 1004018f f i libucrt:environment_initialization.obj
 0001:0003f1b6       ?initialize@?$dual_state_global@PAPAD@__crt_state_management@@QAEXQAPAD@Z 100401b6 f i libucrt:environment_initialization.obj
 0001:0003f1e5       ?initialize@?$dual_state_global@PAPA_W@__crt_state_management@@QAEXQAPA_W@Z 100401e5 f i libucrt:environment_initialization.obj
 0001:0003f214       ?is_valid@?$__crt_unique_heap_ptr@PADU__crt_internal_free_policy@@@@QBE_NXZ 10040214 f i libucrt:environment_initialization.obj
 0001:0003f21b       ?is_valid@?$__crt_unique_heap_ptr@PA_WU__crt_internal_free_policy@@@@QBE_NXZ 1004021b f i libucrt:environment_initialization.obj
 0001:0003f222       ?is_valid@?$__crt_unique_heap_ptr@_WU__crt_internal_free_policy@@@@QBE_NXZ 10040222 f i libucrt:environment_initialization.obj
 0001:0003f22f       ?release@?$__crt_unique_heap_ptr@_WU__crt_internal_free_policy@@@@QAEXXZ 1004022f f i libucrt:environment_initialization.obj
 0001:0003f245       ?value@?$dual_state_global@PAPAD@__crt_state_management@@QAEAAPAPADXZ 10040245 f i libucrt:environment_initialization.obj
 0001:0003f248       ?value@?$dual_state_global@PAPA_W@__crt_state_management@@QAEAAPAPA_WXZ 10040248 f i libucrt:environment_initialization.obj
 0001:0003f24b       ___dcrt_get_or_create_narrow_environment_nolock 1004024b f   libucrt:environment_initialization.obj
 0001:0003f250       ___dcrt_get_or_create_wide_environment_nolock 10040250 f   libucrt:environment_initialization.obj
 0001:0003f255       ___dcrt_uninitialize_environments_nolock 10040255 f   libucrt:environment_initialization.obj
 0001:0003f299       ___p__environ              10040299 f   libucrt:environment_initialization.obj
 0001:0003f29f       ___p__wenviron             1004029f f   libucrt:environment_initialization.obj
 0001:0003f2a5       __get_initial_narrow_environment 100402a5 f   libucrt:environment_initialization.obj
 0001:0003f2be       __get_initial_wide_environment 100402be f   libucrt:environment_initialization.obj
 0001:0003f2d7       __initialize_narrow_environment 100402d7 f   libucrt:environment_initialization.obj
 0001:0003f2dc       __initialize_wide_environment 100402dc f   libucrt:environment_initialization.obj
 0001:0003f2e1       ??$?BP6AXXZ@__crt_fast_encoded_nullptr_t@@QBEPAP6AXXZXZ 100402e1 f i libucrt:onexit.obj
 0001:0003f2ff       ??$?RP6AXXZ@__crt_internal_free_policy@@QBEXQBQ6AXXZ@Z 100402ff f i libucrt:onexit.obj
 0001:0003f443       ??$__crt_fast_encode_pointer@P6AHXZ@@YAP6AHXZQ6AHXZ@Z 10040443 f i libucrt:onexit.obj
 0001:0003f4f0       ??0?$__crt_unique_heap_ptr@P6AXXZU__crt_internal_free_policy@@@@QAE@QAP6AXXZ@Z 100404f0 f i libucrt:onexit.obj
 0001:0003f504       ??1?$__crt_unique_heap_ptr@P6AXXZU__crt_internal_free_policy@@@@QAE@XZ 10040504 f i libucrt:onexit.obj
 0001:0003f51a       ??1scoped_global_state_reset@__crt_state_management@@QAE@XZ 1004051a f i libucrt:onexit.obj
 0001:0003f845       ?detach@?$__crt_unique_heap_ptr@P6AXXZU__crt_internal_free_policy@@@@QAEPAP6AXXZXZ 10040845 f i libucrt:onexit.obj
 0001:0003f84b       ?release@?$__crt_unique_heap_ptr@P6AXXZU__crt_internal_free_policy@@@@QAEXXZ 1004084b f i libucrt:onexit.obj
 0001:0003f861       __crt_at_quick_exit        10040861 f   libucrt:onexit.obj
 0001:0003f87c       __crt_atexit               1004087c f   libucrt:onexit.obj
 0001:0003f897       __execute_onexit_table     10040897 f   libucrt:onexit.obj
 0001:0003f8d1       __initialize_onexit_table  100408d1 f   libucrt:onexit.obj
 0001:0003f91d       __register_onexit_function 1004091d f   libucrt:onexit.obj
 0001:0003fae8       ?__acrt_stdio_is_initialized@@YA_NXZ 10040ae8 f i libucrt:initialization.obj
 0001:0003faf5       ?initialize@?$dual_state_global@PAU__crt_locale_data@@@__crt_state_management@@QAEXQAU__crt_locale_data@@@Z 10040af5 f i libucrt:initialization.obj
 0001:0003fb24       ___acrt_initialize         10040b24 f   libucrt:initialization.obj
 0001:0003fb3a       ___acrt_thread_attach      10040b3a f   libucrt:initialization.obj
 0001:0003fb47       ___acrt_thread_detach      10040b47 f   libucrt:initialization.obj
 0001:0003fb51       ___acrt_uninitialize       10040b51 f   libucrt:initialization.obj
 0001:0003fb8d       ___acrt_uninitialize_critical 10040b8d f   libucrt:initialization.obj
 0001:0003fbbe       __get_terminate            10040bbe f   libucrt:terminate.obj
 0001:0003fbd4       _set_terminate             10040bd4 f   libucrt:terminate.obj
 0001:0003fbfc       _terminate                 10040bfc f   libucrt:terminate.obj
 0001:0003fcb7       _strcpy_s                  10040cb7 f   libucrt:strcpy_s.obj
 0001:0003fd27       ??$is_overflow_condition@K@__crt_strtox@@YA_NIK@Z 10040d27 f i libucrt:atox.obj
 0001:0003fd64       ??$is_overflow_condition@_K@__crt_strtox@@YA_NI_K@Z 10040d64 f i libucrt:atox.obj
 0001:0003fdb5       ??$make_c_string_character_source@D$$T@__crt_strtox@@YA?AV?$c_string_character_source@D@0@QBD$$T@Z 10040db5 f i libucrt:atox.obj
 0001:0003fdd6       ??$make_c_string_character_source@_W$$T@__crt_strtox@@YA?AV?$c_string_character_source@_W@0@QB_W$$T@Z 10040dd6 f i libucrt:atox.obj
 0001:0003fdf7       ??$parse_integer@KV?$c_string_character_source@D@__crt_strtox@@@__crt_strtox@@YAKQAU__crt_locale_pointers@@V?$c_string_character_source@D@0@H_N@Z 10040df7 f i libucrt:atox.obj
 0001:000400aa       ??$parse_integer@KV?$c_string_character_source@_W@__crt_strtox@@@__crt_strtox@@YAKQAU__crt_locale_pointers@@V?$c_string_character_source@_W@0@H_N@Z 100410aa f i libucrt:atox.obj
 0001:0004087b       ??$parse_integer@_KV?$c_string_character_source@D@__crt_strtox@@@__crt_strtox@@YA_KQAU__crt_locale_pointers@@V?$c_string_character_source@D@0@H_N@Z 1004187b f i libucrt:atox.obj
 0001:00040bcb       ??$parse_integer@_KV?$c_string_character_source@_W@__crt_strtox@@@__crt_strtox@@YA_KQAU__crt_locale_pointers@@V?$c_string_character_source@_W@0@H_N@Z 10041bcb f i libucrt:atox.obj
 0001:00041498       ??$parse_integer_from_string@JD$$T@__crt_strtox@@YAJQBD$$THQAU__crt_locale_pointers@@@Z 10042498 f i libucrt:atox.obj
 0001:000414d0       ??$parse_integer_from_string@J_W$$T@__crt_strtox@@YAJQB_W$$THQAU__crt_locale_pointers@@@Z 100424d0 f i libucrt:atox.obj
 0001:00041508       ??$parse_integer_from_string@_JD$$T@__crt_strtox@@YA_JQBD$$THQAU__crt_locale_pointers@@@Z 10042508 f i libucrt:atox.obj
 0001:00041540       ??$parse_integer_from_string@_J_W$$T@__crt_strtox@@YA_JQB_W$$THQAU__crt_locale_pointers@@@Z 10042540 f i libucrt:atox.obj
 0001:00041578       ??0?$c_string_character_source@D@__crt_strtox@@QAE@QBDQAPBD@Z 10042578 f i libucrt:atox.obj
 0001:0004159b       ??0?$c_string_character_source@_W@__crt_strtox@@QAE@QB_WQAPB_W@Z 1004259b f i libucrt:atox.obj
 0001:000415be       ??1?$c_string_character_source@D@__crt_strtox@@QAE@XZ 100425be f i libucrt:atox.obj
 0001:000415cd       ??1?$c_string_character_source@_W@__crt_strtox@@QAE@XZ 100425cd f i libucrt:atox.obj
 0001:000415dc       ?get@?$c_string_character_source@D@__crt_strtox@@QAEDXZ 100425dc f i libucrt:atox.obj
 0001:000415e6       ?get@?$c_string_character_source@_W@__crt_strtox@@QAE_WXZ 100425e6 f i libucrt:atox.obj
 0001:000415f3       ?is_space@__crt_strtox@@YA_NDQAU__crt_locale_pointers@@@Z 100425f3 f i libucrt:atox.obj
 0001:00041618       ?is_space@__crt_strtox@@YA_N_WPAU__crt_locale_pointers@@@Z 10042618 f i libucrt:atox.obj
 0001:00041636       ?maximum_signed_value@__crt_strtox@@YAJK@Z 10042636 f i libucrt:atox.obj
 0001:0004163c       ?maximum_signed_value@__crt_strtox@@YA_J_K@Z 1004263c f i libucrt:atox.obj
 0001:00041647       ?minimum_signed_value@__crt_strtox@@YAJK@Z 10042647 f i libucrt:atox.obj
 0001:0004164d       ?minimum_signed_value@__crt_strtox@@YA_J_K@Z 1004264d f i libucrt:atox.obj
 0001:00041657       ?parse_digit@__crt_strtox@@YAID@Z 10042657 f i libucrt:atox.obj
 0001:0004169f       ?parse_digit@__crt_strtox@@YAI_W@Z 1004269f f i libucrt:atox.obj
 0001:00041910       ?restore_state@?$c_string_character_source@D@__crt_strtox@@QAE_NQBD@Z 10042910 f i libucrt:atox.obj
 0001:00041924       ?restore_state@?$c_string_character_source@_W@__crt_strtox@@QAE_NQB_W@Z 10042924 f i libucrt:atox.obj
 0001:00041938       ?save_state@?$c_string_character_source@D@__crt_strtox@@QBEPBDXZ 10042938 f i libucrt:atox.obj
 0001:0004193b       ?save_state@?$c_string_character_source@_W@__crt_strtox@@QBEPB_WXZ 1004293b f i libucrt:atox.obj
 0001:0004193e       ?unget@?$c_string_character_source@D@__crt_strtox@@QAEXD@Z 1004293e f i libucrt:atox.obj
 0001:00041971       ?unget@?$c_string_character_source@_W@__crt_strtox@@QAEX_W@Z 10042971 f i libucrt:atox.obj
 0001:000419aa       ?validate@?$c_string_character_source@D@__crt_strtox@@QBE_NXZ 100429aa f i libucrt:atox.obj
 0001:000419cb       ?validate@?$c_string_character_source@_W@__crt_strtox@@QBE_NXZ 100429cb f i libucrt:atox.obj
 0001:000419ec       ?wide_character_to_digit@__crt_strtox@@YAH_W@Z 100429ec f i libucrt:atox.obj
 0001:00041bf5       ___acrt_get_locale_data_prefix 10042bf5 f i libucrt:atox.obj
 0001:00041c04       __atoi64                   10042c04 f   libucrt:atox.obj
 0001:00041c32       __atoi64_l                 10042c32 f   libucrt:atox.obj
 0001:00041c61       __atoi_l                   10042c61 f   libucrt:atox.obj
 0001:00041c90       __atol_l                   10042c90 f   libucrt:atox.obj
 0001:00041cbf       __atoll_l                  10042cbf f   libucrt:atox.obj
 0001:00041cee       __chvalidchk_l             10042cee f i libucrt:atox.obj
 0001:00041d1d       __ischartype_l             10042d1d f i libucrt:atox.obj
 0001:00041d5c       __wtoi                     10042d5c f   libucrt:atox.obj
 0001:00041d8a       __wtoi64                   10042d8a f   libucrt:atox.obj
 0001:00041db8       __wtoi64_l                 10042db8 f   libucrt:atox.obj
 0001:00041de7       __wtoi_l                   10042de7 f   libucrt:atox.obj
 0001:00041e16       __wtol                     10042e16 f   libucrt:atox.obj
 0001:00041e44       __wtol_l                   10042e44 f   libucrt:atox.obj
 0001:00041e73       __wtoll                    10042e73 f   libucrt:atox.obj
 0001:00041ea1       __wtoll_l                  10042ea1 f   libucrt:atox.obj
 0001:00041ed0       _atoi                      10042ed0 f   libucrt:atox.obj
 0001:00041efe       _atol                      10042efe f   libucrt:atox.obj
 0001:00041f2c       _atoll                     10042f2c f   libucrt:atox.obj
 0001:00041f60       _strncmp                   10042f60 f   libucrt:strncmp.obj
 0001:00041ff6       __set_abort_behavior       10042ff6 f   libucrt:abort.obj
 0001:0004201f       _abort                     1004301f f   libucrt:abort.obj
 0001:00042074       _wcsncmp                   10043074 f   libucrt:wcsncmp.obj
 0001:000420bc       __malloc_base              100430bc f   libucrt:malloc_base.obj
 0001:0004211d       __calloc_base              1004311d f   libucrt:calloc_base.obj
 0001:00042197       __free_base                10043197 f   libucrt:free_base.obj
 0001:000421df       ??$__crt_fast_decode_pointer@P6AXPB_W00II@Z@@YAP6AXPB_W00II@ZQ6AX000II@Z@Z 100431df f i libucrt:invalid_parameter.obj
 0001:000421fa       ??$__crt_fast_encode_pointer@P6AXPB_W00II@Z@@YAP6AXPB_W00II@ZQ6AX000II@Z@Z 100431fa f i libucrt:invalid_parameter.obj
 0001:00042220       ??$initialize_from_array@$$BY00Q6AXPB_W00II@Z@?$dual_state_global@P6AXPB_W00II@Z@__crt_state_management@@QAAXAAY00Q6AXPB_W00II@Z@Z 10043220 f i libucrt:invalid_parameter.obj
 0001:00042235       ?dangerous_get_state_array@?$dual_state_global@P6AXPB_W00II@Z@__crt_state_management@@QAEPAP6AXPB_W00II@ZXZ 10043235 f i libucrt:invalid_parameter.obj
 0001:00042238       ?value@?$dual_state_global@P6AXPB_W00II@Z@__crt_state_management@@QAEAAP6AXPB_W00II@ZXZ 10043238 f i libucrt:invalid_parameter.obj
 0001:0004223b       ___acrt_call_reportfault   1004323b f   libucrt:invalid_parameter.obj
 0001:000423c4       ___acrt_initialize_invalid_parameter_handler 100433c4 f   libucrt:invalid_parameter.obj
 0001:000423d6       __get_invalid_parameter_handler 100433d6 f   libucrt:invalid_parameter.obj
 0001:000423ed       __get_thread_local_invalid_parameter_handler 100433ed f   libucrt:invalid_parameter.obj
 0001:00042402       __invalid_parameter        10043402 f   libucrt:invalid_parameter.obj
 0001:0004249b       __invalid_parameter_noinfo 1004349b f   libucrt:invalid_parameter.obj
 0001:000424af       __invalid_parameter_noinfo_noreturn 100434af f   libucrt:invalid_parameter.obj
 0001:000424d3       __invoke_watson            100434d3 f   libucrt:invalid_parameter.obj
 0001:00042514       __set_invalid_parameter_handler 10043514 f   libucrt:invalid_parameter.obj
 0001:00042550       __set_thread_local_invalid_parameter_handler 10043550 f   libucrt:invalid_parameter.obj
 0001:0004263b       ___acrt_report_runtime_error 1004363b f   libucrt:report_runtime_error.obj
 0001:00042795       __query_app_type           10043795 f   libucrt:report_runtime_error.obj
 0001:0004279b       __set_app_type             1004379b f   libucrt:report_runtime_error.obj
 0001:000427ad       ___acrt_errno_from_os_error 100437ad f   libucrt:errno.obj
 0001:00042800       ___acrt_errno_map_os_error 10043800 f   libucrt:errno.obj
 0001:0004282b       ___doserrno                1004382b f   libucrt:errno.obj
 0001:00042842       __errno                    10043842 f   libucrt:errno.obj
 0001:00042859       __get_doserrno             10043859 f   libucrt:errno.obj
 0001:00042887       __get_errno                10043887 f   libucrt:errno.obj
 0001:000428b5       __set_doserrno             100438b5 f   libucrt:errno.obj
 0001:000428de       __set_errno                100438de f   libucrt:errno.obj
 0001:00042f0c       __i64toa                   10043f0c f   libucrt:xtoa.obj
 0001:00042f5f       __i64toa_s                 10043f5f f   libucrt:xtoa.obj
 0001:00042fb0       __i64tow                   10043fb0 f   libucrt:xtoa.obj
 0001:00043003       __i64tow_s                 10044003 f   libucrt:xtoa.obj
 0001:00043054       __itoa                     10044054 f   libucrt:xtoa.obj
 0001:00043098       __itoa_s                   10044098 f   libucrt:xtoa.obj
 0001:000430da       __itow                     100440da f   libucrt:xtoa.obj
 0001:0004311e       __itow_s                   1004411e f   libucrt:xtoa.obj
 0001:00043160       __ltoa                     10044160 f   libucrt:xtoa.obj
 0001:000431a4       __ltoa_s                   100441a4 f   libucrt:xtoa.obj
 0001:000431e6       __ltow                     100441e6 f   libucrt:xtoa.obj
 0001:0004322a       __ltow_s                   1004422a f   libucrt:xtoa.obj
 0001:0004326c       __ui64toa                  1004426c f   libucrt:xtoa.obj
 0001:00043296       __ui64toa_s                10044296 f   libucrt:xtoa.obj
 0001:000432be       __ui64tow                  100442be f   libucrt:xtoa.obj
 0001:000432e8       __ui64tow_s                100442e8 f   libucrt:xtoa.obj
 0001:00043310       __ultoa                    10044310 f   libucrt:xtoa.obj
 0001:00043336       __ultoa_s                  10044336 f   libucrt:xtoa.obj
 0001:0004335a       __ultow                    1004435a f   libucrt:xtoa.obj
 0001:00043380       __ultow_s                  10044380 f   libucrt:xtoa.obj
 0001:000433a4       __set_error_mode           100443a4 f   libucrt:set_error_mode.obj
 0001:00043480       _wcscat_s                  10044480 f   libucrt:wcscat_s.obj
 0001:0004358a       _wcscpy_s                  1004458a f   libucrt:wcscpy_s.obj
 0001:0004372a       _wcsncat_s                 1004472a f   libucrt:wcsncat_s.obj
 0001:000437ba       _strcat_s                  100447ba f   libucrt:strcat_s.obj
 0001:00043941       _strncat_s                 10044941 f   libucrt:strncat_s.obj
 0001:0004394e       ___acrt_GetModuleFileNameA 1004494e f   libucrt:getmodulefilenamea.obj
 0001:00043b06       ??$message_box@$$TABQBDABQBDK@?$__crt_char_traits@D@@SAH$$QA$$TABQBD1$$QAK@Z 10044b06 f i libucrt:crtmbox.obj
 0001:00043b2e       ??$message_box@$$TABQB_WABQB_WK@?$__crt_char_traits@_W@@SAH$$QA$$TABQB_W1$$QAK@Z 10044b2e f i libucrt:crtmbox.obj
 0001:00043b56       ??$message_box@PAUHWND__@@ABQBDABQBDABI@?$__crt_char_traits@D@@SAH$$QAPAUHWND__@@ABQBD1ABI@Z 10044b56 f i libucrt:crtmbox.obj
 0001:00043b7e       ??$message_box@PAUHWND__@@ABQB_WABQB_WABI@?$__crt_char_traits@_W@@SAH$$QAPAUHWND__@@ABQB_W1ABI@Z 10044b7e f i libucrt:crtmbox.obj
 0001:00043ba6       ??$output_debug_string@ABQBD@?$__crt_char_traits@D@@SAXABQBD@Z 10044ba6 f i libucrt:crtmbox.obj
 0001:00043bbb       ??$output_debug_string@ABQB_W@?$__crt_char_traits@_W@@SAXABQB_W@Z 10044bbb f i libucrt:crtmbox.obj
 0001:00043bd1       ___acrt_show_narrow_message_box 10044bd1 f   libucrt:crtmbox.obj
 0001:00043bde       ___acrt_show_wide_message_box 10044bde f   libucrt:crtmbox.obj
 0001:00043f3c       ??0__crt_stdio_stream@@QAE@QAU__crt_stdio_stream_data@@@Z 10044f3c f i libucrt:fflush.obj
 0001:000441a5       ___acrt_stdio_flush_nolock 100451a5 f   libucrt:fflush.obj
 0001:00044220       __fflush_nolock            10045220 f   libucrt:fflush.obj
 0001:00044278       __flushall                 10045278 f   libucrt:fflush.obj
 0001:00044283       _fflush                    10045283 f   libucrt:fflush.obj
 0001:000444ee       _setvbuf                   100454ee f   libucrt:setvbuf.obj
 0001:00044593       ??$?B$$A6AXH@Z@__crt_fast_encoded_nullptr_t@@QBEP6AXH@ZXZ 10045593 f i libucrt:signal.obj
 0001:00044653       ??$__crt_fast_decode_pointer@P6AXH@Z@@YAP6AXH@ZQ6AXH@Z@Z 10045653 f i libucrt:signal.obj
 0001:0004466e       ??$__crt_fast_encode_pointer@P6AXH@Z@@YAP6AXH@ZQ6AXH@Z@Z 1004566e f i libucrt:signal.obj
 0001:00044818       ?initialize@?$dual_state_global@P6AXH@Z@__crt_state_management@@QAEXQ6AXH@Z@Z 10045818 f i libucrt:signal.obj
 0001:000448f6       ?value@?$dual_state_global@P6AXH@Z@__crt_state_management@@QAEAAP6AXH@ZXZ 100458f6 f i libucrt:signal.obj
 0001:000448f9       ___acrt_get_sigabrt_handler 100458f9 f   libucrt:signal.obj
 0001:0004492c       ___acrt_initialize_signal_handlers 1004592c f   libucrt:signal.obj
 0001:00044951       ___fpecode                 10045951 f   libucrt:signal.obj
 0001:0004495c       ___pxcptinfoptrs           1004595c f   libucrt:signal.obj
 0001:00044967       _raise                     10045967 f   libucrt:signal.obj
 0001:00044be9       _signal                    10045be9 f   libucrt:signal.obj
 0001:00044e06       __realloc_base             10045e06 f   libucrt:realloc_base.obj
 0001:00044e89       ___acrt_initialize_locks   10045e89 f   libucrt:locks.obj
 0001:00044eda       ___acrt_lock               10045eda f   libucrt:locks.obj
 0001:00044ef6       ___acrt_uninitialize_locks 10045ef6 f   libucrt:locks.obj
 0001:00044f33       ___acrt_unlock             10045f33 f   libucrt:locks.obj
 0001:00044f4f       __lock_locales             10045f4f f   libucrt:locks.obj
 0001:00044f60       __unlock_locales           10045f60 f   libucrt:locks.obj
 0001:0004517e       ___acrt_get_begin_thread_init_policy 1004617e f   libucrt:win_policies.obj
 0001:000451d4       ___acrt_get_developer_information_policy 100461d4 f   libucrt:win_policies.obj
 0001:0004522a       ___acrt_get_process_end_policy 1004622a f   libucrt:win_policies.obj
 0001:00045269       ___acrt_get_windowing_model_policy 10046269 f   libucrt:win_policies.obj
 0001:000452ed       ??$?B$$A6GHPA_WKJ@Z@__crt_fast_encoded_nullptr_t@@QBEP6GHPA_WKJ@ZXZ 100462ed f i libucrt:winapi_thunks.obj
 0001:000453e7       ??$__crt_fast_decode_pointer@P6GHPA_WKJ@Z@@YAP6GHPA_WKJ@ZQ6GH0KJ@Z@Z 100463e7 f i libucrt:winapi_thunks.obj
 0001:00045402       ??$__crt_fast_encode_pointer@P6GHPA_WKJ@Z@@YAP6GHPA_WKJ@ZQ6GH0KJ@Z@Z 10046402 f i libucrt:winapi_thunks.obj
 0001:00045c61       _GetCurrentThreadEffectiveToken 10046c61 f i libucrt:winapi_thunks.obj
 0001:00045c65       ___acrt_AppPolicyGetProcessTerminationMethodInternal@4 10046c65 f   libucrt:winapi_thunks.obj
 0001:00045cd1       ___acrt_AppPolicyGetShowDeveloperDiagnosticInternal@4 10046cd1 f   libucrt:winapi_thunks.obj
 0001:00045d3d       ___acrt_AppPolicyGetThreadInitializationTypeInternal@4 10046d3d f   libucrt:winapi_thunks.obj
 0001:00045da9       ___acrt_AppPolicyGetWindowingModelInternal@4 10046da9 f   libucrt:winapi_thunks.obj
 0001:00045e15       ___acrt_AreFileApisANSI@0  10046e15 f   libucrt:winapi_thunks.obj
 0001:00045e5d       ___acrt_CompareStringEx@36 10046e5d f   libucrt:winapi_thunks.obj
 0001:00045eee       ___acrt_EnumSystemLocalesEx@16 10046eee f   libucrt:winapi_thunks.obj
 0001:00045f72       ___acrt_FlsAlloc@4         10046f72 f   libucrt:winapi_thunks.obj
 0001:00045fdd       ___acrt_FlsFree@4          10046fdd f   libucrt:winapi_thunks.obj
 0001:00046048       ___acrt_FlsGetValue@4      10047048 f   libucrt:winapi_thunks.obj
 0001:000460b3       ___acrt_FlsSetValue@8      100470b3 f   libucrt:winapi_thunks.obj
 0001:00046122       ___acrt_GetDateFormatEx@28 10047122 f   libucrt:winapi_thunks.obj
 0001:000461ab       ___acrt_GetEnabledXStateFeatures@0 100471ab f   libucrt:winapi_thunks.obj
 0001:0004620d       ___acrt_GetLocaleInfoEx@16 1004720d f   libucrt:winapi_thunks.obj
 0001:00046278       ___acrt_GetSystemTimePreciseAsFileTime@4 10047278 f   libucrt:winapi_thunks.obj
 0001:000462e3       ___acrt_GetTimeFormatEx@24 100472e3 f   libucrt:winapi_thunks.obj
 0001:00046356       ___acrt_GetUserDefaultLocaleName@8 10047356 f   libucrt:winapi_thunks.obj
 0001:000463bd       ___acrt_GetXStateFeaturesMask@8 100473bd f   libucrt:winapi_thunks.obj
 0001:00046429       ___acrt_InitializeCriticalSectionEx@12 10047429 f   libucrt:winapi_thunks.obj
 0001:000464a3       ___acrt_IsValidLocaleName@4 100474a3 f   libucrt:winapi_thunks.obj
 0001:00046505       ___acrt_LCIDToLocaleName@16 10047505 f   libucrt:winapi_thunks.obj
 0001:00046570       ___acrt_LCMapStringEx@36   10047570 f   libucrt:winapi_thunks.obj
 0001:00046601       ___acrt_LocaleNameToLCID@8 10047601 f   libucrt:winapi_thunks.obj
 0001:0004665b       ___acrt_LocateXStateFeature@12 1004765b f   libucrt:winapi_thunks.obj
 0001:000466b2       ___acrt_MessageBoxA@16     100476b2 f   libucrt:winapi_thunks.obj
 0001:0004670d       ___acrt_MessageBoxW@16     1004770d f   libucrt:winapi_thunks.obj
 0001:00046768       ___acrt_RoInitialize@4     10047768 f   libucrt:winapi_thunks.obj
 0001:000467ce       ___acrt_RoUninitialize@0   100477ce f   libucrt:winapi_thunks.obj
 0001:00046829       ___acrt_RtlGenRandom@8     10047829 f   libucrt:winapi_thunks.obj
 0001:00046895       ___acrt_SetThreadStackGuarantee@4 10047895 f   libucrt:winapi_thunks.obj
 0001:000468fb       ___acrt_can_show_message_box 100478fb f   libucrt:winapi_thunks.obj
 0001:0004692b       ___acrt_can_use_vista_locale_apis 1004792b f   libucrt:winapi_thunks.obj
 0001:00046938       ___acrt_can_use_xstate_apis 10047938 f   libucrt:winapi_thunks.obj
 0001:00046945       ___acrt_eagerly_load_locale_apis 10047945 f   libucrt:winapi_thunks.obj
 0001:00046989       ___acrt_get_parent_window  10047989 f   libucrt:winapi_thunks.obj
 0001:00046a27       ___acrt_initialize_winapi_thunks 10047a27 f   libucrt:winapi_thunks.obj
 0001:00046a72       ___acrt_is_interactive     10047a72 f   libucrt:winapi_thunks.obj
 0001:00046b41       ___acrt_uninitialize_winapi_thunks 10047b41 f   libucrt:winapi_thunks.obj
 0001:00046b84       __fcloseall                10047b84 f   libucrt:closeall.obj
 0001:00046c4c       ?has_crt_buffer@__crt_stdio_stream@@QBE_NXZ 10047c4c f i libucrt:_freebuf.obj
 0001:00046c59       ___acrt_stdio_free_buffer_nolock 10047c59 f   libucrt:_freebuf.obj
 0001:00046e97       ___acrt_initialize_lowio   10047e97 f   libucrt:ioinit.obj
 0001:00046f02       ___acrt_uninitialize_lowio 10047f02 f   libucrt:ioinit.obj
 0001:0004712e       __close                    1004812e f   libucrt:close.obj
 0001:000471e0       __close_nolock             100481e0 f   libucrt:close.obj
 0001:000472a3       ?lowio_handle@__crt_stdio_stream@@QBEHXZ 100482a3 f i libucrt:fileno.obj
 0001:000472a9       __fileno                   100482a9 f   libucrt:fileno.obj
 0001:000472d8       ??$?RU__crt_stdio_stream_data@@@__crt_internal_free_policy@@QBEXQBU__crt_stdio_stream_data@@@Z 100482d8 f i libucrt:stream.obj
 0001:000472ee       ??0?$__crt_unique_heap_ptr@U__crt_stdio_stream_data@@U__crt_internal_free_policy@@@@QAE@QAU__crt_stdio_stream_data@@@Z 100482ee f i libucrt:stream.obj
 0001:00047302       ??0__crt_stdio_stream@@QAE@XZ 10048302 f i libucrt:stream.obj
 0001:00047308       ??1?$__crt_unique_heap_ptr@U__crt_stdio_stream_data@@U__crt_internal_free_policy@@@@QAE@XZ 10048308 f i libucrt:stream.obj
 0001:0004731e       ?__acrt_stdio_allocate_stream@@YA?AV__crt_stdio_stream@@XZ 1004831e f   libucrt:stream.obj
 0001:00047394       ?__acrt_stdio_free_stream@@YAXV__crt_stdio_stream@@@Z 10048394 f   libucrt:stream.obj
 0001:000473dd       ?deallocate@__crt_stdio_stream@@QAEXXZ 100483dd f i libucrt:stream.obj
 0001:000473e9       ?detach@?$__crt_unique_heap_ptr@U__crt_stdio_stream_data@@U__crt_internal_free_policy@@@@QAEPAU__crt_stdio_stream_data@@XZ 100483e9 f i libucrt:stream.obj
 0001:000474e2       ?lock@__crt_stdio_stream@@QBEXXZ 100484e2 f i libucrt:stream.obj
 0001:000474ed       ?release@?$__crt_unique_heap_ptr@U__crt_stdio_stream_data@@U__crt_internal_free_policy@@@@QAEXXZ 100484ed f i libucrt:stream.obj
 0001:00047503       ?try_allocate@__crt_stdio_stream@@QAE_NXZ 10048503 f i libucrt:stream.obj
 0001:0004752b       ??$__acrt_stdio_parse_mode@D@@YA?AU__acrt_stdio_stream_mode@@QBD@Z 1004852b f i libucrt:openfile.obj
 0001:000477e5       ??$__acrt_stdio_parse_mode@_W@@YA?AU__acrt_stdio_stream_mode@@QB_W@Z 100487e5 f i libucrt:openfile.obj
 0001:00047c3a       ??$tcsncmp@AAPBDAAY02$$CBDI@?$__crt_char_traits@D@@SAHAAPBDAAY02$$CBD$$QAI@Z 10048c3a f i libucrt:openfile.obj
 0001:00047c5d       ??$tcsncmp@AAPB_WAAY02$$CB_WI@?$__crt_char_traits@_W@@SAHAAPB_WAAY02$$CB_W$$QAI@Z 10048c5d f i libucrt:openfile.obj
 0001:00047c80       ??$tcsnicmp@AAPBDAAY04$$CBDI@?$__crt_char_traits@D@@SAHAAPBDAAY04$$CBD$$QAI@Z 10048c80 f i libucrt:openfile.obj
 0001:00047ca3       ??$tcsnicmp@AAPBDAAY06$$CBDI@?$__crt_char_traits@D@@SAHAAPBDAAY06$$CBD$$QAI@Z 10048ca3 f i libucrt:openfile.obj
 0001:00047cc6       ??$tcsnicmp@AAPBDAAY07$$CBDI@?$__crt_char_traits@D@@SAHAAPBDAAY07$$CBD$$QAI@Z 10048cc6 f i libucrt:openfile.obj
 0001:00047ce9       ??$tcsnicmp@AAPB_WAAY04$$CB_WI@?$__crt_char_traits@_W@@SAHAAPB_WAAY04$$CB_W$$QAI@Z 10048ce9 f i libucrt:openfile.obj
 0001:00047d0c       ??$tcsnicmp@AAPB_WAAY06$$CB_WI@?$__crt_char_traits@_W@@SAHAAPB_WAAY06$$CB_W$$QAI@Z 10048d0c f i libucrt:openfile.obj
 0001:00047d2f       ??$tcsnicmp@AAPB_WAAY07$$CB_WI@?$__crt_char_traits@_W@@SAHAAPB_WAAY07$$CB_W$$QAI@Z 10048d2f f i libucrt:openfile.obj
 0001:00047d52       ??$tsopen_s@PAHABQBDABHABHH@?$__crt_char_traits@D@@SAH$$QAPAHABQBDABH2$$QAH@Z 10048d52 f i libucrt:openfile.obj
 0001:00047d84       ??$tsopen_s@PAHABQB_WABHABHH@?$__crt_char_traits@_W@@SAH$$QAPAHABQB_WABH2$$QAH@Z 10048d84 f i libucrt:openfile.obj
 0001:00047db6       ?__acrt_stdio_parse_mode_D@@YA_NAAU__acrt_stdio_stream_mode@@@Z 10048db6 f i libucrt:openfile.obj
 0001:00047dd7       ?__acrt_stdio_parse_mode_N@@YA_NAAU__acrt_stdio_stream_mode@@@Z 10048dd7 f i libucrt:openfile.obj
 0001:00047ded       ?__acrt_stdio_parse_mode_R@@YA_NAAU__acrt_stdio_stream_mode@@AA_N@Z 10048ded f i libucrt:openfile.obj
 0001:00047e12       ?__acrt_stdio_parse_mode_S@@YA_NAAU__acrt_stdio_stream_mode@@AA_N@Z 10048e12 f i libucrt:openfile.obj
 0001:00047e37       ?__acrt_stdio_parse_mode_T@@YA_NAAU__acrt_stdio_stream_mode@@@Z 10048e37 f i libucrt:openfile.obj
 0001:00047e5d       ?__acrt_stdio_parse_mode_b@@YA_NAAU__acrt_stdio_stream_mode@@@Z 10048e5d f i libucrt:openfile.obj
 0001:00047e85       ?__acrt_stdio_parse_mode_c@@YA_NAAU__acrt_stdio_stream_mode@@AA_N@Z 10048e85 f i libucrt:openfile.obj
 0001:00047eaf       ?__acrt_stdio_parse_mode_n@@YA_NAAU__acrt_stdio_stream_mode@@AA_N@Z 10048eaf f i libucrt:openfile.obj
 0001:00047ed9       ?__acrt_stdio_parse_mode_plus@@YA_NAAU__acrt_stdio_stream_mode@@AA_N@Z 10048ed9 f i libucrt:openfile.obj
 0001:00047f1b       ?__acrt_stdio_parse_mode_t@@YA_NAAU__acrt_stdio_stream_mode@@@Z 10048f1b f i libucrt:openfile.obj
 0001:00047f43       ?__acrt_stdio_parse_mode_x@@YA_NAAU__acrt_stdio_stream_mode@@@Z 10048f43 f i libucrt:openfile.obj
 0001:00047f6b       __openfile                 10048f6b f   libucrt:openfile.obj
 0001:00047f78       __wopenfile                10048f78 f   libucrt:openfile.obj
 0001:0004864b       __read                     1004964b f   libucrt:read.obj
 0001:00048797       __read_nolock              10049797 f   libucrt:read.obj
 0001:00048c35       __utf8_no_of_trailbytes    10049c35 f i libucrt:read.obj
 0001:00049154       ___acrt_stdio_refill_and_read_narrow_nolock 1004a154 f   libucrt:_filbuf.obj
 0001:00049161       ___acrt_stdio_refill_and_read_wide_nolock 1004a161 f   libucrt:_filbuf.obj
 0001:000498e3       __write                    1004a8e3 f   libucrt:write.obj
 0001:00049a05       __write_nolock             1004aa05 f   libucrt:write.obj
 0001:0004a147       ___acrt_stdio_flush_and_write_narrow_nolock 1004b147 f   libucrt:_flsbuf.obj
 0001:0004a154       ___acrt_stdio_flush_and_write_wide_nolock 1004b154 f   libucrt:_flsbuf.obj
 0001:0004a161       ?has_temporary_buffer@__crt_stdio_stream@@QBE_NXZ 1004b161 f i libucrt:_sftbuf.obj
 0001:0004a16e       ___acrt_stdio_begin_temporary_buffering_nolock 1004b16e f   libucrt:_sftbuf.obj
 0001:0004a250       ___acrt_stdio_end_temporary_buffering_nolock 1004b250 f   libucrt:_sftbuf.obj
 0001:0004a319       ___acrt_MultiByteToWideChar 1004b319 f   libucrt:multibytetowidechar.obj
 0001:0004a3b4       ??$?RU__acrt_ptd@@@__crt_internal_free_policy@@QBEXQBU__acrt_ptd@@@Z 1004b3b4 f i libucrt:per_thread_data.obj
 0001:0004a72d       ??0?$__crt_unique_heap_ptr@U__acrt_ptd@@U__crt_internal_free_policy@@@@QAE@QAU__acrt_ptd@@@Z 1004b72d f i libucrt:per_thread_data.obj
 0001:0004a741       ??0__crt_scoped_get_last_error_reset@@QAE@XZ 1004b741 f i libucrt:per_thread_data.obj
 0001:0004a756       ??1?$__crt_unique_heap_ptr@U__acrt_ptd@@U__crt_internal_free_policy@@@@QAE@XZ 1004b756 f i libucrt:per_thread_data.obj
 0001:0004a76c       ??1__crt_scoped_get_last_error_reset@@QAE@XZ 1004b76c f i libucrt:per_thread_data.obj
 0001:0004a777       ??B?$__crt_unique_heap_ptr@U__acrt_ptd@@U__crt_internal_free_policy@@@@QBE_NXZ 1004b777 f i libucrt:per_thread_data.obj
 0001:0004a914       ?dangerous_get_state_array@?$dual_state_global@PAU__crt_locale_data@@@__crt_state_management@@QAEPAPAU__crt_locale_data@@XZ 1004b914 f i libucrt:per_thread_data.obj
 0001:0004aa47       ?detach@?$__crt_unique_heap_ptr@U__acrt_ptd@@U__crt_internal_free_policy@@@@QAEPAU__acrt_ptd@@XZ 1004ba47 f i libucrt:per_thread_data.obj
 0001:0004aa4d       ?get@?$__crt_unique_heap_ptr@U__acrt_ptd@@U__crt_internal_free_policy@@@@QBEPAU__acrt_ptd@@XZ 1004ba4d f i libucrt:per_thread_data.obj
 0001:0004aa50       ?get_current_state_index@__crt_state_management@@YAIABV__crt_scoped_get_last_error_reset@@@Z 1004ba50 f i libucrt:per_thread_data.obj
 0001:0004abd6       ?is_valid@?$__crt_unique_heap_ptr@U__acrt_ptd@@U__crt_internal_free_policy@@@@QBE_NXZ 1004bbd6 f i libucrt:per_thread_data.obj
 0001:0004abdd       ?release@?$__crt_unique_heap_ptr@U__acrt_ptd@@U__crt_internal_free_policy@@@@QAEXXZ 1004bbdd f i libucrt:per_thread_data.obj
 0001:0004ac69       ?value@?$dual_state_global@PAU__crt_locale_data@@@__crt_state_management@@QAEAAPAU__crt_locale_data@@XZ 1004bc69 f i libucrt:per_thread_data.obj
 0001:0004ac6c       ___acrt_freeptd            1004bc6c f   libucrt:per_thread_data.obj
 0001:0004aca3       ___acrt_getptd             1004bca3 f   libucrt:per_thread_data.obj
 0001:0004ad87       ___acrt_getptd_head        1004bd87 f   libucrt:per_thread_data.obj
 0001:0004ae47       ___acrt_getptd_noexit      1004be47 f   libucrt:per_thread_data.obj
 0001:0004af1f       ___acrt_initialize_ptd     1004bf1f f   libucrt:per_thread_data.obj
 0001:0004af56       ___acrt_uninitialize_ptd   1004bf56 f   libucrt:per_thread_data.obj
 0001:0004af76       ___threadhandle            1004bf76 f   libucrt:per_thread_data.obj
 0001:0004af7c       ___threadid                1004bf7c f   libucrt:per_thread_data.obj
 0001:0004af82       ?value@?$dual_state_global@PAU__crt_multibyte_data@@@__crt_state_management@@QAEAAPAU__crt_multibyte_data@@XZ 1004bf82 f i libucrt:locale_update.obj
 0001:0004af85       ___acrt_update_locale_info 1004bf85 f   libucrt:locale_update.obj
 0001:0004afbd       ___acrt_update_multibyte_info 1004bfbd f   libucrt:locale_update.obj
 0001:0004aff5       __wremove                  1004bff5 f   libucrt:wunlink.obj
 0001:0004b027       __wunlink                  1004c027 f   libucrt:wunlink.obj
 0001:0004b037       ??$?RU__crt_locale_data@@@__crt_internal_free_policy@@QBEXQBU__crt_locale_data@@@Z 1004c037 f i libucrt:wsetlocale.obj
 0001:0004b04d       ??$?RU__crt_locale_pointers@@@__crt_internal_free_policy@@QBEXQBU__crt_locale_pointers@@@Z 1004c04d f i libucrt:wsetlocale.obj
 0001:0004b063       ??$?RU__crt_multibyte_data@@@__crt_internal_free_policy@@QBEXQBU__crt_multibyte_data@@@Z 1004c063 f i libucrt:wsetlocale.obj
 0001:0004b333       ??$__vcrt_va_start_verify_argument_type@H@@YAXXZ 1004c333 f i libucrt:wsetlocale.obj
 0001:0004b4be       ??0?$__crt_unique_heap_ptr@U__crt_locale_data@@U__crt_internal_free_policy@@@@QAE@QAU__crt_locale_data@@@Z 1004c4be f i libucrt:wsetlocale.obj
 0001:0004b4d2       ??0?$__crt_unique_heap_ptr@U__crt_locale_pointers@@U__crt_internal_free_policy@@@@QAE@QAU__crt_locale_pointers@@@Z 1004c4d2 f i libucrt:wsetlocale.obj
 0001:0004b4e6       ??0?$__crt_unique_heap_ptr@U__crt_multibyte_data@@U__crt_internal_free_policy@@@@QAE@QAU__crt_multibyte_data@@@Z 1004c4e6 f i libucrt:wsetlocale.obj
 0001:0004b4fa       ??1?$__crt_unique_heap_ptr@U__crt_locale_data@@U__crt_internal_free_policy@@@@QAE@XZ 1004c4fa f i libucrt:wsetlocale.obj
 0001:0004b510       ??1?$__crt_unique_heap_ptr@U__crt_locale_pointers@@U__crt_internal_free_policy@@@@QAE@XZ 1004c510 f i libucrt:wsetlocale.obj
 0001:0004b526       ??1?$__crt_unique_heap_ptr@U__crt_multibyte_data@@U__crt_internal_free_policy@@@@QAE@XZ 1004c526 f i libucrt:wsetlocale.obj
 0001:0004b53c       ??B?$__crt_unique_heap_ptr@U__crt_locale_data@@U__crt_internal_free_policy@@@@QBE_NXZ 1004c53c f i libucrt:wsetlocale.obj
 0001:0004b543       ??B?$__crt_unique_heap_ptr@U__crt_locale_pointers@@U__crt_internal_free_policy@@@@QBE_NXZ 1004c543 f i libucrt:wsetlocale.obj
 0001:0004b54a       ??B?$__crt_unique_heap_ptr@U__crt_multibyte_data@@U__crt_internal_free_policy@@@@QBE_NXZ 1004c54a f i libucrt:wsetlocale.obj
 0001:0004b7ec       ?detach@?$__crt_unique_heap_ptr@U__crt_locale_data@@U__crt_internal_free_policy@@@@QAEPAU__crt_locale_data@@XZ 1004c7ec f i libucrt:wsetlocale.obj
 0001:0004b7f2       ?detach@?$__crt_unique_heap_ptr@U__crt_locale_pointers@@U__crt_internal_free_policy@@@@QAEPAU__crt_locale_pointers@@XZ 1004c7f2 f i libucrt:wsetlocale.obj
 0001:0004b7f8       ?detach@?$__crt_unique_heap_ptr@U__crt_multibyte_data@@U__crt_internal_free_policy@@@@QAEPAU__crt_multibyte_data@@XZ 1004c7f8 f i libucrt:wsetlocale.obj
 0001:0004b7fe       ?get@?$__crt_unique_heap_ptr@U__crt_locale_data@@U__crt_internal_free_policy@@@@QBEPAU__crt_locale_data@@XZ 1004c7fe f i libucrt:wsetlocale.obj
 0001:0004b801       ?get@?$__crt_unique_heap_ptr@U__crt_locale_pointers@@U__crt_internal_free_policy@@@@QBEPAU__crt_locale_pointers@@XZ 1004c801 f i libucrt:wsetlocale.obj
 0001:0004b804       ?get@?$__crt_unique_heap_ptr@U__crt_multibyte_data@@U__crt_internal_free_policy@@@@QBEPAU__crt_multibyte_data@@XZ 1004c804 f i libucrt:wsetlocale.obj
 0001:0004b807       ?is_valid@?$__crt_unique_heap_ptr@U__crt_locale_data@@U__crt_internal_free_policy@@@@QBE_NXZ 1004c807 f i libucrt:wsetlocale.obj
 0001:0004b80e       ?is_valid@?$__crt_unique_heap_ptr@U__crt_locale_pointers@@U__crt_internal_free_policy@@@@QBE_NXZ 1004c80e f i libucrt:wsetlocale.obj
 0001:0004b815       ?is_valid@?$__crt_unique_heap_ptr@U__crt_multibyte_data@@U__crt_internal_free_policy@@@@QBE_NXZ 1004c815 f i libucrt:wsetlocale.obj
 0001:0004b81c       ?release@?$__crt_unique_heap_ptr@U__crt_locale_data@@U__crt_internal_free_policy@@@@QAEXXZ 1004c81c f i libucrt:wsetlocale.obj
 0001:0004b832       ?release@?$__crt_unique_heap_ptr@U__crt_locale_pointers@@U__crt_internal_free_policy@@@@QAEXXZ 1004c832 f i libucrt:wsetlocale.obj
 0001:0004b848       ?release@?$__crt_unique_heap_ptr@U__crt_multibyte_data@@U__crt_internal_free_policy@@@@QAEXXZ 1004c848 f i libucrt:wsetlocale.obj
 0001:0004b85e       ___acrt_copy_locale_name   1004c85e f   libucrt:wsetlocale.obj
 0001:0004b8dd       ___acrt_set_locale_changed 1004c8dd f   libucrt:wsetlocale.obj
 0001:0004b8ea       ___acrt_uninitialize_locale 1004c8ea f   libucrt:wsetlocale.obj
 0001:0004b91d       ___lc_lctowcs              1004c91d f   libucrt:wsetlocale.obj
 0001:0004b9a9       ___lc_wcstolc              1004c9a9 f   libucrt:wsetlocale.obj
 0001:0004bb49       __configthreadlocale       1004cb49 f   libucrt:wsetlocale.obj
 0001:0004bbfd       __create_locale            1004cbfd f   libucrt:wsetlocale.obj
 0001:0004bc7c       __expandlocale             1004cc7c f   libucrt:wsetlocale.obj
 0001:0004c150       __free_locale              1004d150 f   libucrt:wsetlocale.obj
 0001:0004c236       __get_current_locale       1004d236 f   libucrt:wsetlocale.obj
 0001:0004c2fa       __wcreate_locale           1004d2fa f   libucrt:wsetlocale.obj
 0001:0004c445       __wcscats                  1004d445 f   libucrt:wsetlocale.obj
 0001:0004c496       __wsetlocale               1004d496 f   libucrt:wsetlocale.obj
 0001:0004cfcd       ___p___mb_cur_max          1004dfcd f   libucrt:nlsdata.obj
 0001:0004d45d       __lseek                    1004e45d f   libucrt:lseek.obj
 0001:0004d46a       __lseek_nolock             1004e46a f   libucrt:lseek.obj
 0001:0004d477       __lseeki64                 1004e477 f   libucrt:lseek.obj
 0001:0004d498       __lseeki64_nolock          1004e498 f   libucrt:lseek.obj
 0001:0004d4d5       ___isascii                 1004e4d5 f i libucrt:_ctype.obj
 0001:0004d4eb       ___iscsym                  1004e4eb f i libucrt:_ctype.obj
 0001:0004d515       ___iscsymf                 1004e515 f i libucrt:_ctype.obj
 0001:0004d53b       ___toascii                 1004e53b f i libucrt:_ctype.obj
 0001:0004d54b       __isalnum_l                1004e54b f i libucrt:_ctype.obj
 0001:0004d594       __isalpha_l                1004e594 f i libucrt:_ctype.obj
 0001:0004d5dd       __isblank_l                1004e5dd f i libucrt:_ctype.obj
 0001:0004d630       __iscntrl_l                1004e630 f i libucrt:_ctype.obj
 0001:0004d676       __iscsym_l                 1004e676 f i libucrt:_ctype.obj
 0001:0004d6a1       __iscsymf_l                1004e6a1 f i libucrt:_ctype.obj
 0001:0004d6cc       __isdigit_l                1004e6cc f i libucrt:_ctype.obj
 0001:0004d712       __isgraph_l                1004e712 f i libucrt:_ctype.obj
 0001:0004d75b       __islower_l                1004e75b f i libucrt:_ctype.obj
 0001:0004d7a1       __isprint_l                1004e7a1 f i libucrt:_ctype.obj
 0001:0004d7ea       __ispunct_l                1004e7ea f i libucrt:_ctype.obj
 0001:0004d830       __isspace_l                1004e830 f i libucrt:_ctype.obj
 0001:0004d876       __isupper_l                1004e876 f i libucrt:_ctype.obj
 0001:0004d8bc       __isxdigit_l               1004e8bc f i libucrt:_ctype.obj
 0001:0004d905       _isalnum                   1004e905 f i libucrt:_ctype.obj
 0001:0004d941       _isalpha                   1004e941 f i libucrt:_ctype.obj
 0001:0004d97d       _isblank                   1004e97d f i libucrt:_ctype.obj
 0001:0004d9c5       _iscntrl                   1004e9c5 f i libucrt:_ctype.obj
 0001:0004d9fe       _isdigit                   1004e9fe f i libucrt:_ctype.obj
 0001:0004da37       _isgraph                   1004ea37 f i libucrt:_ctype.obj
 0001:0004da73       _islower                   1004ea73 f i libucrt:_ctype.obj
 0001:0004daac       _isprint                   1004eaac f i libucrt:_ctype.obj
 0001:0004dae8       _ispunct                   1004eae8 f i libucrt:_ctype.obj
 0001:0004db21       _isspace                   1004eb21 f i libucrt:_ctype.obj
 0001:0004db5a       _isupper                   1004eb5a f i libucrt:_ctype.obj
 0001:0004db93       _isxdigit                  1004eb93 f i libucrt:_ctype.obj
 0001:0004df8b       __tolower                  1004ef8b f   libucrt:tolower_toupper.obj
 0001:0004df9b       __tolower_l                1004ef9b f   libucrt:tolower_toupper.obj
 0001:0004dfbb       __toupper                  1004efbb f   libucrt:tolower_toupper.obj
 0001:0004dfcb       __toupper_l                1004efcb f   libucrt:tolower_toupper.obj
 0001:0004dfeb       _tolower                   1004efeb f   libucrt:tolower_toupper.obj
 0001:0004e027       _toupper                   1004f027 f   libucrt:tolower_toupper.obj
 0001:0004e063       ??$make_c_string_character_source@DPAPAD@__crt_strtox@@YA?AV?$c_string_character_source@D@0@QBDQAPAD@Z 1004f063 f i libucrt:strtox.obj
 0001:0004e084       ??$make_c_string_character_source@_WPAPA_W@__crt_strtox@@YA?AV?$c_string_character_source@_W@0@QB_WQAPA_W@Z 1004f084 f i libucrt:strtox.obj
 0001:0004e0a5       ??$parse_integer_from_string@JDPAPAD@__crt_strtox@@YAJQBDQAPADHQAU__crt_locale_pointers@@@Z 1004f0a5 f i libucrt:strtox.obj
 0001:0004e0dd       ??$parse_integer_from_string@J_WPAPA_W@__crt_strtox@@YAJQB_WQAPA_WHQAU__crt_locale_pointers@@@Z 1004f0dd f i libucrt:strtox.obj
 0001:0004e115       ??$parse_integer_from_string@KDPAPAD@__crt_strtox@@YAKQBDQAPADHQAU__crt_locale_pointers@@@Z 1004f115 f i libucrt:strtox.obj
 0001:0004e14d       ??$parse_integer_from_string@K_WPAPA_W@__crt_strtox@@YAKQB_WQAPA_WHQAU__crt_locale_pointers@@@Z 1004f14d f i libucrt:strtox.obj
 0001:0004e185       ??$parse_integer_from_string@_JDPAPAD@__crt_strtox@@YA_JQBDQAPADHQAU__crt_locale_pointers@@@Z 1004f185 f i libucrt:strtox.obj
 0001:0004e1bd       ??$parse_integer_from_string@_J_WPAPA_W@__crt_strtox@@YA_JQB_WQAPA_WHQAU__crt_locale_pointers@@@Z 1004f1bd f i libucrt:strtox.obj
 0001:0004e1f5       ??$parse_integer_from_string@_KDPAPAD@__crt_strtox@@YA_KQBDQAPADHQAU__crt_locale_pointers@@@Z 1004f1f5 f i libucrt:strtox.obj
 0001:0004e22d       ??$parse_integer_from_string@_K_WPAPA_W@__crt_strtox@@YA_KQB_WQAPA_WHQAU__crt_locale_pointers@@@Z 1004f22d f i libucrt:strtox.obj
 0001:0004e265       __strtoi64                 1004f265 f   libucrt:strtox.obj
 0001:0004e29c       __strtoi64_l               1004f29c f   libucrt:strtox.obj
 0001:0004e2d4       __strtoimax_l              1004f2d4 f   libucrt:strtox.obj
 0001:0004e30c       __strtol_l                 1004f30c f   libucrt:strtox.obj
 0001:0004e344       __strtoll_l                1004f344 f   libucrt:strtox.obj
 0001:0004e37c       __strtoui64                1004f37c f   libucrt:strtox.obj
 0001:0004e3b3       __strtoui64_l              1004f3b3 f   libucrt:strtox.obj
 0001:0004e3eb       __strtoul_l                1004f3eb f   libucrt:strtox.obj
 0001:0004e423       __strtoull_l               1004f423 f   libucrt:strtox.obj
 0001:0004e45b       __strtoumax_l              1004f45b f   libucrt:strtox.obj
 0001:0004e493       __wcstoi64                 1004f493 f   libucrt:strtox.obj
 0001:0004e4ca       __wcstoi64_l               1004f4ca f   libucrt:strtox.obj
 0001:0004e502       __wcstoimax_l              1004f502 f   libucrt:strtox.obj
 0001:0004e53a       __wcstol_l                 1004f53a f   libucrt:strtox.obj
 0001:0004e572       __wcstoll_l                1004f572 f   libucrt:strtox.obj
 0001:0004e5aa       __wcstoui64                1004f5aa f   libucrt:strtox.obj
 0001:0004e5e1       __wcstoui64_l              1004f5e1 f   libucrt:strtox.obj
 0001:0004e619       __wcstoul_l                1004f619 f   libucrt:strtox.obj
 0001:0004e651       __wcstoull_l               1004f651 f   libucrt:strtox.obj
 0001:0004e689       __wcstoumax_l              1004f689 f   libucrt:strtox.obj
 0001:0004e6c1       _strtoimax                 1004f6c1 f   libucrt:strtox.obj
 0001:0004e6f8       _strtol                    1004f6f8 f   libucrt:strtox.obj
 0001:0004e72f       _strtoll                   1004f72f f   libucrt:strtox.obj
 0001:0004e766       _strtoul                   1004f766 f   libucrt:strtox.obj
 0001:0004e79d       _strtoull                  1004f79d f   libucrt:strtox.obj
 0001:0004e7d4       _strtoumax                 1004f7d4 f   libucrt:strtox.obj
 0001:0004e80b       _wcstoimax                 1004f80b f   libucrt:strtox.obj
 0001:0004e842       _wcstol                    1004f842 f   libucrt:strtox.obj
 0001:0004e879       _wcstoll                   1004f879 f   libucrt:strtox.obj
 0001:0004e8b0       _wcstoul                   1004f8b0 f   libucrt:strtox.obj
 0001:0004e8e7       _wcstoull                  1004f8e7 f   libucrt:strtox.obj
 0001:0004e91e       _wcstoumax                 1004f91e f   libucrt:strtox.obj
 0001:0004e955       __mbtowc_l                 1004f955 f   libucrt:mbtowc.obj
 0001:0004eaea       _mbtowc                    1004faea f   libucrt:mbtowc.obj
 0001:0004eb0a       __wctomb_l                 1004fb0a f   libucrt:wctomb.obj
 0001:0004eb71       __wctomb_s_l               1004fb71 f   libucrt:wctomb.obj
 0001:0004ecdc       _wctomb                    1004fcdc f   libucrt:wctomb.obj
 0001:0004ed1d       _wctomb_s                  1004fd1d f   libucrt:wctomb.obj
 0001:0004f73a       ??1?$__crt_simd_cleanup_guard@$00@@QAE@XZ 1005073a f i libucrt:strnlen.obj
 0001:0004f73e       ??1?$__crt_simd_cleanup_guard@$0A@@@QAE@XZ 1005073e f i libucrt:strnlen.obj
 0001:0004f73f       ?compare_equals@?$__crt_simd_traits@$00E@@SA?AT__m256i@@T2@0@Z 1005073f f i libucrt:strnlen.obj
 0001:0004f744       ?compare_equals@?$__crt_simd_traits@$00G@@SA?AT__m256i@@T2@0@Z 10050744 f i libucrt:strnlen.obj
 0001:0004f749       ?compare_equals@?$__crt_simd_traits@$0A@E@@SA?AT__m128i@@T2@0@Z 10050749 f i libucrt:strnlen.obj
 0001:0004f74e       ?compare_equals@?$__crt_simd_traits@$0A@G@@SA?AT__m128i@@T2@0@Z 1005074e f i libucrt:strnlen.obj
 0001:0004f753       ?compute_byte_mask@?$__crt_simd_pack_traits@$00@@SAHT__m256i@@@Z 10050753 f i libucrt:strnlen.obj
 0001:0004f758       ?compute_byte_mask@?$__crt_simd_pack_traits@$0A@@@SAHT__m128i@@@Z 10050758 f i libucrt:strnlen.obj
 0001:0004f75d       ?get_zero_pack@?$__crt_simd_pack_traits@$00@@SA?AT__m256i@@XZ 1005075d f i libucrt:strnlen.obj
 0001:0004f762       ?get_zero_pack@?$__crt_simd_pack_traits@$0A@@@SA?AT__m128i@@XZ 10050762 f i libucrt:strnlen.obj
 0001:0004f766       _strnlen                   10050766 f   libucrt:strnlen.obj
 0001:0004f8d0       _wcslen                    100508d0 f   libucrt:strnlen.obj
 0001:0004fa42       _wcsnlen                   10050a42 f   libucrt:strnlen.obj
 0001:0004fc5e       ?__acrt_fp_classify@@YA?AW4__acrt_fp_class@@ABN@Z 10050c5e f i libucrt:cvt.obj
 0001:0004fcd8       ?__acrt_fp_is_negative@@YA_NABN@Z 10050cd8 f i libucrt:cvt.obj
 0001:0005075d       ?strrchr@@YAPADQADH@Z      1005175d f i libucrt:cvt.obj
 0001:0005076a       ___acrt_fp_format          1005176a f   libucrt:cvt.obj
 0001:00050932       __fputwc_nolock            10051932 f   libucrt:fputwc.obj
 0001:00050aa6       __fputwchar                10051aa6 f   libucrt:fputwc.obj
 0001:00050ac6       __putwc_nolock             10051ac6 f   libucrt:fputwc.obj
 0001:00050ad3       _fputwc                    10051ad3 f   libucrt:fputwc.obj
 0001:00050b64       _putwc                     10051b64 f   libucrt:fputwc.obj
 0001:00050b71       _putwchar                  10051b71 f   libucrt:fputwc.obj
 0001:00050b7e       __fputc_nolock             10051b7e f   libucrt:fputc.obj
 0001:00050bb1       __fputchar                 10051bb1 f   libucrt:fputc.obj
 0001:00050bd1       __putc_nolock              10051bd1 f   libucrt:fputc.obj
 0001:00050bde       _fputc                     10051bde f   libucrt:fputc.obj
 0001:00050d1c       _putc                      10051d1c f   libucrt:fputc.obj
 0001:00050d29       _putchar                   10051d29 f   libucrt:fputc.obj
 0001:00050d36       __get_printf_count_output  10051d36 f   libucrt:printf_count_output.obj
 0001:00050d50       __set_printf_count_output  10051d50 f   libucrt:printf_count_output.obj
 0001:00050d84       __chgsign                  10051d84 f   libucrt:ieeemisc.obj
 0001:00050dbe       __chgsignf                 10051dbe f   libucrt:ieeemisc.obj
 0001:00050de9       __copysign                 10051de9 f   libucrt:ieeemisc.obj
 0001:00050e1d       __copysignf                10051e1d f   libucrt:ieeemisc.obj
 0001:00050e42       __finite                   10051e42 f   libucrt:ieeemisc.obj
 0001:00050e62       __fpclass                  10051e62 f   libucrt:ieeemisc.obj
 0001:00050f2f       __isnan                    10051f2f f   libucrt:ieeemisc.obj
 0001:00050f72       __logb                     10051f72 f   libucrt:ieeemisc.obj
 0001:00051077       __nextafter                10052077 f   libucrt:ieeemisc.obj
 0001:0005109d       __scalb                    1005209d f   libucrt:ieeemisc.obj
 0001:000510bd       __add_exp                  100520bd f   libucrt:util.obj
 0001:000510f7       __decomp                   100520f7 f   libucrt:util.obj
 0001:0005120c       __get_exp                  1005220c f   libucrt:util.obj
 0001:0005122a       __set_bexp                 1005222a f   libucrt:util.obj
 0001:0005125d       __set_exp                  1005225d f   libucrt:util.obj
 0001:00051297       __sptype                   10052297 f   libucrt:util.obj
 0001:0005130c       ___clrfp_sse2              1005230c f   libucrt:fpctrl.obj
 0001:00051335       ___ctrlfp_sse2             10052335 f   libucrt:fpctrl.obj
 0001:0005137e       ___fclrf_sse2              1005237e f   libucrt:fpctrl.obj
 0001:000513a4       ___get_fpsr_sse2           100523a4 f   libucrt:fpctrl.obj
 0001:000513c9       ___set_fpsr_sse2           100523c9 f   libucrt:fpctrl.obj
 0001:0005145c       ___set_statfp_sse2         1005245c f   libucrt:fpctrl.obj
 0001:0005147d       ___statfp_sse2             1005247d f   libucrt:fpctrl.obj
 0001:00051497       __clrfp                    10052497 f   libucrt:fpctrl.obj
 0001:000514ae       __ctrlfp                   100524ae f   libucrt:fpctrl.obj
 0001:000514e5       __set_statfp               100524e5 f   libucrt:fpctrl.obj
 0001:00051556       __statfp                   10052556 f   libucrt:fpctrl.obj
 0001:0005156c       ??$__crt_fast_decode_pointer@P6AHPAU_exception@@@Z@@YAP6AHPAU_exception@@@ZQ6AH0@Z@Z 1005256c f i libucrt:matherr.obj
 0001:00051587       ??$__crt_fast_encode_pointer@P6AHPAU_exception@@@Z@@YAP6AHPAU_exception@@@ZQ6AH0@Z@Z 10052587 f i libucrt:matherr.obj
 0001:000515ad       ?initialize@?$dual_state_global@P6AHPAU_exception@@@Z@__crt_state_management@@QAEXQ6AHPAU_exception@@@Z@Z 100525ad f i libucrt:matherr.obj
 0001:000515dc       ?value@?$dual_state_global@P6AHPAU_exception@@@Z@__crt_state_management@@QAEAAP6AHPAU_exception@@@ZXZ 100525dc f i libucrt:matherr.obj
 0001:000515df       ___acrt_has_user_matherr   100525df f   libucrt:matherr.obj
 0001:000515fd       ___acrt_initialize_user_matherr 100525fd f   libucrt:matherr.obj
 0001:0005160f       ___acrt_invoke_user_matherr 1005260f f   libucrt:matherr.obj
 0001:0005166a       ___setusermatherr          1005266a f   libucrt:matherr.obj
 0001:00052175       ??$find_first_file_ex@ABQADW4_FINDEX_INFO_LEVELS@@PAU_WIN32_FIND_DATAA@@W4_FINDEX_SEARCH_OPS@@$$TH@?$__crt_char_traits@D@@SAPAXABQAD$$QAW4_FINDEX_INFO_LEVELS@@$$QAPAU_WIN32_FIND_DATAA@@$$QAW4_FINDEX_SEARCH_OPS@@$$QA$$T$$QAH@Z 10053175 f i libucrt:argv_wildcards.obj
 0001:000521ad       ??$find_first_file_ex@ABQA_WW4_FINDEX_INFO_LEVELS@@PAU_WIN32_FIND_DATAW@@W4_FINDEX_SEARCH_OPS@@$$TH@?$__crt_char_traits@_W@@SAPAXABQA_W$$QAW4_FINDEX_INFO_LEVELS@@$$QAPAU_WIN32_FIND_DATAW@@$$QAW4_FINDEX_SEARCH_OPS@@$$QA$$T$$QAH@Z 100531ad f i libucrt:argv_wildcards.obj
 0001:000521e2       ??$find_next_file@PAXPAU_WIN32_FIND_DATAA@@@?$__crt_char_traits@D@@SAH$$QAPAX$$QAPAU_WIN32_FIND_DATAA@@@Z 100531e2 f i libucrt:argv_wildcards.obj
 0001:00052200       ??$find_next_file@PAXPAU_WIN32_FIND_DATAW@@@?$__crt_char_traits@_W@@SAH$$QAPAX$$QAPAU_WIN32_FIND_DATAW@@@Z 10053200 f i libucrt:argv_wildcards.obj
 0001:0005221c       ??$tcsncpy_s@AAPADIAAPADABI@?$__crt_char_traits@D@@SAHAAPAD$$QAI0ABI@Z 1005321c f i libucrt:argv_wildcards.obj
 0001:00052247       ??$tcsncpy_s@AAPA_WIAAPA_WABI@?$__crt_char_traits@_W@@SAHAAPA_W$$QAI0ABI@Z 10053247 f i libucrt:argv_wildcards.obj
 0001:00052272       ??$tcsncpy_s@PADABIABQBDABI@?$__crt_char_traits@D@@SAH$$QAPADABIABQBD1@Z 10053272 f i libucrt:argv_wildcards.obj
 0001:0005229d       ??$tcsncpy_s@PADIABQBDABI@?$__crt_char_traits@D@@SAH$$QAPAD$$QAIABQBDABI@Z 1005329d f i libucrt:argv_wildcards.obj
 0001:000522c8       ??$tcsncpy_s@PA_WABIABQB_WABI@?$__crt_char_traits@_W@@SAH$$QAPA_WABIABQB_W1@Z 100532c8 f i libucrt:argv_wildcards.obj
 0001:000522f3       ??$tcsncpy_s@PA_WIABQB_WABI@?$__crt_char_traits@_W@@SAH$$QAPA_W$$QAIABQB_WABI@Z 100532f3 f i libucrt:argv_wildcards.obj
 0001:0005231e       ??$tcspbrk@AAPADAAY02$$CBD@?$__crt_char_traits@D@@SAPADAAPADAAY02$$CBD@Z 1005331e f i libucrt:argv_wildcards.obj
 0001:00052339       ??$tcspbrk@AAPA_WAAY02$$CB_W@?$__crt_char_traits@_W@@SAPA_WAAPA_WAAY02$$CB_W@Z 10053339 f i libucrt:argv_wildcards.obj
 0001:00052354       ??0?$__crt_unique_handle_t@U__crt_findfile_traits@@@@QAE@QAX@Z 10053354 f i libucrt:argv_wildcards.obj
 0001:00052388       ??1?$__crt_unique_handle_t@U__crt_findfile_traits@@@@QAE@XZ 10053388 f i libucrt:argv_wildcards.obj
 0001:00052532       ?close@?$__crt_unique_handle_t@U__crt_findfile_traits@@@@QAEXXZ 10053532 f i libucrt:argv_wildcards.obj
 0001:0005254e       ?close@__crt_findfile_traits@@SA_NPAX@Z 1005354e f i libucrt:argv_wildcards.obj
 0001:000526c0       ?get@?$__crt_unique_handle_t@U__crt_findfile_traits@@@@QBEPAXXZ 100536c0 f i libucrt:argv_wildcards.obj
 0001:000526c3       ?get_invalid_value@__crt_findfile_traits@@SAPAXXZ 100536c3 f i libucrt:argv_wildcards.obj
 0001:000526fa       ?strpbrk@@YAPADQADQBD@Z    100536fa f i libucrt:argv_wildcards.obj
 0001:00052707       ?wcspbrk@@YAPA_WPA_WPB_W@Z 10053707 f i libucrt:argv_wildcards.obj
 0001:00052714       ___acrt_expand_narrow_argv_wildcards 10053714 f   libucrt:argv_wildcards.obj
 0001:00052721       ___acrt_expand_wide_argv_wildcards 10053721 f   libucrt:argv_wildcards.obj
 0001:000527b3       ??$initialize_from_array@$$BY10BAA@E@?$dual_state_global@PAE@__crt_state_management@@QAAXAAY10BAA@E@Z 100537b3 f i libucrt:mbctype.obj
 0001:000527c5       ??$initialize_from_array@$$BY10BAB@E@?$dual_state_global@PAE@__crt_state_management@@QAAXAAY10BAB@E@Z 100537c5 f i libucrt:mbctype.obj
 0001:00052924       ?dangerous_get_state_array@?$dual_state_global@PAE@__crt_state_management@@QAEPAPAEXZ 10053924 f i libucrt:mbctype.obj
 0001:00052927       ?dangerous_get_state_array@?$dual_state_global@PAU__crt_multibyte_data@@@__crt_state_management@@QAEPAPAU__crt_multibyte_data@@XZ 10053927 f i libucrt:mbctype.obj
 0001:000529b9       ?initialize@?$dual_state_global@PAU__crt_multibyte_data@@@__crt_state_management@@QAEXQAU__crt_multibyte_data@@@Z 100539b9 f i libucrt:mbctype.obj
 0001:00052ea8       ?value@?$dual_state_global@PAE@__crt_state_management@@QAEAAPAEXZ 10053ea8 f i libucrt:mbctype.obj
 0001:00052eab       ___acrt_initialize_multibyte 10053eab f   libucrt:mbctype.obj
 0001:00052f05       ___acrt_update_thread_multibyte_data 10053f05 f   libucrt:mbctype.obj
 0001:00052f1c       ___p__mbcasemap            10053f1c f   libucrt:mbctype.obj
 0001:00052f22       ___p__mbctype              10053f22 f   libucrt:mbctype.obj
 0001:00052f28       __getmbcp                  10053f28 f   libucrt:mbctype.obj
 0001:00052f6b       __setmbcp                  10053f6b f   libucrt:mbctype.obj
 0001:00052f91       __setmbcp_nolock           10053f91 f   libucrt:mbctype.obj
 0001:0005331a       __ismbbalnum               1005431a f   libucrt:ismbbyte.obj
 0001:0005333b       __ismbbalnum_l             1005433b f   libucrt:ismbbyte.obj
 0001:0005335e       __ismbbalpha               1005435e f   libucrt:ismbbyte.obj
 0001:0005337f       __ismbbalpha_l             1005437f f   libucrt:ismbbyte.obj
 0001:000533a2       __ismbbblank               100543a2 f   libucrt:ismbbyte.obj
 0001:000533cd       __ismbbblank_l             100543cd f   libucrt:ismbbyte.obj
 0001:000533fa       __ismbbgraph               100543fa f   libucrt:ismbbyte.obj
 0001:0005341b       __ismbbgraph_l             1005441b f   libucrt:ismbbyte.obj
 0001:0005343e       __ismbbkalnum              1005443e f   libucrt:ismbbyte.obj
 0001:0005345c       __ismbbkalnum_l            1005445c f   libucrt:ismbbyte.obj
 0001:0005347b       __ismbbkana                1005447b f   libucrt:ismbbyte.obj
 0001:00053492       __ismbbkana_l              10054492 f   libucrt:ismbbyte.obj
 0001:000534f7       __ismbbkprint              100544f7 f   libucrt:ismbbyte.obj
 0001:00053515       __ismbbkprint_l            10054515 f   libucrt:ismbbyte.obj
 0001:00053534       __ismbbkpunct              10054534 f   libucrt:ismbbyte.obj
 0001:00053552       __ismbbkpunct_l            10054552 f   libucrt:ismbbyte.obj
 0001:00053571       __ismbblead                10054571 f   libucrt:ismbbyte.obj
 0001:0005358f       __ismbblead_l              1005458f f   libucrt:ismbbyte.obj
 0001:000535ae       __ismbbprint               100545ae f   libucrt:ismbbyte.obj
 0001:000535cf       __ismbbprint_l             100545cf f   libucrt:ismbbyte.obj
 0001:000535f2       __ismbbpunct               100545f2 f   libucrt:ismbbyte.obj
 0001:00053610       __ismbbpunct_l             10054610 f   libucrt:ismbbyte.obj
 0001:0005362f       __ismbbtrail               1005462f f   libucrt:ismbbyte.obj
 0001:0005364d       __ismbbtrail_l             1005464d f   libucrt:ismbbyte.obj
 0001:0005366c       ___acrt_initialize_command_line 1005466c f   libucrt:argv_data.obj
 0001:0005368b       ___acrt_uninitialize_command_line 1005468b f   libucrt:argv_data.obj
 0001:0005368e       ___p___argc                1005468e f   libucrt:argv_data.obj
 0001:00053694       ___p___argv                10054694 f   libucrt:argv_data.obj
 0001:0005369a       ___p___wargv               1005469a f   libucrt:argv_data.obj
 0001:000536a0       ___p__acmdln               100546a0 f   libucrt:argv_data.obj
 0001:000536a6       ___p__pgmptr               100546a6 f   libucrt:argv_data.obj
 0001:000536ac       ___p__wcmdln               100546ac f   libucrt:argv_data.obj
 0001:000536b2       ___p__wpgmptr              100546b2 f   libucrt:argv_data.obj
 0001:000536b8       __get_pgmptr               100546b8 f   libucrt:argv_data.obj
 0001:000536f5       __get_wpgmptr              100546f5 f   libucrt:argv_data.obj
 0001:000537b0       ___acrt_WideCharToMultiByte 100547b0 f   libucrt:widechartomultibyte.obj
 0001:00053942       ___dcrt_get_narrow_environment_from_os 10054942 f   libucrt:get_environment_from_os.obj
 0001:000539e9       ___dcrt_get_wide_environment_from_os 100549e9 f   libucrt:get_environment_from_os.obj
 0001:000542ed       ??$get_or_create_environment_nolock@$$V@?$__crt_char_traits@D@@SAPAPADXZ 100552ed f i libucrt:setenv.obj
 0001:000542f2       ??$get_or_create_environment_nolock@$$V@?$__crt_char_traits@_W@@SAPAPA_WXZ 100552f2 f i libucrt:setenv.obj
 0001:000542f7       ??$set_environment_variable@ABQADQAD@?$__crt_char_traits@D@@SAHABQAD$$QBQAD@Z 100552f7 f i libucrt:setenv.obj
 0001:00054315       ??$set_environment_variable@ABQA_WQA_W@?$__crt_char_traits@_W@@SAHABQA_W$$QBQA_W@Z 10055315 f i libucrt:setenv.obj
 0001:00054331       ??$tcschr@ABQADD@?$__crt_char_traits@D@@SAPADABQAD$$QAD@Z 10055331 f i libucrt:setenv.obj
 0001:00054351       ??$tcschr@ABQA_WD@?$__crt_char_traits@_W@@SAPA_WABQA_W$$QAD@Z 10055351 f i libucrt:setenv.obj
 0001:00054376       ??$tcscpy_s@AAPADABIAAPAD@?$__crt_char_traits@D@@SAHAAPADABI0@Z 10055376 f i libucrt:setenv.obj
 0001:0005439b       ??$tcscpy_s@AAPA_WABIAAPA_W@?$__crt_char_traits@_W@@SAHAAPA_WABI0@Z 1005539b f i libucrt:setenv.obj
 0001:000543c0       ??$tcscpy_s@ABQADABIABQAD@?$__crt_char_traits@D@@SAHABQADABI0@Z 100553c0 f i libucrt:setenv.obj
 0001:000543e5       ??$tcscpy_s@ABQA_WABIABQA_W@?$__crt_char_traits@_W@@SAHABQA_WABI0@Z 100553e5 f i libucrt:setenv.obj
 0001:0005440a       ??$tcsnicoll@ABQBDAAPADABI@?$__crt_char_traits@D@@SAHABQBDAAPADABI@Z 1005540a f i libucrt:setenv.obj
 0001:0005442f       ??$tcsnicoll@ABQB_WAAPA_WABI@?$__crt_char_traits@_W@@SAHABQB_WAAPA_WABI@Z 1005542f f i libucrt:setenv.obj
 0001:00054478       ?strchr@@YAPADQADH@Z       10055478 f i libucrt:setenv.obj
 0001:00054485       ?wcschr@@YAPA_WPA_W_W@Z    10055485 f i libucrt:setenv.obj
 0001:00054492       ___dcrt_set_variable_in_narrow_environment_nolock 10055492 f   libucrt:setenv.obj
 0001:0005449f       ___dcrt_set_variable_in_wide_environment_nolock 1005549f f   libucrt:setenv.obj
 0001:000544ac       __recalloc                 100554ac f   libucrt:recalloc.obj
 0001:000544b9       __recalloc_base            100554b9 f   libucrt:recalloc.obj
 0001:00054541       ___acrt_getheap            10055541 f   libucrt:heap_handle.obj
 0001:00054547       ___acrt_initialize_heap    10055547 f   libucrt:heap_handle.obj
 0001:0005455c       ___acrt_uninitialize_heap  1005555c f   libucrt:heap_handle.obj
 0001:00054568       __get_heap_handle          10055568 f   libucrt:heap_handle.obj
 0001:0005456e       ___acrt_execute_initializers 1005556e f   libucrt:shared_initialization.obj
 0001:00054611       ___acrt_execute_uninitializers 10055611 f   libucrt:shared_initialization.obj
 0001:0005466b       ??$?B$$A6AHI@Z@__crt_fast_encoded_nullptr_t@@QBEP6AHI@ZXZ 1005566b f i libucrt:new_handler.obj
 0001:00054689       ??$__crt_fast_decode_pointer@P6AHI@Z@@YAP6AHI@ZQ6AHI@Z@Z 10055689 f i libucrt:new_handler.obj
 0001:000546a4       ??$__crt_fast_encode_pointer@P6AHI@Z@@YAP6AHI@ZQ6AHI@Z@Z 100556a4 f i libucrt:new_handler.obj
 0001:000546ca       ?_set_new_handler@@YAP6AHI@ZH@Z 100556ca f   libucrt:new_handler.obj
 0001:000546f0       ?initialize@?$dual_state_global@P6AHI@Z@__crt_state_management@@QAEXQ6AHI@Z@Z 100556f0 f i libucrt:new_handler.obj
 0001:0005471f       ?value@?$dual_state_global@P6AHI@Z@__crt_state_management@@QAEAAP6AHI@ZXZ 1005571f f i libucrt:new_handler.obj
 0001:00054722       ___acrt_initialize_new_handler 10055722 f   libucrt:new_handler.obj
 0001:00054734       __callnewh                 10055734 f   libucrt:new_handler.obj
 0001:00054789       __query_new_handler        10055789 f   libucrt:new_handler.obj
 0001:000547ef       __set_new_handler          100557ef f   libucrt:new_handler.obj
 0001:00054867       ___pctype_func             10055867 f   libucrt:ctype.obj
 0001:00054896       ___pwctype_func            10055896 f   libucrt:ctype.obj
 0001:0005489c       __iswctype_l               1005589c f   libucrt:iswctype.obj
 0001:000548b5       _iswctype                  100558b5 f   libucrt:iswctype.obj
 0001:0005493a       __isctype                  1005593a f   libucrt:isctype.obj
 0001:00054978       __isctype_l                10055978 f   libucrt:isctype.obj
 0001:00054a86       ?value@?$dual_state_global@J@__crt_state_management@@QAEAAJXZ 10055a86 f i libucrt:new_mode.obj
 0001:00054a89       __query_new_mode           10055a89 f   libucrt:new_mode.obj
 0001:00054a8f       __set_new_mode             10055a8f f   libucrt:new_mode.obj
 0001:00054bc8       _wcsncpy_s                 10055bc8 f   libucrt:wcsncpy_s.obj
 0001:00054de3       __mbstowcs_l               10055de3 f   libucrt:mbstowcs.obj
 0001:00054df0       __mbstowcs_s_l             10055df0 f   libucrt:mbstowcs.obj
 0001:00054f0a       _mbstowcs                  10055f0a f   libucrt:mbstowcs.obj
 0001:00054f3e       _mbstowcs_s                10055f3e f   libucrt:mbstowcs.obj
 0001:00054f66       ___acrt_OutputDebugStringA@4 10055f66 f   libucrt:outputdebugstringa.obj
 0001:000551a3       __commit                   100561a3 f   libucrt:commit.obj
 0001:000553ed       ___acrt_DownlevelLCIDToLocaleName 100563ed f   libucrt:lcidtoname_downlevel.obj
 0001:000554c1       ___acrt_DownlevelLocaleNameToLCID 100564c1 f   libucrt:lcidtoname_downlevel.obj
 0001:000554f8       ??$?RU__crt_lowio_handle_data@@@__crt_internal_free_policy@@QBEXQBU__crt_lowio_handle_data@@@Z 100564f8 f i libucrt:osfinfo.obj
 0001:0005550e       ??0?$__crt_unique_heap_ptr@U__crt_lowio_handle_data@@U__crt_internal_free_policy@@@@QAE@QAU__crt_lowio_handle_data@@@Z 1005650e f i libucrt:osfinfo.obj
 0001:00055522       ??1?$__crt_unique_heap_ptr@U__crt_lowio_handle_data@@U__crt_internal_free_policy@@@@QAE@XZ 10056522 f i libucrt:osfinfo.obj
 0001:00055538       ??B?$__crt_unique_heap_ptr@U__crt_lowio_handle_data@@U__crt_internal_free_policy@@@@QBE_NXZ 10056538 f i libucrt:osfinfo.obj
 0001:0005553f       ?detach@?$__crt_unique_heap_ptr@U__crt_lowio_handle_data@@U__crt_internal_free_policy@@@@QAEPAU__crt_lowio_handle_data@@XZ 1005653f f i libucrt:osfinfo.obj
 0001:00055545       ?get@?$__crt_unique_heap_ptr@U__crt_lowio_handle_data@@U__crt_internal_free_policy@@@@QBEPAU__crt_lowio_handle_data@@XZ 10056545 f i libucrt:osfinfo.obj
 0001:00055548       ?is_valid@?$__crt_unique_heap_ptr@U__crt_lowio_handle_data@@U__crt_internal_free_policy@@@@QBE_NXZ 10056548 f i libucrt:osfinfo.obj
 0001:0005554f       ?release@?$__crt_unique_heap_ptr@U__crt_lowio_handle_data@@U__crt_internal_free_policy@@@@QAEXXZ 1005654f f i libucrt:osfinfo.obj
 0001:00055565       ___acrt_lowio_create_handle_array 10056565 f   libucrt:osfinfo.obj
 0001:000555fd       ___acrt_lowio_destroy_handle_array 100565fd f   libucrt:osfinfo.obj
 0001:0005563f       ___acrt_lowio_ensure_fh_exists 1005663f f   libucrt:osfinfo.obj
 0001:000556f8       ___acrt_lowio_lock_fh      100566f8 f   libucrt:osfinfo.obj
 0001:00055723       ___acrt_lowio_set_os_handle 10056723 f   libucrt:osfinfo.obj
 0001:000557dc       ___acrt_lowio_unlock_fh    100567dc f   libucrt:osfinfo.obj
 0001:00055807       __alloc_osfhnd             10056807 f   libucrt:osfinfo.obj
 0001:00055952       __free_osfhnd              10056952 f   libucrt:osfinfo.obj
 0001:00055a07       __get_osfhandle            10056a07 f   libucrt:osfinfo.obj
 0001:00055a8b       __open_osfhandle           10056a8b f   libucrt:osfinfo.obj
 0001:00055bda       __wcsnicmp                 10056bda f   libucrt:wcsnicmp.obj
 0001:00055cb7       __wcsnicmp_l               10056cb7 f   libucrt:wcsnicmp.obj
 0001:00055df3       __strnicmp                 10056df3 f   libucrt:strnicmp.obj
 0001:00055e7b       __strnicmp_l               10056e7b f   libucrt:strnicmp.obj
 0001:00056004       ??$__vcrt_va_start_verify_argument_type@$$CBH@@YAXXZ 10057004 f i libucrt:open.obj
 0001:00056375       ??$tsopen_nolock@PAHABQAHABQBDABHABHABHABH@?$__crt_char_traits@D@@SAH$$QAPAHABQAHABQBDABH333@Z 10057375 f i libucrt:open.obj
 0001:000563b3       ??$tsopen_nolock@PAHABQAHABQB_WABHABHABHABH@?$__crt_char_traits@_W@@SAH$$QAPAHABQAHABQB_WABH333@Z 100573b3 f i libucrt:open.obj
 0001:000563f1       ??$tsopen_nolock@PAHPAHABQBDABHHABHH@?$__crt_char_traits@D@@SAH$$QAPAH0ABQBDABH$$QAH23@Z 100573f1 f i libucrt:open.obj
 0001:0005642f       ??$tsopen_nolock@PAHPAHABQB_WABHHABHH@?$__crt_char_traits@_W@@SAH$$QAPAH0ABQB_WABH$$QAH23@Z 1005742f f i libucrt:open.obj
 0001:00056c21       __open                     10057c21 f   libucrt:open.obj
 0001:00056c3f       __sopen                    10057c3f f   libucrt:open.obj
 0001:00056c81       __sopen_dispatch           10057c81 f   libucrt:open.obj
 0001:00056c8e       __sopen_nolock             10057c8e f   libucrt:open.obj
 0001:00056d1a       __sopen_s                  10057d1a f   libucrt:open.obj
 0001:00056d42       __wopen                    10057d42 f   libucrt:open.obj
 0001:00056d60       __wsopen                   10057d60 f   libucrt:open.obj
 0001:00056da2       __wsopen_dispatch          10057da2 f   libucrt:open.obj
 0001:00056daf       __wsopen_nolock            10057daf f   libucrt:open.obj
 0001:000571a6       __wsopen_s                 100581a6 f   libucrt:open.obj
 0001:000571ce       ___p__commode              100581ce f   libucrt:ncommode.obj
 0001:000571d4       __isatty                   100581d4 f   libucrt:isatty.obj
 0001:0005723f       ___acrt_stdio_allocate_buffer_nolock 1005823f f   libucrt:_getbuf.obj
 0001:000573bb       __putwch                   100583bb f   libucrt:putwch.obj
 0001:000573f5       __putwch_nolock            100583f5 f   libucrt:putwch.obj
 0001:00057436       ___acrt_add_locale_ref     10058436 f   libucrt:locale_refcounting.obj
 0001:000574d2       ___acrt_free_locale        100584d2 f   libucrt:locale_refcounting.obj
 0001:0005766e       ___acrt_locale_add_lc_time_reference 1005866e f   libucrt:locale_refcounting.obj
 0001:000576a1       ___acrt_locale_free_lc_time_if_unreferenced 100586a1 f   libucrt:locale_refcounting.obj
 0001:000576dd       ___acrt_locale_release_lc_time_reference 100586dd f   libucrt:locale_refcounting.obj
 0001:00057710       ___acrt_release_locale_ref 10058710 f   libucrt:locale_refcounting.obj
 0001:000577b1       ___acrt_update_thread_locale_data 100587b1 f   libucrt:locale_refcounting.obj
 0001:00057845       __updatetlocinfoEx_nolock  10058845 f   libucrt:locale_refcounting.obj
 0001:000578a9       ??$?RG@__crt_internal_free_policy@@QBEXQBG@Z 100588a9 f i libucrt:initctype.obj
 0001:000578bf       ??$?RJ@__crt_internal_free_policy@@QBEXQBJ@Z 100588bf f i libucrt:initctype.obj
 0001:000578d5       ??0?$__crt_unique_heap_ptr@GU__crt_internal_free_policy@@@@QAE@QAG@Z 100588d5 f i libucrt:initctype.obj
 0001:000578e9       ??0?$__crt_unique_heap_ptr@JU__crt_internal_free_policy@@@@QAE@QAJ@Z 100588e9 f i libucrt:initctype.obj
 0001:000578fd       ??1?$__crt_unique_heap_ptr@GU__crt_internal_free_policy@@@@QAE@XZ 100588fd f i libucrt:initctype.obj
 0001:00057913       ??1?$__crt_unique_heap_ptr@JU__crt_internal_free_policy@@@@QAE@XZ 10058913 f i libucrt:initctype.obj
 0001:00057929       ?detach@?$__crt_unique_heap_ptr@GU__crt_internal_free_policy@@@@QAEPAGXZ 10058929 f i libucrt:initctype.obj
 0001:0005792f       ?detach@?$__crt_unique_heap_ptr@JU__crt_internal_free_policy@@@@QAEPAJXZ 1005892f f i libucrt:initctype.obj
 0001:00057935       ?release@?$__crt_unique_heap_ptr@GU__crt_internal_free_policy@@@@QAEXXZ 10058935 f i libucrt:initctype.obj
 0001:0005794b       ?release@?$__crt_unique_heap_ptr@JU__crt_internal_free_policy@@@@QAEXXZ 1005894b f i libucrt:initctype.obj
 0001:00057961       ____lc_codepage_func       10058961 f   libucrt:initctype.obj
 0001:00057991       ____lc_collate_cp_func     10058991 f   libucrt:initctype.obj
 0001:000579c1       ____lc_locale_name_func    100589c1 f   libucrt:initctype.obj
 0001:000579f4       ____mb_cur_max_func        100589f4 f   libucrt:initctype.obj
 0001:00057a24       ____mb_cur_max_l_func      10058a24 f   libucrt:initctype.obj
 0001:00057a43       ___acrt_locale_initialize_ctype 10058a43 f   libucrt:initctype.obj
 0001:00057f84       ??$?RUlconv@@@__crt_internal_free_policy@@QBEXQBUlconv@@@Z 10058f84 f i libucrt:initmon.obj
 0001:00057f9a       ??0?$__crt_unique_heap_ptr@Ulconv@@U__crt_internal_free_policy@@@@QAE@QAUlconv@@@Z 10058f9a f i libucrt:initmon.obj
 0001:00057fae       ??1?$__crt_unique_heap_ptr@Ulconv@@U__crt_internal_free_policy@@@@QAE@XZ 10058fae f i libucrt:initmon.obj
 0001:00057fc4       ?detach@?$__crt_unique_heap_ptr@Ulconv@@U__crt_internal_free_policy@@@@QAEPAUlconv@@XZ 10058fc4 f i libucrt:initmon.obj
 0001:00057fca       ?release@?$__crt_unique_heap_ptr@Ulconv@@U__crt_internal_free_policy@@@@QAEXXZ 10058fca f i libucrt:initmon.obj
 0001:00057fe0       ___acrt_locale_free_monetary 10058fe0 f   libucrt:initmon.obj
 0001:0005811d       ___acrt_locale_initialize_monetary 1005911d f   libucrt:initmon.obj
 0001:0005860a       ___acrt_locale_free_numeric 1005960a f   libucrt:initnum.obj
 0001:0005868d       ___acrt_locale_initialize_numeric 1005968d f   libucrt:initnum.obj
 0001:00058968       ??$?RU__crt_lc_time_data@@@__crt_internal_free_policy@@QBEXQBU__crt_lc_time_data@@@Z 10059968 f i libucrt:inittime.obj
 0001:00058a08       ??0?$__crt_unique_heap_ptr@U__crt_lc_time_data@@U__crt_internal_free_policy@@@@QAE@QAU__crt_lc_time_data@@@Z 10059a08 f i libucrt:inittime.obj
 0001:00058a1c       ??1?$__crt_unique_heap_ptr@U__crt_lc_time_data@@U__crt_internal_free_policy@@@@QAE@XZ 10059a1c f i libucrt:inittime.obj
 0001:00058a32       ??B?$__crt_unique_heap_ptr@U__crt_lc_time_data@@U__crt_internal_free_policy@@@@QBE_NXZ 10059a32 f i libucrt:inittime.obj
 0001:00058a39       ?detach@?$__crt_unique_heap_ptr@U__crt_lc_time_data@@U__crt_internal_free_policy@@@@QAEPAU__crt_lc_time_data@@XZ 10059a39 f i libucrt:inittime.obj
 0001:00058a85       ?get@?$__crt_unique_heap_ptr@U__crt_lc_time_data@@U__crt_internal_free_policy@@@@QBEPAU__crt_lc_time_data@@XZ 10059a85 f i libucrt:inittime.obj
 0001:00058e1e       ?is_valid@?$__crt_unique_heap_ptr@U__crt_lc_time_data@@U__crt_internal_free_policy@@@@QBE_NXZ 10059e1e f i libucrt:inittime.obj
 0001:00058e25       ?release@?$__crt_unique_heap_ptr@U__crt_lc_time_data@@U__crt_internal_free_policy@@@@QAEXXZ 10059e25 f i libucrt:inittime.obj
 0001:00058e3b       ___acrt_locale_free_time   10059e3b f   libucrt:inittime.obj
 0001:00058f58       ___acrt_locale_initialize_time 10059f58 f   libucrt:inittime.obj
 0001:00058ff1       _wcscspn                   10059ff1 f   libucrt:wcscspn.obj
 0001:00059062       _wcspbrk                   1005a062 f   libucrt:wcspbrk.obj
 0001:000590c3       __wcsicmp                  1005a0c3 f   libucrt:wcsicmp.obj
 0001:00059174       __wcsicmp_l                1005a174 f   libucrt:wcsicmp.obj
 0001:00059288       ??0?$__crt_scoped_stack_ptr@_W@@QAE@U?$__crt_scoped_stack_ptr_tag@_W@@@Z 1005a288 f i libucrt:getstringtypea.obj
 0001:0005929c       ??0?$__crt_scoped_stack_ptr_tag@_W@@QAE@QA_W@Z 1005a29c f i libucrt:getstringtypea.obj
 0001:000592b0       ??1?$__crt_scoped_stack_ptr@_W@@QAE@XZ 1005a2b0 f i libucrt:getstringtypea.obj
 0001:000592bb       ?get@?$__crt_scoped_stack_ptr@_W@@QBEPA_WXZ 1005a2bb f i libucrt:getstringtypea.obj
 0001:000592be       __MallocaComputeSize       1005a2be f i libucrt:getstringtypea.obj
 0001:000592d5       __MarkAllocaS              1005a2d5 f i libucrt:getstringtypea.obj
 0001:000592f0       ___acrt_GetStringTypeA     1005a2f0 f   libucrt:getstringtypea.obj
 0001:00059436       __freea_crt                1005a436 f i libucrt:getstringtypea.obj
 0001:00059d8d       ___acrt_get_qualified_locale 1005ad8d f   libucrt:get_qualified_locale.obj
 0001:0005a97b       ___acrt_get_qualified_locale_downlevel 1005b97b f   libucrt:getqloc_downlevel.obj
 0001:0005abef       _localeconv                1005bbef f   libucrt:localeconv.obj
 0001:0005ac23       ___iswcsym                 1005bc23 f i libucrt:_wctype.obj
 0001:0005ac52       ___iswcsymf                1005bc52 f i libucrt:_wctype.obj
 0001:0005ac81       __isleadbyte_l             1005bc81 f i libucrt:_wctype.obj
 0001:0005acc8       __iswalnum_l               1005bcc8 f i libucrt:_wctype.obj
 0001:0005ace3       __iswalpha_l               1005bce3 f i libucrt:_wctype.obj
 0001:0005acfe       __iswblank_l               1005bcfe f i libucrt:_wctype.obj
 0001:0005ad22       __iswcntrl_l               1005bd22 f i libucrt:_wctype.obj
 0001:0005ad39       __iswcsym_l                1005bd39 f i libucrt:_wctype.obj
 0001:0005ad68       __iswcsymf_l               1005bd68 f i libucrt:_wctype.obj
 0001:0005ad97       __iswdigit_l               1005bd97 f i libucrt:_wctype.obj
 0001:0005adae       __iswgraph_l               1005bdae f i libucrt:_wctype.obj
 0001:0005adc9       __iswlower_l               1005bdc9 f i libucrt:_wctype.obj
 0001:0005ade0       __iswprint_l               1005bde0 f i libucrt:_wctype.obj
 0001:0005adfb       __iswpunct_l               1005bdfb f i libucrt:_wctype.obj
 0001:0005ae12       __iswspace_l               1005be12 f i libucrt:_wctype.obj
 0001:0005ae29       __iswupper_l               1005be29 f i libucrt:_wctype.obj
 0001:0005ae40       __iswxdigit_l              1005be40 f i libucrt:_wctype.obj
 0001:0005ae5b       _isleadbyte                1005be5b f i libucrt:_wctype.obj
 0001:0005ae72       _iswalnum                  1005be72 f i libucrt:_wctype.obj
 0001:0005ae8d       _iswalpha                  1005be8d f i libucrt:_wctype.obj
 0001:0005aea8       _iswascii                  1005bea8 f i libucrt:_wctype.obj
 0001:0005aec1       _iswblank                  1005bec1 f i libucrt:_wctype.obj
 0001:0005aee5       _iswcntrl                  1005bee5 f i libucrt:_wctype.obj
 0001:0005aefc       _iswdigit                  1005befc f i libucrt:_wctype.obj
 0001:0005af13       _iswgraph                  1005bf13 f i libucrt:_wctype.obj
 0001:0005af2e       _iswlower                  1005bf2e f i libucrt:_wctype.obj
 0001:0005af45       _iswprint                  1005bf45 f i libucrt:_wctype.obj
 0001:0005af60       _iswpunct                  1005bf60 f i libucrt:_wctype.obj
 0001:0005af77       _iswspace                  1005bf77 f i libucrt:_wctype.obj
 0001:0005af8e       _iswupper                  1005bf8e f i libucrt:_wctype.obj
 0001:0005afa5       _iswxdigit                 1005bfa5 f i libucrt:_wctype.obj
 0001:0005afc0       ??B?$__crt_scoped_stack_ptr@_W@@QBE_NXZ 1005bfc0 f i libucrt:lcmapstringa.obj
 0001:0005b22e       ___acrt_LCMapStringA       1005c22e f   libucrt:lcmapstringa.obj
 0001:0005b2c2       ?__mbrtowc_utf8@__crt_mbstring@@YAIPA_WPBDIPAU_Mbstatet@@@Z 1005c2c2 f   libucrt:mbrtowc.obj
 0001:0005b314       ?__mbsrtowcs_utf8@__crt_mbstring@@YAIPA_WPAPBDIPAU_Mbstatet@@@Z 1005c314 f   libucrt:mbrtowc.obj
 0001:0005b831       _btowc                     1005c831 f   libucrt:mbrtowc.obj
 0001:0005b8a1       _mbrlen                    1005c8a1 f   libucrt:mbrtowc.obj
 0001:0005b8e2       _mbrtowc                   1005c8e2 f   libucrt:mbrtowc.obj
 0001:0005b949       _mbsrtowcs                 1005c949 f   libucrt:mbrtowc.obj
 0001:0005b956       _mbsrtowcs_s               1005c956 f   libucrt:mbrtowc.obj
 0001:0005ba21       ___acrt_fp_strflt_to_string 1005ca21 f   libucrt:_fptostr.obj
 0001:0005d340       ??0big_integer@__crt_strtox@@QAE@ABU01@@Z 1005e340 f i libucrt:cfout.obj
 0001:0005d380       ??0big_integer@__crt_strtox@@QAE@XZ 1005e380 f i libucrt:cfout.obj
 0001:0005d3e0       ??4big_integer@__crt_strtox@@QAEAAU01@ABU01@@Z 1005e3e0 f i libucrt:cfout.obj
 0001:0005d420       ??8__crt_strtox@@YA_NABUbig_integer@0@0@Z 1005e420 f i libucrt:cfout.obj
 0001:0005d470       ??9__crt_strtox@@YA_NABUbig_integer@0@0@Z 1005e470 f i libucrt:cfout.obj
 0001:0005d4c0       ?add_carry@__crt_strtox@@YAIAAIII@Z 1005e4c0 f i libucrt:cfout.obj
 0001:0005d4f0       ?add_multiply_carry@__crt_strtox@@YAIAAIIII@Z 1005e4f0 f i libucrt:cfout.obj
 0001:0005d520       ?bit_scan_reverse@__crt_strtox@@YAII@Z 1005e520 f i libucrt:cfout.obj
 0001:0005d550       ?count_sequential_high_zeroes@__crt_strtox@@YAII@Z 1005e550 f i libucrt:cfout.obj
 0001:0005d580       ?divide@__crt_strtox@@YA_KAAUbig_integer@1@ABU21@@Z 1005e580 f i libucrt:cfout.obj
 0001:0005db30       ?is_zero@__crt_strtox@@YA_NABUbig_integer@1@@Z 1005eb30 f i libucrt:cfout.obj
 0001:0005db50       ?make_big_integer@__crt_strtox@@YA?AUbig_integer@1@_K@Z 1005eb50 f i libucrt:cfout.obj
 0001:0005db80       ?make_big_integer_power_of_two@__crt_strtox@@YA?AUbig_integer@1@I@Z 1005eb80 f i libucrt:cfout.obj
 0001:0005dbe0       ?multiply@__crt_strtox@@YA_NAAUbig_integer@1@ABU21@@Z 1005ebe0 f i libucrt:cfout.obj
 0001:0005dff0       ?multiply@__crt_strtox@@YA_NAAUbig_integer@1@I@Z 1005eff0 f i libucrt:cfout.obj
 0001:0005e0f0       ?multiply_64_32@__crt_strtox@@YA_K_KI@Z 1005f0f0 f i libucrt:cfout.obj
 0001:0005e110       ?multiply_by_power_of_ten@__crt_strtox@@YA_NAAUbig_integer@1@I@Z 1005f110 f i libucrt:cfout.obj
 0001:0005e780       ?multiply_core@__crt_strtox@@YAIQAIII@Z 1005f780 f i libucrt:cfout.obj
 0001:0005e7d0       ?shift_left@__crt_strtox@@YA_NAAUbig_integer@1@I@Z 1005f7d0 f i libucrt:cfout.obj
 0001:0005e97b       ___acrt_fltout             1005f97b f   libucrt:cfout.obj
 0001:00060266       _nextafter                 10061266 f   libucrt:nextafter.obj
 0001:000603a0       _qsort                     100613a0 f   libucrt:qsort.obj
 0001:000609d1       _strncpy_s                 100619d1 f   libucrt:strncpy_s.obj
 0001:000609e0       _strpbrk                   100619e0 f   libucrt:strpbrk.obj
 0001:00060a30       ??$__acrt_convert_wcs_mbs@D_W$$A6AIPA_WPBDIPAU__crt_locale_pointers@@@ZU__crt_win32_buffer_internal_dynamic_resizing@@@@YAHQBDAAV?$__crt_win32_buffer@_WU__crt_win32_buffer_internal_dynamic_resizing@@@@A6AIPA_WPBDIPAU__crt_locale_pointers@@@Z4@Z 10061a30 f i libucrt:findfirstfileexa.obj
 0001:00060af9       ??$__acrt_mbs_to_wcs@U__crt_win32_buffer_internal_dynamic_resizing@@@@YAHQBDAAV?$__crt_win32_buffer@_WU__crt_win32_buffer_internal_dynamic_resizing@@@@PAU__crt_locale_pointers@@@Z 10061af9 f i libucrt:findfirstfileexa.obj
 0001:00060b1d       ?set_to_nullptr@?$__crt_win32_buffer@_WU__crt_win32_buffer_internal_dynamic_resizing@@@@QAEXXZ 10061b1d f i libucrt:findfirstfileexa.obj
 0001:00060b39       ___acrt_FindFirstFileExA   10061b39 f   libucrt:findfirstfileexa.obj
 0001:00060bb8       ??$?0$0BAE@@?$__crt_win32_buffer@DU__crt_win32_buffer_no_resizing@@@@QAE@AAY0BAE@D@Z 10061bb8 f i libucrt:findnextfilea.obj
 0001:00060be7       ??$?0$0O@@?$__crt_win32_buffer@DU__crt_win32_buffer_no_resizing@@@@QAE@AAY0O@D@Z 10061be7 f i libucrt:findnextfilea.obj
 0001:00060c14       ??$__acrt_convert_wcs_mbs@_WD$$A6AIPADPB_WIPAU__crt_locale_pointers@@@ZU__crt_win32_buffer_no_resizing@@@@YAHQB_WAAV?$__crt_win32_buffer@DU__crt_win32_buffer_no_resizing@@@@A6AIPADPB_WIPAU__crt_locale_pointers@@@Z4@Z 10061c14 f i libucrt:findnextfilea.obj
 0001:00060cde       ??$__acrt_wcs_to_mbs@U__crt_win32_buffer_no_resizing@@@@YAHQB_WAAV?$__crt_win32_buffer@DU__crt_win32_buffer_no_resizing@@@@PAU__crt_locale_pointers@@@Z 10061cde f i libucrt:findnextfilea.obj
 0001:00060d02       ??1?$__crt_win32_buffer@DU__crt_win32_buffer_no_resizing@@@@QAE@XZ 10061d02 f i libucrt:findnextfilea.obj
 0001:00060d0f       ?_deallocate@?$__crt_win32_buffer@DU__crt_win32_buffer_no_resizing@@@@AAEXXZ 10061d0f f i libucrt:findnextfilea.obj
 0001:00060d1c       ?allocate@?$__crt_win32_buffer@DU__crt_win32_buffer_no_resizing@@@@QAEHI@Z 10061d1c f i libucrt:findnextfilea.obj
 0001:00060d4c       ?allocate@__crt_win32_buffer_no_resizing@@SAHQAPAXIABV__crt_win32_buffer_empty_debug_info@@@Z 10061d4c f i libucrt:findnextfilea.obj
 0001:00060d5c       ?capacity@?$__crt_win32_buffer@DU__crt_win32_buffer_no_resizing@@@@QBEIXZ 10061d5c f i libucrt:findnextfilea.obj
 0001:00060d60       ?data@?$__crt_win32_buffer@DU__crt_win32_buffer_no_resizing@@@@QAEPADXZ 10061d60 f i libucrt:findnextfilea.obj
 0001:00060d64       ?deallocate@__crt_win32_buffer_no_resizing@@SAXQAXABV__crt_win32_buffer_empty_debug_info@@@Z 10061d64 f i libucrt:findnextfilea.obj
 0001:00060d65       ?debug_info@?$__crt_win32_buffer@DU__crt_win32_buffer_no_resizing@@@@QBEABV__crt_win32_buffer_empty_debug_info@@XZ 10061d65 f i libucrt:findnextfilea.obj
 0001:00060d68       ?set_to_nullptr@?$__crt_win32_buffer@DU__crt_win32_buffer_no_resizing@@@@QAEXXZ 10061d68 f i libucrt:findnextfilea.obj
 0001:00060d81       ?size@?$__crt_win32_buffer@DU__crt_win32_buffer_no_resizing@@@@QAEXI@Z 10061d81 f i libucrt:findnextfilea.obj
 0001:00060d93       ___acrt_FindNextFileA      10061d93 f   libucrt:findnextfilea.obj
 0001:00060f24       __mbsdec                   10061f24 f   libucrt:mbsdec.obj
 0001:00060f40       __mbsdec_l                 10061f40 f   libucrt:mbsdec.obj
 0001:00061004       __wcsnicoll                10062004 f   libucrt:wcsnicol.obj
 0001:000610fc       __wcsnicoll_l              100620fc f   libucrt:wcsnicol.obj
 0001:00061261       __strnicoll                10062261 f   libucrt:strnicol.obj
 0001:00061294       __strnicoll_l              10062294 f   libucrt:strnicol.obj
 0001:00061390       ___acrt_SetEnvironmentVariableA 10062390 f   libucrt:setenvironmentvariablea.obj
 0001:0006145f       __msize                    1006245f f   libucrt:msize.obj
 0001:0006146c       __msize_base               1006246c f   libucrt:msize.obj
 0001:000614ab       ___acrt_GetStringTypeW     100624ab f   libucrt:getstringtypew.obj
 0001:000614ca       __towlower_l               100624ca f   libucrt:towlower.obj
 0001:000615c5       _towlower                  100625c5 f   libucrt:towlower.obj
 0001:000615e0       ___ascii_strnicmp          100625e0 f   libucrt:_strnicm.obj
 0001:00061659       ??$__crt_interlocked_read@H@@YAHPDH@Z 10062659 f i libucrt:setmode.obj
 0001:00061668       ?value@?$dual_state_global@H@__crt_state_management@@QAEAAHXZ 10062668 f i libucrt:setmode.obj
 0001:0006166b       __get_fmode                1006266b f   libucrt:setmode.obj
 0001:000616a2       __set_fmode                100626a2 f   libucrt:setmode.obj
 0001:000616ee       __setmode                  100626ee f   libucrt:setmode.obj
 0001:00061836       __setmode_nolock           10062836 f   libucrt:setmode.obj
 0001:00061ac7       __chsize                   10062ac7 f   libucrt:chsize.obj
 0001:00061aea       __chsize_nolock            10062aea f   libucrt:chsize.obj
 0001:00061cdf       __chsize_s                 10062cdf f   libucrt:chsize.obj
 0001:00061db7       __umask                    10062db7 f   libucrt:umask.obj
 0001:00061de5       __umask_s                  10062de5 f   libucrt:umask.obj
 0001:00061f08       ___dcrt_lowio_ensure_console_output_initialized 10062f08 f   libucrt:initcon.obj
 0001:00061f2e       ___dcrt_terminate_console_output 10062f2e f   libucrt:initcon.obj
 0001:00061f4a       ___dcrt_write_console      10062f4a f   libucrt:initcon.obj
 0001:000620cd       ___acrt_GetLocaleInfoA     100630cd f   libucrt:getlocaleinfoa.obj
 0001:000622eb       ___strncnt                 100632eb f   libucrt:strncnt.obj
 0001:0006230e       ?__mbrtoc32_utf8@__crt_mbstring@@YAIPA_UPBDIPAU_Mbstatet@@@Z 1006330e f   libucrt:mbrtoc32.obj
 0001:0006252f       ?reset_and_return@__crt_mbstring@@YAIIPAU_Mbstatet@@@Z 1006352f f i libucrt:mbrtoc32.obj
 0001:00062548       ?return_illegal_sequence@__crt_mbstring@@YAIPAU_Mbstatet@@@Z 10063548 f i libucrt:mbrtoc32.obj
 0001:0006256e       _mbrtoc32                  1006356e f   libucrt:mbrtoc32.obj
 0001:0006257b       _fegetenv                  1006357b f   libucrt:fegetenv.obj
 0001:0006259f       _fesetenv                  1006359f f   libucrt:fesetenv.obj
 0001:000625ff       _feholdexcept              100635ff f   libucrt:feholdexcept.obj
 0001:00062670       __CIlog10                  10063670 f   libucrt:log10_impl.obj
 0001:000626ab       __CIlog10_default          100636ab f   libucrt:log10_impl.obj
 0001:000626bf       __log10_default            100636bf     libucrt:log10_impl.obj
 0001:000627d0       _ceil                      100637d0 f   libucrt:ceil_pentium4.obj
 0001:00062810       __ceil_pentium4            10063810 f   libucrt:ceil_pentium4.obj
 0001:00062934       _nexttoward                10063934 f   libucrt:nexttoward.obj
 0001:00062e7c       __wcstombs_l               10063e7c f   libucrt:wcstombs.obj
 0001:00062e89       __wcstombs_s_l             10063e89 f   libucrt:wcstombs.obj
 0001:00062f89       _wcstombs                  10063f89 f   libucrt:wcstombs.obj
 0001:00062fa9       _wcstombs_s                10063fa9 f   libucrt:wcstombs.obj
 0001:00062fd1       ___acrt_CompareStringW     10063fd1 f   libucrt:comparestringw.obj
 0001:00063368       ___acrt_CompareStringA     10064368 f   libucrt:comparestringa.obj
 0001:000633c2       ___acrt_LCMapStringW       100643c2 f   libucrt:lcmapstringw.obj
 0001:0006340f       ___p__fmode                1006440f f   libucrt:txtmode.obj
 0001:00063415       ??$__acrt_fenv_shift_bits@W4__acrt_fenv_abstract_control@@@@YA?AW4__acrt_fenv_abstract_control@@W40@0I@Z 10064415 f i libucrt:_fenvutils.obj
 0001:0006342b       ??$__acrt_fenv_shift_bits@W4__acrt_fenv_abstract_status@@@@YA?AW4__acrt_fenv_abstract_status@@W40@0I@Z 1006442b f i libucrt:_fenvutils.obj
 0001:00063441       ??$__acrt_fenv_translate_bit@W4__acrt_fenv_abstract_control@@W4__acrt_fenv_machine_sse_control@@@@YA?AW4__acrt_fenv_abstract_control@@W4__acrt_fenv_machine_sse_control@@0W40@1@Z 10064441 f i libucrt:_fenvutils.obj
 0001:0006345f       ??$__acrt_fenv_translate_bit@W4__acrt_fenv_abstract_control@@W4__acrt_fenv_machine_x87_control@@@@YA?AW4__acrt_fenv_abstract_control@@W4__acrt_fenv_machine_x87_control@@0W40@1@Z 1006445f f i libucrt:_fenvutils.obj
 0001:0006347d       ??$__acrt_fenv_translate_bit@W4__acrt_fenv_abstract_status@@W4__acrt_fenv_machine_sse_status@@@@YA?AW4__acrt_fenv_abstract_status@@W4__acrt_fenv_machine_sse_status@@0W40@1@Z 1006447d f i libucrt:_fenvutils.obj
 0001:00063497       ??$__acrt_fenv_translate_bit@W4__acrt_fenv_abstract_status@@W4__acrt_fenv_machine_x87_status@@@@YA?AW4__acrt_fenv_abstract_status@@W4__acrt_fenv_machine_x87_status@@0W40@1@Z 10064497 f i libucrt:_fenvutils.obj
 0001:000634b1       ??$__acrt_fenv_translate_bit@W4__acrt_fenv_machine_sse_control@@W4__acrt_fenv_abstract_control@@@@YA?AW4__acrt_fenv_machine_sse_control@@W4__acrt_fenv_abstract_control@@0W40@1@Z 100644b1 f i libucrt:_fenvutils.obj
 0001:000634cd       ??$__acrt_fenv_translate_bit@W4__acrt_fenv_machine_sse_status@@W4__acrt_fenv_abstract_status@@@@YA?AW4__acrt_fenv_machine_sse_status@@W4__acrt_fenv_abstract_status@@0W40@1@Z 100644cd f i libucrt:_fenvutils.obj
 0001:000634e7       ??$__acrt_fenv_translate_bit@W4__acrt_fenv_machine_x87_control@@W4__acrt_fenv_abstract_control@@@@YA?AW4__acrt_fenv_machine_x87_control@@W4__acrt_fenv_abstract_control@@0W40@1@Z 100644e7 f i libucrt:_fenvutils.obj
 0001:00063503       ??$__acrt_fenv_translate_bit@W4__acrt_fenv_machine_x87_status@@W4__acrt_fenv_abstract_status@@@@YA?AW4__acrt_fenv_machine_x87_status@@W4__acrt_fenv_abstract_status@@0W40@1@Z 10064503 f i libucrt:_fenvutils.obj
 0001:0006351d       ??$__acrt_fenv_unshift_bits@W4__acrt_fenv_abstract_control@@@@YA?AW4__acrt_fenv_abstract_control@@W40@0I@Z 1006451d f i libucrt:_fenvutils.obj
 0001:00063533       ??$__acrt_fenv_unshift_bits@W4__acrt_fenv_abstract_status@@@@YA?AW4__acrt_fenv_abstract_status@@W40@0I@Z 10064533 f i libucrt:_fenvutils.obj
 0001:00063b5e       ??I@YA?AW4__acrt_fenv_abstract_control@@W40@0@Z 10064b5e f i libucrt:_fenvutils.obj
 0001:00063b6e       ??I@YA?AW4__acrt_fenv_abstract_status@@W40@0@Z 10064b6e f i libucrt:_fenvutils.obj
 0001:00063b7e       ??I@YA?AW4__acrt_fenv_machine_sse_control@@W40@0@Z 10064b7e f i libucrt:_fenvutils.obj
 0001:00063b8e       ??I@YA?AW4__acrt_fenv_machine_sse_status@@W40@0@Z 10064b8e f i libucrt:_fenvutils.obj
 0001:00063b9e       ??I@YA?AW4__acrt_fenv_machine_x87_control@@W40@0@Z 10064b9e f i libucrt:_fenvutils.obj
 0001:00063bae       ??I@YA?AW4__acrt_fenv_machine_x87_status@@W40@0@Z 10064bae f i libucrt:_fenvutils.obj
 0001:00063bbe       ??U@YA?AW4__acrt_fenv_abstract_control@@W40@0@Z 10064bbe f i libucrt:_fenvutils.obj
 0001:00063bce       ??U@YA?AW4__acrt_fenv_abstract_status@@W40@0@Z 10064bce f i libucrt:_fenvutils.obj
 0001:00063bde       ??U@YA?AW4__acrt_fenv_machine_sse_control@@W40@0@Z 10064bde f i libucrt:_fenvutils.obj
 0001:00063bee       ??U@YA?AW4__acrt_fenv_machine_x87_control@@W40@0@Z 10064bee f i libucrt:_fenvutils.obj
 0001:00063bfe       ??_5@YAAAW4__acrt_fenv_abstract_control@@AAW40@W40@@Z 10064bfe f i libucrt:_fenvutils.obj
 0001:00063c10       ??_5@YAAAW4__acrt_fenv_abstract_status@@AAW40@W40@@Z 10064c10 f i libucrt:_fenvutils.obj
 0001:00063c22       ??_5@YAAAW4__acrt_fenv_machine_sse_control@@AAW40@W40@@Z 10064c22 f i libucrt:_fenvutils.obj
 0001:00063c37       ??_5@YAAAW4__acrt_fenv_machine_sse_status@@AAW40@W40@@Z 10064c37 f i libucrt:_fenvutils.obj
 0001:00063c49       ??_5@YAAAW4__acrt_fenv_machine_x87_control@@AAW40@W40@@Z 10064c49 f i libucrt:_fenvutils.obj
 0001:00063c5e       ??_5@YAAAW4__acrt_fenv_machine_x87_status@@AAW40@W40@@Z 10064c5e f i libucrt:_fenvutils.obj
 0001:00063c70       ?__acrt_fenv_shift_abstract_sse_control@@YA?AW4__acrt_fenv_abstract_control@@W41@@Z 10064c70 f i libucrt:_fenvutils.obj
 0001:00063c94       ?__acrt_fenv_shift_abstract_sse_status@@YA?AW4__acrt_fenv_abstract_status@@W41@@Z 10064c94 f i libucrt:_fenvutils.obj
 0001:00063ca8       ?__acrt_fenv_shift_abstract_x87_control@@YA?AW4__acrt_fenv_abstract_control@@W41@@Z 10064ca8 f i libucrt:_fenvutils.obj
 0001:00063ccc       ?__acrt_fenv_shift_abstract_x87_status@@YA?AW4__acrt_fenv_abstract_status@@W41@@Z 10064ccc f i libucrt:_fenvutils.obj
 0001:00063ce0       ?__acrt_fenv_unshift_abstract_sse_control@@YA?AW4__acrt_fenv_abstract_control@@W41@@Z 10064ce0 f i libucrt:_fenvutils.obj
 0001:00063d06       ?__acrt_fenv_unshift_abstract_sse_status@@YA?AW4__acrt_fenv_abstract_status@@W41@@Z 10064d06 f i libucrt:_fenvutils.obj
 0001:00063d1a       ?__acrt_fenv_unshift_abstract_x87_control@@YA?AW4__acrt_fenv_abstract_control@@W41@@Z 10064d1a f i libucrt:_fenvutils.obj
 0001:00063d40       ?__acrt_fenv_unshift_abstract_x87_status@@YA?AW4__acrt_fenv_abstract_status@@W41@@Z 10064d40 f i libucrt:_fenvutils.obj
 0001:000643f7       ___acrt_fenv_expand_round_control 100653f7 f   libucrt:_fenvutils.obj
 0001:0006443a       ___acrt_fenv_get_common_round_control 1006543a f   libucrt:_fenvutils.obj
 0001:00064464       ___acrt_fenv_get_control   10065464 f   libucrt:_fenvutils.obj
 0001:00064506       ___acrt_fenv_get_fp_status_word_from_exception_mask 10065506 f   libucrt:_fenvutils.obj
 0001:00064526       ___acrt_fenv_get_status    10065526 f   libucrt:_fenvutils.obj
 0001:00064618       ___acrt_fenv_set_control   10065618 f   libucrt:_fenvutils.obj
 0001:0006469c       ___acrt_fenv_set_status    1006569c f   libucrt:_fenvutils.obj
 0001:00064968       ___control87_2             10065968 f   libucrt:ieee87.obj
 0001:00064f34       ___fpreset_sse2            10065f34 f   libucrt:ieee87.obj
 0001:0006517d       __clearfp                  1006617d f   libucrt:ieee87.obj
 0001:00065295       __control87                10066295 f   libucrt:ieee87.obj
 0001:00065653       __controlfp                10066653 f   libucrt:ieee87.obj
 0001:00065673       __fpreset                  10066673 f   libucrt:ieee87.obj
 0001:00065776       __set_controlfp            10066776 f   libucrt:ieee87.obj
 0001:0006580c       __statusfp                 1006680c f   libucrt:ieee87.obj
 0001:000658d0       __statusfp2                100668d0 f   libucrt:ieee87.obj
 0001:0006594e       ___acrt_initialize_sse2    1006694e f   libucrt:mathfcns.obj
 0001:00065962       __set_SSE2_enable          10066962 f   libucrt:mathfcns.obj
 0001:00065990       __CIlog10_pentium4         10066990 f   libucrt:log10_pentium4.obj
 0001:000659a8       __log10_pentium4           100669a8     libucrt:log10_pentium4.obj
 0001:00065cf0       __fFEXP                    10066cf0 f   libucrt:87tran.obj
 0001:00065d47       __rtinfpopse               10066d47     libucrt:87tran.obj
 0001:00065d49       __rtinfnpopse              10066d49     libucrt:87tran.obj
 0001:00065d59       __fFLN                     10066d59     libucrt:87tran.obj
 0001:00065e0e       __rtinfpop                 10066e0e     libucrt:87tran.obj
 0001:00065e10       __rtinfnpop                10066e10     libucrt:87tran.obj
 0001:00065e20       __rtforexpinf              10066e20 f   libucrt:87tran.obj
 0001:00065e2d       __ffexpm1                  10066e2d     libucrt:87tran.obj
 0001:00065f60       __trandisp1                10066f60 f   libucrt:87disp.obj
 0001:00065fd5       __trandisp2                10066fd5 f   libucrt:87disp.obj
 0001:0006606f       __rttospopde               1006706f     libucrt:87disp.obj
 0001:00066074       __rttospop                 10067074     libucrt:87disp.obj
 0001:00066080       __rtnospop                 10067080 f   libucrt:87disp.obj
 0001:00066090       __rttosnpop                10067090 f   libucrt:87disp.obj
 0001:00066091       __rtnospopde               10067091     libucrt:87disp.obj
 0001:00066098       __rtzeropop                10067098     libucrt:87disp.obj
 0001:0006609a       __rtzeronpop               1006709a     libucrt:87disp.obj
 0001:000660a0       __rtzerospop               100670a0 f   libucrt:87disp.obj
 0001:000660ad       __rtonepop                 100670ad     libucrt:87disp.obj
 0001:000660b0       __rtonenpop                100670b0 f   libucrt:87disp.obj
 0001:000660c0       __tosnan1                  100670c0 f   libucrt:87disp.obj
 0001:000660f0       __nosnan2                  100670f0 f   libucrt:87disp.obj
 0001:00066100       __tosnan2                  10067100 f   libucrt:87disp.obj
 0001:00066130       __nan2                     10067130 f   libucrt:87disp.obj
 0001:00066170       __rtindfpop                10067170 f   libucrt:87disp.obj
 0001:00066172       __rtindfnpop               10067172     libucrt:87disp.obj
 0001:00066183       __rttosnpopde              10067183     libucrt:87disp.obj
 0001:00066190       __rtatan2inf               10067190 f   libucrt:87disp.obj
 0001:000661ad       __rtchsifneg               100671ad     libucrt:87disp.obj
 0001:00066249       ___setfflag                10067249 f   libucrt:fp_flags.obj
 0001:00066270       __twoToTOS                 10067270 f   libucrt:common.obj
 0001:00066285       __load_CW                  10067285 f   libucrt:common.obj
 0001:0006629c       __convertTOStoQNaN         1006729c f   libucrt:common.obj
 0001:000662b5       __fload_withFB             100672b5 f   libucrt:common.obj
 0001:000662f8       __checkTOS_withFB          100672f8 f   libucrt:common.obj
 0001:0006630e       __fast_exit                1006730e f   libucrt:common.obj
 0001:0006631b       __math_exit                1006731b f   libucrt:common.obj
 0001:00066345       __check_overflow_exit      10067345 f   libucrt:common.obj
 0001:00066359       __check_range_exit         10067359 f   libucrt:common.obj
 0001:00066460       __startTwoArgErrorHandling 10067460 f   libucrt:genexcep.obj
 0001:00066477       __startOneArgErrorHandling 10067477 f   libucrt:genexcep.obj
 0001:000664c7       ___libm_error_support      100674c7 f   libucrt:libm_error.obj
 0001:00066765       ___libm_setusermatherr     10067765 f   libucrt:libm_error.obj
 0001:00066795       __ceil_default             10067795 f   libucrt:ceil.obj
 0001:00066912       __d_int                    10067912 f   libucrt:_test.obj
 0001:00066a5c       __dtest                    10067a5c f   libucrt:_test.obj
 0001:00066ad9       __fd_int                   10067ad9 f   libucrt:_test.obj
 0001:00066bdb       __fdtest                   10067bdb f   libucrt:_test.obj
 0001:00066c3c       __fperrraise               10067c3c f   libucrt:_test.obj
 0001:00066c67       __ld_int                   10067c67 f   libucrt:_test.obj
 0001:00066c74       __ldtest                   10067c74 f   libucrt:_test.obj
 0001:00066c81       ?__wcsrtombs_utf8@__crt_mbstring@@YAIPADPAPB_WIPAU_Mbstatet@@@Z 10067c81 f   libucrt:wcrtomb.obj
 0001:0006712b       _wcrtomb                   1006812b f   libucrt:wcrtomb.obj
 0001:00067168       _wcrtomb_s                 10068168 f   libucrt:wcrtomb.obj
 0001:000671ff       _wcsrtombs                 100681ff f   libucrt:wcrtomb.obj
 0001:0006720c       _wcsrtombs_s               1006820c f   libucrt:wcrtomb.obj
 0001:000672cb       _wctob                     100682cb f   libucrt:wcrtomb.obj
 0001:0006733f       __controlfp_s              1006833f f   libucrt:contrlfp.obj
 0001:000673b5       __d_inttype                100683b5 f   libucrt:powhlp.obj
 0001:00067439       __powhlp                   10068439 f   libucrt:powhlp.obj
 0001:000675ae       __87except                 100685ae f   libucrt:87except.obj
 0001:000676fa       __frnd                     100686fa f   libucrt:frnd.obj
 0001:00067715       ??_4@YAAAW4__acrt_fenv_abstract_status@@AAW40@W40@@Z 10068715 f i libucrt:fegetexceptflag.obj
 0001:00067727       _fegetexceptflag           10068727 f   libucrt:fegetexceptflag.obj
 0001:00067764       ??S@YA?AW4__acrt_fenv_abstract_status@@W40@@Z 10068764 f i libucrt:fesetexceptflag.obj
 0001:00067773       _fesetexceptflag           10068773 f   libucrt:fesetexceptflag.obj
 0001:000677e2       ?__c16rtomb_utf8@__crt_mbstring@@YAIPAD_SPAU_Mbstatet@@@Z 100687e2 f   libucrt:c16rtomb.obj
 0001:0006793a       _c16rtomb                  1006893a f   libucrt:c16rtomb.obj
 0001:00067947       _fetestexcept              10068947 f   libucrt:fetestexcept.obj
 0001:00067971       ?__c32rtomb_utf8@__crt_mbstring@@YAIPAD_UPAU_Mbstatet@@@Z 10068971 f   libucrt:c32rtomb.obj
 0001:00067a4b       _c32rtomb                  10068a4b f   libucrt:c32rtomb.obj
 0001:00067a60       __FindPESection            10068a60 f   LIBCMT:pesect.obj
 0001:00067ac0       __IsNonwritableInCurrentImage 10068ac0 f   LIBCMT:pesect.obj
 0001:00067bb0       __ValidateImageBase        10068bb0 f   LIBCMT:pesect.obj
 0001:00067bef       __EH_epilog3               10068bef f   LIBCMT:ehprolg3.obj
 0001:00067c09       __EH_epilog3_GS            10068c09 f   LIBCMT:ehprolg3.obj
 0001:00067c1e       __EH_epilog3_catch_GS      10068c1e f   LIBCMT:ehprolg3.obj
 0001:00067c33       __EH_prolog3               10068c33 f   LIBCMT:ehprolg3.obj
 0001:00067c74       __EH_prolog3_GS            10068c74 f   LIBCMT:ehprolg3.obj
 0001:00067cb8       __EH_prolog3_catch         10068cb8 f   LIBCMT:ehprolg3.obj
 0001:00067cfc       __EH_prolog3_catch_GS      10068cfc f   LIBCMT:ehprolg3.obj
 0001:00067d50       __aulldvrm                 10068d50 f   LIBCMT:ulldvrm.obj
 0001:00067e0a       ??1type_info@@UAE@XZ       10068e0a f   LIBCMT:std_type_info_static.obj
 0001:00067e11       ??_Gtype_info@@UAEPAXI@Z   10068e11 f i LIBCMT:std_type_info_static.obj
 0001:00067e11       ??_Etype_info@@UAEPAXI@Z   10068e11 f i LIBCMT:std_type_info_static.obj
 0001:00067e3c       ??3@YAXPAXI@Z              10068e3c f   LIBCMT:delete_scalar_size.obj
 0001:00067e50       __SEH_prolog4_GS           10068e50 f   LIBCMT:sehprolg4gs.obj
 0001:00067e99       __SEH_epilog4_GS           10068e99 f   LIBCMT:sehprolg4gs.obj
 0001:00067ec0       __allmul                   10068ec0 f   LIBCMT:llmul.obj
 0001:00067f10       __alloca_probe             10068f10 f   LIBCMT:chkstk.obj
 0001:00067f10       __chkstk                   10068f10 f   LIBCMT:chkstk.obj
 0001:00067f50       __alldvrm                  10068f50 f   LIBCMT:lldvrm.obj
 0001:00068070       __aullshr                  10069070 f   LIBCMT:ullshr.obj
 0001:000680a0       __alloca_probe_16          100690a0 f   LIBCMT:alloca16.obj
 0001:000680b6       __alloca_probe_8           100690b6     LIBCMT:alloca16.obj
 0001:000680e0       __allshl                   100690e0 f   LIBCMT:llshl.obj
 0001:00068110       __ftol2_sse                10069110 f   LIBCMT:ftol2.obj
 0001:00068119       __ftol2_pentium4           10069119 f   LIBCMT:ftol2.obj
 0001:0006812c       __ftol2_sse_excpt          1006912c f   LIBCMT:ftol2.obj
 0001:00068150       __ftol2                    10069150 f   LIBCMT:ftol2.obj
 0001:000681f2       __initialize_default_precision 100691f2 f   LIBCMT:default_precision.obj
 0001:0006821b       ??3@YAXPAX@Z               1006921b f   LIBCMT:delete_scalar.obj
 0001:00068220       _InterlockedPushEntrySList@8 10069220 f   kernel32:KERNEL32.dll
 0001:00068226       _InterlockedFlushSList@4   10069226 f   kernel32:KERNEL32.dll
 0001:0006822c       _RtlUnwind@16              1006922c f   kernel32:KERNEL32.dll
 0001:00068232       _GetLastError@0            10069232 f   kernel32:KERNEL32.dll
 0001:00068238       _SetLastError@4            10069238 f   kernel32:KERNEL32.dll
 0001:0006823e       _EnterCriticalSection@4    1006923e f   kernel32:KERNEL32.dll
 0001:00068244       _LeaveCriticalSection@4    10069244 f   kernel32:KERNEL32.dll
 0001:0006824a       _DeleteCriticalSection@4   1006924a f   kernel32:KERNEL32.dll
 0001:00068250       _InitializeCriticalSectionAndSpinCount@8 10069250 f   kernel32:KERNEL32.dll
 0001:00068256       _TlsAlloc@0                10069256 f   kernel32:KERNEL32.dll
 0001:0006825c       _TlsGetValue@4             1006925c f   kernel32:KERNEL32.dll
 0001:00068262       _TlsSetValue@8             10069262 f   kernel32:KERNEL32.dll
 0001:00068268       _TlsFree@4                 10069268 f   kernel32:KERNEL32.dll
 0001:0006826e       _FreeLibrary@4             1006926e f   kernel32:KERNEL32.dll
 0001:00068274       _LoadLibraryExW@12         10069274 f   kernel32:KERNEL32.dll
 0001:0006827a       _EncodePointer@4           1006927a f   kernel32:KERNEL32.dll
 0001:00068280       _RaiseException@16         10069280 f   kernel32:KERNEL32.dll
 0001:00068286       _GetStdHandle@4            10069286 f   kernel32:KERNEL32.dll
 0001:0006828c       _GetFileType@4             1006928c f   kernel32:KERNEL32.dll
 0001:00068292       _GetModuleFileNameW@12     10069292 f   kernel32:KERNEL32.dll
 0001:00068298       _GetModuleHandleExW@12     10069298 f   kernel32:KERNEL32.dll
 0001:0006829e       _WriteConsoleW@20          1006929e f   kernel32:KERNEL32.dll
 0001:000682a4       _ExitProcess@4             100692a4 f   kernel32:KERNEL32.dll
 0001:000682aa       _HeapAlloc@12              100692aa f   kernel32:KERNEL32.dll
 0001:000682b0       _HeapFree@12               100692b0 f   kernel32:KERNEL32.dll
 0001:000682b6       _WriteFile@20              100692b6 f   kernel32:KERNEL32.dll
 0001:000682bc       _OutputDebugStringW@4      100692bc f   kernel32:KERNEL32.dll
 0001:000682c2       _SetConsoleCtrlHandler@8   100692c2 f   kernel32:KERNEL32.dll
 0001:000682c8       _HeapReAlloc@16            100692c8 f   kernel32:KERNEL32.dll
 0001:000682ce       _GetDateFormatW@24         100692ce f   kernel32:KERNEL32.dll
 0001:000682d4       _GetTimeFormatW@24         100692d4 f   kernel32:KERNEL32.dll
 0001:000682da       _CompareStringW@24         100692da f   kernel32:KERNEL32.dll
 0001:000682e0       _LCMapStringW@24           100692e0 f   kernel32:KERNEL32.dll
 0001:000682e6       _GetLocaleInfoW@16         100692e6 f   kernel32:KERNEL32.dll
 0001:000682ec       _IsValidLocale@8           100692ec f   kernel32:KERNEL32.dll
 0001:000682f2       _GetUserDefaultLCID@0      100692f2 f   kernel32:KERNEL32.dll
 0001:000682f8       _EnumSystemLocalesW@8      100692f8 f   kernel32:KERNEL32.dll
 0001:000682fe       _CloseHandle@4             100692fe f   kernel32:KERNEL32.dll
 0001:00068304       _ReadFile@20               10069304 f   kernel32:KERNEL32.dll
 0001:0006830a       _GetConsoleMode@8          1006930a f   kernel32:KERNEL32.dll
 0001:00068310       _ReadConsoleW@20           10069310 f   kernel32:KERNEL32.dll
 0001:00068316       _GetConsoleCP@0            10069316 f   kernel32:KERNEL32.dll
 0001:0006831c       _MultiByteToWideChar@24    1006931c f   kernel32:KERNEL32.dll
 0001:00068322       _GetCurrentThread@0        10069322 f   kernel32:KERNEL32.dll
 0001:00068328       _DeleteFileW@4             10069328 f   kernel32:KERNEL32.dll
 0001:0006832e       _SetFilePointerEx@20       1006932e f   kernel32:KERNEL32.dll
 0001:00068334       _FindClose@4               10069334 f   kernel32:KERNEL32.dll
 0001:0006833a       _FindFirstFileExW@24       1006933a f   kernel32:KERNEL32.dll
 0001:00068340       _FindNextFileW@8           10069340 f   kernel32:KERNEL32.dll
 0001:00068346       _IsValidCodePage@4         10069346 f   kernel32:KERNEL32.dll
 0001:0006834c       _GetACP@0                  1006934c f   kernel32:KERNEL32.dll
 0001:00068352       _GetOEMCP@0                10069352 f   kernel32:KERNEL32.dll
 0001:00068358       _GetCPInfo@8               10069358 f   kernel32:KERNEL32.dll
 0001:0006835e       _GetCommandLineA@0         1006935e f   kernel32:KERNEL32.dll
 0001:00068364       _GetCommandLineW@0         10069364 f   kernel32:KERNEL32.dll
 0001:0006836a       _WideCharToMultiByte@32    1006936a f   kernel32:KERNEL32.dll
 0001:00068370       _GetEnvironmentStringsW@0  10069370 f   kernel32:KERNEL32.dll
 0001:00068376       _FreeEnvironmentStringsW@4 10069376 f   kernel32:KERNEL32.dll
 0001:0006837c       _SetEnvironmentVariableW@8 1006937c f   kernel32:KERNEL32.dll
 0001:00068382       _GetProcessHeap@0          10069382 f   kernel32:KERNEL32.dll
 0001:00068388       _FlushFileBuffers@4        10069388 f   kernel32:KERNEL32.dll
 0001:0006838e       _SetStdHandle@8            1006938e f   kernel32:KERNEL32.dll
 0001:00068394       _CreateFileW@28            10069394 f   kernel32:KERNEL32.dll
 0001:0006839a       _GetStringTypeW@16         1006939a f   kernel32:KERNEL32.dll
 0001:000683a0       _HeapSize@12               100693a0 f   kernel32:KERNEL32.dll
 0001:000683a6       _SetEndOfFile@4            100693a6 f   kernel32:KERNEL32.dll
 0001:000683ac       _DecodePointer@4           100693ac f   kernel32:KERNEL32.dll
 0001:000684e3       _memcmp                    100694e3 f   libvcruntime:memcmp.obj
 0001:0006a9d0       _strrchr                   1006b9d0 f   libvcruntime:strrchr.obj
 0001:0006ab54       _wcschr                    1006bb54 f   libvcruntime:wcschr.obj
 0002:00000000       ___xc_a                    10070000     LIBCMT:initializers.obj
 0002:00000104       ___xc_z                    10070104     LIBCMT:initializers.obj
 0002:00000208       ___xi_a                    10070208     LIBCMT:initializers.obj
 0002:0000030c       ___acrt_stdio_initializer  1007030c     libucrt:stdio_initializer.obj
 0002:00000310       ___acrt_multibyte_initializer 10070310     libucrt:multibyte_initializer.obj
 0002:00000314       ___acrt_tran_sse2_initializer 10070314     libucrt:sse2_initializer.obj
 0002:0000041c       ___xi_z                    1007041c     LIBCMT:initializers.obj
 0002:00000520       ___xp_a                    10070520     LIBCMT:initializers.obj
 0002:00000624       ___acrt_locale_terminator  10070624     libucrt:locale_initializer.obj
 0002:00000628       ___dcrt_console_output_terminator 10070628     libucrt:console_output_initializer.obj
 0002:00000730       ___acrt_stdio_terminator   10070730     libucrt:stdio_initializer.obj
 0002:00000834       ___xp_z                    10070834     LIBCMT:initializers.obj
 0002:00000938       ___xt_a                    10070938     LIBCMT:initializers.obj
 0002:00000a3c       ___xt_z                    10070a3c     LIBCMT:initializers.obj
 0002:00000b40       _homing_ldm_aggiornat_M    10070b40     homing_ldm_aggiornat.obj
 0002:00000b44       ??_C@_0BC@OJJPBDHH@FixedStepDiscrete@ 10070b44     homing_ldm_aggiornat.obj
 0002:00000b5c       ??_C@_04EPKDLPPB@tout@     10070b5c     homing_ldm_aggiornat.obj
 0002:00000b62       ??_C@_00CNPNBAHC@@         10070b62     homing_ldm_aggiornat.obj
 0002:00000b64       ??_C@_03HBFGMJOD@rt_@      10070b64     homing_ldm_aggiornat.obj
 0002:00000b68       ??_C@_0M@IJCNLJFC@PCI?96229?5DI@ 10070b68     homing_ldm_aggiornat.obj
 0002:00000b78       ??_C@_0CB@IGLIAGCP@homing_ldm_aggiornat?1PCI?96229?5D@ 10070b78     homing_ldm_aggiornat.obj
 0002:00000ba0       ??_C@_0P@NJNIKMIP@PCI?56229?5ENC?57@ 10070ba0     homing_ldm_aggiornat.obj
 0002:00000bb4       ??_C@_0CE@GGMJICDP@homing_ldm_aggiornat?1PCI?56229?5E@ 10070bb4     homing_ldm_aggiornat.obj
 0002:00000be0       ??_C@_0P@MAMDJNMO@PCI?56229?5ENC?56@ 10070be0     homing_ldm_aggiornat.obj
 0002:00000bf4       ??_C@_0CE@HPNCLDHO@homing_ldm_aggiornat?1PCI?56229?5E@ 10070bf4     homing_ldm_aggiornat.obj
 0002:00000c20       ??_C@_0N@ENKCELGL@PCI?96229?5DA1@ 10070c20     homing_ldm_aggiornat.obj
 0002:00000c30       ??_C@_0CC@GDBJNDFF@homing_ldm_aggiornat?1PCI?96229?5D@ 10070c30     homing_ldm_aggiornat.obj
 0002:00000c58       ??_C@_0N@GGIPBIKI@PCI?96229?5DA2@ 10070c58     homing_ldm_aggiornat.obj
 0002:00000c68       ??_C@_0CC@EIDEIAJG@homing_ldm_aggiornat?1PCI?96229?5D@ 10070c68     homing_ldm_aggiornat.obj
 0002:00000c90       ??_C@_0N@GMBBDFKC@PCI?96229?5DO2@ 10070c90     homing_ldm_aggiornat.obj
 0002:00000ca0       ??_C@_0CC@ECKKKNJM@homing_ldm_aggiornat?1PCI?96229?5D@ 10070ca0     homing_ldm_aggiornat.obj
 0002:00000cc8       ??_C@_0P@PCPFPPEM@PCI?56229?5ENC?54@ 10070cc8     homing_ldm_aggiornat.obj
 0002:00000cdc       ??_C@_0CE@ENOENBPM@homing_ldm_aggiornat?1PCI?56229?5E@ 10070cdc     homing_ldm_aggiornat.obj
 0002:00000d08       ??_C@_0P@OLOOMOAN@PCI?56229?5ENC?55@ 10070d08     homing_ldm_aggiornat.obj
 0002:00000d1c       ??_C@_0CE@FEPPOALN@homing_ldm_aggiornat?1PCI?56229?5E@ 10070d1c     homing_ldm_aggiornat.obj
 0002:00000d48       __real@3f50624dd2f1a9fc    10070d48     homing_ldm_aggiornat.obj
 0002:00000d58       __real@3fe0000000000000    10070d58     homing_ldm_aggiornat.obj
 0002:00000d68       __real@3ff3333333333333    10070d68     homing_ldm_aggiornat.obj
 0002:00000d78       __real@4000cccccccccccd    10070d78     homing_ldm_aggiornat.obj
 0002:00000d88       __real@41f0000000000000    10070d88     homing_ldm_aggiornat.obj
 0002:00000d98       __real@bff0000000000000    10070d98     homing_ldm_aggiornat.obj
 0002:00000da8       __real@bff3333333333333    10070da8     homing_ldm_aggiornat.obj
 0002:00000db8       __real@c000cccccccccccd    10070db8     homing_ldm_aggiornat.obj
 0002:00000dd0       __xmm@000000e20000002a0000004000000002 10070dd0     homing_ldm_aggiornat.obj
 0002:00000df0       __xmm@3f50624dd2f1a9fc0000000000000000 10070df0     homing_ldm_aggiornat.obj
 0002:00000e10       __xmm@3ff00000000000003ff0000000000000 10070e10     homing_ldm_aggiornat.obj
 0002:00000e30       __xmm@41f00000000000000000000000000000 10070e30     homing_ldm_aggiornat.obj
 0002:00000e50       __xmm@7fffffffffffffff7fffffffffffffff 10070e50     homing_ldm_aggiornat.obj
 0002:00000e68       __real@3cb0000000000000    10070e68     rt_matrx.obj
 0002:00000e78       __real@3ff0000000000000    10070e78     rt_matrx.obj
 0002:00001ce4       ??_C@_08PAGDBCID@Chart?1p1@ 10071ce4     homing_ldm_aggiornat_capi.obj
 0002:00001cf0       ??_C@_08NLEOEBEA@Chart?1p2@ 10071cf0     homing_ldm_aggiornat_capi.obj
 0002:00001cfc       ??_C@_08MCFFHAAB@Chart?1p3@ 10071cfc     homing_ldm_aggiornat_capi.obj
 0002:00001d08       ??_C@_08INBEOGMG@Chart?1p4@ 10071d08     homing_ldm_aggiornat_capi.obj
 0002:00001d14       ??_C@_08JEAPNHIH@Chart?1p5@ 10071d14     homing_ldm_aggiornat_capi.obj
 0002:00001d20       ??_C@_08LPCCIEEE@Chart?1p6@ 10071d20     homing_ldm_aggiornat_capi.obj
 0002:00001d2c       ??_C@_05DEOOJMJC@Clock@    10071d2c     homing_ldm_aggiornat_capi.obj
 0002:00001d34       ??_C@_09MHDPNNID@Constant6@ 10071d34     homing_ldm_aggiornat_capi.obj
 0002:00001d40       ??_C@_05DKAIGDGE@Gain1@    10071d40     homing_ldm_aggiornat_capi.obj
 0002:00001d48       ??_C@_06JFKDJLNB@Gain10@   10071d48     homing_ldm_aggiornat_capi.obj
 0002:00001d50       ??_C@_0BD@EPFMCPOH@posizione?5motore?5x@ 10071d50     homing_ldm_aggiornat_capi.obj
 0002:00001d68       ??_C@_06IMLIKKJA@Gain11@   10071d68     homing_ldm_aggiornat_capi.obj
 0002:00001d70       ??_C@_0BF@HBPOPMFC@posizione?5carrello?5y@ 10071d70     homing_ldm_aggiornat_capi.obj
 0002:00001d8c       ??_C@_06KHJFPJFD@Gain12@   10071d8c     homing_ldm_aggiornat_capi.obj
 0002:00001d94       ??_C@_0BD@FGEHBOKG@posizione?5motore?5y@ 10071d94     homing_ldm_aggiornat_capi.obj
 0002:00001dac       ??_C@_06LOIOMIBC@Gain13@   10071dac     homing_ldm_aggiornat_capi.obj
 0002:00001db4       ??_C@_0BF@GIOFMNBD@posizione?5carrello?5x@ 10071db4     homing_ldm_aggiornat_capi.obj
 0002:00001dd0       ??_C@_05BBCFDAKH@Gain2@    10071dd0     homing_ldm_aggiornat_capi.obj
 0002:00001dd8       ??_C@_05IDOABOG@Gain3@     10071dd8     homing_ldm_aggiornat_capi.obj
 0002:00001de0       ??_C@_05FOGEKGGA@Gain5@    10071de0     homing_ldm_aggiornat_capi.obj
 0002:00001de8       ??_C@_0BB@CMNBNJBK@pozione?5motore?5y@ 10071de8     homing_ldm_aggiornat_capi.obj
 0002:00001dfc       ??_C@_0P@HFBNGDFJ@PCI?96229?5DI?1p1@ 10071dfc     homing_ldm_aggiornat_capi.obj
 0002:00001e10       ??_C@_07OJGKPLCD@fc?5x?5sx@ 10071e10     homing_ldm_aggiornat_capi.obj
 0002:00001e1c       ??_C@_0P@FODADAJK@PCI?96229?5DI?1p2@ 10071e1c     homing_ldm_aggiornat_capi.obj
 0002:00001e30       ??_C@_07PAADEONG@fc?5x?5dx@ 10071e30     homing_ldm_aggiornat_capi.obj
 0002:00001e3c       ??_C@_0P@EHCLABNL@PCI?96229?5DI?1p3@ 10071e3c     homing_ldm_aggiornat_capi.obj
 0002:00001e50       ??_C@_09CNJIBEEI@fc?5y?5high@ 10071e50     homing_ldm_aggiornat_capi.obj
 0002:00001e5c       ??_C@_0P@IGKJHBM@PCI?96229?5DI?1p4@ 10071e5c     homing_ldm_aggiornat_capi.obj
 0002:00001e70       ??_C@_09IHHPKCGD@fc?5y?5down@ 10071e70     homing_ldm_aggiornat_capi.obj
 0002:00001e7c       ??_C@_04JMNNLCJG@Sum1@     10071e7c     homing_ldm_aggiornat_capi.obj
 0002:00001e84       ??_C@_04NDJMCEFB@Sum6@     10071e84     homing_ldm_aggiornat_capi.obj
 0002:00001e8c       ??_C@_0N@CJGHMFCP@Dot?5Product1@ 10071e8c     homing_ldm_aggiornat_capi.obj
 0002:00001e9c       ??_C@_0N@CEKJGOM@Dot?5Product2@ 10071e9c     homing_ldm_aggiornat_capi.obj
 0002:00001eac       ??_C@_0N@HPDNGCKJ@Dot?5Product7@ 10071eac     homing_ldm_aggiornat_capi.obj
 0002:00001ebc       ??_C@_0N@PIKFHOGG@Dot?5Product8@ 10071ebc     homing_ldm_aggiornat_capi.obj
 0002:00001ecc       ??_C@_0BK@BOFEMBGH@Discrete?5Derivative4?1Diff@ 10071ecc     homing_ldm_aggiornat_capi.obj
 0002:00001eec       ??_C@_0BL@IFDCKMCI@Discrete?5Derivative4?1TSamp@ 10071eec     homing_ldm_aggiornat_capi.obj
 0002:00001f0c       ??_C@_0BI@KPDGOKBE@Discrete?5Derivative4?1UD@ 10071f0c     homing_ldm_aggiornat_capi.obj
 0002:00001f28       ??_C@_06CFNEEADJ@U?$CIk?91?$CJ@ 10071f28     homing_ldm_aggiornat_capi.obj
 0002:00001f30       ??_C@_0BK@LICDMKND@Discrete?5Derivative5?1Diff@ 10071f30     homing_ldm_aggiornat_capi.obj
 0002:00001f50       ??_C@_0BL@EJJIKMLG@Discrete?5Derivative5?1TSamp@ 10071f50     homing_ldm_aggiornat_capi.obj
 0002:00001f70       ??_C@_0BI@JCFGMDKE@Discrete?5Derivative5?1UD@ 10071f70     homing_ldm_aggiornat_capi.obj
 0002:00001f8c       ??_C@_0BK@IJMLNAEO@Discrete?5Derivative6?1Diff@ 10071f8c     homing_ldm_aggiornat_capi.obj
 0002:00001fac       ??_C@_0BL@MHBHKLFF@Discrete?5Derivative6?1TSamp@ 10071fac     homing_ldm_aggiornat_capi.obj
 0002:00001fcc       ??_C@_0BI@NFPGLJHE@Discrete?5Derivative6?1UD@ 10071fcc     homing_ldm_aggiornat_capi.obj
 0002:00001fe8       ??_C@_0BK@CPLMNLPK@Discrete?5Derivative7?1Diff@ 10071fe8     homing_ldm_aggiornat_capi.obj
 0002:00002008       ??_C@_0BL@LLNKLML@Discrete?5Derivative7?1TSamp@ 10072008     homing_ldm_aggiornat_capi.obj
 0002:00002028       ??_C@_0BI@OIJGJAME@Discrete?5Derivative7?1UD@ 10072028     homing_ldm_aggiornat_capi.obj
 0002:00002044       ??_C@_0BF@HFKJBDFP@Discrete?5Derivative4@ 10072044     homing_ldm_aggiornat_capi.obj
 0002:00002060       ??_C@_0BC@DNAKAAEE@ICPrevScaledInput@ 10072060     homing_ldm_aggiornat_capi.obj
 0002:00002078       ??_C@_0BF@GMLCCCBO@Discrete?5Derivative5@ 10072078     homing_ldm_aggiornat_capi.obj
 0002:00002094       ??_C@_0BF@EHJPHBNN@Discrete?5Derivative6@ 10072094     homing_ldm_aggiornat_capi.obj
 0002:000020b0       ??_C@_0BF@FOIEEAJM@Discrete?5Derivative7@ 100720b0     homing_ldm_aggiornat_capi.obj
 0002:000020cc       ??_C@_05LPIJGKJ@Value@     100720cc     homing_ldm_aggiornat_capi.obj
 0002:000020d4       ??_C@_04OMOMKKFL@Gain@     100720d4     homing_ldm_aggiornat_capi.obj
 0002:000020dc       ??_C@_02KKFPAPOP@P1@       100720dc     homing_ldm_aggiornat_capi.obj
 0002:000020e0       ??_C@_02IBHCFMCM@P2@       100720e0     homing_ldm_aggiornat_capi.obj
 0002:000020e4       ??_C@_02JIGJGNGN@P3@       100720e4     homing_ldm_aggiornat_capi.obj
 0002:000020e8       ??_C@_02NHCIPLKK@P4@       100720e8     homing_ldm_aggiornat_capi.obj
 0002:000020ec       ??_C@_02MODDMKOL@P5@       100720ec     homing_ldm_aggiornat_capi.obj
 0002:000020f0       ??_C@_02OFBOJJCI@P6@       100720f0     homing_ldm_aggiornat_capi.obj
 0002:000020f4       ??_C@_02PMAFKIGJ@P7@       100720f4     homing_ldm_aggiornat_capi.obj
 0002:000020f8       ??_C@_02HLJNLEKG@P8@       100720f8     homing_ldm_aggiornat_capi.obj
 0002:000020fc       ??_C@_02GCIGIFOH@P9@       100720fc     homing_ldm_aggiornat_capi.obj
 0002:00002100       ??_C@_03OPFJJGBF@P10@      10072100     homing_ldm_aggiornat_capi.obj
 0002:00002104       ??_C@_04GKLBNPCL@WtEt@     10072104     homing_ldm_aggiornat_capi.obj
 0002:0000210c       ??_C@_06BNJCAIGJ@double@   1007210c     homing_ldm_aggiornat_capi.obj
 0002:00002114       ??_C@_06CNMIJIPB@real_T@   10072114     homing_ldm_aggiornat_capi.obj
 0002:0000211c       ??_C@_05KNFBNCOH@float@    1007211c     homing_ldm_aggiornat_capi.obj
 0002:00002124       _serialfifoground          10072124     xpc_datatype_ground.obj
 0002:00002130       _bcmsg1553ground           10072130     xpc_datatype_ground.obj
 0002:00002140       _bcstatground              10072140     xpc_datatype_ground.obj
 0002:00002158       _bmmsg1553ground           10072158     xpc_datatype_ground.obj
 0002:00002194       ??_C@_0BI@INNPNFJN@Memory?5Allocation?5Error@ 10072194     rtw_modelmap_utils.obj
 0002:000021b0       ??_C@_1FG@HMJFKDEC@?$AAD?$AA?3?$AA?2?$AAM?$AAA?$AAT?$AAL?$AAA?$AAB?$AA?$HO?$AA1?$AA?2?$AAr?$AAt?$AAw@ 100721b0     rtw_modelmap_utils.obj
 0002:00002218       ??_C@_1CI@OEAJCJND@?$AAj?$AA?5?$AA?$DN?$AA?$DN?$AA?5?$AAe?$AAn?$AAc?$AAo?$AAd?$AAe?$AAd?$AAP?$AAa?$AAt@ 10072218     rtw_modelmap_utils.obj
 0002:00002248       ??_C@_1DC@NFAOIFKB@?$AAe?$AAn?$AAc?$AAo?$AAd?$AAe?$AAd?$AAP?$AAa?$AAt?$AAh?$AA?$FL?$AAj?$AA?9?$AA1@ 10072248     rtw_modelmap_utils.obj
 0002:00002284       ??_C@_1DI@FLNJGPEE@?$AAs?$AAi?$AAg?$AAC?$AAo?$AAm?$AAp?$AAl?$AAe?$AAx?$AAi?$AAt?$AAy?$AA?$FL?$AA?$CK@ 10072284     rtw_modelmap_utils.obj
 0002:000022c8       ??_C@_1KI@OFELMGBG@?$AA?$CI?$AA?$CI?$AA?$CI?$AAd?$AAa?$AAt?$AAa?$AAT?$AAy?$AAp?$AAe?$AAM?$AAa?$AAp?$AA?$CJ@ 100722c8     rtw_modelmap_utils.obj
 0002:00002394       ??_C@_1DA@ILCMPHNE@?$AAf?$AAu?$AAl?$AAl?$AAP?$AAa?$AAt?$AAh?$AA?5?$AA?$CB?$AA?$DN?$AA?5?$AA?$CI?$AA?$CI?$AAv@ 10072394     rtw_modelmap_utils.obj
 0002:000023d0       ??_C@_1CI@OEPPFCCA@?$AAp?$AAa?$AAt?$AAh?$AA?5?$AA?$CB?$AA?$DN?$AA?5?$AA?$CI?$AA?$CI?$AAv?$AAo?$AAi?$AAd?$AA?5@ 100723d0     rtw_modelmap_utils.obj
 0002:00002400       ??_C@_1FK@GLJIMFHB@?$AA?$CI?$AA?$CI?$AAm?$AAm?$AAi?$AA?$CJ?$AA?9?$AA?$DO?$AAI?$AAn?$AAs?$AAt?$AAa?$AAn?$AAc@ 10072400     rtw_modelmap_utils.obj
 0002:0000246c       ??_C@_1DG@HPCJGNCE@?$AAm?$AAm?$AAi?$AAP?$AAa?$AAt?$AAh?$AA?$FL?$AAp?$AAa?$AAt?$AAh?$AAL?$AAe?$AAn@ 1007246c     rtw_modelmap_utils.obj
 0002:000024ac       ??_C@_1DM@DBAOGGOO@?$AAm?$AAm?$AAi?$AAP?$AAa?$AAt?$AAh?$AA?$FL?$AAm?$AAm?$AAi?$AAP?$AAa?$AAt?$AAh@ 100724ac     rtw_modelmap_utils.obj
 0002:000024f4       ??_C@_1DC@LHIAKAFE@?$AAb?$AAl?$AAo?$AAc?$AAk?$AAP?$AAa?$AAt?$AAh?$AA?5?$AA?$CB?$AA?$DN?$AA?5?$AA?$CI?$AA?$CI@ 100724f4     rtw_modelmap_utils.obj
 0002:00002530       ??_C@_1GI@KIEJKPGC@?$AAf?$AAu?$AAl?$AAl?$AAS?$AAt?$AAa?$AAt?$AAe?$AAB?$AAl?$AAo?$AAc?$AAk?$AAP@ 10072530     rtw_modelmap_utils.obj
 0002:000025b0       ??_C@_1EE@DNPIBJHC@?$AA?$CI?$AA?$CI?$AAd?$AAi?$AAm?$AAM?$AAa?$AAp?$AA?$CJ?$AA?$FL?$AA?$CI?$AAm?$AAa?$AAp?$AAI@ 100725b0     rtw_modelmap_utils.obj
 0002:00002604       ??_C@_06JFOKFOED@CSTATE@   10072604     rtw_modelmap_utils.obj
 0002:0000260c       ??_C@_06FAENGAMN@DSTATE@   1007260c     rtw_modelmap_utils.obj
 0002:00002614       ??_C@_1BI@LEBJNOGG@?$AAc?$AAs?$AAv?$AAI?$AAd?$AAx?$AA?5?$AA?$DO?$AA?$DN?$AA?5?$AA0@ 10072614     rtw_modelmap_utils.obj
 0002:00002630       ??_C@_1BA@KDMGHCHP@?$AAT?$AAI?$AAD?$AA?$DN?$AA?$DN?$AA?9?$AA1@ 10072630     rtw_modelmap_utils.obj
 0002:00002644       ??_C@_1DM@DHGKBPCE@?$AAs?$AAi?$AAg?$AAP?$AAa?$AAt?$AAh?$AA?$FL?$AAs?$AAi?$AAg?$AAP?$AAa?$AAt?$AAh@ 10072644     rtw_modelmap_utils.obj
 0002:00002ef0       ??_C@_0DJ@FHKINPLE@Unexpected?5itemKind?5?$DN?5DATA_ITEM@ 10072ef0     rt_logging.obj
 0002:00002f34       ??_C@_0DA@IEHFPFCJ@Unexpected?5itemKind?$DN?$CFd?5in?5rt_Pr@ 10072f34     rt_logging.obj
 0002:00002f70       ??_C@_0DA@IFLHJPBO@Unexpected?5itemKind?$DN?$CFd?5in?5rt_Pr@ 10072f70     rt_logging.obj
 0002:00002fac       ??_C@_0DA@IAPIIJJL@Unexpected?5itemKind?$DN?$CFd?5in?5rt_Pr@ 10072fac     rt_logging.obj
 0002:00002fe8       ??_C@_0BE@LCIGPJIG@MATLAB?55?40?5MAT?9file@ 10072fe8     rt_logging.obj
 0002:00003000       ??_C@_0FB@PCJEAJIB@?$CK?$CK?$CK?5Log?5variable?5?$CFs?5has?5wrapped@ 10073000     rt_logging.obj
 0002:00003068       ??_C@_0MG@NKMLMOGF@?$CK?$CK?$CK?5To?5avoid?5wrapping?0?5explicit@ 10073068     rt_logging.obj
 0002:00003158       ??_C@_0N@IPAEOLLP@_rtw_tmw?4tmw@ 10073158     rt_logging.obj
 0002:00003168       ??_C@_04HDOCAJNK@?$CFs?$CFs@ 10073168     rt_logging.obj
 0002:00003170       ??_C@_03ELIABIOC@w?$CLb@   10073170     rt_logging.obj
 0002:00003174       ??_C@_0BF@JPILDDFA@?$CK?$CK?$CK?5Error?5opening?5?$CFs@ 10073174     rt_logging.obj
 0002:00003190       ??_C@_0BK@EEMDELA@unable?5to?5open?5data?5file?6@ 10073190     rt_logging.obj
 0002:000031b0       ??_C@_04CGFJFPFD@none@     100731b0     rt_logging.obj
 0002:000031b8       ??_C@_0EE@LCGFPNON@?$CK?$CK?$CK?5Error?5creating?5signals?5stru@ 100731b8     rt_logging.obj
 0002:0000320c       ??_C@_0CE@NHECEDMK@?$CK?$CK?$CK?5Error?5creating?5log?5variable@ 1007320c     rt_logging.obj
 0002:00003238       ??_C@_0DB@IOCGKAGH@?$CK?$CK?$CK?5Errors?5occurred?5when?5starti@ 10073238     rt_logging.obj
 0002:00003274       ??_C@_0BO@BBLOGEBK@?$CK?$CK?$CK?5Memory?5allocation?5error?4?6@ 10073274     rt_logging.obj
 0002:00003298       ??_C@_0N@LGFBAGEL@?5?$CIreal?5part?$CJ@ 10073298     rt_logging.obj
 0002:000032a8       ??_C@_0KH@CGNMHNFE@?5?5?5?5varName?5?5?5?5?5?5?5?5?5?5?$DN?5?$CFs?$CFs?6?5?5?5@ 100732a8     rt_logging.obj
 0002:00003370       ??_C@_0LE@OALKKEFM@?5?5?5?5varName?5?5?5?5?5?5?5?5?5?5?$DN?5?$CFs?5?$CIcomp@ 10073370     rt_logging.obj
 0002:00003448       ??_C@_0KF@JDDLEOKO@?5?5?5?5varName?5?5?5?5?5?5?5?5?5?5?$DN?5?$CFs?6?5?5?5?5n@ 10073448     rt_logging.obj
 0002:00003510       ??_C@_0DP@HPDMIOFM@?$CK?$CK?$CK?5Using?5a?5default?5buffer?5of?5s@ 10073510     rt_logging.obj
 0002:00003560       ??_C@_0KE@JEFOLKNF@?6?$CK?$CK?$CK?5Memory?5required?5to?5log?5var@ 10073560     rt_logging.obj
 0002:00003628       ??_C@_0JP@DKLMHCBI@?$CK?$CK?$CK?5Details?3?6?5?5?5?5?5?5?5varName?5?5?5?5@ 10073628     rt_logging.obj
 0002:000036e8       ??_C@_0CM@CAMILBED@?$CK?$CK?$CK?5Error?5allocating?5memory?5for@ 100736e8     rt_logging.obj
 0002:0000371c       ??_C@_0DF@BBCNMOPM@?$CK?$CK?$CK?5Error?5allocating?5memory?5for@ 1007371c     rt_logging.obj
 0002:00003760       ??_C@_0JP@DBCLPCCI@?$CK?$CK?$CK?5Details?3?6?5?5?5?5?5?5?5varName?5?5?5?5@ 10073760     rt_logging.obj
 0002:00003820       ??_C@_0FK@DPGAOBGA@?$CK?$CK?$CK?5Error?5allocating?5memory?5for@ 10073820     rt_logging.obj
 0002:0000388c       ??_C@_0BI@GGDNPHLJ@?$CK?$CK?$CK?5Error?5writing?5to?5?$CFs@ 1007388c     rt_logging.obj
 0002:000038a8       ??_C@_0CB@IBGJGELG@?$CK?$CK?$CK?5Error?5writing?5?$CFs?5due?5to?3?5?$CFs@ 100738a8     rt_logging.obj
 0002:000038d0       ??_C@_0CN@FLMCHCPB@?$CK?$CK?$CK?5Error?5writing?5log?5variable?5@ 100738d0     rt_logging.obj
 0002:00003908       ??_C@_0DH@GAJCNOJP@?$CK?$CK?$CK?5Error?5writing?5structure?5log@ 10073908     rt_logging.obj
 0002:0000394c       ??_C@_0BD@POEALECL@?$CK?$CK?5created?5?$CFs?5?$CK?$CK?6?6@ 1007394c     rt_logging.obj
 0002:00003968       __real@4020000000000000    10073968     rt_logging.obj
 0002:00003978       __real@41dfffffffc00000    10073978     rt_logging.obj
 0002:00003988       __real@41efffffffe00000    10073988     rt_logging.obj
 0002:00003998       __real@4330000000000000    10073998     rt_logging.obj
 0002:000039a8       __real@8000000000000000    100739a8     rt_logging.obj
 0002:000039b8       __real@bfbf9add3afd2773    100739b8     rt_logging.obj
 0002:000039c8       __real@c000000000000000    100739c8     rt_logging.obj
 0002:000039e0       __xmm@20202020202020202020202020202020 100739e0     rt_logging.obj
 0002:000039f4       ??_C@_0BF@JAENKGOG@homing_ldm_aggiornat@ 100739f4     xpctarget.obj
 0002:00003a10       _ptsetfilename             10073a10     xpctarget.obj
 0002:00003a14       _xmlfile                   10073a14     xpctarget.obj
 0002:00003a1c       ??_C@_0L@CHBJKKFC@xpceSetVar@ 10073a1c     xpctarget.obj
 0002:00003a2c       ??_C@_03LADEHNAB@6?46@     10073a2c     xpctarget.obj
 0002:00003a30       __real@3fb999999999999a    10073a30     xpctarget.obj
 0002:00003a40       __real@408f400000000000    10073a40     xpctarget.obj
 0002:00003a50       _homing_ldm_aggiornat_BIOMAP 10073a50     appmappingData.obj
 0002:00003c54       _homing_ldm_aggiornat_dtmap 10073c54     appmappingData.obj
 0002:00003c60       _homing_ldm_aggiornat_LBLMAP 10073c60     appmappingData.obj
 0002:00003e68       _homing_ldm_aggiornat_SIDMAP 10073e68     appmappingData.obj
 0002:00004070       _homing_ldm_aggiornat_SBIO 10074070     appmappingData.obj
 0002:00004120       _homing_ldm_aggiornat_SLBL 10074120     appmappingData.obj
 0002:000041d0       _homing_ldm_aggiornat_PTIDSMAP 100741d0     appmappingData.obj
 0002:00004470       _homing_ldm_aggiornat_PTNAMESMAP 10074470     appmappingData.obj
 0002:00004710       _homing_ldm_aggiornat_SPTMAP 10074710     appmappingData.obj
 0002:00004860       _appInfo                   10074860     appmappingData.obj
 0002:00004b90       ??_C@_0ED@LKHIFFLC@Wrong?5number?5of?5input?5arguments@ 10074b90     danipcim.obj
 0002:00004be0       ??_C@_0DB@HFHLNKLE@Channel?5?$CFd?5exceeds?5the?5max?5DA?5c@ 10074be0     danipcim.obj
 0002:00004c1c       ??_C@_0CL@GCJHHCMG@Output?5range?5?$CFd?5is?5not?5supporte@ 10074c1c     danipcim.obj
 0002:00004c50       ??_C@_0CC@FIFFDAB@?$CFd?5input?5args?5expected?0?5?$CFd?5pass@ 10074c50     encnipcim.obj
 0002:00004c78       ??_C@_0BN@JIEFLHEB@?$CFs?3?5Too?5many?5M?5series?5boards@ 10074c78     encnipcim.obj
 0002:00004c9c       ??_C@_0M@IMCLKBPP@NI?5PCI?96220@ 10074c9c     xpcionim.obj
 0002:00004cac       ??_C@_0M@JFDAJALO@NI?5PCI?96221@ 10074cac     xpcionim.obj
 0002:00004cbc       ??_C@_0P@NGCDCNKM@NI?5PCI?96221?137@ 10074cbc     xpcionim.obj
 0002:00004cd0       ??_C@_0M@OIEHGEPL@NI?5PCI?96224@ 10074cd0     xpcionim.obj
 0002:00004ce0       ??_C@_0M@PBFMFFLK@NI?5PCI?96225@ 10074ce0     xpcionim.obj
 0002:00004cf0       ??_C@_0M@FNOJBKLG@NI?5PCI?96229@ 10074cf0     xpcionim.obj
 0002:00004d00       ??_C@_0M@INOJMLMI@NI?5PCI?96230@ 10074d00     xpcionim.obj
 0002:00004d10       ??_C@_0M@LPNPKJEK@NI?5PCI?96232@ 10074d10     xpcionim.obj
 0002:00004d20       ??_C@_0M@KGMEJIAL@NI?5PCI?96233@ 10074d20     xpcionim.obj
 0002:00004d30       ??_C@_0M@NLLDGMEO@NI?5PCI?96236@ 10074d30     xpcionim.obj
 0002:00004d40       ??_C@_0M@EFDAEBMA@NI?5PCI?96238@ 10074d40     xpcionim.obj
 0002:00004d50       ??_C@_0M@FMCLHAIB@NI?5PCI?96239@ 10074d50     xpcionim.obj
 0002:00004d60       ??_C@_0M@IJGELHHK@NI?5PCI?96250@ 10074d60     xpcionim.obj
 0002:00004d70       ??_C@_0M@JAHPIGDL@NI?5PCI?96251@ 10074d70     xpcionim.obj
 0002:00004d80       ??_C@_0M@ONAIHCHO@NI?5PCI?96254@ 10074d80     xpcionim.obj
 0002:00004d90       ??_C@_0M@PEBDEDDP@NI?5PCI?96255@ 10074d90     xpcionim.obj
 0002:00004da0       ??_C@_0M@FIKGAMDD@NI?5PCI?96259@ 10074da0     xpcionim.obj
 0002:00004db0       ??_C@_0M@IBLMCECJ@NI?5PCI?96280@ 10074db0     xpcionim.obj
 0002:00004dc0       ??_C@_0M@JIKHBFGI@NI?5PCI?96281@ 10074dc0     xpcionim.obj
 0002:00004dd0       ??_C@_0M@OFNAOBCN@NI?5PCI?96284@ 10074dd0     xpcionim.obj
 0002:00004de0       ??_C@_0M@FAHOJPGA@NI?5PCI?96289@ 10074de0     xpcionim.obj
 0002:00004df0       ??_C@_0CI@NFFNBHJA@?$CFs?5?$CIbus?5?$CFd?0?5slot?5?$CFd?$CJ?3?5board?5not@ 10074df0     xpcionim.obj
 0002:00004e20       ??_C@_0CD@MBDNCLAI@NI?5M?5series?3?5Unknown?5board?5type@ 10074e20     xpcionim.obj
 0002:00004e4c       ??_C@_0CC@DMFKNLL@VendorId?5?$DN?50x?$CFx?0?5DeviceId?5?$DN?50x?$CF@ 10074e4c     xpcruntime:xpcimports.obj
 0002:00004e74       ??_C@_0DH@OHCBLNMG@Subsystem?5Device?5ID?5?$DN?50x?$CFx?6Subs@ 10074e74     xpcruntime:xpcimports.obj
 0002:00004eb8       ??_C@_0BD@MMMMEFCM@Class?5Code?5?$DN?50x?$CFx?6@ 10074eb8     xpcruntime:xpcimports.obj
 0002:00004ed0       ??_C@_0BE@OLDDDNHM@InterruptLine?5?$DN?5?$CFd?6@ 10074ed0     xpcruntime:xpcimports.obj
 0002:00004ee8       ??_C@_0BF@OLKLEKBD@bus?5?$DN?5?$CFd?0?5slot?5?$DN?5?$CFd?6@ 10074ee8     xpcruntime:xpcimports.obj
 0002:00004f04       ??_C@_0CE@DGLLGDFH@?5?5?5?5Phys?5?5?5Virtual?5?5?5Length?5IO?1@ 10074f04     xpcruntime:xpcimports.obj
 0002:00004f30       ??_C@_0BI@FEOPLEMG@?$CF08x?5?$CF08x?5?$CF08x?5?5?5?5?5?5?$CFc?6@ 10074f30     xpcruntime:xpcimports.obj
 0002:00004f4c       ??_C@_0BB@BNNCEDPC@rl32eScopeExists@ 10074f4c     xpcruntime:xpcimports.obj
 0002:00004f60       ??_C@_0BM@FJBFEGFG@rl32eScopeExists?5not?5found?6@ 10074f60     xpcruntime:xpcimports.obj
 0002:00004f84       ??_C@_0O@BNNGKJEA@rl32eDefScope@ 10074f84     xpcruntime:xpcimports.obj
 0002:00004f94       ??_C@_0BJ@CDNOENKA@rl32eDefScope?5not?5found?6@ 10074f94     xpcruntime:xpcimports.obj
 0002:00004fb4       ??_C@_0P@CKNKILDP@rl32eAddSignal@ 10074fb4     xpcruntime:xpcimports.obj
 0002:00004fc8       ??_C@_0BK@GMJAJBAI@rl32eAddSignal?5not?5found?6@ 10074fc8     xpcruntime:xpcimports.obj
 0002:00004fe8       ??_C@_0BB@LDMIHGCE@rl32eGetSignalNo@ 10074fe8     xpcruntime:xpcimports.obj
 0002:00004ffc       ??_C@_0BM@LGAMBAID@rl32eGetSignalNo?5not?5found?6@ 10074ffc     xpcruntime:xpcimports.obj
 0002:00005020       ??_C@_0O@CFDGALBP@rl32eSetScope@ 10075020     xpcruntime:xpcimports.obj
 0002:00005030       ??_C@_0BJ@JCLHHIN@rl32eSetScope?5not?5found?6@ 10075030     xpcruntime:xpcimports.obj
 0002:00005050       ??_C@_0P@IKMCBMHH@xpceFSScopeSet@ 10075050     xpcruntime:xpcimports.obj
 0002:00005064       ??_C@_0BK@JODJPNNH@xpceFSScopeSet?5not?5found?6@ 10075064     xpcruntime:xpcimports.obj
 0002:00005084       ??_C@_0BE@DLACEEJM@rl32eSetTargetScope@ 10075084     xpcruntime:xpcimports.obj
 0002:0000509c       ??_C@_0BP@JCHFMKPJ@rl32eSetTargetScope?5not?5found?6@ 1007509c     xpcruntime:xpcimports.obj
 0002:000050c4       ??_C@_0BJ@LIDLNDHC@rl32eSetTargetScopeSigFt@ 100750c4     xpcruntime:xpcimports.obj
 0002:000050e4       ??_C@_0CE@JLGHCFHI@rl32eSetTargetScopeSigFt?5not?5fo@ 100750e4     xpcruntime:xpcimports.obj
 0002:00005110       ??_C@_0BI@JAPOIDNG@rl32eRestartAcquisition@ 10075110     xpcruntime:xpcimports.obj
 0002:0000512c       ??_C@_0CD@LLBEFFBO@rl32eRestartAcquisition?5not?5fou@ 1007512c     xpcruntime:xpcimports.obj
 0002:00005158       ??_C@_0P@IEIIADJB@xpceScopeAcqOK@ 10075158     xpcruntime:xpcimports.obj
 0002:0000516c       ??_C@_0BK@NJCKNFPN@xpceScopeAcqOK?5not?5found?6@ 1007516c     xpcruntime:xpcimports.obj
 0002:0000518c       ??_C@_0BA@IJINKAHF@xpceRegisterISR@ 1007518c     xpcruntime:xpcimports.obj
 0002:000051a0       ??_C@_0BL@NNDLOEJE@xpceRegisterISR?5not?5found?6@ 100751a0     xpcruntime:xpcimports.obj
 0002:000051c0       ??_C@_0BC@NLBADGKF@xpceDeRegisterISR@ 100751c0     xpcruntime:xpcimports.obj
 0002:000051d8       ??_C@_0BN@DCAIKFFD@xpceDeRegisterISR?5not?5found?6@ 100751d8     xpcruntime:xpcimports.obj
 0002:000051fc       ??_C@_07JPMEPILD@xpcInpB@  100751fc     xpcruntime:xpcimports.obj
 0002:00005208       ??_C@_0BD@PGABEJOL@xpcInpB?5not?5found?6@ 10075208     xpcruntime:xpcimports.obj
 0002:00005220       ??_C@_07KIHBBOKH@xpcInpW@  10075220     xpcruntime:xpcimports.obj
 0002:0000522c       ??_C@_0BD@FPCJFMCC@xpcInpW?5not?5found?6@ 1007522c     xpcruntime:xpcimports.obj
 0002:00005244       ??_C@_08KDIAJBOP@xpcInpDW@ 10075244     xpcruntime:xpcimports.obj
 0002:00005250       ??_C@_0BE@PIELDNIL@xpcInpDW?5not?5found?6@ 10075250     xpcruntime:xpcimports.obj
 0002:00005268       ??_C@_08PJFMOIGO@xpcOutpB@ 10075268     xpcruntime:xpcimports.obj
 0002:00005274       ??_C@_0BE@HCKNCEKF@xpcOutpB?5not?5found?6@ 10075274     xpcruntime:xpcimports.obj
 0002:0000528c       ??_C@_08MOOJAOHK@xpcOutpW@ 1007528c     xpcruntime:xpcimports.obj
 0002:00005298       ??_C@_0BE@NLIFDBGM@xpcOutpW?5not?5found?6@ 10075298     xpcruntime:xpcimports.obj
 0002:000052b0       ??_C@_09FLIEKHJG@xpcOutpDW@ 100752b0     xpcruntime:xpcimports.obj
 0002:000052bc       ??_C@_0BF@GJKLPNHB@xpcOutpDW?5not?5found?6@ 100752bc     xpcruntime:xpcimports.obj
 0002:000052d8       ??_C@_0BH@EHOLELHH@xpcReserveMemoryRegion@ 100752d8     xpcruntime:xpcimports.obj
 0002:000052f4       ??_C@_0CC@KAAAGPI@xpcReserveMemoryRegion?5not?5foun@ 100752f4     xpcruntime:xpcimports.obj
 0002:0000531c       ??_C@_0BA@JGPMHGAF@rl32eShowPCIDev@ 1007531c     xpcruntime:xpcimports.obj
 0002:00005330       ??_C@_0BL@DDFFLNHI@rl32eShowPCIDev?5not?5found?6@ 10075330     xpcruntime:xpcimports.obj
 0002:00005350       ??_C@_0BB@KBCOJPFB@rl32eShowPCIInfo@ 10075350     xpcruntime:xpcimports.obj
 0002:00005364       ??_C@_0BM@IFDMAGLO@rl32eShowPCIInfo?5not?5found?6@ 10075364     xpcruntime:xpcimports.obj
 0002:00005388       ??_C@_0BA@BGPAADB@rl32eGetPCIInfo@ 10075388     xpcruntime:xpcimports.obj
 0002:0000539c       ??_C@_0BL@IGOMLDCK@rl32eGetPCIInfo?5not?5found?6@ 1007539c     xpcruntime:xpcimports.obj
 0002:000053bc       ??_C@_0BG@NJPFKFDP@rl32eGetPCIInfoAtSlot@ 100753bc     xpcruntime:xpcimports.obj
 0002:000053d8       ??_C@_0CB@BBKIPMLA@rl32eGetPCIInfoAtSlot?5not?5found@ 100753d8     xpcruntime:xpcimports.obj
 0002:00005400       ??_C@_0BH@OKBOPNFG@xpceAssignPCIInterrupt@ 10075400     xpcruntime:xpcimports.obj
 0002:0000541c       ??_C@_0CC@CDNDNJBJ@xpceAssignPCIInterrupt?5not?5foun@ 1007541c     xpcruntime:xpcimports.obj
 0002:00005444       ??_C@_0BD@PCKOKHO@xpceGetSignalValue@ 10075444     xpcruntime:xpcimports.obj
 0002:0000545c       ??_C@_0BO@GCBDJHMB@xpceGetSignalValue?5not?5found?6@ 1007545c     xpcruntime:xpcimports.obj
 0002:00005480       ??_C@_0BB@BJONJAGA@xpceSetParameter@ 10075480     xpcruntime:xpcimports.obj
 0002:00005494       ??_C@_0BM@BJIKDLHA@xpceSetParameter?5not?5found?6@ 10075494     xpcruntime:xpcimports.obj
 0002:000054b8       ??_C@_0BB@GNFDFMCM@xpceGetParameter@ 100754b8     xpcruntime:xpcimports.obj
 0002:000054cc       ??_C@_0BM@POHNKBC@xpceGetParameter?5not?5found?6@ 100754cc     xpcruntime:xpcimports.obj
 0002:000054f0       ??_C@_0BB@CEIJLFCD@xpceGetParamDims@ 100754f0     xpcruntime:xpcimports.obj
 0002:00005504       ??_C@_0BM@OABDBKAO@xpceGetParamDims?5not?5found?6@ 10075504     xpcruntime:xpcimports.obj
 0002:00005528       ??_C@_0L@OCBLLHBM@xpceGetTET@ 10075528     xpcruntime:xpcimports.obj
 0002:00005538       ??_C@_0BG@HNOFBOB@xpceGetTET?5not?5found?6@ 10075538     xpcruntime:xpcimports.obj
 0002:00005554       ??_C@_0P@OKGNGAGH@xpcIsModelInit@ 10075554     xpcruntime:xpcimports.obj
 0002:00005568       ??_C@_0BK@DHEMLBIM@xpcIsModelInit?5not?5found?6@ 10075568     xpcruntime:xpcimports.obj
 0002:00005588       ??_C@_0BH@KJJLCAOJ@xpcAllocPhysicalMemory@ 10075588     xpcruntime:xpcimports.obj
 0002:000055a4       ??_C@_0CC@MOJPNHKL@xpcAllocPhysicalMemory?5not?5foun@ 100755a4     xpcruntime:xpcimports.obj
 0002:000055cc       ??_C@_0BG@CBNPGAEL@xpcFreePhysicalMemory@ 100755cc     xpcruntime:xpcimports.obj
 0002:000055e8       ??_C@_0CB@PKJEBPOG@xpcFreePhysicalMemory?5not?5found@ 100755e8     xpcruntime:xpcimports.obj
 0002:00005610       ??_C@_0BC@JGKNLICL@xpcGetElapsedTime@ 10075610     xpcruntime:xpcimports.obj
 0002:00005628       ??_C@_0BN@OEOAHCIO@xpcGetElapsedTime?5not?5found?6@ 10075628     xpcruntime:xpcimports.obj
 0002:0000564c       ??_C@_0M@ICBLMODA@xpcBusyWait@ 1007564c     xpcruntime:xpcimports.obj
 0002:0000565c       ??_C@_0BH@FBOPECBI@xpcBusyWait?5not?5found?6@ 1007565c     xpcruntime:xpcimports.obj
 0002:00005678       ??_C@_0N@LKKJEKKA@TBCreateSpin@ 10075678     xpcruntime:xpcimports.obj
 0002:00005688       ??_C@_0BI@FHKMLKOE@TBCreateSpin?5not?5found?6@ 10075688     xpcruntime:xpcimports.obj
 0002:000056a4       ??_C@_0N@HOAJHNBD@TBDeleteSpin@ 100756a4     xpcruntime:xpcimports.obj
 0002:000056b4       ??_C@_0BI@BKCPAAG@TBDeleteSpin?5not?5found?6@ 100756b4     xpcruntime:xpcimports.obj
 0002:000056d0       ??_C@_0P@DAHDDBJG@TBTakeSpinFast@ 100756d0     xpcruntime:xpcimports.obj
 0002:000056e4       ??_C@_0BK@NKAIBHGB@TBTakeSpinFast?5not?5found?6@ 100756e4     xpcruntime:xpcimports.obj
 0002:00005704       ??_C@_0P@FKNAAELA@TBGiveSpinFast@ 10075704     xpcruntime:xpcimports.obj
 0002:00005718       ??_C@_0BK@KGPJBJND@TBGiveSpinFast?5not?5found?6@ 10075718     xpcruntime:xpcimports.obj
 0002:00005738       ??_C@_0BE@IIGBFDHK@xpceCreateSemaphore@ 10075738     xpcruntime:xpcimports.obj
 0002:00005750       ??_C@_0BP@KFBAFFKJ@xpceCreateSemaphore?5not?5found?6@ 10075750     xpcruntime:xpcimports.obj
 0002:00005778       ??_C@_0BC@IFNIONKJ@xpceWaitSemaphore@ 10075778     xpcruntime:xpcimports.obj
 0002:00005790       ??_C@_0BN@NMFAADIO@xpceWaitSemaphore?5not?5found?6@ 10075790     xpcruntime:xpcimports.obj
 0002:000057b4       ??_C@_0BE@NNDIOBKE@xpceSignalSemaphore@ 100757b4     xpcruntime:xpcimports.obj
 0002:000057cc       ??_C@_0BP@LBANMHJP@xpceSignalSemaphore?5not?5found?6@ 100757cc     xpcruntime:xpcimports.obj
 0002:000057f4       ??_C@_0BE@MEBEKOIM@xpceDeleteSemaphore@ 100757f4     xpcruntime:xpcimports.obj
 0002:0000580c       ??_C@_0BP@OFNCKOJH@xpceDeleteSemaphore?5not?5found?6@ 1007580c     xpcruntime:xpcimports.obj
 0002:00005834       ??_C@_0BD@MFNDMBOF@FindUsbVideoDevice@ 10075834     xpcruntime:xpcimports.obj
 0002:0000584c       ??_C@_0BO@POKLDHMI@FindUsbVideoDevice?5not?5found?6@ 1007584c     xpcruntime:xpcimports.obj
 0002:00005870       ??_C@_0BA@PLPAPNAB@GetVideoConfigs@ 10075870     xpcruntime:xpcimports.obj
 0002:00005884       ??_C@_0BL@DALDHKHC@GetVideoConfigs?5not?5found?6@ 10075884     xpcruntime:xpcimports.obj
 0002:000058a4       ??_C@_0L@GBAEMHMH@StartVideo@ 100758a4     xpcruntime:xpcimports.obj
 0002:000058b4       ??_C@_0BG@HDCELEBP@StartVideo?5not?5found?6@ 100758b4     xpcruntime:xpcimports.obj
 0002:000058d0       ??_C@_0BA@FDNPOCLN@ReadFrameBuffer@ 100758d0     xpcruntime:xpcimports.obj
 0002:000058e4       ??_C@_0BL@JHGHPNBI@ReadFrameBuffer?5not?5found?6@ 100758e4     xpcruntime:xpcimports.obj
 0002:00005904       ??_C@_09FAHCLKAG@StopVideo@ 10075904     xpcruntime:xpcimports.obj
 0002:00005910       ??_C@_0BF@NKGKKADL@StopVideo?5not?5found?6@ 10075910     xpcruntime:xpcimports.obj
 0002:0000592c       ??_C@_0O@MCPKDLLL@ConvertUImage@ 1007592c     xpcruntime:xpcimports.obj
 0002:0000593c       ??_C@_0BJ@PHJKOAFL@ConvertUImage?5not?5found?6@ 1007593c     xpcruntime:xpcimports.obj
 0002:0000595c       ??_C@_0BD@NKCBPBJJ@CreateVideoDisplay@ 1007595c     xpcruntime:xpcimports.obj
 0002:00005974       ??_C@_0BO@HPPLLNFP@CreateVideoDisplay?5not?5found?6@ 10075974     xpcruntime:xpcimports.obj
 0002:00005998       ??_C@_0BE@KJCKGPHA@DestroyVideoDisplay@ 10075998     xpcruntime:xpcimports.obj
 0002:000059b0       ??_C@_0BP@FMGLJAIJ@DestroyVideoDisplay?5not?5found?6@ 100759b0     xpcruntime:xpcimports.obj
 0002:000059d8       ??_C@_0BC@HCMIMIDN@StartVideoDisplay@ 100759d8     xpcruntime:xpcimports.obj
 0002:000059f0       ??_C@_0BN@EFIEBGOO@StartVideoDisplay?5not?5found?6@ 100759f0     xpcruntime:xpcimports.obj
 0002:00005a14       ??_C@_0BB@JBBLMILG@StopVideoDisplay@ 10075a14     xpcruntime:xpcimports.obj
 0002:00005a28       ??_C@_0BM@DBJBPLEL@StopVideoDisplay?5not?5found?6@ 10075a28     xpcruntime:xpcimports.obj
 0002:00005a4c       ??_C@_0M@MFJEGMHC@StreamVideo@ 10075a4c     xpcruntime:xpcimports.obj
 0002:00005a5c       ??_C@_0BH@OINCDMLA@StreamVideo?5not?5found?6@ 10075a5c     xpcruntime:xpcimports.obj
 0002:00005a78       ??_C@_0N@IGGLCIGE@xpceaddEvent@ 10075a78     xpcruntime:xpcimports.obj
 0002:00005a88       ??_C@_0BI@NHJNFMKH@xpceaddEvent?5not?5found?6@ 10075a88     xpcruntime:xpcimports.obj
 0002:00005aa4       ??_C@_0BB@HDPOIJAB@xpceDAQPostEvent@ 10075aa4     xpcruntime:xpcimports.obj
 0002:00005ab8       ??_C@_0BM@IHANBKGN@xpceDAQPostEvent?5not?5found?6@ 10075ab8     xpcruntime:xpcimports.obj
 0002:00005adc       ??_C@_0BH@MBACMOD@xpceDAQUpdateTimeStamp@ 10075adc     xpcruntime:xpcimports.obj
 0002:00005af8       ??_C@_0CC@DAKBBINL@xpceDAQUpdateTimeStamp?5not?5foun@ 10075af8     xpcruntime:xpcimports.obj
 0002:00005b20       ??_C@_0BN@HJOHIFOM@xpceGetIntTimerGranularityNS@ 10075b20     xpcruntime:xpcimports.obj
 0002:00005b44       ??_C@_0CI@OADDPMKB@xpceGetIntTimerGranularityNS?5no@ 10075b44     xpcruntime:xpcimports.obj
 0002:00005b74       ??_C@_0BG@CCHICKPN@slrteSetStepSizeDelta@ 10075b74     xpcruntime:xpcimports.obj
 0002:00005b90       ??_C@_0CB@MKHINEIJ@slrteSetStepSizeDelta?5not?5found@ 10075b90     xpcruntime:xpcimports.obj
 0002:00005bb8       ??_C@_0BI@CLNBLDKJ@slrteGetCurrentStepSize@ 10075bb8     xpcruntime:xpcimports.obj
 0002:00005bd4       ??_C@_0CD@GIOJPGJA@slrteGetCurrentStepSize?5not?5fou@ 10075bd4     xpcruntime:xpcimports.obj
 0002:00005c00       ??_C@_0BE@FCLCBOC@registerPTPTimeRead@ 10075c00     xpcruntime:xpcimports.obj
 0002:00005c18       ??_C@_0BP@LHPKAJIP@registerPTPTimeRead?5not?5found?6@ 10075c18     xpcruntime:xpcimports.obj
 0002:00005c40       ??_C@_0BG@KIGCDDJI@unRegisterPTPTimeRead@ 10075c40     xpcruntime:xpcimports.obj
 0002:00005c5c       ??_C@_0CB@MLFFBFCM@unRegisterPTPTimeRead?5not?5found@ 10075c5c     xpcruntime:xpcimports.obj
 0002:00005c84       ??_C@_0BB@IPMDDBHK@slTestInitialize@ 10075c84     xpcruntime:xpcimports.obj
 0002:00005c98       ??_C@_0BM@LAJFCCJH@slTestInitialize?5not?5found?6@ 10075c98     xpcruntime:xpcimports.obj
 0002:00005cbc       ??_C@_0BF@OOMPMEBC@slTestLogAssessments@ 10075cbc     xpcruntime:xpcimports.obj
 0002:00005cd8       ??_C@_0CA@FGJCEBAG@slTestLogAssessments?5not?5found?6@ 10075cd8     xpcruntime:xpcimports.obj
 0002:00005d00       ??_C@_0BB@HJHKONHO@slTestEvalOnFail@ 10075d00     xpcruntime:xpcimports.obj
 0002:00005d14       ??_C@_0BM@JIKCFFNJ@slTestEvalOnFail?5not?5found?6@ 10075d14     xpcruntime:xpcimports.obj
 0002:00005d38       ??_C@_0BA@LBHLABFP@slTestTerminate@ 10075d38     xpcruntime:xpcimports.obj
 0002:00005d4c       ??_C@_0BL@EMFGKAPA@slTestTerminate?5not?5found?6@ 10075d4c     xpcruntime:xpcimports.obj
 0002:00005d6c       ??_C@_0BE@JPNPBBEO@slTestRegAssessment@ 10075d6c     xpcruntime:xpcimports.obj
 0002:00005d84       ??_C@_0BP@FBDEJJJH@slTestRegAssessment?5not?5found?6@ 10075d84     xpcruntime:xpcimports.obj
 0002:00005dac       ??_C@_0O@NCLGDNIB@slrteSetupMSI@ 10075dac     xpcruntime:xpcimports.obj
 0002:00005dbc       ??_C@_0BJ@HEFMECLM@slrteSetupMSI?5not?5found?6@ 10075dbc     xpcruntime:xpcimports.obj
 0002:00005ddc       ??_C@_0BH@BPOLALHD@slrtGetCRBScratchSpace@ 10075ddc     xpcruntime:xpcimports.obj
 0002:00005df8       ??_C@_0CC@KCKAJKKJ@slrtGetCRBScratchSpace?5not?5foun@ 10075df8     xpcruntime:xpcimports.obj
 0002:00005e20       ??_C@_0BC@MKFDAKOL@slrtGetSgCRBSpace@ 10075e20     xpcruntime:xpcimports.obj
 0002:00005e38       ??_C@_0BN@JDPHPLHL@slrtGetSgCRBSpace?5not?5found?6@ 10075e38     xpcruntime:xpcimports.obj
 0002:00005e5c       ??_C@_0P@EPAPKLIF@slrtfsOpenFile@ 10075e5c     xpcruntime:xpcimports.obj
 0002:00005e70       ??_C@_0BK@FIHCBOHG@slrtfsOpenFile?5not?5found?6@ 10075e70     xpcruntime:xpcimports.obj
 0002:00005e90       ??_C@_0BA@LILAFDDL@slrtfsCloseFile@ 10075e90     xpcruntime:xpcimports.obj
 0002:00005ea4       ??_C@_0BL@DEGHJFIB@slrtfsCloseFile?5not?5found?6@ 10075ea4     xpcruntime:xpcimports.obj
 0002:00005ec4       ??_C@_0BC@OKMJDIEH@slrtfsWriteToFile@ 10075ec4     xpcruntime:xpcimports.obj
 0002:00005edc       ??_C@_0BN@KCFLCLAH@slrtfsWriteToFile?5not?5found?6@ 10075edc     xpcruntime:xpcimports.obj
 0002:00005f00       ??_C@_0BK@GIPNFFFF@slrtfsGetFileErrorMessage@ 10075f00     xpcruntime:xpcimports.obj
 0002:00005f20       ??_C@_0CF@BCBLMKLE@slrtfsGetFileErrorMessage?5not?5f@ 10075f20     xpcruntime:xpcimports.obj
 0002:00005f4c       ??_C@_0BD@ICBOKMK@slrtfsGetFileError@ 10075f4c     xpcruntime:xpcimports.obj
 0002:00005f64       ??_C@_0BO@FNBANAE@slrtfsGetFileError?5not?5found?6@ 10075f64     xpcruntime:xpcimports.obj
 0002:00005f88       ??_C@_0BE@PPAJMHJP@slrtfsOpenFileAsync@ 10075f88     xpcruntime:xpcimports.obj
 0002:00005fa0       ??_C@_0BP@HKBMMJOK@slrtfsOpenFileAsync?5not?5found?6@ 10075fa0     xpcruntime:xpcimports.obj
 0002:00005fc8       ??_C@_0BF@IGNDIBPF@slrtfsCloseFileAsync@ 10075fc8     xpcruntime:xpcimports.obj
 0002:00005fe4       ??_C@_0CA@GJPFDBKN@slrtfsCloseFileAsync?5not?5found?6@ 10075fe4     xpcruntime:xpcimports.obj
 0002:0000600c       ??_C@_0BE@IOLEBNB@slrtfsGetFileStatus@ 1007600c     xpcruntime:xpcimports.obj
 0002:00006024       ??_C@_0BP@PEFHDGHL@slrtfsGetFileStatus?5not?5found?6@ 10076024     xpcruntime:xpcimports.obj
 0002:0000604c       ??_C@_0M@HKIJIMG@slrtfsFread@ 1007604c     xpcruntime:xpcimports.obj
 0002:0000605c       ??_C@_0BH@OOKBGONO@slrtfsFread?5not?5found?6@ 1007605c     xpcruntime:xpcimports.obj
 0002:00006078       ??_C@_0BE@OGCMPLAP@slrtGetDefaultDrive@ 10076078     xpcruntime:xpcimports.obj
 0002:00006090       ??_C@_0BP@HKFGLHOE@slrtGetDefaultDrive?5not?5found?6@ 10076090     xpcruntime:xpcimports.obj
 0002:000060b8       ??_C@_0N@NAJIKFFI@slrtLogEvent@ 100760b8     xpcruntime:xpcimports.obj
 0002:000060c8       ??_C@_0BI@NKCEACND@slrtLogEvent?5not?5found?6@ 100760c8     xpcruntime:xpcimports.obj
 0002:000060e4       ??_C@_0N@IDKFJOHI@getlasterror@ 100760e4     xpcruntime:xpcimports.obj
 0002:000060f4       ??_C@_0BI@MIHMCHGL@getlasterror?5not?5found?6@ 100760f4     xpcruntime:xpcimports.obj
 0002:00006110       ??_C@_0P@OKHGKJKN@geterrorstring@ 10076110     xpcruntime:xpcimports.obj
 0002:00006124       ??_C@_0BK@NOHFDMLP@geterrorstring?5not?5found?6@ 10076124     xpcruntime:xpcimports.obj
 0002:00006144       ??_C@_0BD@HNFFKMGJ@slrtGetCPUTCelsius@ 10076144     xpcruntime:xpcimports.obj
 0002:0000615c       ??_C@_0BO@LHBFKLIH@slrtGetCPUTCelsius?5not?5found?6@ 1007615c     xpcruntime:xpcimports.obj
 0002:00006180       ??_C@_0M@OONCNCLM@slrtWarning@ 10076180     xpcruntime:xpcimports.obj
 0002:00006190       ??_C@_0BH@ICKGIEMB@slrtWarning?5not?5found?6@ 10076190     xpcruntime:xpcimports.obj
 0002:000061ac       ??_C@_0N@EAAOMIIE@isUsedByRTIP@ 100761ac     xpcruntime:xpcimports.obj
 0002:000061bc       ??_C@_0BI@GNHHHICK@isUsedByRTIP?5not?5found?6@ 100761bc     xpcruntime:xpcimports.obj
 0002:000061d8       ??_C@_0BC@HLDKJAG@SetIPTASKPriority@ 100761d8     xpcruntime:xpcimports.obj
 0002:000061f0       ??_C@_0BN@OGKMHHAE@SetIPTASKPriority?5not?5found?6@ 100761f0     xpcruntime:xpcimports.obj
 0002:00006214       ??_C@_0O@LHENMBDD@OpenInterface@ 10076214     xpcruntime:xpcimports.obj
 0002:00006224       ??_C@_0BJ@PFGDBKHB@OpenInterface?5not?5found?6@ 10076224     xpcruntime:xpcimports.obj
 0002:00006244       ??_C@_0P@IINFELKD@CloseInterface@ 10076244     xpcruntime:xpcimports.obj
 0002:00006258       ??_C@_0BK@PAPDNDBK@CloseInterface?5not?5found?6@ 10076258     xpcruntime:xpcimports.obj
 0002:00006278       ??_C@_05LEFIAAOI@SetIP@    10076278     xpcruntime:xpcimports.obj
 0002:00006280       ??_C@_0BB@CGLIBAMM@SetIP?5not?5found?6@ 10076280     xpcruntime:xpcimports.obj
 0002:00006294       ??_C@_0BA@HIJJHHMD@AddGatewayRoute@ 10076294     xpcruntime:xpcimports.obj
 0002:000062a8       ??_C@_0BL@BFCFMDMN@AddGatewayRoute?5not?5found?6@ 100762a8     xpcruntime:xpcimports.obj
 0002:000062c8       ??_C@_0M@PHMABFPI@DeleteRoute@ 100762c8     xpcruntime:xpcimports.obj
 0002:000062d8       ??_C@_0BH@JPJGLLID@DeleteRoute?5not?5found?6@ 100762d8     xpcruntime:xpcimports.obj
 0002:000062f4       ??_C@_0BA@FCDIMKIJ@GetHostTarIPAdd@ 100762f4     xpcruntime:xpcimports.obj
 0002:00006308       ??_C@_0BL@MBKDGKBO@GetHostTarIPAdd?5not?5found?6@ 10076308     xpcruntime:xpcimports.obj
 0002:00006328       ??_C@_0M@HPMIPIBI@GetDCUUsage@ 10076328     xpcruntime:xpcimports.obj
 0002:00006338       ??_C@_0BH@EBLJKCJC@GetDCUUsage?5not?5found?6@ 10076338     xpcruntime:xpcimports.obj
 0002:00006354       ??_C@_06MPKMECK@accept@    10076354     xpcruntime:xpcimports.obj
 0002:0000635c       ??_C@_0BC@GBGIEMNO@accept?5not?5found?6@ 1007635c     xpcruntime:xpcimports.obj
 0002:00006374       ??_C@_04NPNJNMMP@bind@     10076374     xpcruntime:xpcimports.obj
 0002:0000637c       ??_C@_0BA@DAJNENLO@bind?5not?5found?6@ 1007637c     xpcruntime:xpcimports.obj
 0002:00006390       ??_C@_0L@CKHNIFCM@setsockopt@ 10076390     xpcruntime:xpcimports.obj
 0002:000063a0       ??_C@_0BG@MFIIOMFE@setsockopt?5not?5found?6@ 100763a0     xpcruntime:xpcimports.obj
 0002:000063bc       ??_C@_0M@ODDJDCDK@closesocket@ 100763bc     xpcruntime:xpcimports.obj
 0002:000063cc       ??_C@_0BH@JHGHMIL@closesocket?5not?5found?6@ 100763cc     xpcruntime:xpcimports.obj
 0002:000063e8       ??_C@_07KAIBNCHO@connect@  100763e8     xpcruntime:xpcimports.obj
 0002:000063f4       ??_C@_0BD@MKLLMBM@connect?5not?5found?6@ 100763f4     xpcruntime:xpcimports.obj
 0002:0000640c       ??_C@_0M@PBPOCKDG@ioctlsocket@ 1007640c     xpcruntime:xpcimports.obj
 0002:0000641c       ??_C@_0BH@NFCNHHIH@ioctlsocket?5not?5found?6@ 1007641c     xpcruntime:xpcimports.obj
 0002:00006438       ??_C@_06OODDLKLE@listen@   10076438     xpcruntime:xpcimports.obj
 0002:00006440       ??_C@_0BC@NHBILEKI@listen?5not?5found?6@ 10076440     xpcruntime:xpcimports.obj
 0002:00006458       ??_C@_08HMBBGFHE@recvfrom@ 10076458     xpcruntime:xpcimports.obj
 0002:00006464       ??_C@_0BE@BJAJFFLF@recvfrom?5not?5found?6@ 10076464     xpcruntime:xpcimports.obj
 0002:0000647c       ??_C@_06MEPBGKEC@sendto@   1007647c     xpcruntime:xpcimports.obj
 0002:00006484       ??_C@_0BC@BHPIMDJO@sendto?5not?5found?6@ 10076484     xpcruntime:xpcimports.obj
 0002:0000649c       ??_C@_09JKBDEEOB@inet_addr@ 1007649c     xpcruntime:xpcimports.obj
 0002:000064a8       ??_C@_0BF@HKJPGECN@inet_addr?5not?5found?6@ 100764a8     xpcruntime:xpcimports.obj
 0002:000064c4       ??_C@_06HBELJPBO@socket@   100764c4     xpcruntime:xpcimports.obj
 0002:000064cc       ??_C@_0BC@NAGFFJGA@socket?5not?5found?6@ 100764cc     xpcruntime:xpcimports.obj
 0002:000064e4       ??_C@_09ICJIFGNC@GetSocket@ 100764e4     xpcruntime:xpcimports.obj
 0002:000064f0       ??_C@_0BF@KDBCKMOJ@GetSocket?5not?5found?6@ 100764f0     xpcruntime:xpcimports.obj
 0002:0000650c       ??_C@_0P@KJEGJMJI@GetSocketState@ 1007650c     xpcruntime:xpcimports.obj
 0002:00006520       ??_C@_0BK@IALBJHEB@GetSocketState?5not?5found?6@ 10076520     xpcruntime:xpcimports.obj
 0002:00006540       ??_C@_0L@MEAJHNHB@SocketSend@ 10076540     xpcruntime:xpcimports.obj
 0002:00006550       ??_C@_0BG@EOCMBFJA@SocketSend?5not?5found?6@ 10076550     xpcruntime:xpcimports.obj
 0002:0000656c       ??_C@_0O@PFPCLEMF@SocketReceive@ 1007656c     xpcruntime:xpcimports.obj
 0002:0000657c       ??_C@_0BJ@HIBADDFO@SocketReceive?5not?5found?6@ 1007657c     xpcruntime:xpcimports.obj
 0002:0000659c       ??_C@_0BD@OOGFNAIK@CreateServerSocket@ 1007659c     xpcruntime:xpcimports.obj
 0002:000065b4       ??_C@_0BO@GKIJHIPH@CreateServerSocket?5not?5found?6@ 100765b4     xpcruntime:xpcimports.obj
 0002:000065d8       ??_C@_0BB@KGHJGFFO@OpenServerListen@ 100765d8     xpcruntime:xpcimports.obj
 0002:000065ec       ??_C@_0BM@NFMMLIO@OpenServerListen?5not?5found?6@ 100765ec     xpcruntime:xpcimports.obj
 0002:00006610       ??_C@_0BE@BAJLDJAH@ConnectServerSocket@ 10076610     xpcruntime:xpcimports.obj
 0002:00006628       ??_C@_0BP@KJNODIKE@ConnectServerSocket?5not?5found?6@ 10076628     xpcruntime:xpcimports.obj
 0002:00006650       ??_C@_0BC@PLKKJDIM@CloseServerSocket@ 10076650     xpcruntime:xpcimports.obj
 0002:00006668       ??_C@_0BN@KEJEPNMB@CloseServerSocket?5not?5found?6@ 10076668     xpcruntime:xpcimports.obj
 0002:0000668c       ??_C@_0BD@MCLPKCPP@CreateClientSocket@ 1007668c     xpcruntime:xpcimports.obj
 0002:000066a4       ??_C@_0BO@DILAGPFN@CreateClientSocket?5not?5found?6@ 100766a4     xpcruntime:xpcimports.obj
 0002:000066c8       ??_C@_0BB@DAPKNNLG@BindClientSocket@ 100766c8     xpcruntime:xpcimports.obj
 0002:000066dc       ??_C@_0BM@LLLMMDFN@BindClientSocket?5not?5found?6@ 100766dc     xpcruntime:xpcimports.obj
 0002:00006700       ??_C@_0BE@DMEBELHC@ConnectClientSocket@ 10076700     xpcruntime:xpcimports.obj
 0002:00006718       ??_C@_0BP@PLOHCPAO@ConnectClientSocket?5not?5found?6@ 10076718     xpcruntime:xpcimports.obj
 0002:00006740       ??_C@_0BC@NHHAOBPJ@CloseClientSocket@ 10076740     xpcruntime:xpcimports.obj
 0002:00006758       ??_C@_0BN@PGKNOKGL@CloseClientSocket?5not?5found?6@ 10076758     xpcruntime:xpcimports.obj
 0002:00006828       __pRawDllMain              10076828     LIBCMT:dll_dllmain.obj
 0002:00006828       __pDefaultRawDllMain       10076828     LIBCMT:dll_dllmain.obj
 0002:00006a20       ??_C@_08EHJDFFNH@__based?$CI@ 10076a20     libvcruntime:undname.obj
 0002:00006a2c       ??_C@_07KOLFKCDI@__cdecl@  10076a2c     libvcruntime:undname.obj
 0002:00006a38       ??_C@_08GHMPAG@__pascal@   10076a38     libvcruntime:undname.obj
 0002:00006a44       ??_C@_09IFJBGAPI@__stdcall@ 10076a44     libvcruntime:undname.obj
 0002:00006a50       ??_C@_0L@NPHFGOKO@__thiscall@ 10076a50     libvcruntime:undname.obj
 0002:00006a60       ??_C@_0L@JMKHOMEK@__fastcall@ 10076a60     libvcruntime:undname.obj
 0002:00006a70       ??_C@_0N@BCKKPABJ@__vectorcall@ 10076a70     libvcruntime:undname.obj
 0002:00006a80       ??_C@_09HIJEGCPM@__clrcall@ 10076a80     libvcruntime:undname.obj
 0002:00006a8c       ??_C@_06GHPCKEAG@__eabi@   10076a8c     libvcruntime:undname.obj
 0002:00006a94       ??_C@_09IOPIDJLG@__swift_1@ 10076a94     libvcruntime:undname.obj
 0002:00006aa0       ??_C@_09KFNFGKHF@__swift_2@ 10076aa0     libvcruntime:undname.obj
 0002:00006aac       ??_C@_07JOMMBBKO@__ptr64@  10076aac     libvcruntime:undname.obj
 0002:00006ab8       ??_C@_0L@PILCLIHE@__restrict@ 10076ab8     libvcruntime:undname.obj
 0002:00006ac8       ??_C@_0M@GFIIJFMG@__unaligned@ 10076ac8     libvcruntime:undname.obj
 0002:00006ad8       ??_C@_09DHDLOLLB@restrict?$CI@ 10076ad8     libvcruntime:undname.obj
 0002:00006ae4       ??_C@_04NIHEBCM@?5new@     10076ae4     libvcruntime:undname.obj
 0002:00006aec       ??_C@_07FPCDHGMM@?5delete@ 10076aec     libvcruntime:undname.obj
 0002:00006af8       ??_C@_01NEMOKFLO@?$DN@     10076af8     libvcruntime:undname.obj
 0002:00006afc       ??_C@_02GPIOPFAK@?$DO?$DO@ 10076afc     libvcruntime:undname.obj
 0002:00006b00       ??_C@_02FODMEDOG@?$DM?$DM@ 10076b00     libvcruntime:undname.obj
 0002:00006b04       ??_C@_01DCLJPIOD@?$CB@     10076b04     libvcruntime:undname.obj
 0002:00006b08       ??_C@_02EGOFBIJA@?$DN?$DN@ 10076b08     libvcruntime:undname.obj
 0002:00006b0c       ??_C@_02FDNJECIE@?$CB?$DN@ 10076b0c     libvcruntime:undname.obj
 0002:00006b10       ??_C@_02GPECMEKF@?$FL?$FN@ 10076b10     libvcruntime:undname.obj
 0002:00006b14       ??_C@_08LHJFAFGD@operator@ 10076b14     libvcruntime:undname.obj
 0002:00006b20       ??_C@_02HBOOOICD@?9?$DO@   10076b20     libvcruntime:undname.obj
 0002:00006b24       ??_C@_01NBENCBCI@?$CK@     10076b24     libvcruntime:undname.obj
 0002:00006b28       ??_C@_02ECNGHCIF@?$CL?$CL@ 10076b28     libvcruntime:undname.obj
 0002:00006b2c       ??_C@_02BAABKJLB@?9?9@     10076b2c     libvcruntime:undname.obj
 0002:00006b30       ??_C@_01JOAMLHOP@?9@       10076b30     libvcruntime:undname.obj
 0002:00006b34       ??_C@_01MIFGBAGJ@?$CL@     10076b34     libvcruntime:undname.obj
 0002:00006b38       ??_C@_01HNPIGOCE@?$CG@     10076b38     libvcruntime:undname.obj
 0002:00006b3c       ??_C@_03MNHNFDLC@?9?$DO?$CK@ 10076b3c     libvcruntime:undname.obj
 0002:00006b40       ??_C@_01KMDKNFGN@?1@       10076b40     libvcruntime:undname.obj
 0002:00006b44       ??_C@_01FGNFDNOH@?$CF@     10076b44     libvcruntime:undname.obj
 0002:00006b48       ??_C@_01MNNFJEPP@?$DM@     10076b48     libvcruntime:undname.obj
 0002:00006b4c       ??_C@_02EHCHHCKH@?$DM?$DN@ 10076b4c     libvcruntime:undname.obj
 0002:00006b50       ??_C@_01PPODPGHN@?$DO@     10076b50     libvcruntime:undname.obj
 0002:00006b54       ??_C@_02EEKDKGMJ@?$DO?$DN@ 10076b54     libvcruntime:undname.obj
 0002:00006b58       ??_C@_01IHBHIGKO@?0@       10076b58     libvcruntime:undname.obj
 0002:00006b5c       ??_C@_02HCKGKOFO@?$CI?$CJ@ 10076b5c     libvcruntime:undname.obj
 0002:00006b60       ??_C@_01PJKLJHI@?$HO@      10076b60     libvcruntime:undname.obj
 0002:00006b64       ??_C@_01JKBOJNNK@?$FO@     10076b64     libvcruntime:undname.obj
 0002:00006b68       ??_C@_01DNKMNLPK@?$HM@     10076b68     libvcruntime:undname.obj
 0002:00006b6c       ??_C@_02PPKAJPJL@?$CG?$CG@ 10076b6c     libvcruntime:undname.obj
 0002:00006b70       ??_C@_02NONPIBCD@?$HM?$HM@ 10076b70     libvcruntime:undname.obj
 0002:00006b74       ??_C@_02FPIMKNGF@?$CK?$DN@ 10076b74     libvcruntime:undname.obj
 0002:00006b78       ??_C@_02FOEOMHFC@?$CL?$DN@ 10076b78     libvcruntime:undname.obj
 0002:00006b7c       ??_C@_02FKMDLLOA@?9?$DN@   10076b7c     libvcruntime:undname.obj
 0002:00006b80       ??_C@_02FJEHGPIO@?1?$DN@   10076b80     libvcruntime:undname.obj
 0002:00006b84       ??_C@_02FENAOKFI@?$CF?$DN@ 10076b84     libvcruntime:undname.obj
 0002:00006b88       ??_C@_03IKFCCPFF@?$DO?$DO?$DN@ 10076b88     libvcruntime:undname.obj
 0002:00006b8c       ??_C@_03CDNPDDLA@?$DM?$DM?$DN@ 10076b8c     libvcruntime:undname.obj
 0002:00006b90       ??_C@_02FGJGFEAB@?$CG?$DN@ 10076b90     libvcruntime:undname.obj
 0002:00006b94       ??_C@_02DHLNPPGH@?$HM?$DN@ 10076b94     libvcruntime:undname.obj
 0002:00006b98       ??_C@_02MHEGNOJ@?$FO?$DN@  10076b98     libvcruntime:undname.obj
 0002:00006b9c       ??_C@_09IFPLHPGF@?$GAvftable?8@ 10076b9c     libvcruntime:undname.obj
 0002:00006ba8       ??_C@_09BLBHBJP@?$GAvbtable?8@ 10076ba8     libvcruntime:undname.obj
 0002:00006bb4       ??_C@_07FEEIOKP@?$GAvcall?8@ 10076bb4     libvcruntime:undname.obj
 0002:00006bc0       ??_C@_08LLFFHHDJ@?$GAtypeof?8@ 10076bc0     libvcruntime:undname.obj
 0002:00006bcc       ??_C@_0BF@KDPPACIK@?$GAlocal?5static?5guard?8@ 10076bcc     libvcruntime:undname.obj
 0002:00006be8       ??_C@_08OBABFOLI@?$GAstring?8@ 10076be8     libvcruntime:undname.obj
 0002:00006bf4       ??_C@_0BD@JDLKDPAB@?$GAvbase?5destructor?8@ 10076bf4     libvcruntime:undname.obj
 0002:00006c0c       ??_C@_0BN@DEGPLNFK@?$GAvector?5deleting?5destructor?8@ 10076c0c     libvcruntime:undname.obj
 0002:00006c30       ??_C@_0BO@OBMKPJIG@?$GAdefault?5constructor?5closure?8@ 10076c30     libvcruntime:undname.obj
 0002:00006c54       ??_C@_0BN@IMDCHIKM@?$GAscalar?5deleting?5destructor?8@ 10076c54     libvcruntime:undname.obj
 0002:00006c78       ??_C@_0BO@PFGOCPJJ@?$GAvector?5constructor?5iterator?8@ 10076c78     libvcruntime:undname.obj
 0002:00006c9c       ??_C@_0BN@LFPFMEDL@?$GAvector?5destructor?5iterator?8@ 10076c9c     libvcruntime:undname.obj
 0002:00006cc0       ??_C@_0CE@IKBNEHA@?$GAvector?5vbase?5constructor?5itera@ 10076cc0     libvcruntime:undname.obj
 0002:00006cec       ??_C@_0BL@NILFHHPC@?$GAvirtual?5displacement?5map?8@ 10076cec     libvcruntime:undname.obj
 0002:00006d0c       ??_C@_0CB@JONCMFFK@?$GAeh?5vector?5constructor?5iterator@ 10076d0c     libvcruntime:undname.obj
 0002:00006d34       ??_C@_0CA@GCEOPDGL@?$GAeh?5vector?5destructor?5iterator?8@ 10076d34     libvcruntime:undname.obj
 0002:00006d5c       ??_C@_0CH@OOJPLCPH@?$GAeh?5vector?5vbase?5constructor?5it@ 10076d5c     libvcruntime:undname.obj
 0002:00006d8c       ??_C@_0BL@LLKPOHJI@?$GAcopy?5constructor?5closure?8@ 10076d8c     libvcruntime:undname.obj
 0002:00006dac       ??_C@_0BA@KBCDOMBN@?$GAudt?5returning?8@ 10076dac     libvcruntime:undname.obj
 0002:00006dc0       ??_C@_03KLGMFNMG@?$GAEH@   10076dc0     libvcruntime:undname.obj
 0002:00006dc4       ??_C@_05KHLCHHI@?$GARTTI@  10076dc4     libvcruntime:undname.obj
 0002:00006dcc       ??_C@_0BA@KKLDJDLB@?$GAlocal?5vftable?8@ 10076dcc     libvcruntime:undname.obj
 0002:00006de0       ??_C@_0CE@IIHCMGGL@?$GAlocal?5vftable?5constructor?5clos@ 10076de0     libvcruntime:undname.obj
 0002:00006e0c       ??_C@_06FHBGPFGH@?5new?$FL?$FN@ 10076e0c     libvcruntime:undname.obj
 0002:00006e14       ??_C@_09LBNFPBCA@?5delete?$FL?$FN@ 10076e14     libvcruntime:undname.obj
 0002:00006e20       ??_C@_0P@HJKNJFNN@?$GAomni?5callsig?8@ 10076e20     libvcruntime:undname.obj
 0002:00006e34       ??_C@_0BL@CNOONJFP@?$GAplacement?5delete?5closure?8@ 10076e34     libvcruntime:undname.obj
 0002:00006e54       ??_C@_0BN@CKNJLHMB@?$GAplacement?5delete?$FL?$FN?5closure?8@ 10076e54     libvcruntime:undname.obj
 0002:00006e78       ??_C@_0CG@CFDHKGGD@?$GAmanaged?5vector?5constructor?5ite@ 10076e78     libvcruntime:undname.obj
 0002:00006ea8       ??_C@_0CF@IMGKMJNO@?$GAmanaged?5vector?5destructor?5iter@ 10076ea8     libvcruntime:undname.obj
 0002:00006ed4       ??_C@_0CG@HLDDJMAG@?$GAeh?5vector?5copy?5constructor?5ite@ 10076ed4     libvcruntime:undname.obj
 0002:00006f04       ??_C@_0CM@FCBBDIGB@?$GAeh?5vector?5vbase?5copy?5construct@ 10076f04     libvcruntime:undname.obj
 0002:00006f38       ??_C@_0BL@CLIPGLGB@?$GAdynamic?5initializer?5for?5?8@ 10076f38     libvcruntime:undname.obj
 0002:00006f58       ??_C@_0CB@PDBIFEP@?$GAdynamic?5atexit?5destructor?5for?5@ 10076f58     libvcruntime:undname.obj
 0002:00006f80       ??_C@_0CD@CGAJBKEJ@?$GAvector?5copy?5constructor?5iterat@ 10076f80     libvcruntime:undname.obj
 0002:00006fac       ??_C@_0CJ@GJELGAMM@?$GAvector?5vbase?5copy?5constructor?5@ 10076fac     libvcruntime:undname.obj
 0002:00006fe0       ??_C@_0CL@FGIJHLCE@?$GAmanaged?5vector?5copy?5constructo@ 10076fe0     libvcruntime:undname.obj
 0002:00007014       ??_C@_0BM@PMGGMLDN@?$GAlocal?5static?5thread?5guard?8@ 10077014     libvcruntime:undname.obj
 0002:00007038       ??_C@_0N@BDNMDMOL@operator?5?$CC?$CC?5@ 10077038     libvcruntime:undname.obj
 0002:00007048       ??_C@_0BC@GGEBGALA@operator?5co_await@ 10077048     libvcruntime:undname.obj
 0002:00007060       ??_C@_0BC@DAFEJGAK@?5Type?5Descriptor?8@ 10077060     libvcruntime:undname.obj
 0002:00007078       ??_C@_0BM@LDKODKLH@?5Base?5Class?5Descriptor?5at?5?$CI@ 10077078     libvcruntime:undname.obj
 0002:0000709c       ??_C@_0BD@LGICGFMM@?5Base?5Class?5Array?8@ 1007709c     libvcruntime:undname.obj
 0002:000070b4       ??_C@_0BN@MECKDCOJ@?5Class?5Hierarchy?5Descriptor?8@ 100770b4     libvcruntime:undname.obj
 0002:000070d8       ??_C@_0BK@CFCOFLF@?5Complete?5Object?5Locator?8@ 100770d8     libvcruntime:undname.obj
 0002:000070f8       ??_C@_04HEJADOOB@CV?3?5@   100770f8     libvcruntime:undname.obj
 0002:00007100       ??_C@_02MOLJINC@?3?3@      10077100     libvcruntime:undname.obj
 0002:00007104       ??_C@_0BE@JAEOCHPE@template?9parameter?9@ 10077104     libvcruntime:undname.obj
 0002:0000711c       ??_C@_0O@KHGCOMHP@generic?9type?9@ 1007711c     libvcruntime:undname.obj
 0002:0000712c       ??_C@_01NLNLIGKH@?$GA@     1007712c     libvcruntime:undname.obj
 0002:00007130       ??_C@_01GEODFPGF@?8@       10077130     libvcruntime:undname.obj
 0002:00007134       ??_C@_0BG@JNJLAMPM@?$GAanonymous?5namespace?8@ 10077134     libvcruntime:undname.obj
 0002:00007150       ??_C@_02OHHJMEON@?8?8@     10077150     libvcruntime:undname.obj
 0002:00007154       ??_C@_0BN@IBLMMFAP@?$GAnon?9type?9template?9parameter@ 10077154     libvcruntime:undname.obj
 0002:00007178       ??_C@_04GKJNKENE@void@     10077178     libvcruntime:undname.obj
 0002:00007180       ??_C@_0BE@EODMJLIF@?$GAtemplate?9parameter@ 10077180     libvcruntime:undname.obj
 0002:00007198       ??_C@_03KHICJKCI@?4?4?4@   10077198     libvcruntime:undname.obj
 0002:0000719c       ??_C@_04HIBGFPH@NULL@      1007719c     libvcruntime:undname.obj
 0002:000071a4       ??_C@_02DPKJAMEF@?$CFd@    100771a4     libvcruntime:undname.obj
 0002:000071a8       ??_C@_0BK@IHCCFNEL@?$GAtemplate?9type?9parameter?9@ 100771a8     libvcruntime:undname.obj
 0002:000071c8       ??_C@_0BK@OFCNNNKO@?$GAgeneric?9class?9parameter?9@ 100771c8     libvcruntime:undname.obj
 0002:000071e8       ??_C@_0BL@NGJBLFIL@?$GAgeneric?9method?9parameter?9@ 100771e8     libvcruntime:undname.obj
 0002:00007208       ??_C@_03OPGICMGF@?$HN?8?5@ 10077208     libvcruntime:undname.obj
 0002:0000720c       ??_C@_02IGFCGPIL@?$HN?8@   1007720c     libvcruntime:undname.obj
 0002:00007210       ??_C@_01CLKCMJKC@?5@       10077210     libvcruntime:undname.obj
 0002:00007214       ??_C@_0N@CBHHHENL@?$GAvtordispex?$HL@ 10077214     libvcruntime:undname.obj
 0002:00007224       ??_C@_0L@GHPFDFH@?$GAvtordisp?$HL@ 10077224     libvcruntime:undname.obj
 0002:00007234       ??_C@_0L@HNGCOGAE@?$GAadjustor?$HL@ 10077234     libvcruntime:undname.obj
 0002:00007244       ??_C@_0CB@KJDOOODE@?$GAlocal?5static?5destructor?5helper@ 10077244     libvcruntime:undname.obj
 0002:0000726c       ??_C@_0DB@ILEFOCIJ@?$GAtemplate?5static?5data?5member?5co@ 1007726c     libvcruntime:undname.obj
 0002:000072a8       ??_C@_0DA@HGFJFBBE@?$GAtemplate?5static?5data?5member?5de@ 100772a8     libvcruntime:undname.obj
 0002:000072e4       ??_C@_07PGOEDBHP@static?5@ 100772e4     libvcruntime:undname.obj
 0002:000072f0       ??_C@_08NIEOINHE@virtual?5@ 100772f0     libvcruntime:undname.obj
 0002:000072fc       ??_C@_09LAPHOOG@private?3?5@ 100772fc     libvcruntime:undname.obj
 0002:00007308       ??_C@_0M@GAIFPFIP@protected?3?5@ 10077308     libvcruntime:undname.obj
 0002:00007318       ??_C@_08GPDDCMKI@public?3?5@ 10077318     libvcruntime:undname.obj
 0002:00007324       ??_C@_08KJLFOPNE@?$FLthunk?$FN?3@ 10077324     libvcruntime:undname.obj
 0002:00007330       ??_C@_0M@DHNBOJMP@extern?5?$CCC?$CC?5@ 10077330     libvcruntime:undname.obj
 0002:00007340       ??_C@_02KCKGHPCA@?$CJ?5@   10077340     libvcruntime:undname.obj
 0002:00007344       ??_C@_05CIHEBHNO@char?5@   10077344     libvcruntime:undname.obj
 0002:0000734c       ??_C@_06EHJMALKF@short?5@  1007734c     libvcruntime:undname.obj
 0002:00007354       ??_C@_04LAHKHJMA@int?5@    10077354     libvcruntime:undname.obj
 0002:0000735c       ??_C@_05CJIMAING@long?5@   1007735c     libvcruntime:undname.obj
 0002:00007364       ??_C@_09EBBEKKIH@unsigned?5@ 10077364     libvcruntime:undname.obj
 0002:00007370       ??_C@_05BEFAKPML@void?5@   10077370     libvcruntime:undname.obj
 0002:00007378       ??_C@_08PABEKFH@volatile@  10077378     libvcruntime:undname.obj
 0002:00007384       ??_C@_0BA@LKIJLKPP@std?3?3nullptr_t?5@ 10077384     libvcruntime:undname.obj
 0002:00007398       ??_C@_0P@GCOCNKDM@std?3?3nullptr_t@ 10077398     libvcruntime:undname.obj
 0002:000073ac       ??_C@_0L@EGPHHEKN@?$DMellipsis?$DO@ 100773ac     libvcruntime:undname.obj
 0002:000073bc       ??_C@_04EENFHACM@?0?4?4?4@ 100773bc     libvcruntime:undname.obj
 0002:000073c4       ??_C@_0M@ELJOJFFH@?0?$DMellipsis?$DO@ 100773c4     libvcruntime:undname.obj
 0002:000073d4       ??_C@_09DNHFEOJI@?5noexcept@ 100773d4     libvcruntime:undname.obj
 0002:000073e0       ??_C@_03PBJBJNON@cpu@      100773e0     libvcruntime:undname.obj
 0002:000073e4       ??_C@_03DCBBJBAA@amp@      100773e4     libvcruntime:undname.obj
 0002:000073e8       ??_C@_02KEGNLNML@?0?5@     100773e8     libvcruntime:undname.obj
 0002:000073ec       ??_C@_04ENMBGAPA@char@     100773ec     libvcruntime:undname.obj
 0002:000073f4       ??_C@_05BFKKPKCG@short@    100773f4     libvcruntime:undname.obj
 0002:000073fc       ??_C@_03JBIPMCLC@int@      100773fc     libvcruntime:undname.obj
 0002:00007400       ??_C@_04GOKPGOLB@long@     10077400     libvcruntime:undname.obj
 0002:00007408       ??_C@_04DDKJGDCM@bool@     10077408     libvcruntime:undname.obj
 0002:00007410       ??_C@_06EBGKOKIG@__int8@   10077410     libvcruntime:undname.obj
 0002:00007418       ??_C@_07ICFHOGAF@__int16@  10077418     libvcruntime:undname.obj
 0002:00007424       ??_C@_07OFLPPHGP@__int32@  10077424     libvcruntime:undname.obj
 0002:00007430       ??_C@_07LFCOJCAC@__int64@  10077430     libvcruntime:undname.obj
 0002:0000743c       ??_C@_08GAHOLHEO@__int128@ 1007743c     libvcruntime:undname.obj
 0002:00007448       ??_C@_09EEKGDCPH@?$DMunknown?$DO@ 10077448     libvcruntime:undname.obj
 0002:00007454       ??_C@_08HBIPOFJB@char16_t@ 10077454     libvcruntime:undname.obj
 0002:00007460       ??_C@_08IECNCBKG@char32_t@ 10077460     libvcruntime:undname.obj
 0002:0000746c       ??_C@_07CLGGIAMF@wchar_t@  1007746c     libvcruntime:undname.obj
 0002:00007478       ??_C@_06GCICPBLB@__w64?5@  10077478     libvcruntime:undname.obj
 0002:00007480       ??_C@_07NFANNNEC@UNKNOWN@  10077480     libvcruntime:undname.obj
 0002:0000748c       ??_C@_07EDHNAJHC@signed?5@ 1007748c     libvcruntime:undname.obj
 0002:00007498       ??_C@_05BNCCCJPP@const@    10077498     libvcruntime:undname.obj
 0002:000074a0       ??_C@_09EFNPDFFP@?5volatile@ 100774a0     libvcruntime:undname.obj
 0002:000074ac       ??_C@_0P@GCIFDJCJ@?$GAunknown?5ecsu?8@ 100774ac     libvcruntime:undname.obj
 0002:000074c0       ??_C@_06MOJHIBMG@union?5@  100774c0     libvcruntime:undname.obj
 0002:000074c8       ??_C@_07DIBCDNGL@struct?5@ 100774c8     libvcruntime:undname.obj
 0002:000074d4       ??_C@_06LJBABKPM@class?5@  100774d4     libvcruntime:undname.obj
 0002:000074dc       ??_C@_08KOFANOFK@coclass?5@ 100774dc     libvcruntime:undname.obj
 0002:000074e8       ??_C@_0N@DLIEFKNA@cointerface?5@ 100774e8     libvcruntime:undname.obj
 0002:000074f8       ??_C@_05LJGMCFOG@enum?5@   100774f8     libvcruntime:undname.obj
 0002:00007500       ??_C@_09GAIEOBLP@volatile?5@ 10077500     libvcruntime:undname.obj
 0002:0000750c       ??_C@_06LIJLOJAG@const?5@  1007750c     libvcruntime:undname.obj
 0002:00007514       ??_C@_02KJPKDIBN@?$CG?5@   10077514     libvcruntime:undname.obj
 0002:00007518       ??_C@_03PCKGMOPB@?$CG?$CG?5@ 10077518     libvcruntime:undname.obj
 0002:0000751c       ??_C@_0M@EALIELKG@cli?3?3array?$DM@ 1007751c     libvcruntime:undname.obj
 0002:0000752c       ??_C@_0O@GKABPPIF@cli?3?3pin_ptr?$DM@ 1007752c     libvcruntime:undname.obj
 0002:0000753c       ??_C@_02GOGNNPBN@?$CJ?$FL@ 1007753c     libvcruntime:undname.obj
 0002:00007540       ??_C@_06EEGAIFAK@?$HLflat?$HN@ 10077540     libvcruntime:undname.obj
 0002:00007548       ??_C@_05JIBOFOHK@?$HLfor?5@ 10077548     libvcruntime:undname.obj
 0002:00007550       ??_C@_02MDINNEEG@s?5@      10077550     libvcruntime:undname.obj
 0002:00007558       ??_7DNameNode@@6B@         10077558     libvcruntime:undname.obj
 0002:0000756c       ??_7charNode@@6B@          1007756c     libvcruntime:undname.obj
 0002:00007580       ??_7pcharNode@@6B@         10077580     libvcruntime:undname.obj
 0002:00007594       ??_7pDNameNode@@6B@        10077594     libvcruntime:undname.obj
 0002:000075a8       ??_7DNameStatusNode@@6B@   100775a8     libvcruntime:undname.obj
 0002:000075bc       ??_7pairNode@@6B@          100775bc     libvcruntime:undname.obj
 0002:000075cc       ??_C@_04OKOHEJBO@?5?$DP?$DP?5@ 100775cc     libvcruntime:undname.obj
 0002:000075d4       ?nodes@?1??make@DNameStatusNode@@SAPBV2@W4DNameStatus@@@Z@4QBV2@B 100775d4     libvcruntime:undname.obj
 0002:00007620       ??_C@_1DM@KHCHBNEB@?$AAa?$AAp?$AAi?$AA?9?$AAm?$AAs?$AA?9?$AAw?$AAi?$AAn?$AA?9?$AAc?$AAo?$AAr?$AAe@ 10077620     libvcruntime:winapi_downlevel.obj
 0002:00007668       ??_C@_1DK@LPPGFMPP@?$AAa?$AAp?$AAi?$AA?9?$AAm?$AAs?$AA?9?$AAw?$AAi?$AAn?$AA?9?$AAc?$AAo?$AAr?$AAe@ 10077668     libvcruntime:winapi_downlevel.obj
 0002:000076b0       ??_C@_1BC@GDMECMAK@?$AAk?$AAe?$AAr?$AAn?$AAe?$AAl?$AA3?$AA2@ 100776b0     libvcruntime:winapi_downlevel.obj
 0002:000076c8       ??_C@_1BA@PFFKHIOG@?$AAa?$AAp?$AAi?$AA?9?$AAm?$AAs?$AA?9@ 100776c8     libvcruntime:winapi_downlevel.obj
 0002:000076dc       ??_C@_1BA@IAIFMGEF@?$AAe?$AAx?$AAt?$AA?9?$AAm?$AAs?$AA?9@ 100776dc     libvcruntime:winapi_downlevel.obj
 0002:000076fc       ??_C@_08KNHFBNJ@FlsAlloc@  100776fc     libvcruntime:winapi_downlevel.obj
 0002:00007714       ??_C@_07PEJMOBNF@FlsFree@  10077714     libvcruntime:winapi_downlevel.obj
 0002:0000772c       ??_C@_0M@GDNOONDI@FlsGetValue@ 1007772c     libvcruntime:winapi_downlevel.obj
 0002:00007748       ??_C@_0M@JCPCPOEF@FlsSetValue@ 10077748     libvcruntime:winapi_downlevel.obj
 0002:00007764       ??_C@_0BM@HCFOFFN@InitializeCriticalSectionEx@ 10077764     libvcruntime:winapi_downlevel.obj
 0002:0000778c       ??_7exception@std@@6B@     1007778c     libvcruntime:frame.obj
 0002:00007798       ??_C@_0BC@EOODALEL@Unknown?5exception@ 10077798     libvcruntime:frame.obj
 0002:000077b4       ??_7bad_exception@std@@6B@ 100777b4     libvcruntime:frame.obj
 0002:000077c0       ??_C@_0O@DPKOEFFH@bad?5exception@ 100777c0     libvcruntime:frame.obj
 0002:000077d0       __pDestructExceptionObject 100777d0     libvcruntime:ehhelpers.obj
 0002:000077fc       ??_C@_0CK@CFPGFGGO@Assertion?5failed?3?5?$CFTs?0?5file?5?$CFTs?0@ 100777fc     libucrt:assert.obj
 0002:00007830       ??_C@_1FE@LHBLIKM@?$AAA?$AAs?$AAs?$AAe?$AAr?$AAt?$AAi?$AAo?$AAn?$AA?5?$AAf?$AAa?$AAi?$AAl?$AAe?$AAd?$AA?3?$AA?5?$AA?$CF?$AAT?$AAs?$AA?0?$AA?5?$AAf?$AAi?$AAl?$AAe?$AA?5?$AA?$CF?$AAT?$AAs?$AA?0@ 10077830     libucrt:assert.obj
 0002:00007894       ??_C@_0CF@GOGNBNAK@Microsoft?5Visual?5C?$CL?$CL?5Runtime?5Lib@ 10077894     libucrt:assert.obj
 0002:000078c0       ??_C@_1EK@MBDPDCGA@?$AAM?$AAi?$AAc?$AAr?$AAo?$AAs?$AAo?$AAf?$AAt?$AA?5?$AAV?$AAi?$AAs?$AAu?$AAa?$AAl?$AA?5?$AAC?$AA?$CL?$AA?$CL?$AA?5?$AAR?$AAu?$AAn?$AAt?$AAi?$AAm?$AAe?$AA?5?$AAL?$AAi?$AAb@ 100778c0     libucrt:assert.obj
 0002:00007918       ??_C@_0BC@LAIDCHCH@Assertion?5failed?$CB?$AA@ 10077918     libucrt:assert.obj
 0002:00007930       ??_C@_1CE@OJBNHDMO@?$AAA?$AAs?$AAs?$AAe?$AAr?$AAt?$AAi?$AAo?$AAn?$AA?5?$AAf?$AAa?$AAi?$AAl?$AAe?$AAd?$AA?$CB?$AA?$AA@ 10077930     libucrt:assert.obj
 0002:0000795c       ??_C@_09KLGCKDOD@Program?3?5?$AA@ 1007795c     libucrt:assert.obj
 0002:00007968       ??_C@_1BE@PHKBBGE@?$AAP?$AAr?$AAo?$AAg?$AAr?$AAa?$AAm?$AA?3?$AA?5?$AA?$AA@ 10077968     libucrt:assert.obj
 0002:00007980       ??_C@_06IGPBOHMJ@File?3?5?$AA@ 10077980     libucrt:assert.obj
 0002:00007988       ??_C@_1O@HEMHKNDC@?$AAF?$AAi?$AAl?$AAe?$AA?3?$AA?5?$AA?$AA@ 10077988     libucrt:assert.obj
 0002:00007998       ??_C@_06FIEBOLOH@Line?3?5?$AA@ 10077998     libucrt:assert.obj
 0002:000079a0       ??_C@_1O@KCAFKHJE@?$AAL?$AAi?$AAn?$AAe?$AA?3?$AA?5?$AA?$AA@ 100779a0     libucrt:assert.obj
 0002:000079b0       ??_C@_0N@MEECIJGN@Expression?3?5?$AA@ 100779b0     libucrt:assert.obj
 0002:000079c0       ??_C@_1BK@PEDCIPMA@?$AAE?$AAx?$AAp?$AAr?$AAe?$AAs?$AAs?$AAi?$AAo?$AAn?$AA?3?$AA?5?$AA?$AA@ 100779c0     libucrt:assert.obj
 0002:000079e0       ??_C@_0HA@OJHAGA@For?5information?5on?5how?5your?5prog@ 100779e0     libucrt:assert.obj
 0002:00007a68       ??_C@_1OA@EGMLFBHJ@?$AAF?$AAo?$AAr?$AA?5?$AAi?$AAn?$AAf?$AAo?$AAr?$AAm?$AAa?$AAt?$AAi?$AAo?$AAn?$AA?5?$AAo?$AAn?$AA?5?$AAh?$AAo?$AAw?$AA?5?$AAy?$AAo?$AAu?$AAr?$AA?5?$AAp?$AAr?$AAo?$AAg@ 10077a68     libucrt:assert.obj
 0002:00007b74       ??_C@_0DN@EBBNMLME@?$CIPress?5Retry?5to?5debug?5the?5applic@ 10077b74     libucrt:assert.obj
 0002:00007bc0       ??_C@_1HK@POCJMFGK@?$AA?$CI?$AAP?$AAr?$AAe?$AAs?$AAs?$AA?5?$AAR?$AAe?$AAt?$AAr?$AAy?$AA?5?$AAt?$AAo?$AA?5?$AAd?$AAe?$AAb?$AAu?$AAg?$AA?5?$AAt?$AAh?$AAe?$AA?5?$AAa?$AAp?$AAp?$AAl?$AAi?$AAc@ 10077bc0     libucrt:assert.obj
 0002:00007c54       ??_C@_03KHICJKCI@?4?4?4?$AA@ 10077c54     libucrt:assert.obj
 0002:00007c58       ??_C@_17LGKOMLJ@?$AA?4?$AA?4?$AA?4?$AA?$AA@ 10077c58     libucrt:assert.obj
 0002:00007c64       ??_C@_01EEMJAFIK@?6?$AA@   10077c64     libucrt:assert.obj
 0002:00007c68       ??_C@_13LBAGMAIH@?$AA?6?$AA?$AA@ 10077c68     libucrt:assert.obj
 0002:00007c6c       ??_C@_02PHMGELLB@?6?6?$AA@ 10077c6c     libucrt:assert.obj
 0002:00007c70       ??_C@_15IABLJNFO@?$AA?6?$AA?6?$AA?$AA@ 10077c70     libucrt:assert.obj
 0002:00007c78       ??_C@_0BH@DNAGHKFM@?$DMprogram?5name?5unknown?$DO?$AA@ 10077c78     libucrt:assert.obj
 0002:00007c94       ??_C@_1CO@EAEJAADC@?$AA?$DM?$AAp?$AAr?$AAo?$AAg?$AAr?$AAa?$AAm?$AA?5?$AAn?$AAa?$AAm?$AAe?$AA?5?$AAu?$AAn?$AAk?$AAn?$AAo?$AAw?$AAn?$AA?$DO?$AA?$AA@ 10077c94     libucrt:assert.obj
 0002:00007ccc       _RtlNtPathSeperatorString  10077ccc     libucrt:exit.obj
 0002:00007cd8       ??_C@_13FPGAJAPJ@?$AA?2?$AA?$AA@ 10077cd8     libucrt:exit.obj
 0002:00007cdc       _RtlDosPathSeperatorsString 10077cdc     libucrt:exit.obj
 0002:00007ce8       ??_C@_15MNCACJLI@?$AA?2?$AA?1?$AA?$AA@ 10077ce8     libucrt:exit.obj
 0002:00007cf0       _RtlAlternateDosPathSeperatorString 10077cf0     libucrt:exit.obj
 0002:00007cfc       ??_C@_13CGOKJPIL@?$AA?1?$AA?$AA@ 10077cfc     libucrt:exit.obj
 0002:00007d00       ??_C@_1BI@BGOHAHKC@?$AAm?$AAs?$AAc?$AAo?$AAr?$AAe?$AAe?$AA?4?$AAd?$AAl?$AAl?$AA?$AA@ 10077d00     libucrt:exit.obj
 0002:00007d1c       ??_C@_0P@MIGLKIOC@CorExitProcess?$AA@ 10077d1c     libucrt:exit.obj
 0002:00007d30       _standard_lookup_table     10077d30     libucrt:output.obj
 0002:00007da0       _format_validation_lookup_table 10077da0     libucrt:output.obj
 0002:00007e10       ??_C@_1O@CEDCILHN@?$AA?$CI?$AAn?$AAu?$AAl?$AAl?$AA?$CJ?$AA?$AA@ 10077e10     libucrt:output.obj
 0002:00007e20       ??_C@_06OJHGLDPL@?$CInull?$CJ?$AA@ 10077e20     libucrt:output.obj
 0002:00007e28       __real@0000000000000000    10077e28     libucrt:ldexp.obj
 0002:00007f50       ??_C@_03KHJOGHMM@exp?$AA@  10077f50     libucrt:fpexcept.obj
 0002:00007f54       ??_C@_03JGHBODFD@pow?$AA@  10077f54     libucrt:fpexcept.obj
 0002:00007f58       ??_C@_03MGHMBJCF@log?$AA@  10077f58     libucrt:fpexcept.obj
 0002:00007f5c       ??_C@_05HGHHAHAP@log10?$AA@ 10077f5c     libucrt:fpexcept.obj
 0002:00007f64       ??_C@_04COOMCNPB@sinh?$AA@ 10077f64     libucrt:fpexcept.obj
 0002:00007f6c       ??_C@_04HPJJNFIM@cosh?$AA@ 10077f6c     libucrt:fpexcept.obj
 0002:00007f74       ??_C@_04FJHINJAO@tanh?$AA@ 10077f74     libucrt:fpexcept.obj
 0002:00007f7c       ??_C@_04FIHNOPOL@asin?$AA@ 10077f7c     libucrt:fpexcept.obj
 0002:00007f84       ??_C@_04PDIFKINK@acos?$AA@ 10077f84     libucrt:fpexcept.obj
 0002:00007f8c       ??_C@_04MLLJIGOK@atan?$AA@ 10077f8c     libucrt:fpexcept.obj
 0002:00007f94       ??_C@_05KNGEOGJB@atan2?$AA@ 10077f94     libucrt:fpexcept.obj
 0002:00007f9c       ??_C@_04EIAKFFMI@sqrt?$AA@ 10077f9c     libucrt:fpexcept.obj
 0002:00007fa4       ??_C@_03BLEJJJBH@sin?$AA@  10077fa4     libucrt:fpexcept.obj
 0002:00007fa8       ??_C@_03LALBNOCG@cos?$AA@  10077fa8     libucrt:fpexcept.obj
 0002:00007fac       ??_C@_03IIINPABG@tan?$AA@  10077fac     libucrt:fpexcept.obj
 0002:00007fb0       ??_C@_04GFPJNGEK@ceil?$AA@ 10077fb0     libucrt:fpexcept.obj
 0002:00007fb8       ??_C@_05PBJFFIGL@floor?$AA@ 10077fb8     libucrt:fpexcept.obj
 0002:00007fc0       ??_C@_04ODHECPBC@fabs?$AA@ 10077fc0     libucrt:fpexcept.obj
 0002:00007fc8       ??_C@_04EHEDPDJG@modf?$AA@ 10077fc8     libucrt:fpexcept.obj
 0002:00007fd0       ??_C@_05CEJMAHNP@ldexp?$AA@ 10077fd0     libucrt:fpexcept.obj
 0002:00007fd8       ??_C@_05KBKMEMPO@_cabs?$AA@ 10077fd8     libucrt:fpexcept.obj
 0002:00007fe0       ??_C@_06MEIMCGCF@_hypot?$AA@ 10077fe0     libucrt:fpexcept.obj
 0002:00007fe8       ??_C@_04KEPJIHGP@fmod?$AA@ 10077fe8     libucrt:fpexcept.obj
 0002:00007ff0       ??_C@_05GKKHEGJL@frexp?$AA@ 10077ff0     libucrt:fpexcept.obj
 0002:00007ff8       ??_C@_03MJLDFKDL@_y0?$AA@  10077ff8     libucrt:fpexcept.obj
 0002:00007ffc       ??_C@_03NAKIGLHK@_y1?$AA@  10077ffc     libucrt:fpexcept.obj
 0002:00008000       ??_C@_03ONILCKOB@_yn?$AA@  10078000     libucrt:fpexcept.obj
 0002:00008004       ??_C@_05JGDBENOH@_logb?$AA@ 10078004     libucrt:fpexcept.obj
 0002:0000800c       ??_C@_0L@KDOEJCKC@_nextafter?$AA@ 1007800c     libucrt:fpexcept.obj
 0002:00008020       ___acrt_exception_action_table 10078020     libucrt:exception_filter.obj
 0002:000080cc       ___acrt_signal_action_table_count 100780cc     libucrt:exception_filter.obj
 0002:000080d0       ___acrt_signal_action_table_size 100780d0     libucrt:exception_filter.obj
 0002:000080d4       ___acrt_signal_action_first_fpe_index 100780d4     libucrt:exception_filter.obj
 0002:000080d8       ___acrt_signal_action_fpe_count 100780d8     libucrt:exception_filter.obj
 0002:0000817c       __Fenv1                    1007817c     libucrt:atox.obj
 0002:00008188       ??_C@_1DE@JNGNBFGO@?$AAR?$AAu?$AAn?$AAt?$AAi?$AAm?$AAe?$AA?5?$AAE?$AAr?$AAr?$AAo?$AAr?$AA?$CB?$AA?6?$AA?6?$AAP?$AAr?$AAo?$AAg?$AAr?$AAa?$AAm?$AA?3?$AA?5?$AA?$AA@ 10078188     libucrt:report_runtime_error.obj
 0002:000083d0       ??_C@_1EA@JGEFHKEI@?$AAa?$AAp?$AAi?$AA?9?$AAm?$AAs?$AA?9?$AAw?$AAi?$AAn?$AA?9?$AAc?$AAo?$AAr?$AAe?$AA?9?$AAd?$AAa?$AAt?$AAe?$AAt?$AAi?$AAm?$AAe?$AA?9?$AAl?$AA1?$AA?9?$AA1?$AA?9?$AA1?$AA?$AA@ 100783d0     libucrt:winapi_thunks.obj
 0002:0000841c       ??_C@_1DM@KHCHBNEB@?$AAa?$AAp?$AAi?$AA?9?$AAm?$AAs?$AA?9?$AAw?$AAi?$AAn?$AA?9?$AAc?$AAo?$AAr?$AAe?$AA?9?$AAf?$AAi?$AAb?$AAe?$AAr?$AAs?$AA?9?$AAl?$AA1?$AA?9?$AA1?$AA?9?$AA1?$AA?$AA@ 1007841c     libucrt:winapi_thunks.obj
 0002:00008464       ??_C@_1DI@IJCEHOCB@?$AAa?$AAp?$AAi?$AA?9?$AAm?$AAs?$AA?9?$AAw?$AAi?$AAn?$AA?9?$AAc?$AAo?$AAr?$AAe?$AA?9?$AAf?$AAi?$AAl?$AAe?$AA?9?$AAl?$AA1?$AA?9?$AA2?$AA?9?$AA2?$AA?$AA@ 10078464     libucrt:winapi_thunks.obj
 0002:000084a8       ??_C@_1EI@MPIAOHOC@?$AAa?$AAp?$AAi?$AA?9?$AAm?$AAs?$AA?9?$AAw?$AAi?$AAn?$AA?9?$AAc?$AAo?$AAr?$AAe?$AA?9?$AAl?$AAo?$AAc?$AAa?$AAl?$AAi?$AAz?$AAa?$AAt?$AAi?$AAo?$AAn?$AA?9?$AAl?$AA1?$AA?9@ 100784a8     libucrt:winapi_thunks.obj
 0002:00008500       ??_C@_1FK@FPHCKFIE@?$AAa?$AAp?$AAi?$AA?9?$AAm?$AAs?$AA?9?$AAw?$AAi?$AAn?$AA?9?$AAc?$AAo?$AAr?$AAe?$AA?9?$AAl?$AAo?$AAc?$AAa?$AAl?$AAi?$AAz?$AAa?$AAt?$AAi?$AAo?$AAn?$AA?9?$AAo?$AAb?$AAs@ 10078500     libucrt:winapi_thunks.obj
 0002:00008570       ??_C@_1EM@DILCGIIO@?$AAa?$AAp?$AAi?$AA?9?$AAm?$AAs?$AA?9?$AAw?$AAi?$AAn?$AA?9?$AAc?$AAo?$AAr?$AAe?$AA?9?$AAp?$AAr?$AAo?$AAc?$AAe?$AAs?$AAs?$AAt?$AAh?$AAr?$AAe?$AAa?$AAd?$AAs?$AA?9?$AAl@ 10078570     libucrt:winapi_thunks.obj
 0002:000085cc       ??_C@_1DM@LNCGDDPN@?$AAa?$AAp?$AAi?$AA?9?$AAm?$AAs?$AA?9?$AAw?$AAi?$AAn?$AA?9?$AAc?$AAo?$AAr?$AAe?$AA?9?$AAs?$AAt?$AAr?$AAi?$AAn?$AAg?$AA?9?$AAl?$AA1?$AA?9?$AA1?$AA?9?$AA0?$AA?$AA@ 100785cc     libucrt:winapi_thunks.obj
 0002:00008614       ??_C@_1DK@LPPGFMPP@?$AAa?$AAp?$AAi?$AA?9?$AAm?$AAs?$AA?9?$AAw?$AAi?$AAn?$AA?9?$AAc?$AAo?$AAr?$AAe?$AA?9?$AAs?$AAy?$AAn?$AAc?$AAh?$AA?9?$AAl?$AA1?$AA?9?$AA2?$AA?9?$AA0?$AA?$AA@ 10078614     libucrt:winapi_thunks.obj
 0002:0000865c       ??_C@_1DO@FPAPJEMD@?$AAa?$AAp?$AAi?$AA?9?$AAm?$AAs?$AA?9?$AAw?$AAi?$AAn?$AA?9?$AAc?$AAo?$AAr?$AAe?$AA?9?$AAs?$AAy?$AAs?$AAi?$AAn?$AAf?$AAo?$AA?9?$AAl?$AA1?$AA?9?$AA2?$AA?9?$AA1?$AA?$AA@ 1007865c     libucrt:winapi_thunks.obj
 0002:000086a8       ??_C@_1DK@NDHNAHIO@?$AAa?$AAp?$AAi?$AA?9?$AAm?$AAs?$AA?9?$AAw?$AAi?$AAn?$AA?9?$AAc?$AAo?$AAr?$AAe?$AA?9?$AAw?$AAi?$AAn?$AAr?$AAt?$AA?9?$AAl?$AA1?$AA?9?$AA1?$AA?9?$AA0?$AA?$AA@ 100786a8     libucrt:winapi_thunks.obj
 0002:000086f0       ??_C@_1DM@KGHDGBCM@?$AAa?$AAp?$AAi?$AA?9?$AAm?$AAs?$AA?9?$AAw?$AAi?$AAn?$AA?9?$AAc?$AAo?$AAr?$AAe?$AA?9?$AAx?$AAs?$AAt?$AAa?$AAt?$AAe?$AA?9?$AAl?$AA2?$AA?9?$AA1?$AA?9?$AA0?$AA?$AA@ 100786f0     libucrt:winapi_thunks.obj
 0002:00008738       ??_C@_1EO@IJIOEFOH@?$AAa?$AAp?$AAi?$AA?9?$AAm?$AAs?$AA?9?$AAw?$AAi?$AAn?$AA?9?$AAr?$AAt?$AAc?$AAo?$AAr?$AAe?$AA?9?$AAn?$AAt?$AAu?$AAs?$AAe?$AAr?$AA?9?$AAw?$AAi?$AAn?$AAd?$AAo?$AAw?$AA?9@ 10078738     libucrt:winapi_thunks.obj
 0002:00008798       ??_C@_1FG@HHGEKANL@?$AAa?$AAp?$AAi?$AA?9?$AAm?$AAs?$AA?9?$AAw?$AAi?$AAn?$AA?9?$AAs?$AAe?$AAc?$AAu?$AAr?$AAi?$AAt?$AAy?$AA?9?$AAs?$AAy?$AAs?$AAt?$AAe?$AAm?$AAf?$AAu?$AAn?$AAc?$AAt?$AAi@ 10078798     libucrt:winapi_thunks.obj
 0002:00008800       ??_C@_1EG@DBIOJECG@?$AAe?$AAx?$AAt?$AA?9?$AAm?$AAs?$AA?9?$AAw?$AAi?$AAn?$AA?9?$AAn?$AAt?$AAu?$AAs?$AAe?$AAr?$AA?9?$AAd?$AAi?$AAa?$AAl?$AAo?$AAg?$AAb?$AAo?$AAx?$AA?9?$AAl?$AA1?$AA?9?$AA1@ 10078800     libucrt:winapi_thunks.obj
 0002:00008858       ??_C@_1EO@FIHMJCLF@?$AAe?$AAx?$AAt?$AA?9?$AAm?$AAs?$AA?9?$AAw?$AAi?$AAn?$AA?9?$AAn?$AAt?$AAu?$AAs?$AAe?$AAr?$AA?9?$AAw?$AAi?$AAn?$AAd?$AAo?$AAw?$AAs?$AAt?$AAa?$AAt?$AAi?$AAo?$AAn?$AA?9@ 10078858     libucrt:winapi_thunks.obj
 0002:000088b8       ??_C@_1BC@DNHGCMLG@?$AAa?$AAd?$AAv?$AAa?$AAp?$AAi?$AA3?$AA2?$AA?$AA@ 100788b8     libucrt:winapi_thunks.obj
 0002:000088d0       ??_C@_1BC@GDMECMAK@?$AAk?$AAe?$AAr?$AAn?$AAe?$AAl?$AA3?$AA2?$AA?$AA@ 100788d0     libucrt:winapi_thunks.obj
 0002:000088e8       ??_C@_1M@OAIMIKLP@?$AAn?$AAt?$AAd?$AAl?$AAl?$AA?$AA@ 100788e8     libucrt:winapi_thunks.obj
 0002:000088f8       ??_C@_1EG@DPGNFKGC@?$AAa?$AAp?$AAi?$AA?9?$AAm?$AAs?$AA?9?$AAw?$AAi?$AAn?$AA?9?$AAa?$AAp?$AAp?$AAm?$AAo?$AAd?$AAe?$AAl?$AA?9?$AAr?$AAu?$AAn?$AAt?$AAi?$AAm?$AAe?$AA?9?$AAl?$AA1?$AA?9?$AA1@ 100788f8     libucrt:winapi_thunks.obj
 0002:0000894c       ??_C@_1O@BCCLBEOE@?$AAu?$AAs?$AAe?$AAr?$AA3?$AA2?$AA?$AA@ 1007894c     libucrt:winapi_thunks.obj
 0002:0000895c       ??_C@_1BA@PFFKHIOG@?$AAa?$AAp?$AAi?$AA?9?$AAm?$AAs?$AA?9?$AA?$AA@ 1007895c     libucrt:winapi_thunks.obj
 0002:00008970       ??_C@_1BA@IAIFMGEF@?$AAe?$AAx?$AAt?$AA?9?$AAm?$AAs?$AA?9?$AA?$AA@ 10078970     libucrt:winapi_thunks.obj
 0002:00008988       ??_C@_0BA@FHFNEAED@AreFileApisANSI?$AA@ 10078988     libucrt:winapi_thunks.obj
 0002:000089a8       ??_C@_0BA@IHGNDAEB@CompareStringEx?$AA@ 100789a8     libucrt:winapi_thunks.obj
 0002:000089c8       ??_C@_0BE@LJANKFHF@EnumSystemLocalesEx?$AA@ 100789c8     libucrt:winapi_thunks.obj
 0002:000089ec       ??_C@_08KNHFBNJ@FlsAlloc?$AA@ 100789ec     libucrt:winapi_thunks.obj
 0002:00008a04       ??_C@_07PEJMOBNF@FlsFree?$AA@ 10078a04     libucrt:winapi_thunks.obj
 0002:00008a1c       ??_C@_0M@GDNOONDI@FlsGetValue?$AA@ 10078a1c     libucrt:winapi_thunks.obj
 0002:00008a38       ??_C@_0M@JCPCPOEF@FlsSetValue?$AA@ 10078a38     libucrt:winapi_thunks.obj
 0002:00008a54       ??_C@_0BA@HNOPNCHB@GetActiveWindow?$AA@ 10078a54     libucrt:winapi_thunks.obj
 0002:00008a74       ??_C@_0BA@EPCJIIPD@GetDateFormatEx?$AA@ 10078a74     libucrt:winapi_thunks.obj
 0002:00008a94       ??_C@_0BJ@DIBIJBHA@GetEnabledXStateFeatures?$AA@ 10078a94     libucrt:winapi_thunks.obj
 0002:00008ac0       ??_C@_0BD@HHGDFDBJ@GetLastActivePopup?$AA@ 10078ac0     libucrt:winapi_thunks.obj
 0002:00008ae4       ??_C@_0BA@ONOKGCMP@GetLocaleInfoEx?$AA@ 10078ae4     libucrt:winapi_thunks.obj
 0002:00008b04       ??_C@_0BI@DFKBFLJE@GetProcessWindowStation?$AA@ 10078b04     libucrt:winapi_thunks.obj
 0002:00008b24       ??_C@_0BP@FPNJPEJC@GetSystemTimePreciseAsFileTime?$AA@ 10078b24     libucrt:winapi_thunks.obj
 0002:00008b58       ??_C@_0BA@CIJJKCJJ@GetTimeFormatEx?$AA@ 10078b58     libucrt:winapi_thunks.obj
 0002:00008b78       ??_C@_0BJ@PBCCBIPI@GetUserDefaultLocaleName?$AA@ 10078b78     libucrt:winapi_thunks.obj
 0002:00008ba4       ??_C@_0BK@DEKFELLI@GetUserObjectInformationW?$AA@ 10078ba4     libucrt:winapi_thunks.obj
 0002:00008bd0       ??_C@_0BG@IKLDMBLM@GetXStateFeaturesMask?$AA@ 10078bd0     libucrt:winapi_thunks.obj
 0002:00008bf8       ??_C@_0BM@HCFOFFN@InitializeCriticalSectionEx?$AA@ 10078bf8     libucrt:winapi_thunks.obj
 0002:00008c28       ??_C@_0BC@CELBKLLA@IsValidLocaleName?$AA@ 10078c28     libucrt:winapi_thunks.obj
 0002:00008c4c       ??_C@_0O@KKBNKAPF@LCMapStringEx?$AA@ 10078c4c     libucrt:winapi_thunks.obj
 0002:00008c68       ??_C@_0BB@CDHDDLLP@LCIDToLocaleName?$AA@ 10078c68     libucrt:winapi_thunks.obj
 0002:00008c88       ??_C@_0BB@HBDEELFH@LocaleNameToLCID?$AA@ 10078c88     libucrt:winapi_thunks.obj
 0002:00008ca8       ??_C@_0BE@KINNKFDA@LocateXStateFeature?$AA@ 10078ca8     libucrt:winapi_thunks.obj
 0002:00008ccc       ??_C@_0M@CHKKJDAI@MessageBoxA?$AA@ 10078ccc     libucrt:winapi_thunks.obj
 0002:00008ce8       ??_C@_0M@DLDCCGNP@MessageBoxW?$AA@ 10078ce8     libucrt:winapi_thunks.obj
 0002:00008cfc       ??_C@_0N@PPOMPGGK@RoInitialize?$AA@ 10078cfc     libucrt:winapi_thunks.obj
 0002:00008d10       ??_C@_0P@LLFHBIJD@RoUninitialize?$AA@ 10078d10     libucrt:winapi_thunks.obj
 0002:00008d28       ??_C@_0CF@OJOFEIGO@AppPolicyGetProcessTerminationMe@ 10078d28     libucrt:winapi_thunks.obj
 0002:00008d58       ??_C@_0CF@NNDFDCOC@AppPolicyGetThreadInitialization@ 10078d58     libucrt:winapi_thunks.obj
 0002:00008d88       ??_C@_0CE@OICFMIKE@AppPolicyGetShowDeveloperDiagnos@ 10078d88     libucrt:winapi_thunks.obj
 0002:00008db8       ??_C@_0BL@ODDJNEDA@AppPolicyGetWindowingModel?$AA@ 10078db8     libucrt:winapi_thunks.obj
 0002:00008de4       ??_C@_0BI@BKLFFAPO@SetThreadStackGuarantee?$AA@ 10078de4     libucrt:winapi_thunks.obj
 0002:00008e0c       ??_C@_0BC@JEAENNKH@SystemFunction036?$AA@ 10078e0c     libucrt:winapi_thunks.obj
 0002:00008e24       ?ccs@?1???$__acrt_stdio_parse_mode@D@@YA?AU__acrt_stdio_stream_mode@@QBD@Z@4QBDB 10078e24     libucrt:openfile.obj
 0002:00008e28       ?utf8_encoding@?1???$__acrt_stdio_parse_mode@D@@YA?AU__acrt_stdio_stream_mode@@QBD@Z@4QBDB 10078e28     libucrt:openfile.obj
 0002:00008e30       ?utf16_encoding@?1???$__acrt_stdio_parse_mode@D@@YA?AU__acrt_stdio_stream_mode@@QBD@Z@4QBDB 10078e30     libucrt:openfile.obj
 0002:00008e3c       ?unicode_encoding@?1???$__acrt_stdio_parse_mode@D@@YA?AU__acrt_stdio_stream_mode@@QBD@Z@4QBDB 10078e3c     libucrt:openfile.obj
 0002:00008e44       ?ccs@?1???$__acrt_stdio_parse_mode@_W@@YA?AU__acrt_stdio_stream_mode@@QB_W@Z@4QB_WB 10078e44     libucrt:openfile.obj
 0002:00008e4c       ?utf8_encoding@?1???$__acrt_stdio_parse_mode@_W@@YA?AU__acrt_stdio_stream_mode@@QB_W@Z@4QB_WB 10078e4c     libucrt:openfile.obj
 0002:00008e58       ?utf16_encoding@?1???$__acrt_stdio_parse_mode@_W@@YA?AU__acrt_stdio_stream_mode@@QB_W@Z@4QB_WB 10078e58     libucrt:openfile.obj
 0002:00008e6c       ?unicode_encoding@?1???$__acrt_stdio_parse_mode@_W@@YA?AU__acrt_stdio_stream_mode@@QB_W@Z@4QB_WB 10078e6c     libucrt:openfile.obj
 0002:00008f18       ___lc_category             10078f18     libucrt:wsetlocale.obj
 0002:00008f70       ??_C@_1O@GIFLHMA@?$AAL?$AAC?$AA_?$AAA?$AAL?$AAL?$AA?$AA@ 10078f70     libucrt:wsetlocale.obj
 0002:00008f80       ??_C@_1BG@PPOMIBNJ@?$AAL?$AAC?$AA_?$AAC?$AAO?$AAL?$AAL?$AAA?$AAT?$AAE?$AA?$AA@ 10078f80     libucrt:wsetlocale.obj
 0002:00008f9c       ??_C@_1BC@FFJGAPJM@?$AAL?$AAC?$AA_?$AAC?$AAT?$AAY?$AAP?$AAE?$AA?$AA@ 10078f9c     libucrt:wsetlocale.obj
 0002:00008fb4       ??_C@_1BI@PCKFNJFB@?$AAL?$AAC?$AA_?$AAM?$AAO?$AAN?$AAE?$AAT?$AAA?$AAR?$AAY?$AA?$AA@ 10078fb4     libucrt:wsetlocale.obj
 0002:00008fd0       ??_C@_1BG@ENIEDKID@?$AAL?$AAC?$AA_?$AAN?$AAU?$AAM?$AAE?$AAR?$AAI?$AAC?$AA?$AA@ 10078fd0     libucrt:wsetlocale.obj
 0002:00008fec       ??_C@_1BA@HAAOMIIG@?$AAL?$AAC?$AA_?$AAT?$AAI?$AAM?$AAE?$AA?$AA@ 10078fec     libucrt:wsetlocale.obj
 0002:00009000       ??_C@_15NBPDDFIP@?$AA?$DN?$AA?$DL?$AA?$AA@ 10079000     libucrt:wsetlocale.obj
 0002:00009008       ??_C@_13PJJBFPED@?$AA?$DL?$AA?$AA@ 10079008     libucrt:wsetlocale.obj
 0002:0000900c       ??_C@_13NMPKAAJP@?$AA?$DN?$AA?$AA@ 1007900c     libucrt:wsetlocale.obj
 0002:00009010       ??_C@_13FHBKNHDA@?$AAC?$AA?$AA@ 10079010     libucrt:wsetlocale.obj
 0002:00009014       ??_C@_19MPDNHKDG@?$AAu?$AAt?$AAf?$AA8?$AA?$AA@ 10079014     libucrt:wsetlocale.obj
 0002:00009020       ??_C@_1M@FPEIIFAM@?$AAu?$AAt?$AAf?$AA?9?$AA8?$AA?$AA@ 10079020     libucrt:wsetlocale.obj
 0002:00009030       ??_C@_17MBJJLFDM@?$AA_?$AA?4?$AA?0?$AA?$AA@ 10079030     libucrt:wsetlocale.obj
 0002:0000903c       ??_C@_13ENNFDPBH@?$AA_?$AA?$AA@ 1007903c     libucrt:wsetlocale.obj
 0002:00009040       ??_C@_13JOFGPIOO@?$AA?4?$AA?$AA@ 10079040     libucrt:wsetlocale.obj
 0002:00009048       ___lc_time_c               10079048     libucrt:nlsdata.obj
 0002:000091f4       ??_C@_03KOEHGMDN@Sun?$AA@  100791f4     libucrt:nlsdata.obj
 0002:000091f8       ??_C@_03PDAGKDH@Mon?$AA@   100791f8     libucrt:nlsdata.obj
 0002:000091fc       ??_C@_03NAGEINEP@Tue?$AA@  100791fc     libucrt:nlsdata.obj
 0002:00009200       ??_C@_03MHOMLAJA@Wed?$AA@  10079200     libucrt:nlsdata.obj
 0002:00009204       ??_C@_03IOFIKPDN@Thu?$AA@  10079204     libucrt:nlsdata.obj
 0002:00009208       ??_C@_03IDIOELNC@Fri?$AA@  10079208     libucrt:nlsdata.obj
 0002:0000920c       ??_C@_03FEFJNEK@Sat?$AA@   1007920c     libucrt:nlsdata.obj
 0002:00009210       ??_C@_06OOPIFAJ@Sunday?$AA@ 10079210     libucrt:nlsdata.obj
 0002:00009218       ??_C@_06JLEDEDGH@Monday?$AA@ 10079218     libucrt:nlsdata.obj
 0002:00009220       ??_C@_07BAAGCFCM@Tuesday?$AA@ 10079220     libucrt:nlsdata.obj
 0002:0000922c       ??_C@_09DLIGFAKA@Wednesday?$AA@ 1007922c     libucrt:nlsdata.obj
 0002:00009238       ??_C@_08HACCIKIA@Thursday?$AA@ 10079238     libucrt:nlsdata.obj
 0002:00009244       ??_C@_06JECMNKMI@Friday?$AA@ 10079244     libucrt:nlsdata.obj
 0002:0000924c       ??_C@_08INBOOONO@Saturday?$AA@ 1007924c     libucrt:nlsdata.obj
 0002:00009258       ??_C@_03JIHJHPIE@Jan?$AA@  10079258     libucrt:nlsdata.obj
 0002:0000925c       ??_C@_03HJBDCHOM@Feb?$AA@  1007925c     libucrt:nlsdata.obj
 0002:00009260       ??_C@_03ODNJBKGA@Mar?$AA@  10079260     libucrt:nlsdata.obj
 0002:00009264       ??_C@_03LEOLGMJP@Apr?$AA@  10079264     libucrt:nlsdata.obj
 0002:00009268       ??_C@_03CNMDKL@May?$AA@    10079268     libucrt:nlsdata.obj
 0002:0000926c       ??_C@_03IDFGHECI@Jun?$AA@  1007926c     libucrt:nlsdata.obj
 0002:00009270       ??_C@_03LBGABGKK@Jul?$AA@  10079270     libucrt:nlsdata.obj
 0002:00009274       ??_C@_03IFJFEIGA@Aug?$AA@  10079274     libucrt:nlsdata.obj
 0002:00009278       ??_C@_03GGCAPAJC@Sep?$AA@  10079278     libucrt:nlsdata.obj
 0002:0000927c       ??_C@_03BMAOKBAD@Oct?$AA@  1007927c     libucrt:nlsdata.obj
 0002:00009280       ??_C@_03JPJOFNIA@Nov?$AA@  10079280     libucrt:nlsdata.obj
 0002:00009284       ??_C@_03MKABNOCG@Dec?$AA@  10079284     libucrt:nlsdata.obj
 0002:00009288       ??_C@_07CGJPFGJA@January?$AA@ 10079288     libucrt:nlsdata.obj
 0002:00009294       ??_C@_08GNJGEPFN@February?$AA@ 10079294     libucrt:nlsdata.obj
 0002:000092a0       ??_C@_05HPCKOFNC@March?$AA@ 100792a0     libucrt:nlsdata.obj
 0002:000092a8       ??_C@_05DMJDNLEJ@April?$AA@ 100792a8     libucrt:nlsdata.obj
 0002:000092b0       ??_C@_04CNLMGBGM@June?$AA@ 100792b0     libucrt:nlsdata.obj
 0002:000092b8       ??_C@_04MIEPOIFP@July?$AA@ 100792b8     libucrt:nlsdata.obj
 0002:000092c0       ??_C@_06LBBHFDDG@August?$AA@ 100792c0     libucrt:nlsdata.obj
 0002:000092c8       ??_C@_09BHHEALKD@September?$AA@ 100792c8     libucrt:nlsdata.obj
 0002:000092d4       ??_C@_07JJNFCEND@October?$AA@ 100792d4     libucrt:nlsdata.obj
 0002:000092e0       ??_C@_08HCHEGEOA@November?$AA@ 100792e0     libucrt:nlsdata.obj
 0002:000092ec       ??_C@_08EDHMEBNP@December?$AA@ 100792ec     libucrt:nlsdata.obj
 0002:000092f8       ??_C@_02DEDBPAFC@AM?$AA@   100792f8     libucrt:nlsdata.obj
 0002:000092fc       ??_C@_02CJNFDJBF@PM?$AA@   100792fc     libucrt:nlsdata.obj
 0002:00009300       ??_C@_08BPBNCDIB@MM?1dd?1yy?$AA@ 10079300     libucrt:nlsdata.obj
 0002:0000930c       ??_C@_0BE@CKGJFCPC@dddd?0?5MMMM?5dd?0?5yyyy?$AA@ 1007930c     libucrt:nlsdata.obj
 0002:00009324       ??_C@_08JCCMCCIL@HH?3mm?3ss?$AA@ 10079324     libucrt:nlsdata.obj
 0002:00009330       ??_C@_17MBGCMIPB@?$AAS?$AAu?$AAn?$AA?$AA@ 10079330     libucrt:nlsdata.obj
 0002:0000933c       ??_C@_17KBOMKBF@?$AAM?$AAo?$AAn?$AA?$AA@ 1007933c     libucrt:nlsdata.obj
 0002:00009348       ??_C@_17BMKGEGOJ@?$AAT?$AAu?$AAe?$AA?$AA@ 10079348     libucrt:nlsdata.obj
 0002:00009354       ??_C@_17CJEDCEPE@?$AAW?$AAe?$AAd?$AA?$AA@ 10079354     libucrt:nlsdata.obj
 0002:00009360       ??_C@_17PDPHAADD@?$AAT?$AAh?$AAu?$AA?$AA@ 10079360     libucrt:nlsdata.obj
 0002:0000936c       ??_C@_17HFOLPPLP@?$AAF?$AAr?$AAi?$AA?$AA@ 1007936c     libucrt:nlsdata.obj
 0002:00009378       ??_C@_17GGIBDPIH@?$AAS?$AAa?$AAt?$AA?$AA@ 10079378     libucrt:nlsdata.obj
 0002:00009384       ??_C@_1O@IHNHDHPB@?$AAS?$AAu?$AAn?$AAd?$AAa?$AAy?$AA?$AA@ 10079384     libucrt:nlsdata.obj
 0002:00009394       ??_C@_1O@MMNBFLIA@?$AAM?$AAo?$AAn?$AAd?$AAa?$AAy?$AA?$AA@ 10079394     libucrt:nlsdata.obj
 0002:000093a4       ??_C@_1BA@ENFBFFEK@?$AAT?$AAu?$AAe?$AAs?$AAd?$AAa?$AAy?$AA?$AA@ 100793a4     libucrt:nlsdata.obj
 0002:000093b8       ??_C@_1BE@EBOGMDOH@?$AAW?$AAe?$AAd?$AAn?$AAe?$AAs?$AAd?$AAa?$AAy?$AA?$AA@ 100793b8     libucrt:nlsdata.obj
 0002:000093d0       ??_C@_1BC@HHMNLIHE@?$AAT?$AAh?$AAu?$AAr?$AAs?$AAd?$AAa?$AAy?$AA?$AA@ 100793d0     libucrt:nlsdata.obj
 0002:000093e8       ??_C@_1O@PDICJHAG@?$AAF?$AAr?$AAi?$AAd?$AAa?$AAy?$AA?$AA@ 100793e8     libucrt:nlsdata.obj
 0002:000093f8       ??_C@_1BC@ENMNNPAJ@?$AAS?$AAa?$AAt?$AAu?$AAr?$AAd?$AAa?$AAy?$AA?$AA@ 100793f8     libucrt:nlsdata.obj
 0002:00009410       ??_C@_17DKNBKCHM@?$AAJ?$AAa?$AAn?$AA?$AA@ 10079410     libucrt:nlsdata.obj
 0002:0000941c       ??_C@_17LMDJEKJN@?$AAF?$AAe?$AAb?$AA?$AA@ 1007941c     libucrt:nlsdata.obj
 0002:00009428       ??_C@_17CKNLEDEC@?$AAM?$AAa?$AAr?$AA?$AA@ 10079428     libucrt:nlsdata.obj
 0002:00009434       ??_C@_17LFPOIHDD@?$AAA?$AAp?$AAr?$AA?$AA@ 10079434     libucrt:nlsdata.obj
 0002:00009440       ??_C@_17PNNKMEED@?$AAM?$AAa?$AAy?$AA?$AA@ 10079440     libucrt:nlsdata.obj
 0002:0000944c       ??_C@_17KCJGOCPB@?$AAJ?$AAu?$AAn?$AA?$AA@ 1007944c     libucrt:nlsdata.obj
 0002:00009458       ??_C@_17IJPCKHK@?$AAJ?$AAu?$AAl?$AA?$AA@ 10079458     libucrt:nlsdata.obj
 0002:00009464       ??_C@_17ICPELBCN@?$AAA?$AAu?$AAg?$AA?$AA@ 10079464     libucrt:nlsdata.obj
 0002:00009470       ??_C@_17HCHCOKMG@?$AAS?$AAe?$AAp?$AA?$AA@ 10079470     libucrt:nlsdata.obj
 0002:0000947c       ??_C@_17FNLKOI@?$AAO?$AAc?$AAt?$AA?$AA@ 1007947c     libucrt:nlsdata.obj
 0002:00009488       ??_C@_17BBDMLCIG@?$AAN?$AAo?$AAv?$AA?$AA@ 10079488     libucrt:nlsdata.obj
 0002:00009494       ??_C@_17EGKACKIF@?$AAD?$AAe?$AAc?$AA?$AA@ 10079494     libucrt:nlsdata.obj
 0002:000094a0       ??_C@_1BA@EFMEIEBA@?$AAJ?$AAa?$AAn?$AAu?$AAa?$AAr?$AAy?$AA?$AA@ 100794a0     libucrt:nlsdata.obj
 0002:000094b4       ??_C@_1BC@JGDDFFAM@?$AAF?$AAe?$AAb?$AAr?$AAu?$AAa?$AAr?$AAy?$AA?$AA@ 100794b4     libucrt:nlsdata.obj
 0002:000094cc       ??_C@_1M@IKEENEDF@?$AAM?$AAa?$AAr?$AAc?$AAh?$AA?$AA@ 100794cc     libucrt:nlsdata.obj
 0002:000094dc       ??_C@_1M@GJNLMHFD@?$AAA?$AAp?$AAr?$AAi?$AAl?$AA?$AA@ 100794dc     libucrt:nlsdata.obj
 0002:000094ec       ??_C@_19EPFLPGAP@?$AAJ?$AAu?$AAn?$AAe?$AA?$AA@ 100794ec     libucrt:nlsdata.obj
 0002:000094f8       ??_C@_19BIFMLPCD@?$AAJ?$AAu?$AAl?$AAy?$AA?$AA@ 100794f8     libucrt:nlsdata.obj
 0002:00009504       ??_C@_1O@PAHLKOAC@?$AAA?$AAu?$AAg?$AAu?$AAs?$AAt?$AA?$AA@ 10079504     libucrt:nlsdata.obj
 0002:00009514       ??_C@_1BE@DKAAMBJL@?$AAS?$AAe?$AAp?$AAt?$AAe?$AAm?$AAb?$AAe?$AAr?$AA?$AA@ 10079514     libucrt:nlsdata.obj
 0002:0000952c       ??_C@_1BA@EPANDLNG@?$AAO?$AAc?$AAt?$AAo?$AAb?$AAe?$AAr?$AA?$AA@ 1007952c     libucrt:nlsdata.obj
 0002:00009540       ??_C@_1BC@BGLIFPF@?$AAN?$AAo?$AAv?$AAe?$AAm?$AAb?$AAe?$AAr?$AA?$AA@ 10079540     libucrt:nlsdata.obj
 0002:00009558       ??_C@_1BC@FEMKIFH@?$AAD?$AAe?$AAc?$AAe?$AAm?$AAb?$AAe?$AAr?$AA?$AA@ 10079558     libucrt:nlsdata.obj
 0002:00009570       ??_C@_15ODEHAHHF@?$AAA?$AAM?$AA?$AA@ 10079570     libucrt:nlsdata.obj
 0002:00009578       ??_C@_15CLMNNGEL@?$AAP?$AAM?$AA?$AA@ 10079578     libucrt:nlsdata.obj
 0002:00009580       ??_C@_1BC@IEBCMHCM@?$AAM?$AAM?$AA?1?$AAd?$AAd?$AA?1?$AAy?$AAy?$AA?$AA@ 10079580     libucrt:nlsdata.obj
 0002:00009598       ??_C@_1CI@KNAKOEBC@?$AAd?$AAd?$AAd?$AAd?$AA?0?$AA?5?$AAM?$AAM?$AAM?$AAM?$AA?5?$AAd?$AAd?$AA?0?$AA?5?$AAy?$AAy?$AAy?$AAy?$AA?$AA@ 10079598     libucrt:nlsdata.obj
 0002:000095c8       ??_C@_1BC@GDGBMEMK@?$AAH?$AAH?$AA?3?$AAm?$AAm?$AA?3?$AAs?$AAs?$AA?$AA@ 100795c8     libucrt:nlsdata.obj
 0002:000095e0       ??_C@_1M@BMHNFIME@?$AAe?$AAn?$AA?9?$AAU?$AAS?$AA?$AA@ 100795e0     libucrt:nlsdata.obj
 0002:000095f0       ??_C@_03OEIAHPBN@INF?$AA@  100795f0     libucrt:cvt.obj
 0002:000095f4       ??_C@_03OJHLLCGB@inf?$AA@  100795f4     libucrt:cvt.obj
 0002:000095f8       ??_C@_03LKNCIKJB@NAN?$AA@  100795f8     libucrt:cvt.obj
 0002:000095fc       ??_C@_03LHCJEHON@nan?$AA@  100795fc     libucrt:cvt.obj
 0002:00009600       ??_C@_09OFJJIMPC@NAN?$CISNAN?$CJ?$AA@ 10079600     libucrt:cvt.obj
 0002:0000960c       ??_C@_09IPFBKMDL@nan?$CIsnan?$CJ?$AA@ 1007960c     libucrt:cvt.obj
 0002:00009618       ??_C@_08IKHNHAJ@NAN?$CIIND?$CJ?$AA@ 10079618     libucrt:cvt.obj
 0002:00009624       ??_C@_08OFCDMILK@nan?$CIind?$CJ?$AA@ 10079624     libucrt:cvt.obj
 0002:00009630       ??_C@_05KLBDPFGC@e?$CL000?$AA@ 10079630     libucrt:cvt.obj
 0002:00009638       __d_inf                    10079638     libucrt:util.obj
 0002:00009648       __d_ind                    10079648     libucrt:util.obj
 0002:00009658       __d_max                    10079658     libucrt:util.obj
 0002:00009668       __d_min                    10079668     libucrt:util.obj
 0002:00009678       __d_mzero                  10079678     libucrt:util.obj
 0002:000096b8       ??_C@_1M@HPNHIDJI@?$AAj?$AAa?$AA?9?$AAJ?$AAP?$AA?$AA@ 100796b8     libucrt:mbctype.obj
 0002:000096c8       ??_C@_1M@BIBDDEMK@?$AAz?$AAh?$AA?9?$AAC?$AAN?$AA?$AA@ 100796c8     libucrt:mbctype.obj
 0002:000096d8       ??_C@_1M@JLOOOEGK@?$AAk?$AAo?$AA?9?$AAK?$AAR?$AA?$AA@ 100796d8     libucrt:mbctype.obj
 0002:000096e8       ??_C@_1M@CLNBBOPM@?$AAz?$AAh?$AA?9?$AAT?$AAW?$AA?$AA@ 100796e8     libucrt:mbctype.obj
 0002:000096f8       ___newctype                100796f8     libucrt:ctype.obj
 0002:00009a98       ___newclmap                10079a98     libucrt:ctype.obj
 0002:00009c68       ___newcumap                10079c68     libucrt:ctype.obj
 0002:00009e38       __wctype                   10079e38     libucrt:ctype.obj
 0002:0000a934       ??_C@_15EMKDOKLE@?$AAa?$AAr?$AA?$AA@ 1007a934     libucrt:lcidtoname_downlevel.obj
 0002:0000a93c       ??_C@_15KNPADPLH@?$AAb?$AAg?$AA?$AA@ 1007a93c     libucrt:lcidtoname_downlevel.obj
 0002:0000a944       ??_C@_15EDMHLDMO@?$AAc?$AAa?$AA?$AA@ 1007a944     libucrt:lcidtoname_downlevel.obj
 0002:0000a94c       ??_C@_1O@BPEAJADD@?$AAz?$AAh?$AA?9?$AAC?$AAH?$AAS?$AA?$AA@ 1007a94c     libucrt:lcidtoname_downlevel.obj
 0002:0000a95c       ??_C@_15LJNHCMNK@?$AAc?$AAs?$AA?$AA@ 1007a95c     libucrt:lcidtoname_downlevel.obj
 0002:0000a964       ??_C@_15FOMCIDHG@?$AAd?$AAa?$AA?$AA@ 1007a964     libucrt:lcidtoname_downlevel.obj
 0002:0000a96c       ??_C@_15NBKABECB@?$AAd?$AAe?$AA?$AA@ 1007a96c     libucrt:lcidtoname_downlevel.obj
 0002:0000a974       ??_C@_15GHPEIIAO@?$AAe?$AAl?$AA?$AA@ 1007a974     libucrt:lcidtoname_downlevel.obj
 0002:0000a97c       ??_C@_15MNPNEAIF@?$AAe?$AAn?$AA?$AA@ 1007a97c     libucrt:lcidtoname_downlevel.obj
 0002:0000a984       ??_C@_15GPIOMPMH@?$AAe?$AAs?$AA?$AA@ 1007a984     libucrt:lcidtoname_downlevel.obj
 0002:0000a98c       ??_C@_15NGLOAKJC@?$AAf?$AAi?$AA?$AA@ 1007a98c     libucrt:lcidtoname_downlevel.obj
 0002:0000a994       ??_C@_15FBKGNKAM@?$AAf?$AAr?$AA?$AA@ 1007a994     libucrt:lcidtoname_downlevel.obj
 0002:0000a99c       ??_C@_15KGGCNEFK@?$AAh?$AAe?$AA?$AA@ 1007a99c     libucrt:lcidtoname_downlevel.obj
 0002:0000a9a4       ??_C@_15PGHLIDMF@?$AAh?$AAu?$AA?$AA@ 1007a9a4     libucrt:lcidtoname_downlevel.obj
 0002:0000a9ac       ??_C@_15BIEMAPLM@?$AAi?$AAs?$AA?$AA@ 1007a9ac     libucrt:lcidtoname_downlevel.obj
 0002:0000a9b4       ??_C@_15IFJLDHAF@?$AAi?$AAt?$AA?$AA@ 1007a9b4     libucrt:lcidtoname_downlevel.obj
 0002:0000a9bc       ??_C@_15GEMIOCAG@?$AAj?$AAa?$AA?$AA@ 1007a9bc     libucrt:lcidtoname_downlevel.obj
 0002:0000a9c4       ??_C@_15EPELEGJA@?$AAk?$AAo?$AA?$AA@ 1007a9c4     libucrt:lcidtoname_downlevel.obj
 0002:0000a9cc       ??_C@_15NDDHIMN@?$AAn?$AAl?$AA?$AA@ 1007a9cc     libucrt:lcidtoname_downlevel.obj
 0002:0000a9d4       ??_C@_15BPIGNHCD@?$AAn?$AAo?$AA?$AA@ 1007a9d4     libucrt:lcidtoname_downlevel.obj
 0002:0000a9dc       ??_C@_15DEOPBLCG@?$AAp?$AAl?$AA?$AA@ 1007a9dc     libucrt:lcidtoname_downlevel.obj
 0002:0000a9e4       ??_C@_15KBECGEFG@?$AAp?$AAt?$AA?$AA@ 1007a9e4     libucrt:lcidtoname_downlevel.obj
 0002:0000a9ec       ??_C@_15GLJCBFMD@?$AAr?$AAo?$AA?$AA@ 1007a9ec     libucrt:lcidtoname_downlevel.obj
 0002:0000a9f4       ??_C@_15FEDGKCDI@?$AAr?$AAu?$AA?$AA@ 1007a9f4     libucrt:lcidtoname_downlevel.obj
 0002:0000a9fc       ??_C@_15GLKMLLHM@?$AAh?$AAr?$AA?$AA@ 1007a9fc     libucrt:lcidtoname_downlevel.obj
 0002:0000aa04       ??_C@_15CPKMFBDB@?$AAs?$AAk?$AA?$AA@ 1007aa04     libucrt:lcidtoname_downlevel.obj
 0002:0000aa0c       ??_C@_15BAAIOGMK@?$AAs?$AAq?$AA?$AA@ 1007aa0c     libucrt:lcidtoname_downlevel.obj
 0002:0000aa14       ??_C@_15INNPNOHD@?$AAs?$AAv?$AA?$AA@ 1007aa14     libucrt:lcidtoname_downlevel.obj
 0002:0000aa1c       ??_C@_15CABMMOGH@?$AAt?$AAh?$AA?$AA@ 1007aa1c     libucrt:lcidtoname_downlevel.obj
 0002:0000aa24       ??_C@_15BPLIHJJM@?$AAt?$AAr?$AA?$AA@ 1007aa24     libucrt:lcidtoname_downlevel.obj
 0002:0000aa2c       ??_C@_15NEOEKKDJ@?$AAu?$AAr?$AA?$AA@ 1007aa2c     libucrt:lcidtoname_downlevel.obj
 0002:0000aa34       ??_C@_15NFICGAJK@?$AAi?$AAd?$AA?$AA@ 1007aa34     libucrt:lcidtoname_downlevel.obj
 0002:0000aa3c       ??_C@_15PJPFLCCM@?$AAu?$AAk?$AA?$AA@ 1007aa3c     libucrt:lcidtoname_downlevel.obj
 0002:0000aa44       ??_C@_15HPJPHDM@?$AAb?$AAe?$AA?$AA@ 1007aa44     libucrt:lcidtoname_downlevel.obj
 0002:0000aa4c       ??_C@_15LCHLGJII@?$AAs?$AAl?$AA?$AA@ 1007aa4c     libucrt:lcidtoname_downlevel.obj
 0002:0000aa54       ??_C@_15PCFJPHHO@?$AAe?$AAt?$AA?$AA@ 1007aa54     libucrt:lcidtoname_downlevel.obj
 0002:0000aa5c       ??_C@_15HPFPGODN@?$AAl?$AAv?$AA?$AA@ 1007aa5c     libucrt:lcidtoname_downlevel.obj
 0002:0000aa64       ??_C@_15NFFGKGLG@?$AAl?$AAt?$AA?$AA@ 1007aa64     libucrt:lcidtoname_downlevel.obj
 0002:0000aa6c       ??_C@_15BDAKCCHN@?$AAf?$AAa?$AA?$AA@ 1007aa6c     libucrt:lcidtoname_downlevel.obj
 0002:0000aa74       ??_C@_15NFGIAIAJ@?$AAv?$AAi?$AA?$AA@ 1007aa74     libucrt:lcidtoname_downlevel.obj
 0002:0000aa7c       ??_C@_15LMKNDMHN@?$AAh?$AAy?$AA?$AA@ 1007aa7c     libucrt:lcidtoname_downlevel.obj
 0002:0000aa84       ??_C@_15IJBHMCFL@?$AAa?$AAz?$AA?$AA@ 1007aa84     libucrt:lcidtoname_downlevel.obj
 0002:0000aa8c       ??_C@_15EKOFJABL@?$AAe?$AAu?$AA?$AA@ 1007aa8c     libucrt:lcidtoname_downlevel.obj
 0002:0000aa94       ??_C@_15BGHADCNK@?$AAm?$AAk?$AA?$AA@ 1007aa94     libucrt:lcidtoname_downlevel.obj
 0002:0000aa9c       ??_C@_15JDNICKHM@?$AAa?$AAf?$AA?$AA@ 1007aa9c     libucrt:lcidtoname_downlevel.obj
 0002:0000aaa4       ??_C@_15KPJEDBKD@?$AAk?$AAa?$AA?$AA@ 1007aaa4     libucrt:lcidtoname_downlevel.obj
 0002:0000aaac       ??_C@_15PDNFFFEO@?$AAf?$AAo?$AA?$AA@ 1007aaac     libucrt:lcidtoname_downlevel.obj
 0002:0000aab4       ??_C@_15OMLEGLOC@?$AAh?$AAi?$AA?$AA@ 1007aab4     libucrt:lcidtoname_downlevel.obj
 0002:0000aabc       ??_C@_15IDNNENKK@?$AAm?$AAs?$AA?$AA@ 1007aabc     libucrt:lcidtoname_downlevel.obj
 0002:0000aac4       ??_C@_15MACJNBMH@?$AAk?$AAk?$AA?$AA@ 1007aac4     libucrt:lcidtoname_downlevel.obj
 0002:0000aacc       ??_C@_15DKDJEOND@?$AAk?$AAy?$AA?$AA@ 1007aacc     libucrt:lcidtoname_downlevel.obj
 0002:0000aad4       ??_C@_15DFGDLJBG@?$AAs?$AAw?$AA?$AA@ 1007aad4     libucrt:lcidtoname_downlevel.obj
 0002:0000aadc       ??_C@_15BBFAICNG@?$AAu?$AAz?$AA?$AA@ 1007aadc     libucrt:lcidtoname_downlevel.obj
 0002:0000aae4       ??_C@_15DKNDCGEA@?$AAt?$AAt?$AA?$AA@ 1007aae4     libucrt:lcidtoname_downlevel.obj
 0002:0000aaec       ??_C@_15MGIFMDPL@?$AAp?$AAa?$AA?$AA@ 1007aaec     libucrt:lcidtoname_downlevel.obj
 0002:0000aaf4       ??_C@_15HCNDBBA@?$AAg?$AAu?$AA?$AA@ 1007aaf4     libucrt:lcidtoname_downlevel.obj
 0002:0000aafc       ??_C@_15FNBEIBON@?$AAt?$AAa?$AA?$AA@ 1007aafc     libucrt:lcidtoname_downlevel.obj
 0002:0000ab04       ??_C@_15NCHGBGLK@?$AAt?$AAe?$AA?$AA@ 1007ab04     libucrt:lcidtoname_downlevel.obj
 0002:0000ab0c       ??_C@_15PHPHCBPF@?$AAk?$AAn?$AA?$AA@ 1007ab0c     libucrt:lcidtoname_downlevel.obj
 0002:0000ab14       ??_C@_15DLGBCKMP@?$AAm?$AAr?$AA?$AA@ 1007ab14     libucrt:lcidtoname_downlevel.obj
 0002:0000ab1c       ??_C@_15EABBLBFF@?$AAs?$AAa?$AA?$AA@ 1007ab1c     libucrt:lcidtoname_downlevel.obj
 0002:0000ab24       ??_C@_15CBKOMCOI@?$AAm?$AAn?$AA?$AA@ 1007ab24     libucrt:lcidtoname_downlevel.obj
 0002:0000ab2c       ??_C@_15CKDMCJAF@?$AAg?$AAl?$AA?$AA@ 1007ab2c     libucrt:lcidtoname_downlevel.obj
 0002:0000ab34       ??_C@_17CNJFBPG@?$AAk?$AAo?$AAk?$AA?$AA@ 1007ab34     libucrt:lcidtoname_downlevel.obj
 0002:0000ab40       ??_C@_17FFBJICPL@?$AAs?$AAy?$AAr?$AA?$AA@ 1007ab40     libucrt:lcidtoname_downlevel.obj
 0002:0000ab4c       ??_C@_17KPNDCPAF@?$AAd?$AAi?$AAv?$AA?$AA@ 1007ab4c     libucrt:lcidtoname_downlevel.obj
 0002:0000ab58       ??_C@_11LOCGONAA@?$AA?$AA@ 1007ab58     libucrt:lcidtoname_downlevel.obj
 0002:0000ab5c       ??_C@_1M@OKAHONE@?$AAa?$AAr?$AA?9?$AAS?$AAA?$AA?$AA@ 1007ab5c     libucrt:lcidtoname_downlevel.obj
 0002:0000ab6c       ??_C@_1M@FFFIGIGK@?$AAb?$AAg?$AA?9?$AAB?$AAG?$AA?$AA@ 1007ab6c     libucrt:lcidtoname_downlevel.obj
 0002:0000ab7c       ??_C@_1M@BJNKEDC@?$AAc?$AAa?$AA?9?$AAE?$AAS?$AA?$AA@ 1007ab7c     libucrt:lcidtoname_downlevel.obj
 0002:0000ab8c       ??_C@_1M@IJJHFJHA@?$AAc?$AAs?$AA?9?$AAC?$AAZ?$AA?$AA@ 1007ab8c     libucrt:lcidtoname_downlevel.obj
 0002:0000ab9c       ??_C@_1M@CLPEOBGI@?$AAd?$AAa?$AA?9?$AAD?$AAK?$AA?$AA@ 1007ab9c     libucrt:lcidtoname_downlevel.obj
 0002:0000abac       ??_C@_1M@MCMADGCB@?$AAd?$AAe?$AA?9?$AAD?$AAE?$AA?$AA@ 1007abac     libucrt:lcidtoname_downlevel.obj
 0002:0000abbc       ??_C@_1M@OOCKEMAM@?$AAe?$AAl?$AA?9?$AAG?$AAR?$AA?$AA@ 1007abbc     libucrt:lcidtoname_downlevel.obj
 0002:0000abcc       ??_C@_1M@DDNJFGID@?$AAf?$AAi?$AA?9?$AAF?$AAI?$AA?$AA@ 1007abcc     libucrt:lcidtoname_downlevel.obj
 0002:0000abdc       ??_C@_1M@GLIPPMAC@?$AAf?$AAr?$AA?9?$AAF?$AAR?$AA?$AA@ 1007abdc     libucrt:lcidtoname_downlevel.obj
 0002:0000abec       ??_C@_1M@GFMCHPE@?$AAh?$AAe?$AA?9?$AAI?$AAL?$AA?$AA@ 1007abec     libucrt:lcidtoname_downlevel.obj
 0002:0000abfc       ??_C@_1M@MHLPGNKM@?$AAh?$AAu?$AA?9?$AAH?$AAU?$AA?$AA@ 1007abfc     libucrt:lcidtoname_downlevel.obj
 0002:0000ac0c       ??_C@_1M@LPDDNNPN@?$AAi?$AAs?$AA?9?$AAI?$AAS?$AA?$AA@ 1007ac0c     libucrt:lcidtoname_downlevel.obj
 0002:0000ac1c       ??_C@_1M@MADIPODN@?$AAi?$AAt?$AA?9?$AAI?$AAT?$AA?$AA@ 1007ac1c     libucrt:lcidtoname_downlevel.obj
 0002:0000ac2c       ??_C@_1M@IHBJJGG@?$AAn?$AAl?$AA?9?$AAN?$AAL?$AA?$AA@ 1007ac2c     libucrt:lcidtoname_downlevel.obj
 0002:0000ac3c       ??_C@_1M@EANAGDL@?$AAn?$AAb?$AA?9?$AAN?$AAO?$AA?$AA@ 1007ac3c     libucrt:lcidtoname_downlevel.obj
 0002:0000ac4c       ??_C@_1M@NEIEMEGP@?$AAp?$AAl?$AA?9?$AAP?$AAL?$AA?$AA@ 1007ac4c     libucrt:lcidtoname_downlevel.obj
 0002:0000ac5c       ??_C@_1M@BOCFIGEP@?$AAp?$AAt?$AA?9?$AAB?$AAR?$AA?$AA@ 1007ac5c     libucrt:lcidtoname_downlevel.obj
 0002:0000ac6c       ??_C@_1M@IMPFOPBG@?$AAr?$AAo?$AA?9?$AAR?$AAO?$AA?$AA@ 1007ac6c     libucrt:lcidtoname_downlevel.obj
 0002:0000ac7c       ??_C@_1M@IDNNEJMM@?$AAr?$AAu?$AA?9?$AAR?$AAU?$AA?$AA@ 1007ac7c     libucrt:lcidtoname_downlevel.obj
 0002:0000ac8c       ??_C@_1M@LILEEOGM@?$AAh?$AAr?$AA?9?$AAH?$AAR?$AA?$AA@ 1007ac8c     libucrt:lcidtoname_downlevel.obj
 0002:0000ac9c       ??_C@_1M@FKIFEHPB@?$AAs?$AAk?$AA?9?$AAS?$AAK?$AA?$AA@ 1007ac9c     libucrt:lcidtoname_downlevel.obj
 0002:0000acac       ??_C@_1M@LJMAMNPJ@?$AAs?$AAq?$AA?9?$AAA?$AAL?$AA?$AA@ 1007acac     libucrt:lcidtoname_downlevel.obj
 0002:0000acbc       ??_C@_1M@GIAKDKJK@?$AAs?$AAv?$AA?9?$AAS?$AAE?$AA?$AA@ 1007acbc     libucrt:lcidtoname_downlevel.obj
 0002:0000accc       ??_C@_1M@MKJKIKCL@?$AAt?$AAh?$AA?9?$AAT?$AAH?$AA?$AA@ 1007accc     libucrt:lcidtoname_downlevel.obj
 0002:0000acdc       ??_C@_1M@MFLCCMPB@?$AAt?$AAr?$AA?9?$AAT?$AAR?$AA?$AA@ 1007acdc     libucrt:lcidtoname_downlevel.obj
 0002:0000acec       ??_C@_1M@OIJHDKJN@?$AAu?$AAr?$AA?9?$AAP?$AAK?$AA?$AA@ 1007acec     libucrt:lcidtoname_downlevel.obj
 0002:0000acfc       ??_C@_1M@LHIPCIEK@?$AAi?$AAd?$AA?9?$AAI?$AAD?$AA?$AA@ 1007acfc     libucrt:lcidtoname_downlevel.obj
 0002:0000ad0c       ??_C@_1M@MFMOBGI@?$AAu?$AAk?$AA?9?$AAU?$AAA?$AA?$AA@ 1007ad0c     libucrt:lcidtoname_downlevel.obj
 0002:0000ad1c       ??_C@_1M@OBGLJIPL@?$AAb?$AAe?$AA?9?$AAB?$AAY?$AA?$AA@ 1007ad1c     libucrt:lcidtoname_downlevel.obj
 0002:0000ad2c       ??_C@_1M@BCFAJEAD@?$AAs?$AAl?$AA?9?$AAS?$AAI?$AA?$AA@ 1007ad2c     libucrt:lcidtoname_downlevel.obj
 0002:0000ad3c       ??_C@_1M@FKFFEDDN@?$AAe?$AAt?$AA?9?$AAE?$AAE?$AA?$AA@ 1007ad3c     libucrt:lcidtoname_downlevel.obj
 0002:0000ad4c       ??_C@_1M@KGKKAACI@?$AAl?$AAv?$AA?9?$AAL?$AAV?$AA?$AA@ 1007ad4c     libucrt:lcidtoname_downlevel.obj
 0002:0000ad5c       ??_C@_1M@IFGBIJO@?$AAl?$AAt?$AA?9?$AAL?$AAT?$AA?$AA@ 1007ad5c     libucrt:lcidtoname_downlevel.obj
 0002:0000ad6c       ??_C@_1M@FGEAHEDM@?$AAf?$AAa?$AA?9?$AAI?$AAR?$AA?$AA@ 1007ad6c     libucrt:lcidtoname_downlevel.obj
 0002:0000ad7c       ??_C@_1M@KBMAIBFN@?$AAv?$AAi?$AA?9?$AAV?$AAN?$AA?$AA@ 1007ad7c     libucrt:lcidtoname_downlevel.obj
 0002:0000ad8c       ??_C@_1M@GPCBKDJK@?$AAh?$AAy?$AA?9?$AAA?$AAM?$AA?$AA@ 1007ad8c     libucrt:lcidtoname_downlevel.obj
 0002:0000ad9c       ??_C@_1BG@BECMDDJB@?$AAa?$AAz?$AA?9?$AAA?$AAZ?$AA?9?$AAL?$AAa?$AAt?$AAn?$AA?$AA@ 1007ad9c     libucrt:lcidtoname_downlevel.obj
 0002:0000adb8       ??_C@_1M@MAOFCAEA@?$AAe?$AAu?$AA?9?$AAE?$AAS?$AA?$AA@ 1007adb8     libucrt:lcidtoname_downlevel.obj
 0002:0000adc8       ??_C@_1M@IGHABKPI@?$AAm?$AAk?$AA?9?$AAM?$AAK?$AA?$AA@ 1007adc8     libucrt:lcidtoname_downlevel.obj
 0002:0000add8       ??_C@_1M@IAIGNEJG@?$AAt?$AAn?$AA?9?$AAZ?$AAA?$AA?$AA@ 1007add8     libucrt:lcidtoname_downlevel.obj
 0002:0000ade8       ??_C@_1M@IIJCOJFA@?$AAx?$AAh?$AA?9?$AAZ?$AAA?$AA?$AA@ 1007ade8     libucrt:lcidtoname_downlevel.obj
 0002:0000adf8       ??_C@_1M@LGPJHNJH@?$AAz?$AAu?$AA?9?$AAZ?$AAA?$AA?$AA@ 1007adf8     libucrt:lcidtoname_downlevel.obj
 0002:0000ae08       ??_C@_1M@HOKAOIO@?$AAa?$AAf?$AA?9?$AAZ?$AAA?$AA?$AA@ 1007ae08     libucrt:lcidtoname_downlevel.obj
 0002:0000ae18       ??_C@_1M@DPCLHLIE@?$AAk?$AAa?$AA?9?$AAG?$AAE?$AA?$AA@ 1007ae18     libucrt:lcidtoname_downlevel.obj
 0002:0000ae28       ??_C@_1M@BLKMHJBI@?$AAf?$AAo?$AA?9?$AAF?$AAO?$AA?$AA@ 1007ae28     libucrt:lcidtoname_downlevel.obj
 0002:0000ae38       ??_C@_1M@LGGJAPPB@?$AAh?$AAi?$AA?9?$AAI?$AAN?$AA?$AA@ 1007ae38     libucrt:lcidtoname_downlevel.obj
 0002:0000ae48       ??_C@_1M@FIKPIHFE@?$AAm?$AAt?$AA?9?$AAM?$AAT?$AA?$AA@ 1007ae48     libucrt:lcidtoname_downlevel.obj
 0002:0000ae58       ??_C@_1M@HEGGPBFA@?$AAs?$AAe?$AA?9?$AAN?$AAO?$AA?$AA@ 1007ae58     libucrt:lcidtoname_downlevel.obj
 0002:0000ae68       ??_C@_1M@EIBJEEPA@?$AAm?$AAs?$AA?9?$AAM?$AAY?$AA?$AA@ 1007ae68     libucrt:lcidtoname_downlevel.obj
 0002:0000ae78       ??_C@_1M@FHLBGMPP@?$AAk?$AAk?$AA?9?$AAK?$AAZ?$AA?$AA@ 1007ae78     libucrt:lcidtoname_downlevel.obj
 0002:0000ae88       ??_C@_1M@NGJJLCGI@?$AAk?$AAy?$AA?9?$AAK?$AAG?$AA?$AA@ 1007ae88     libucrt:lcidtoname_downlevel.obj
 0002:0000ae98       ??_C@_1M@GIENNBFC@?$AAs?$AAw?$AA?9?$AAK?$AAE?$AA?$AA@ 1007ae98     libucrt:lcidtoname_downlevel.obj
 0002:0000aea8       ??_C@_1BG@NDGMJIMJ@?$AAu?$AAz?$AA?9?$AAU?$AAZ?$AA?9?$AAL?$AAa?$AAt?$AAn?$AA?$AA@ 1007aea8     libucrt:lcidtoname_downlevel.obj
 0002:0000aec4       ??_C@_1M@IDCCIHBC@?$AAt?$AAt?$AA?9?$AAR?$AAU?$AA?$AA@ 1007aec4     libucrt:lcidtoname_downlevel.obj
 0002:0000aed4       ??_C@_1M@LOICPMOJ@?$AAb?$AAn?$AA?9?$AAI?$AAN?$AA?$AA@ 1007aed4     libucrt:lcidtoname_downlevel.obj
 0002:0000aee4       ??_C@_1M@KPKKNEAH@?$AAp?$AAa?$AA?9?$AAI?$AAN?$AA?$AA@ 1007aee4     libucrt:lcidtoname_downlevel.obj
 0002:0000aef4       ??_C@_1M@PJGPPBOG@?$AAg?$AAu?$AA?9?$AAI?$AAN?$AA?$AA@ 1007aef4     libucrt:lcidtoname_downlevel.obj
 0002:0000af04       ??_C@_1M@KMKMOPHI@?$AAt?$AAa?$AA?9?$AAI?$AAN?$AA?$AA@ 1007af04     libucrt:lcidtoname_downlevel.obj
 0002:0000af14       ??_C@_1M@KFEHEPAC@?$AAt?$AAe?$AA?9?$AAI?$AAN?$AA?$AA@ 1007af14     libucrt:lcidtoname_downlevel.obj
 0002:0000af24       ??_C@_1M@CDCLMGHI@?$AAk?$AAn?$AA?9?$AAI?$AAN?$AA?$AA@ 1007af24     libucrt:lcidtoname_downlevel.obj
 0002:0000af34       ??_C@_1M@MIODLDKF@?$AAm?$AAl?$AA?9?$AAI?$AAN?$AA?$AA@ 1007af34     libucrt:lcidtoname_downlevel.obj
 0002:0000af44       ??_C@_1M@PBIEACPO@?$AAm?$AAr?$AA?9?$AAI?$AAN?$AA?$AA@ 1007af44     libucrt:lcidtoname_downlevel.obj
 0002:0000af54       ??_C@_1M@NIDEAGPH@?$AAs?$AAa?$AA?9?$AAI?$AAN?$AA?$AA@ 1007af54     libucrt:lcidtoname_downlevel.obj
 0002:0000af64       ??_C@_1M@FHIHCBIO@?$AAm?$AAn?$AA?9?$AAM?$AAN?$AA?$AA@ 1007af64     libucrt:lcidtoname_downlevel.obj
 0002:0000af74       ??_C@_1M@JAIJPENP@?$AAc?$AAy?$AA?9?$AAG?$AAB?$AA?$AA@ 1007af74     libucrt:lcidtoname_downlevel.obj
 0002:0000af84       ??_C@_1M@PHGFBEPN@?$AAg?$AAl?$AA?9?$AAE?$AAS?$AA?$AA@ 1007af84     libucrt:lcidtoname_downlevel.obj
 0002:0000af94       ??_C@_1O@KPIPDNCP@?$AAk?$AAo?$AAk?$AA?9?$AAI?$AAN?$AA?$AA@ 1007af94     libucrt:lcidtoname_downlevel.obj
 0002:0000afa4       ??_C@_1O@KNHJLDJA@?$AAs?$AAy?$AAr?$AA?9?$AAS?$AAY?$AA?$AA@ 1007afa4     libucrt:lcidtoname_downlevel.obj
 0002:0000afb4       ??_C@_1O@MKEKBLAH@?$AAd?$AAi?$AAv?$AA?9?$AAM?$AAV?$AA?$AA@ 1007afb4     libucrt:lcidtoname_downlevel.obj
 0002:0000afc4       ??_C@_1O@OHDCKDDF@?$AAq?$AAu?$AAz?$AA?9?$AAB?$AAO?$AA?$AA@ 1007afc4     libucrt:lcidtoname_downlevel.obj
 0002:0000afd4       ??_C@_1M@LEPJNLFD@?$AAn?$AAs?$AA?9?$AAZ?$AAA?$AA?$AA@ 1007afd4     libucrt:lcidtoname_downlevel.obj
 0002:0000afe4       ??_C@_1M@OMLEIIJB@?$AAm?$AAi?$AA?9?$AAN?$AAZ?$AA?$AA@ 1007afe4     libucrt:lcidtoname_downlevel.obj
 0002:0000aff4       ??_C@_1M@PMPEAILG@?$AAa?$AAr?$AA?9?$AAI?$AAQ?$AA?$AA@ 1007aff4     libucrt:lcidtoname_downlevel.obj
 0002:0000b004       ??_C@_1M@CNKPNOEE@?$AAd?$AAe?$AA?9?$AAC?$AAH?$AA?$AA@ 1007b004     libucrt:lcidtoname_downlevel.obj
 0002:0000b014       ??_C@_1M@LKMGMLKO@?$AAe?$AAn?$AA?9?$AAG?$AAB?$AA?$AA@ 1007b014     libucrt:lcidtoname_downlevel.obj
 0002:0000b024       ??_C@_1M@PGKJFFGL@?$AAe?$AAs?$AA?9?$AAM?$AAX?$AA?$AA@ 1007b024     libucrt:lcidtoname_downlevel.obj
 0002:0000b034       ??_C@_1M@DNNANBDC@?$AAf?$AAr?$AA?9?$AAB?$AAE?$AA?$AA@ 1007b034     libucrt:lcidtoname_downlevel.obj
 0002:0000b044       ??_C@_1M@HLGMDFHM@?$AAi?$AAt?$AA?9?$AAC?$AAH?$AA?$AA@ 1007b044     libucrt:lcidtoname_downlevel.obj
 0002:0000b054       ??_C@_1M@CLLBGJH@?$AAn?$AAl?$AA?9?$AAB?$AAE?$AA?$AA@ 1007b054     libucrt:lcidtoname_downlevel.obj
 0002:0000b064       ??_C@_1M@BODBOGLF@?$AAn?$AAn?$AA?9?$AAN?$AAO?$AA?$AA@ 1007b064     libucrt:lcidtoname_downlevel.obj
 0002:0000b074       ??_C@_1M@HFFAHKAD@?$AAp?$AAt?$AA?9?$AAP?$AAT?$AA?$AA@ 1007b074     libucrt:lcidtoname_downlevel.obj
 0002:0000b084       ??_C@_1BG@LNOAKHIE@?$AAs?$AAr?$AA?9?$AAS?$AAP?$AA?9?$AAL?$AAa?$AAt?$AAn?$AA?$AA@ 1007b084     libucrt:lcidtoname_downlevel.obj
 0002:0000b0a0       ??_C@_1M@HBMHBGAK@?$AAs?$AAv?$AA?9?$AAF?$AAI?$AA?$AA@ 1007b0a0     libucrt:lcidtoname_downlevel.obj
 0002:0000b0b0       ??_C@_1BG@DGCJGJBE@?$AAa?$AAz?$AA?9?$AAA?$AAZ?$AA?9?$AAC?$AAy?$AAr?$AAl?$AA?$AA@ 1007b0b0     libucrt:lcidtoname_downlevel.obj
 0002:0000b0cc       ??_C@_1M@KEJDAAHB@?$AAs?$AAe?$AA?9?$AAS?$AAE?$AA?$AA@ 1007b0cc     libucrt:lcidtoname_downlevel.obj
 0002:0000b0dc       ??_C@_1M@HEIBJJAD@?$AAm?$AAs?$AA?9?$AAB?$AAN?$AA?$AA@ 1007b0dc     libucrt:lcidtoname_downlevel.obj
 0002:0000b0ec       ??_C@_1BG@PBGJMCEM@?$AAu?$AAz?$AA?9?$AAU?$AAZ?$AA?9?$AAC?$AAy?$AAr?$AAl?$AA?$AA@ 1007b0ec     libucrt:lcidtoname_downlevel.obj
 0002:0000b108       ??_C@_1O@LAOBCMDF@?$AAq?$AAu?$AAz?$AA?9?$AAE?$AAC?$AA?$AA@ 1007b108     libucrt:lcidtoname_downlevel.obj
 0002:0000b118       ??_C@_1M@POEEMAIO@?$AAa?$AAr?$AA?9?$AAE?$AAG?$AA?$AA@ 1007b118     libucrt:lcidtoname_downlevel.obj
 0002:0000b128       ??_C@_1M@EFAKDEDL@?$AAz?$AAh?$AA?9?$AAH?$AAK?$AA?$AA@ 1007b128     libucrt:lcidtoname_downlevel.obj
 0002:0000b138       ??_C@_1M@HKKIJHGI@?$AAd?$AAe?$AA?9?$AAA?$AAT?$AA?$AA@ 1007b138     libucrt:lcidtoname_downlevel.obj
 0002:0000b148       ??_C@_1M@KBFBEHJF@?$AAe?$AAn?$AA?9?$AAA?$AAU?$AA?$AA@ 1007b148     libucrt:lcidtoname_downlevel.obj
 0002:0000b158       ??_C@_1M@MNPLFAAH@?$AAe?$AAs?$AA?9?$AAE?$AAS?$AA?$AA@ 1007b158     libucrt:lcidtoname_downlevel.obj
 0002:0000b168       ??_C@_1M@HJOOJFMA@?$AAf?$AAr?$AA?9?$AAC?$AAA?$AA?$AA@ 1007b168     libucrt:lcidtoname_downlevel.obj
 0002:0000b178       ??_C@_1BG@JPOFPNAB@?$AAs?$AAr?$AA?9?$AAS?$AAP?$AA?9?$AAC?$AAy?$AAr?$AAl?$AA?$AA@ 1007b178     libucrt:lcidtoname_downlevel.obj
 0002:0000b194       ??_C@_1M@LNFOCMOB@?$AAs?$AAe?$AA?9?$AAF?$AAI?$AA?$AA@ 1007b194     libucrt:lcidtoname_downlevel.obj
 0002:0000b1a4       ??_C@_1O@MGJBOAMB@?$AAq?$AAu?$AAz?$AA?9?$AAP?$AAE?$AA?$AA@ 1007b1a4     libucrt:lcidtoname_downlevel.obj
 0002:0000b1b4       ??_C@_1M@GJINLBOK@?$AAa?$AAr?$AA?9?$AAL?$AAY?$AA?$AA@ 1007b1b4     libucrt:lcidtoname_downlevel.obj
 0002:0000b1c4       ??_C@_1M@GGMNHJNL@?$AAz?$AAh?$AA?9?$AAS?$AAG?$AA?$AA@ 1007b1c4     libucrt:lcidtoname_downlevel.obj
 0002:0000b1d4       ??_C@_1M@HOIKODND@?$AAd?$AAe?$AA?9?$AAL?$AAU?$AA?$AA@ 1007b1d4     libucrt:lcidtoname_downlevel.obj
 0002:0000b1e4       ??_C@_1M@DDOCCGFG@?$AAe?$AAn?$AA?9?$AAC?$AAA?$AA?$AA@ 1007b1e4     libucrt:lcidtoname_downlevel.obj
 0002:0000b1f4       ??_C@_1M@BNOEMJLF@?$AAe?$AAs?$AA?9?$AAG?$AAT?$AA?$AA@ 1007b1f4     libucrt:lcidtoname_downlevel.obj
 0002:0000b204       ??_C@_1M@EOGNKEK@?$AAf?$AAr?$AA?9?$AAC?$AAH?$AA?$AA@ 1007b204     libucrt:lcidtoname_downlevel.obj
 0002:0000b214       ??_C@_1M@FLIDJFHL@?$AAh?$AAr?$AA?9?$AAB?$AAA?$AA?$AA@ 1007b214     libucrt:lcidtoname_downlevel.obj
 0002:0000b224       ??_C@_1O@FMCELNAJ@?$AAs?$AAm?$AAj?$AA?9?$AAN?$AAO?$AA?$AA@ 1007b224     libucrt:lcidtoname_downlevel.obj
 0002:0000b234       ??_C@_1M@JHGLJMGJ@?$AAa?$AAr?$AA?9?$AAD?$AAZ?$AA?$AA@ 1007b234     libucrt:lcidtoname_downlevel.obj
 0002:0000b244       ??_C@_1M@JKKFDCNP@?$AAz?$AAh?$AA?9?$AAM?$AAO?$AA?$AA@ 1007b244     libucrt:lcidtoname_downlevel.obj
 0002:0000b254       ??_C@_1M@GEEFALPE@?$AAd?$AAe?$AA?9?$AAL?$AAI?$AA?$AA@ 1007b254     libucrt:lcidtoname_downlevel.obj
 0002:0000b264       ??_C@_1M@IGEOFBG@?$AAe?$AAn?$AA?9?$AAN?$AAZ?$AA?$AA@ 1007b264     libucrt:lcidtoname_downlevel.obj
 0002:0000b274       ??_C@_1M@KDBONEHP@?$AAe?$AAs?$AA?9?$AAC?$AAR?$AA?$AA@ 1007b274     libucrt:lcidtoname_downlevel.obj
 0002:0000b284       ??_C@_1M@FHMDOHNN@?$AAf?$AAr?$AA?9?$AAL?$AAU?$AA?$AA@ 1007b284     libucrt:lcidtoname_downlevel.obj
 0002:0000b294       ??_C@_1BG@NFKKMAFG@?$AAb?$AAs?$AA?9?$AAB?$AAA?$AA?9?$AAL?$AAa?$AAt?$AAn?$AA?$AA@ 1007b294     libucrt:lcidtoname_downlevel.obj
 0002:0000b2b0       ??_C@_1O@IMNBEMCI@?$AAs?$AAm?$AAj?$AA?9?$AAS?$AAE?$AA?$AA@ 1007b2b0     libucrt:lcidtoname_downlevel.obj
 0002:0000b2c0       ??_C@_1M@DHHMBNDP@?$AAa?$AAr?$AA?9?$AAM?$AAA?$AA?$AA@ 1007b2c0     libucrt:lcidtoname_downlevel.obj
 0002:0000b2d0       ??_C@_1M@BNBLJCGH@?$AAe?$AAn?$AA?9?$AAI?$AAE?$AA?$AA@ 1007b2d0     libucrt:lcidtoname_downlevel.obj
 0002:0000b2e0       ??_C@_1M@GEPAFMDL@?$AAe?$AAs?$AA?9?$AAP?$AAA?$AA?$AA@ 1007b2e0     libucrt:lcidtoname_downlevel.obj
 0002:0000b2f0       ??_C@_1M@OJONDMDL@?$AAf?$AAr?$AA?9?$AAM?$AAC?$AA?$AA@ 1007b2f0     libucrt:lcidtoname_downlevel.obj
 0002:0000b300       ??_C@_1BG@OBCNFJB@?$AAs?$AAr?$AA?9?$AAB?$AAA?$AA?9?$AAL?$AAa?$AAt?$AAn?$AA?$AA@ 1007b300     libucrt:lcidtoname_downlevel.obj
 0002:0000b31c       ??_C@_1O@KEMEEGPO@?$AAs?$AAm?$AAa?$AA?9?$AAN?$AAO?$AA?$AA@ 1007b31c     libucrt:lcidtoname_downlevel.obj
 0002:0000b32c       ??_C@_1M@ELMGFODK@?$AAa?$AAr?$AA?9?$AAT?$AAN?$AA?$AA@ 1007b32c     libucrt:lcidtoname_downlevel.obj
 0002:0000b33c       ??_C@_1M@BHDLHFAF@?$AAe?$AAn?$AA?9?$AAZ?$AAA?$AA?$AA@ 1007b33c     libucrt:lcidtoname_downlevel.obj
 0002:0000b34c       ??_C@_1M@BMGIGLIF@?$AAe?$AAs?$AA?9?$AAD?$AAO?$AA?$AA@ 1007b34c     libucrt:lcidtoname_downlevel.obj
 0002:0000b35c       ??_C@_1BG@CMBHIPBE@?$AAs?$AAr?$AA?9?$AAB?$AAA?$AA?9?$AAC?$AAy?$AAr?$AAl?$AA?$AA@ 1007b35c     libucrt:lcidtoname_downlevel.obj
 0002:0000b378       ??_C@_1O@HEDBLHNP@?$AAs?$AAm?$AAa?$AA?9?$AAS?$AAE?$AA?$AA@ 1007b378     libucrt:lcidtoname_downlevel.obj
 0002:0000b388       ??_C@_1M@DAGCADIM@?$AAa?$AAr?$AA?9?$AAO?$AAM?$AA?$AA@ 1007b388     libucrt:lcidtoname_downlevel.obj
 0002:0000b398       ??_C@_1M@FODLMICG@?$AAe?$AAn?$AA?9?$AAJ?$AAM?$AA?$AA@ 1007b398     libucrt:lcidtoname_downlevel.obj
 0002:0000b3a8       ??_C@_1M@DNMLCIHB@?$AAe?$AAs?$AA?9?$AAV?$AAE?$AA?$AA@ 1007b3a8     libucrt:lcidtoname_downlevel.obj
 0002:0000b3b8       ??_C@_1O@EOKHMKJK@?$AAs?$AAm?$AAs?$AA?9?$AAF?$AAI?$AA?$AA@ 1007b3b8     libucrt:lcidtoname_downlevel.obj
 0002:0000b3c8       ??_C@_1M@CAFJMKOF@?$AAa?$AAr?$AA?9?$AAY?$AAE?$AA?$AA@ 1007b3c8     libucrt:lcidtoname_downlevel.obj
 0002:0000b3d8       ??_C@_1M@CBFHIJLI@?$AAe?$AAn?$AA?9?$AAC?$AAB?$AA?$AA@ 1007b3d8     libucrt:lcidtoname_downlevel.obj
 0002:0000b3e8       ??_C@_1M@BGNFLDN@?$AAe?$AAs?$AA?9?$AAC?$AAO?$AA?$AA@ 1007b3e8     libucrt:lcidtoname_downlevel.obj
 0002:0000b3f8       ??_C@_1O@JMPHMAMC@?$AAs?$AAm?$AAn?$AA?9?$AAF?$AAI?$AA?$AA@ 1007b3f8     libucrt:lcidtoname_downlevel.obj
 0002:0000b408       ??_C@_1M@JLANABKE@?$AAa?$AAr?$AA?9?$AAS?$AAY?$AA?$AA@ 1007b408     libucrt:lcidtoname_downlevel.obj
 0002:0000b418       ??_C@_1M@HPKGCFGN@?$AAe?$AAn?$AA?9?$AAB?$AAZ?$AA?$AA@ 1007b418     libucrt:lcidtoname_downlevel.obj
 0002:0000b428       ??_C@_1M@OLJCMLGM@?$AAe?$AAs?$AA?9?$AAP?$AAE?$AA?$AA@ 1007b428     libucrt:lcidtoname_downlevel.obj
 0002:0000b438       ??_C@_1M@MKKGFKLE@?$AAa?$AAr?$AA?9?$AAJ?$AAO?$AA?$AA@ 1007b438     libucrt:lcidtoname_downlevel.obj
 0002:0000b448       ??_C@_1M@EKPGLDNI@?$AAe?$AAn?$AA?9?$AAT?$AAT?$AA?$AA@ 1007b448     libucrt:lcidtoname_downlevel.obj
 0002:0000b458       ??_C@_1M@OONGHFHE@?$AAe?$AAs?$AA?9?$AAA?$AAR?$AA?$AA@ 1007b458     libucrt:lcidtoname_downlevel.obj
 0002:0000b468       ??_C@_1M@OOJFGBHE@?$AAa?$AAr?$AA?9?$AAL?$AAB?$AA?$AA@ 1007b468     libucrt:lcidtoname_downlevel.obj
 0002:0000b478       ??_C@_1M@GCEJHNEG@?$AAe?$AAn?$AA?9?$AAZ?$AAW?$AA?$AA@ 1007b478     libucrt:lcidtoname_downlevel.obj
 0002:0000b488       ??_C@_1M@JNOCAHJI@?$AAe?$AAs?$AA?9?$AAE?$AAC?$AA?$AA@ 1007b488     libucrt:lcidtoname_downlevel.obj
 0002:0000b498       ??_C@_1M@JEFHPGGB@?$AAa?$AAr?$AA?9?$AAK?$AAW?$AA?$AA@ 1007b498     libucrt:lcidtoname_downlevel.obj
 0002:0000b4a8       ??_C@_1M@MLKIBJOJ@?$AAe?$AAn?$AA?9?$AAP?$AAH?$AA?$AA@ 1007b4a8     libucrt:lcidtoname_downlevel.obj
 0002:0000b4b8       ??_C@_1M@BDNIPEND@?$AAe?$AAs?$AA?9?$AAC?$AAL?$AA?$AA@ 1007b4b8     libucrt:lcidtoname_downlevel.obj
 0002:0000b4c8       ??_C@_1M@MPNMEKBD@?$AAa?$AAr?$AA?9?$AAA?$AAE?$AA?$AA@ 1007b4c8     libucrt:lcidtoname_downlevel.obj
 0002:0000b4d8       ??_C@_1M@KBJALCPI@?$AAe?$AAs?$AA?9?$AAU?$AAY?$AA?$AA@ 1007b4d8     libucrt:lcidtoname_downlevel.obj
 0002:0000b4e8       ??_C@_1M@LLCCOAGA@?$AAa?$AAr?$AA?9?$AAB?$AAH?$AA?$AA@ 1007b4e8     libucrt:lcidtoname_downlevel.obj
 0002:0000b4f8       ??_C@_1M@PBFNCDEL@?$AAe?$AAs?$AA?9?$AAP?$AAY?$AA?$AA@ 1007b4f8     libucrt:lcidtoname_downlevel.obj
 0002:0000b508       ??_C@_1M@EDGINPNP@?$AAa?$AAr?$AA?9?$AAQ?$AAA?$AA?$AA@ 1007b508     libucrt:lcidtoname_downlevel.obj
 0002:0000b518       ??_C@_1M@MKDBIIJI@?$AAe?$AAs?$AA?9?$AAB?$AAO?$AA?$AA@ 1007b518     libucrt:lcidtoname_downlevel.obj
 0002:0000b528       ??_C@_1M@CPKKEBLD@?$AAe?$AAs?$AA?9?$AAS?$AAV?$AA?$AA@ 1007b528     libucrt:lcidtoname_downlevel.obj
 0002:0000b538       ??_C@_1M@NDBGMMJL@?$AAe?$AAs?$AA?9?$AAH?$AAN?$AA?$AA@ 1007b538     libucrt:lcidtoname_downlevel.obj
 0002:0000b548       ??_C@_1M@JIJIBHDP@?$AAe?$AAs?$AA?9?$AAN?$AAI?$AA?$AA@ 1007b548     libucrt:lcidtoname_downlevel.obj
 0002:0000b558       ??_C@_1M@CGFMKEEK@?$AAe?$AAs?$AA?9?$AAP?$AAR?$AA?$AA@ 1007b558     libucrt:lcidtoname_downlevel.obj
 0002:0000b568       ??_C@_1O@ICJHKIIK@?$AAz?$AAh?$AA?9?$AAC?$AAH?$AAT?$AA?$AA@ 1007b568     libucrt:lcidtoname_downlevel.obj
 0002:0000b578       ??_C@_15CLNEJCE@?$AAs?$AAr?$AA?$AA@ 1007b578     libucrt:lcidtoname_downlevel.obj
 0002:0000be0c       ??_C@_1M@KAHEKEIG@?$AAa?$AAf?$AA?9?$AAz?$AAa?$AA?$AA@ 1007be0c     libucrt:lcidtoname_downlevel.obj
 0002:0000be1c       ??_C@_1M@GIECOABL@?$AAa?$AAr?$AA?9?$AAa?$AAe?$AA?$AA@ 1007be1c     libucrt:lcidtoname_downlevel.obj
 0002:0000be2c       ??_C@_1M@BMLMEKGI@?$AAa?$AAr?$AA?9?$AAb?$AAh?$AA?$AA@ 1007be2c     libucrt:lcidtoname_downlevel.obj
 0002:0000be3c       ??_C@_1M@DAPFDGGB@?$AAa?$AAr?$AA?9?$AAd?$AAz?$AA?$AA@ 1007be3c     libucrt:lcidtoname_downlevel.obj
 0002:0000be4c       ??_C@_1M@FJNKGKIG@?$AAa?$AAr?$AA?9?$AAe?$AAg?$AA?$AA@ 1007be4c     libucrt:lcidtoname_downlevel.obj
 0002:0000be5c       ??_C@_1M@FLGKKCLO@?$AAa?$AAr?$AA?9?$AAi?$AAq?$AA?$AA@ 1007be5c     libucrt:lcidtoname_downlevel.obj
 0002:0000be6c       ??_C@_1M@GNDIPALM@?$AAa?$AAr?$AA?9?$AAj?$AAo?$AA?$AA@ 1007be6c     libucrt:lcidtoname_downlevel.obj
 0002:0000be7c       ??_C@_1M@DDMJFMGJ@?$AAa?$AAr?$AA?9?$AAk?$AAw?$AA?$AA@ 1007be7c     libucrt:lcidtoname_downlevel.obj
 0002:0000be8c       ??_C@_1M@EJALMLHM@?$AAa?$AAr?$AA?9?$AAl?$AAb?$AA?$AA@ 1007be8c     libucrt:lcidtoname_downlevel.obj
 0002:0000be9c       ??_C@_1M@MOBDBLOC@?$AAa?$AAr?$AA?9?$AAl?$AAy?$AA?$AA@ 1007be9c     libucrt:lcidtoname_downlevel.obj
 0002:0000beac       ??_C@_1M@JAOCLHDH@?$AAa?$AAr?$AA?9?$AAm?$AAa?$AA?$AA@ 1007beac     libucrt:lcidtoname_downlevel.obj
 0002:0000bebc       ??_C@_1M@JHPMKJIE@?$AAa?$AAr?$AA?9?$AAo?$AAm?$AA?$AA@ 1007bebc     libucrt:lcidtoname_downlevel.obj
 0002:0000becc       ??_C@_1M@OEPGHFNH@?$AAa?$AAr?$AA?9?$AAq?$AAa?$AA?$AA@ 1007becc     libucrt:lcidtoname_downlevel.obj
 0002:0000bedc       ??_C@_1M@KJDONENM@?$AAa?$AAr?$AA?9?$AAs?$AAa?$AA?$AA@ 1007bedc     libucrt:lcidtoname_downlevel.obj
 0002:0000beec       ??_C@_1M@DMJDKLKM@?$AAa?$AAr?$AA?9?$AAs?$AAy?$AA?$AA@ 1007beec     libucrt:lcidtoname_downlevel.obj
 0002:0000befc       ??_C@_1M@OMFIPEDC@?$AAa?$AAr?$AA?9?$AAt?$AAn?$AA?$AA@ 1007befc     libucrt:lcidtoname_downlevel.obj
 0002:0000bf0c       ??_C@_1M@IHMHGAON@?$AAa?$AAr?$AA?9?$AAy?$AAe?$AA?$AA@ 1007bf0c     libucrt:lcidtoname_downlevel.obj
 0002:0000bf1c       ??_C@_1BG@KDCPGJGB@?$AAa?$AAz?$AA?9?$AAa?$AAz?$AA?9?$AAc?$AAy?$AAr?$AAl?$AA?$AA@ 1007bf1c     libucrt:lcidtoname_downlevel.obj
 0002:0000bf38       ??_C@_1BG@IBCKDDOE@?$AAa?$AAz?$AA?9?$AAa?$AAz?$AA?9?$AAl?$AAa?$AAt?$AAn?$AA?$AA@ 1007bf38     libucrt:lcidtoname_downlevel.obj
 0002:0000bf54       ??_C@_1M@EGPFDCPD@?$AAb?$AAe?$AA?9?$AAb?$AAy?$AA?$AA@ 1007bf54     libucrt:lcidtoname_downlevel.obj
 0002:0000bf64       ??_C@_1M@PCMGMCGC@?$AAb?$AAg?$AA?9?$AAb?$AAg?$AA?$AA@ 1007bf64     libucrt:lcidtoname_downlevel.obj
 0002:0000bf74       ??_C@_1M@BJBMFGOB@?$AAb?$AAn?$AA?9?$AAi?$AAn?$AA?$AA@ 1007bf74     libucrt:lcidtoname_downlevel.obj
 0002:0000bf84       ??_C@_1BG@EAKMMACD@?$AAb?$AAs?$AA?9?$AAb?$AAa?$AA?9?$AAl?$AAa?$AAt?$AAn?$AA?$AA@ 1007bf84     libucrt:lcidtoname_downlevel.obj
 0002:0000bfa0       ??_C@_1M@KGADAODK@?$AAc?$AAa?$AA?9?$AAe?$AAs?$AA?$AA@ 1007bfa0     libucrt:lcidtoname_downlevel.obj
 0002:0000bfb0       ??_C@_1M@COAJPDHI@?$AAc?$AAs?$AA?9?$AAc?$AAz?$AA?$AA@ 1007bfb0     libucrt:lcidtoname_downlevel.obj
 0002:0000bfc0       ??_C@_1M@DHBHFONH@?$AAc?$AAy?$AA?9?$AAg?$AAb?$AA?$AA@ 1007bfc0     libucrt:lcidtoname_downlevel.obj
 0002:0000bfd0       ??_C@_1M@IMGKELGA@?$AAd?$AAa?$AA?9?$AAd?$AAk?$AA?$AA@ 1007bfd0     libucrt:lcidtoname_downlevel.obj
 0002:0000bfe0       ??_C@_1M@NNDGDNGA@?$AAd?$AAe?$AA?9?$AAa?$AAt?$AA?$AA@ 1007bfe0     libucrt:lcidtoname_downlevel.obj
 0002:0000bff0       ??_C@_1M@IKDBHEEM@?$AAd?$AAe?$AA?9?$AAc?$AAh?$AA?$AA@ 1007bff0     libucrt:lcidtoname_downlevel.obj
 0002:0000c000       ??_C@_1M@GFFOJMCJ@?$AAd?$AAe?$AA?9?$AAd?$AAe?$AA?$AA@ 1007c000     libucrt:lcidtoname_downlevel.obj
 0002:0000c010       ??_C@_1M@MDNLKBPM@?$AAd?$AAe?$AA?9?$AAl?$AAi?$AA?$AA@ 1007c010     libucrt:lcidtoname_downlevel.obj
 0002:0000c020       ??_C@_1M@NJBEEJNL@?$AAd?$AAe?$AA?9?$AAl?$AAu?$AA?$AA@ 1007c020     libucrt:lcidtoname_downlevel.obj
 0002:0000c030       ??_C@_1O@GNNELBAP@?$AAd?$AAi?$AAv?$AA?9?$AAm?$AAv?$AA?$AA@ 1007c030     libucrt:lcidtoname_downlevel.obj
 0002:0000c040       ??_C@_1M@EJLEOGAE@?$AAe?$AAl?$AA?9?$AAg?$AAr?$AA?$AA@ 1007c040     libucrt:lcidtoname_downlevel.obj
 0002:0000c050       ??_C@_1M@GMPONJN@?$AAe?$AAn?$AA?9?$AAa?$AAu?$AA?$AA@ 1007c050     libucrt:lcidtoname_downlevel.obj
 0002:0000c060       ??_C@_1M@NIDIIPGF@?$AAe?$AAn?$AA?9?$AAb?$AAz?$AA?$AA@ 1007c060     libucrt:lcidtoname_downlevel.obj
 0002:0000c070       ??_C@_1M@JEHMIMFO@?$AAe?$AAn?$AA?9?$AAc?$AAa?$AA?$AA@ 1007c070     libucrt:lcidtoname_downlevel.obj
 0002:0000c080       ??_C@_1M@IGMJCDLA@?$AAe?$AAn?$AA?9?$AAc?$AAb?$AA?$AA@ 1007c080     libucrt:lcidtoname_downlevel.obj
 0002:0000c090       ??_C@_1M@BNFIGBKG@?$AAe?$AAn?$AA?9?$AAg?$AAb?$AA?$AA@ 1007c090     libucrt:lcidtoname_downlevel.obj
 0002:0000c0a0       ??_C@_1M@LKIFDIGP@?$AAe?$AAn?$AA?9?$AAi?$AAe?$AA?$AA@ 1007c0a0     libucrt:lcidtoname_downlevel.obj
 0002:0000c0b0       ??_C@_1M@PJKFGCCO@?$AAe?$AAn?$AA?9?$AAj?$AAm?$AA?$AA@ 1007c0b0     libucrt:lcidtoname_downlevel.obj
 0002:0000c0c0       ??_C@_1M@KPPKEPBO@?$AAe?$AAn?$AA?9?$AAn?$AAz?$AA?$AA@ 1007c0c0     libucrt:lcidtoname_downlevel.obj
 0002:0000c0d0       ??_C@_1M@GMDGLDOB@?$AAe?$AAn?$AA?9?$AAp?$AAh?$AA?$AA@ 1007c0d0     libucrt:lcidtoname_downlevel.obj
 0002:0000c0e0       ??_C@_1M@ONGIBJNA@?$AAe?$AAn?$AA?9?$AAt?$AAt?$AA?$AA@ 1007c0e0     libucrt:lcidtoname_downlevel.obj
 0002:0000c0f0       ??_C@_1M@LLODPCMM@?$AAe?$AAn?$AA?9?$AAu?$AAs?$AA?$AA@ 1007c0f0     libucrt:lcidtoname_downlevel.obj
 0002:0000c100       ??_C@_1M@LAKFNPAN@?$AAe?$AAn?$AA?9?$AAz?$AAa?$AA?$AA@ 1007c100     libucrt:lcidtoname_downlevel.obj
 0002:0000c110       ??_C@_1M@MFNHNHEO@?$AAe?$AAn?$AA?9?$AAz?$AAw?$AA?$AA@ 1007c110     libucrt:lcidtoname_downlevel.obj
 0002:0000c120       ??_C@_1M@EJEINPHM@?$AAe?$AAs?$AA?9?$AAa?$AAr?$AA?$AA@ 1007c120     libucrt:lcidtoname_downlevel.obj
 0002:0000c130       ??_C@_1M@GNKPCCJA@?$AAe?$AAs?$AA?9?$AAb?$AAo?$AA?$AA@ 1007c130     libucrt:lcidtoname_downlevel.obj
 0002:0000c140       ??_C@_1M@LEEGFONL@?$AAe?$AAs?$AA?9?$AAc?$AAl?$AA?$AA@ 1007c140     libucrt:lcidtoname_downlevel.obj
 0002:0000c150       ??_C@_1M@KGPDPBDF@?$AAe?$AAs?$AA?9?$AAc?$AAo?$AA?$AA@ 1007c150     libucrt:lcidtoname_downlevel.obj
 0002:0000c160       ??_C@_1M@EIAHOHH@?$AAe?$AAs?$AA?9?$AAc?$AAr?$AA?$AA@ 1007c160     libucrt:lcidtoname_downlevel.obj
 0002:0000c170       ??_C@_1M@LLPGMBIN@?$AAe?$AAs?$AA?9?$AAd?$AAo?$AA?$AA@ 1007c170     libucrt:lcidtoname_downlevel.obj
 0002:0000c180       ??_C@_1M@DKHMKNJA@?$AAe?$AAs?$AA?9?$AAe?$AAc?$AA?$AA@ 1007c180     libucrt:lcidtoname_downlevel.obj
 0002:0000c190       ??_C@_1M@GKGFPKAP@?$AAe?$AAs?$AA?9?$AAe?$AAs?$AA?$AA@ 1007c190     libucrt:lcidtoname_downlevel.obj
 0002:0000c1a0       ??_C@_1M@LKHKGDLN@?$AAe?$AAs?$AA?9?$AAg?$AAt?$AA?$AA@ 1007c1a0     libucrt:lcidtoname_downlevel.obj
 0002:0000c1b0       ??_C@_1M@HEIIGGJD@?$AAe?$AAs?$AA?9?$AAh?$AAn?$AA?$AA@ 1007c1b0     libucrt:lcidtoname_downlevel.obj
 0002:0000c1c0       ??_C@_1M@FBDHPPGD@?$AAe?$AAs?$AA?9?$AAm?$AAx?$AA?$AA@ 1007c1c0     libucrt:lcidtoname_downlevel.obj
 0002:0000c1d0       ??_C@_1M@DPAGLNDH@?$AAe?$AAs?$AA?9?$AAn?$AAi?$AA?$AA@ 1007c1d0     libucrt:lcidtoname_downlevel.obj
 0002:0000c1e0       ??_C@_1M@MDGOPGDD@?$AAe?$AAs?$AA?9?$AAp?$AAa?$AA?$AA@ 1007c1e0     libucrt:lcidtoname_downlevel.obj
 0002:0000c1f0       ??_C@_1M@EMAMGBGE@?$AAe?$AAs?$AA?9?$AAp?$AAe?$AA?$AA@ 1007c1f0     libucrt:lcidtoname_downlevel.obj
 0002:0000c200       ??_C@_1M@IBMCAOEC@?$AAe?$AAs?$AA?9?$AAp?$AAr?$AA?$AA@ 1007c200     libucrt:lcidtoname_downlevel.obj
 0002:0000c210       ??_C@_1M@FGMDIJED@?$AAe?$AAs?$AA?9?$AAp?$AAy?$AA?$AA@ 1007c210     libucrt:lcidtoname_downlevel.obj
 0002:0000c220       ??_C@_1M@IIDEOLLL@?$AAe?$AAs?$AA?9?$AAs?$AAv?$AA?$AA@ 1007c220     libucrt:lcidtoname_downlevel.obj
 0002:0000c230       ??_C@_1M@GAOBIPA@?$AAe?$AAs?$AA?9?$AAu?$AAy?$AA?$AA@ 1007c230     libucrt:lcidtoname_downlevel.obj
 0002:0000c240       ??_C@_1M@JKFFICHJ@?$AAe?$AAs?$AA?9?$AAv?$AAe?$AA?$AA@ 1007c240     libucrt:lcidtoname_downlevel.obj
 0002:0000c250       ??_C@_1M@PNMLOJDF@?$AAe?$AAt?$AA?9?$AAe?$AAe?$AA?$AA@ 1007c250     libucrt:lcidtoname_downlevel.obj
 0002:0000c260       ??_C@_1M@GHHLIKEI@?$AAe?$AAu?$AA?9?$AAe?$AAs?$AA?$AA@ 1007c260     libucrt:lcidtoname_downlevel.obj
 0002:0000c270       ??_C@_1M@PBNONODE@?$AAf?$AAa?$AA?9?$AAi?$AAr?$AA?$AA@ 1007c270     libucrt:lcidtoname_downlevel.obj
 0002:0000c280       ??_C@_1M@JEEHPMIL@?$AAf?$AAi?$AA?9?$AAf?$AAi?$AA?$AA@ 1007c280     libucrt:lcidtoname_downlevel.obj
 0002:0000c290       ??_C@_1M@LMDCNDBA@?$AAf?$AAo?$AA?9?$AAf?$AAo?$AA?$AA@ 1007c290     libucrt:lcidtoname_downlevel.obj
 0002:0000c2a0       ??_C@_1M@JKEOHLDK@?$AAf?$AAr?$AA?9?$AAb?$AAe?$AA?$AA@ 1007c2a0     libucrt:lcidtoname_downlevel.obj
 0002:0000c2b0       ??_C@_1M@NOHADPMI@?$AAf?$AAr?$AA?9?$AAc?$AAa?$AA?$AA@ 1007c2b0     libucrt:lcidtoname_downlevel.obj
 0002:0000c2c0       ??_C@_1M@KDHIHAEC@?$AAf?$AAr?$AA?9?$AAc?$AAh?$AA?$AA@ 1007c2c0     libucrt:lcidtoname_downlevel.obj
 0002:0000c2d0       ??_C@_1M@MMBBFGAK@?$AAf?$AAr?$AA?9?$AAf?$AAr?$AA?$AA@ 1007c2d0     libucrt:lcidtoname_downlevel.obj
 0002:0000c2e0       ??_C@_1M@PAFNENNF@?$AAf?$AAr?$AA?9?$AAl?$AAu?$AA?$AA@ 1007c2e0     libucrt:lcidtoname_downlevel.obj
 0002:0000c2f0       ??_C@_1M@EOHDJGDD@?$AAf?$AAr?$AA?9?$AAm?$AAc?$AA?$AA@ 1007c2f0     libucrt:lcidtoname_downlevel.obj
 0002:0000c300       ??_C@_1M@FAPLLOPF@?$AAg?$AAl?$AA?9?$AAe?$AAs?$AA?$AA@ 1007c300     libucrt:lcidtoname_downlevel.obj
 0002:0000c310       ??_C@_1M@FOPBFLOO@?$AAg?$AAu?$AA?9?$AAi?$AAn?$AA?$AA@ 1007c310     libucrt:lcidtoname_downlevel.obj
 0002:0000c320       ??_C@_1M@KBMCINPM@?$AAh?$AAe?$AA?9?$AAi?$AAl?$AA?$AA@ 1007c320     libucrt:lcidtoname_downlevel.obj
 0002:0000c330       ??_C@_1M@BBPHKFPJ@?$AAh?$AAi?$AA?9?$AAi?$AAn?$AA?$AA@ 1007c330     libucrt:lcidtoname_downlevel.obj
 0002:0000c340       ??_C@_1M@PMBNDPHD@?$AAh?$AAr?$AA?9?$AAb?$AAa?$AA?$AA@ 1007c340     libucrt:lcidtoname_downlevel.obj
 0002:0000c350       ??_C@_1M@BPCKOEGE@?$AAh?$AAr?$AA?9?$AAh?$AAr?$AA?$AA@ 1007c350     libucrt:lcidtoname_downlevel.obj
 0002:0000c360       ??_C@_1M@GACBMHKE@?$AAh?$AAu?$AA?9?$AAh?$AAu?$AA?$AA@ 1007c360     libucrt:lcidtoname_downlevel.obj
 0002:0000c370       ??_C@_1M@MILPAJJC@?$AAh?$AAy?$AA?9?$AAa?$AAm?$AA?$AA@ 1007c370     libucrt:lcidtoname_downlevel.obj
 0002:0000c380       ??_C@_1M@BABBICEC@?$AAi?$AAd?$AA?9?$AAi?$AAd?$AA?$AA@ 1007c380     libucrt:lcidtoname_downlevel.obj
 0002:0000c390       ??_C@_1M@BIKNHHPF@?$AAi?$AAs?$AA?9?$AAi?$AAs?$AA?$AA@ 1007c390     libucrt:lcidtoname_downlevel.obj
 0002:0000c3a0       ??_C@_1M@NMPCJPHE@?$AAi?$AAt?$AA?9?$AAc?$AAh?$AA?$AA@ 1007c3a0     libucrt:lcidtoname_downlevel.obj
 0002:0000c3b0       ??_C@_1M@GHKGFEDF@?$AAi?$AAt?$AA?9?$AAi?$AAt?$AA?$AA@ 1007c3b0     libucrt:lcidtoname_downlevel.obj
 0002:0000c3c0       ??_C@_1M@NIEJCJJA@?$AAj?$AAa?$AA?9?$AAj?$AAp?$AA?$AA@ 1007c3c0     libucrt:lcidtoname_downlevel.obj
 0002:0000c3d0       ??_C@_1M@JILFNBIM@?$AAk?$AAa?$AA?9?$AAg?$AAe?$AA?$AA@ 1007c3d0     libucrt:lcidtoname_downlevel.obj
 0002:0000c3e0       ??_C@_1M@PACPMGPH@?$AAk?$AAk?$AA?9?$AAk?$AAz?$AA?$AA@ 1007c3e0     libucrt:lcidtoname_downlevel.obj
 0002:0000c3f0       ??_C@_1M@IELFGMHA@?$AAk?$AAn?$AA?9?$AAi?$AAn?$AA?$AA@ 1007c3f0     libucrt:lcidtoname_downlevel.obj
 0002:0000c400       ??_C@_1O@IBBJHCH@?$AAk?$AAo?$AAk?$AA?9?$AAi?$AAn?$AA?$AA@ 1007c400     libucrt:lcidtoname_downlevel.obj
 0002:0000c410       ??_C@_1M@DMHAEOGC@?$AAk?$AAo?$AA?9?$AAk?$AAr?$AA?$AA@ 1007c410     libucrt:lcidtoname_downlevel.obj
 0002:0000c420       ??_C@_1M@HBAHBIGA@?$AAk?$AAy?$AA?9?$AAk?$AAg?$AA?$AA@ 1007c420     libucrt:lcidtoname_downlevel.obj
 0002:0000c430       ??_C@_1M@KPMILCJG@?$AAl?$AAt?$AA?9?$AAl?$AAt?$AA?$AA@ 1007c430     libucrt:lcidtoname_downlevel.obj
 0002:0000c440       ??_C@_1M@BDEKKCA@?$AAl?$AAv?$AA?9?$AAl?$AAv?$AA?$AA@ 1007c440     libucrt:lcidtoname_downlevel.obj
 0002:0000c450       ??_C@_1M@ELCKCCJJ@?$AAm?$AAi?$AA?9?$AAn?$AAz?$AA?$AA@ 1007c450     libucrt:lcidtoname_downlevel.obj
 0002:0000c460       ??_C@_1M@CBOOLAPA@?$AAm?$AAk?$AA?9?$AAm?$AAk?$AA?$AA@ 1007c460     libucrt:lcidtoname_downlevel.obj
 0002:0000c470       ??_C@_1M@GPHNBJKN@?$AAm?$AAl?$AA?9?$AAi?$AAn?$AA?$AA@ 1007c470     libucrt:lcidtoname_downlevel.obj
 0002:0000c480       ??_C@_1M@PABJILIG@?$AAm?$AAn?$AA?9?$AAm?$AAn?$AA?$AA@ 1007c480     libucrt:lcidtoname_downlevel.obj
 0002:0000c490       ??_C@_1M@FGBKKIPG@?$AAm?$AAr?$AA?9?$AAi?$AAn?$AA?$AA@ 1007c490     libucrt:lcidtoname_downlevel.obj
 0002:0000c4a0       ??_C@_1M@NDBPDDAL@?$AAm?$AAs?$AA?9?$AAb?$AAn?$AA?$AA@ 1007c4a0     libucrt:lcidtoname_downlevel.obj
 0002:0000c4b0       ??_C@_1M@OPIHOOPI@?$AAm?$AAs?$AA?9?$AAm?$AAy?$AA?$AA@ 1007c4b0     libucrt:lcidtoname_downlevel.obj
 0002:0000c4c0       ??_C@_1M@PPDBCNFM@?$AAm?$AAt?$AA?9?$AAm?$AAt?$AA?$AA@ 1007c4c0     libucrt:lcidtoname_downlevel.obj
 0002:0000c4d0       ??_C@_1M@KDJDKMDD@?$AAn?$AAb?$AA?9?$AAn?$AAo?$AA?$AA@ 1007c4d0     libucrt:lcidtoname_downlevel.obj
 0002:0000c4e0       ??_C@_1M@KFCFLMJP@?$AAn?$AAl?$AA?9?$AAb?$AAe?$AA?$AA@ 1007c4e0     libucrt:lcidtoname_downlevel.obj
 0002:0000c4f0       ??_C@_1M@KPOPDDGO@?$AAn?$AAl?$AA?9?$AAn?$AAl?$AA?$AA@ 1007c4f0     libucrt:lcidtoname_downlevel.obj
 0002:0000c500       ??_C@_1M@LJKPEMLN@?$AAn?$AAn?$AA?9?$AAn?$AAo?$AA?$AA@ 1007c500     libucrt:lcidtoname_downlevel.obj
 0002:0000c510       ??_C@_1M@BDGHHBFL@?$AAn?$AAs?$AA?9?$AAz?$AAa?$AA?$AA@ 1007c510     libucrt:lcidtoname_downlevel.obj
 0002:0000c520       ??_C@_1M@IDEHOAP@?$AAp?$AAa?$AA?9?$AAi?$AAn?$AA?$AA@ 1007c520     libucrt:lcidtoname_downlevel.obj
 0002:0000c530       ??_C@_1M@HDBKGOGH@?$AAp?$AAl?$AA?9?$AAp?$AAl?$AA?$AA@ 1007c530     libucrt:lcidtoname_downlevel.obj
 0002:0000c540       ??_C@_1M@LJLLCMEH@?$AAp?$AAt?$AA?9?$AAb?$AAr?$AA?$AA@ 1007c540     libucrt:lcidtoname_downlevel.obj
 0002:0000c550       ??_C@_1M@NCMONAAL@?$AAp?$AAt?$AA?9?$AAp?$AAt?$AA?$AA@ 1007c550     libucrt:lcidtoname_downlevel.obj
 0002:0000c560       ??_C@_1O@EAKMAJDN@?$AAq?$AAu?$AAz?$AA?9?$AAb?$AAo?$AA?$AA@ 1007c560     libucrt:lcidtoname_downlevel.obj
 0002:0000c570       ??_C@_1O@BHHPIGDN@?$AAq?$AAu?$AAz?$AA?9?$AAe?$AAc?$AA?$AA@ 1007c570     libucrt:lcidtoname_downlevel.obj
 0002:0000c580       ??_C@_1O@GBAPEKMJ@?$AAq?$AAu?$AAz?$AA?9?$AAp?$AAe?$AA?$AA@ 1007c580     libucrt:lcidtoname_downlevel.obj
 0002:0000c590       ??_C@_1M@CLGLEFBO@?$AAr?$AAo?$AA?9?$AAr?$AAo?$AA?$AA@ 1007c590     libucrt:lcidtoname_downlevel.obj
 0002:0000c5a0       ??_C@_1M@CEEDODME@?$AAr?$AAu?$AA?9?$AAr?$AAu?$AA?$AA@ 1007c5a0     libucrt:lcidtoname_downlevel.obj
 0002:0000c5b0       ??_C@_1M@HPKKKMPP@?$AAs?$AAa?$AA?9?$AAi?$AAn?$AA?$AA@ 1007c5b0     libucrt:lcidtoname_downlevel.obj
 0002:0000c5c0       ??_C@_1M@BKMAIGOJ@?$AAs?$AAe?$AA?9?$AAf?$AAi?$AA?$AA@ 1007c5c0     libucrt:lcidtoname_downlevel.obj
 0002:0000c5d0       ??_C@_1M@NDPIFLFI@?$AAs?$AAe?$AA?9?$AAn?$AAo?$AA?$AA@ 1007c5d0     libucrt:lcidtoname_downlevel.obj
 0002:0000c5e0       ??_C@_1M@DANKKHJ@?$AAs?$AAe?$AA?9?$AAs?$AAe?$AA?$AA@ 1007c5e0     libucrt:lcidtoname_downlevel.obj
 0002:0000c5f0       ??_C@_1M@PNBLONPJ@?$AAs?$AAk?$AA?9?$AAs?$AAk?$AA?$AA@ 1007c5f0     libucrt:lcidtoname_downlevel.obj
 0002:0000c600       ??_C@_1M@LFMODOAL@?$AAs?$AAl?$AA?9?$AAs?$AAi?$AA?$AA@ 1007c600     libucrt:lcidtoname_downlevel.obj
 0002:0000c610       ??_C@_1O@DFKOMPG@?$AAs?$AAm?$AAa?$AA?9?$AAn?$AAo?$AA?$AA@ 1007c610     libucrt:lcidtoname_downlevel.obj
 0002:0000c620       ??_C@_1O@NDKPBNNH@?$AAs?$AAm?$AAa?$AA?9?$AAs?$AAe?$AA?$AA@ 1007c620     libucrt:lcidtoname_downlevel.obj
 0002:0000c630       ??_C@_1O@PLLKBHAB@?$AAs?$AAm?$AAj?$AA?9?$AAn?$AAo?$AA?$AA@ 1007c630     libucrt:lcidtoname_downlevel.obj
 0002:0000c640       ??_C@_1O@CLEPOGCA@?$AAs?$AAm?$AAj?$AA?9?$AAs?$AAe?$AA?$AA@ 1007c640     libucrt:lcidtoname_downlevel.obj
 0002:0000c650       ??_C@_1O@DLGJGKMK@?$AAs?$AAm?$AAn?$AA?9?$AAf?$AAi?$AA?$AA@ 1007c650     libucrt:lcidtoname_downlevel.obj
 0002:0000c660       ??_C@_1O@OJDJGAJC@?$AAs?$AAm?$AAs?$AA?9?$AAf?$AAi?$AA?$AA@ 1007c660     libucrt:lcidtoname_downlevel.obj
 0002:0000c670       ??_C@_1M@BOFOGHPB@?$AAs?$AAq?$AA?9?$AAa?$AAl?$AA?$AA@ 1007c670     libucrt:lcidtoname_downlevel.obj
 0002:0000c680       ??_C@_1BG@LJBBIPGB@?$AAs?$AAr?$AA?9?$AAb?$AAa?$AA?9?$AAc?$AAy?$AAr?$AAl?$AA?$AA@ 1007c680     libucrt:lcidtoname_downlevel.obj
 0002:0000c69c       ??_C@_1BG@JLBENFOE@?$AAs?$AAr?$AA?9?$AAb?$AAa?$AA?9?$AAl?$AAa?$AAt?$AAn?$AA?$AA@ 1007c69c     libucrt:lcidtoname_downlevel.obj
 0002:0000c6b8       ??_C@_1BG@KODPNHE@?$AAs?$AAr?$AA?9?$AAs?$AAp?$AA?9?$AAc?$AAy?$AAr?$AAl?$AA?$AA@ 1007c6b8     libucrt:lcidtoname_downlevel.obj
 0002:0000c6d4       ??_C@_1BG@CIOGKHPB@?$AAs?$AAr?$AA?9?$AAs?$AAp?$AA?9?$AAl?$AAa?$AAt?$AAn?$AA?$AA@ 1007c6d4     libucrt:lcidtoname_downlevel.obj
 0002:0000c6f0       ??_C@_1M@NGFJLMAC@?$AAs?$AAv?$AA?9?$AAf?$AAi?$AA?$AA@ 1007c6f0     libucrt:lcidtoname_downlevel.obj
 0002:0000c700       ??_C@_1M@MPJEJAJC@?$AAs?$AAv?$AA?9?$AAs?$AAe?$AA?$AA@ 1007c700     libucrt:lcidtoname_downlevel.obj
 0002:0000c710       ??_C@_1M@MPNDHLFK@?$AAs?$AAw?$AA?9?$AAk?$AAe?$AA?$AA@ 1007c710     libucrt:lcidtoname_downlevel.obj
 0002:0000c720       ??_C@_1O@KOHBJJI@?$AAs?$AAy?$AAr?$AA?9?$AAs?$AAy?$AA?$AA@ 1007c720     libucrt:lcidtoname_downlevel.obj
 0002:0000c730       ??_C@_1M@LDCEFHA@?$AAt?$AAa?$AA?9?$AAi?$AAn?$AA?$AA@ 1007c730     libucrt:lcidtoname_downlevel.obj
 0002:0000c740       ??_C@_1M@CNJOFAK@?$AAt?$AAe?$AA?9?$AAi?$AAn?$AA?$AA@ 1007c740     libucrt:lcidtoname_downlevel.obj
 0002:0000c750       ??_C@_1M@GNAECACD@?$AAt?$AAh?$AA?9?$AAt?$AAh?$AA?$AA@ 1007c750     libucrt:lcidtoname_downlevel.obj
 0002:0000c760       ??_C@_1M@CHBIHOJO@?$AAt?$AAn?$AA?9?$AAz?$AAa?$AA?$AA@ 1007c760     libucrt:lcidtoname_downlevel.obj
 0002:0000c770       ??_C@_1M@GCCMIGPJ@?$AAt?$AAr?$AA?9?$AAt?$AAr?$AA?$AA@ 1007c770     libucrt:lcidtoname_downlevel.obj
 0002:0000c780       ??_C@_1M@CELMCNBK@?$AAt?$AAt?$AA?9?$AAr?$AAu?$AA?$AA@ 1007c780     libucrt:lcidtoname_downlevel.obj
 0002:0000c790       ??_C@_1M@KLMCELGA@?$AAu?$AAk?$AA?9?$AAu?$AAa?$AA?$AA@ 1007c790     libucrt:lcidtoname_downlevel.obj
 0002:0000c7a0       ??_C@_1M@EPAJJAJF@?$AAu?$AAr?$AA?9?$AAp?$AAk?$AA?$AA@ 1007c7a0     libucrt:lcidtoname_downlevel.obj
 0002:0000c7b0       ??_C@_1BG@GEGPMCDJ@?$AAu?$AAz?$AA?9?$AAu?$AAz?$AA?9?$AAc?$AAy?$AAr?$AAl?$AA?$AA@ 1007c7b0     libucrt:lcidtoname_downlevel.obj
 0002:0000c7cc       ??_C@_1BG@EGGKJILM@?$AAu?$AAz?$AA?9?$AAu?$AAz?$AA?9?$AAl?$AAa?$AAt?$AAn?$AA?$AA@ 1007c7cc     libucrt:lcidtoname_downlevel.obj
 0002:0000c7e8       ??_C@_1M@GFOCLFF@?$AAv?$AAi?$AA?9?$AAv?$AAn?$AA?$AA@ 1007c7e8     libucrt:lcidtoname_downlevel.obj
 0002:0000c7f8       ??_C@_1M@CPAMEDFI@?$AAx?$AAh?$AA?9?$AAz?$AAa?$AA?$AA@ 1007c7f8     libucrt:lcidtoname_downlevel.obj
 0002:0000c808       ??_C@_1O@EBKIFIGN@?$AAz?$AAh?$AA?9?$AAc?$AAh?$AAs?$AA?$AA@ 1007c808     libucrt:lcidtoname_downlevel.obj
 0002:0000c818       ??_C@_1O@NMHPGANE@?$AAz?$AAh?$AA?9?$AAc?$AAh?$AAt?$AA?$AA@ 1007c818     libucrt:lcidtoname_downlevel.obj
 0002:0000c828       ??_C@_1M@LPINJOMC@?$AAz?$AAh?$AA?9?$AAc?$AAn?$AA?$AA@ 1007c828     libucrt:lcidtoname_downlevel.obj
 0002:0000c838       ??_C@_1M@OCJEJODD@?$AAz?$AAh?$AA?9?$AAh?$AAk?$AA?$AA@ 1007c838     libucrt:lcidtoname_downlevel.obj
 0002:0000c848       ??_C@_1M@DNDLJINH@?$AAz?$AAh?$AA?9?$AAm?$AAo?$AA?$AA@ 1007c848     libucrt:lcidtoname_downlevel.obj
 0002:0000c858       ??_C@_1M@MBFDNDND@?$AAz?$AAh?$AA?9?$AAs?$AAg?$AA?$AA@ 1007c858     libucrt:lcidtoname_downlevel.obj
 0002:0000c868       ??_C@_1M@IMEPLEPE@?$AAz?$AAh?$AA?9?$AAt?$AAw?$AA?$AA@ 1007c868     libucrt:lcidtoname_downlevel.obj
 0002:0000c878       ??_C@_1M@BBGHNHJP@?$AAz?$AAu?$AA?9?$AAz?$AAa?$AA?$AA@ 1007c878     libucrt:lcidtoname_downlevel.obj
 0002:0000c888       ___acrt_rg_language        1007c888     libucrt:get_qualified_locale.obj
 0002:0000cc30       ___acrt_rg_language_count  1007cc30     libucrt:get_qualified_locale.obj
 0002:0000cc38       ___acrt_rg_country         1007cc38     libucrt:get_qualified_locale.obj
 0002:0000cd84       ___acrt_rg_country_count   1007cd84     libucrt:get_qualified_locale.obj
 0002:0000cd88       ??_C@_1BC@LLOKLNP@?$AAa?$AAm?$AAe?$AAr?$AAi?$AAc?$AAa?$AAn?$AA?$AA@ 1007cd88     libucrt:get_qualified_locale.obj
 0002:0000cda0       ??_C@_1CC@HEIGCDGG@?$AAa?$AAm?$AAe?$AAr?$AAi?$AAc?$AAa?$AAn?$AA?5?$AAe?$AAn?$AAg?$AAl?$AAi?$AAs?$AAh?$AA?$AA@ 1007cda0     libucrt:get_qualified_locale.obj
 0002:0000cdc8       ??_C@_1CC@IHCNOMIN@?$AAa?$AAm?$AAe?$AAr?$AAi?$AAc?$AAa?$AAn?$AA?9?$AAe?$AAn?$AAg?$AAl?$AAi?$AAs?$AAh?$AA?$AA@ 1007cdc8     libucrt:get_qualified_locale.obj
 0002:0000cdf0       ??_C@_1BG@GKAGPCGG@?$AAa?$AAu?$AAs?$AAt?$AAr?$AAa?$AAl?$AAi?$AAa?$AAn?$AA?$AA@ 1007cdf0     libucrt:get_qualified_locale.obj
 0002:0000ce0c       ??_C@_1BA@GMENCENF@?$AAb?$AAe?$AAl?$AAg?$AAi?$AAa?$AAn?$AA?$AA@ 1007ce0c     libucrt:get_qualified_locale.obj
 0002:0000ce20       ??_C@_1BC@PJMIIAAN@?$AAc?$AAa?$AAn?$AAa?$AAd?$AAi?$AAa?$AAn?$AA?$AA@ 1007ce20     libucrt:get_qualified_locale.obj
 0002:0000ce38       ??_C@_17NOIMNFBF@?$AAc?$AAh?$AAh?$AA?$AA@ 1007ce38     libucrt:get_qualified_locale.obj
 0002:0000ce44       ??_C@_17GGDALCHA@?$AAc?$AAh?$AAi?$AA?$AA@ 1007ce44     libucrt:get_qualified_locale.obj
 0002:0000ce50       ??_C@_1BA@NPNJKIBL@?$AAc?$AAh?$AAi?$AAn?$AAe?$AAs?$AAe?$AA?$AA@ 1007ce50     libucrt:get_qualified_locale.obj
 0002:0000ce64       ??_C@_1CC@DINBAMMJ@?$AAc?$AAh?$AAi?$AAn?$AAe?$AAs?$AAe?$AA?9?$AAh?$AAo?$AAn?$AAg?$AAk?$AAo?$AAn?$AAg?$AA?$AA@ 1007ce64     libucrt:get_qualified_locale.obj
 0002:0000ce8c       ??_C@_1CG@IOBJPACO@?$AAc?$AAh?$AAi?$AAn?$AAe?$AAs?$AAe?$AA?9?$AAs?$AAi?$AAm?$AAp?$AAl?$AAi?$AAf?$AAi?$AAe?$AAd?$AA?$AA@ 1007ce8c     libucrt:get_qualified_locale.obj
 0002:0000cebc       ??_C@_1CE@GAJNDCKG@?$AAc?$AAh?$AAi?$AAn?$AAe?$AAs?$AAe?$AA?9?$AAs?$AAi?$AAn?$AAg?$AAa?$AAp?$AAo?$AAr?$AAe?$AA?$AA@ 1007cebc     libucrt:get_qualified_locale.obj
 0002:0000cee8       ??_C@_1CI@PAJPIOOD@?$AAc?$AAh?$AAi?$AAn?$AAe?$AAs?$AAe?$AA?9?$AAt?$AAr?$AAa?$AAd?$AAi?$AAt?$AAi?$AAo?$AAn?$AAa?$AAl?$AA?$AA@ 1007cee8     libucrt:get_qualified_locale.obj
 0002:0000cf18       ??_C@_1BM@NILJBMMD@?$AAd?$AAu?$AAt?$AAc?$AAh?$AA?9?$AAb?$AAe?$AAl?$AAg?$AAi?$AAa?$AAn?$AA?$AA@ 1007cf18     libucrt:get_qualified_locale.obj
 0002:0000cf3c       ??_C@_1CC@OOJPJNEJ@?$AAe?$AAn?$AAg?$AAl?$AAi?$AAs?$AAh?$AA?9?$AAa?$AAm?$AAe?$AAr?$AAi?$AAc?$AAa?$AAn?$AA?$AA@ 1007cf3c     libucrt:get_qualified_locale.obj
 0002:0000cf64       ??_C@_1BI@IOLFEEM@?$AAe?$AAn?$AAg?$AAl?$AAi?$AAs?$AAh?$AA?9?$AAa?$AAu?$AAs?$AA?$AA@ 1007cf64     libucrt:get_qualified_locale.obj
 0002:0000cf80       ??_C@_1BO@HFFNLENJ@?$AAe?$AAn?$AAg?$AAl?$AAi?$AAs?$AAh?$AA?9?$AAb?$AAe?$AAl?$AAi?$AAz?$AAe?$AA?$AA@ 1007cf80     libucrt:get_qualified_locale.obj
 0002:0000cfa4       ??_C@_1BI@HAPKJMPO@?$AAe?$AAn?$AAg?$AAl?$AAi?$AAs?$AAh?$AA?9?$AAc?$AAa?$AAn?$AA?$AA@ 1007cfa4     libucrt:get_qualified_locale.obj
 0002:0000cfc0       ??_C@_1CE@HLNDMIOJ@?$AAe?$AAn?$AAg?$AAl?$AAi?$AAs?$AAh?$AA?9?$AAc?$AAa?$AAr?$AAi?$AAb?$AAb?$AAe?$AAa?$AAn?$AA?$AA@ 1007cfc0     libucrt:get_qualified_locale.obj
 0002:0000cfec       ??_C@_1BI@LDHJHHAC@?$AAe?$AAn?$AAg?$AAl?$AAi?$AAs?$AAh?$AA?9?$AAi?$AAr?$AAe?$AA?$AA@ 1007cfec     libucrt:get_qualified_locale.obj
 0002:0000d008       ??_C@_1CA@NJMMCFOC@?$AAe?$AAn?$AAg?$AAl?$AAi?$AAs?$AAh?$AA?9?$AAj?$AAa?$AAm?$AAa?$AAi?$AAc?$AAa?$AA?$AA@ 1007d008     libucrt:get_qualified_locale.obj
 0002:0000d030       ??_C@_1BG@BHJEBBGG@?$AAe?$AAn?$AAg?$AAl?$AAi?$AAs?$AAh?$AA?9?$AAn?$AAz?$AA?$AA@ 1007d030     libucrt:get_qualified_locale.obj
 0002:0000d04c       ??_C@_1CK@FGOEJJCO@?$AAe?$AAn?$AAg?$AAl?$AAi?$AAs?$AAh?$AA?9?$AAs?$AAo?$AAu?$AAt?$AAh?$AA?5?$AAa?$AAf?$AAr?$AAi?$AAc?$AAa?$AA?$AA@ 1007d04c     libucrt:get_qualified_locale.obj
 0002:0000d080       ??_C@_1DE@PDBJPCJ@?$AAe?$AAn?$AAg?$AAl?$AAi?$AAs?$AAh?$AA?9?$AAt?$AAr?$AAi?$AAn?$AAi?$AAd?$AAa?$AAd?$AA?5?$AAy?$AA?5?$AAt?$AAo?$AAb?$AAa?$AAg?$AAo?$AA?$AA@ 1007d080     libucrt:get_qualified_locale.obj
 0002:0000d0c0       ??_C@_1BG@JGCANDME@?$AAe?$AAn?$AAg?$AAl?$AAi?$AAs?$AAh?$AA?9?$AAu?$AAk?$AA?$AA@ 1007d0c0     libucrt:get_qualified_locale.obj
 0002:0000d0dc       ??_C@_1BG@DINKMLE@?$AAe?$AAn?$AAg?$AAl?$AAi?$AAs?$AAh?$AA?9?$AAu?$AAs?$AA?$AA@ 1007d0dc     libucrt:get_qualified_locale.obj
 0002:0000d0f8       ??_C@_1BI@NMFDBHJE@?$AAe?$AAn?$AAg?$AAl?$AAi?$AAs?$AAh?$AA?9?$AAu?$AAs?$AAa?$AA?$AA@ 1007d0f8     libucrt:get_qualified_locale.obj
 0002:0000d114       ??_C@_1BO@OIHKJKII@?$AAf?$AAr?$AAe?$AAn?$AAc?$AAh?$AA?9?$AAb?$AAe?$AAl?$AAg?$AAi?$AAa?$AAn?$AA?$AA@ 1007d114     libucrt:get_qualified_locale.obj
 0002:0000d138       ??_C@_1CA@NKAELJKI@?$AAf?$AAr?$AAe?$AAn?$AAc?$AAh?$AA?9?$AAc?$AAa?$AAn?$AAa?$AAd?$AAi?$AAa?$AAn?$AA?$AA@ 1007d138     libucrt:get_qualified_locale.obj
 0002:0000d160       ??_C@_1CE@MGKCNLGN@?$AAf?$AAr?$AAe?$AAn?$AAc?$AAh?$AA?9?$AAl?$AAu?$AAx?$AAe?$AAm?$AAb?$AAo?$AAu?$AAr?$AAg?$AA?$AA@ 1007d160     libucrt:get_qualified_locale.obj
 0002:0000d18c       ??_C@_1BK@CEGEAILM@?$AAf?$AAr?$AAe?$AAn?$AAc?$AAh?$AA?9?$AAs?$AAw?$AAi?$AAs?$AAs?$AA?$AA@ 1007d18c     libucrt:get_qualified_locale.obj
 0002:0000d1ac       ??_C@_1CA@PAFKEOCC@?$AAg?$AAe?$AAr?$AAm?$AAa?$AAn?$AA?9?$AAa?$AAu?$AAs?$AAt?$AAr?$AAi?$AAa?$AAn?$AA?$AA@ 1007d1ac     libucrt:get_qualified_locale.obj
 0002:0000d1d4       ??_C@_1CI@HCFHGOFD@?$AAg?$AAe?$AAr?$AAm?$AAa?$AAn?$AA?9?$AAl?$AAi?$AAc?$AAh?$AAt?$AAe?$AAn?$AAs?$AAt?$AAe?$AAi?$AAn?$AA?$AA@ 1007d1d4     libucrt:get_qualified_locale.obj
 0002:0000d204       ??_C@_1CE@FEDDNPDG@?$AAg?$AAe?$AAr?$AAm?$AAa?$AAn?$AA?9?$AAl?$AAu?$AAx?$AAe?$AAm?$AAb?$AAo?$AAu?$AAr?$AAg?$AA?$AA@ 1007d204     libucrt:get_qualified_locale.obj
 0002:0000d230       ??_C@_1BK@LIMINNMN@?$AAg?$AAe?$AAr?$AAm?$AAa?$AAn?$AA?9?$AAs?$AAw?$AAi?$AAs?$AAs?$AA?$AA@ 1007d230     libucrt:get_qualified_locale.obj
 0002:0000d250       ??_C@_1BM@LGMDBEPD@?$AAi?$AAr?$AAi?$AAs?$AAh?$AA?9?$AAe?$AAn?$AAg?$AAl?$AAi?$AAs?$AAh?$AA?$AA@ 1007d250     libucrt:get_qualified_locale.obj
 0002:0000d274       ??_C@_1BM@NNCFBAEE@?$AAi?$AAt?$AAa?$AAl?$AAi?$AAa?$AAn?$AA?9?$AAs?$AAw?$AAi?$AAs?$AAs?$AA?$AA@ 1007d274     libucrt:get_qualified_locale.obj
 0002:0000d298       ??_C@_1BE@FEDJNPIB@?$AAn?$AAo?$AAr?$AAw?$AAe?$AAg?$AAi?$AAa?$AAn?$AA?$AA@ 1007d298     libucrt:get_qualified_locale.obj
 0002:0000d2b0       ??_C@_1CC@CILKDEIE@?$AAn?$AAo?$AAr?$AAw?$AAe?$AAg?$AAi?$AAa?$AAn?$AA?9?$AAb?$AAo?$AAk?$AAm?$AAa?$AAl?$AA?$AA@ 1007d2b0     libucrt:get_qualified_locale.obj
 0002:0000d2d8       ??_C@_1CE@DHMMHEPL@?$AAn?$AAo?$AAr?$AAw?$AAe?$AAg?$AAi?$AAa?$AAn?$AA?9?$AAn?$AAy?$AAn?$AAo?$AAr?$AAs?$AAk?$AA?$AA@ 1007d2d8     libucrt:get_qualified_locale.obj
 0002:0000d304       ??_C@_1CK@OPNMHECD@?$AAp?$AAo?$AAr?$AAt?$AAu?$AAg?$AAu?$AAe?$AAs?$AAe?$AA?9?$AAb?$AAr?$AAa?$AAz?$AAi?$AAl?$AAi?$AAa?$AAn?$AA?$AA@ 1007d304     libucrt:get_qualified_locale.obj
 0002:0000d338       ??_C@_1CE@KEEHCDB@?$AAs?$AAp?$AAa?$AAn?$AAi?$AAs?$AAh?$AA?9?$AAa?$AAr?$AAg?$AAe?$AAn?$AAt?$AAi?$AAn?$AAa?$AA?$AA@ 1007d338     libucrt:get_qualified_locale.obj
 0002:0000d364       ??_C@_1CA@GIAOLHJD@?$AAs?$AAp?$AAa?$AAn?$AAi?$AAs?$AAh?$AA?9?$AAb?$AAo?$AAl?$AAi?$AAv?$AAi?$AAa?$AA?$AA@ 1007d364     libucrt:get_qualified_locale.obj
 0002:0000d38c       ??_C@_1BM@OJNDFNPD@?$AAs?$AAp?$AAa?$AAn?$AAi?$AAs?$AAh?$AA?9?$AAc?$AAh?$AAi?$AAl?$AAe?$AA?$AA@ 1007d38c     libucrt:get_qualified_locale.obj
 0002:0000d3b0       ??_C@_1CC@OCOLPALL@?$AAs?$AAp?$AAa?$AAn?$AAi?$AAs?$AAh?$AA?9?$AAc?$AAo?$AAl?$AAo?$AAm?$AAb?$AAi?$AAa?$AA?$AA@ 1007d3b0     libucrt:get_qualified_locale.obj
 0002:0000d3d8       ??_C@_1CG@BPOFMKBB@?$AAs?$AAp?$AAa?$AAn?$AAi?$AAs?$AAh?$AA?9?$AAc?$AAo?$AAs?$AAt?$AAa?$AA?5?$AAr?$AAi?$AAc?$AAa?$AA?$AA@ 1007d3d8     libucrt:get_qualified_locale.obj
 0002:0000d408       ??_C@_1DG@IGOBAPBB@?$AAs?$AAp?$AAa?$AAn?$AAi?$AAs?$AAh?$AA?9?$AAd?$AAo?$AAm?$AAi?$AAn?$AAi?$AAc?$AAa?$AAn?$AA?5?$AAr?$AAe?$AAp?$AAu?$AAb?$AAl?$AAi?$AAc?$AA?$AA@ 1007d408     libucrt:get_qualified_locale.obj
 0002:0000d448       ??_C@_1CA@JHAPGEGI@?$AAs?$AAp?$AAa?$AAn?$AAi?$AAs?$AAh?$AA?9?$AAe?$AAc?$AAu?$AAa?$AAd?$AAo?$AAr?$AA?$AA@ 1007d448     libucrt:get_qualified_locale.obj
 0002:0000d470       ??_C@_1CI@LAPALJPP@?$AAs?$AAp?$AAa?$AAn?$AAi?$AAs?$AAh?$AA?9?$AAe?$AAl?$AA?5?$AAs?$AAa?$AAl?$AAv?$AAa?$AAd?$AAo?$AAr?$AA?$AA@ 1007d470     libucrt:get_qualified_locale.obj
 0002:0000d4a0       ??_C@_1CE@PDGBOFOM@?$AAs?$AAp?$AAa?$AAn?$AAi?$AAs?$AAh?$AA?9?$AAg?$AAu?$AAa?$AAt?$AAe?$AAm?$AAa?$AAl?$AAa?$AA?$AA@ 1007d4a0     libucrt:get_qualified_locale.obj
 0002:0000d4cc       ??_C@_1CC@NBEBAODI@?$AAs?$AAp?$AAa?$AAn?$AAi?$AAs?$AAh?$AA?9?$AAh?$AAo?$AAn?$AAd?$AAu?$AAr?$AAa?$AAs?$AA?$AA@ 1007d4cc     libucrt:get_qualified_locale.obj
 0002:0000d4f4       ??_C@_1CA@LLKGHBMF@?$AAs?$AAp?$AAa?$AAn?$AAi?$AAs?$AAh?$AA?9?$AAm?$AAe?$AAx?$AAi?$AAc?$AAa?$AAn?$AA?$AA@ 1007d4f4     libucrt:get_qualified_locale.obj
 0002:0000d51c       ??_C@_1BO@LKNDOIGD@?$AAs?$AAp?$AAa?$AAn?$AAi?$AAs?$AAh?$AA?9?$AAm?$AAo?$AAd?$AAe?$AAr?$AAn?$AA?$AA@ 1007d51c     libucrt:get_qualified_locale.obj
 0002:0000d540       ??_C@_1CE@NMDMOEEB@?$AAs?$AAp?$AAa?$AAn?$AAi?$AAs?$AAh?$AA?9?$AAn?$AAi?$AAc?$AAa?$AAr?$AAa?$AAg?$AAu?$AAa?$AA?$AA@ 1007d540     libucrt:get_qualified_locale.obj
 0002:0000d56c       ??_C@_1BO@LLCBEJGB@?$AAs?$AAp?$AAa?$AAn?$AAi?$AAs?$AAh?$AA?9?$AAp?$AAa?$AAn?$AAa?$AAm?$AAa?$AA?$AA@ 1007d56c     libucrt:get_qualified_locale.obj
 0002:0000d590       ??_C@_1CC@FKPGGIHO@?$AAs?$AAp?$AAa?$AAn?$AAi?$AAs?$AAh?$AA?9?$AAp?$AAa?$AAr?$AAa?$AAg?$AAu?$AAa?$AAy?$AA?$AA@ 1007d590     libucrt:get_qualified_locale.obj
 0002:0000d5b8       ??_C@_1BK@CDEIHOOP@?$AAs?$AAp?$AAa?$AAn?$AAi?$AAs?$AAh?$AA?9?$AAp?$AAe?$AAr?$AAu?$AA?$AA@ 1007d5b8     libucrt:get_qualified_locale.obj
 0002:0000d5d8       ??_C@_1CI@GAHAKKGP@?$AAs?$AAp?$AAa?$AAn?$AAi?$AAs?$AAh?$AA?9?$AAp?$AAu?$AAe?$AAr?$AAt?$AAo?$AA?5?$AAr?$AAi?$AAc?$AAo?$AA?$AA@ 1007d5d8     libucrt:get_qualified_locale.obj
 0002:0000d608       ??_C@_1CA@NKJBCAGP@?$AAs?$AAp?$AAa?$AAn?$AAi?$AAs?$AAh?$AA?9?$AAu?$AAr?$AAu?$AAg?$AAu?$AAa?$AAy?$AA?$AA@ 1007d608     libucrt:get_qualified_locale.obj
 0002:0000d630       ??_C@_1CE@ODILCONM@?$AAs?$AAp?$AAa?$AAn?$AAi?$AAs?$AAh?$AA?9?$AAv?$AAe?$AAn?$AAe?$AAz?$AAu?$AAe?$AAl?$AAa?$AA?$AA@ 1007d630     libucrt:get_qualified_locale.obj
 0002:0000d65c       ??_C@_1CA@OBNMCGFO@?$AAs?$AAw?$AAe?$AAd?$AAi?$AAs?$AAh?$AA?9?$AAf?$AAi?$AAn?$AAl?$AAa?$AAn?$AAd?$AA?$AA@ 1007d65c     libucrt:get_qualified_locale.obj
 0002:0000d684       ??_C@_1M@PIPDDPPI@?$AAs?$AAw?$AAi?$AAs?$AAs?$AA?$AA@ 1007d684     libucrt:get_qualified_locale.obj
 0002:0000d694       ??_C@_15GMFIMNFM@?$AAu?$AAs?$AA?$AA@ 1007d694     libucrt:get_qualified_locale.obj
 0002:0000d69c       ??_C@_17HAEBFAGL@?$AAu?$AAs?$AAa?$AA?$AA@ 1007d69c     libucrt:get_qualified_locale.obj
 0002:0000d6a8       ??_C@_1BA@DPFJEPHB@?$AAa?$AAm?$AAe?$AAr?$AAi?$AAc?$AAa?$AA?$AA@ 1007d6a8     libucrt:get_qualified_locale.obj
 0002:0000d6bc       ??_C@_1BA@ELOGGFK@?$AAb?$AAr?$AAi?$AAt?$AAa?$AAi?$AAn?$AA?$AA@ 1007d6bc     libucrt:get_qualified_locale.obj
 0002:0000d6d0       ??_C@_1M@GHBGIGDA@?$AAc?$AAh?$AAi?$AAn?$AAa?$AA?$AA@ 1007d6d0     libucrt:get_qualified_locale.obj
 0002:0000d6e0       ??_C@_1M@NCHEJOPO@?$AAc?$AAz?$AAe?$AAc?$AAh?$AA?$AA@ 1007d6e0     libucrt:get_qualified_locale.obj
 0002:0000d6f0       ??_C@_1BA@BKPAPBLA@?$AAe?$AAn?$AAg?$AAl?$AAa?$AAn?$AAd?$AA?$AA@ 1007d6f0     libucrt:get_qualified_locale.obj
 0002:0000d704       ??_C@_1BM@HKBCKIPC@?$AAg?$AAr?$AAe?$AAa?$AAt?$AA?5?$AAb?$AAr?$AAi?$AAt?$AAa?$AAi?$AAn?$AA?$AA@ 1007d704     libucrt:get_qualified_locale.obj
 0002:0000d728       ??_C@_1BA@PPCHPGJB@?$AAh?$AAo?$AAl?$AAl?$AAa?$AAn?$AAd?$AA?$AA@ 1007d728     libucrt:get_qualified_locale.obj
 0002:0000d73c       ??_C@_1BE@JBMPEGDG@?$AAh?$AAo?$AAn?$AAg?$AA?9?$AAk?$AAo?$AAn?$AAg?$AA?$AA@ 1007d73c     libucrt:get_qualified_locale.obj
 0002:0000d754       ??_C@_1BI@KOELBBPJ@?$AAn?$AAe?$AAw?$AA?9?$AAz?$AAe?$AAa?$AAl?$AAa?$AAn?$AAd?$AA?$AA@ 1007d754     libucrt:get_qualified_locale.obj
 0002:0000d770       ??_C@_15HIEBHAIO@?$AAn?$AAz?$AA?$AA@ 1007d770     libucrt:get_qualified_locale.obj
 0002:0000d778       ??_C@_1BC@CHBCPFPI@?$AAp?$AAr?$AA?5?$AAc?$AAh?$AAi?$AAn?$AAa?$AA?$AA@ 1007d778     libucrt:get_qualified_locale.obj
 0002:0000d790       ??_C@_1BC@JAOIIFKD@?$AAp?$AAr?$AA?9?$AAc?$AAh?$AAi?$AAn?$AAa?$AA?$AA@ 1007d790     libucrt:get_qualified_locale.obj
 0002:0000d7a8       ??_C@_1BI@BEHPPHKC@?$AAp?$AAu?$AAe?$AAr?$AAt?$AAo?$AA?9?$AAr?$AAi?$AAc?$AAo?$AA?$AA@ 1007d7a8     libucrt:get_qualified_locale.obj
 0002:0000d7c4       ??_C@_1O@PAEOFKDI@?$AAs?$AAl?$AAo?$AAv?$AAa?$AAk?$AA?$AA@ 1007d7c4     libucrt:get_qualified_locale.obj
 0002:0000d7d4       ??_C@_1BK@FIHMCKAM@?$AAs?$AAo?$AAu?$AAt?$AAh?$AA?5?$AAa?$AAf?$AAr?$AAi?$AAc?$AAa?$AA?$AA@ 1007d7d4     libucrt:get_qualified_locale.obj
 0002:0000d7f4       ??_C@_1BI@NAEOODKB@?$AAs?$AAo?$AAu?$AAt?$AAh?$AA?5?$AAk?$AAo?$AAr?$AAe?$AAa?$AA?$AA@ 1007d7f4     libucrt:get_qualified_locale.obj
 0002:0000d810       ??_C@_1BK@FBDGGIFF@?$AAs?$AAo?$AAu?$AAt?$AAh?$AA?9?$AAa?$AAf?$AAr?$AAi?$AAc?$AAa?$AA?$AA@ 1007d810     libucrt:get_qualified_locale.obj
 0002:0000d830       ??_C@_1BI@GHLEJDPK@?$AAs?$AAo?$AAu?$AAt?$AAh?$AA?9?$AAk?$AAo?$AAr?$AAe?$AAa?$AA?$AA@ 1007d830     libucrt:get_qualified_locale.obj
 0002:0000d84c       ??_C@_1CE@PLHLOMJF@?$AAt?$AAr?$AAi?$AAn?$AAi?$AAd?$AAa?$AAd?$AA?5?$AA?$CG?$AA?5?$AAt?$AAo?$AAb?$AAa?$AAg?$AAo?$AA?$AA@ 1007d84c     libucrt:get_qualified_locale.obj
 0002:0000d878       ??_C@_1BO@MODIMHHI@?$AAu?$AAn?$AAi?$AAt?$AAe?$AAd?$AA?9?$AAk?$AAi?$AAn?$AAg?$AAd?$AAo?$AAm?$AA?$AA@ 1007d878     libucrt:get_qualified_locale.obj
 0002:0000d89c       ??_C@_1BM@FFHJONBJ@?$AAu?$AAn?$AAi?$AAt?$AAe?$AAd?$AA?9?$AAs?$AAt?$AAa?$AAt?$AAe?$AAs?$AA?$AA@ 1007d89c     libucrt:get_qualified_locale.obj
 0002:0000d8c0       ??_C@_17DNCLJFIF@?$AAA?$AAC?$AAP?$AA?$AA@ 1007d8c0     libucrt:get_qualified_locale.obj
 0002:0000d8cc       ??_C@_17CIKBIHLH@?$AAO?$AAC?$AAP?$AA?$AA@ 1007d8cc     libucrt:get_qualified_locale.obj
 0002:0000d8d8       ___rglangidNotDefault      1007d8d8     libucrt:getqloc_downlevel.obj
 0002:0000d8f0       ??_C@_00CNPNBAHC@?$AA@     1007d8f0     libucrt:mbrtowc.obj
 0002:0000d8f8       ?large_power_data@?1??multiply_by_power_of_ten@__crt_strtox@@YA_NAAUbig_integer@2@I@Z@4QBIB 1007d8f8     libucrt:cfout.obj
 0002:0000e3d0       ?large_power_indices@?1??multiply_by_power_of_ten@__crt_strtox@@YA_NAAUbig_integer@2@I@Z@4QBUunpack_index@?1??12@YA_N0I@Z@B 1007e3d0     libucrt:cfout.obj
 0002:0000e488       ?small_powers_of_ten@?1??multiply_by_power_of_ten@__crt_strtox@@YA_NAAUbig_integer@2@I@Z@4QBIB 1007e488     libucrt:cfout.obj
 0002:0000e4b4       ??_C@_01GBGANLPD@0?$AA@    1007e4b4     libucrt:cfout.obj
 0002:0000e4b8       ??_C@_05DNEBIAHO@1?$CDINF?$AA@ 1007e4b8     libucrt:cfout.obj
 0002:0000e4c0       ??_C@_06IMKFLFPG@1?$CDQNAN?$AA@ 1007e4c0     libucrt:cfout.obj
 0002:0000e4c8       ??_C@_06PGGFOGJG@1?$CDSNAN?$AA@ 1007e4c8     libucrt:cfout.obj
 0002:0000e4d0       ??_C@_05PHHOCPM@1?$CDIND?$AA@ 1007e4d0     libucrt:cfout.obj
 0002:0000e4d8       ??_C@_1BA@BALFACEM@?$AAC?$AAO?$AAN?$AAO?$AAU?$AAT?$AA$?$AA?$AA@ 1007e4d8     libucrt:initcon.obj
 0002:0000e6a0       __infinity                 1007e6a0     libucrt:87tran.obj
 0002:0000e6aa       __minfinity                1007e6aa     libucrt:87tran.obj
 0002:0000e6b4       __logemax                  1007e6b4     libucrt:87tran.obj
 0002:0000e6da       __OP_EXPjmptab             1007e6da     libucrt:87tran.obj
 0002:0000e710       __indefinite               1007e710     libucrt:87disp.obj
 0002:0000e71a       __piby2                    1007e71a     libucrt:87disp.obj
 0002:0000e724       __piby4                    1007e724     libucrt:87disp.obj
 0002:0000e768       __DEFAULT_CW_in_mem        1007e768     libucrt:common.obj
 0002:0000e76a       __pi_by_2_to_61            1007e76a     libucrt:common.obj
 0002:0000e8c0       ___acrt_log10_table_t      1007e8c0     libucrt:log10_tables.obj
 0002:0000eda0       ___acrt_log10_table_cb     1007eda0     libucrt:log10_tables.obj
 0002:0000f284       ??_7type_info@@6B@         1007f284     LIBCMT:std_type_info_static.obj
 0002:0000f2c8       __load_config_used         1007f2c8     LIBCMT:loadcfg.obj
 0002:0000f8fc       ??_R4DNameNode@@6B@        1007f8fc     libvcruntime:undname.obj
 0002:0000f914       ??_R3DNameNode@@8          1007f914     libvcruntime:undname.obj
 0002:0000f928       ??_R2DNameNode@@8          1007f928     libvcruntime:undname.obj
 0002:0000f930       ??_R1A@?0A@EA@DNameNode@@8 1007f930     libvcruntime:undname.obj
 0002:0000f954       ??_R4charNode@@6B@         1007f954     libvcruntime:undname.obj
 0002:0000f96c       ??_R3charNode@@8           1007f96c     libvcruntime:undname.obj
 0002:0000f980       ??_R2charNode@@8           1007f980     libvcruntime:undname.obj
 0002:0000f98c       ??_R1A@?0A@EA@charNode@@8  1007f98c     libvcruntime:undname.obj
 0002:0000f9b0       ??_R4pcharNode@@6B@        1007f9b0     libvcruntime:undname.obj
 0002:0000f9c8       ??_R3pcharNode@@8          1007f9c8     libvcruntime:undname.obj
 0002:0000f9dc       ??_R2pcharNode@@8          1007f9dc     libvcruntime:undname.obj
 0002:0000f9e8       ??_R1A@?0A@EA@pcharNode@@8 1007f9e8     libvcruntime:undname.obj
 0002:0000fa0c       ??_R4pDNameNode@@6B@       1007fa0c     libvcruntime:undname.obj
 0002:0000fa24       ??_R3pDNameNode@@8         1007fa24     libvcruntime:undname.obj
 0002:0000fa38       ??_R2pDNameNode@@8         1007fa38     libvcruntime:undname.obj
 0002:0000fa44       ??_R1A@?0A@EA@pDNameNode@@8 1007fa44     libvcruntime:undname.obj
 0002:0000fa68       ??_R4DNameStatusNode@@6B@  1007fa68     libvcruntime:undname.obj
 0002:0000fa80       ??_R3DNameStatusNode@@8    1007fa80     libvcruntime:undname.obj
 0002:0000fa94       ??_R2DNameStatusNode@@8    1007fa94     libvcruntime:undname.obj
 0002:0000faa0       ??_R1A@?0A@EA@DNameStatusNode@@8 1007faa0     libvcruntime:undname.obj
 0002:0000fac4       ??_R4pairNode@@6B@         1007fac4     libvcruntime:undname.obj
 0002:0000fadc       ??_R3pairNode@@8           1007fadc     libvcruntime:undname.obj
 0002:0000faf0       ??_R2pairNode@@8           1007faf0     libvcruntime:undname.obj
 0002:0000fafc       ??_R1A@?0A@EA@pairNode@@8  1007fafc     libvcruntime:undname.obj
 0002:0000fb20       ??_R4exception@std@@6B@    1007fb20     libvcruntime:frame.obj
 0002:0000fb38       ??_R3exception@std@@8      1007fb38     libvcruntime:frame.obj
 0002:0000fb4c       ??_R2exception@std@@8      1007fb4c     libvcruntime:frame.obj
 0002:0000fb54       ??_R1A@?0A@EA@exception@std@@8 1007fb54     libvcruntime:frame.obj
 0002:0000fb78       ??_R4bad_exception@std@@6B@ 1007fb78     libvcruntime:frame.obj
 0002:0000fb90       ??_R3bad_exception@std@@8  1007fb90     libvcruntime:frame.obj
 0002:0000fba4       ??_R2bad_exception@std@@8  1007fba4     libvcruntime:frame.obj
 0002:0000fbb0       ??_R1A@?0A@EA@bad_exception@std@@8 1007fbb0     libvcruntime:frame.obj
 0002:0000fbd4       ??_R4type_info@@6B@        1007fbd4     LIBCMT:std_type_info_static.obj
 0002:0000fbec       ??_R3type_info@@8          1007fbec     LIBCMT:std_type_info_static.obj
 0002:0000fc00       ??_R2type_info@@8          1007fc00     LIBCMT:std_type_info_static.obj
 0002:0000fc08       ??_R1A@?0A@EA@type_info@@8 1007fc08     LIBCMT:std_type_info_static.obj
 0002:0000fd40       ___safe_se_handler_table   1007fd40     <linker-defined>
 0002:00010094       ___rtc_iaa                 10080094     LIBCMT:initsect.obj
 0002:00010198       ___rtc_izz                 10080198     LIBCMT:initsect.obj
 0002:0001029c       ___rtc_taa                 1008029c     LIBCMT:initsect.obj
 0002:000103a0       ___rtc_tzz                 100803a0     LIBCMT:initsect.obj
 0002:00010678       __TI2?AVbad_exception@std@@ 10080678     libvcruntime:frame.obj
 0002:0001068c       __CTA2?AVbad_exception@std@@ 1008068c     libvcruntime:frame.obj
 0002:0001069c       __CT??_R0?AVbad_exception@std@@@8??0bad_exception@std@@QAE@ABV01@@Z12 1008069c     libvcruntime:frame.obj
 0002:000106bc       __CT??_R0?AVexception@std@@@8??0exception@std@@QAE@ABV01@@Z12 100806bc     libvcruntime:frame.obj
 0003:000002e0       _homing_ldm_aggiornat_P    100822e0     homing_ldm_aggiornat_data.obj
 0003:00000b60       _pci20041digout            10082b60     xpctarget.obj
 0003:00000b64       _nipcdio24cnfg             10082b64     xpctarget.obj
 0003:00000b68       _rtddm6604cnfg             10082b68     xpctarget.obj
 0003:00001240       _DefaultCOMIOBase          10083240     xpcruntime:xpcimports.obj
 0003:00001250       _DefaultCOMIRQ             10083250     xpcruntime:xpcimports.obj
 0003:00001268       __fltused                  10083268     LIBCMT:fltused.obj
 0003:00001270       ___isa_enabled             10083270     LIBCMT:cpu_disp.obj
 0003:00001274       ___security_cookie_complement 10083274     LIBCMT:gs_cookie.obj
 0003:00001278       ___security_cookie         10083278     LIBCMT:gs_cookie.obj
 0003:00001280       ___scrt_native_dllmain_reason 10083280     LIBCMT:utility.obj
 0003:000012a0       __NLG_Destination          100832a0     libvcruntime:exsup.obj
 0003:000012c0       __iob                      100832c0     libucrt:_file.obj
 0003:00001390       ___abort_behavior          10083390     libucrt:abort.obj
 0003:000013a0       ___badioinfo               100833a0     libucrt:ioinit.obj
 0003:000013e0       __lookuptrailbytes         100833e0     libucrt:read.obj
 0003:00001520       ___acrt_initial_locale_data 10083520     libucrt:nlsdata.obj
 0003:000015fc       ___acrt_initial_locale_pointers 100835fc     libucrt:nlsdata.obj
 0003:00001608       ___acrt_wide_c_locale_string 10083608     libucrt:nlsdata.obj
 0003:0000160c       ___mb_cur_max              1008360c     libucrt:nlsdata.obj
 0003:00001618       ___acrt_initial_multibyte_data 10083618     libucrt:mbctype.obj
 0003:00001c38       __pctype                   10083c38     libucrt:ctype.obj
 0003:00001c3c       __pwctype                  10083c3c     libucrt:ctype.obj
 0003:00001c40       ___globallocalestatus      10083c40     libucrt:glstatus.obj
 0003:00001c48       ___acrt_lconv_c            10083c48     libucrt:localeconv.obj
 0003:00001ca8       ___acrt_lconv              10083ca8     libucrt:localeconv.obj
 0003:00001cac       ___acrt_lconv_static_decimal 10083cac     libucrt:localeconv.obj
 0003:00001cb0       ___acrt_lconv_static_W_decimal 10083cb0     libucrt:localeconv.obj
 0003:00001e04       ??_R0?AVDNameNode@@@8      10083e04     libvcruntime:undname.obj
 0003:00001e20       ??_R0?AVcharNode@@@8       10083e20     libvcruntime:undname.obj
 0003:00001e3c       ??_R0?AVpcharNode@@@8      10083e3c     libvcruntime:undname.obj
 0003:00001e58       ??_R0?AVpDNameNode@@@8     10083e58     libvcruntime:undname.obj
 0003:00001e78       ??_R0?AVDNameStatusNode@@@8 10083e78     libvcruntime:undname.obj
 0003:00001e9c       ??_R0?AVpairNode@@@8       10083e9c     libvcruntime:undname.obj
 0003:00001eb8       ??_R0?AVbad_exception@std@@@8 10083eb8     libvcruntime:frame.obj
 0003:00001ee0       ??_R0?AVexception@std@@@8  10083ee0     libvcruntime:frame.obj
 0003:00001f04       ??_R0?AVbad_alloc@std@@@8  10083f04     libvcruntime:ehhelpers.obj
 0003:00001f28       ??_R0?AVtype_info@@@8      10083f28     LIBCMT:std_type_info_static.obj
 0003:000020c8       ___isa_available_default   100840c8     rt_logging.obj
 0003:000020cc       _pci20098PortA             100840cc     xpctarget.obj
 0003:000020d0       _pci20098PortB             100840d0     xpctarget.obj
 0003:000020d4       _siepowercan_firmware_initialized 100840d4     xpctarget.obj
 0003:000020d8       _siepowercan_port1_configured 100840d8     xpctarget.obj
 0003:000020dc       _siepowercan_port2_configured 100840dc     xpctarget.obj
 0003:000020e0       _CANAC2_FIRMWARE_LOADED    100840e0     xpctarget.obj
 0003:000020e4       _rs232ports                100840e4     xpctarget.obj
 0003:000020f4       _NI_AT_MIO_16F_5_commreg2  100840f4     xpctarget.obj
 0003:000020f8       _RTD_DM6430_init           100840f8     xpctarget.obj
 0003:000020fc       _RTD_DM6420_init           100840fc     xpctarget.obj
 0003:00002100       _CANAC2_FIRMWARE_LOADED_mb1 10084100     xpctarget.obj
 0003:00002104       _CANAC2_FIRMWARE_LOADED_mb2 10084104     xpctarget.obj
 0003:00002108       _CANAC2_FIRMWARE_LOADED_mb3 10084108     xpctarget.obj
 0003:0000210c       _xmlsize                   1008410c     xpctarget.obj
 0003:00002d0c       ___isa_available           10084d0c     LIBCMT:cpu_disp.obj
 0003:00002d10       ___favor                   10084d10     LIBCMT:cpu_disp.obj
 0003:00002d20       ?__type_info_root_node@@3U__type_info_node@@A 10084d20     LIBCMT:tncleanup.obj
 0003:00002d30       ?_OptionsStorage@?1??__local_stdio_printf_options@@9@4_KA 10084d30     LIBCMT:default_local_stdio_options.obj
 0003:00002d40       ?_OptionsStorage@?1??__local_stdio_scanf_options@@9@4_KA 10084d40     LIBCMT:default_local_stdio_options.obj
 0003:00002d4c       ___scrt_current_native_startup_state 10084d4c     LIBCMT:utility.obj
 0003:00002d50       ___scrt_native_startup_lock 10084d50     LIBCMT:utility.obj
 0003:00002d78       ___scrt_debugger_hook_flag 10084d78     LIBCMT:utility_desktop.obj
 0003:00002d7c       ?pArgList@UnDecorator@@0PAVReplicator@@A 10084d7c     libvcruntime:undname.obj
 0003:00002d80       ?pZNameList@UnDecorator@@0PAVReplicator@@A 10084d80     libvcruntime:undname.obj
 0003:00002d84       ?pTemplateArgList@UnDecorator@@0PAVReplicator@@A 10084d84     libvcruntime:undname.obj
 0003:00002d88       ?gName@UnDecorator@@0PBDB  10084d88     libvcruntime:undname.obj
 0003:00002d8c       ?name@UnDecorator@@0PBDB   10084d8c     libvcruntime:undname.obj
 0003:00002d90       ?disableFlags@UnDecorator@@0KA 10084d90     libvcruntime:undname.obj
 0003:00002d94       ?fExplicitTemplateParams@UnDecorator@@0_NA 10084d94     libvcruntime:undname.obj
 0003:00002d95       ?fGetTemplateArgumentList@UnDecorator@@0_NA 10084d95     libvcruntime:undname.obj
 0003:00002d98       ?m_pGetParameter@UnDecorator@@0P6APADJ@ZA 10084d98     libvcruntime:undname.obj
 0003:00002d9c       ?m_CHPENameOffset@UnDecorator@@0KA 10084d9c     libvcruntime:undname.obj
 0003:00002da0       ?m_recursionLevel@UnDecorator@@0KA 10084da0     libvcruntime:undname.obj
 0003:00002e40       ___pPurecall               10084e40     libvcruntime:purevirt_data.obj
 0003:00002e44       ?__WinRTOutOfMemoryExceptionCallback@@3P6GPAXXZA 10084e44     libvcruntime:ehhelpers.obj
 0003:00002e50       ?c_exit_complete@?1???R<lambda_6e4b09c48022b2350581041d5f6b0c4c>@@QBE@XZ@4_NA 10084e50     libucrt:exit.obj
 0003:00002e54       __nstream                  10084e54     libucrt:_file.obj
 0003:00002e58       ___piob                    10084e58     libucrt:_file.obj
 0003:00002e60       __cflush                   10084e60     libucrt:_file.obj
 0003:0000321c       __environ_table            1008521c     libucrt:environment_initialization.obj
 0003:00003220       __wenviron_table           10085220     libucrt:environment_initialization.obj
 0003:00003228       ___dcrt_initial_wide_environment 10085228     libucrt:environment_initialization.obj
 0003:0000322c       ___dcrt_initial_narrow_environment 1008522c     libucrt:environment_initialization.obj
 0003:00003230       ___acrt_atexit_table       10085230     libucrt:onexit.obj
 0003:00003240       ___acrt_at_quick_exit_table 10085240     libucrt:onexit.obj
 0003:00003c88       ___pioinfo                 10085c88     libucrt:ioinit.obj
 0003:00003ef0       __nhandle                  10085ef0     libucrt:ioinit.obj
 0003:00003ef4       ___acrt_stdout_buffer      10085ef4     libucrt:_sftbuf.obj
 0003:00003ef8       ___acrt_stderr_buffer      10085ef8     libucrt:_sftbuf.obj
 0003:00003efc       ___acrt_locale_changed_data 10085efc     libucrt:wsetlocale.obj
 0003:00003f00       ___acrt_current_locale_data 10085f00     libucrt:nlsdata.obj
 0003:00003f18       ___acrt_current_multibyte_data 10085f18     libucrt:mbctype.obj
 0003:00003f1c       __mbctype                  10085f1c     libucrt:mbctype.obj
 0003:00003f20       __mbcasemap                10085f20     libucrt:mbctype.obj
 0003:00003f2c       ___argc                    10085f2c     libucrt:argv_data.obj
 0003:00003f30       ___argv                    10085f30     libucrt:argv_data.obj
 0003:00003f34       ___wargv                   10085f34     libucrt:argv_data.obj
 0003:00003f38       __acmdln                   10085f38     libucrt:argv_data.obj
 0003:00003f3c       __wcmdln                   10085f3c     libucrt:argv_data.obj
 0003:00003f40       __pgmptr                   10085f40     libucrt:argv_data.obj
 0003:00003f44       __wpgmptr                  10085f44     libucrt:argv_data.obj
 0003:00003f48       ___acrt_heap               10085f48     libucrt:heap_handle.obj
 0003:00003f54       __commode                  10085f54     libucrt:ncommode.obj
 0003:00003f58       ___acrt_lconv_static_null  10085f58     libucrt:localeconv.obj
 0003:00003f5c       ___acrt_lconv_static_W_null 10085f5c     libucrt:localeconv.obj
 0003:00003f84       __umaskval                 10085f84     libucrt:umask.obj
 0003:00003f94       __fmode                    10085f94     libucrt:txtmode.obj
 0003:00003f98       ___fastflag                10085f98     libucrt:fp_flags.obj
 0003:00003fc0       _CANAC2_2_receiveindex_mb3 10085fc0     <common>
 0003:00007094       _CANAC2_2_receivemaxindex_mb3 10089094     <common>
 0003:000070a0       _CANAC2_2_sendindex_mb3    100890a0     <common>
 0003:000073c0       _CANAC2_2_sendmaxindex_mb3 100893c0     <common>
 0003:000073e0       _CANAC2_1_receiveindex_mb3 100893e0     <common>
 0003:00007700       _CANAC2_1_receivemaxindex_mb3 10089700     <common>
 0003:00007720       _CANAC2_1_sendindex_mb3    10089720     <common>
 0003:00007a40       _CANAC2_1_sendmaxindex_mb3 10089a40     <common>
 0003:00007a60       _CANAC2_2_receive_mb3      10089a60     <common>
 0003:00007d80       _CANAC2_2_send_mb3         10089d80     <common>
 0003:000080a0       _CANAC2_1_receive_mb3      1008a0a0     <common>
 0003:000083c0       _CANAC2_1_send_mb3         1008a3c0     <common>
 0003:000086e0       _CANAC2_2_receiveindex_mb2 1008a6e0     <common>
 0003:00008a00       _CANAC2_2_receivemaxindex_mb2 1008aa00     <common>
 0003:00008a20       _CANAC2_2_sendindex_mb2    1008aa20     <common>
 0003:00008d40       _CANAC2_2_sendmaxindex_mb2 1008ad40     <common>
 0003:00008d60       _CANAC2_1_receiveindex_mb2 1008ad60     <common>
 0003:00009080       _CANAC2_1_receivemaxindex_mb2 1008b080     <common>
 0003:000090a0       _CANAC2_1_sendindex_mb2    1008b0a0     <common>
 0003:000093c0       _CANAC2_1_sendmaxindex_mb2 1008b3c0     <common>
 0003:000093e0       _CANAC2_2_receive_mb2      1008b3e0     <common>
 0003:00009700       _CANAC2_2_send_mb2         1008b700     <common>
 0003:00009a20       _CANAC2_1_receive_mb2      1008ba20     <common>
 0003:00009d40       _CANAC2_1_send_mb2         1008bd40     <common>
 0003:0000a060       _CANAC2_2_receiveindex_mb1 1008c060     <common>
 0003:0000a380       _CANAC2_2_receivemaxindex_mb1 1008c380     <common>
 0003:0000a3a0       _CANAC2_2_sendindex_mb1    1008c3a0     <common>
 0003:0000a6c0       _CANAC2_2_sendmaxindex_mb1 1008c6c0     <common>
 0003:0000a6e0       _CANAC2_1_receiveindex_mb1 1008c6e0     <common>
 0003:0000aa00       _CANAC2_1_receivemaxindex_mb1 1008ca00     <common>
 0003:0000aa20       _CANAC2_1_sendindex_mb1    1008ca20     <common>
 0003:0000ad40       _CANAC2_1_sendmaxindex_mb1 1008cd40     <common>
 0003:0000ad60       _CANAC2_2_receive_mb1      1008cd60     <common>
 0003:0000b080       _CANAC2_2_send_mb1         1008d080     <common>
 0003:0000b3a0       _CANAC2_1_receive_mb1      1008d3a0     <common>
 0003:0000b6c0       _CANAC2_1_send_mb1         1008d6c0     <common>
 0003:0000b9e0       _CANAC2_2_receiveindex     1008d9e0     <common>
 0003:0000bd00       _CANAC2_2_receivemaxindex  1008dd00     <common>
 0003:0000bd20       _CANAC2_2_sendindex        1008dd20     <common>
 0003:0000c040       _CANAC2_2_sendmaxindex     1008e040     <common>
 0003:0000c060       _CANAC2_1_receiveindex     1008e060     <common>
 0003:0000c380       _CANAC2_1_receivemaxindex  1008e380     <common>
 0003:0000c3a0       _CANAC2_1_sendindex        1008e3a0     <common>
 0003:0000c6c0       _CANAC2_1_sendmaxindex     1008e6c0     <common>
 0003:0000c6e0       _CANAC2_2_receive          1008e6e0     <common>
 0003:0000ca00       _CANAC2_2_send             1008ea00     <common>
 0003:0000cd20       _CANAC2_1_receive          1008ed20     <common>
 0003:0000d040       _CANAC2_1_send             1008f040     <common>
 0003:0000d360       _siepowercan_can_object_buffer_port2 1008f360     <common>
 0003:00011380       _siepowercan_can_object_buffer_port1 10093380     <common>
 0003:00015380       ?_OptionsStorage@?1??__local_stdio_printf_options@@9@9 10097380     <common>
 0003:00015394       _rtNaNF                    10097394     <common>
 0003:000153a8       _rtMinusInfF               100973a8     <common>
 0003:000153ac       _rtInfF                    100973ac     <common>
 0003:000153b0       _rtNaN                     100973b0     <common>
 0003:000153b8       _rtMinusInf                100973b8     <common>
 0003:000153c0       _rtInf                     100973c0     <common>
 0003:000153e0       _homing_ldm_aggiornat_M_   100973e0     <common>
 0003:00018420       _homing_ldm_aggiornat_DW   1009a420     <common>
 0003:000186c0       _homing_ldm_aggiornat_B    1009a6c0     <common>
 0003:00018810       _CloseClientSocket         1009a810     <common>
 0003:00018878       _ConnectClientSocket       1009a878     <common>
 0003:0001887c       _BindClientSocket          1009a87c     <common>
 0003:00018880       _CreateClientSocket        1009a880     <common>
 0003:00018884       _CloseServerSocket         1009a884     <common>
 0003:00018888       _ConnectServerSocket       1009a888     <common>
 0003:0001888c       _OpenServerListen          1009a88c     <common>
 0003:00018890       _CreateServerSocket        1009a890     <common>
 0003:00018894       _SocketReceive             1009a894     <common>
 0003:00018898       _SocketSend                1009a898     <common>
 0003:0001889c       _GetSocketState            1009a89c     <common>
 0003:000188a0       _GetSocket                 1009a8a0     <common>
 0003:000188a4       _socket                    1009a8a4     <common>
 0003:000188a8       _inet_addr                 1009a8a8     <common>
 0003:000188ac       _sendto                    1009a8ac     <common>
 0003:000188b0       _recvfrom                  1009a8b0     <common>
 0003:000188b4       _listen                    1009a8b4     <common>
 0003:000188b8       _ioctlsocket               1009a8b8     <common>
 0003:000188bc       _connect                   1009a8bc     <common>
 0003:000188c0       _closesocket               1009a8c0     <common>
 0003:000188c4       _setsockopt                1009a8c4     <common>
 0003:000188c8       _bind                      1009a8c8     <common>
 0003:000188cc       _accept                    1009a8cc     <common>
 0003:000188d0       _GetHostTarIPAdd           1009a8d0     <common>
 0003:000188d4       _GetDCUUsage               1009a8d4     <common>
 0003:000188d8       _DeleteRoute               1009a8d8     <common>
 0003:000188dc       _AddGatewayRoute           1009a8dc     <common>
 0003:000188e0       _SetIP                     1009a8e0     <common>
 0003:000188e4       _CloseInterface            1009a8e4     <common>
 0003:000188e8       _OpenInterface             1009a8e8     <common>
 0003:000188ec       _SetIPTASKPriority         1009a8ec     <common>
 0003:000188f0       _isUsedByRTIP              1009a8f0     <common>
 0003:000188f4       _slrtWarning               1009a8f4     <common>
 0003:000188f8       _slrtGetCPUTCelsius        1009a8f8     <common>
 0003:000188fc       _geterrorstring            1009a8fc     <common>
 0003:00018900       _getlasterror              1009a900     <common>
 0003:00018904       _slrtLogEvent              1009a904     <common>
 0003:00018908       _slrtGetDefaultDrive       1009a908     <common>
 0003:0001890c       _slrtfsFread               1009a90c     <common>
 0003:00018910       _slrtfsGetFileStatus       1009a910     <common>
 0003:00018914       _slrtfsOpenFileAsync       1009a914     <common>
 0003:00018918       _slrtfsCloseFileAsync      1009a918     <common>
 0003:0001891c       _slrtfsGetFileErrorMessage 1009a91c     <common>
 0003:00018920       _slrtfsGetFileError        1009a920     <common>
 0003:00018924       _slrtfsWriteToFile         1009a924     <common>
 0003:00018928       _slrtfsCloseFile           1009a928     <common>
 0003:0001892c       _slrtfsOpenFile            1009a92c     <common>
 0003:00018930       _slrtGetSgCRBSpace         1009a930     <common>
 0003:00018934       _slrtGetCRBScratchSpace    1009a934     <common>
 0003:00018938       _slrteSetupMSI             1009a938     <common>
 0003:0001893c       _slTestRegAssessment       1009a93c     <common>
 0003:00018940       _slTestTerminate           1009a940     <common>
 0003:00018944       _slTestEvalOnFail          1009a944     <common>
 0003:00018948       _slTestLogAssessments      1009a948     <common>
 0003:0001894c       _slTestInitialize          1009a94c     <common>
 0003:00018950       _unRegisterPTPTimeRead     1009a950     <common>
 0003:00018954       _registerPTPTimeRead       1009a954     <common>
 0003:00018958       _slrteGetCurrentStepSize   1009a958     <common>
 0003:0001895c       _slrteSetStepSizeDelta     1009a95c     <common>
 0003:00018960       _xpceGetIntTimerGranularityNS 1009a960     <common>
 0003:00018964       _xpceDAQUpdateTimeStamp    1009a964     <common>
 0003:00018968       _xpceDAQPostEvent          1009a968     <common>
 0003:0001896c       _StreamVideo               1009a96c     <common>
 0003:00018970       _StopVideoDisplay          1009a970     <common>
 0003:00018974       _StartVideoDisplay         1009a974     <common>
 0003:00018978       _DestroyVideoDisplay       1009a978     <common>
 0003:0001897c       _CreateVideoDisplay        1009a97c     <common>
 0003:00018980       _ConvertUImage             1009a980     <common>
 0003:00018984       _StopVideo                 1009a984     <common>
 0003:00018988       _ReadFrameBuffer           1009a988     <common>
 0003:0001898c       _StartVideo                1009a98c     <common>
 0003:00018990       _GetVideoConfigs           1009a990     <common>
 0003:00018994       _FindUsbVideoDevice        1009a994     <common>
 0003:00018998       _xpceDeleteSemaphore       1009a998     <common>
 0003:0001899c       _xpceSignalSemaphore       1009a99c     <common>
 0003:000189a0       _xpceWaitSemaphore         1009a9a0     <common>
 0003:000189a4       _xpceCreateSemaphore       1009a9a4     <common>
 0003:000189a8       _TBGiveSpinFast            1009a9a8     <common>
 0003:000189ac       _TBTakeSpinFast            1009a9ac     <common>
 0003:000189b0       _TBDeleteSpin              1009a9b0     <common>
 0003:000189b4       _TBCreateSpin              1009a9b4     <common>
 0003:000189b8       _xpceScopeAcqOK            1009a9b8     <common>
 0003:000189bc       _rl32eRestartAcquisition   1009a9bc     <common>
 0003:000189c0       _rl32eSetTargetScopeSigFt  1009a9c0     <common>
 0003:000189c4       _rl32eSetTargetScope       1009a9c4     <common>
 0003:000189c8       _xpceFSScopeSet            1009a9c8     <common>
 0003:000189cc       _rl32eSetScope             1009a9cc     <common>
 0003:000189d0       _rl32eAddSignal            1009a9d0     <common>
 0003:000189d4       _rl32eGetSignalNo          1009a9d4     <common>
 0003:000189d8       _rl32eDefScope             1009a9d8     <common>
 0003:000189dc       _rl32eScopeExists          1009a9dc     <common>
 0003:000189e0       _xpceGetParamDims          1009a9e0     <common>
 0003:000189e4       _xpceGetParameter          1009a9e4     <common>
 0003:000189e8       _xpceSetParameter          1009a9e8     <common>
 0003:000189ec       _xpceGetSignalValue        1009a9ec     <common>
 0003:000189f0       _xpceAssignPCIInterrupt    1009a9f0     <common>
 0003:000189f4       _rl32eGetPCIInfoAtSlot     1009a9f4     <common>
 0003:000189f8       _rl32eGetPCIInfo           1009a9f8     <common>
 0003:000189fc       _rl32eShowPCIInfo          1009a9fc     <common>
 0003:00018a00       _rl32eShowPCIDev           1009aa00     <common>
 0003:00018a04       _xpceGetTET                1009aa04     <common>
 0003:00018a08       _xpceaddEvent              1009aa08     <common>
 0003:00018a0c       _xpceDeRegisterISR         1009aa0c     <common>
 0003:00018a10       _xpceRegisterISR           1009aa10     <common>
 0003:00018a14       _xpcIsModelInit            1009aa14     <common>
 0003:00018a18       _xpcGetElapsedTime         1009aa18     <common>
 0003:00018a1c       _xpcBusyWait               1009aa1c     <common>
 0003:00018a20       _xpcFreePhysicalMemory     1009aa20     <common>
 0003:00018a24       _xpcAllocPhysicalMemory    1009aa24     <common>
 0003:00018a28       _xpcReserveMemoryRegion    1009aa28     <common>
 0003:00018a2c       _xpcOutpB                  1009aa2c     <common>
 0003:00018a30       _xpcOutpW                  1009aa30     <common>
 0003:00018a34       _xpcOutpDW                 1009aa34     <common>
 0003:00018a38       _xpcInpB                   1009aa38     <common>
 0003:00018a3c       _xpcInpW                   1009aa3c     <common>
 0003:00018a40       _xpcInpDW                  1009aa40     <common>
 0003:00018a44       ___scrt_ucrt_dll_is_in_use 1009aa44     <common>
 0003:00018a50       ___dyn_tls_init_callback   1009aa50     <common>
 0003:00018a5c       __pmatherr                 1009aa5c     <common>
 0003:00018a68       ___use_sse2_mathfcns       1009aa68     <common>
 0004:00000000       __imp__GetModuleHandleA@4  1009b000     kernel32:KERNEL32.dll
 0004:00000004       __imp__GetProcAddress@8    1009b004     kernel32:KERNEL32.dll
 0004:00000008       __imp__UnhandledExceptionFilter@4 1009b008     kernel32:KERNEL32.dll
 0004:0000000c       __imp__SetUnhandledExceptionFilter@4 1009b00c     kernel32:KERNEL32.dll
 0004:00000010       __imp__GetCurrentProcess@0 1009b010     kernel32:KERNEL32.dll
 0004:00000014       __imp__TerminateProcess@8  1009b014     kernel32:KERNEL32.dll
 0004:00000018       __imp__IsProcessorFeaturePresent@4 1009b018     kernel32:KERNEL32.dll
 0004:0000001c       __imp__QueryPerformanceCounter@4 1009b01c     kernel32:KERNEL32.dll
 0004:00000020       __imp__GetCurrentProcessId@0 1009b020     kernel32:KERNEL32.dll
 0004:00000024       __imp__GetCurrentThreadId@0 1009b024     kernel32:KERNEL32.dll
 0004:00000028       __imp__GetSystemTimeAsFileTime@4 1009b028     kernel32:KERNEL32.dll
 0004:0000002c       __imp__InitializeSListHead@4 1009b02c     kernel32:KERNEL32.dll
 0004:00000030       __imp__IsDebuggerPresent@0 1009b030     kernel32:KERNEL32.dll
 0004:00000034       __imp__GetStartupInfoW@4   1009b034     kernel32:KERNEL32.dll
 0004:00000038       __imp__GetModuleHandleW@4  1009b038     kernel32:KERNEL32.dll
 0004:0000003c       __imp__SetEndOfFile@4      1009b03c     kernel32:KERNEL32.dll
 0004:00000040       __imp__InterlockedPushEntrySList@8 1009b040     kernel32:KERNEL32.dll
 0004:00000044       __imp__InterlockedFlushSList@4 1009b044     kernel32:KERNEL32.dll
 0004:00000048       __imp__RtlUnwind@16        1009b048     kernel32:KERNEL32.dll
 0004:0000004c       __imp__GetLastError@0      1009b04c     kernel32:KERNEL32.dll
 0004:00000050       __imp__SetLastError@4      1009b050     kernel32:KERNEL32.dll
 0004:00000054       __imp__EnterCriticalSection@4 1009b054     kernel32:KERNEL32.dll
 0004:00000058       __imp__LeaveCriticalSection@4 1009b058     kernel32:KERNEL32.dll
 0004:0000005c       __imp__DeleteCriticalSection@4 1009b05c     kernel32:KERNEL32.dll
 0004:00000060       __imp__InitializeCriticalSectionAndSpinCount@8 1009b060     kernel32:KERNEL32.dll
 0004:00000064       __imp__TlsAlloc@0          1009b064     kernel32:KERNEL32.dll
 0004:00000068       __imp__TlsGetValue@4       1009b068     kernel32:KERNEL32.dll
 0004:0000006c       __imp__TlsSetValue@8       1009b06c     kernel32:KERNEL32.dll
 0004:00000070       __imp__TlsFree@4           1009b070     kernel32:KERNEL32.dll
 0004:00000074       __imp__FreeLibrary@4       1009b074     kernel32:KERNEL32.dll
 0004:00000078       __imp__LoadLibraryExW@12   1009b078     kernel32:KERNEL32.dll
 0004:0000007c       __imp__EncodePointer@4     1009b07c     kernel32:KERNEL32.dll
 0004:00000080       __imp__RaiseException@16   1009b080     kernel32:KERNEL32.dll
 0004:00000084       __imp__GetStdHandle@4      1009b084     kernel32:KERNEL32.dll
 0004:00000088       __imp__GetFileType@4       1009b088     kernel32:KERNEL32.dll
 0004:0000008c       __imp__GetModuleFileNameW@12 1009b08c     kernel32:KERNEL32.dll
 0004:00000090       __imp__GetModuleHandleExW@12 1009b090     kernel32:KERNEL32.dll
 0004:00000094       __imp__WriteConsoleW@20    1009b094     kernel32:KERNEL32.dll
 0004:00000098       __imp__ExitProcess@4       1009b098     kernel32:KERNEL32.dll
 0004:0000009c       __imp__HeapAlloc@12        1009b09c     kernel32:KERNEL32.dll
 0004:000000a0       __imp__HeapFree@12         1009b0a0     kernel32:KERNEL32.dll
 0004:000000a4       __imp__WriteFile@20        1009b0a4     kernel32:KERNEL32.dll
 0004:000000a8       __imp__OutputDebugStringW@4 1009b0a8     kernel32:KERNEL32.dll
 0004:000000ac       __imp__SetConsoleCtrlHandler@8 1009b0ac     kernel32:KERNEL32.dll
 0004:000000b0       __imp__HeapReAlloc@16      1009b0b0     kernel32:KERNEL32.dll
 0004:000000b4       __imp__GetDateFormatW@24   1009b0b4     kernel32:KERNEL32.dll
 0004:000000b8       __imp__GetTimeFormatW@24   1009b0b8     kernel32:KERNEL32.dll
 0004:000000bc       __imp__CompareStringW@24   1009b0bc     kernel32:KERNEL32.dll
 0004:000000c0       __imp__LCMapStringW@24     1009b0c0     kernel32:KERNEL32.dll
 0004:000000c4       __imp__GetLocaleInfoW@16   1009b0c4     kernel32:KERNEL32.dll
 0004:000000c8       __imp__IsValidLocale@8     1009b0c8     kernel32:KERNEL32.dll
 0004:000000cc       __imp__GetUserDefaultLCID@0 1009b0cc     kernel32:KERNEL32.dll
 0004:000000d0       __imp__EnumSystemLocalesW@8 1009b0d0     kernel32:KERNEL32.dll
 0004:000000d4       __imp__CloseHandle@4       1009b0d4     kernel32:KERNEL32.dll
 0004:000000d8       __imp__ReadFile@20         1009b0d8     kernel32:KERNEL32.dll
 0004:000000dc       __imp__GetConsoleMode@8    1009b0dc     kernel32:KERNEL32.dll
 0004:000000e0       __imp__ReadConsoleW@20     1009b0e0     kernel32:KERNEL32.dll
 0004:000000e4       __imp__GetConsoleCP@0      1009b0e4     kernel32:KERNEL32.dll
 0004:000000e8       __imp__MultiByteToWideChar@24 1009b0e8     kernel32:KERNEL32.dll
 0004:000000ec       __imp__GetCurrentThread@0  1009b0ec     kernel32:KERNEL32.dll
 0004:000000f0       __imp__DeleteFileW@4       1009b0f0     kernel32:KERNEL32.dll
 0004:000000f4       __imp__SetFilePointerEx@20 1009b0f4     kernel32:KERNEL32.dll
 0004:000000f8       __imp__FindClose@4         1009b0f8     kernel32:KERNEL32.dll
 0004:000000fc       __imp__FindFirstFileExW@24 1009b0fc     kernel32:KERNEL32.dll
 0004:00000100       __imp__FindNextFileW@8     1009b100     kernel32:KERNEL32.dll
 0004:00000104       __imp__IsValidCodePage@4   1009b104     kernel32:KERNEL32.dll
 0004:00000108       __imp__GetACP@0            1009b108     kernel32:KERNEL32.dll
 0004:0000010c       __imp__GetOEMCP@0          1009b10c     kernel32:KERNEL32.dll
 0004:00000110       __imp__GetCPInfo@8         1009b110     kernel32:KERNEL32.dll
 0004:00000114       __imp__GetCommandLineA@0   1009b114     kernel32:KERNEL32.dll
 0004:00000118       __imp__GetCommandLineW@0   1009b118     kernel32:KERNEL32.dll
 0004:0000011c       __imp__WideCharToMultiByte@32 1009b11c     kernel32:KERNEL32.dll
 0004:00000120       __imp__GetEnvironmentStringsW@0 1009b120     kernel32:KERNEL32.dll
 0004:00000124       __imp__FreeEnvironmentStringsW@4 1009b124     kernel32:KERNEL32.dll
 0004:00000128       __imp__SetEnvironmentVariableW@8 1009b128     kernel32:KERNEL32.dll
 0004:0000012c       __imp__GetProcessHeap@0    1009b12c     kernel32:KERNEL32.dll
 0004:00000130       __imp__FlushFileBuffers@4  1009b130     kernel32:KERNEL32.dll
 0004:00000134       __imp__SetStdHandle@8      1009b134     kernel32:KERNEL32.dll
 0004:00000138       __imp__CreateFileW@28      1009b138     kernel32:KERNEL32.dll
 0004:0000013c       __imp__GetStringTypeW@16   1009b13c     kernel32:KERNEL32.dll
 0004:00000140       __imp__HeapSize@12         1009b140     kernel32:KERNEL32.dll
 0004:00000144       __imp__DecodePointer@4     1009b144     kernel32:KERNEL32.dll
 0004:00000148       \177KERNEL32_NULL_THUNK_DATA 1009b148     kernel32:KERNEL32.dll
 0004:000001b4       __IMPORT_DESCRIPTOR_KERNEL32 1009b1b4     kernel32:KERNEL32.dll
 0004:000001c8       __NULL_IMPORT_DESCRIPTOR   1009b1c8     kernel32:KERNEL32.dll
 0005:00000000       ___guard_check_icall_fptr  1009c000     LIBCMT:guard_support.obj

 entry point at        0001:00001d51

 Static symbols

 0000:fff64000       __guard_fids_??R<lambda_1f3ce6bd48e0aa2e72a71c02eee379d3>@@QBEHXZ 10000000     libucrt:winapi_thunks.obj
 0000:fff64000       __guard_fids_??B<lambda_29d3c280b90b41c2ae070ffca879996a>@@QBEP6GHPA_W@ZXZ 10000000     libucrt:winapi_thunks.obj
 0000:fff64000       __guard_fids__             10000000     LIBCMT:guard_support.obj
 0000:fff64000       __guard_fids_?enum_system_locales_ex_nolock@@YAHQ6GHPA_WKJ@Z@Z 10000000     libucrt:winapi_thunks.obj
 0000:fff64000       __guard_fids__             10000000     libucrt:stdio_initializer.obj
 0000:fff5f000       .debug$S                   10000000     kernel32:KERNEL32.dll
 0000:fff64000       __guard_fids__signal       10000000     libucrt:signal.obj
 0000:fff64000       __guard_fids____acrt_initialize_ptd 10000000     libucrt:per_thread_data.obj
 0000:fff64000       __guard_fids__             10000000     libucrt:wsetlocale.obj
 0000:fff64000       __guard_fids_?get_terminate_or_default@@YAP6AXXZQBU__acrt_ptd@@@Z 10000000     libucrt:terminate.obj
 0000:fff5f000       .debug$S                   10000000     homing_ldm_aggiornat_slrt.exp
 0000:fff64000       __guard_fids___get_terminate 10000000     libucrt:terminate.obj
 0000:fff64000       __guard_fids__set_terminate 10000000     libucrt:terminate.obj
 0000:fff64000       __guard_fids__             10000000     libucrt:initialization.obj
 0000:fff64000       __guard_fids____dcrt_uninitialize_environments_nolock 10000000     libucrt:environment_initialization.obj
 0000:fff64000       __guard_fids_??$expand_argument_wildcards@D@@YAHQAD0AAV?$argument_list@D@?A0x5f5c8891@@@Z 10000000     libucrt:argv_wildcards.obj
 0000:fff64000       __guard_fids_??$expand_argument_wildcards@_W@@YAHQA_W0AAV?$argument_list@_W@?A0x5f5c8891@@@Z 10000000     libucrt:argv_wildcards.obj
 0000:fff64000       __guard_fids_??B<lambda_86056e3c024bff449830248dc1621ed2>@@QBEP6AHPBX0@ZXZ 10000000     libucrt:argv_wildcards.obj
 0000:fff64000       __guard_fids_??B<lambda_601ce2808d07e6dd980fd6da59ab4158>@@QBEP6AHPBX0@ZXZ 10000000     libucrt:argv_wildcards.obj
 0000:fff64000       __guard_fids____scrt_set_unhandled_exception_filter 10000000     LIBCMT:utility_desktop.obj
 0000:fff5f000       .debug$S                   10000000     kernel32:KERNEL32.dll
 0000:fff5f000       .debug$S                   10000000     kernel32:KERNEL32.dll
 0000:fff5f000       .debug$S                   10000000     kernel32:KERNEL32.dll
 0000:fff5f000       .debug$S                   10000000     kernel32:KERNEL32.dll
 0000:fff5f000       .debug$S                   10000000     kernel32:KERNEL32.dll
 0000:fff5f000       .debug$S                   10000000     kernel32:KERNEL32.dll
 0000:fff5f000       .debug$S                   10000000     kernel32:KERNEL32.dll
 0000:fff5f000       .debug$S                   10000000     kernel32:KERNEL32.dll
 0000:fff5f000       .debug$S                   10000000     kernel32:KERNEL32.dll
 0000:fff5f000       .debug$S                   10000000     kernel32:KERNEL32.dll
 0000:fff5f000       .debug$S                   10000000     kernel32:KERNEL32.dll
 0000:fff5f000       .debug$S                   10000000     kernel32:KERNEL32.dll
 0000:fff5f000       .debug$S                   10000000     kernel32:KERNEL32.dll
 0000:fff5f000       .debug$S                   10000000     kernel32:KERNEL32.dll
 0000:fff5f000       .debug$S                   10000000     kernel32:KERNEL32.dll
 0000:fff5f000       .debug$S                   10000000     kernel32:KERNEL32.dll
 0000:fff5f000       .debug$S                   10000000     kernel32:KERNEL32.dll
 0000:fff5f000       .debug$S                   10000000     kernel32:KERNEL32.dll
 0000:fff5f000       .debug$S                   10000000     kernel32:KERNEL32.dll
 0000:fff5f000       .debug$S                   10000000     kernel32:KERNEL32.dll
 0000:fff5f000       .debug$S                   10000000     kernel32:KERNEL32.dll
 0000:fff5f000       .debug$S                   10000000     kernel32:KERNEL32.dll
 0000:fff5f000       .debug$S                   10000000     kernel32:KERNEL32.dll
 0000:fff5f000       .debug$S                   10000000     kernel32:KERNEL32.dll
 0000:fff5f000       .debug$S                   10000000     kernel32:KERNEL32.dll
 0000:fff5f000       .debug$S                   10000000     kernel32:KERNEL32.dll
 0000:fff5f000       .debug$S                   10000000     kernel32:KERNEL32.dll
 0000:fff5f000       .debug$S                   10000000     kernel32:KERNEL32.dll
 0000:fff5f000       .debug$S                   10000000     kernel32:KERNEL32.dll
 0000:fff5f000       .debug$S                   10000000     kernel32:KERNEL32.dll
 0000:fff5f000       .debug$S                   10000000     kernel32:KERNEL32.dll
 0000:fff5f000       .debug$S                   10000000     kernel32:KERNEL32.dll
 0000:fff5f000       .debug$S                   10000000     kernel32:KERNEL32.dll
 0000:fff5f000       .debug$S                   10000000     kernel32:KERNEL32.dll
 0000:fff5f000       .debug$S                   10000000     kernel32:KERNEL32.dll
 0000:fff5f000       .debug$S                   10000000     kernel32:KERNEL32.dll
 0000:fff5f000       .debug$S                   10000000     kernel32:KERNEL32.dll
 0000:fff5f000       .debug$S                   10000000     kernel32:KERNEL32.dll
 0000:fff5f000       .debug$S                   10000000     kernel32:KERNEL32.dll
 0000:fff5f000       .debug$S                   10000000     kernel32:KERNEL32.dll
 0000:fff5f000       .debug$S                   10000000     kernel32:KERNEL32.dll
 0000:fff5f000       .debug$S                   10000000     kernel32:KERNEL32.dll
 0000:fff5f000       .debug$S                   10000000     kernel32:KERNEL32.dll
 0000:fff5f000       .debug$S                   10000000     kernel32:KERNEL32.dll
 0000:fff5f000       .debug$S                   10000000     kernel32:KERNEL32.dll
 0000:fff5f000       .debug$S                   10000000     kernel32:KERNEL32.dll
 0000:fff5f000       .debug$S                   10000000     kernel32:KERNEL32.dll
 0000:fff5f000       .debug$S                   10000000     kernel32:KERNEL32.dll
 0000:fff5f000       .debug$S                   10000000     kernel32:KERNEL32.dll
 0000:fff5f000       .debug$S                   10000000     kernel32:KERNEL32.dll
 0000:fff5f000       .debug$S                   10000000     kernel32:KERNEL32.dll
 0000:fff5f000       .debug$S                   10000000     kernel32:KERNEL32.dll
 0000:fff5f000       .debug$S                   10000000     kernel32:KERNEL32.dll
 0000:fff5f000       .debug$S                   10000000     kernel32:KERNEL32.dll
 0000:fff5f000       .debug$S                   10000000     kernel32:KERNEL32.dll
 0000:fff5f000       .debug$S                   10000000     kernel32:KERNEL32.dll
 0000:fff5f000       .debug$S                   10000000     kernel32:KERNEL32.dll
 0000:fff5f000       .debug$S                   10000000     kernel32:KERNEL32.dll
 0000:fff5f000       .debug$S                   10000000     kernel32:KERNEL32.dll
 0000:fff5f000       .debug$S                   10000000     kernel32:KERNEL32.dll
 0000:fff5f000       .debug$S                   10000000     kernel32:KERNEL32.dll
 0000:fff5f000       .debug$S                   10000000     kernel32:KERNEL32.dll
 0000:fff5f000       .debug$S                   10000000     kernel32:KERNEL32.dll
 0000:fff5f000       .debug$S                   10000000     kernel32:KERNEL32.dll
 0000:fff5f000       .debug$S                   10000000     kernel32:KERNEL32.dll
 0000:fff5f000       .debug$S                   10000000     kernel32:KERNEL32.dll
 0000:fff5f000       .debug$S                   10000000     kernel32:KERNEL32.dll
 0000:fff64000       __guard_fids__GetLocaleNameFromLangCountry 10000000     libucrt:get_qualified_locale.obj
 0000:fff64000       __guard_fids__GetLocaleNameFromLanguage 10000000     libucrt:get_qualified_locale.obj
 0000:fff64000       __guard_fids__GetLcidFromLangCountry 10000000     libucrt:getqloc_downlevel.obj
 0000:fff64000       __guard_fids__GetLcidFromLanguage 10000000     libucrt:getqloc_downlevel.obj
 0000:fff64000       __guard_fids__GetLcidFromCountry 10000000     libucrt:getqloc_downlevel.obj
 0000:fff64000       __guard_fids__             10000000     libucrt:locale_initializer.obj
 0000:fff64000       __guard_fids__             10000000     libvcruntime:ehhelpers.obj
 0000:fff64000       __guard_fids_?get_unexpected_or_default@@YAP6AXXZQBU__vcrt_ptd@@@Z 10000000     libvcruntime:unexpected.obj
 0000:fff64000       __guard_fids__             10000000     LIBCMT:std_type_info_static.obj
 0000:fff64000       __guard_fids___get_unexpected 10000000     libvcruntime:unexpected.obj
 0000:fff64000       __guard_fids__set_unexpected 10000000     libvcruntime:unexpected.obj
 0000:fff64000       __guard_fids__             10000000     libvcruntime:frame.obj
 0000:fff64000       __guard_fids__             10000000     libvcruntime:frame.obj
 0000:fff64000       __guard_fids__             10000000     libvcruntime:frame.obj
 0000:fff64000       __guard_fids__             10000000     libvcruntime:frame.obj
 0000:fff64000       __guard_fids_??$__acrt_mbs_to_wcs@U__crt_win32_buffer_internal_dynamic_resizing@@@@YAHQBDAAV?$__crt_win32_buffer@_WU__crt_win32_buffer_internal_dynamic_resizing@@@@PAU__crt_locale_pointers@@@Z 10000000     libucrt:findfirstfileexa.obj
 0000:fff64000       __guard_fids____acrt_FindNextFileA 10000000     libucrt:findnextfilea.obj
 0000:fff64000       __guard_fids__             10000000     libucrt:sse2_initializer.obj
 0000:fff64000       __guard_fids_??$__acrt_wcs_to_mbs@U__crt_win32_buffer_no_resizing@@@@YAHQB_WAAV?$__crt_win32_buffer@DU__crt_win32_buffer_no_resizing@@@@PAU__crt_locale_pointers@@@Z 10000000     libucrt:findnextfilea.obj
 0000:fff64000       __guard_fids__             10000000     libvcruntime:frame.obj
 0000:fff64000       __guard_fids__             10000000     libucrt:multibyte_initializer.obj
 0000:fff64000       __guard_fids_??$__acrt_mbs_to_wcs@U__crt_win32_buffer_internal_dynamic_resizing@@@@YAHQBDAAV?$__crt_win32_buffer@_WU__crt_win32_buffer_internal_dynamic_resizing@@@@PAU__crt_locale_pointers@@@Z 10000000     libucrt:setenvironmentvariablea.obj
 0000:fff64000       __guard_fids____vcrt_initialize_ptd 10000000     libvcruntime:per_thread_data.obj
 0000:fff64000       __guard_fids__             10000000     libvcruntime:undname.obj
 0000:fff64000       __guard_fids__             10000000     libvcruntime:undname.obj
 0000:fff64000       __guard_fids__             10000000     libvcruntime:undname.obj
 0000:fff64000       __guard_fids__             10000000     libvcruntime:undname.obj
 0000:fff64000       __guard_fids__             10000000     libvcruntime:undname.obj
 0000:fff64000       __guard_fids____libm_error_support 10000000     libucrt:libm_error.obj
 0000:fff64000       __guard_fids__             10000000     libucrt:console_output_initializer.obj
 0000:fff64000       __guard_fids__             10000000     libvcruntime:undname.obj
 0000:fff64000       __guard_fids____except_validate_jump_buffer 10000000     libvcruntime:jbcxrval.obj
 0000:fff64000       __guard_fids____except_validate_jump_buffer_common 10000000     libvcruntime:jbcxrval.obj
 0000:fff64000       __guard_fids____except_validate_context_record 10000000     libvcruntime:jbcxrval.obj
 0000:fff64000       __guard_fids___guard_icall_checks_enforced 10000000     libvcruntime:jbcxrval.obj
 0000:fff64000       __guard_fids__             10000000     libvcruntime:jbcxrval.obj
 0000:fff64000       __guard_fids_??B<lambda_02a71323d951a238fa4826e9f186893b>@@QBEP6AXQAX@ZXZ 10000000     libvcruntime:std_type_info.obj
 0000:fff64000       __guard_fids_??B<lambda_cea3005bd909f0fdd45a57e92f4e3309>@@QBEP6APAXI@ZXZ 10000000     libvcruntime:std_type_info.obj
 0000:fff64000       __guard_fids____std_type_info_name 10000000     libvcruntime:std_type_info.obj
 0000:fff5f000       .debug$S                   10000000     kernel32:KERNEL32.dll
 0000:fff5f000       .debug$S                   10000000     kernel32:KERNEL32.dll
 0000:fff5f000       .debug$S                   10000000     kernel32:KERNEL32.dll
 0000:fff5f000       .debug$S                   10000000     kernel32:KERNEL32.dll
 0000:fff5f000       .debug$S                   10000000     kernel32:KERNEL32.dll
 0000:fff5f000       .debug$S                   10000000     kernel32:KERNEL32.dll
 0000:fff5f000       .debug$S                   10000000     kernel32:KERNEL32.dll
 0000:fff5f000       .debug$S                   10000000     kernel32:KERNEL32.dll
 0000:fff5f000       .debug$S                   10000000     kernel32:KERNEL32.dll
 0000:fff5f000       .debug$S                   10000000     kernel32:KERNEL32.dll
 0000:fff5f000       .debug$S                   10000000     kernel32:KERNEL32.dll
 0000:fff64000       __guard_fids_?dllmain_dispatch@@YAHQAUHINSTANCE__@@KQAX@Z 10000000     LIBCMT:dll_dllmain.obj
 0000:fff5f000       .debug$S                   10000000     kernel32:KERNEL32.dll
 0000:fff5f000       .debug$S                   10000000     kernel32:KERNEL32.dll
 0000:fff5f000       .debug$S                   10000000     kernel32:KERNEL32.dll
 0000:fff64000       __guard_fids___guard_icall_checks_enforced 10000000     LIBCMT:guard_support.obj
 0000:fff64004       __guard_fids__             10000004     libucrt:stdio_initializer.obj
 0001:000083c0       _homing_ldm_aggiornat_initialize 100093c0 f   homing_ldm_aggiornat.obj
 0001:00008590       _homing_ldm_aggiornat_output 10009590 f   homing_ldm_aggiornat.obj
 0001:00008d10       _homing_ldm_aggiornat_terminate 10009d10 f   homing_ldm_aggiornat.obj
 0001:00008dc0       _homing_ldm_aggiornat_update 10009dc0 f   homing_ldm_aggiornat.obj
 0001:0000a22c       $LN20                      1000b22c     rtw_modelmap_utils.obj
 0001:0000af00       _local_CreateStructLogVar  1000bf00 f   rt_logging.obj
 0001:0000be40       _rt_DestroyLogVar          1000ce40 f   rt_logging.obj
 0001:0000bf50       _rt_DestroyStructLogVar    1000cf50 f   rt_logging.obj
 0001:0000c170       _rt_FixupLogVar            1000d170 f   rt_logging.obj
 0001:0000c730       _rt_GetActualDTypeID       1000d730 f   rt_logging.obj
 0001:0000c740       _rt_GetDataTypeConvertInfo 1000d740 f   rt_logging.obj
 0001:0000c7c0       _rt_GetDblValueFromOverSizedData 1000d7c0 f   rt_logging.obj
 0001:0000ca70       _rt_GetMatIdFromMxId       1000da70 f   rt_logging.obj
 0001:0000cad4       $LN19                      1000dad4     rt_logging.obj
 0001:0000cbb0       _rt_GetNonBoolMxIdFromDTypeId 1000dbb0 f   rt_logging.obj
 0001:0000cc00       $LN27                      1000dc00     rt_logging.obj
 0001:0000cc40       _rt_GetSizeofComplexType   1000dc40 f   rt_logging.obj
 0001:0000cc80       $LN15                      1000dc80     rt_logging.obj
 0001:0000ccc0       _rt_GetSizeofDataType      1000dcc0 f   rt_logging.obj
 0001:0000ccf0       $LN16                      1000dcf0     rt_logging.obj
 0001:0000cd30       _rt_InitSignalsStruct      1000dd30 f   rt_logging.obj
 0001:0000e310       _rt_LoadModifiedLogVarName 1000f310 f   rt_logging.obj
 0001:0000e410       _rt_ProcessMatItem         1000f410 f   rt_logging.obj
 0001:0000f034       $LN413                     10010034     rt_logging.obj
 0001:0000f044       $LN414                     10010044     rt_logging.obj
 0001:0000f3b0       _rt_ReallocLogVar          100103b0 f   rt_logging.obj
 0001:0000f760       _rt_StartDataLoggingForOutput 10010760 f   rt_logging.obj
 0001:00011080       $LN222                     10012080     rt_logging.obj
 0001:000110a4       $LN223                     100120a4     rt_logging.obj
 0001:000110c8       $LN224                     100120c8     rt_logging.obj
 0001:000110ec       $LN225                     100120ec     rt_logging.obj
 0001:00011110       $LN226                     10012110     rt_logging.obj
 0001:00011470       _rt_UpdateLogVarWithDiscontiguousData 10012470 f   rt_logging.obj
 0001:000119f0       _rt_WriteItemToMatFile     100129f0 f   rt_logging.obj
 0001:00011b30       _rt_WriteMat5FileHeader    10012b30 f   rt_logging.obj
 0001:00012130       _mdlInitializeSampleTimes  10013130 f   danipcim.obj
 0001:00012170       _mdlInitializeSizes        10013170 f   danipcim.obj
 0001:000122c0       _mdlOutputs                100132c0 f   danipcim.obj
 0001:000123b0       _mdlStart                  100133b0 f   danipcim.obj
 0001:00012790       _mdlTerminate              10013790 f   danipcim.obj
 0001:000128f0       _mdlInitializeSampleTimes  100138f0 f   dinipcim.obj
 0001:00012980       _mdlInitializeSizes        10013980 f   dinipcim.obj
 0001:00012ac0       _mdlOutputs                10013ac0 f   dinipcim.obj
 0001:00012b70       _mdlStart                  10013b70 f   dinipcim.obj
 0001:00012c50       _mdlTerminate              10013c50 f   dinipcim.obj
 0001:00012cb0       _mdlInitializeSampleTimes  10013cb0 f   donipcim.obj
 0001:00012d40       _mdlInitializeSizes        10013d40 f   donipcim.obj
 0001:00012e90       _mdlOutputs                10013e90 f   donipcim.obj
 0001:00012f80       _mdlStart                  10013f80 f   donipcim.obj
 0001:00013060       _mdlTerminate              10014060 f   donipcim.obj
 0001:000131c0       _mdlInitializeSampleTimes  100141c0 f   encnipcim.obj
 0001:00013250       _mdlInitializeSizes        10014250 f   encnipcim.obj
 0001:00013360       _mdlOutputs                10014360 f   encnipcim.obj
 0001:000133d0       _mdlStart                  100143d0 f   encnipcim.obj
 0001:00013790       _mdlTerminate              10014790 f   encnipcim.obj
 0001:000137d0       _getCalibrationAreaOffset  100147d0 f   xpcionim.obj
 0001:000137f0       _getF32FromEeprom          100147f0 f   xpcionim.obj
 0001:000142d0       $LN16                      100152d0     xpcionim.obj
 0001:00015280       _getPciDevice              10016280 f   xpcruntime:xpcimports.obj
 0001:00015620       _getPciDeviceAtSlot        10016620 f   xpcruntime:xpcimports.obj
 0001:00017000       $$000000                   10018000     LIBCMT:ftol3.obj
 0001:00017a37       ?dllmain_crt_dispatch@@YGHQAUHINSTANCE__@@KQAX@Z 10018a37 f   LIBCMT:dll_dllmain.obj
 0001:00017a9e       ?dllmain_crt_process_attach@@YAHQAUHINSTANCE__@@QAX@Z 10018a9e f   LIBCMT:dll_dllmain.obj
 0001:00017bea       ?dllmain_crt_process_detach@@YAH_N@Z 10018bea f   LIBCMT:dll_dllmain.obj
 0001:00017ca0       ?dllmain_dispatch@@YAHQAUHINSTANCE__@@KQAX@Z 10018ca0 f   LIBCMT:dll_dllmain.obj
 0001:00017de7       ?dllmain_raw@@YGHQAUHINSTANCE__@@KQAX@Z 10018de7 f   LIBCMT:dll_dllmain.obj
 0001:00017e52       ___get_entropy             10018e52 f   LIBCMT:gs_support.obj
 0001:00017fb4       ?find_pe_section@@YAPAU_IMAGE_SECTION_HEADER@@QAEI@Z 10018fb4 f   LIBCMT:utility.obj
 0001:0001800e       ?is_potentially_valid_image_base@@YA_NQAX@Z 1001900e f   LIBCMT:utility.obj
 0001:00018730       $$000000                   10019730     LIBCMT:sehprolg4.obj
 0001:00018840       $$000000                   10019840     libvcruntime:memset.obj
 0001:000189f0       $$000000                   100199f0     libvcruntime:memcpy.obj
 0001:00018c54       TrailingUpVec              10019c54     libvcruntime:memcpy.obj
 0001:00018d00       TrailingDownVec            10019d00     libvcruntime:memcpy.obj
 0001:000190d0       $$000000                   1001a0d0     libvcruntime:strchr.obj
 0001:00019250       $$000000                   1001a250     libvcruntime:memmove.obj
 0001:000194b4       TrailingUpVec              1001a4b4     libvcruntime:memmove.obj
 0001:00019560       TrailingDownVec            1001a560     libvcruntime:memmove.obj
 0001:00019930       _ValidateLocalCookies      1001a930 f   libvcruntime:chandler4.obj
 0001:00019b1c       ?<lambda_invoker_cdecl>@<lambda_02a71323d951a238fa4826e9f186893b>@@CAXQAX@Z 1001ab1c f   libvcruntime:std_type_info.obj
 0001:00019b21       ?<lambda_invoker_cdecl>@<lambda_cea3005bd909f0fdd45a57e92f4e3309>@@CAPAXI@Z 1001ab21 f   libvcruntime:std_type_info.obj
 0001:00019bc0       ??B<lambda_02a71323d951a238fa4826e9f186893b>@@QBEP6AXQAX@ZXZ 1001abc0 f   libvcruntime:std_type_info.obj
 0001:00019bc6       ??B<lambda_cea3005bd909f0fdd45a57e92f4e3309>@@QBEP6APAXI@ZXZ 1001abc6 f   libvcruntime:std_type_info.obj
 0001:00019bda       ??R<lambda_02a71323d951a238fa4826e9f186893b>@@QBEXQAX@Z 1001abda f   libvcruntime:std_type_info.obj
 0001:00019bee       ??R<lambda_cea3005bd909f0fdd45a57e92f4e3309>@@QBEPAXI@Z 1001abee f   libvcruntime:std_type_info.obj
 0001:00019e65       _init_memcpy_functions     1001ae65 f   libvcruntime:initialization.obj
 0001:00019e70       $$000000                   1001ae70     libvcruntime:exsup4.obj
 0001:00019f00       __unwind_handler4          1001af00 f   libvcruntime:exsup4.obj
 0001:0001a030       ___except_get_jumpbuf_sp   1001b030 f   libvcruntime:jbcxrval.obj
 0001:0001a459       ??0TrackRecursion@?1??getDecoratedName@UnDecorator@@CA?AVDName@@XZ@QAE@XZ 1001b459 f   libvcruntime:undname.obj
 0001:0001a5a4       ??1TrackRecursion@?1??getDecoratedName@UnDecorator@@CA?AVDName@@XZ@QAE@XZ 1001b5a4 f   libvcruntime:undname.obj
 0001:0001c661       $LN116                     1001d661     libvcruntime:undname.obj
 0001:0001c679       $LN107                     1001d679     libvcruntime:undname.obj
 0001:0001d946       $LN35                      1001e946     libvcruntime:undname.obj
 0001:0001e9d6       $LN217                     1001f9d6     libvcruntime:undname.obj
 0001:0001e9e2       $LN202                     1001f9e2     libvcruntime:undname.obj
 0001:000207cb       $LN129                     100217cb     libvcruntime:undname.obj
 0001:0002119b       ?und_memcpy@@YAXPADPBDI@Z  1002219b f   libvcruntime:undname.obj
 0001:000211c4       ?und_strlen@@YAIPBD@Z      100221c4 f   libvcruntime:undname.obj
 0001:000211de       ?und_strncmp@@YAIPBD0I@Z   100221de f   libvcruntime:undname.obj
 0001:000213ff       ??0scoped_get_last_error_reset@?A0x0f06e3f6@@QAE@XZ 100223ff f   libvcruntime:per_thread_data.obj
 0001:00021425       ??1scoped_get_last_error_reset@?A0x0f06e3f6@@QAE@XZ 10022425 f   libvcruntime:per_thread_data.obj
 0001:0002145b       ?store_and_initialize_ptd@@YA_NQAU__vcrt_ptd@@@Z 1002245b f   libvcruntime:per_thread_data.obj
 0001:0002179b       ?invalid_function_sentinel@@YAPAXXZ 1002279b f   libvcruntime:winapi_downlevel.obj
 0001:0002179f       ?try_get_FlsAlloc@@YAP6GKP6GXPAX@Z@ZXZ 1002279f f   libvcruntime:winapi_downlevel.obj
 0001:000217bf       ?try_get_FlsFree@@YAP6GHK@ZXZ 100227bf f   libvcruntime:winapi_downlevel.obj
 0001:000217df       ?try_get_FlsGetValue@@YAP6GPAXK@ZXZ 100227df f   libvcruntime:winapi_downlevel.obj
 0001:000217ff       ?try_get_FlsSetValue@@YAP6GHKPAX@ZXZ 100227ff f   libvcruntime:winapi_downlevel.obj
 0001:0002181f       ?try_get_InitializeCriticalSectionEx@@YAP6GHPAU_RTL_CRITICAL_SECTION@@KK@ZXZ 1002281f f   libvcruntime:winapi_downlevel.obj
 0001:0002183f       ?try_get_first_available_module@@YAPAUHINSTANCE__@@QBW4module_id@?A0x5c520fe1@@0@Z 1002283f f   libvcruntime:winapi_downlevel.obj
 0001:00021934       ?try_get_function@@YAPAXW4function_id@?A0x5c520fe1@@QBDQBW4module_id@2@2@Z 10022934 f   libvcruntime:winapi_downlevel.obj
 0001:000219be       ?try_get_module@@YAPAUHINSTANCE__@@W4module_id@?A0x5c520fe1@@@Z 100229be f   libvcruntime:winapi_downlevel.obj
 0001:00021a20       ?try_get_proc_address_from_first_available_module@@YAPAXQBDQBW4module_id@?A0x5c520fe1@@1@Z 10022a20 f   libvcruntime:winapi_downlevel.obj
 0001:00021a4a       ?try_load_library_from_system_directory@@YAPAUHINSTANCE__@@QB_W@Z 10022a4a f   libvcruntime:winapi_downlevel.obj
 0001:00021cf0       $$000000                   10022cf0     libvcruntime:exsup.obj
 0001:00021d11       __unwind_handler           10022d11 f   libvcruntime:exsup.obj
 0001:000224b6       ??$BuildCatchObjectHelperInternal@V__FrameHandler3@@@@YAHPAUEHExceptionRecord@@PAXPBU_s_HandlerType@@PBU_s_CatchableType@@@Z 100234b6 f   libvcruntime:frame.obj
 0001:00022644       ??$BuildCatchObjectInternal@V__FrameHandler3@@@@YAXPAUEHExceptionRecord@@PAXPBU_s_HandlerType@@PBU_s_CatchableType@@@Z 10023644 f   libvcruntime:frame.obj
 0001:00022703       ??$CatchIt@V__FrameHandler3@@@@YAXPAUEHExceptionRecord@@PAUEHRegistrationNode@@PAU_CONTEXT@@PAXPBU_s_FuncInfo@@PBU_s_HandlerType@@PBU_s_CatchableType@@PBU_s_TryBlockMapEntry@@H1E@Z 10023703 f   libvcruntime:frame.obj
 0001:000227a3       ??$FindHandler@V__FrameHandler3@@@@YAXPAUEHExceptionRecord@@PAUEHRegistrationNode@@PAU_CONTEXT@@PAXPBU_s_FuncInfo@@EH1@Z 100237a3 f   libvcruntime:frame.obj
 0001:00022c14       ??$FindHandlerForForeignException@V__FrameHandler3@@@@YAXPAUEHExceptionRecord@@PAUEHRegistrationNode@@PAU_CONTEXT@@PAXPBU_s_FuncInfo@@HH1@Z 10023c14 f   libvcruntime:frame.obj
 0001:00023183       ?CallCatchBlock@@YAPAXPAUEHExceptionRecord@@PAUEHRegistrationNode@@PAU_CONTEXT@@PBU_s_FuncInfo@@PAXHK@Z 10024183 f   libvcruntime:frame.obj
 0001:000233b8       ?CallUnexpected@@YAXPBU_s_ESTypeList@@@Z 100243b8 f   libvcruntime:frame.obj
 0001:000233d8       __catch$?CallUnexpected@@YAXPBU_s_ESTypeList@@@Z$0 100243d8 f   libvcruntime:frame.obj
 0001:00023400       ?ExFilterRethrow@@YAHPAU_EXCEPTION_POINTERS@@@Z 10024400 f   libvcruntime:frame.obj
 0001:000235a9       ?IsInExceptionSpec@@YAEPAUEHExceptionRecord@@PBU_s_ESTypeList@@@Z 100245a9 f   libvcruntime:frame.obj
 0001:00023669       ?Is_bad_exception_allowed@@YAEPBU_s_ESTypeList@@@Z 10024669 f   libvcruntime:frame.obj
 0001:000237e0       $$000000                   100247e0     libvcruntime:lowhelpr.obj
 0001:0002383f       ?get_unexpected_or_default@@YAP6AXXZQBU__vcrt_ptd@@@Z 1002483f f   libvcruntime:unexpected.obj
 0001:00023db9       ??$common_assert@D@@YAXQBD0IQAX@Z 10024db9 f   libucrt:assert.obj
 0001:00023dfb       ??$common_assert@_W@@YAXQB_W0IQAX@Z 10024dfb f   libucrt:assert.obj
 0001:00023e3d       ??$common_assert_to_message_box@D@@YAXQBD0IQAX@Z 10024e3d f   libucrt:assert.obj
 0001:00023f00       ??$common_assert_to_message_box@_W@@YAXQB_W0IQAX@Z 10024f00 f   libucrt:assert.obj
 0001:00023fc3       ??$common_assert_to_message_box_build_string@D@@YAXQADIQBD1IQAX@Z 10024fc3 f   libucrt:assert.obj
 0001:0002459a       ??$common_assert_to_message_box_build_string@_W@@YAXQA_WIQB_W1IQAX@Z 1002559a f   libucrt:assert.obj
 0001:00024c28       ??$common_assert_to_stderr@D@@YAXQBD0I@Z 10025c28 f   libucrt:assert.obj
 0001:00024cb7       ??$common_assert_to_stderr@_W@@YAXQB_W0I@Z 10025cb7 f   libucrt:assert.obj
 0001:000251e5       ?common_assert_to_stderr_direct@@YAXPBD0I@Z 100261e5 f   libucrt:assert.obj
 0001:000251e6       ?common_assert_to_stderr_direct@@YAXQB_W0I@Z 100261e6 f   libucrt:assert.obj
 0001:000252c3       ?get_assert_format@@YAPBDD@Z 100262c3 f   libucrt:assert.obj
 0001:000252c9       ?get_assert_format@@YAPB_W_W@Z 100262c9 f   libucrt:assert.obj
 0001:000252cf       ?get_banner_text@@YAPBDD@Z 100262cf f   libucrt:assert.obj
 0001:000252d5       ?get_banner_text@@YAPB_W_W@Z 100262d5 f   libucrt:assert.obj
 0001:000252db       ?get_box_intro@@YAPBDD@Z   100262db f   libucrt:assert.obj
 0001:000252e1       ?get_box_intro@@YAPB_W_W@Z 100262e1 f   libucrt:assert.obj
 0001:000252e7       ?get_dot_dot_dot@@YAPBDD@Z 100262e7 f   libucrt:assert.obj
 0001:000252ed       ?get_dot_dot_dot@@YAPB_W_W@Z 100262ed f   libucrt:assert.obj
 0001:000252f3       ?get_double_newline@@YAPBDD@Z 100262f3 f   libucrt:assert.obj
 0001:000252f9       ?get_double_newline@@YAPB_W_W@Z 100262f9 f   libucrt:assert.obj
 0001:000252ff       ?get_expression_intro@@YAPBDD@Z 100262ff f   libucrt:assert.obj
 0001:00025305       ?get_expression_intro@@YAPB_W_W@Z 10026305 f   libucrt:assert.obj
 0001:0002530b       ?get_file_intro@@YAPBDD@Z  1002630b f   libucrt:assert.obj
 0001:00025311       ?get_file_intro@@YAPB_W_W@Z 10026311 f   libucrt:assert.obj
 0001:0002531d       ?get_help_intro@@YAPBDD@Z  1002631d f   libucrt:assert.obj
 0001:00025323       ?get_help_intro@@YAPB_W_W@Z 10026323 f   libucrt:assert.obj
 0001:00025329       ?get_info_intro@@YAPBDD@Z  10026329 f   libucrt:assert.obj
 0001:0002532f       ?get_info_intro@@YAPB_W_W@Z 1002632f f   libucrt:assert.obj
 0001:00025335       ?get_line_intro@@YAPBDD@Z  10026335 f   libucrt:assert.obj
 0001:0002533b       ?get_line_intro@@YAPB_W_W@Z 1002633b f   libucrt:assert.obj
 0001:00025341       ?get_newline@@YAPBDD@Z     10026341 f   libucrt:assert.obj
 0001:00025347       ?get_newline@@YAPB_W_W@Z   10026347 f   libucrt:assert.obj
 0001:0002534d       ?get_program_intro@@YAPBDD@Z 1002634d f   libucrt:assert.obj
 0001:00025353       ?get_program_intro@@YAPB_W_W@Z 10026353 f   libucrt:assert.obj
 0001:00025359       ?get_program_name_unknown_text@@YAPBDD@Z 10026359 f   libucrt:assert.obj
 0001:0002535f       ?get_program_name_unknown_text@@YAPB_W_W@Z 1002635f f   libucrt:assert.obj
 0001:000254f6       _memcpy_s                  100264f6 f   libucrt:assert.obj
 0001:000255e7       ??$?RV<lambda_03b1d95aef87969028cfba75ccab2455>@@AAV<lambda_6e4b09c48022b2350581041d5f6b0c4c>@@V<lambda_22bdf7517842c4b3e53723af5aa32b9e>@@@?$__crt_seh_guarded_call@X@@QAEX$$QAV<lambda_03b1d95aef87969028cfba75ccab2455>@@AAV<lambda_6e4b09c48022b2350581041d5f6b0c4c>@@$$QAV<lambda_22bdf7517842c4b3e53723af5aa32b9e>@@@Z 100265e7 f   libucrt:exit.obj
 0001:0002563a       ??$__acrt_lock_and_call@V<lambda_6e4b09c48022b2350581041d5f6b0c4c>@@@@YAXW4__acrt_lock_id@@$$QAV<lambda_6e4b09c48022b2350581041d5f6b0c4c>@@@Z 1002663a f   libucrt:exit.obj
 0001:000256c4       ??0<lambda_03b1d95aef87969028cfba75ccab2455>@@QAE@ABW4__acrt_lock_id@@@Z 100266c4 f   libucrt:exit.obj
 0001:000256da       ??0<lambda_22bdf7517842c4b3e53723af5aa32b9e>@@QAE@ABW4__acrt_lock_id@@@Z 100266da f   libucrt:exit.obj
 0001:000256f0       ??0<lambda_6e4b09c48022b2350581041d5f6b0c4c>@@QAE@ABW4_crt_exit_cleanup_mode@@ABW4_crt_exit_return_mode@@AA_N@Z 100266f0 f   libucrt:exit.obj
 0001:00025743       ??R<lambda_03b1d95aef87969028cfba75ccab2455>@@QBEXXZ 10026743 f   libucrt:exit.obj
 0001:0002574e       ??R<lambda_22bdf7517842c4b3e53723af5aa32b9e>@@QBEXXZ 1002674e f   libucrt:exit.obj
 0001:00025759       ??R<lambda_6e4b09c48022b2350581041d5f6b0c4c>@@QBE@XZ 10026759 f   libucrt:exit.obj
 0001:00025870       ?atexit_exception_filter@@YAHK@Z 10026870 f   libucrt:exit.obj
 0001:000258bd       ?common_exit@@YAXHW4_crt_exit_cleanup_mode@@W4_crt_exit_return_mode@@@Z 100268bd f   libucrt:exit.obj
 0001:0002593c       ?exit_or_terminate_process@@YAXI@Z 1002693c f   libucrt:exit.obj
 0001:00025997       ?is_managed_app@@YA_NXZ    10026997 f   libucrt:exit.obj
 0001:000259ec       ?should_call_terminate_process@@YA_NXZ 100269ec f   libucrt:exit.obj
 0001:00025a11       ?try_cor_exit_process@@YAXI@Z 10026a11 f   libucrt:exit.obj
 0001:00025b90       $$000000                   10026b90     libucrt:strncat.obj
 0001:00025d20       $$000000                   10026d20     libucrt:strncpy.obj
 0001:00026230       ??$common_fopen_s@D@@YAHQAPAU_iobuf@@QBD1@Z 10027230 f   libucrt:fopen.obj
 0001:00026288       ??$common_fopen_s@_W@@YAHQAPAU_iobuf@@QB_W1@Z 10027288 f   libucrt:fopen.obj
 0001:000262e0       ??$common_fsopen@D@@YAPAU_iobuf@@QBD0H@Z 100272e0 f   libucrt:fopen.obj
 0001:000263b8       ??$common_fsopen@_W@@YAPAU_iobuf@@QB_W0H@Z 100273b8 f   libucrt:fopen.obj
 0001:00026988       _memcpy_s                  10027988 f   libucrt:fread.obj
 0001:00026a29       ??$?RV<lambda_cd3bfd923e8d1349099e544c97b1bd8e>@@AAV<lambda_54dcfcba6f8e0c549fa430f4d53fb7dd>@@V<lambda_5e1d0fa2aa2b73b187bf8b7e1d30c7f8>@@@?$__crt_seh_guarded_call@I@@QAEI$$QAV<lambda_cd3bfd923e8d1349099e544c97b1bd8e>@@AAV<lambda_54dcfcba6f8e0c549fa430f4d53fb7dd>@@$$QAV<lambda_5e1d0fa2aa2b73b187bf8b7e1d30c7f8>@@@Z 10027a29 f   libucrt:fwrite.obj
 0001:00026a8e       ??$__acrt_lock_stream_and_call@V<lambda_54dcfcba6f8e0c549fa430f4d53fb7dd>@@@@YAIQAU_iobuf@@$$QAV<lambda_54dcfcba6f8e0c549fa430f4d53fb7dd>@@@Z 10027a8e f   libucrt:fwrite.obj
 0001:00026ac0       ??0<lambda_54dcfcba6f8e0c549fa430f4d53fb7dd>@@QAE@ABQAU_iobuf@@ABQBXABI2@Z 10027ac0 f   libucrt:fwrite.obj
 0001:00026aea       ??0<lambda_5e1d0fa2aa2b73b187bf8b7e1d30c7f8>@@QAE@ABQAU_iobuf@@@Z 10027aea f   libucrt:fwrite.obj
 0001:00026b00       ??0<lambda_cd3bfd923e8d1349099e544c97b1bd8e>@@QAE@ABQAU_iobuf@@@Z 10027b00 f   libucrt:fwrite.obj
 0001:00026b4d       ??R<lambda_54dcfcba6f8e0c549fa430f4d53fb7dd>@@QBEIXZ 10027b4d f   libucrt:fwrite.obj
 0001:00026ba3       ??R<lambda_5e1d0fa2aa2b73b187bf8b7e1d30c7f8>@@QBEXXZ 10027ba3 f   libucrt:fwrite.obj
 0001:00026bae       ??R<lambda_cd3bfd923e8d1349099e544c97b1bd8e>@@QBEXXZ 10027bae f   libucrt:fwrite.obj
 0001:00026e1d       ??$__acrt_convert_wcs_mbs_cp@D_WV<lambda_62f6974d9771e494a5ea317cc32e971c>@@U__crt_win32_buffer_internal_dynamic_resizing@@@@YAHQBDAAV?$__crt_win32_buffer@_WU__crt_win32_buffer_internal_dynamic_resizing@@@@ABV<lambda_62f6974d9771e494a5ea317cc32e971c>@@I@Z 10027e1d f   libucrt:unlink.obj
 0001:00026fbf       ??R<lambda_62f6974d9771e494a5ea317cc32e971c>@@QBEHIQBDQA_WI@Z 10027fbf f   libucrt:unlink.obj
 0001:00027600       ??$?RV<lambda_3a2a6cca1b0f7007a3db339dcecd1562>@@AAV<lambda_e38011a3ba6e07c7dbcef4d549f26102>@@V<lambda_b2332a2b562101f3c3c34baab19e0511>@@@?$__crt_seh_guarded_call@H@@QAEH$$QAV<lambda_3a2a6cca1b0f7007a3db339dcecd1562>@@AAV<lambda_e38011a3ba6e07c7dbcef4d549f26102>@@$$QAV<lambda_b2332a2b562101f3c3c34baab19e0511>@@@Z 10028600 f   libucrt:output.obj
 0001:00027665       ??$?RV<lambda_75d23329f2fb3d02b2e1cf5509bb1caf>@@AAV<lambda_c4f131f91cb4ec00a5b0a26aa161b8b4>@@V<lambda_114dc79c86b00c313cb0b6b3b001aaf8>@@@?$__crt_seh_guarded_call@H@@QAEH$$QAV<lambda_75d23329f2fb3d02b2e1cf5509bb1caf>@@AAV<lambda_c4f131f91cb4ec00a5b0a26aa161b8b4>@@$$QAV<lambda_114dc79c86b00c313cb0b6b3b001aaf8>@@@Z 10028665 f   libucrt:output.obj
 0001:000276ca       ??$?RV<lambda_80d7abc6eae2375db70be92ccaaf9b57>@@AAV<lambda_df52180bf14694d51fdefd82613e8f07>@@V<lambda_4fa1155033dff2042363dba4e2dc3802>@@@?$__crt_seh_guarded_call@H@@QAEH$$QAV<lambda_80d7abc6eae2375db70be92ccaaf9b57>@@AAV<lambda_df52180bf14694d51fdefd82613e8f07>@@$$QAV<lambda_4fa1155033dff2042363dba4e2dc3802>@@@Z 100286ca f   libucrt:output.obj
 0001:0002772f       ??$?RV<lambda_b4329732a1a72698597872ef534ad66d>@@AAV<lambda_96392db5b14a27f72535a2156da24b09>@@V<lambda_0f47277b42e3e84c3311fed419af0b3c>@@@?$__crt_seh_guarded_call@H@@QAEH$$QAV<lambda_b4329732a1a72698597872ef534ad66d>@@AAV<lambda_96392db5b14a27f72535a2156da24b09>@@$$QAV<lambda_0f47277b42e3e84c3311fed419af0b3c>@@@Z 1002872f f   libucrt:output.obj
 0001:00027794       ??$?RV<lambda_b7f50223258ab9fcc98080d45d02b1a4>@@AAV<lambda_42506531d319a600ce771deb5a236a10>@@V<lambda_31f843250ba6188c6e1f35d2bec6db0e>@@@?$__crt_seh_guarded_call@H@@QAEH$$QAV<lambda_b7f50223258ab9fcc98080d45d02b1a4>@@AAV<lambda_42506531d319a600ce771deb5a236a10>@@$$QAV<lambda_31f843250ba6188c6e1f35d2bec6db0e>@@@Z 10028794 f   libucrt:output.obj
 0001:000277f9       ??$?RV<lambda_cc35d49d909def412005bd38ddc96b77>@@AAV<lambda_d6a382b8dd98a6801a8abd6c28bdff2d>@@V<lambda_148068cfb9786d9714740654406e93d5>@@@?$__crt_seh_guarded_call@H@@QAEH$$QAV<lambda_cc35d49d909def412005bd38ddc96b77>@@AAV<lambda_d6a382b8dd98a6801a8abd6c28bdff2d>@@$$QAV<lambda_148068cfb9786d9714740654406e93d5>@@@Z 100287f9 f   libucrt:output.obj
 0001:0002785e       ??$__acrt_lock_stream_and_call@V<lambda_42506531d319a600ce771deb5a236a10>@@@@YAHQAU_iobuf@@$$QAV<lambda_42506531d319a600ce771deb5a236a10>@@@Z 1002885e f   libucrt:output.obj
 0001:00027890       ??$__acrt_lock_stream_and_call@V<lambda_96392db5b14a27f72535a2156da24b09>@@@@YAHQAU_iobuf@@$$QAV<lambda_96392db5b14a27f72535a2156da24b09>@@@Z 10028890 f   libucrt:output.obj
 0001:000278c2       ??$__acrt_lock_stream_and_call@V<lambda_c4f131f91cb4ec00a5b0a26aa161b8b4>@@@@YAHQAU_iobuf@@$$QAV<lambda_c4f131f91cb4ec00a5b0a26aa161b8b4>@@@Z 100288c2 f   libucrt:output.obj
 0001:000278f4       ??$__acrt_lock_stream_and_call@V<lambda_d6a382b8dd98a6801a8abd6c28bdff2d>@@@@YAHQAU_iobuf@@$$QAV<lambda_d6a382b8dd98a6801a8abd6c28bdff2d>@@@Z 100288f4 f   libucrt:output.obj
 0001:00027926       ??$__acrt_lock_stream_and_call@V<lambda_df52180bf14694d51fdefd82613e8f07>@@@@YAHQAU_iobuf@@$$QAV<lambda_df52180bf14694d51fdefd82613e8f07>@@@Z 10028926 f   libucrt:output.obj
 0001:00027958       ??$__acrt_lock_stream_and_call@V<lambda_e38011a3ba6e07c7dbcef4d549f26102>@@@@YAHQAU_iobuf@@$$QAV<lambda_e38011a3ba6e07c7dbcef4d549f26102>@@@Z 10028958 f   libucrt:output.obj
 0001:0002798a       ??$common_vfprintf@Vformat_validation_base@__crt_stdio_output@@D@@YAH_KQAU_iobuf@@QBDQAU__crt_locale_pointers@@QAD@Z 1002898a f   libucrt:output.obj
 0001:00027a09       ??$common_vfprintf@Vformat_validation_base@__crt_stdio_output@@_W@@YAH_KQAU_iobuf@@QB_WQAU__crt_locale_pointers@@QAD@Z 10028a09 f   libucrt:output.obj
 0001:00027a88       ??$common_vfprintf@Vpositional_parameter_base@__crt_stdio_output@@D@@YAH_KQAU_iobuf@@QBDQAU__crt_locale_pointers@@QAD@Z 10028a88 f   libucrt:output.obj
 0001:00027b07       ??$common_vfprintf@Vpositional_parameter_base@__crt_stdio_output@@_W@@YAH_KQAU_iobuf@@QB_WQAU__crt_locale_pointers@@QAD@Z 10028b07 f   libucrt:output.obj
 0001:00027b86       ??$common_vfprintf@Vstandard_base@__crt_stdio_output@@D@@YAH_KQAU_iobuf@@QBDQAU__crt_locale_pointers@@QAD@Z 10028b86 f   libucrt:output.obj
 0001:00027c05       ??$common_vfprintf@Vstandard_base@__crt_stdio_output@@_W@@YAH_KQAU_iobuf@@QB_WQAU__crt_locale_pointers@@QAD@Z 10028c05 f   libucrt:output.obj
 0001:00027c84       ??$common_vsnprintf_s@D@@YAH_KQADIIQBDQAU__crt_locale_pointers@@1@Z 10028c84 f   libucrt:output.obj
 0001:00027dac       ??$common_vsnprintf_s@_W@@YAH_KQA_WIIQB_WQAU__crt_locale_pointers@@QAD@Z 10028dac f   libucrt:output.obj
 0001:00027ed9       ??$common_vsprintf@Vformat_validation_base@__crt_stdio_output@@D@@YAH_KQADIQBDQAU__crt_locale_pointers@@1@Z 10028ed9 f   libucrt:output.obj
 0001:000280b9       ??$common_vsprintf@Vformat_validation_base@__crt_stdio_output@@_W@@YAH_KQA_WIQB_WQAU__crt_locale_pointers@@QAD@Z 100290b9 f   libucrt:output.obj
 0001:000282a4       ??$common_vsprintf@Vpositional_parameter_base@__crt_stdio_output@@D@@YAH_KQADIQBDQAU__crt_locale_pointers@@1@Z 100292a4 f   libucrt:output.obj
 0001:000284c2       ??$common_vsprintf@Vpositional_parameter_base@__crt_stdio_output@@_W@@YAH_KQA_WIQB_WQAU__crt_locale_pointers@@QAD@Z 100294c2 f   libucrt:output.obj
 0001:000286eb       ??$common_vsprintf@Vstandard_base@__crt_stdio_output@@D@@YAH_KQADIQBDQAU__crt_locale_pointers@@1@Z 100296eb f   libucrt:output.obj
 0001:000288cb       ??$common_vsprintf@Vstandard_base@__crt_stdio_output@@_W@@YAH_KQA_WIQB_WQAU__crt_locale_pointers@@QAD@Z 100298cb f   libucrt:output.obj
 0001:00028ab6       ??$common_vsprintf_s@D@@YAH_KQADIQBDQAU__crt_locale_pointers@@1@Z 10029ab6 f   libucrt:output.obj
 0001:00028b4c       ??$common_vsprintf_s@_W@@YAH_KQA_WIQB_WQAU__crt_locale_pointers@@QAD@Z 10029b4c f   libucrt:output.obj
 0001:0002a38b       ??$extract_argument_from_va_list@PAUansi_string@?1??type_case_Z@?$output_processor@DV?$stream_output_adapter@D@__crt_stdio_output@@V?$format_validation_base@DV?$stream_output_adapter@D@__crt_stdio_output@@@2@@__crt_stdio_output@@AAE_NXZ@PAU1?1??234@AAE_NXZ@@?$standard_base@DV?$stream_output_adapter@D@__crt_stdio_output@@@__crt_stdio_output@@IAE_NAAPAUansi_string@?1??type_case_Z@?$output_processor@DV?$stream_output_adapter@D@__crt_stdio_output@@V?$format_validation_base@DV?$stream_output_adapter@D@__crt_stdio_output@@@2@@1@AAE_NXZ@@Z 1002b38b f   libucrt:output.obj
 0001:0002a3ab       ??$extract_argument_from_va_list@PAUansi_string@?1??type_case_Z@?$output_processor@DV?$stream_output_adapter@D@__crt_stdio_output@@V?$positional_parameter_base@DV?$stream_output_adapter@D@__crt_stdio_output@@@2@@__crt_stdio_output@@AAE_NXZ@PAU1?1??234@AAE_NXZ@@?$positional_parameter_base@DV?$stream_output_adapter@D@__crt_stdio_output@@@__crt_stdio_output@@IAE_NAAPAUansi_string@?1??type_case_Z@?$output_processor@DV?$stream_output_adapter@D@__crt_stdio_output@@V?$positional_parameter_base@DV?$stream_output_adapter@D@__crt_stdio_output@@@2@@1@AAE_NXZ@@Z 1002b3ab f   libucrt:output.obj
 0001:0002a441       ??$extract_argument_from_va_list@PAUansi_string@?1??type_case_Z@?$output_processor@DV?$stream_output_adapter@D@__crt_stdio_output@@V?$positional_parameter_base@DV?$stream_output_adapter@D@__crt_stdio_output@@@2@@__crt_stdio_output@@AAE_NXZ@PAU1?1??234@AAE_NXZ@@?$standard_base@DV?$stream_output_adapter@D@__crt_stdio_output@@@__crt_stdio_output@@IAE_NAAPAUansi_string@?1??type_case_Z@?$output_processor@DV?$stream_output_adapter@D@__crt_stdio_output@@V?$positional_parameter_base@DV?$stream_output_adapter@D@__crt_stdio_output@@@2@@1@AAE_NXZ@@Z 1002b441 f   libucrt:output.obj
 0001:0002a461       ??$extract_argument_from_va_list@PAUansi_string@?1??type_case_Z@?$output_processor@DV?$stream_output_adapter@D@__crt_stdio_output@@V?$standard_base@DV?$stream_output_adapter@D@__crt_stdio_output@@@2@@__crt_stdio_output@@AAE_NXZ@PAU1?1??234@AAE_NXZ@@?$standard_base@DV?$stream_output_adapter@D@__crt_stdio_output@@@__crt_stdio_output@@IAE_NAAPAUansi_string@?1??type_case_Z@?$output_processor@DV?$stream_output_adapter@D@__crt_stdio_output@@V?$standard_base@DV?$stream_output_adapter@D@__crt_stdio_output@@@2@@1@AAE_NXZ@@Z 1002b461 f   libucrt:output.obj
 0001:0002a481       ??$extract_argument_from_va_list@PAUansi_string@?1??type_case_Z@?$output_processor@DV?$string_output_adapter@D@__crt_stdio_output@@V?$format_validation_base@DV?$string_output_adapter@D@__crt_stdio_output@@@2@@__crt_stdio_output@@AAE_NXZ@PAU1?1??234@AAE_NXZ@@?$standard_base@DV?$string_output_adapter@D@__crt_stdio_output@@@__crt_stdio_output@@IAE_NAAPAUansi_string@?1??type_case_Z@?$output_processor@DV?$string_output_adapter@D@__crt_stdio_output@@V?$format_validation_base@DV?$string_output_adapter@D@__crt_stdio_output@@@2@@1@AAE_NXZ@@Z 1002b481 f   libucrt:output.obj
 0001:0002a4a1       ??$extract_argument_from_va_list@PAUansi_string@?1??type_case_Z@?$output_processor@DV?$string_output_adapter@D@__crt_stdio_output@@V?$positional_parameter_base@DV?$string_output_adapter@D@__crt_stdio_output@@@2@@__crt_stdio_output@@AAE_NXZ@PAU1?1??234@AAE_NXZ@@?$positional_parameter_base@DV?$string_output_adapter@D@__crt_stdio_output@@@__crt_stdio_output@@IAE_NAAPAUansi_string@?1??type_case_Z@?$output_processor@DV?$string_output_adapter@D@__crt_stdio_output@@V?$positional_parameter_base@DV?$string_output_adapter@D@__crt_stdio_output@@@2@@1@AAE_NXZ@@Z 1002b4a1 f   libucrt:output.obj
 0001:0002a537       ??$extract_argument_from_va_list@PAUansi_string@?1??type_case_Z@?$output_processor@DV?$string_output_adapter@D@__crt_stdio_output@@V?$positional_parameter_base@DV?$string_output_adapter@D@__crt_stdio_output@@@2@@__crt_stdio_output@@AAE_NXZ@PAU1?1??234@AAE_NXZ@@?$standard_base@DV?$string_output_adapter@D@__crt_stdio_output@@@__crt_stdio_output@@IAE_NAAPAUansi_string@?1??type_case_Z@?$output_processor@DV?$string_output_adapter@D@__crt_stdio_output@@V?$positional_parameter_base@DV?$string_output_adapter@D@__crt_stdio_output@@@2@@1@AAE_NXZ@@Z 1002b537 f   libucrt:output.obj
 0001:0002a557       ??$extract_argument_from_va_list@PAUansi_string@?1??type_case_Z@?$output_processor@DV?$string_output_adapter@D@__crt_stdio_output@@V?$standard_base@DV?$string_output_adapter@D@__crt_stdio_output@@@2@@__crt_stdio_output@@AAE_NXZ@PAU1?1??234@AAE_NXZ@@?$standard_base@DV?$string_output_adapter@D@__crt_stdio_output@@@__crt_stdio_output@@IAE_NAAPAUansi_string@?1??type_case_Z@?$output_processor@DV?$string_output_adapter@D@__crt_stdio_output@@V?$standard_base@DV?$string_output_adapter@D@__crt_stdio_output@@@2@@1@AAE_NXZ@@Z 1002b557 f   libucrt:output.obj
 0001:0002a577       ??$extract_argument_from_va_list@PAUansi_string@?1??type_case_Z@?$output_processor@_WV?$stream_output_adapter@_W@__crt_stdio_output@@V?$format_validation_base@_WV?$stream_output_adapter@_W@__crt_stdio_output@@@2@@__crt_stdio_output@@AAE_NXZ@PAU1?1??234@AAE_NXZ@@?$standard_base@_WV?$stream_output_adapter@_W@__crt_stdio_output@@@__crt_stdio_output@@IAE_NAAPAUansi_string@?1??type_case_Z@?$output_processor@_WV?$stream_output_adapter@_W@__crt_stdio_output@@V?$format_validation_base@_WV?$stream_output_adapter@_W@__crt_stdio_output@@@2@@1@AAE_NXZ@@Z 1002b577 f   libucrt:output.obj
 0001:0002a597       ??$extract_argument_from_va_list@PAUansi_string@?1??type_case_Z@?$output_processor@_WV?$stream_output_adapter@_W@__crt_stdio_output@@V?$positional_parameter_base@_WV?$stream_output_adapter@_W@__crt_stdio_output@@@2@@__crt_stdio_output@@AAE_NXZ@PAU1?1??234@AAE_NXZ@@?$positional_parameter_base@_WV?$stream_output_adapter@_W@__crt_stdio_output@@@__crt_stdio_output@@IAE_NAAPAUansi_string@?1??type_case_Z@?$output_processor@_WV?$stream_output_adapter@_W@__crt_stdio_output@@V?$positional_parameter_base@_WV?$stream_output_adapter@_W@__crt_stdio_output@@@2@@1@AAE_NXZ@@Z 1002b597 f   libucrt:output.obj
 0001:0002a62d       ??$extract_argument_from_va_list@PAUansi_string@?1??type_case_Z@?$output_processor@_WV?$stream_output_adapter@_W@__crt_stdio_output@@V?$positional_parameter_base@_WV?$stream_output_adapter@_W@__crt_stdio_output@@@2@@__crt_stdio_output@@AAE_NXZ@PAU1?1??234@AAE_NXZ@@?$standard_base@_WV?$stream_output_adapter@_W@__crt_stdio_output@@@__crt_stdio_output@@IAE_NAAPAUansi_string@?1??type_case_Z@?$output_processor@_WV?$stream_output_adapter@_W@__crt_stdio_output@@V?$positional_parameter_base@_WV?$stream_output_adapter@_W@__crt_stdio_output@@@2@@1@AAE_NXZ@@Z 1002b62d f   libucrt:output.obj
 0001:0002a64d       ??$extract_argument_from_va_list@PAUansi_string@?1??type_case_Z@?$output_processor@_WV?$stream_output_adapter@_W@__crt_stdio_output@@V?$standard_base@_WV?$stream_output_adapter@_W@__crt_stdio_output@@@2@@__crt_stdio_output@@AAE_NXZ@PAU1?1??234@AAE_NXZ@@?$standard_base@_WV?$stream_output_adapter@_W@__crt_stdio_output@@@__crt_stdio_output@@IAE_NAAPAUansi_string@?1??type_case_Z@?$output_processor@_WV?$stream_output_adapter@_W@__crt_stdio_output@@V?$standard_base@_WV?$stream_output_adapter@_W@__crt_stdio_output@@@2@@1@AAE_NXZ@@Z 1002b64d f   libucrt:output.obj
 0001:0002a66d       ??$extract_argument_from_va_list@PAUansi_string@?1??type_case_Z@?$output_processor@_WV?$string_output_adapter@_W@__crt_stdio_output@@V?$format_validation_base@_WV?$string_output_adapter@_W@__crt_stdio_output@@@2@@__crt_stdio_output@@AAE_NXZ@PAU1?1??234@AAE_NXZ@@?$standard_base@_WV?$string_output_adapter@_W@__crt_stdio_output@@@__crt_stdio_output@@IAE_NAAPAUansi_string@?1??type_case_Z@?$output_processor@_WV?$string_output_adapter@_W@__crt_stdio_output@@V?$format_validation_base@_WV?$string_output_adapter@_W@__crt_stdio_output@@@2@@1@AAE_NXZ@@Z 1002b66d f   libucrt:output.obj
 0001:0002a68d       ??$extract_argument_from_va_list@PAUansi_string@?1??type_case_Z@?$output_processor@_WV?$string_output_adapter@_W@__crt_stdio_output@@V?$positional_parameter_base@_WV?$string_output_adapter@_W@__crt_stdio_output@@@2@@__crt_stdio_output@@AAE_NXZ@PAU1?1??234@AAE_NXZ@@?$positional_parameter_base@_WV?$string_output_adapter@_W@__crt_stdio_output@@@__crt_stdio_output@@IAE_NAAPAUansi_string@?1??type_case_Z@?$output_processor@_WV?$string_output_adapter@_W@__crt_stdio_output@@V?$positional_parameter_base@_WV?$string_output_adapter@_W@__crt_stdio_output@@@2@@1@AAE_NXZ@@Z 1002b68d f   libucrt:output.obj
 0001:0002a723       ??$extract_argument_from_va_list@PAUansi_string@?1??type_case_Z@?$output_processor@_WV?$string_output_adapter@_W@__crt_stdio_output@@V?$positional_parameter_base@_WV?$string_output_adapter@_W@__crt_stdio_output@@@2@@__crt_stdio_output@@AAE_NXZ@PAU1?1??234@AAE_NXZ@@?$standard_base@_WV?$string_output_adapter@_W@__crt_stdio_output@@@__crt_stdio_output@@IAE_NAAPAUansi_string@?1??type_case_Z@?$output_processor@_WV?$string_output_adapter@_W@__crt_stdio_output@@V?$positional_parameter_base@_WV?$string_output_adapter@_W@__crt_stdio_output@@@2@@1@AAE_NXZ@@Z 1002b723 f   libucrt:output.obj
 0001:0002a743       ??$extract_argument_from_va_list@PAUansi_string@?1??type_case_Z@?$output_processor@_WV?$string_output_adapter@_W@__crt_stdio_output@@V?$standard_base@_WV?$string_output_adapter@_W@__crt_stdio_output@@@2@@__crt_stdio_output@@AAE_NXZ@PAU1?1??234@AAE_NXZ@@?$standard_base@_WV?$string_output_adapter@_W@__crt_stdio_output@@@__crt_stdio_output@@IAE_NAAPAUansi_string@?1??type_case_Z@?$output_processor@_WV?$string_output_adapter@_W@__crt_stdio_output@@V?$standard_base@_WV?$string_output_adapter@_W@__crt_stdio_output@@@2@@1@AAE_NXZ@@Z 1002b743 f   libucrt:output.obj
 0001:0002b6f7       ??$get_parameter_type@Uansi_string@?1??type_case_Z@?$output_processor@DV?$stream_output_adapter@D@__crt_stdio_output@@V?$positional_parameter_base@DV?$stream_output_adapter@D@__crt_stdio_output@@@2@@__crt_stdio_output@@AAE_NXZ@@?$positional_parameter_base@DV?$stream_output_adapter@D@__crt_stdio_output@@@__crt_stdio_output@@CA?AW4parameter_type@01@PAUansi_string@?1??type_case_Z@?$output_processor@DV?$stream_output_adapter@D@__crt_stdio_output@@V?$positional_parameter_base@DV?$stream_output_adapter@D@__crt_stdio_output@@@2@@1@AAE_NXZ@@Z 1002c6f7 f   libucrt:output.obj
 0001:0002b6fb       ??$get_parameter_type@Uansi_string@?1??type_case_Z@?$output_processor@DV?$string_output_adapter@D@__crt_stdio_output@@V?$positional_parameter_base@DV?$string_output_adapter@D@__crt_stdio_output@@@2@@__crt_stdio_output@@AAE_NXZ@@?$positional_parameter_base@DV?$string_output_adapter@D@__crt_stdio_output@@@__crt_stdio_output@@CA?AW4parameter_type@01@PAUansi_string@?1??type_case_Z@?$output_processor@DV?$string_output_adapter@D@__crt_stdio_output@@V?$positional_parameter_base@DV?$string_output_adapter@D@__crt_stdio_output@@@2@@1@AAE_NXZ@@Z 1002c6fb f   libucrt:output.obj
 0001:0002b6ff       ??$get_parameter_type@Uansi_string@?1??type_case_Z@?$output_processor@_WV?$stream_output_adapter@_W@__crt_stdio_output@@V?$positional_parameter_base@_WV?$stream_output_adapter@_W@__crt_stdio_output@@@2@@__crt_stdio_output@@AAE_NXZ@@?$positional_parameter_base@_WV?$stream_output_adapter@_W@__crt_stdio_output@@@__crt_stdio_output@@CA?AW4parameter_type@01@PAUansi_string@?1??type_case_Z@?$output_processor@_WV?$stream_output_adapter@_W@__crt_stdio_output@@V?$positional_parameter_base@_WV?$stream_output_adapter@_W@__crt_stdio_output@@@2@@1@AAE_NXZ@@Z 1002c6ff f   libucrt:output.obj
 0001:0002b703       ??$get_parameter_type@Uansi_string@?1??type_case_Z@?$output_processor@_WV?$string_output_adapter@_W@__crt_stdio_output@@V?$positional_parameter_base@_WV?$string_output_adapter@_W@__crt_stdio_output@@@2@@__crt_stdio_output@@AAE_NXZ@@?$positional_parameter_base@_WV?$string_output_adapter@_W@__crt_stdio_output@@@__crt_stdio_output@@CA?AW4parameter_type@01@PAUansi_string@?1??type_case_Z@?$output_processor@_WV?$string_output_adapter@_W@__crt_stdio_output@@V?$positional_parameter_base@_WV?$string_output_adapter@_W@__crt_stdio_output@@@2@@1@AAE_NXZ@@Z 1002c703 f   libucrt:output.obj
 0001:0002ba62       ??$peek_va_arg@PAUansi_string@?1??type_case_Z@?$output_processor@DV?$stream_output_adapter@D@__crt_stdio_output@@V?$positional_parameter_base@DV?$stream_output_adapter@D@__crt_stdio_output@@@2@@__crt_stdio_output@@AAE_NXZ@@__crt_stdio_output@@YAPAUansi_string@?1??type_case_Z@?$output_processor@DV?$stream_output_adapter@D@__crt_stdio_output@@V?$positional_parameter_base@DV?$stream_output_adapter@D@__crt_stdio_output@@@2@@0@AAE_NXZ@PAD@Z 1002ca62 f   libucrt:output.obj
 0001:0002ba71       ??$peek_va_arg@PAUansi_string@?1??type_case_Z@?$output_processor@DV?$string_output_adapter@D@__crt_stdio_output@@V?$positional_parameter_base@DV?$string_output_adapter@D@__crt_stdio_output@@@2@@__crt_stdio_output@@AAE_NXZ@@__crt_stdio_output@@YAPAUansi_string@?1??type_case_Z@?$output_processor@DV?$string_output_adapter@D@__crt_stdio_output@@V?$positional_parameter_base@DV?$string_output_adapter@D@__crt_stdio_output@@@2@@0@AAE_NXZ@PAD@Z 1002ca71 f   libucrt:output.obj
 0001:0002ba80       ??$peek_va_arg@PAUansi_string@?1??type_case_Z@?$output_processor@_WV?$stream_output_adapter@_W@__crt_stdio_output@@V?$positional_parameter_base@_WV?$stream_output_adapter@_W@__crt_stdio_output@@@2@@__crt_stdio_output@@AAE_NXZ@@__crt_stdio_output@@YAPAUansi_string@?1??type_case_Z@?$output_processor@_WV?$stream_output_adapter@_W@__crt_stdio_output@@V?$positional_parameter_base@_WV?$stream_output_adapter@_W@__crt_stdio_output@@@2@@0@AAE_NXZ@PAD@Z 1002ca80 f   libucrt:output.obj
 0001:0002ba8f       ??$peek_va_arg@PAUansi_string@?1??type_case_Z@?$output_processor@_WV?$string_output_adapter@_W@__crt_stdio_output@@V?$positional_parameter_base@_WV?$string_output_adapter@_W@__crt_stdio_output@@@2@@__crt_stdio_output@@AAE_NXZ@@__crt_stdio_output@@YAPAUansi_string@?1??type_case_Z@?$output_processor@_WV?$string_output_adapter@_W@__crt_stdio_output@@V?$positional_parameter_base@_WV?$string_output_adapter@_W@__crt_stdio_output@@@2@@0@AAE_NXZ@PAD@Z 1002ca8f f   libucrt:output.obj
 0001:0002bbcf       ??$read_va_arg@PAUansi_string@?1??type_case_Z@?$output_processor@DV?$stream_output_adapter@D@__crt_stdio_output@@V?$format_validation_base@DV?$stream_output_adapter@D@__crt_stdio_output@@@2@@__crt_stdio_output@@AAE_NXZ@@__crt_stdio_output@@YAPAUansi_string@?1??type_case_Z@?$output_processor@DV?$stream_output_adapter@D@__crt_stdio_output@@V?$format_validation_base@DV?$stream_output_adapter@D@__crt_stdio_output@@@2@@0@AAE_NXZ@AAPAD@Z 1002cbcf f   libucrt:output.obj
 0001:0002bbe5       ??$read_va_arg@PAUansi_string@?1??type_case_Z@?$output_processor@DV?$stream_output_adapter@D@__crt_stdio_output@@V?$positional_parameter_base@DV?$stream_output_adapter@D@__crt_stdio_output@@@2@@__crt_stdio_output@@AAE_NXZ@@__crt_stdio_output@@YAPAUansi_string@?1??type_case_Z@?$output_processor@DV?$stream_output_adapter@D@__crt_stdio_output@@V?$positional_parameter_base@DV?$stream_output_adapter@D@__crt_stdio_output@@@2@@0@AAE_NXZ@AAPAD@Z 1002cbe5 f   libucrt:output.obj
 0001:0002bbfb       ??$read_va_arg@PAUansi_string@?1??type_case_Z@?$output_processor@DV?$stream_output_adapter@D@__crt_stdio_output@@V?$standard_base@DV?$stream_output_adapter@D@__crt_stdio_output@@@2@@__crt_stdio_output@@AAE_NXZ@@__crt_stdio_output@@YAPAUansi_string@?1??type_case_Z@?$output_processor@DV?$stream_output_adapter@D@__crt_stdio_output@@V?$standard_base@DV?$stream_output_adapter@D@__crt_stdio_output@@@2@@0@AAE_NXZ@AAPAD@Z 1002cbfb f   libucrt:output.obj
 0001:0002bc11       ??$read_va_arg@PAUansi_string@?1??type_case_Z@?$output_processor@DV?$string_output_adapter@D@__crt_stdio_output@@V?$format_validation_base@DV?$string_output_adapter@D@__crt_stdio_output@@@2@@__crt_stdio_output@@AAE_NXZ@@__crt_stdio_output@@YAPAUansi_string@?1??type_case_Z@?$output_processor@DV?$string_output_adapter@D@__crt_stdio_output@@V?$format_validation_base@DV?$string_output_adapter@D@__crt_stdio_output@@@2@@0@AAE_NXZ@AAPAD@Z 1002cc11 f   libucrt:output.obj
 0001:0002bc27       ??$read_va_arg@PAUansi_string@?1??type_case_Z@?$output_processor@DV?$string_output_adapter@D@__crt_stdio_output@@V?$positional_parameter_base@DV?$string_output_adapter@D@__crt_stdio_output@@@2@@__crt_stdio_output@@AAE_NXZ@@__crt_stdio_output@@YAPAUansi_string@?1??type_case_Z@?$output_processor@DV?$string_output_adapter@D@__crt_stdio_output@@V?$positional_parameter_base@DV?$string_output_adapter@D@__crt_stdio_output@@@2@@0@AAE_NXZ@AAPAD@Z 1002cc27 f   libucrt:output.obj
 0001:0002bc3d       ??$read_va_arg@PAUansi_string@?1??type_case_Z@?$output_processor@DV?$string_output_adapter@D@__crt_stdio_output@@V?$standard_base@DV?$string_output_adapter@D@__crt_stdio_output@@@2@@__crt_stdio_output@@AAE_NXZ@@__crt_stdio_output@@YAPAUansi_string@?1??type_case_Z@?$output_processor@DV?$string_output_adapter@D@__crt_stdio_output@@V?$standard_base@DV?$string_output_adapter@D@__crt_stdio_output@@@2@@0@AAE_NXZ@AAPAD@Z 1002cc3d f   libucrt:output.obj
 0001:0002bc53       ??$read_va_arg@PAUansi_string@?1??type_case_Z@?$output_processor@_WV?$stream_output_adapter@_W@__crt_stdio_output@@V?$format_validation_base@_WV?$stream_output_adapter@_W@__crt_stdio_output@@@2@@__crt_stdio_output@@AAE_NXZ@@__crt_stdio_output@@YAPAUansi_string@?1??type_case_Z@?$output_processor@_WV?$stream_output_adapter@_W@__crt_stdio_output@@V?$format_validation_base@_WV?$stream_output_adapter@_W@__crt_stdio_output@@@2@@0@AAE_NXZ@AAPAD@Z 1002cc53 f   libucrt:output.obj
 0001:0002bc69       ??$read_va_arg@PAUansi_string@?1??type_case_Z@?$output_processor@_WV?$stream_output_adapter@_W@__crt_stdio_output@@V?$positional_parameter_base@_WV?$stream_output_adapter@_W@__crt_stdio_output@@@2@@__crt_stdio_output@@AAE_NXZ@@__crt_stdio_output@@YAPAUansi_string@?1??type_case_Z@?$output_processor@_WV?$stream_output_adapter@_W@__crt_stdio_output@@V?$positional_parameter_base@_WV?$stream_output_adapter@_W@__crt_stdio_output@@@2@@0@AAE_NXZ@AAPAD@Z 1002cc69 f   libucrt:output.obj
 0001:0002bc7f       ??$read_va_arg@PAUansi_string@?1??type_case_Z@?$output_processor@_WV?$stream_output_adapter@_W@__crt_stdio_output@@V?$standard_base@_WV?$stream_output_adapter@_W@__crt_stdio_output@@@2@@__crt_stdio_output@@AAE_NXZ@@__crt_stdio_output@@YAPAUansi_string@?1??type_case_Z@?$output_processor@_WV?$stream_output_adapter@_W@__crt_stdio_output@@V?$standard_base@_WV?$stream_output_adapter@_W@__crt_stdio_output@@@2@@0@AAE_NXZ@AAPAD@Z 1002cc7f f   libucrt:output.obj
 0001:0002bc95       ??$read_va_arg@PAUansi_string@?1??type_case_Z@?$output_processor@_WV?$string_output_adapter@_W@__crt_stdio_output@@V?$format_validation_base@_WV?$string_output_adapter@_W@__crt_stdio_output@@@2@@__crt_stdio_output@@AAE_NXZ@@__crt_stdio_output@@YAPAUansi_string@?1??type_case_Z@?$output_processor@_WV?$string_output_adapter@_W@__crt_stdio_output@@V?$format_validation_base@_WV?$string_output_adapter@_W@__crt_stdio_output@@@2@@0@AAE_NXZ@AAPAD@Z 1002cc95 f   libucrt:output.obj
 0001:0002bcab       ??$read_va_arg@PAUansi_string@?1??type_case_Z@?$output_processor@_WV?$string_output_adapter@_W@__crt_stdio_output@@V?$positional_parameter_base@_WV?$string_output_adapter@_W@__crt_stdio_output@@@2@@__crt_stdio_output@@AAE_NXZ@@__crt_stdio_output@@YAPAUansi_string@?1??type_case_Z@?$output_processor@_WV?$string_output_adapter@_W@__crt_stdio_output@@V?$positional_parameter_base@_WV?$string_output_adapter@_W@__crt_stdio_output@@@2@@0@AAE_NXZ@AAPAD@Z 1002ccab f   libucrt:output.obj
 0001:0002bcc1       ??$read_va_arg@PAUansi_string@?1??type_case_Z@?$output_processor@_WV?$string_output_adapter@_W@__crt_stdio_output@@V?$standard_base@_WV?$string_output_adapter@_W@__crt_stdio_output@@@2@@__crt_stdio_output@@AAE_NXZ@@__crt_stdio_output@@YAPAUansi_string@?1??type_case_Z@?$output_processor@_WV?$string_output_adapter@_W@__crt_stdio_output@@V?$standard_base@_WV?$string_output_adapter@_W@__crt_stdio_output@@@2@@0@AAE_NXZ@AAPAD@Z 1002ccc1 f   libucrt:output.obj
 0001:0002cef6       ??0<lambda_0f47277b42e3e84c3311fed419af0b3c>@@QAE@ABQAU_iobuf@@@Z 1002def6 f   libucrt:output.obj
 0001:0002cf0c       ??0<lambda_114dc79c86b00c313cb0b6b3b001aaf8>@@QAE@ABQAU_iobuf@@@Z 1002df0c f   libucrt:output.obj
 0001:0002cf22       ??0<lambda_148068cfb9786d9714740654406e93d5>@@QAE@ABQAU_iobuf@@@Z 1002df22 f   libucrt:output.obj
 0001:0002cf38       ??0<lambda_31f843250ba6188c6e1f35d2bec6db0e>@@QAE@ABQAU_iobuf@@@Z 1002df38 f   libucrt:output.obj
 0001:0002cf4e       ??0<lambda_3a2a6cca1b0f7007a3db339dcecd1562>@@QAE@ABQAU_iobuf@@@Z 1002df4e f   libucrt:output.obj
 0001:0002cf64       ??0<lambda_42506531d319a600ce771deb5a236a10>@@QAE@ABQAU_iobuf@@ABQAU__crt_locale_pointers@@AB_KABQB_WABQAD@Z 1002df64 f   libucrt:output.obj
 0001:0002cf96       ??0<lambda_4fa1155033dff2042363dba4e2dc3802>@@QAE@ABQAU_iobuf@@@Z 1002df96 f   libucrt:output.obj
 0001:0002cfac       ??0<lambda_75d23329f2fb3d02b2e1cf5509bb1caf>@@QAE@ABQAU_iobuf@@@Z 1002dfac f   libucrt:output.obj
 0001:0002cfc2       ??0<lambda_80d7abc6eae2375db70be92ccaaf9b57>@@QAE@ABQAU_iobuf@@@Z 1002dfc2 f   libucrt:output.obj
 0001:0002cfd8       ??0<lambda_96392db5b14a27f72535a2156da24b09>@@QAE@ABQAU_iobuf@@ABQAU__crt_locale_pointers@@AB_KABQB_WABQAD@Z 1002dfd8 f   libucrt:output.obj
 0001:0002d00a       ??0<lambda_b2332a2b562101f3c3c34baab19e0511>@@QAE@ABQAU_iobuf@@@Z 1002e00a f   libucrt:output.obj
 0001:0002d020       ??0<lambda_b4329732a1a72698597872ef534ad66d>@@QAE@ABQAU_iobuf@@@Z 1002e020 f   libucrt:output.obj
 0001:0002d036       ??0<lambda_b7f50223258ab9fcc98080d45d02b1a4>@@QAE@ABQAU_iobuf@@@Z 1002e036 f   libucrt:output.obj
 0001:0002d04c       ??0<lambda_c4f131f91cb4ec00a5b0a26aa161b8b4>@@QAE@ABQAU_iobuf@@ABQAU__crt_locale_pointers@@AB_KABQB_WABQAD@Z 1002e04c f   libucrt:output.obj
 0001:0002d07e       ??0<lambda_cc35d49d909def412005bd38ddc96b77>@@QAE@ABQAU_iobuf@@@Z 1002e07e f   libucrt:output.obj
 0001:0002d094       ??0<lambda_d6a382b8dd98a6801a8abd6c28bdff2d>@@QAE@ABQAU_iobuf@@ABQAU__crt_locale_pointers@@AB_KABQBDABQAD@Z 1002e094 f   libucrt:output.obj
 0001:0002d0c6       ??0<lambda_df52180bf14694d51fdefd82613e8f07>@@QAE@ABQAU_iobuf@@ABQAU__crt_locale_pointers@@AB_KABQBDABQAD@Z 1002e0c6 f   libucrt:output.obj
 0001:0002d0f8       ??0<lambda_e38011a3ba6e07c7dbcef4d549f26102>@@QAE@ABQAU_iobuf@@ABQAU__crt_locale_pointers@@AB_KABQBDABQAD@Z 1002e0f8 f   libucrt:output.obj
 0001:0002d7a4       ??R<lambda_0f47277b42e3e84c3311fed419af0b3c>@@QBEXXZ 1002e7a4 f   libucrt:output.obj
 0001:0002d7af       ??R<lambda_114dc79c86b00c313cb0b6b3b001aaf8>@@QBEXXZ 1002e7af f   libucrt:output.obj
 0001:0002d7ba       ??R<lambda_148068cfb9786d9714740654406e93d5>@@QBEXXZ 1002e7ba f   libucrt:output.obj
 0001:0002d7c5       ??R<lambda_31f843250ba6188c6e1f35d2bec6db0e>@@QBEXXZ 1002e7c5 f   libucrt:output.obj
 0001:0002d7d0       ??R<lambda_3a2a6cca1b0f7007a3db339dcecd1562>@@QBEXXZ 1002e7d0 f   libucrt:output.obj
 0001:0002d7db       ??R<lambda_42506531d319a600ce771deb5a236a10>@@QBEHXZ 1002e7db f   libucrt:output.obj
 0001:0002d8cc       ??R<lambda_4fa1155033dff2042363dba4e2dc3802>@@QBEXXZ 1002e8cc f   libucrt:output.obj
 0001:0002d8d7       ??R<lambda_75d23329f2fb3d02b2e1cf5509bb1caf>@@QBEXXZ 1002e8d7 f   libucrt:output.obj
 0001:0002d8e2       ??R<lambda_80d7abc6eae2375db70be92ccaaf9b57>@@QBEXXZ 1002e8e2 f   libucrt:output.obj
 0001:0002d8ed       ??R<lambda_96392db5b14a27f72535a2156da24b09>@@QBEHXZ 1002e8ed f   libucrt:output.obj
 0001:0002da20       ??R<lambda_b2332a2b562101f3c3c34baab19e0511>@@QBEXXZ 1002ea20 f   libucrt:output.obj
 0001:0002da2b       ??R<lambda_b4329732a1a72698597872ef534ad66d>@@QBEXXZ 1002ea2b f   libucrt:output.obj
 0001:0002da36       ??R<lambda_b7f50223258ab9fcc98080d45d02b1a4>@@QBEXXZ 1002ea36 f   libucrt:output.obj
 0001:0002da41       ??R<lambda_c4f131f91cb4ec00a5b0a26aa161b8b4>@@QBEHXZ 1002ea41 f   libucrt:output.obj
 0001:0002db32       ??R<lambda_cc35d49d909def412005bd38ddc96b77>@@QBEXXZ 1002eb32 f   libucrt:output.obj
 0001:0002db3d       ??R<lambda_d6a382b8dd98a6801a8abd6c28bdff2d>@@QBEHXZ 1002eb3d f   libucrt:output.obj
 0001:0002dc2e       ??R<lambda_df52180bf14694d51fdefd82613e8f07>@@QBEHXZ 1002ec2e f   libucrt:output.obj
 0001:0002dd1f       ??R<lambda_e38011a3ba6e07c7dbcef4d549f26102>@@QBEHXZ 1002ed1f f   libucrt:output.obj
 0001:0002f578       $LN52                      10030578     libucrt:output.obj
 0001:0002f71e       $LN48                      1003071e     libucrt:output.obj
 0001:0002f891       $LN54                      10030891     libucrt:output.obj
 0001:0002fa00       $LN52                      10030a00     libucrt:output.obj
 0001:0002fba6       $LN48                      10030ba6     libucrt:output.obj
 0001:0002fd19       $LN54                      10030d19     libucrt:output.obj
 0001:0002fe90       $LN52                      10030e90     libucrt:output.obj
 0001:0003003c       $LN48                      1003103c     libucrt:output.obj
 0001:000301b4       $LN54                      100311b4     libucrt:output.obj
 0001:0003032c       $LN52                      1003132c     libucrt:output.obj
 0001:000304d8       $LN48                      100314d8     libucrt:output.obj
 0001:00030650       $LN54                      10031650     libucrt:output.obj
 0001:000353a5       $LN19                      100363a5     libucrt:output.obj
 0001:0003d468       __get_fname                1003e468 f   libucrt:fpexcept.obj
 0001:0003dce5       ?xcptlookup@@YAPAU__crt_signal_action_t@@KQAU1@@Z 1003ece5 f   libucrt:exception_filter.obj
 0001:0003df3b       ??$common_configure_argv@D@@YAHW4_crt_argv_mode@@@Z 1003ef3b f   libucrt:argv_parsing.obj
 0001:0003e0c1       ??$common_configure_argv@_W@@YAHW4_crt_argv_mode@@@Z 1003f0c1 f   libucrt:argv_parsing.obj
 0001:0003e281       ??$parse_command_line@D@@YAXPADPAPAD0PAI2@Z 1003f281 f   libucrt:argv_parsing.obj
 0001:0003e458       ??$parse_command_line@_W@@YAXPA_WPAPA_W0PAI2@Z 1003f458 f   libucrt:argv_parsing.obj
 0001:0003e67e       ??0<lambda_a36aafc41185bea294aaaa3896c79ecc>@@QAE@AAV?$__crt_unique_heap_ptr@PA_WU__crt_internal_free_policy@@@@@Z 1003f67e f   libucrt:argv_parsing.obj
 0001:0003e692       ??0<lambda_df1553121bfa390f1154bd84936f2730>@@QAE@AAV?$__crt_unique_heap_ptr@PADU__crt_internal_free_policy@@@@@Z 1003f692 f   libucrt:argv_parsing.obj
 0001:0003e72b       ??R<lambda_a36aafc41185bea294aaaa3896c79ecc>@@QBEHXZ 1003f72b f   libucrt:argv_parsing.obj
 0001:0003e746       ??R<lambda_df1553121bfa390f1154bd84936f2730>@@QBEHXZ 1003f746 f   libucrt:argv_parsing.obj
 0001:0003e773       ?do_locale_initialization@@YAXD@Z 1003f773 f   libucrt:argv_parsing.obj
 0001:0003e778       ?do_locale_initialization@@YAX_W@Z 1003f778 f   libucrt:argv_parsing.obj
 0001:0003e779       ?expand_argv_wildcards@@YAHQAPADQAPAPAD@Z 1003f779 f   libucrt:argv_parsing.obj
 0001:0003e786       ?expand_argv_wildcards@@YAHQAPA_WQAPAPA_W@Z 1003f786 f   libucrt:argv_parsing.obj
 0001:0003e7a2       ?get_argv@@YAAAPAPADD@Z    1003f7a2 f   libucrt:argv_parsing.obj
 0001:0003e7a8       ?get_argv@@YAAAPAPA_W_W@Z  1003f7a8 f   libucrt:argv_parsing.obj
 0001:0003e7ae       ?get_command_line@@YAPADD@Z 1003f7ae f   libucrt:argv_parsing.obj
 0001:0003e7b4       ?get_command_line@@YAPA_W_W@Z 1003f7b4 f   libucrt:argv_parsing.obj
 0001:0003e803       ?should_copy_another_character@@YA_ND@Z 1003f803 f   libucrt:argv_parsing.obj
 0001:0003e81f       ?should_copy_another_character@@YA_N_W@Z 1003f81f f   libucrt:argv_parsing.obj
 0001:0003e8d8       ??$common_get_initial_environment@D@@YAPAPADXZ 1003f8d8 f   libucrt:environment_initialization.obj
 0001:0003e8f1       ??$common_get_initial_environment@_W@@YAPAPA_WXZ 1003f8f1 f   libucrt:environment_initialization.obj
 0001:0003e90a       ??$common_get_or_create_environment_nolock@D@@YAPAPADXZ 1003f90a f   libucrt:environment_initialization.obj
 0001:0003e941       ??$common_get_or_create_environment_nolock@_W@@YAPAPA_WXZ 1003f941 f   libucrt:environment_initialization.obj
 0001:0003e978       ??$common_initialize_environment_nolock@D@@YAHXZ 1003f978 f   libucrt:environment_initialization.obj
 0001:0003e9df       ??$common_initialize_environment_nolock@_W@@YAHXZ 1003f9df f   libucrt:environment_initialization.obj
 0001:0003ea40       ??$count_variables_in_environment_block@D@@YA?BIQAD@Z 1003fa40 f   libucrt:environment_initialization.obj
 0001:0003ea81       ??$count_variables_in_environment_block@_W@@YA?BIQA_W@Z 1003fa81 f   libucrt:environment_initialization.obj
 0001:0003eadc       ??$create_environment@D@@YAQAPADQAD@Z 1003fadc f   libucrt:environment_initialization.obj
 0001:0003ebe2       ??$create_environment@_W@@YAQAPA_WQA_W@Z 1003fbe2 f   libucrt:environment_initialization.obj
 0001:0003ed34       ??$free_environment@D@@YAXQAPAD@Z 1003fd34 f   libucrt:environment_initialization.obj
 0001:0003ed6e       ??$free_environment@_W@@YAXQAPA_W@Z 1003fd6e f   libucrt:environment_initialization.obj
 0001:0003edb2       ??$initialize_environment_by_cloning_nolock@D@@YAHXZ 1003fdb2 f   libucrt:environment_initialization.obj
 0001:0003ee5c       ??$initialize_environment_by_cloning_nolock@_W@@YAHXZ 1003fe5c f   libucrt:environment_initialization.obj
 0001:0003f067       ??$uninitialize_environment_internal@D@@YAXAAPAPAD@Z 10040067 f   libucrt:environment_initialization.obj
 0001:0003f088       ??$uninitialize_environment_internal@_W@@YAXAAPAPA_W@Z 10040088 f   libucrt:environment_initialization.obj
 0001:0003f192       ?get_dual_state_environment_nolock@@YAAAV?$dual_state_global@PAPAD@__crt_state_management@@D@Z 10040192 f   libucrt:environment_initialization.obj
 0001:0003f198       ?get_dual_state_environment_nolock@@YAAAV?$dual_state_global@PAPA_W@__crt_state_management@@_W@Z 10040198 f   libucrt:environment_initialization.obj
 0001:0003f19e       ?get_environment_nolock@@YAAAPAPADD@Z 1004019e f   libucrt:environment_initialization.obj
 0001:0003f1a4       ?get_environment_nolock@@YAAAPAPA_W_W@Z 100401a4 f   libucrt:environment_initialization.obj
 0001:0003f1aa       ?get_initial_environment@@YAAAPAPADD@Z 100401aa f   libucrt:environment_initialization.obj
 0001:0003f1b0       ?get_initial_environment@@YAAAPAPA_W_W@Z 100401b0 f   libucrt:environment_initialization.obj
 0001:0003f229       ?pre_initialize@@YAXD@Z    10040229 f   libucrt:environment_initialization.obj
 0001:0003f22e       ?pre_initialize@@YAX_W@Z   1004022e f   libucrt:environment_initialization.obj
 0001:0003f315       ??$?RV<lambda_69a2805e680e0e292e8ba93315fe43a8>@@AAV<lambda_f03950bc5685219e0bcd2087efbe011e>@@V<lambda_03fcd07e894ec930e3f35da366ca99d6>@@@?$__crt_seh_guarded_call@H@@QAEH$$QAV<lambda_69a2805e680e0e292e8ba93315fe43a8>@@AAV<lambda_f03950bc5685219e0bcd2087efbe011e>@@$$QAV<lambda_03fcd07e894ec930e3f35da366ca99d6>@@@Z 10040315 f   libucrt:onexit.obj
 0001:0003f37a       ??$?RV<lambda_7ac4055421038abea736e08bd20712a4>@@AAV<lambda_a10e4b102d4a2c3aac6f4f48bbdf488f>@@V<lambda_1da61822885009acd1bf848af4f9644b>@@@?$__crt_seh_guarded_call@H@@QAEH$$QAV<lambda_7ac4055421038abea736e08bd20712a4>@@AAV<lambda_a10e4b102d4a2c3aac6f4f48bbdf488f>@@$$QAV<lambda_1da61822885009acd1bf848af4f9644b>@@@Z 1004037a f   libucrt:onexit.obj
 0001:0003f3df       ??$__acrt_lock_and_call@V<lambda_a10e4b102d4a2c3aac6f4f48bbdf488f>@@@@YAHW4__acrt_lock_id@@$$QAV<lambda_a10e4b102d4a2c3aac6f4f48bbdf488f>@@@Z 100403df f   libucrt:onexit.obj
 0001:0003f411       ??$__acrt_lock_and_call@V<lambda_f03950bc5685219e0bcd2087efbe011e>@@@@YAHW4__acrt_lock_id@@$$QAV<lambda_f03950bc5685219e0bcd2087efbe011e>@@@Z 10040411 f   libucrt:onexit.obj
 0001:0003f469       ??0<lambda_03fcd07e894ec930e3f35da366ca99d6>@@QAE@ABW4__acrt_lock_id@@@Z 10040469 f   libucrt:onexit.obj
 0001:0003f47f       ??0<lambda_1da61822885009acd1bf848af4f9644b>@@QAE@ABW4__acrt_lock_id@@@Z 1004047f f   libucrt:onexit.obj
 0001:0003f495       ??0<lambda_69a2805e680e0e292e8ba93315fe43a8>@@QAE@ABW4__acrt_lock_id@@@Z 10040495 f   libucrt:onexit.obj
 0001:0003f4ab       ??0<lambda_7ac4055421038abea736e08bd20712a4>@@QAE@ABW4__acrt_lock_id@@@Z 100404ab f   libucrt:onexit.obj
 0001:0003f4c1       ??0<lambda_a10e4b102d4a2c3aac6f4f48bbdf488f>@@QAE@ABQAU_onexit_table_t@@ABQ6AHXZ@Z 100404c1 f   libucrt:onexit.obj
 0001:0003f4dc       ??0<lambda_f03950bc5685219e0bcd2087efbe011e>@@QAE@ABQAU_onexit_table_t@@@Z 100404dc f   libucrt:onexit.obj
 0001:0003f51b       ??R<lambda_03fcd07e894ec930e3f35da366ca99d6>@@QBEXXZ 1004051b f   libucrt:onexit.obj
 0001:0003f526       ??R<lambda_1da61822885009acd1bf848af4f9644b>@@QBEXXZ 10040526 f   libucrt:onexit.obj
 0001:0003f531       ??R<lambda_69a2805e680e0e292e8ba93315fe43a8>@@QBEXXZ 10040531 f   libucrt:onexit.obj
 0001:0003f53c       ??R<lambda_7ac4055421038abea736e08bd20712a4>@@QBEXXZ 1004053c f   libucrt:onexit.obj
 0001:0003f547       ??R<lambda_a10e4b102d4a2c3aac6f4f48bbdf488f>@@QBEHXZ 10040547 f   libucrt:onexit.obj
 0001:0003f6d8       ??R<lambda_f03950bc5685219e0bcd2087efbe011e>@@QBEHXZ 100406d8 f   libucrt:onexit.obj
 0001:0003f95f       _initialize_global_variables 1004095f f   libucrt:initialization.obj
 0001:0003f96f       _initialize_c              1004096f f   libucrt:initialization.obj
 0001:0003f98f       _uninitialize_c            1004098f f   libucrt:initialization.obj
 0001:0003f992       _initialize_environment    10040992 f   libucrt:initialization.obj
 0001:0003f995       _uninitialize_environment  10040995 f   libucrt:initialization.obj
 0001:0003f99f       _initialize_global_state_isolation 1004099f f   libucrt:initialization.obj
 0001:0003f9a2       _uninitialize_global_state_isolation 100409a2 f   libucrt:initialization.obj
 0001:0003f9a5       _initialize_pointers       100409a5 f   libucrt:initialization.obj
 0001:0003f9f1       _uninitialize_vcruntime    100409f1 f   libucrt:initialization.obj
 0001:0003f9fc       _uninitialize_allocated_memory 100409fc f   libucrt:initialization.obj
 0001:0003fa1b       _uninitialize_allocated_io_buffers 10040a1b f   libucrt:initialization.obj
 0001:0003fa7f       _report_memory_leaks       10040a7f f   libucrt:initialization.obj
 0001:0003fa82       ??$uninitialize@V<lambda_af42a3ee9806e9a7305d451646e05244>@@@?$dual_state_global@PAU__crt_multibyte_data@@@__crt_state_management@@QAEX$$QAV<lambda_af42a3ee9806e9a7305d451646e05244>@@@Z 10040a82 f   libucrt:initialization.obj
 0001:0003faaf       ??R<lambda_af42a3ee9806e9a7305d451646e05244>@@QBEXAAPAU__crt_multibyte_data@@@Z 10040aaf f   libucrt:initialization.obj
 0001:0003fba3       ?get_terminate_or_default@@YAP6AXXZQBU__acrt_ptd@@@Z 10040ba3 f   libucrt:terminate.obj
 0001:0003fc47       ??$common_tcscpy_s@D@@YAHQADIQBD@Z 10040c47 f   libucrt:strcpy_s.obj
 0001:00041f60       $$000000                   10042f60     libucrt:strncmp.obj
 0001:00042191       ?select_heap@@YAPAXQAX@Z   10043191 f   libucrt:free_base.obj
 0001:00042574       ?issue_debug_notification@@YA_NQB_W@Z 10043574 f   libucrt:report_runtime_error.obj
 0001:00042577       ?should_write_error_to_console@@YA_NXZ 10043577 f   libucrt:report_runtime_error.obj
 0001:0004259f       ?write_string_to_console@@YAXQB_W@Z 1004359f f   libucrt:report_runtime_error.obj
 0001:00042907       ??$common_xtox@KD@@YAHKQADII_N@Z 10043907 f   libucrt:xtoa.obj
 0001:000429e5       ??$common_xtox@K_W@@YAHKQA_WII_N@Z 100439e5 f   libucrt:xtoa.obj
 0001:00042abc       ??$common_xtox@_KD@@YAH_KQADII_N@Z 10043abc f   libucrt:xtoa.obj
 0001:00042bb6       ??$common_xtox@_K_W@@YAH_KQA_WII_N@Z 10043bb6 f   libucrt:xtoa.obj
 0001:00042cd1       ??$common_xtox_s@KD@@YAHKQADII_N@Z 10043cd1 f   libucrt:xtoa.obj
 0001:00042d5d       ??$common_xtox_s@K_W@@YAHKQA_WII_N@Z 10043d5d f   libucrt:xtoa.obj
 0001:00042deb       ??$common_xtox_s@_KD@@YAH_KQADII_N@Z 10043deb f   libucrt:xtoa.obj
 0001:00042e7a       ??$common_xtox_s@_K_W@@YAH_KQA_WII_N@Z 10043e7a f   libucrt:xtoa.obj
 0001:000433f2       ??$common_tcscat_s@_W@@YAHQA_WIQB_W@Z 100443f2 f   libucrt:wcscat_s.obj
 0001:00043512       ??$common_tcscpy_s@_W@@YAHQA_WIQB_W@Z 10044512 f   libucrt:wcscpy_s.obj
 0001:00043607       ??$common_tcsncat_s@_W@@YAHQA_WIQB_WI@Z 10044607 f   libucrt:wcsncat_s.obj
 0001:00043737       ??$common_tcscat_s@D@@YAHQADIQBD@Z 10044737 f   libucrt:strcat_s.obj
 0001:0004383d       ??$common_tcsncat_s@D@@YAHQADIQBDI@Z 1004483d f   libucrt:strncat_s.obj
 0001:000439cd       ??$common_show_message_box@D@@YAHQBD0I@Z 100449cd f   libucrt:crtmbox.obj
 0001:00043a69       ??$common_show_message_box@_W@@YAHQB_W0I@Z 10044a69 f   libucrt:crtmbox.obj
 0001:00043beb       ??$?RV<lambda_2866be3712abc81a800a822484c830d8>@@AAV<lambda_39ca0ed439415581b5b15c265174cece>@@V<lambda_2b24c74d71094a6cd0cb82e44167d71b>@@@?$__crt_seh_guarded_call@X@@QAEX$$QAV<lambda_2866be3712abc81a800a822484c830d8>@@AAV<lambda_39ca0ed439415581b5b15c265174cece>@@$$QAV<lambda_2b24c74d71094a6cd0cb82e44167d71b>@@@Z 10044beb f   libucrt:fflush.obj
 0001:00043c8c       ??$?RV<lambda_2cc53f568c5a2bb6f192f930a45d44ea>@@AAV<lambda_ab61a845afdef5b7c387490eaf3616ee>@@V<lambda_c2ffc0b7726aa6be21d5f0026187e748>@@@?$__crt_seh_guarded_call@X@@QAEX$$QAV<lambda_2cc53f568c5a2bb6f192f930a45d44ea>@@AAV<lambda_ab61a845afdef5b7c387490eaf3616ee>@@$$QAV<lambda_c2ffc0b7726aa6be21d5f0026187e748>@@@Z 10044c8c f   libucrt:fflush.obj
 0001:00043d56       ??$?RV<lambda_6d20deecaf4856105ebacbad442d1079>@@AAV<lambda_9a32fed5bf61b6b509b2d3f6003082a1>@@V<lambda_63ea2239ed67c638ddbae41947fdf875>@@@?$__crt_seh_guarded_call@H@@QAEH$$QAV<lambda_6d20deecaf4856105ebacbad442d1079>@@AAV<lambda_9a32fed5bf61b6b509b2d3f6003082a1>@@$$QAV<lambda_63ea2239ed67c638ddbae41947fdf875>@@@Z 10044d56 f   libucrt:fflush.obj
 0001:00043dc1       ??$__acrt_lock_and_call@V<lambda_ab61a845afdef5b7c387490eaf3616ee>@@@@YAXW4__acrt_lock_id@@$$QAV<lambda_ab61a845afdef5b7c387490eaf3616ee>@@@Z 10044dc1 f   libucrt:fflush.obj
 0001:00043df3       ??$__acrt_lock_stream_and_call@V<lambda_39ca0ed439415581b5b15c265174cece>@@@@YAXQAU_iobuf@@$$QAV<lambda_39ca0ed439415581b5b15c265174cece>@@@Z 10044df3 f   libucrt:fflush.obj
 0001:00043e25       ??$__acrt_lock_stream_and_call@V<lambda_9a32fed5bf61b6b509b2d3f6003082a1>@@@@YAHQAU_iobuf@@$$QAV<lambda_9a32fed5bf61b6b509b2d3f6003082a1>@@@Z 10044e25 f   libucrt:fflush.obj
 0001:00043e57       ??0<lambda_2866be3712abc81a800a822484c830d8>@@QAE@ABQAU_iobuf@@@Z 10044e57 f   libucrt:fflush.obj
 0001:00043e6d       ??0<lambda_2b24c74d71094a6cd0cb82e44167d71b>@@QAE@ABQAU_iobuf@@@Z 10044e6d f   libucrt:fflush.obj
 0001:00043e83       ??0<lambda_2cc53f568c5a2bb6f192f930a45d44ea>@@QAE@ABW4__acrt_lock_id@@@Z 10044e83 f   libucrt:fflush.obj
 0001:00043e99       ??0<lambda_39ca0ed439415581b5b15c265174cece>@@QAE@ABV__crt_stdio_stream@@AAHAB_N1@Z 10044e99 f   libucrt:fflush.obj
 0001:00043ec3       ??0<lambda_63ea2239ed67c638ddbae41947fdf875>@@QAE@ABQAU_iobuf@@@Z 10044ec3 f   libucrt:fflush.obj
 0001:00043ed9       ??0<lambda_6d20deecaf4856105ebacbad442d1079>@@QAE@ABQAU_iobuf@@@Z 10044ed9 f   libucrt:fflush.obj
 0001:00043eef       ??0<lambda_9a32fed5bf61b6b509b2d3f6003082a1>@@QAE@ABV__crt_stdio_stream@@@Z 10044eef f   libucrt:fflush.obj
 0001:00043f03       ??0<lambda_ab61a845afdef5b7c387490eaf3616ee>@@QAE@AAHAB_N0@Z 10044f03 f   libucrt:fflush.obj
 0001:00043f26       ??0<lambda_c2ffc0b7726aa6be21d5f0026187e748>@@QAE@ABW4__acrt_lock_id@@@Z 10044f26 f   libucrt:fflush.obj
 0001:00043f50       ??R<lambda_2866be3712abc81a800a822484c830d8>@@QBEXXZ 10044f50 f   libucrt:fflush.obj
 0001:00043f5b       ??R<lambda_2b24c74d71094a6cd0cb82e44167d71b>@@QBEXXZ 10044f5b f   libucrt:fflush.obj
 0001:00043f66       ??R<lambda_2cc53f568c5a2bb6f192f930a45d44ea>@@QBEXXZ 10044f66 f   libucrt:fflush.obj
 0001:00043f71       ??R<lambda_39ca0ed439415581b5b15c265174cece>@@QBEXXZ 10044f71 f   libucrt:fflush.obj
 0001:00043fcd       ??R<lambda_63ea2239ed67c638ddbae41947fdf875>@@QBEXXZ 10044fcd f   libucrt:fflush.obj
 0001:00043fd8       ??R<lambda_6d20deecaf4856105ebacbad442d1079>@@QBEXXZ 10044fd8 f   libucrt:fflush.obj
 0001:00043fe3       ??R<lambda_9a32fed5bf61b6b509b2d3f6003082a1>@@QBEHXZ 10044fe3 f   libucrt:fflush.obj
 0001:00043ff0       ??R<lambda_ab61a845afdef5b7c387490eaf3616ee>@@QBE@XZ 10044ff0 f   libucrt:fflush.obj
 0001:0004409c       ??R<lambda_c2ffc0b7726aa6be21d5f0026187e748>@@QBEXXZ 1004509c f   libucrt:fflush.obj
 0001:000440a7       ?common_flush_all@@YAH_N@Z 100450a7 f   libucrt:fflush.obj
 0001:00044109       ?common_flush_all_should_try_to_flush_stream@@YA_NV__crt_stdio_stream@@QAH@Z 10045109 f   libucrt:fflush.obj
 0001:00044147       ?is_stream_allocated@@YA_NJ@Z 10045147 f   libucrt:fflush.obj
 0001:00044159       ?is_stream_flushable@@YA_NJ@Z 10045159 f   libucrt:fflush.obj
 0001:0004417a       ?is_stream_flushable_or_commitable@@YA_NJ@Z 1004517a f   libucrt:fflush.obj
 0001:000442ec       ??$?RV<lambda_70c0770dcc4f6ec6272bb01dc82d3c91>@@AAV<lambda_ca71763b3c0644891230e4f79ea54fa6>@@V<lambda_ca266f0f09348b8765c113e3a39a2bc1>@@@?$__crt_seh_guarded_call@H@@QAEH$$QAV<lambda_70c0770dcc4f6ec6272bb01dc82d3c91>@@AAV<lambda_ca71763b3c0644891230e4f79ea54fa6>@@$$QAV<lambda_ca266f0f09348b8765c113e3a39a2bc1>@@@Z 100452ec f   libucrt:setvbuf.obj
 0001:00044351       ??$__acrt_lock_stream_and_call@V<lambda_ca71763b3c0644891230e4f79ea54fa6>@@@@YAHQAU_iobuf@@$$QAV<lambda_ca71763b3c0644891230e4f79ea54fa6>@@@Z 10045351 f   libucrt:setvbuf.obj
 0001:00044383       ??0<lambda_70c0770dcc4f6ec6272bb01dc82d3c91>@@QAE@ABQAU_iobuf@@@Z 10045383 f   libucrt:setvbuf.obj
 0001:00044399       ??0<lambda_ca266f0f09348b8765c113e3a39a2bc1>@@QAE@ABQAU_iobuf@@@Z 10045399 f   libucrt:setvbuf.obj
 0001:000443af       ??0<lambda_ca71763b3c0644891230e4f79ea54fa6>@@QAE@ABIABV__crt_stdio_stream@@ABHABQAD@Z 100453af f   libucrt:setvbuf.obj
 0001:000443d9       ??R<lambda_70c0770dcc4f6ec6272bb01dc82d3c91>@@QBEXXZ 100453d9 f   libucrt:setvbuf.obj
 0001:000443e4       ??R<lambda_ca266f0f09348b8765c113e3a39a2bc1>@@QBEXXZ 100453e4 f   libucrt:setvbuf.obj
 0001:000443ef       ??R<lambda_ca71763b3c0644891230e4f79ea54fa6>@@QBEHXZ 100453ef f   libucrt:setvbuf.obj
 0001:000444af       ?set_buffer@@YAHV__crt_stdio_stream@@QADIH@Z 100454af f   libucrt:setvbuf.obj
 0001:000445b1       ??$?RV<lambda_cbab9ec6f41b0180b23cc171c22676b0>@@AAV<lambda_44731a7d0e6d81c3e6aa82d741081786>@@V<lambda_4b292cb8dd18144e164572427af410ab>@@@?$__crt_seh_guarded_call@P6AXH@Z@@QAEP6AXH@Z$$QAV<lambda_cbab9ec6f41b0180b23cc171c22676b0>@@AAV<lambda_44731a7d0e6d81c3e6aa82d741081786>@@$$QAV<lambda_4b292cb8dd18144e164572427af410ab>@@@Z 100455b1 f   libucrt:signal.obj
 0001:00044621       ??$__acrt_lock_and_call@V<lambda_44731a7d0e6d81c3e6aa82d741081786>@@@@YAP6AXH@ZW4__acrt_lock_id@@$$QAV<lambda_44731a7d0e6d81c3e6aa82d741081786>@@@Z 10045621 f   libucrt:signal.obj
 0001:00044694       ??0<lambda_4b292cb8dd18144e164572427af410ab>@@QAE@ABW4__acrt_lock_id@@@Z 10045694 f   libucrt:signal.obj
 0001:000446aa       ??0<lambda_cbab9ec6f41b0180b23cc171c22676b0>@@QAE@ABW4__acrt_lock_id@@@Z 100456aa f   libucrt:signal.obj
 0001:000446c0       ??R<lambda_44731a7d0e6d81c3e6aa82d741081786>@@QBEP6AXH@ZXZ 100456c0 f   libucrt:signal.obj
 0001:000446d7       ??R<lambda_4b292cb8dd18144e164572427af410ab>@@QBEXXZ 100456d7 f   libucrt:signal.obj
 0001:000446e2       ??R<lambda_cbab9ec6f41b0180b23cc171c22676b0>@@QBEXXZ 100456e2 f   libucrt:signal.obj
 0001:000446ed       ?ctrlevent_capture@@YGHK@Z 100456ed f   libucrt:signal.obj
 0001:000447c6       ?get_global_action_nolock@@YAPAP6AXH@ZH@Z 100457c6 f   libucrt:signal.obj
 0001:00044847       ?is_console_signal@@YAHH@Z 10045847 f   libucrt:signal.obj
 0001:00044867       ?is_unsupported_signal@@YAHHQ6AXH@Z@Z 10045867 f   libucrt:signal.obj
 0001:00044887       ?siglookup@@YAPAU__crt_signal_action_t@@HQAU1@@Z 10045887 f   libucrt:signal.obj
 0001:000448b9       ?signal_failed@@YAP6AXH@ZH@Z 100458b9 f   libucrt:signal.obj
 0001:00044f6b       ??$get_cached_win_policy@Ubegin_thread_init_policy_properties@?1??__acrt_get_begin_thread_init_policy@@YA?AW4begin_thread_init_policy@@XZ@@@YA?AW4begin_thread_init_policy@@W4AppPolicyThreadInitializationType@@@Z 10045f6b f   libucrt:win_policies.obj
 0001:00044fc0       ??$get_cached_win_policy@Udeveloper_information_policy_properties@?1??__acrt_get_developer_information_policy@@YA?AW4developer_information_policy@@XZ@@@YA?AW4developer_information_policy@@W4AppPolicyShowDeveloperDiagnostic@@@Z 10045fc0 f   libucrt:win_policies.obj
 0001:00045015       ??$get_cached_win_policy@Uwindowing_model_policy_properties@?1??__acrt_get_windowing_model_policy@@YA?AW4windowing_model_policy@@XZ@@@YA?AW4windowing_model_policy@@W4AppPolicyWindowingModel@@@Z 10046015 f   libucrt:win_policies.obj
 0001:00045088       ??$get_win_policy@Uprocess_end_policy_properties@?1??__acrt_get_process_end_policy@@YA?AW4process_end_policy@@XZ@@@YA?AW4process_end_policy@@W4AppPolicyProcessTerminationMethod@@@Z 10046088 f   libucrt:win_policies.obj
 0001:000450c5       ?appmodel_get_policy@begin_thread_init_policy_properties@?1??__acrt_get_begin_thread_init_policy@@YA?AW4begin_thread_init_policy@@XZ@SAJPAW4AppPolicyThreadInitializationType@@@Z 100460c5 f   libucrt:win_policies.obj
 0001:000450d7       ?appmodel_get_policy@developer_information_policy_properties@?1??__acrt_get_developer_information_policy@@YA?AW4developer_information_policy@@XZ@SAJPAW4AppPolicyShowDeveloperDiagnostic@@@Z 100460d7 f   libucrt:win_policies.obj
 0001:000450e9       ?appmodel_get_policy@process_end_policy_properties@?1??__acrt_get_process_end_policy@@YA?AW4process_end_policy@@XZ@SAJPAW4AppPolicyProcessTerminationMethod@@@Z 100460e9 f   libucrt:win_policies.obj
 0001:000450fb       ?appmodel_get_policy@windowing_model_policy_properties@?1??__acrt_get_windowing_model_policy@@YA?AW4windowing_model_policy@@XZ@SAJPAW4AppPolicyWindowingModel@@@Z 100460fb f   libucrt:win_policies.obj
 0001:0004510d       ?appmodel_policy_to_policy_type@begin_thread_init_policy_properties@?1??__acrt_get_begin_thread_init_policy@@YA?AW4begin_thread_init_policy@@XZ@SA?AW43@J@Z 1004610d f   libucrt:win_policies.obj
 0001:00045122       ?appmodel_policy_to_policy_type@developer_information_policy_properties@?1??__acrt_get_developer_information_policy@@YA?AW4developer_information_policy@@XZ@SA?AW43@J@Z 10046122 f   libucrt:win_policies.obj
 0001:00045137       ?appmodel_policy_to_policy_type@process_end_policy_properties@?1??__acrt_get_process_end_policy@@YA?AW4process_end_policy@@XZ@SA?AW43@W4AppPolicyProcessTerminationMethod@@@Z 10046137 f   libucrt:win_policies.obj
 0001:0004514b       ?appmodel_policy_to_policy_type@windowing_model_policy_properties@?1??__acrt_get_windowing_model_policy@@YA?AW4windowing_model_policy@@XZ@SA?AW43@J@Z 1004614b f   libucrt:win_policies.obj
 0001:000452dd       ?<lambda_invoker_stdcall>@<lambda_29d3c280b90b41c2ae070ffca879996a>@@CGHPA_W@Z 100462dd f   libucrt:winapi_thunks.obj
 0001:0004530b       ??$?RV<lambda_93797fb4802c957ba6a7f08e1250235b>@@AAV<lambda_1f3ce6bd48e0aa2e72a71c02eee379d3>@@V<lambda_56cae30c9364c9b6c15aeaac05d0418e>@@@?$__crt_seh_guarded_call@H@@QAEH$$QAV<lambda_93797fb4802c957ba6a7f08e1250235b>@@AAV<lambda_1f3ce6bd48e0aa2e72a71c02eee379d3>@@$$QAV<lambda_56cae30c9364c9b6c15aeaac05d0418e>@@@Z 1004630b f   libucrt:winapi_thunks.obj
 0001:000453b5       ??$__acrt_lock_and_call@V<lambda_1f3ce6bd48e0aa2e72a71c02eee379d3>@@@@YAHW4__acrt_lock_id@@$$QAV<lambda_1f3ce6bd48e0aa2e72a71c02eee379d3>@@@Z 100463b5 f   libucrt:winapi_thunks.obj
 0001:00045428       ??0<lambda_1f3ce6bd48e0aa2e72a71c02eee379d3>@@QAE@ABQ6GHPA_WKJ@Z@Z 10046428 f   libucrt:winapi_thunks.obj
 0001:0004543c       ??0<lambda_56cae30c9364c9b6c15aeaac05d0418e>@@QAE@ABW4__acrt_lock_id@@@Z 1004643c f   libucrt:winapi_thunks.obj
 0001:00045452       ??0<lambda_93797fb4802c957ba6a7f08e1250235b>@@QAE@ABW4__acrt_lock_id@@@Z 10046452 f   libucrt:winapi_thunks.obj
 0001:00045468       ??B<lambda_29d3c280b90b41c2ae070ffca879996a>@@QBEP6GHPA_W@ZXZ 10046468 f   libucrt:winapi_thunks.obj
 0001:0004546e       ??R<lambda_1f3ce6bd48e0aa2e72a71c02eee379d3>@@QBEHXZ 1004646e f   libucrt:winapi_thunks.obj
 0001:000454b7       ??R<lambda_29d3c280b90b41c2ae070ffca879996a>@@QBEHPA_W@Z 100464b7 f   libucrt:winapi_thunks.obj
 0001:0004550e       ??R<lambda_56cae30c9364c9b6c15aeaac05d0418e>@@QBEXXZ 1004650e f   libucrt:winapi_thunks.obj
 0001:00045519       ??R<lambda_93797fb4802c957ba6a7f08e1250235b>@@QBEXXZ 10046519 f   libucrt:winapi_thunks.obj
 0001:00045524       ?enum_system_locales_ex_nolock@@YAHQ6GHPA_WKJ@Z@Z 10046524 f   libucrt:winapi_thunks.obj
 0001:00045574       ?invalid_function_sentinel@@YAPAXXZ 10046574 f   libucrt:winapi_thunks.obj
 0001:00045578       ?try_get_AppPolicyGetProcessTerminationMethod@@YAP6GJPAXPAW4AppPolicyProcessTerminationMethod@@@ZXZ 10046578 f   libucrt:winapi_thunks.obj
 0001:00045598       ?try_get_AppPolicyGetShowDeveloperDiagnostic@@YAP6GJPAXPAW4AppPolicyShowDeveloperDiagnostic@@@ZXZ 10046598 f   libucrt:winapi_thunks.obj
 0001:000455b8       ?try_get_AppPolicyGetThreadInitializationType@@YAP6GJPAXPAW4AppPolicyThreadInitializationType@@@ZXZ 100465b8 f   libucrt:winapi_thunks.obj
 0001:000455d8       ?try_get_AppPolicyGetWindowingModel@@YAP6GJPAXPAW4AppPolicyWindowingModel@@@ZXZ 100465d8 f   libucrt:winapi_thunks.obj
 0001:000455f8       ?try_get_AreFileApisANSI@@YAP6GHXZXZ 100465f8 f   libucrt:winapi_thunks.obj
 0001:00045618       ?try_get_CompareStringEx@@YAP6GHPB_WK0H0HPAU_nlsversioninfo@@PAXJ@ZXZ 10046618 f   libucrt:winapi_thunks.obj
 0001:00045638       ?try_get_EnumSystemLocalesEx@@YAP6GHP6GHPA_WKJ@ZKJPAX@ZXZ 10046638 f   libucrt:winapi_thunks.obj
 0001:00045658       ?try_get_FlsAlloc@@YAP6GKP6GXPAX@Z@ZXZ 10046658 f   libucrt:winapi_thunks.obj
 0001:00045678       ?try_get_FlsFree@@YAP6GHK@ZXZ 10046678 f   libucrt:winapi_thunks.obj
 0001:00045698       ?try_get_FlsGetValue@@YAP6GPAXK@ZXZ 10046698 f   libucrt:winapi_thunks.obj
 0001:000456b8       ?try_get_FlsSetValue@@YAP6GHKPAX@ZXZ 100466b8 f   libucrt:winapi_thunks.obj
 0001:000456d8       ?try_get_GetActiveWindow@@YAP6GPAUHWND__@@XZXZ 100466d8 f   libucrt:winapi_thunks.obj
 0001:000456f8       ?try_get_GetDateFormatEx@@YAP6GHPB_WKPBU_SYSTEMTIME@@0PA_WH0@ZXZ 100466f8 f   libucrt:winapi_thunks.obj
 0001:00045718       ?try_get_GetEnabledXStateFeatures@@YAP6G_KXZXZ 10046718 f   libucrt:winapi_thunks.obj
 0001:00045738       ?try_get_GetLastActivePopup@@YAP6GPAUHWND__@@PAU1@@ZXZ 10046738 f   libucrt:winapi_thunks.obj
 0001:00045758       ?try_get_GetLocaleInfoEx@@YAP6GHPB_WKPA_WH@ZXZ 10046758 f   libucrt:winapi_thunks.obj
 0001:00045778       ?try_get_GetProcessWindowStation@@YAP6GPAUHWINSTA__@@XZXZ 10046778 f   libucrt:winapi_thunks.obj
 0001:00045798       ?try_get_GetSystemTimePreciseAsFileTime@@YAP6GXPAU_FILETIME@@@ZXZ 10046798 f   libucrt:winapi_thunks.obj
 0001:000457b8       ?try_get_GetTimeFormatEx@@YAP6GHPB_WKPBU_SYSTEMTIME@@0PA_WH@ZXZ 100467b8 f   libucrt:winapi_thunks.obj
 0001:000457d8       ?try_get_GetUserDefaultLocaleName@@YAP6GHPA_WH@ZXZ 100467d8 f   libucrt:winapi_thunks.obj
 0001:000457f8       ?try_get_GetUserObjectInformationW@@YAP6GHPAXH0KPAK@ZXZ 100467f8 f   libucrt:winapi_thunks.obj
 0001:00045818       ?try_get_GetXStateFeaturesMask@@YAP6GHPAU_CONTEXT@@PA_K@ZXZ 10046818 f   libucrt:winapi_thunks.obj
 0001:00045838       ?try_get_InitializeCriticalSectionEx@@YAP6GHPAU_RTL_CRITICAL_SECTION@@KK@ZXZ 10046838 f   libucrt:winapi_thunks.obj
 0001:00045858       ?try_get_IsValidLocaleName@@YAP6GHPB_W@ZXZ 10046858 f   libucrt:winapi_thunks.obj
 0001:00045878       ?try_get_LCIDToLocaleName@@YAP6GHKPA_WHK@ZXZ 10046878 f   libucrt:winapi_thunks.obj
 0001:00045898       ?try_get_LCMapStringEx@@YAP6GHPB_WK0HPA_WHPAU_nlsversioninfo@@PAXJ@ZXZ 10046898 f   libucrt:winapi_thunks.obj
 0001:000458b8       ?try_get_LocaleNameToLCID@@YAP6GKPB_WK@ZXZ 100468b8 f   libucrt:winapi_thunks.obj
 0001:000458d8       ?try_get_LocateXStateFeature@@YAP6GPAXPAU_CONTEXT@@KPAK@ZXZ 100468d8 f   libucrt:winapi_thunks.obj
 0001:000458f8       ?try_get_MessageBoxA@@YAP6GHPAUHWND__@@PBD1I@ZXZ 100468f8 f   libucrt:winapi_thunks.obj
 0001:00045918       ?try_get_MessageBoxW@@YAP6GHPAUHWND__@@PB_W1I@ZXZ 10046918 f   libucrt:winapi_thunks.obj
 0001:00045938       ?try_get_RoInitialize@@YAP6GJW4RO_INIT_TYPE@@@ZXZ 10046938 f   libucrt:winapi_thunks.obj
 0001:00045958       ?try_get_RoUninitialize@@YAP6GXXZXZ 10046958 f   libucrt:winapi_thunks.obj
 0001:00045978       ?try_get_SetThreadStackGuarantee@@YAP6GHPAK@ZXZ 10046978 f   libucrt:winapi_thunks.obj
 0001:00045998       ?try_get_SystemFunction036@@YAP6GEPAXK@ZXZ 10046998 f   libucrt:winapi_thunks.obj
 0001:000459b8       ?try_get_first_available_module@@YAPAUHINSTANCE__@@QBW4module_id@?A0x391cf84c@@0@Z 100469b8 f   libucrt:winapi_thunks.obj
 0001:00045ab2       ?try_get_function@@YAPAXW4function_id@?A0x391cf84c@@QBDQBW4module_id@2@2@Z 10046ab2 f   libucrt:winapi_thunks.obj
 0001:00045b54       ?try_get_module@@YAPAUHINSTANCE__@@W4module_id@?A0x391cf84c@@@Z 10046b54 f   libucrt:winapi_thunks.obj
 0001:00045bb9       ?try_get_proc_address_from_first_available_module@@YAPAXQBDQBW4module_id@?A0x391cf84c@@1@Z 10046bb9 f   libucrt:winapi_thunks.obj
 0001:00045be6       ?try_load_library_from_system_directory@@YAPAUHINSTANCE__@@QB_W@Z 10046be6 f   libucrt:winapi_thunks.obj
 0001:00046ca6       ?get_std_handle_id@@YAKH@Z 10047ca6 f   libucrt:ioinit.obj
 0001:00046cd0       ?initialize_inherited_file_handles_nolock@@YAXXZ 10047cd0 f   libucrt:ioinit.obj
 0001:00046db6       ?initialize_stdio_handles_nolock@@YAXXZ 10047db6 f   libucrt:ioinit.obj
 0001:00046f39       ??$?RV<lambda_218ce3db14220d0be481dae8ef3383b6>@@AAV<lambda_628dfdc04ba53c8bfc02c9951375f3f5>@@V<lambda_57dc472bd5c9d5f3b2cbca59b8a843ae>@@@?$__crt_seh_guarded_call@H@@QAEH$$QAV<lambda_218ce3db14220d0be481dae8ef3383b6>@@AAV<lambda_628dfdc04ba53c8bfc02c9951375f3f5>@@$$QAV<lambda_57dc472bd5c9d5f3b2cbca59b8a843ae>@@@Z 10047f39 f   libucrt:close.obj
 0001:00046fdb       ??$__acrt_lowio_lock_fh_and_call@V<lambda_628dfdc04ba53c8bfc02c9951375f3f5>@@@@YAHH$$QAV<lambda_628dfdc04ba53c8bfc02c9951375f3f5>@@@Z 10047fdb f   libucrt:close.obj
 0001:0004700d       ??0<lambda_218ce3db14220d0be481dae8ef3383b6>@@QAE@ABH@Z 1004800d f   libucrt:close.obj
 0001:00047023       ??0<lambda_57dc472bd5c9d5f3b2cbca59b8a843ae>@@QAE@ABH@Z 10048023 f   libucrt:close.obj
 0001:00047039       ??0<lambda_628dfdc04ba53c8bfc02c9951375f3f5>@@QAE@ABH@Z 10048039 f   libucrt:close.obj
 0001:0004704d       ??R<lambda_218ce3db14220d0be481dae8ef3383b6>@@QBEXXZ 1004804d f   libucrt:close.obj
 0001:00047058       ??R<lambda_57dc472bd5c9d5f3b2cbca59b8a843ae>@@QBEXXZ 10048058 f   libucrt:close.obj
 0001:00047063       ??R<lambda_628dfdc04ba53c8bfc02c9951375f3f5>@@QBEHXZ 10048063 f   libucrt:close.obj
 0001:000470aa       ?close_os_handle_nolock@@YAKH@Z 100480aa f   libucrt:close.obj
 0001:000473ef       ?find_or_allocate_unused_stream_nolock@@YA?AV__crt_stdio_stream@@XZ 100483ef f   libucrt:stream.obj
 0001:00047aee       ??$common_openfile@D@@YAPAU_iobuf@@QBD0HV__crt_stdio_stream@@@Z 10048aee f   libucrt:openfile.obj
 0001:00047b94       ??$common_openfile@_W@@YAPAU_iobuf@@QB_W0HV__crt_stdio_stream@@@Z 10048b94 f   libucrt:openfile.obj
 0001:00047f85       ??$translate_text_mode_nolock@D@@YAHHQADI@Z 10048f85 f   libucrt:read.obj
 0001:00048140       ??$translate_text_mode_nolock@_W@@YAHHQA_WI@Z 10049140 f   libucrt:read.obj
 0001:00048387       ?store_lookahead@@YAXHD@Z  10049387 f   libucrt:read.obj
 0001:000483b2       ?store_lookahead@@YAXH_W@Z 100493b2 f   libucrt:read.obj
 0001:00048403       ?translate_ansi_or_utf8_nolock@@YAHHQADIQA_WI@Z 10049403 f   libucrt:read.obj
 0001:000485b2       ?translate_utf16_from_console_nolock@@YAHHQA_WI@Z 100495b2 f   libucrt:read.obj
 0001:00048c4a       ??$common_refill_and_read_nolock@D@@YAHV__crt_stdio_stream@@@Z 10049c4a f   libucrt:_filbuf.obj
 0001:00048e2d       ??$common_refill_and_read_nolock@_W@@YAHV__crt_stdio_stream@@@Z 10049e2d f   libucrt:_filbuf.obj
 0001:00049067       ?get_context_nolock@@YA?AUfilwbuf_context@?A0x763516dc@@V__crt_stdio_stream@@_W@Z 1004a067 f   libucrt:_filbuf.obj
 0001:0004909b       ?get_context_nolock@@YAHV__crt_stdio_stream@@D@Z 1004a09b f   libucrt:_filbuf.obj
 0001:0004909e       ?is_buffer_valid_nolock@@YA_NV__crt_stdio_stream@@D@Z 1004a09e f   libucrt:_filbuf.obj
 0001:000490c1       ?is_buffer_valid_nolock@@YA_NV__crt_stdio_stream@@_W@Z 1004a0c1 f   libucrt:_filbuf.obj
 0001:000490e7       ?read_character_nolock@@YAEV__crt_stdio_stream@@HD@Z 1004a0e7 f   libucrt:_filbuf.obj
 0001:00049103       ?read_character_nolock@@YA_WV__crt_stdio_stream@@Ufilwbuf_context@?A0x763516dc@@_W@Z 1004a103 f   libucrt:_filbuf.obj
 0001:0004916e       ?write_binary_nolock@@YA?AUwrite_result@?A0x17268360@@HQBDI@Z 1004a16e f   libucrt:write.obj
 0001:000491d0       ?write_double_translated_ansi_nolock@@YA?AUwrite_result@?A0x17268360@@HQBDI@Z 1004a1d0 f   libucrt:write.obj
 0001:00049412       ?write_double_translated_unicode_nolock@@YA?AUwrite_result@?A0x17268360@@QBDI@Z 1004a412 f   libucrt:write.obj
 0001:00049496       ?write_requires_double_translation_nolock@@YA_NH@Z 1004a496 f   libucrt:write.obj
 0001:00049529       ?write_text_ansi_nolock@@YA?AUwrite_result@?A0x17268360@@HQBDI@Z 1004a529 f   libucrt:write.obj
 0001:0004963d       ?write_text_utf16le_nolock@@YA?AUwrite_result@?A0x17268360@@HQBDI@Z 1004a63d f   libucrt:write.obj
 0001:00049762       ?write_text_utf8_nolock@@YA?AUwrite_result@?A0x17268360@@HQBDI@Z 1004a762 f   libucrt:write.obj
 0001:00049c9b       ??$common_flush_and_write_nolock@D@@YAHHV__crt_stdio_stream@@@Z 1004ac9b f   libucrt:_flsbuf.obj
 0001:00049df0       ??$common_flush_and_write_nolock@_W@@YAHHV__crt_stdio_stream@@@Z 1004adf0 f   libucrt:_flsbuf.obj
 0001:00049f4a       ??$write_buffer_nolock@D@@YA_NDV__crt_stdio_stream@@@Z 1004af4a f   libucrt:_flsbuf.obj
 0001:0004a047       ??$write_buffer_nolock@_W@@YA_N_WV__crt_stdio_stream@@@Z 1004b047 f   libucrt:_flsbuf.obj
 0001:0004a297       ?filter_mbtowcs_flags@@YAKIK@Z 1004b297 f   libucrt:multibytetowidechar.obj
 0001:0004a3ca       ??$?RV<lambda_15ade71b0218206bbe3333a0c9b79046>@@AAV<lambda_da44e0f8b0f19ba52fefafb335991732>@@V<lambda_207f2d024fc103971653565357d6cd41>@@@?$__crt_seh_guarded_call@X@@QAEX$$QAV<lambda_15ade71b0218206bbe3333a0c9b79046>@@AAV<lambda_da44e0f8b0f19ba52fefafb335991732>@@$$QAV<lambda_207f2d024fc103971653565357d6cd41>@@@Z 1004b3ca f   libucrt:per_thread_data.obj
 0001:0004a424       ??$?RV<lambda_38edbb1296d33220d7e4dd0ed76b244a>@@AAV<lambda_5ce1d447e08cb34b2473517608e21441>@@V<lambda_fb385d3da700c9147fc39e65dd577a8c>@@@?$__crt_seh_guarded_call@X@@QAEX$$QAV<lambda_38edbb1296d33220d7e4dd0ed76b244a>@@AAV<lambda_5ce1d447e08cb34b2473517608e21441>@@$$QAV<lambda_fb385d3da700c9147fc39e65dd577a8c>@@@Z 1004b424 f   libucrt:per_thread_data.obj
 0001:0004a49d       ??$?RV<lambda_6affb1475c98b40b75cdec977db92e3c>@@AAV<lambda_b8d4b9c228a6ecc3f80208dbb4b4a104>@@V<lambda_608742c3c92a14382c1684fc64f96c88>@@@?$__crt_seh_guarded_call@X@@QAEX$$QAV<lambda_6affb1475c98b40b75cdec977db92e3c>@@AAV<lambda_b8d4b9c228a6ecc3f80208dbb4b4a104>@@$$QAV<lambda_608742c3c92a14382c1684fc64f96c88>@@@Z 1004b49d f   libucrt:per_thread_data.obj
 0001:0004a4fa       ??$?RV<lambda_a7e850c220f1c8d1e6efeecdedd162c6>@@AAV<lambda_46720907175c18b6c9d2717bc0d2d362>@@V<lambda_9048902d66e8d99359bc9897bbb930a8>@@@?$__crt_seh_guarded_call@X@@QAEX$$QAV<lambda_a7e850c220f1c8d1e6efeecdedd162c6>@@AAV<lambda_46720907175c18b6c9d2717bc0d2d362>@@$$QAV<lambda_9048902d66e8d99359bc9897bbb930a8>@@@Z 1004b4fa f   libucrt:per_thread_data.obj
 0001:0004a55e       ??$__acrt_lock_and_call@V<lambda_46720907175c18b6c9d2717bc0d2d362>@@@@YAXW4__acrt_lock_id@@$$QAV<lambda_46720907175c18b6c9d2717bc0d2d362>@@@Z 1004b55e f   libucrt:per_thread_data.obj
 0001:0004a590       ??$__acrt_lock_and_call@V<lambda_5ce1d447e08cb34b2473517608e21441>@@@@YAXW4__acrt_lock_id@@$$QAV<lambda_5ce1d447e08cb34b2473517608e21441>@@@Z 1004b590 f   libucrt:per_thread_data.obj
 0001:0004a5c2       ??$__acrt_lock_and_call@V<lambda_b8d4b9c228a6ecc3f80208dbb4b4a104>@@@@YAXW4__acrt_lock_id@@$$QAV<lambda_b8d4b9c228a6ecc3f80208dbb4b4a104>@@@Z 1004b5c2 f   libucrt:per_thread_data.obj
 0001:0004a5f4       ??$__acrt_lock_and_call@V<lambda_da44e0f8b0f19ba52fefafb335991732>@@@@YAXW4__acrt_lock_id@@$$QAV<lambda_da44e0f8b0f19ba52fefafb335991732>@@@Z 1004b5f4 f   libucrt:per_thread_data.obj
 0001:0004a626       ??0<lambda_15ade71b0218206bbe3333a0c9b79046>@@QAE@ABW4__acrt_lock_id@@@Z 1004b626 f   libucrt:per_thread_data.obj
 0001:0004a63c       ??0<lambda_207f2d024fc103971653565357d6cd41>@@QAE@ABW4__acrt_lock_id@@@Z 1004b63c f   libucrt:per_thread_data.obj
 0001:0004a652       ??0<lambda_38edbb1296d33220d7e4dd0ed76b244a>@@QAE@ABW4__acrt_lock_id@@@Z 1004b652 f   libucrt:per_thread_data.obj
 0001:0004a668       ??0<lambda_46720907175c18b6c9d2717bc0d2d362>@@QAE@ABQAU__acrt_ptd@@ABQAPAU__crt_locale_data@@@Z 1004b668 f   libucrt:per_thread_data.obj
 0001:0004a683       ??0<lambda_5ce1d447e08cb34b2473517608e21441>@@QAE@ABQAU__acrt_ptd@@@Z 1004b683 f   libucrt:per_thread_data.obj
 0001:0004a697       ??0<lambda_608742c3c92a14382c1684fc64f96c88>@@QAE@ABW4__acrt_lock_id@@@Z 1004b697 f   libucrt:per_thread_data.obj
 0001:0004a6ad       ??0<lambda_6affb1475c98b40b75cdec977db92e3c>@@QAE@ABW4__acrt_lock_id@@@Z 1004b6ad f   libucrt:per_thread_data.obj
 0001:0004a6c3       ??0<lambda_9048902d66e8d99359bc9897bbb930a8>@@QAE@ABW4__acrt_lock_id@@@Z 1004b6c3 f   libucrt:per_thread_data.obj
 0001:0004a6d9       ??0<lambda_a7e850c220f1c8d1e6efeecdedd162c6>@@QAE@ABW4__acrt_lock_id@@@Z 1004b6d9 f   libucrt:per_thread_data.obj
 0001:0004a6ef       ??0<lambda_b8d4b9c228a6ecc3f80208dbb4b4a104>@@QAE@ABQAU__acrt_ptd@@@Z 1004b6ef f   libucrt:per_thread_data.obj
 0001:0004a703       ??0<lambda_da44e0f8b0f19ba52fefafb335991732>@@QAE@ABQAU__acrt_ptd@@@Z 1004b703 f   libucrt:per_thread_data.obj
 0001:0004a717       ??0<lambda_fb385d3da700c9147fc39e65dd577a8c>@@QAE@ABW4__acrt_lock_id@@@Z 1004b717 f   libucrt:per_thread_data.obj
 0001:0004a77e       ??R<lambda_15ade71b0218206bbe3333a0c9b79046>@@QBEXXZ 1004b77e f   libucrt:per_thread_data.obj
 0001:0004a789       ??R<lambda_207f2d024fc103971653565357d6cd41>@@QBEXXZ 1004b789 f   libucrt:per_thread_data.obj
 0001:0004a794       ??R<lambda_38edbb1296d33220d7e4dd0ed76b244a>@@QBEXXZ 1004b794 f   libucrt:per_thread_data.obj
 0001:0004a79f       ??R<lambda_46720907175c18b6c9d2717bc0d2d362>@@QBEXXZ 1004b79f f   libucrt:per_thread_data.obj
 0001:0004a7b6       ??R<lambda_5ce1d447e08cb34b2473517608e21441>@@QBEXXZ 1004b7b6 f   libucrt:per_thread_data.obj
 0001:0004a7e3       ??R<lambda_608742c3c92a14382c1684fc64f96c88>@@QBEXXZ 1004b7e3 f   libucrt:per_thread_data.obj
 0001:0004a7ee       ??R<lambda_6affb1475c98b40b75cdec977db92e3c>@@QBEXXZ 1004b7ee f   libucrt:per_thread_data.obj
 0001:0004a7f9       ??R<lambda_9048902d66e8d99359bc9897bbb930a8>@@QBEXXZ 1004b7f9 f   libucrt:per_thread_data.obj
 0001:0004a804       ??R<lambda_a7e850c220f1c8d1e6efeecdedd162c6>@@QBEXXZ 1004b804 f   libucrt:per_thread_data.obj
 0001:0004a80f       ??R<lambda_b8d4b9c228a6ecc3f80208dbb4b4a104>@@QBEXXZ 1004b80f f   libucrt:per_thread_data.obj
 0001:0004a820       ??R<lambda_da44e0f8b0f19ba52fefafb335991732>@@QBEXXZ 1004b820 f   libucrt:per_thread_data.obj
 0001:0004a82d       ??R<lambda_fb385d3da700c9147fc39e65dd577a8c>@@QBEXXZ 1004b82d f   libucrt:per_thread_data.obj
 0001:0004a838       ?construct_ptd@@YAXQAU__acrt_ptd@@QAPAU__crt_locale_data@@@Z 1004b838 f   libucrt:per_thread_data.obj
 0001:0004a8f9       ?construct_ptd_array@@YAXQAU__acrt_ptd@@@Z 1004b8f9 f   libucrt:per_thread_data.obj
 0001:0004a917       ?destroy_fls@@YGXPAX@Z     1004b917 f   libucrt:per_thread_data.obj
 0001:0004a940       ?destroy_ptd@@YAXQAU__acrt_ptd@@@Z 1004b940 f   libucrt:per_thread_data.obj
 0001:0004aa42       ?destroy_ptd_array@@YAXQAU__acrt_ptd@@@Z 1004ba42 f   libucrt:per_thread_data.obj
 0001:0004aa53       ?internal_get_ptd_head@@YAPAU__acrt_ptd@@XZ 1004ba53 f   libucrt:per_thread_data.obj
 0001:0004aaf9       ?internal_getptd_noexit@@YAPAU__acrt_ptd@@XZ 1004baf9 f   libucrt:per_thread_data.obj
 0001:0004abf3       ?replace_current_thread_locale_nolock@@YAXQAU__acrt_ptd@@QAU__crt_locale_data@@@Z 1004bbf3 f   libucrt:per_thread_data.obj
 0001:0004ac50       ?try_get_ptd_head@@YAPAU__acrt_ptd@@XZ 1004bc50 f   libucrt:per_thread_data.obj
 0001:0004b034       _no_op_initialize          1004c034 f   libucrt:wsetlocale.obj
 0001:0004b079       ??$?RV<lambda_135d2772fca65dc1248eeaa1b56e886a>@@AAV<lambda_2a444430fde8c29194d880d93eed5e8f>@@AAV<lambda_8dff2cf36a5417162780cd64fa2883ef>@@@?$__crt_seh_guarded_call@X@@QAEX$$QAV<lambda_135d2772fca65dc1248eeaa1b56e886a>@@AAV<lambda_2a444430fde8c29194d880d93eed5e8f>@@AAV<lambda_8dff2cf36a5417162780cd64fa2883ef>@@@Z 1004c079 f   libucrt:wsetlocale.obj
 0001:0004b0c2       ??$?RV<lambda_4fdada1b837b2abbf20876fac97688ad>@@AAV<lambda_b57350f2640456a0859d250846f69caf>@@V<lambda_eed5e4f92b5b7d55fa22c48c484aaa54>@@@?$__crt_seh_guarded_call@X@@QAEX$$QAV<lambda_4fdada1b837b2abbf20876fac97688ad>@@AAV<lambda_b57350f2640456a0859d250846f69caf>@@$$QAV<lambda_eed5e4f92b5b7d55fa22c48c484aaa54>@@@Z 1004c0c2 f   libucrt:wsetlocale.obj
 0001:0004b115       ??$?RV<lambda_6673f7c4c09a5d469d0c27ae364621ce>@@AAV<lambda_ebab98244f73a74f49db879bf13fa982>@@V<lambda_be20789b7a146653eab82509ec35b419>@@@?$__crt_seh_guarded_call@X@@QAEX$$QAV<lambda_6673f7c4c09a5d469d0c27ae364621ce>@@AAV<lambda_ebab98244f73a74f49db879bf13fa982>@@$$QAV<lambda_be20789b7a146653eab82509ec35b419>@@@Z 1004c115 f   libucrt:wsetlocale.obj
 0001:0004b16f       ??$?RV<lambda_82aef432098b982f9ede325b418aa67a>@@AAV<lambda_862e9a3f04921db6ca1ce3faa2bf3edf>@@V<lambda_ffabc152e504b53d7492b9889b10c020>@@@?$__crt_seh_guarded_call@X@@QAEX$$QAV<lambda_82aef432098b982f9ede325b418aa67a>@@AAV<lambda_862e9a3f04921db6ca1ce3faa2bf3edf>@@$$QAV<lambda_ffabc152e504b53d7492b9889b10c020>@@@Z 1004c16f f   libucrt:wsetlocale.obj
 0001:0004b1cb       ??$?RV<lambda_e5124f882df8998aaf41531e079ba474>@@AAV<lambda_3e16ef9562a7dcce91392c22ab16ea36>@@V<lambda_e25ca0880e6ef98be67edffd8c599615>@@@?$__crt_seh_guarded_call@X@@QAEX$$QAV<lambda_e5124f882df8998aaf41531e079ba474>@@AAV<lambda_3e16ef9562a7dcce91392c22ab16ea36>@@$$QAV<lambda_e25ca0880e6ef98be67edffd8c599615>@@@Z 1004c1cb f   libucrt:wsetlocale.obj
 0001:0004b248       ??$__acrt_lock_and_call@V<lambda_3e16ef9562a7dcce91392c22ab16ea36>@@@@YAXW4__acrt_lock_id@@$$QAV<lambda_3e16ef9562a7dcce91392c22ab16ea36>@@@Z 1004c248 f   libucrt:wsetlocale.obj
 0001:0004b27a       ??$__acrt_lock_and_call@V<lambda_862e9a3f04921db6ca1ce3faa2bf3edf>@@@@YAXW4__acrt_lock_id@@$$QAV<lambda_862e9a3f04921db6ca1ce3faa2bf3edf>@@@Z 1004c27a f   libucrt:wsetlocale.obj
 0001:0004b2ac       ??$__acrt_lock_and_call@V<lambda_b57350f2640456a0859d250846f69caf>@@@@YAXW4__acrt_lock_id@@$$QAV<lambda_b57350f2640456a0859d250846f69caf>@@@Z 1004c2ac f   libucrt:wsetlocale.obj
 0001:0004b2de       ??$__acrt_lock_and_call@V<lambda_ebab98244f73a74f49db879bf13fa982>@@@@YAXW4__acrt_lock_id@@$$QAV<lambda_ebab98244f73a74f49db879bf13fa982>@@@Z 1004c2de f   libucrt:wsetlocale.obj
 0001:0004b310       ??$__crt_call_and_cleanup@V<lambda_2a444430fde8c29194d880d93eed5e8f>@@V<lambda_8dff2cf36a5417162780cd64fa2883ef>@@@@YAX$$QAV<lambda_2a444430fde8c29194d880d93eed5e8f>@@$$QAV<lambda_8dff2cf36a5417162780cd64fa2883ef>@@@Z 1004c310 f   libucrt:wsetlocale.obj
 0001:0004b334       ??$uninitialize@V<lambda_88ce03f932007f29bf8b8056cbaba4f3>@@@?$dual_state_global@PAU__crt_locale_data@@@__crt_state_management@@QAEX$$QAV<lambda_88ce03f932007f29bf8b8056cbaba4f3>@@@Z 1004c334 f   libucrt:wsetlocale.obj
 0001:0004b36e       ??0<lambda_2a444430fde8c29194d880d93eed5e8f>@@QAE@AAPAU__crt_locale_data@@ABQAU__acrt_ptd@@AAPA_WAAHAAPB_W@Z 1004c36e f   libucrt:wsetlocale.obj
 0001:0004b3a0       ??0<lambda_4fdada1b837b2abbf20876fac97688ad>@@QAE@ABW4__acrt_lock_id@@@Z 1004c3a0 f   libucrt:wsetlocale.obj
 0001:0004b3b6       ??0<lambda_6673f7c4c09a5d469d0c27ae364621ce>@@QAE@ABW4__acrt_lock_id@@@Z 1004c3b6 f   libucrt:wsetlocale.obj
 0001:0004b3cc       ??0<lambda_82aef432098b982f9ede325b418aa67a>@@QAE@ABW4__acrt_lock_id@@@Z 1004c3cc f   libucrt:wsetlocale.obj
 0001:0004b3e2       ??0<lambda_862e9a3f04921db6ca1ce3faa2bf3edf>@@QAE@AAV?$__crt_unique_heap_ptr@U__crt_locale_pointers@@U__crt_internal_free_policy@@@@@Z 1004c3e2 f   libucrt:wsetlocale.obj
 0001:0004b3f6       ??0<lambda_8dff2cf36a5417162780cd64fa2883ef>@@QAE@ABQAU__acrt_ptd@@@Z 1004c3f6 f   libucrt:wsetlocale.obj
 0001:0004b40a       ??0<lambda_b57350f2640456a0859d250846f69caf>@@QAE@AAPAU__crt_locale_data@@ABQAU__acrt_ptd@@AAPA_WAAHAAPB_W@Z 1004c40a f   libucrt:wsetlocale.obj
 0001:0004b43c       ??0<lambda_be20789b7a146653eab82509ec35b419>@@QAE@ABW4__acrt_lock_id@@@Z 1004c43c f   libucrt:wsetlocale.obj
 0001:0004b452       ??0<lambda_e25ca0880e6ef98be67edffd8c599615>@@QAE@ABW4__acrt_lock_id@@@Z 1004c452 f   libucrt:wsetlocale.obj
 0001:0004b468       ??0<lambda_e5124f882df8998aaf41531e079ba474>@@QAE@ABW4__acrt_lock_id@@@Z 1004c468 f   libucrt:wsetlocale.obj
 0001:0004b47e       ??0<lambda_ebab98244f73a74f49db879bf13fa982>@@QAE@AAV?$__crt_unique_heap_ptr@U__crt_locale_pointers@@U__crt_internal_free_policy@@@@@Z 1004c47e f   libucrt:wsetlocale.obj
 0001:0004b492       ??0<lambda_eed5e4f92b5b7d55fa22c48c484aaa54>@@QAE@ABW4__acrt_lock_id@@@Z 1004c492 f   libucrt:wsetlocale.obj
 0001:0004b4a8       ??0<lambda_ffabc152e504b53d7492b9889b10c020>@@QAE@ABW4__acrt_lock_id@@@Z 1004c4a8 f   libucrt:wsetlocale.obj
 0001:0004b551       ??R<lambda_135d2772fca65dc1248eeaa1b56e886a>@@QBEXXZ 1004c551 f   libucrt:wsetlocale.obj
 0001:0004b552       ??R<lambda_2a444430fde8c29194d880d93eed5e8f>@@QBE@XZ 1004c552 f   libucrt:wsetlocale.obj
 0001:0004b5d9       ??R<lambda_3e16ef9562a7dcce91392c22ab16ea36>@@QBE@XZ 1004c5d9 f   libucrt:wsetlocale.obj
 0001:0004b601       ??R<lambda_4fdada1b837b2abbf20876fac97688ad>@@QBEXXZ 1004c601 f   libucrt:wsetlocale.obj
 0001:0004b60c       ??R<lambda_6673f7c4c09a5d469d0c27ae364621ce>@@QBEXXZ 1004c60c f   libucrt:wsetlocale.obj
 0001:0004b617       ??R<lambda_82aef432098b982f9ede325b418aa67a>@@QBEXXZ 1004c617 f   libucrt:wsetlocale.obj
 0001:0004b622       ??R<lambda_862e9a3f04921db6ca1ce3faa2bf3edf>@@QBEXXZ 1004c622 f   libucrt:wsetlocale.obj
 0001:0004b632       ??R<lambda_88ce03f932007f29bf8b8056cbaba4f3>@@QBEXAAPAU__crt_locale_data@@@Z 1004c632 f   libucrt:wsetlocale.obj
 0001:0004b65c       ??R<lambda_8dff2cf36a5417162780cd64fa2883ef>@@QBEXXZ 1004c65c f   libucrt:wsetlocale.obj
 0001:0004b66b       ??R<lambda_b57350f2640456a0859d250846f69caf>@@QBEXXZ 1004c66b f   libucrt:wsetlocale.obj
 0001:0004b7a8       ??R<lambda_be20789b7a146653eab82509ec35b419>@@QBEXXZ 1004c7a8 f   libucrt:wsetlocale.obj
 0001:0004b7b3       ??R<lambda_e25ca0880e6ef98be67edffd8c599615>@@QBEXXZ 1004c7b3 f   libucrt:wsetlocale.obj
 0001:0004b7be       ??R<lambda_e5124f882df8998aaf41531e079ba474>@@QBEXXZ 1004c7be f   libucrt:wsetlocale.obj
 0001:0004b7c9       ??R<lambda_ebab98244f73a74f49db879bf13fa982>@@QBEXXZ 1004c7c9 f   libucrt:wsetlocale.obj
 0001:0004b7d6       ??R<lambda_eed5e4f92b5b7d55fa22c48c484aaa54>@@QBEXXZ 1004c7d6 f   libucrt:wsetlocale.obj
 0001:0004b7e1       ??R<lambda_ffabc152e504b53d7492b9889b10c020>@@QBEXXZ 1004c7e1 f   libucrt:wsetlocale.obj
 0001:0004bbc3       __copytlocinfo_nolock      1004cbc3 f   libucrt:wsetlocale.obj
 0001:0004c53c       __wsetlocale_get_all       1004d53c f   libucrt:wsetlocale.obj
 0001:0004c740       __wsetlocale_nolock        1004d740 f   libucrt:wsetlocale.obj
 0001:0004cae7       __wsetlocale_set_cat       1004dae7 f   libucrt:wsetlocale.obj
 0001:0004cfa3       _sync_legacy_variables_lk  1004dfa3 f   libucrt:wsetlocale.obj
 0001:0004cffd       ??$common_lseek@J@@YAJHJH@Z 1004dffd f   libucrt:lseek.obj
 0001:0004d11f       ??$common_lseek@_J@@YA_JH_JH@Z 1004e11f f   libucrt:lseek.obj
 0001:0004d261       ??$common_lseek_nolock@J@@YAJHJH@Z 1004e261 f   libucrt:lseek.obj
 0001:0004d2cd       ??$common_lseek_nolock@_J@@YA_JH_JH@Z 1004e2cd f   libucrt:lseek.obj
 0001:0004d36a       ?common_lseek_do_seek_nolock@@YAJQAXJH@Z 1004e36a f   libucrt:lseek.obj
 0001:0004d40f       ?common_lseek_do_seek_nolock@@YA_JQAX_JH@Z 1004e40f f   libucrt:lseek.obj
 0001:0004d4b9       ?fast_check@@YAHHH@Z       1004e4b9 f   libucrt:_ctype.obj
 0001:0004dbcf       ??$common_tox_l@$1?internal_islower_l@@YA_NHQAU__crt_locale_pointers@@@Z$1?internal_map_upper@@YAHH0@Z@@YAHHKQAU__crt_locale_pointers@@@Z 1004ebcf f   libucrt:tolower_toupper.obj
 0001:0004dd6b       ??$common_tox_l@$1?internal_isupper_l@@YA_NHQAU__crt_locale_pointers@@@Z$1?internal_map_lower@@YAHH0@Z@@YAHHKQAU__crt_locale_pointers@@@Z 1004ed6b f   libucrt:tolower_toupper.obj
 0001:0004df07       ?internal_islower_l@@YA_NHQAU__crt_locale_pointers@@@Z 1004ef07 f   libucrt:tolower_toupper.obj
 0001:0004df2a       ?internal_isupper_l@@YA_NHQAU__crt_locale_pointers@@@Z 1004ef2a f   libucrt:tolower_toupper.obj
 0001:0004df4d       ?internal_map_lower@@YAHHQAU__crt_locale_pointers@@@Z 1004ef4d f   libucrt:tolower_toupper.obj
 0001:0004df6c       ?internal_map_upper@@YAHHQAU__crt_locale_pointers@@@Z 1004ef6c f   libucrt:tolower_toupper.obj
 0001:0004ed41       ??$common_strnlen@$00G@@YAIQBGI@Z 1004fd41 f   libucrt:strnlen.obj
 0001:0004eec4       ??$common_strnlen@$0A@E@@YAIQBEI@Z 1004fec4 f   libucrt:strnlen.obj
 0001:0004f029       ??$common_strnlen@$0A@G@@YAIQBGI@Z 10050029 f   libucrt:strnlen.obj
 0001:0004f23c       ??$common_strnlen_c@$00G@@YAIQBGI@Z 1005023c f   libucrt:strnlen.obj
 0001:0004f25c       ??$common_strnlen_c@$0A@E@@YAIQBEI@Z 1005025c f   libucrt:strnlen.obj
 0001:0004f285       ??$common_strnlen_c@$0A@G@@YAIQBGI@Z 10050285 f   libucrt:strnlen.obj
 0001:0004f2b5       ??$common_strnlen_simd@$00$00G@@YAIQBGI@Z 100502b5 f   libucrt:strnlen.obj
 0001:0004f364       ??$common_strnlen_simd@$00$0A@G@@YAIQBGI@Z 10050364 f   libucrt:strnlen.obj
 0001:0004f411       ??$common_strnlen_simd@$0A@$00E@@YAIQBEI@Z 10050411 f   libucrt:strnlen.obj
 0001:0004f4a9       ??$common_strnlen_simd@$0A@$00G@@YAIQBGI@Z 100504a9 f   libucrt:strnlen.obj
 0001:0004f59b       ??$common_strnlen_simd@$0A@$0A@E@@YAIQBEI@Z 1005059b f   libucrt:strnlen.obj
 0001:0004f632       ??$common_strnlen_simd@$0A@$0A@G@@YAIQBGI@Z 10050632 f   libucrt:strnlen.obj
 0001:0004f723       ??$last_reached@$00@@YA_NQBX0@Z 10050723 f   libucrt:strnlen.obj
 0001:0004f726       ??$last_reached@$0A@@@YA_NQBX0@Z 10050726 f   libucrt:strnlen.obj
 0001:0004fcf7       ?fp_format_a@@YAHQBNPADIQADIH_NIQAU__crt_locale_pointers@@@Z 10050cf7 f   libucrt:cvt.obj
 0001:000500d7       ?fp_format_e@@YAHQBNQADI1IH_NIQAU__crt_locale_pointers@@@Z 100510d7 f   libucrt:cvt.obj
 0001:000501a4       ?fp_format_e_internal@@YAHQADIH_NIQAU_strflt@@1QAU__crt_locale_pointers@@@Z 100511a4 f   libucrt:cvt.obj
 0001:00050340       ?fp_format_f@@YAHQBNQADI1IHQAU__crt_locale_pointers@@@Z 10051340 f   libucrt:cvt.obj
 0001:000503f0       ?fp_format_f_internal@@YAHQADIHQAU_strflt@@_NQAU__crt_locale_pointers@@@Z 100513f0 f   libucrt:cvt.obj
 0001:000504f7       ?fp_format_g@@YAHQBNQADI1IH_NIQAU__crt_locale_pointers@@@Z 100514f7 f   libucrt:cvt.obj
 0001:000505ea       ?fp_format_nan_or_infinity@@YAHW4__acrt_fp_class@@_NPADI1@Z 100515ea f   libucrt:cvt.obj
 0001:0005071c       ?shift_bytes@@YAXQADI0H@Z  1005171c f   libucrt:cvt.obj
 0001:000508f6       ?fputwc_binary_nolock@@YAG_WV__crt_stdio_stream@@@Z 100518f6 f   libucrt:fputwc.obj
 0001:00051684       ?<lambda_invoker_cdecl>@<lambda_601ce2808d07e6dd980fd6da59ab4158>@@CAHPBX0@Z 10052684 f   libucrt:argv_wildcards.obj
 0001:000516a2       ?<lambda_invoker_cdecl>@<lambda_86056e3c024bff449830248dc1621ed2>@@CAHPBX0@Z 100526a2 f   libucrt:argv_wildcards.obj
 0001:000516c0       ??$common_expand_argv_wildcards@D@@YAHQAPADQAPAPAD@Z 100526c0 f   libucrt:argv_wildcards.obj
 0001:0005192d       ??$common_expand_argv_wildcards@_W@@YAHQAPA_WQAPAPA_W@Z 1005292d f   libucrt:argv_wildcards.obj
 0001:00051be6       ??$copy_and_add_argument_to_buffer@D@@YAHQBD0IAAV?$argument_list@D@?A0x5f5c8891@@@Z 10052be6 f   libucrt:argv_wildcards.obj
 0001:00051cc5       ??$copy_and_add_argument_to_buffer@_W@@YAHQB_W0IAAV?$argument_list@_W@?A0x5f5c8891@@@Z 10052cc5 f   libucrt:argv_wildcards.obj
 0001:00051da8       ??$expand_argument_wildcards@D@@YAHQAD0AAV?$argument_list@D@?A0x5f5c8891@@@Z 10052da8 f   libucrt:argv_wildcards.obj
 0001:00051f88       ??$expand_argument_wildcards@_W@@YAHQA_W0AAV?$argument_list@_W@?A0x5f5c8891@@@Z 10052f88 f   libucrt:argv_wildcards.obj
 0001:00052368       ??0?$argument_list@D@?A0x5f5c8891@@QAE@XZ 10053368 f   libucrt:argv_wildcards.obj
 0001:00052378       ??0?$argument_list@_W@?A0x5f5c8891@@QAE@XZ 10053378 f   libucrt:argv_wildcards.obj
 0001:000523a4       ??1?$argument_list@D@?A0x5f5c8891@@QAE@XZ 100533a4 f   libucrt:argv_wildcards.obj
 0001:000523d7       ??1?$argument_list@_W@?A0x5f5c8891@@QAE@XZ 100533d7 f   libucrt:argv_wildcards.obj
 0001:0005240a       ??B<lambda_601ce2808d07e6dd980fd6da59ab4158>@@QBEP6AHPBX0@ZXZ 1005340a f   libucrt:argv_wildcards.obj
 0001:00052410       ??B<lambda_86056e3c024bff449830248dc1621ed2>@@QBEP6AHPBX0@ZXZ 10053410 f   libucrt:argv_wildcards.obj
 0001:00052416       ??R<lambda_594f614a8947934b886943aa86a6498d>@@QBE_ND@Z 10053416 f   libucrt:argv_wildcards.obj
 0001:0005243b       ??R<lambda_601ce2808d07e6dd980fd6da59ab4158>@@QBEHPBX0@Z 1005343b f   libucrt:argv_wildcards.obj
 0001:0005245b       ??R<lambda_86056e3c024bff449830248dc1621ed2>@@QBEHPBX0@Z 1005345b f   libucrt:argv_wildcards.obj
 0001:0005247b       ??R<lambda_d734a73e0f649ebd9d9b0eca0b8ca86a>@@QBE_N_W@Z 1005347b f   libucrt:argv_wildcards.obj
 0001:000524a8       ?append@?$argument_list@D@?A0x5f5c8891@@QAEHQAD@Z 100534a8 f   libucrt:argv_wildcards.obj
 0001:000524ea       ?append@?$argument_list@_W@?A0x5f5c8891@@QAEHQA_W@Z 100534ea f   libucrt:argv_wildcards.obj
 0001:0005252c       ?begin@?$argument_list@D@?A0x5f5c8891@@QBEPAPADXZ 1005352c f   libucrt:argv_wildcards.obj
 0001:0005252f       ?begin@?$argument_list@_W@?A0x5f5c8891@@QBEPAPA_WXZ 1005352f f   libucrt:argv_wildcards.obj
 0001:00052568       ?end@?$argument_list@D@?A0x5f5c8891@@QBEPAPADXZ 10053568 f   libucrt:argv_wildcards.obj
 0001:0005256c       ?end@?$argument_list@_W@?A0x5f5c8891@@QBEPAPA_WXZ 1005356c f   libucrt:argv_wildcards.obj
 0001:00052570       ?expand_if_necessary@?$argument_list@D@?A0x5f5c8891@@AAEHXZ 10053570 f   libucrt:argv_wildcards.obj
 0001:00052618       ?expand_if_necessary@?$argument_list@_W@?A0x5f5c8891@@AAEHXZ 10053618 f   libucrt:argv_wildcards.obj
 0001:000526c7       ?previous_character@@YAPADQAD0@Z 100536c7 f   libucrt:argv_wildcards.obj
 0001:000526d4       ?previous_character@@YAPA_WPA_WQA_W@Z 100536d4 f   libucrt:argv_wildcards.obj
 0001:000526e4       ?size@?$argument_list@D@?A0x5f5c8891@@QBEIXZ 100536e4 f   libucrt:argv_wildcards.obj
 0001:000526ef       ?size@?$argument_list@_W@?A0x5f5c8891@@QBEIXZ 100536ef f   libucrt:argv_wildcards.obj
 0001:0005272e       ??$?RV<lambda_ceb1ee4838e85a9d631eb091e2fbe199>@@AAV<lambda_ae742caa10f662c28703da3d2ea5e57e>@@V<lambda_cd08b5d6af4937fe54fc07d0c9bf6b37>@@@?$__crt_seh_guarded_call@X@@QAEX$$QAV<lambda_ceb1ee4838e85a9d631eb091e2fbe199>@@AAV<lambda_ae742caa10f662c28703da3d2ea5e57e>@@$$QAV<lambda_cd08b5d6af4937fe54fc07d0c9bf6b37>@@@Z 1005372e f   libucrt:mbctype.obj
 0001:00052781       ??$__acrt_lock_and_call@V<lambda_ae742caa10f662c28703da3d2ea5e57e>@@@@YAXW4__acrt_lock_id@@$$QAV<lambda_ae742caa10f662c28703da3d2ea5e57e>@@@Z 10053781 f   libucrt:mbctype.obj
 0001:000527d7       ??0<lambda_ae742caa10f662c28703da3d2ea5e57e>@@QAE@ABQAU__acrt_ptd@@ABQAPAU__crt_multibyte_data@@@Z 100537d7 f   libucrt:mbctype.obj
 0001:000527f2       ??0<lambda_cd08b5d6af4937fe54fc07d0c9bf6b37>@@QAE@ABW4__acrt_lock_id@@@Z 100537f2 f   libucrt:mbctype.obj
 0001:00052808       ??0<lambda_ceb1ee4838e85a9d631eb091e2fbe199>@@QAE@ABW4__acrt_lock_id@@@Z 10053808 f   libucrt:mbctype.obj
 0001:0005281e       ??R<lambda_ae742caa10f662c28703da3d2ea5e57e>@@QBEXXZ 1005381e f   libucrt:mbctype.obj
 0001:000528c1       ??R<lambda_cd08b5d6af4937fe54fc07d0c9bf6b37>@@QBEXXZ 100538c1 f   libucrt:mbctype.obj
 0001:000528cc       ??R<lambda_ceb1ee4838e85a9d631eb091e2fbe199>@@QBEXXZ 100538cc f   libucrt:mbctype.obj
 0001:000528d7       ?CPtoLocaleName@@YAPB_WH@Z 100538d7 f   libucrt:mbctype.obj
 0001:0005292a       ?getSystemCP@@YAHH@Z       1005392a f   libucrt:mbctype.obj
 0001:000529e8       ?setSBCS@@YAXPAU__crt_multibyte_data@@@Z 100539e8 f   libucrt:mbctype.obj
 0001:00052a66       ?setSBUpLow@@YAXPAU__crt_multibyte_data@@@Z 10053a66 f   libucrt:mbctype.obj
 0001:00052c8c       ?setmbcp_internal@@YAHH_NQAU__acrt_ptd@@QAPAU__crt_multibyte_data@@@Z 10053c8c f   libucrt:mbctype.obj
 0001:00052ded       ?update_thread_multibyte_data_internal@@YAPAU__crt_multibyte_data@@QAU__acrt_ptd@@QAPAU1@@Z 10053ded f   libucrt:mbctype.obj
 0001:0005320a       _memcpy_s                  1005420a f   libucrt:mbctype.obj
 0001:000532ab       ?x_ismbbtype_l@@YAHPAU__crt_locale_pointers@@IHH@Z 100542ab f   libucrt:ismbbyte.obj
 0001:00053732       ?filter_wcstomb_flags@@YAKIK@Z 10054732 f   libucrt:widechartomultibyte.obj
 0001:00053888       ??0?$__crt_unique_handle_t@Uenvironment_strings_traits@?A0x1bf47908@@@@QAE@QA_W@Z 10054888 f   libucrt:get_environment_from_os.obj
 0001:0005389c       ??1?$__crt_unique_handle_t@Uenvironment_strings_traits@?A0x1bf47908@@@@QAE@XZ 1005489c f   libucrt:get_environment_from_os.obj
 0001:000538b8       ??B?$__crt_unique_handle_t@Uenvironment_strings_traits@?A0x1bf47908@@@@QBE_NXZ 100548b8 f   libucrt:get_environment_from_os.obj
 0001:000538bf       ?close@?$__crt_unique_handle_t@Uenvironment_strings_traits@?A0x1bf47908@@@@QAEXXZ 100548bf f   libucrt:get_environment_from_os.obj
 0001:000538db       ?close@environment_strings_traits@?A0x1bf47908@@SA_NPA_W@Z 100548db f   libucrt:get_environment_from_os.obj
 0001:000538f1       ?find_end_of_double_null_terminated_sequence@@YAPB_WQB_W@Z 100548f1 f   libucrt:get_environment_from_os.obj
 0001:00053935       ?get@?$__crt_unique_handle_t@Uenvironment_strings_traits@?A0x1bf47908@@@@QBEPA_WXZ 10054935 f   libucrt:get_environment_from_os.obj
 0001:00053938       ?get_invalid_value@environment_strings_traits@?A0x1bf47908@@SAPA_WXZ 10054938 f   libucrt:get_environment_from_os.obj
 0001:0005393b       ?is_valid@?$__crt_unique_handle_t@Uenvironment_strings_traits@?A0x1bf47908@@@@QBE_NXZ 1005493b f   libucrt:get_environment_from_os.obj
 0001:00053a4d       ??$common_set_variable_in_environment_nolock@D@@YAHQADH@Z 10054a4d f   libucrt:setenv.obj
 0001:00053d1d       ??$common_set_variable_in_environment_nolock@_W@@YAHQA_WH@Z 10054d1d f   libucrt:setenv.obj
 0001:00054007       ??$copy_environment@D@@YAPAPADQAPAD@Z 10055007 f   libucrt:setenv.obj
 0001:000540e5       ??$copy_environment@_W@@YAPAPA_WQAPA_W@Z 100550e5 f   libucrt:setenv.obj
 0001:000541d5       ??$ensure_current_environment_is_not_initial_environment_nolock@D@@YAXXZ 100551d5 f   libucrt:setenv.obj
 0001:000541f5       ??$ensure_current_environment_is_not_initial_environment_nolock@_W@@YAXXZ 100551f5 f   libucrt:setenv.obj
 0001:00054215       ??$find_in_environment_nolock@D@@YAHQBDI@Z 10055215 f   libucrt:setenv.obj
 0001:0005427f       ??$find_in_environment_nolock@_W@@YAHQB_WI@Z 1005527f f   libucrt:setenv.obj
 0001:00054454       ?get_environment@@YAAAPAPADD@Z 10055454 f   libucrt:setenv.obj
 0001:0005445a       ?get_environment@@YAAAPAPA_W_W@Z 1005545a f   libucrt:setenv.obj
 0001:00054460       ?get_initial_environment@@YAAAPAPADD@Z 10055460 f   libucrt:setenv.obj
 0001:00054466       ?get_initial_environment@@YAAAPAPA_W_W@Z 10055466 f   libucrt:setenv.obj
 0001:0005446c       ?get_other_environment@@YAAAPAPAD_W@Z 1005546c f   libucrt:setenv.obj
 0001:00054472       ?get_other_environment@@YAAAPAPA_WD@Z 10055472 f   libucrt:setenv.obj
 0001:00054ac9       ??$common_tcsncpy_s@_W@@YAHQA_WIQB_WI@Z 10055ac9 f   libucrt:wcsncpy_s.obj
 0001:00054bd5       ?_mbstowcs_l_helper@@YAIPA_WPBDIPAU__crt_locale_pointers@@@Z 10055bd5 f   libucrt:mbstowcs.obj
 0001:00054ff3       ??$?RV<lambda_9e9de3de5fa147e2223d7db92bc10aa6>@@AAV<lambda_38ce7e780aa69e748d6df282ebc68efe>@@V<lambda_8ca6da459f0f6780f1cff60fdc3d00e5>@@@?$__crt_seh_guarded_call@H@@QAEH$$QAV<lambda_9e9de3de5fa147e2223d7db92bc10aa6>@@AAV<lambda_38ce7e780aa69e748d6df282ebc68efe>@@$$QAV<lambda_8ca6da459f0f6780f1cff60fdc3d00e5>@@@Z 10055ff3 f   libucrt:commit.obj
 0001:000550b1       ??$__acrt_lowio_lock_fh_and_call@V<lambda_38ce7e780aa69e748d6df282ebc68efe>@@@@YAHH$$QAV<lambda_38ce7e780aa69e748d6df282ebc68efe>@@@Z 100560b1 f   libucrt:commit.obj
 0001:000550e3       ??0<lambda_38ce7e780aa69e748d6df282ebc68efe>@@QAE@ABH@Z 100560e3 f   libucrt:commit.obj
 0001:000550f7       ??0<lambda_8ca6da459f0f6780f1cff60fdc3d00e5>@@QAE@ABH@Z 100560f7 f   libucrt:commit.obj
 0001:0005510d       ??0<lambda_9e9de3de5fa147e2223d7db92bc10aa6>@@QAE@ABH@Z 1005610d f   libucrt:commit.obj
 0001:00055123       ??R<lambda_38ce7e780aa69e748d6df282ebc68efe>@@QBEHXZ 10056123 f   libucrt:commit.obj
 0001:0005518d       ??R<lambda_8ca6da459f0f6780f1cff60fdc3d00e5>@@QBEXXZ 1005618d f   libucrt:commit.obj
 0001:00055198       ??R<lambda_9e9de3de5fa147e2223d7db92bc10aa6>@@QBEXXZ 10056198 f   libucrt:commit.obj
 0001:00055241       ?GetTableIndexFromLcid@@YAHK@Z 10056241 f   libucrt:lcidtoname_downlevel.obj
 0001:00055285       ?GetTableIndexFromLocaleName@@YAHPB_W@Z 10056285 f   libucrt:lcidtoname_downlevel.obj
 0001:00055366       ?__wcsnicmp_ascii@@YAHPB_W0I@Z 10056366 f   libucrt:lcidtoname_downlevel.obj
 0001:00055f5f       ??$__acrt_convert_wcs_mbs_cp@D_WV<lambda_62f6974d9771e494a5ea317cc32e971c>@@U__crt_win32_buffer_internal_dynamic_resizing@@@@YAHQBDAAV?$__crt_win32_buffer@_WU__crt_win32_buffer_internal_dynamic_resizing@@@@ABV<lambda_62f6974d9771e494a5ea317cc32e971c>@@I@Z 10056f5f f   libucrt:open.obj
 0001:00056005       ??$common_open@D@@YAHQBDHH@Z 10057005 f   libucrt:open.obj
 0001:000560d9       ??$common_open@_W@@YAHQB_WHH@Z 100570d9 f   libucrt:open.obj
 0001:000561ad       ??$common_sopen_dispatch@D@@YAHQBDHHHQAHH@Z 100571ad f   libucrt:open.obj
 0001:00056291       ??$common_sopen_dispatch@_W@@YAHQB_WHHHQAHH@Z 10057291 f   libucrt:open.obj
 0001:0005646d       ??R<lambda_62f6974d9771e494a5ea317cc32e971c>@@QBEHIQBDQA_WI@Z 1005746d f   libucrt:open.obj
 0001:00056496       ?configure_text_mode@@YAHHUfile_options@?A0xa9d50aae@@HAAW4__crt_lowio_text_mode@@@Z 10057496 f   libucrt:open.obj
 0001:00056771       ?create_file@@YAPAXQB_WQAU_SECURITY_ATTRIBUTES@@Ufile_options@?A0xa9d50aae@@@Z 10057771 f   libucrt:open.obj
 0001:0005679f       ?decode_access_flags@@YAKH@Z 1005779f f   libucrt:open.obj
 0001:0005681a       ?decode_open_create_flags@@YAKH@Z 1005781a f   libucrt:open.obj
 0001:000568a6       ?decode_options@@YA?AUfile_options@?A0xa9d50aae@@HHH@Z 100578a6 f   libucrt:open.obj
 0001:00056a81       ?decode_sharing_flags@@YAKHH@Z 10057a81 f   libucrt:open.obj
 0001:00056aeb       ?is_text_mode@@YA_NH@Z     10057aeb f   libucrt:open.obj
 0001:00056b45       ?truncate_ctrl_z_if_present@@YAHH@Z 10057b45 f   libucrt:open.obj
 0001:000572ae       ??$?RV<lambda_f828341fbe69b7c0d4c527b01f22877f>@@AAV<lambda_9e0b6ab72a5b3ae37ad997d08b519f50>@@V<lambda_f01deac0a8d65d6e0411edf7e0af5775>@@@?$__crt_seh_guarded_call@G@@QAEG$$QAV<lambda_f828341fbe69b7c0d4c527b01f22877f>@@AAV<lambda_9e0b6ab72a5b3ae37ad997d08b519f50>@@$$QAV<lambda_f01deac0a8d65d6e0411edf7e0af5775>@@@Z 100582ae f   libucrt:putwch.obj
 0001:00057323       ??$__acrt_lock_and_call@V<lambda_9e0b6ab72a5b3ae37ad997d08b519f50>@@@@YAGW4__acrt_lock_id@@$$QAV<lambda_9e0b6ab72a5b3ae37ad997d08b519f50>@@@Z 10058323 f   libucrt:putwch.obj
 0001:00057355       ??0<lambda_9e0b6ab72a5b3ae37ad997d08b519f50>@@QAE@AB_W@Z 10058355 f   libucrt:putwch.obj
 0001:00057369       ??0<lambda_f01deac0a8d65d6e0411edf7e0af5775>@@QAE@ABW4__acrt_lock_id@@@Z 10058369 f   libucrt:putwch.obj
 0001:0005737f       ??0<lambda_f828341fbe69b7c0d4c527b01f22877f>@@QAE@ABW4__acrt_lock_id@@@Z 1005837f f   libucrt:putwch.obj
 0001:00057395       ??R<lambda_9e0b6ab72a5b3ae37ad997d08b519f50>@@QBEGXZ 10058395 f   libucrt:putwch.obj
 0001:000573a5       ??R<lambda_f01deac0a8d65d6e0411edf7e0af5775>@@QBEXXZ 100583a5 f   libucrt:putwch.obj
 0001:000573b0       ??R<lambda_f828341fbe69b7c0d4c527b01f22877f>@@QBEXXZ 100583b0 f   libucrt:putwch.obj
 0001:000585c4       _fix_grouping              100595c4 f   libucrt:initmon.obj
 0001:00058922       _fix_grouping              10059922 f   libucrt:initnum.obj
 0001:0005897e       ??$free_crt_array@D$01@@YAXAAY01PAD@Z 1005997e f   libucrt:inittime.obj
 0001:00058995       ??$free_crt_array@D$06@@YAXAAY06PAD@Z 10059995 f   libucrt:inittime.obj
 0001:000589ac       ??$free_crt_array@D$0M@@@YAXAAY0M@PAD@Z 100599ac f   libucrt:inittime.obj
 0001:000589c3       ??$free_crt_array@_W$01@@YAXAAY01PA_W@Z 100599c3 f   libucrt:inittime.obj
 0001:000589da       ??$free_crt_array@_W$06@@YAXAAY06PA_W@Z 100599da f   libucrt:inittime.obj
 0001:000589f1       ??$free_crt_array@_W$0M@@@YAXAAY0M@PA_W@Z 100599f1 f   libucrt:inittime.obj
 0001:00058a3f       ?free_crt_array_internal@@YAXQAPBXI@Z 10059a3f f   libucrt:inittime.obj
 0001:00058a88       ?get_or_create_lc_time@@YAPBU__crt_lc_time_data@@QAU__crt_locale_data@@@Z 10059a88 f   libucrt:inittime.obj
 0001:00058b01       ?initialize_lc_time@@YA_NQAU__crt_lc_time_data@@QAU__crt_locale_data@@@Z 10059b01 f   libucrt:inittime.obj
 0001:0005945e       _GetLocaleNameFromDefault  1005a45e f   libucrt:get_qualified_locale.obj
 0001:00059509       _GetLocaleNameFromLangCountry 1005a509 f   libucrt:get_qualified_locale.obj
 0001:000595c9       _GetLocaleNameFromLanguage 1005a5c9 f   libucrt:get_qualified_locale.obj
 0001:0005963a       _GetPrimaryLen             1005a63a f   libucrt:get_qualified_locale.obj
 0001:0005967b       _LangCountryEnumProcEx@12  1005a67b f   libucrt:get_qualified_locale.obj
 0001:00059a28       _LanguageEnumProcEx@12     1005aa28 f   libucrt:get_qualified_locale.obj
 0001:00059b19       _ProcessCodePage           1005ab19 f   libucrt:get_qualified_locale.obj
 0001:00059c4f       _TestDefaultCountry        1005ac4f f   libucrt:get_qualified_locale.obj
 0001:00059cac       _TestDefaultLanguage       1005acac f   libucrt:get_qualified_locale.obj
 0001:00059d03       _TranslateName             1005ad03 f   libucrt:get_qualified_locale.obj
 0001:0005a009       _CountryEnumProc@4         1005b009 f   libucrt:getqloc_downlevel.obj
 0001:0005a0dc       _GetLcidFromCountry        1005b0dc f   libucrt:getqloc_downlevel.obj
 0001:0005a139       _GetLcidFromDefault        1005b139 f   libucrt:getqloc_downlevel.obj
 0001:0005a15e       _GetLcidFromLangCountry    1005b15e f   libucrt:getqloc_downlevel.obj
 0001:0005a21f       _GetLcidFromLanguage       1005b21f f   libucrt:getqloc_downlevel.obj
 0001:0005a298       _GetPrimaryLen             1005b298 f   libucrt:getqloc_downlevel.obj
 0001:0005a2cf       _LangCountryEnumProc@4     1005b2cf f   libucrt:getqloc_downlevel.obj
 0001:0005a5ba       _LanguageEnumProc@4        1005b5ba f   libucrt:getqloc_downlevel.obj
 0001:0005a6c6       _LcidFromHexString         1005b6c6 f   libucrt:getqloc_downlevel.obj
 0001:0005a72b       _ProcessCodePage           1005b72b f   libucrt:getqloc_downlevel.obj
 0001:0005a846       _TestDefaultCountry        1005b846 f   libucrt:getqloc_downlevel.obj
 0001:0005a874       _TestDefaultLanguage       1005b874 f   libucrt:getqloc_downlevel.obj
 0001:0005a900       _TranslateName             1005b900 f   libucrt:getqloc_downlevel.obj
 0001:0005afc7       ?__acrt_LCMapStringA_stat@@YAHPAU__crt_locale_pointers@@PB_WKPBDHPADHHH@Z 1005bfc7 f   libucrt:lcmapstringa.obj
 0001:0005b28b       ??R<lambda_0f007d4f94c691a9a85cf1869a09f0c3>@@QBEIPBD@Z 1005c28b f   libucrt:mbrtowc.obj
 0001:0005b450       ?_mbrtowc_s_l@@YAHPAHPA_WPBDIPAU_Mbstatet@@PAU__crt_locale_pointers@@@Z 1005c450 f   libucrt:mbrtowc.obj
 0001:0005b6ba       ?_mbsrtowcs_helper@@YAIPA_WPAPBDIPAU_Mbstatet@@@Z 1005c6ba f   libucrt:mbrtowc.obj
 0001:0005bb11       ??$convert_to_fos_high_precision@N@@YAXNIQAHQADI@Z 1005cb11 f   libucrt:cfout.obj
 0001:0005d38b       ??0scoped_fp_state_reset@?A0x71ca7cfb@@QAE@XZ 1005e38b f   libucrt:cfout.obj
 0001:0005d3c2       ??1scoped_fp_state_reset@?A0x71ca7cfb@@QAE@XZ 1005e3c2 f   libucrt:cfout.obj
 0001:000601c5       _memcpy_s                  100611c5 f   libucrt:cfout.obj
 0001:00060290       ?shortsort@@YAXPAD0IP6AHPBX1@Z@Z 10061290 f   libucrt:qsort.obj
 0001:00060350       ?swap@@YAXPAD0I@Z          10061350 f   libucrt:qsort.obj
 0001:000608f5       ??$common_tcsncpy_s@D@@YAHQADIQBDI@Z 100618f5 f   libucrt:strncpy_s.obj
 0001:000609e0       $$000000                   100619e0     libucrt:strpbrk.obj
 0001:00060ff2       ?initialize_multibyte@@YAHXZ 10061ff2 f   libucrt:multibyte_initializer.obj
 0001:000615e0       $$000000                   100625e0     libucrt:_strnicm.obj
 0001:0006193b       ??$?RV<lambda_3b12a17125e8c5b5e6e6f6c6050db0c1>@@AAV<lambda_522ac1b1e1a1180d6f374a882b81d1c8>@@V<lambda_e92b96cac182f562f30acc9fb7872857>@@@?$__crt_seh_guarded_call@H@@QAEH$$QAV<lambda_3b12a17125e8c5b5e6e6f6c6050db0c1>@@AAV<lambda_522ac1b1e1a1180d6f374a882b81d1c8>@@$$QAV<lambda_e92b96cac182f562f30acc9fb7872857>@@@Z 1006293b f   libucrt:chsize.obj
 0001:000619e5       ??$__acrt_lowio_lock_fh_and_call@V<lambda_522ac1b1e1a1180d6f374a882b81d1c8>@@@@YAHH$$QAV<lambda_522ac1b1e1a1180d6f374a882b81d1c8>@@@Z 100629e5 f   libucrt:chsize.obj
 0001:00061a17       ??0<lambda_3b12a17125e8c5b5e6e6f6c6050db0c1>@@QAE@ABH@Z 10062a17 f   libucrt:chsize.obj
 0001:00061a2d       ??0<lambda_522ac1b1e1a1180d6f374a882b81d1c8>@@QAE@ABHAB_J@Z 10062a2d f   libucrt:chsize.obj
 0001:00061a48       ??0<lambda_e92b96cac182f562f30acc9fb7872857>@@QAE@ABH@Z 10062a48 f   libucrt:chsize.obj
 0001:00061a5e       ??R<lambda_3b12a17125e8c5b5e6e6f6c6050db0c1>@@QBEXXZ 10062a5e f   libucrt:chsize.obj
 0001:00061a69       ??R<lambda_522ac1b1e1a1180d6f374a882b81d1c8>@@QBEHXZ 10062a69 f   libucrt:chsize.obj
 0001:00061abc       ??R<lambda_e92b96cac182f562f30acc9fb7872857>@@QBEXXZ 10062abc f   libucrt:chsize.obj
 0001:00061e2e       ??$console_output_reopen_and_retry@V<lambda_61c1b8a38cedca4df5fdc542e6ccae6d>@@@@YAHABV<lambda_61c1b8a38cedca4df5fdc542e6ccae6d>@@@Z 10062e2e f   libucrt:initcon.obj
 0001:00061e9c       ??0<lambda_61c1b8a38cedca4df5fdc542e6ccae6d>@@QAE@ABQBXABKABQAK@Z 10062e9c f   libucrt:initcon.obj
 0001:00061ec6       ??R<lambda_61c1b8a38cedca4df5fdc542e6ccae6d>@@QBEHXZ 10062ec6 f   libucrt:initcon.obj
 0001:00061ee2       ?__dcrt_lowio_initialize_console_output@@YAXXZ 10062ee2 f   libucrt:initcon.obj
 0001:00061fb4       ?InternalGetLocaleInfoA@@YAHQAU__crt_locale_pointers@@QB_WKQADH@Z 10062fb4 f   libucrt:getlocaleinfoa.obj
 0001:00062670       $$000000                   10063670     libucrt:log10_impl.obj
 0001:000627d0       $$000000                   100637d0     libucrt:ceil_pentium4.obj
 0001:00062ae5       ?_wcstombs_l_helper@@YAIPADPB_WIPAU__crt_locale_pointers@@@Z 10063ae5 f   libucrt:wcstombs.obj
 0001:00062e38       ?wcsncnt@@YAIPB_WI@Z       10063e38 f   libucrt:wcstombs.obj
 0001:0006304f       ?InternalCompareStringA@@YAHPAU__crt_locale_pointers@@PB_WKPBDH2HH@Z 1006404f f   libucrt:comparestringa.obj
 0001:00063549       ??$to_abstract_status@W4__acrt_fenv_machine_sse_status@@@@YA?AW4__acrt_fenv_abstract_status@@W4__acrt_fenv_machine_sse_status@@@Z 10064549 f   libucrt:_fenvutils.obj
 0001:000635ad       ??$to_abstract_status@W4__acrt_fenv_machine_x87_status@@@@YA?AW4__acrt_fenv_abstract_status@@W4__acrt_fenv_machine_x87_status@@@Z 100645ad f   libucrt:_fenvutils.obj
 0001:00063611       ??$translate_control_exception_mask@W4__acrt_fenv_abstract_control@@W4__acrt_fenv_machine_sse_control@@@@YA?AW4__acrt_fenv_abstract_control@@W4__acrt_fenv_machine_sse_control@@@Z 10064611 f   libucrt:_fenvutils.obj
 0001:00063676       ??$translate_control_exception_mask@W4__acrt_fenv_abstract_control@@W4__acrt_fenv_machine_x87_control@@@@YA?AW4__acrt_fenv_abstract_control@@W4__acrt_fenv_machine_x87_control@@@Z 10064676 f   libucrt:_fenvutils.obj
 0001:000636da       ??$translate_control_exception_mask@W4__acrt_fenv_machine_sse_control@@W4__acrt_fenv_abstract_control@@@@YA?AW4__acrt_fenv_machine_sse_control@@W4__acrt_fenv_abstract_control@@@Z 100646da f   libucrt:_fenvutils.obj
 0001:00063785       ??$translate_control_exception_mask@W4__acrt_fenv_machine_x87_control@@W4__acrt_fenv_abstract_control@@@@YA?AW4__acrt_fenv_machine_x87_control@@W4__acrt_fenv_abstract_control@@@Z 10064785 f   libucrt:_fenvutils.obj
 0001:00063808       ??$translate_control_infinity_control@W4__acrt_fenv_abstract_control@@W4__acrt_fenv_machine_x87_control@@@@YA?AW4__acrt_fenv_abstract_control@@W4__acrt_fenv_machine_x87_control@@@Z 10064808 f   libucrt:_fenvutils.obj
 0001:0006381f       ??$translate_control_infinity_control@W4__acrt_fenv_machine_x87_control@@W4__acrt_fenv_abstract_control@@@@YA?AW4__acrt_fenv_machine_x87_control@@W4__acrt_fenv_abstract_control@@@Z 1006481f f   libucrt:_fenvutils.obj
 0001:0006383e       ??$translate_control_precision_control@W4__acrt_fenv_abstract_control@@W4__acrt_fenv_machine_x87_control@@@@YA?AW4__acrt_fenv_abstract_control@@W4__acrt_fenv_machine_x87_control@@@Z 1006483e f   libucrt:_fenvutils.obj
 0001:00063870       ??$translate_control_precision_control@W4__acrt_fenv_machine_x87_control@@W4__acrt_fenv_abstract_control@@@@YA?AW4__acrt_fenv_machine_x87_control@@W4__acrt_fenv_abstract_control@@@Z 10064870 f   libucrt:_fenvutils.obj
 0001:000638a2       ??$translate_control_rounding_control@W4__acrt_fenv_abstract_control@@W4__acrt_fenv_machine_sse_control@@@@YA?AW4__acrt_fenv_abstract_control@@W4__acrt_fenv_machine_sse_control@@@Z 100648a2 f   libucrt:_fenvutils.obj
 0001:000638ed       ??$translate_control_rounding_control@W4__acrt_fenv_abstract_control@@W4__acrt_fenv_machine_x87_control@@@@YA?AW4__acrt_fenv_abstract_control@@W4__acrt_fenv_machine_x87_control@@@Z 100648ed f   libucrt:_fenvutils.obj
 0001:00063938       ??$translate_control_rounding_control@W4__acrt_fenv_machine_sse_control@@W4__acrt_fenv_abstract_control@@@@YA?AW4__acrt_fenv_machine_sse_control@@W4__acrt_fenv_abstract_control@@@Z 10064938 f   libucrt:_fenvutils.obj
 0001:00063983       ??$translate_control_rounding_control@W4__acrt_fenv_machine_x87_control@@W4__acrt_fenv_abstract_control@@@@YA?AW4__acrt_fenv_machine_x87_control@@W4__acrt_fenv_abstract_control@@@Z 10064983 f   libucrt:_fenvutils.obj
 0001:000639ce       ??$translate_status@W4__acrt_fenv_abstract_status@@W4__acrt_fenv_machine_sse_status@@@@YA?AW4__acrt_fenv_abstract_status@@W4__acrt_fenv_machine_sse_status@@@Z 100649ce f   libucrt:_fenvutils.obj
 0001:00063a32       ??$translate_status@W4__acrt_fenv_abstract_status@@W4__acrt_fenv_machine_x87_status@@@@YA?AW4__acrt_fenv_abstract_status@@W4__acrt_fenv_machine_x87_status@@@Z 10064a32 f   libucrt:_fenvutils.obj
 0001:00063a96       ??$translate_status@W4__acrt_fenv_machine_sse_status@@W4__acrt_fenv_abstract_status@@@@YA?AW4__acrt_fenv_machine_sse_status@@W4__acrt_fenv_abstract_status@@@Z 10064a96 f   libucrt:_fenvutils.obj
 0001:00063afa       ??$translate_status@W4__acrt_fenv_machine_x87_status@@W4__acrt_fenv_abstract_status@@@@YA?AW4__acrt_fenv_machine_x87_status@@W4__acrt_fenv_abstract_status@@@Z 10064afa f   libucrt:_fenvutils.obj
 0001:00063d54       ?get_machine_sse_control@@YA?AW4__acrt_fenv_machine_sse_control@@XZ 10064d54 f   libucrt:_fenvutils.obj
 0001:00063d7f       ?get_machine_sse_status@@YA?AW4__acrt_fenv_machine_sse_status@@XZ 10064d7f f   libucrt:_fenvutils.obj
 0001:00063da8       ?get_machine_x87_control@@YA?AW4__acrt_fenv_machine_x87_control@@XZ 10064da8 f   libucrt:_fenvutils.obj
 0001:00063dd7       ?get_machine_x87_status@@YA?AW4__acrt_fenv_machine_x87_status@@XZ 10064dd7 f   libucrt:_fenvutils.obj
 0001:00063df7       ?set_machine_sse_control@@YAXW4__acrt_fenv_machine_sse_control@@@Z 10064df7 f   libucrt:_fenvutils.obj
 0001:00063e34       ?set_machine_sse_status@@YAXW4__acrt_fenv_machine_sse_status@@@Z 10064e34 f   libucrt:_fenvutils.obj
 0001:00063e6b       ?set_machine_x87_control@@YAXW4__acrt_fenv_machine_x87_control@@@Z 10064e6b f   libucrt:_fenvutils.obj
 0001:00063ea7       ?set_machine_x87_status@@YAXW4__acrt_fenv_machine_x87_status@@@Z 10064ea7 f   libucrt:_fenvutils.obj
 0001:00063ee0       ?to_abstract_control@@YA?AW4__acrt_fenv_abstract_control@@W4__acrt_fenv_machine_sse_control@@@Z 10064ee0 f   libucrt:_fenvutils.obj
 0001:00063fcb       ?to_abstract_control@@YA?AW4__acrt_fenv_abstract_control@@W4__acrt_fenv_machine_x87_control@@@Z 10064fcb f   libucrt:_fenvutils.obj
 0001:000640b7       ?to_machine_sse_control@@YA?AW4__acrt_fenv_machine_sse_control@@W4__acrt_fenv_abstract_control@@@Z 100650b7 f   libucrt:_fenvutils.obj
 0001:00064170       ?to_machine_sse_status@@YA?AW4__acrt_fenv_machine_sse_status@@W4__acrt_fenv_abstract_status@@@Z 10065170 f   libucrt:_fenvutils.obj
 0001:000641da       ?to_machine_x87_control@@YA?AW4__acrt_fenv_machine_x87_control@@W4__acrt_fenv_abstract_control@@@Z 100651da f   libucrt:_fenvutils.obj
 0001:000642fe       ?to_machine_x87_status@@YA?AW4__acrt_fenv_machine_x87_status@@W4__acrt_fenv_abstract_status@@@Z 100652fe f   libucrt:_fenvutils.obj
 0001:00064368       ?translate_control_denormal_control_from_sse@@YA?AW4__acrt_fenv_abstract_control@@W4__acrt_fenv_machine_sse_control@@@Z 10065368 f   libucrt:_fenvutils.obj
 0001:000643b1       ?translate_control_denormal_control_to_sse@@YA?AW4__acrt_fenv_machine_sse_control@@W4__acrt_fenv_abstract_control@@@Z 100653b1 f   libucrt:_fenvutils.obj
 0001:000647d3       ___abstract_cw_sse2        100657d3 f   libucrt:ieee87.obj
 0001:000648a7       ___abstract_sw_sse2        100658a7 f   libucrt:ieee87.obj
 0001:000648fa       ___clearfp_sse2            100658fa f   libucrt:ieee87.obj
 0001:00064d52       ___control87_sse2          10065d52 f   libucrt:ieee87.obj
 0001:00064f43       ___hw_cw_sse2              10065f43 f   libucrt:ieee87.obj
 0001:00065013       ___statusfp_sse2           10066013 f   libucrt:ieee87.obj
 0001:00065064       __abstract_cw              10066064 f   libucrt:ieee87.obj
 0001:0006512a       __abstract_sw              1006612a f   libucrt:ieee87.obj
 0001:000656b1       __hw_cw                    100666b1 f   libucrt:ieee87.obj
 0001:00065990       $$000000                   10066990     libucrt:log10_pentium4.obj
 0001:00065cd0       $$000000                   10066cd0     libucrt:87tran.obj
 0001:00065f60       $$000000                   10066f60     libucrt:87disp.obj
 0001:00066270       $$000000                   10067270     libucrt:common.obj
 0001:00066460       $$000000                   10067460     libucrt:genexcep.obj
 0001:0006687c       ?fperrraise_with@@YAXHK@Z  1006787c f   libucrt:_test.obj
 0001:00066dc1       ?_wcrtomb_s_l@@YAHQAHQADI_WQAU_Mbstatet@@QAU__crt_locale_pointers@@@Z 10067dc1 f   libucrt:wcrtomb.obj
 0001:00066e96       _internal_wcsrtombs        10067e96 f   libucrt:wcrtomb.obj
 0001:0006708a       _memcpy_s                  1006808a f   libucrt:wcrtomb.obj
 0001:000678a7       ?combine_second_surrogate@?A0xc60ee810@@YA_U_SPAU_Mbstatet@@@Z 100688a7 f   libucrt:c16rtomb.obj
 0001:000678c1       ?has_surrogate@?A0xc60ee810@@YA_NPAU_Mbstatet@@@Z 100688c1 f   libucrt:c16rtomb.obj
 0001:000678d5       ?is_first_surrogate@?A0xc60ee810@@YA_N_S@Z 100688d5 f   libucrt:c16rtomb.obj
 0001:000678f6       ?is_second_surrogate@?A0xc60ee810@@YA_N_S@Z 100688f6 f   libucrt:c16rtomb.obj
 0001:00067917       ?store_first_surrogate@?A0xc60ee810@@YAX_SPAU_Mbstatet@@@Z 10068917 f   libucrt:c16rtomb.obj
 0001:00067d50       $$000000                   10068d50     LIBCMT:ulldvrm.obj
 0001:00067e50       $$000000                   10068e50     LIBCMT:sehprolg4gs.obj
 0001:00067ec0       $$000000                   10068ec0     LIBCMT:llmul.obj
 0001:00067f10       $$000000                   10068f10     LIBCMT:chkstk.obj
 0001:00067f50       $$000000                   10068f50     LIBCMT:lldvrm.obj
 0001:00068070       $$000000                   10069070     LIBCMT:ullshr.obj
 0001:000680a0       $$000000                   100690a0     LIBCMT:alloca16.obj
 0001:000680e0       $$000000                   100690e0     LIBCMT:llshl.obj
 0001:00068110       $$000000                   10069110     LIBCMT:ftol2.obj
 0001:000683b2       _cmpBYTE                   100693b2 f   libvcruntime:memcmp.obj
 0001:000683e0       _cmpDWORD                  100693e0 f   libvcruntime:memcmp.obj
 0001:0006845e       _cmpResult                 1006945e f   libvcruntime:memcmp.obj
 0001:00068481       _cmpWORD                   10069481 f   libvcruntime:memcmp.obj
 0001:00069407       $LN1285                    1006a407     libvcruntime:memcmp.obj
 0001:00069870       _unaligned_memcmp          1006a870 f   libvcruntime:memcmp.obj
 0001:0006a5d0       $LN1243                    1006b5d0     libvcruntime:memcmp.obj
 0001:0006a9d0       $$000000                   1006b9d0     libvcruntime:strrchr.obj
 0001:0006dde3       __unwindfunclet$?getDecoratedName@UnDecorator@@CA?AVDName@@XZ$0 1006ede3 f   libvcruntime:undname.obj
 0001:0006ddeb       __ehhandler$?getDecoratedName@UnDecorator@@CA?AVDName@@XZ 1006edeb f   libvcruntime:undname.obj
 0001:0006de0e       __ehhandler$?CallUnexpected@@YAXPBU_s_ESTypeList@@@Z 1006ee0e f   libvcruntime:frame.obj
 0001:0006de2f       __unwindfunclet$?_wcstombs_l_helper@@YAIPADPB_WIPAU__crt_locale_pointers@@@Z$0 1006ee2f f   libucrt:wcstombs.obj
 0001:0006de37       __ehhandler$?_wcstombs_l_helper@@YAIPADPB_WIPAU__crt_locale_pointers@@@Z 1006ee37 f   libucrt:wcstombs.obj
 0002:00000e88       _rtBlockSignals            10070e88     homing_ldm_aggiornat_capi.obj
 0002:0000133c       _rtDataTypeMap             1007133c     homing_ldm_aggiornat_capi.obj
 0002:00001350       _rtBlockParameters         10071350     homing_ldm_aggiornat_capi.obj
 0002:000019e0       _rtModelParameters         100719e0     homing_ldm_aggiornat_capi.obj
 0002:000019f0       _rtElementMap              100719f0     homing_ldm_aggiornat_capi.obj
 0002:00001a00       _rtDimensionMap            10071a00     homing_ldm_aggiornat_capi.obj
 0002:00001a30       _rtDimensionArray          10071a30     homing_ldm_aggiornat_capi.obj
 0002:00001a48       _rtcapiStoredFloats        10071a48     homing_ldm_aggiornat_capi.obj
 0002:00001a58       _rtFixPtMap                10071a58     homing_ldm_aggiornat_capi.obj
 0002:00001a68       _rtSampleTimeMap           10071a68     homing_ldm_aggiornat_capi.obj
 0002:00002178       _rtMemAllocError           10072178     rt_logging_mmi.obj
 0002:00002690       _rtMemAllocError           10072690     rt_logging.obj
 0002:000026a8       _rtStructLogVarFieldNames  100726a8     rt_logging.obj
 0002:00002770       _rtLocalLoggingSignalsStructFieldNames 10072770     rt_logging.obj
 0002:000028f8       _rtGlobalLoggingSignalsStructFieldNames 100728f8     rt_logging.obj
 0002:00002ac0       _rtLocalLoggingSignalsStructFieldNames_noValDims 10072ac0     rt_logging.obj
 0002:00002c08       _rtGlobalLoggingSignalsStructFieldNames_noValDims 10072c08     rt_logging.obj
 0002:00006780       _Int32ToUInt32             10076780     LIBCMT:ftol3.obj
 0002:00006788       _DP2to32                   10076788     LIBCMT:ftol3.obj
 0002:00006790       _MantissaMask              10076790     LIBCMT:ftol3.obj
 0002:00006798       _IntegerBit                10076798     LIBCMT:ftol3.obj
 0002:000067a0       _SignBit64                 100767a0     LIBCMT:ftol3.obj
 0002:000067a8       _MinFP64                   100767a8     LIBCMT:ftol3.obj
 0002:000067b0       _MinInt64                  100767b0     LIBCMT:ftol3.obj
 0002:000067b8       _MaxInt64                  100767b8     LIBCMT:ftol3.obj
 0002:000067c0       _MaxUInt64                 100767c0     LIBCMT:ftol3.obj
 0002:000067c8       _MaxFP32                   100767c8     LIBCMT:ftol3.obj
 0002:000067d0       _MinFP32                   100767d0     LIBCMT:ftol3.obj
 0002:000067d8       _MinSubInexact             100767d8     LIBCMT:ftol3.obj
 0002:000067e0       _FpExcptTable              100767e0     LIBCMT:ftol3.obj
 0002:000067f0       _i1075                     100767f0     LIBCMT:ftol3.obj
 0002:000067f4       _i1087                     100767f4     LIBCMT:ftol3.obj
 0002:000067f8       _x0800                     100767f8     LIBCMT:ftol3.obj
 0002:000067fc       _x17FF                     100767fc     LIBCMT:ftol3.obj
 0002:00006800       _CWMask                    10076800     LIBCMT:ftol3.obj
 0002:0000681c       _GS_ExceptionPointers      1007681c     LIBCMT:gs_report.obj
 0002:00006830       ?tokenTable@@3QBQBDB       10076830     libvcruntime:undname.obj
 0002:00006870       ?nameTable@@3QBQBDB        10076870     libvcruntime:undname.obj
 0002:000069b8       ?rttiTable@@3QBQBDB        100769b8     libvcruntime:undname.obj
 0002:00007610       ?module_names@?A0x5c520fe1@@3QBQB_WB 10077610     libvcruntime:winapi_downlevel.obj
 0002:000076f0       ?candidate_modules@?1??try_get_FlsAlloc@@YAP6GKP6GXPAX@Z@ZXZ@4QBW4module_id@?A0x5c520fe1@@B 100776f0     libvcruntime:winapi_downlevel.obj
 0002:00007708       ?candidate_modules@?1??try_get_FlsFree@@YAP6GHK@ZXZ@4QBW4module_id@?A0x5c520fe1@@B 10077708     libvcruntime:winapi_downlevel.obj
 0002:00007720       ?candidate_modules@?1??try_get_FlsGetValue@@YAP6GPAXK@ZXZ@4QBW4module_id@?A0x5c520fe1@@B 10077720     libvcruntime:winapi_downlevel.obj
 0002:0000773c       ?candidate_modules@?1??try_get_FlsSetValue@@YAP6GHKPAX@ZXZ@4QBW4module_id@?A0x5c520fe1@@B 1007773c     libvcruntime:winapi_downlevel.obj
 0002:00007758       ?candidate_modules@?1??try_get_InitializeCriticalSectionEx@@YAP6GHPAU_RTL_CRITICAL_SECTION@@KK@ZXZ@4QBW4module_id@?A0x5c520fe1@@B 10077758     libvcruntime:winapi_downlevel.obj
 0002:000077d4       ?ExceptionTemplate@?1??_CxxThrowException@@9@8@4UEHExceptionRecord@@B 100777d4     libvcruntime:throw.obj
 0002:00007e38       ?_names@?1??_get_fname@@9@9 10077e38     libucrt:fpexcept.obj
 0002:000080e0       ___acrt_initializers       100780e0     libucrt:initialization.obj
 0002:000081c8       ?errtable@@3QBUerrentry@?A0x31fdb9ec@@B 100781c8     libucrt:errno.obj
 0002:00008370       ?module_names@?A0x391cf84c@@3QBQB_WB 10078370     libucrt:winapi_thunks.obj
 0002:00008984       ?candidate_modules@?1??try_get_AreFileApisANSI@@YAP6GHXZXZ@4QBW4module_id@?A0x391cf84c@@B 10078984     libucrt:winapi_thunks.obj
 0002:0000899c       ?candidate_modules@?1??try_get_CompareStringEx@@YAP6GHPB_WK0H0HPAU_nlsversioninfo@@PAXJ@ZXZ@4QBW4module_id@?A0x391cf84c@@B 1007899c     libucrt:winapi_thunks.obj
 0002:000089bc       ?candidate_modules@?1??try_get_EnumSystemLocalesEx@@YAP6GHP6GHPA_WKJ@ZKJPAX@ZXZ@4QBW4module_id@?A0x391cf84c@@B 100789bc     libucrt:winapi_thunks.obj
 0002:000089e0       ?candidate_modules@?1??try_get_FlsAlloc@@YAP6GKP6GXPAX@Z@ZXZ@4QBW4module_id@?A0x391cf84c@@B 100789e0     libucrt:winapi_thunks.obj
 0002:000089f8       ?candidate_modules@?1??try_get_FlsFree@@YAP6GHK@ZXZ@4QBW4module_id@?A0x391cf84c@@B 100789f8     libucrt:winapi_thunks.obj
 0002:00008a10       ?candidate_modules@?1??try_get_FlsGetValue@@YAP6GPAXK@ZXZ@4QBW4module_id@?A0x391cf84c@@B 10078a10     libucrt:winapi_thunks.obj
 0002:00008a2c       ?candidate_modules@?1??try_get_FlsSetValue@@YAP6GHKPAX@ZXZ@4QBW4module_id@?A0x391cf84c@@B 10078a2c     libucrt:winapi_thunks.obj
 0002:00008a48       ?candidate_modules@?1??try_get_GetActiveWindow@@YAP6GPAUHWND__@@XZXZ@4QBW4module_id@?A0x391cf84c@@B 10078a48     libucrt:winapi_thunks.obj
 0002:00008a68       ?candidate_modules@?1??try_get_GetDateFormatEx@@YAP6GHPB_WKPBU_SYSTEMTIME@@0PA_WH0@ZXZ@4QBW4module_id@?A0x391cf84c@@B 10078a68     libucrt:winapi_thunks.obj
 0002:00008a88       ?candidate_modules@?1??try_get_GetEnabledXStateFeatures@@YAP6G_KXZXZ@4QBW4module_id@?A0x391cf84c@@B 10078a88     libucrt:winapi_thunks.obj
 0002:00008ab4       ?candidate_modules@?1??try_get_GetLastActivePopup@@YAP6GPAUHWND__@@PAU2@@ZXZ@4QBW4module_id@?A0x391cf84c@@B 10078ab4     libucrt:winapi_thunks.obj
 0002:00008ad8       ?candidate_modules@?1??try_get_GetLocaleInfoEx@@YAP6GHPB_WKPA_WH@ZXZ@4QBW4module_id@?A0x391cf84c@@B 10078ad8     libucrt:winapi_thunks.obj
 0002:00008af8       ?candidate_modules@?1??try_get_GetProcessWindowStation@@YAP6GPAUHWINSTA__@@XZXZ@4QBW4module_id@?A0x391cf84c@@B 10078af8     libucrt:winapi_thunks.obj
 0002:00008b20       ?candidate_modules@?1??try_get_GetSystemTimePreciseAsFileTime@@YAP6GXPAU_FILETIME@@@ZXZ@4QBW4module_id@?A0x391cf84c@@B 10078b20     libucrt:winapi_thunks.obj
 0002:00008b4c       ?candidate_modules@?1??try_get_GetTimeFormatEx@@YAP6GHPB_WKPBU_SYSTEMTIME@@0PA_WH@ZXZ@4QBW4module_id@?A0x391cf84c@@B 10078b4c     libucrt:winapi_thunks.obj
 0002:00008b6c       ?candidate_modules@?1??try_get_GetUserDefaultLocaleName@@YAP6GHPA_WH@ZXZ@4QBW4module_id@?A0x391cf84c@@B 10078b6c     libucrt:winapi_thunks.obj
 0002:00008b98       ?candidate_modules@?1??try_get_GetUserObjectInformationW@@YAP6GHPAXH0KPAK@ZXZ@4QBW4module_id@?A0x391cf84c@@B 10078b98     libucrt:winapi_thunks.obj
 0002:00008bc4       ?candidate_modules@?1??try_get_GetXStateFeaturesMask@@YAP6GHPAU_CONTEXT@@PA_K@ZXZ@4QBW4module_id@?A0x391cf84c@@B 10078bc4     libucrt:winapi_thunks.obj
 0002:00008bec       ?candidate_modules@?1??try_get_InitializeCriticalSectionEx@@YAP6GHPAU_RTL_CRITICAL_SECTION@@KK@ZXZ@4QBW4module_id@?A0x391cf84c@@B 10078bec     libucrt:winapi_thunks.obj
 0002:00008c1c       ?candidate_modules@?1??try_get_IsValidLocaleName@@YAP6GHPB_W@ZXZ@4QBW4module_id@?A0x391cf84c@@B 10078c1c     libucrt:winapi_thunks.obj
 0002:00008c40       ?candidate_modules@?1??try_get_LCMapStringEx@@YAP6GHPB_WK0HPA_WHPAU_nlsversioninfo@@PAXJ@ZXZ@4QBW4module_id@?A0x391cf84c@@B 10078c40     libucrt:winapi_thunks.obj
 0002:00008c5c       ?candidate_modules@?1??try_get_LCIDToLocaleName@@YAP6GHKPA_WHK@ZXZ@4QBW4module_id@?A0x391cf84c@@B 10078c5c     libucrt:winapi_thunks.obj
 0002:00008c7c       ?candidate_modules@?1??try_get_LocaleNameToLCID@@YAP6GKPB_WK@ZXZ@4QBW4module_id@?A0x391cf84c@@B 10078c7c     libucrt:winapi_thunks.obj
 0002:00008c9c       ?candidate_modules@?1??try_get_LocateXStateFeature@@YAP6GPAXPAU_CONTEXT@@KPAK@ZXZ@4QBW4module_id@?A0x391cf84c@@B 10078c9c     libucrt:winapi_thunks.obj
 0002:00008cc0       ?candidate_modules@?1??try_get_MessageBoxA@@YAP6GHPAUHWND__@@PBD1I@ZXZ@4QBW4module_id@?A0x391cf84c@@B 10078cc0     libucrt:winapi_thunks.obj
 0002:00008cdc       ?candidate_modules@?1??try_get_MessageBoxW@@YAP6GHPAUHWND__@@PB_W1I@ZXZ@4QBW4module_id@?A0x391cf84c@@B 10078cdc     libucrt:winapi_thunks.obj
 0002:00008cf8       ?candidate_modules@?1??try_get_RoInitialize@@YAP6GJW4RO_INIT_TYPE@@@ZXZ@4QBW4module_id@?A0x391cf84c@@B 10078cf8     libucrt:winapi_thunks.obj
 0002:00008d0c       ?candidate_modules@?1??try_get_RoUninitialize@@YAP6GXXZXZ@4QBW4module_id@?A0x391cf84c@@B 10078d0c     libucrt:winapi_thunks.obj
 0002:00008d24       ?candidate_modules@?1??try_get_AppPolicyGetProcessTerminationMethod@@YAP6GJPAXPAW4AppPolicyProcessTerminationMethod@@@ZXZ@4QBW4module_id@?A0x391cf84c@@B 10078d24     libucrt:winapi_thunks.obj
 0002:00008d54       ?candidate_modules@?1??try_get_AppPolicyGetThreadInitializationType@@YAP6GJPAXPAW4AppPolicyThreadInitializationType@@@ZXZ@4QBW4module_id@?A0x391cf84c@@B 10078d54     libucrt:winapi_thunks.obj
 0002:00008d84       ?candidate_modules@?1??try_get_AppPolicyGetShowDeveloperDiagnostic@@YAP6GJPAXPAW4AppPolicyShowDeveloperDiagnostic@@@ZXZ@4QBW4module_id@?A0x391cf84c@@B 10078d84     libucrt:winapi_thunks.obj
 0002:00008db4       ?candidate_modules@?1??try_get_AppPolicyGetWindowingModel@@YAP6GJPAXPAW4AppPolicyWindowingModel@@@ZXZ@4QBW4module_id@?A0x391cf84c@@B 10078db4     libucrt:winapi_thunks.obj
 0002:00008dd8       ?candidate_modules@?1??try_get_SetThreadStackGuarantee@@YAP6GHPAK@ZXZ@4QBW4module_id@?A0x391cf84c@@B 10078dd8     libucrt:winapi_thunks.obj
 0002:00008e00       ?candidate_modules@?1??try_get_SystemFunction036@@YAP6GEPAXK@ZXZ@4QBW4module_id@?A0x391cf84c@@B 10078e00     libucrt:winapi_thunks.obj
 0002:00008e80       __first_127char            10078e80     libucrt:wsetlocale.obj
 0002:00009684       _over                      10079684     libucrt:fpctrl.obj
 0002:00009694       _under                     10079694     libucrt:fpctrl.obj
 0002:000096a4       ?_mb_locale_names@@3QBQB_WB 100796a4     libucrt:mbctype.obj
 0002:0000a0a8       ?LcidToLocaleNameTable@?A0x881e4c05@@3QBULcidToLocaleName@1@B 1007a0a8     libucrt:lcidtoname_downlevel.obj
 0002:0000b580       ?LocaleNameToIndexTable@?A0x881e4c05@@3QBULocaleNameIndex@1@B 1007b580     libucrt:lcidtoname_downlevel.obj
 0002:0000e4f0       LOG_name                   1007e4f0     libucrt:log10_impl.obj
 0002:0000e500       _One                       1007e500     libucrt:ceil_pentium4.obj
 0002:0000e510       _Bns                       1007e510     libucrt:ceil_pentium4.obj
 0002:0000e520       _Zero                      1007e520     libucrt:ceil_pentium4.obj
 0002:0000e530       _S                         1007e530     libucrt:ceil_pentium4.obj
 0002:0000e540       _NegZero                   1007e540     libucrt:ceil_pentium4.obj
 0002:0000e558       ?commonFlags@?1??_control87@@9@9 1007e558     libucrt:ieee87.obj
 0002:0000e560       emask                      1007e560     libucrt:log10_pentium4.obj
 0002:0000e570       CC                         1007e570     libucrt:log10_pentium4.obj
 0002:0000e580       Magic                      1007e580     libucrt:log10_pentium4.obj
 0002:0000e590       hi_mask                    1007e590     libucrt:log10_pentium4.obj
 0002:0000e5a0       LOG10_2                    1007e5a0     libucrt:log10_pentium4.obj
 0002:0000e5b0       place_L                    1007e5b0     libucrt:log10_pentium4.obj
 0002:0000e5d0       One                        1007e5d0     libucrt:log10_pentium4.obj
 0002:0000e5e0       Zero                       1007e5e0     libucrt:log10_pentium4.obj
 0002:0000e5f0       Two52                      1007e5f0     libucrt:log10_pentium4.obj
 0002:0000e600       Infs                       1007e600     libucrt:log10_pentium4.obj
 0002:0000e610       NaN                        1007e610     libucrt:log10_pentium4.obj
 0002:0000e620       coeff                      1007e620     libucrt:log10_pentium4.obj
 0002:0000e6be       _log2max                   1007e6be     libucrt:87tran.obj
 0002:0000e6c8       _smallarg                  1007e6c8     libucrt:87tran.obj
 0002:0000e6d2       _half                      1007e6d2     libucrt:87tran.obj
 0002:0000e72e       One                        1007e72e     libucrt:87disp.obj
 0002:0000e736       Three                      1007e736     libucrt:87disp.obj
 0002:0000e73e       XAMtoTagTab                1007e73e     libucrt:87disp.obj
 0002:0000e760       One                        1007e760     libucrt:common.obj
 0002:0000e774       DblMax                     1007e774     libucrt:common.obj
 0002:0000e77c       DblMin                     1007e77c     libucrt:common.obj
 0002:0000e784       IeeeAdjO                   1007e784     libucrt:common.obj
 0002:0000e78c       IeeeAdjU                   1007e78c     libucrt:common.obj
 0002:0000e794       _infinity                  1007e794     libucrt:common.obj
 0002:0000e79c       _zero                      1007e79c     libucrt:common.obj
 0002:0000e7b4       _INF                       1007e7b4     libucrt:libm_error.obj
 0002:0000e7c8       _BIG                       1007e7c8     libucrt:libm_error.obj
 0002:0000e7dc       _ZERO                      1007e7dc     libucrt:libm_error.obj
 0002:0000e7f0       _INF_32                    1007e7f0     libucrt:libm_error.obj
 0002:0000e7fc       _NAN_32                    1007e7fc     libucrt:libm_error.obj
 0002:0000e808       _ZERO_32                   1007e808     libucrt:libm_error.obj
 0002:0000e814       _libm_largef               1007e814     libucrt:libm_error.obj
 0002:0000e820       _libm_smallf               1007e820     libucrt:libm_error.obj
 0002:0000e830       _libm_small                1007e830     libucrt:libm_error.obj
 0002:0000e844       _newcw                     1007e844     libucrt:ceil.obj
 0002:0000e848       ?mask@?P@??_d_int@@9@4QBGB 1007e848     libucrt:_test.obj
 0002:0000e870       ?sub@?P@??_d_int@@9@4QBIB  1007e870     libucrt:_test.obj
 0002:0000e884       ?mask@?P@??_fd_int@@9@4QBGB 1007e884     libucrt:_test.obj
 0002:0000e8ac       ?sub@?P@??_fd_int@@9@4QBIB 1007e8ac     libucrt:_test.obj
 0002:000104a8       __sehtable$?dllmain_crt_process_attach@@YAHQAUHINSTANCE__@@QAX@Z 100804a8     LIBCMT:dll_dllmain.obj
 0002:000104c8       __sehtable$?dllmain_crt_process_detach@@YAH_N@Z 100804c8     LIBCMT:dll_dllmain.obj
 0002:000104e8       __sehtable$?dllmain_dispatch@@YAHQAUHINSTANCE__@@KQAX@Z 100804e8     LIBCMT:dll_dllmain.obj
 0002:00010508       __sehtable$___scrt_is_nonwritable_in_current_image 10080508     LIBCMT:utility.obj
 0002:00010528       __sehtable$___unDNameEx    10080528     libvcruntime:undname.obj
 0002:00010548       __unwindtable$?getDecoratedName@UnDecorator@@CA?AVDName@@XZ 10080548     libvcruntime:undname.obj
 0002:00010550       __ehfuncinfo$?getDecoratedName@UnDecorator@@CA?AVDName@@XZ 10080550     libvcruntime:undname.obj
 0002:00010578       __sehtable$?FrameUnwindToState@__FrameHandler3@@SAXPAUEHRegistrationNode@@PAXPBU_s_FuncInfo@@H@Z 10080578     libvcruntime:frame.obj
 0002:000105a8       __sehtable$?CallCatchBlock@@YAPAXPAUEHExceptionRecord@@PAUEHRegistrationNode@@PAU_CONTEXT@@PBU_s_FuncInfo@@PAXHK@Z 100805a8     libvcruntime:frame.obj
 0002:000105d4       __catchsym$?CallUnexpected@@YAXPBU_s_ESTypeList@@@Z$2 100805d4     libvcruntime:frame.obj
 0002:000105e4       __unwindtable$?CallUnexpected@@YAXPBU_s_ESTypeList@@@Z 100805e4     libvcruntime:frame.obj
 0002:000105f4       __tryblocktable$?CallUnexpected@@YAXPBU_s_ESTypeList@@@Z 100805f4     libvcruntime:frame.obj
 0002:00010608       __ehfuncinfo$?CallUnexpected@@YAXPBU_s_ESTypeList@@@Z 10080608     libvcruntime:frame.obj
 0002:00010638       __sehtable$??$BuildCatchObjectHelperInternal@V__FrameHandler3@@@@YAHPAUEHExceptionRecord@@PAXPBU_s_HandlerType@@PBU_s_CatchableType@@@Z 10080638     libvcruntime:frame.obj
 0002:00010658       __sehtable$??$BuildCatchObjectInternal@V__FrameHandler3@@@@YAXPAUEHExceptionRecord@@PAXPBU_s_HandlerType@@PBU_s_CatchableType@@@Z 10080658     libvcruntime:frame.obj
 0002:000106e0       __sehtable$___DestructExceptionObject 100806e0     libvcruntime:ehhelpers.obj
 0002:00010700       __sehtable$??R<lambda_6e4b09c48022b2350581041d5f6b0c4c>@@QBE@XZ 10080700     libucrt:exit.obj
 0002:00010720       __sehtable$??$?RV<lambda_03b1d95aef87969028cfba75ccab2455>@@AAV<lambda_6e4b09c48022b2350581041d5f6b0c4c>@@V<lambda_22bdf7517842c4b3e53723af5aa32b9e>@@@?$__crt_seh_guarded_call@X@@QAEX$$QAV<lambda_03b1d95aef87969028cfba75ccab2455>@@AAV<lambda_6e4b09c48022b2350581041d5f6b0c4c>@@$$QAV<lambda_22bdf7517842c4b3e53723af5aa32b9e>@@@Z 10080720     libucrt:exit.obj
 0002:00010740       __sehtable$_fclose         10080740     libucrt:fclose.obj
 0002:00010760       __sehtable$??$common_fsopen@D@@YAPAU_iobuf@@QBD0H@Z 10080760     libucrt:fopen.obj
 0002:00010780       __sehtable$??$common_fsopen@_W@@YAPAU_iobuf@@QB_W0H@Z 10080780     libucrt:fopen.obj
 0002:000107a0       __sehtable$_fread_s        100807a0     libucrt:fread.obj
 0002:000107c0       __sehtable$??$?RV<lambda_cd3bfd923e8d1349099e544c97b1bd8e>@@AAV<lambda_54dcfcba6f8e0c549fa430f4d53fb7dd>@@V<lambda_5e1d0fa2aa2b73b187bf8b7e1d30c7f8>@@@?$__crt_seh_guarded_call@I@@QAEI$$QAV<lambda_cd3bfd923e8d1349099e544c97b1bd8e>@@AAV<lambda_54dcfcba6f8e0c549fa430f4d53fb7dd>@@$$QAV<lambda_5e1d0fa2aa2b73b187bf8b7e1d30c7f8>@@@Z 100807c0     libucrt:fwrite.obj
 0002:000107e0       __sehtable$_rewind         100807e0     libucrt:rewind.obj
 0002:00010800       __sehtable$??$?RV<lambda_80d7abc6eae2375db70be92ccaaf9b57>@@AAV<lambda_df52180bf14694d51fdefd82613e8f07>@@V<lambda_4fa1155033dff2042363dba4e2dc3802>@@@?$__crt_seh_guarded_call@H@@QAEH$$QAV<lambda_80d7abc6eae2375db70be92ccaaf9b57>@@AAV<lambda_df52180bf14694d51fdefd82613e8f07>@@$$QAV<lambda_4fa1155033dff2042363dba4e2dc3802>@@@Z 10080800     libucrt:output.obj
 0002:00010820       __sehtable$??$?RV<lambda_75d23329f2fb3d02b2e1cf5509bb1caf>@@AAV<lambda_c4f131f91cb4ec00a5b0a26aa161b8b4>@@V<lambda_114dc79c86b00c313cb0b6b3b001aaf8>@@@?$__crt_seh_guarded_call@H@@QAEH$$QAV<lambda_75d23329f2fb3d02b2e1cf5509bb1caf>@@AAV<lambda_c4f131f91cb4ec00a5b0a26aa161b8b4>@@$$QAV<lambda_114dc79c86b00c313cb0b6b3b001aaf8>@@@Z 10080820     libucrt:output.obj
 0002:00010840       __sehtable$??$?RV<lambda_cc35d49d909def412005bd38ddc96b77>@@AAV<lambda_d6a382b8dd98a6801a8abd6c28bdff2d>@@V<lambda_148068cfb9786d9714740654406e93d5>@@@?$__crt_seh_guarded_call@H@@QAEH$$QAV<lambda_cc35d49d909def412005bd38ddc96b77>@@AAV<lambda_d6a382b8dd98a6801a8abd6c28bdff2d>@@$$QAV<lambda_148068cfb9786d9714740654406e93d5>@@@Z 10080840     libucrt:output.obj
 0002:00010860       __sehtable$??$?RV<lambda_b7f50223258ab9fcc98080d45d02b1a4>@@AAV<lambda_42506531d319a600ce771deb5a236a10>@@V<lambda_31f843250ba6188c6e1f35d2bec6db0e>@@@?$__crt_seh_guarded_call@H@@QAEH$$QAV<lambda_b7f50223258ab9fcc98080d45d02b1a4>@@AAV<lambda_42506531d319a600ce771deb5a236a10>@@$$QAV<lambda_31f843250ba6188c6e1f35d2bec6db0e>@@@Z 10080860     libucrt:output.obj
 0002:00010880       __sehtable$??$?RV<lambda_3a2a6cca1b0f7007a3db339dcecd1562>@@AAV<lambda_e38011a3ba6e07c7dbcef4d549f26102>@@V<lambda_b2332a2b562101f3c3c34baab19e0511>@@@?$__crt_seh_guarded_call@H@@QAEH$$QAV<lambda_3a2a6cca1b0f7007a3db339dcecd1562>@@AAV<lambda_e38011a3ba6e07c7dbcef4d549f26102>@@$$QAV<lambda_b2332a2b562101f3c3c34baab19e0511>@@@Z 10080880     libucrt:output.obj
 0002:000108a0       __sehtable$??$?RV<lambda_b4329732a1a72698597872ef534ad66d>@@AAV<lambda_96392db5b14a27f72535a2156da24b09>@@V<lambda_0f47277b42e3e84c3311fed419af0b3c>@@@?$__crt_seh_guarded_call@H@@QAEH$$QAV<lambda_b4329732a1a72698597872ef534ad66d>@@AAV<lambda_96392db5b14a27f72535a2156da24b09>@@$$QAV<lambda_0f47277b42e3e84c3311fed419af0b3c>@@@Z 100808a0     libucrt:output.obj
 0002:000108c0       __sehtable$??$?RV<lambda_7ac4055421038abea736e08bd20712a4>@@AAV<lambda_a10e4b102d4a2c3aac6f4f48bbdf488f>@@V<lambda_1da61822885009acd1bf848af4f9644b>@@@?$__crt_seh_guarded_call@H@@QAEH$$QAV<lambda_7ac4055421038abea736e08bd20712a4>@@AAV<lambda_a10e4b102d4a2c3aac6f4f48bbdf488f>@@$$QAV<lambda_1da61822885009acd1bf848af4f9644b>@@@Z 100808c0     libucrt:onexit.obj
 0002:000108e0       __sehtable$??$?RV<lambda_69a2805e680e0e292e8ba93315fe43a8>@@AAV<lambda_f03950bc5685219e0bcd2087efbe011e>@@V<lambda_03fcd07e894ec930e3f35da366ca99d6>@@@?$__crt_seh_guarded_call@H@@QAEH$$QAV<lambda_69a2805e680e0e292e8ba93315fe43a8>@@AAV<lambda_f03950bc5685219e0bcd2087efbe011e>@@$$QAV<lambda_03fcd07e894ec930e3f35da366ca99d6>@@@Z 100808e0     libucrt:onexit.obj
 0002:00010900       __sehtable$_terminate      10080900     libucrt:terminate.obj
 0002:00010920       __sehtable$??$?RV<lambda_2866be3712abc81a800a822484c830d8>@@AAV<lambda_39ca0ed439415581b5b15c265174cece>@@V<lambda_2b24c74d71094a6cd0cb82e44167d71b>@@@?$__crt_seh_guarded_call@X@@QAEX$$QAV<lambda_2866be3712abc81a800a822484c830d8>@@AAV<lambda_39ca0ed439415581b5b15c265174cece>@@$$QAV<lambda_2b24c74d71094a6cd0cb82e44167d71b>@@@Z 10080920     libucrt:fflush.obj
 0002:00010940       __sehtable$??$?RV<lambda_2cc53f568c5a2bb6f192f930a45d44ea>@@AAV<lambda_ab61a845afdef5b7c387490eaf3616ee>@@V<lambda_c2ffc0b7726aa6be21d5f0026187e748>@@@?$__crt_seh_guarded_call@X@@QAEX$$QAV<lambda_2cc53f568c5a2bb6f192f930a45d44ea>@@AAV<lambda_ab61a845afdef5b7c387490eaf3616ee>@@$$QAV<lambda_c2ffc0b7726aa6be21d5f0026187e748>@@@Z 10080940     libucrt:fflush.obj
 0002:00010960       __sehtable$??$?RV<lambda_6d20deecaf4856105ebacbad442d1079>@@AAV<lambda_9a32fed5bf61b6b509b2d3f6003082a1>@@V<lambda_63ea2239ed67c638ddbae41947fdf875>@@@?$__crt_seh_guarded_call@H@@QAEH$$QAV<lambda_6d20deecaf4856105ebacbad442d1079>@@AAV<lambda_9a32fed5bf61b6b509b2d3f6003082a1>@@$$QAV<lambda_63ea2239ed67c638ddbae41947fdf875>@@@Z 10080960     libucrt:fflush.obj
 0002:00010980       __sehtable$??$?RV<lambda_70c0770dcc4f6ec6272bb01dc82d3c91>@@AAV<lambda_ca71763b3c0644891230e4f79ea54fa6>@@V<lambda_ca266f0f09348b8765c113e3a39a2bc1>@@@?$__crt_seh_guarded_call@H@@QAEH$$QAV<lambda_70c0770dcc4f6ec6272bb01dc82d3c91>@@AAV<lambda_ca71763b3c0644891230e4f79ea54fa6>@@$$QAV<lambda_ca266f0f09348b8765c113e3a39a2bc1>@@@Z 10080980     libucrt:setvbuf.obj
 0002:000109a0       __sehtable$_signal         100809a0     libucrt:signal.obj
 0002:000109c0       __sehtable$_raise          100809c0     libucrt:signal.obj
 0002:000109e0       __sehtable$?ctrlevent_capture@@YGHK@Z 100809e0     libucrt:signal.obj
 0002:00010a00       __sehtable$??$?RV<lambda_cbab9ec6f41b0180b23cc171c22676b0>@@AAV<lambda_44731a7d0e6d81c3e6aa82d741081786>@@V<lambda_4b292cb8dd18144e164572427af410ab>@@@?$__crt_seh_guarded_call@P6AXH@Z@@QAEP6AXH@Z$$QAV<lambda_cbab9ec6f41b0180b23cc171c22676b0>@@AAV<lambda_44731a7d0e6d81c3e6aa82d741081786>@@$$QAV<lambda_4b292cb8dd18144e164572427af410ab>@@@Z 10080a00     libucrt:signal.obj
 0002:00010a20       __sehtable$??$?RV<lambda_93797fb4802c957ba6a7f08e1250235b>@@AAV<lambda_1f3ce6bd48e0aa2e72a71c02eee379d3>@@V<lambda_56cae30c9364c9b6c15aeaac05d0418e>@@@?$__crt_seh_guarded_call@H@@QAEH$$QAV<lambda_93797fb4802c957ba6a7f08e1250235b>@@AAV<lambda_1f3ce6bd48e0aa2e72a71c02eee379d3>@@$$QAV<lambda_56cae30c9364c9b6c15aeaac05d0418e>@@@Z 10080a20     libucrt:winapi_thunks.obj
 0002:00010a40       __sehtable$__fcloseall     10080a40     libucrt:closeall.obj
 0002:00010a60       __sehtable$___acrt_initialize_lowio 10080a60     libucrt:ioinit.obj
 0002:00010a80       __sehtable$??$?RV<lambda_218ce3db14220d0be481dae8ef3383b6>@@AAV<lambda_628dfdc04ba53c8bfc02c9951375f3f5>@@V<lambda_57dc472bd5c9d5f3b2cbca59b8a843ae>@@@?$__crt_seh_guarded_call@H@@QAEH$$QAV<lambda_218ce3db14220d0be481dae8ef3383b6>@@AAV<lambda_628dfdc04ba53c8bfc02c9951375f3f5>@@$$QAV<lambda_57dc472bd5c9d5f3b2cbca59b8a843ae>@@@Z 10080a80     libucrt:close.obj
 0002:00010aa0       __sehtable$?__acrt_stdio_allocate_stream@@YA?AV__crt_stdio_stream@@XZ 10080aa0     libucrt:stream.obj
 0002:00010ac0       __sehtable$__read          10080ac0     libucrt:read.obj
 0002:00010ae0       __sehtable$__write         10080ae0     libucrt:write.obj
 0002:00010b00       __sehtable$??$?RV<lambda_15ade71b0218206bbe3333a0c9b79046>@@AAV<lambda_da44e0f8b0f19ba52fefafb335991732>@@V<lambda_207f2d024fc103971653565357d6cd41>@@@?$__crt_seh_guarded_call@X@@QAEX$$QAV<lambda_15ade71b0218206bbe3333a0c9b79046>@@AAV<lambda_da44e0f8b0f19ba52fefafb335991732>@@$$QAV<lambda_207f2d024fc103971653565357d6cd41>@@@Z 10080b00     libucrt:per_thread_data.obj
 0002:00010b20       __sehtable$??$?RV<lambda_a7e850c220f1c8d1e6efeecdedd162c6>@@AAV<lambda_46720907175c18b6c9d2717bc0d2d362>@@V<lambda_9048902d66e8d99359bc9897bbb930a8>@@@?$__crt_seh_guarded_call@X@@QAEX$$QAV<lambda_a7e850c220f1c8d1e6efeecdedd162c6>@@AAV<lambda_46720907175c18b6c9d2717bc0d2d362>@@$$QAV<lambda_9048902d66e8d99359bc9897bbb930a8>@@@Z 10080b20     libucrt:per_thread_data.obj
 0002:00010b40       __sehtable$??$?RV<lambda_38edbb1296d33220d7e4dd0ed76b244a>@@AAV<lambda_5ce1d447e08cb34b2473517608e21441>@@V<lambda_fb385d3da700c9147fc39e65dd577a8c>@@@?$__crt_seh_guarded_call@X@@QAEX$$QAV<lambda_38edbb1296d33220d7e4dd0ed76b244a>@@AAV<lambda_5ce1d447e08cb34b2473517608e21441>@@$$QAV<lambda_fb385d3da700c9147fc39e65dd577a8c>@@@Z 10080b40     libucrt:per_thread_data.obj
 0002:00010b60       __sehtable$??$?RV<lambda_6affb1475c98b40b75cdec977db92e3c>@@AAV<lambda_b8d4b9c228a6ecc3f80208dbb4b4a104>@@V<lambda_608742c3c92a14382c1684fc64f96c88>@@@?$__crt_seh_guarded_call@X@@QAEX$$QAV<lambda_6affb1475c98b40b75cdec977db92e3c>@@AAV<lambda_b8d4b9c228a6ecc3f80208dbb4b4a104>@@$$QAV<lambda_608742c3c92a14382c1684fc64f96c88>@@@Z 10080b60     libucrt:per_thread_data.obj
 0002:00010b80       __sehtable$__free_locale   10080b80     libucrt:wsetlocale.obj
 0002:00010bb0       __sehtable$??$?RV<lambda_e5124f882df8998aaf41531e079ba474>@@AAV<lambda_3e16ef9562a7dcce91392c22ab16ea36>@@V<lambda_e25ca0880e6ef98be67edffd8c599615>@@@?$__crt_seh_guarded_call@X@@QAEX$$QAV<lambda_e5124f882df8998aaf41531e079ba474>@@AAV<lambda_3e16ef9562a7dcce91392c22ab16ea36>@@$$QAV<lambda_e25ca0880e6ef98be67edffd8c599615>@@@Z 10080bb0     libucrt:wsetlocale.obj
 0002:00010bd0       __sehtable$??$?RV<lambda_82aef432098b982f9ede325b418aa67a>@@AAV<lambda_862e9a3f04921db6ca1ce3faa2bf3edf>@@V<lambda_ffabc152e504b53d7492b9889b10c020>@@@?$__crt_seh_guarded_call@X@@QAEX$$QAV<lambda_82aef432098b982f9ede325b418aa67a>@@AAV<lambda_862e9a3f04921db6ca1ce3faa2bf3edf>@@$$QAV<lambda_ffabc152e504b53d7492b9889b10c020>@@@Z 10080bd0     libucrt:wsetlocale.obj
 0002:00010bf0       __sehtable$??$?RV<lambda_6673f7c4c09a5d469d0c27ae364621ce>@@AAV<lambda_ebab98244f73a74f49db879bf13fa982>@@V<lambda_be20789b7a146653eab82509ec35b419>@@@?$__crt_seh_guarded_call@X@@QAEX$$QAV<lambda_6673f7c4c09a5d469d0c27ae364621ce>@@AAV<lambda_ebab98244f73a74f49db879bf13fa982>@@$$QAV<lambda_be20789b7a146653eab82509ec35b419>@@@Z 10080bf0     libucrt:wsetlocale.obj
 0002:00010c10       __sehtable$??$?RV<lambda_4fdada1b837b2abbf20876fac97688ad>@@AAV<lambda_b57350f2640456a0859d250846f69caf>@@V<lambda_eed5e4f92b5b7d55fa22c48c484aaa54>@@@?$__crt_seh_guarded_call@X@@QAEX$$QAV<lambda_4fdada1b837b2abbf20876fac97688ad>@@AAV<lambda_b57350f2640456a0859d250846f69caf>@@$$QAV<lambda_eed5e4f92b5b7d55fa22c48c484aaa54>@@@Z 10080c10     libucrt:wsetlocale.obj
 0002:00010c30       __sehtable$??$?RV<lambda_135d2772fca65dc1248eeaa1b56e886a>@@AAV<lambda_2a444430fde8c29194d880d93eed5e8f>@@AAV<lambda_8dff2cf36a5417162780cd64fa2883ef>@@@?$__crt_seh_guarded_call@X@@QAEX$$QAV<lambda_135d2772fca65dc1248eeaa1b56e886a>@@AAV<lambda_2a444430fde8c29194d880d93eed5e8f>@@AAV<lambda_8dff2cf36a5417162780cd64fa2883ef>@@@Z 10080c30     libucrt:wsetlocale.obj
 0002:00010c50       __sehtable$??$common_lseek@J@@YAJHJH@Z 10080c50     libucrt:lseek.obj
 0002:00010c70       __sehtable$??$common_lseek@_J@@YA_JH_JH@Z 10080c70     libucrt:lseek.obj
 0002:00010c90       __sehtable$_fputwc         10080c90     libucrt:fputwc.obj
 0002:00010cb0       __sehtable$_fputc          10080cb0     libucrt:fputc.obj
 0002:00010cd0       __sehtable$___set_fpsr_sse2 10080cd0     libucrt:fpctrl.obj
 0002:00010cf0       __sehtable$?update_thread_multibyte_data_internal@@YAPAU__crt_multibyte_data@@QAU__acrt_ptd@@QAPAU1@@Z 10080cf0     libucrt:mbctype.obj
 0002:00010d10       __sehtable$??$?RV<lambda_ceb1ee4838e85a9d631eb091e2fbe199>@@AAV<lambda_ae742caa10f662c28703da3d2ea5e57e>@@V<lambda_cd08b5d6af4937fe54fc07d0c9bf6b37>@@@?$__crt_seh_guarded_call@X@@QAEX$$QAV<lambda_ceb1ee4838e85a9d631eb091e2fbe199>@@AAV<lambda_ae742caa10f662c28703da3d2ea5e57e>@@$$QAV<lambda_cd08b5d6af4937fe54fc07d0c9bf6b37>@@@Z 10080d10     libucrt:mbctype.obj
 0002:00010d30       __sehtable$__query_new_handler 10080d30     libucrt:new_handler.obj
 0002:00010d50       __sehtable$__set_new_handler 10080d50     libucrt:new_handler.obj
 0002:00010d70       __sehtable$??$?RV<lambda_9e9de3de5fa147e2223d7db92bc10aa6>@@AAV<lambda_38ce7e780aa69e748d6df282ebc68efe>@@V<lambda_8ca6da459f0f6780f1cff60fdc3d00e5>@@@?$__crt_seh_guarded_call@H@@QAEH$$QAV<lambda_9e9de3de5fa147e2223d7db92bc10aa6>@@AAV<lambda_38ce7e780aa69e748d6df282ebc68efe>@@$$QAV<lambda_8ca6da459f0f6780f1cff60fdc3d00e5>@@@Z 10080d70     libucrt:commit.obj
 0002:00010d90       __sehtable$__open_osfhandle 10080d90     libucrt:osfinfo.obj
 0002:00010db0       __sehtable$__alloc_osfhnd  10080db0     libucrt:osfinfo.obj
 0002:00010dd0       __sehtable$___acrt_lowio_ensure_fh_exists 10080dd0     libucrt:osfinfo.obj
 0002:00010df0       __sehtable$??$common_open@D@@YAHQBDHH@Z 10080df0     libucrt:open.obj
 0002:00010e10       __sehtable$??$common_open@_W@@YAHQB_WHH@Z 10080e10     libucrt:open.obj
 0002:00010e30       __sehtable$??$common_sopen_dispatch@D@@YAHQBDHHHQAHH@Z 10080e30     libucrt:open.obj
 0002:00010e50       __sehtable$??$common_sopen_dispatch@_W@@YAHQB_WHHHQAHH@Z 10080e50     libucrt:open.obj
 0002:00010e70       __sehtable$??$?RV<lambda_f828341fbe69b7c0d4c527b01f22877f>@@AAV<lambda_9e0b6ab72a5b3ae37ad997d08b519f50>@@V<lambda_f01deac0a8d65d6e0411edf7e0af5775>@@@?$__crt_seh_guarded_call@G@@QAEG$$QAV<lambda_f828341fbe69b7c0d4c527b01f22877f>@@AAV<lambda_9e0b6ab72a5b3ae37ad997d08b519f50>@@$$QAV<lambda_f01deac0a8d65d6e0411edf7e0af5775>@@@Z 10080e70     libucrt:putwch.obj
 0002:00010e90       __sehtable$___acrt_update_thread_locale_data 10080e90     libucrt:locale_refcounting.obj
 0002:00010eb0       __sehtable$__setmode       10080eb0     libucrt:setmode.obj
 0002:00010ed0       __sehtable$??$?RV<lambda_3b12a17125e8c5b5e6e6f6c6050db0c1>@@AAV<lambda_522ac1b1e1a1180d6f374a882b81d1c8>@@V<lambda_e92b96cac182f562f30acc9fb7872857>@@@?$__crt_seh_guarded_call@H@@QAEH$$QAV<lambda_3b12a17125e8c5b5e6e6f6c6050db0c1>@@AAV<lambda_522ac1b1e1a1180d6f374a882b81d1c8>@@$$QAV<lambda_e92b96cac182f562f30acc9fb7872857>@@@Z 10080ed0     libucrt:chsize.obj
 0002:00010ef0       __unwindtable$?_wcstombs_l_helper@@YAIPADPB_WIPAU__crt_locale_pointers@@@Z 10080ef0     libucrt:wcstombs.obj
 0002:00010ef8       __ehfuncinfo$?_wcstombs_l_helper@@YAIPADPB_WIPAU__crt_locale_pointers@@@Z 10080ef8     libucrt:wcstombs.obj
 0002:00010f20       __sehtable$__IsNonwritableInCurrentImage 10080f20     LIBCMT:pesect.obj
 0002:00011190       .edata                     10081190     homing_ldm_aggiornat_slrt.exp
 0002:000111b8       rgpv                       100811b8     homing_ldm_aggiornat_slrt.exp
 0002:000111d0       rgszName                   100811d0     homing_ldm_aggiornat_slrt.exp
 0002:000111e8       rgwOrd                     100811e8     homing_ldm_aggiornat_slrt.exp
 0002:000111f4       szName                     100811f4     homing_ldm_aggiornat_slrt.exp
 0002:00011212       $N00001                    10081212     homing_ldm_aggiornat_slrt.exp
 0002:0001121d       $N00002                    1008121d     homing_ldm_aggiornat_slrt.exp
 0002:00011226       $N00003                    10081226     homing_ldm_aggiornat_slrt.exp
 0002:00011233       $N00004                    10081233     homing_ldm_aggiornat_slrt.exp
 0002:0001123d       $N00005                    1008123d     homing_ldm_aggiornat_slrt.exp
 0002:0001124b       $N00006                    1008124b     homing_ldm_aggiornat_slrt.exp
 0003:00000000       _rtDataAddrMap             10082000     homing_ldm_aggiornat_capi.obj
 0003:000001f8       _mmiStatic                 100821f8     homing_ldm_aggiornat_capi.obj
 0003:00000b5c       _rtwCAPI_mallocError       10082b5c     rtw_modelmap_utils.obj
 0003:00000b70       _mdlInfo                   10082b70     xpctarget.obj
 0003:00000c90       _SupportedBoard            10082c90     xpcionim.obj
 0003:00001128       ?firsttime@?1??niM_Private_Data@@9@9 10083128     xpcionim.obj
 0003:0000112c       _Static_AI_Control         1008312c     xpcionim.obj
 0003:00001290       ?__vcrt_flsindex@@3KA      10083290     libvcruntime:per_thread_data.obj
 0003:00001394       ?errno_no_memory@@3HA      10083394     libucrt:errno.obj
 0003:00001398       ?doserrno_no_memory@@3KA   10083398     libucrt:errno.obj
 0003:00001514       ?__acrt_flsindex@@3KA      10083514     libucrt:per_thread_data.obj
 0003:00001518       __ctype_loc_style          10083518     libucrt:wsetlocale.obj
 0003:00001610       ?__DAZ_ENABLED@?1??__set_fpsr_sse2@@9@9 10083610     libucrt:fpctrl.obj
 0003:000018a8       __mbctypes                 100838a8     libucrt:mbctype.obj
 0003:000019e0       __mbcasemaps               100839e0     libucrt:mbctype.obj
 0003:00001b14       ?__rgctypeflag@@3PADA      10083b14     libucrt:mbctype.obj
 0003:00001b18       ?__rgcode_page_info@@3PAUcode_page_info@@A 10083b18     libucrt:mbctype.obj
 0003:00001cc0       ?__dcrt_lowio_console_output_handle@@3PAXA 10083cc0     libucrt:initcon.obj
 0003:00002060       ?rt_DataLoggingInfo@?5??homing_ldm_aggiornat@@9@9 10084060     homing_ldm_aggiornat.obj
 0003:000020b8       ?dims@?1??rt_mxGetDimensions@@9@9 100840b8     rt_matrx.obj
 0003:000020c4       _rtVarDimsAddrMap          100840c4     homing_ldm_aggiornat_capi.obj
 0003:00002110       _rtm                       10084110     xpctarget.obj
 0003:00002128       _msg                       10084128     danipcim.obj
 0003:00002260       _msg                       10084260     dinipcim.obj
 0003:00002398       _msg                       10084398     donipcim.obj
 0003:000024d0       _msg                       100844d0     encnipcim.obj
 0003:00002608       _msg                       10084608     xpcionim.obj
 0003:00002708       _private_data              10084708     xpcionim.obj
 0003:00002950       _GS_ExceptionRecord        10084950     LIBCMT:gs_report.obj
 0003:000029a0       _GS_ContextRecord          100849a0     LIBCMT:gs_report.obj
 0003:00002d18       ?__proc_attached@@3HA      10084d18     LIBCMT:dll_dllmain.obj
 0003:00002d54       ?is_initialized_as_dll@@3_NA 10084d54     LIBCMT:utility.obj
 0003:00002d55       ?module_local_atexit_table_initialized@@3_NA 10084d55     LIBCMT:utility.obj
 0003:00002d58       ?module_local_atexit_table@@3U_onexit_table_t@@A 10084d58     LIBCMT:utility.obj
 0003:00002d64       ?module_local_at_quick_exit_table@@3U_onexit_table_t@@A 10084d64     LIBCMT:utility.obj
 0003:00002da4       ?heap@@3V_HeapManager@@A   10084da4     libvcruntime:undname.obj
 0003:00002dc4       ?__vcrt_startup_thread_ptd@@3U__vcrt_ptd@@A 10084dc4     libvcruntime:per_thread_data.obj
 0003:00002df4       ___vcrt_lock_table         10084df4     libvcruntime:locks.obj
 0003:00002e0c       ___vcrt_locks_initialized  10084e0c     libvcruntime:locks.obj
 0003:00002e18       ?module_handles@@3PAPAUHINSTANCE__@@A 10084e18     libvcruntime:winapi_downlevel.obj
 0003:00002e24       ?encoded_function_pointers@@3PAPAXA 10084e24     libvcruntime:winapi_downlevel.obj
 0003:00002e48       ?c_termination_complete@@3JA 10084e48     libucrt:exit.obj
 0003:00002e4c       ?thread_local_exit_callback_func@@3P6GXPAXK0@ZA 10084e4c     libucrt:exit.obj
 0003:00002e68       ?program_name@?1???$common_configure_argv@D@@YAHW4_crt_argv_mode@@@Z@4PADA 10084e68     libucrt:argv_parsing.obj
 0003:00002fa8       ?program_name@?1???$common_configure_argv@_W@@YAHW4_crt_argv_mode@@@Z@4PA_WA 10084fa8     libucrt:argv_parsing.obj
 0003:00003250       ?__acrt_invalid_parameter_handler@@3V?$dual_state_global@P6AXPB_W00II@Z@__crt_state_management@@A 10085250     libucrt:invalid_parameter.obj
 0003:00003254       ?__acrt_app_type@@3W4_crt_app_type@@A 10085254     libucrt:report_runtime_error.obj
 0003:00003258       ?outmsg@?9??__acrt_report_runtime_error@@9@4PA_WA 10085258     libucrt:report_runtime_error.obj
 0003:000039bc       ___acrt_error_mode         100859bc     libucrt:set_error_mode.obj
 0003:000039c0       ?console_ctrl_handler_installed@@3_NA 100859c0     libucrt:signal.obj
 0003:000039c4       ?ctrlc_action@@3V?$dual_state_global@P6AXH@Z@__crt_state_management@@A 100859c4     libucrt:signal.obj
 0003:000039c8       ?ctrlbreak_action@@3V?$dual_state_global@P6AXH@Z@__crt_state_management@@A 100859c8     libucrt:signal.obj
 0003:000039cc       ?abort_action@@3V?$dual_state_global@P6AXH@Z@__crt_state_management@@A 100859cc     libucrt:signal.obj
 0003:000039d0       ?term_action@@3V?$dual_state_global@P6AXH@Z@__crt_state_management@@A 100859d0     libucrt:signal.obj
 0003:000039d8       ?__acrt_lock_table@@3PAU_RTL_CRITICAL_SECTION@@A 100859d8     libucrt:locks.obj
 0003:00003b28       ?__acrt_locks_initialized@@3IA 10085b28     libucrt:locks.obj
 0003:00003b70       ?state_cache@?1???$get_cached_win_policy@Ubegin_thread_init_policy_properties@?1??__acrt_get_begin_thread_init_policy@@YA?AW4begin_thread_init_policy@@XZ@@@YA?AW4begin_thread_init_policy@@W4AppPolicyThreadInitializationType@@@Z@4JA 10085b70     libucrt:win_policies.obj
 0003:00003b74       ?state_cache@?1???$get_cached_win_policy@Udeveloper_information_policy_properties@?1??__acrt_get_developer_information_policy@@YA?AW4developer_information_policy@@XZ@@@YA?AW4developer_information_policy@@W4AppPolicyShowDeveloperDiagnostic@@@Z@4JA 10085b74     libucrt:win_policies.obj
 0003:00003b78       ?state_cache@?1???$get_cached_win_policy@Uwindowing_model_policy_properties@?1??__acrt_get_windowing_model_policy@@YA?AW4windowing_model_policy@@XZ@@@YA?AW4windowing_model_policy@@W4AppPolicyWindowingModel@@@Z@4JA 10085b78     libucrt:win_policies.obj
 0003:00003b80       ?module_handles@@3PAPAUHINSTANCE__@@A 10085b80     libucrt:winapi_thunks.obj
 0003:00003bd0       ?encoded_function_pointers@@3PAPAXA 10085bd0     libucrt:winapi_thunks.obj
 0003:00003c84       ?static_enum_proc@?1??enum_system_locales_ex_nolock@@YAHQ6GHPA_WKJ@Z@Z@4P6GH0KJ@ZA 10085c84     libucrt:winapi_thunks.obj
 0003:00003f04       ?internal_state@?1??_mbtowc_l@@9@4U_Mbstatet@@A 10085f04     libucrt:mbtowc.obj
 0003:00003f10       ?enable_percent_n@@3IA     10085f10     libucrt:printf_count_output.obj
 0003:00003f14       ?user_matherr@@3V?$dual_state_global@P6AHPAU_exception@@@Z@__crt_state_management@@A 10085f14     libucrt:matherr.obj
 0003:00003f24       ?fSystemSet@@3HA           10085f24     libucrt:mbctype.obj
 0003:00003f2b       ?initialized@?1??__acrt_initialize_multibyte@@9@4_NA 10085f2b     libucrt:mbctype.obj
 0003:00003f4c       ?__acrt_new_handler@@3V?$dual_state_global@P6AHI@Z@__crt_state_management@@A 10085f4c     libucrt:new_handler.obj
 0003:00003f50       ?__acrt_global_new_mode@@3V?$dual_state_global@J@__crt_state_management@@A 10085f50     libucrt:new_mode.obj
 0003:00003f60       ?mbst@?1??mbrlen@@9@4U_Mbstatet@@A 10085f60     libucrt:mbrtowc.obj
 0003:00003f6c       ?mbst@?1??mbrtowc@@9@4U_Mbstatet@@A 10085f6c     libucrt:mbrtowc.obj
 0003:00003f78       ?mbst@?1??_mbsrtowcs_helper@@YAIPA_WPAPBDIPAU_Mbstatet@@@Z@4U2@A 10085f78     libucrt:mbrtowc.obj
 0003:00003f88       ?internal_pst@?1??__mbrtoc32_utf8@__crt_mbstring@@YAIPA_UPBDIPAU_Mbstatet@@@Z@4U3@A 10085f88     libucrt:mbrtoc32.obj
 0003:00003f9c       __pmatherr_set             10085f9c     libucrt:libm_error.obj
 0003:00003fa0       ?internal_pst@?1??__c16rtomb_utf8@__crt_mbstring@@YAIPAD_SPAU_Mbstatet@@@Z@4U3@A 10085fa0     libucrt:c16rtomb.obj
 0004:000004e4       .idata$6                   1009b4e4     kernel32:KERNEL32.dll
