 homing_slrt

 Timestamp is 619e66aa (Wed Nov 24 17:22:02 2021)

 Preferred load address is 10000000

 Start         Length     Name                   Class
 0001:00000000 0006da25H .text$mn                CODE
 0001:0006da25 00001085H .text$x                 CODE
 0002:00000000 00000104H .CRT$XCA                DATA
 0002:00000104 00000104H .CRT$XCZ                DATA
 0002:00000208 00000104H .CRT$XIA                DATA
 0002:0000030c 00000110H .CRT$XIC                DATA
 0002:0000041c 00000104H .CRT$XIZ                DATA
 0002:00000520 00000104H .CRT$XPA                DATA
 0002:00000624 0000010cH .CRT$XPX                DATA
 0002:00000730 00000104H .CRT$XPXA               DATA
 0002:00000834 00000104H .CRT$XPZ                DATA
 0002:00000938 00000104H .CRT$XTA                DATA
 0002:00000a3c 00000104H .CRT$XTZ                DATA
 0002:00000b40 0000eca8H .rdata                  DATA
 0002:0000f7e8 00000448H .rdata$r                DATA
 0002:0000fc30 00000128H .rdata$sxdata           DATA
 0002:0000fd58 00000208H .rdata$zzzdbg           DATA
 0002:0000ff60 00000104H .rtc$IAA                DATA
 0002:00010064 00000104H .rtc$IZZ                DATA
 0002:00010168 00000104H .rtc$TAA                DATA
 0002:0001026c 00000104H .rtc$TZZ                DATA
 0002:00010370 00000ce0H .xdata$x                DATA
 0002:00011050 000001dfH .edata                  DATA
 0003:00000000 00001df0H .data                   DATA
 0003:00001df0 00000250H .data$r                 DATA
 0003:00002040 0001698cH .bss                    DATA
 0004:00000000 000001b4H .idata$5                DATA
 0004:000001b4 00000014H .idata$2                DATA
 0004:000001c8 00000014H .idata$3                DATA
 0004:000001dc 000001b4H .idata$4                DATA
 0004:00000390 000007a2H .idata$6                DATA
 0005:00000000 00000104H .00cfg                  DATA

  Address         Publics by Value              Rva+Base       Lib:Object

 0000:00000000       __except_list              00000000     <absolute>
 0000:00000000       ___guard_iat_table         00000000     <absolute>
 0000:00000000       ___guard_longjmp_count     00000000     <absolute>
 0000:00000000       ___volatile_metadata       00000000     <absolute>
 0000:00000000       ___hybrid_code_map_count   00000000     <absolute>
 0000:00000000       ___guard_iat_count         00000000     <absolute>
 0000:00000000       ___guard_fids_table        00000000     <absolute>
 0000:00000000       ___hybrid_auxiliary_iat    00000000     <absolute>
 0000:00000000       ___guard_longjmp_table     00000000     <absolute>
 0000:00000000       ___guard_fids_count        00000000     <absolute>
 0000:00000000       ___hybrid_code_map         00000000     <absolute>
 0000:00000000       ___dynamic_value_reloc_table 00000000     <absolute>
 0000:00000000       ___enclave_config          00000000     <absolute>
 0000:00000008       ___safe_se_handler_count   00000008     <absolute>
 0000:00000100       ___guard_flags             00000100     <absolute>
 0000:00000000       ___ImageBase               10000000     <linker-defined>
 0001:00006500       _MdlInitialize             10007500 f   homing.obj
 0001:00006510       _MdlInitializeSampleTimes  10007510 f   homing.obj
 0001:00006520       _MdlInitializeSizes        10007520 f   homing.obj
 0001:00006530       _MdlOutputs                10007530 f   homing.obj
 0001:00006540       _MdlStart                  10007540 f   homing.obj
 0001:00006720       _MdlTerminate              10007720 f   homing.obj
 0001:000067d0       _MdlUpdate                 100077d0 f   homing.obj
 0001:000068b0       _homing                    100078b0 f   homing.obj
 0001:00008ba0       _rt_mxCreateCharMatrixFromStrings 10009ba0 f   rt_matrx.obj
 0001:00008d00       _rt_mxCreateDoubleMatrix   10009d00 f   rt_matrx.obj
 0001:00008d60       _rt_mxCreateNumericArray   10009d60 f   rt_matrx.obj
 0001:00008dd0       _rt_mxCreateString         10009dd0 f   rt_matrx.obj
 0001:00008e60       _rt_mxDuplicateArray       10009e60 f   rt_matrx.obj
 0001:00008ec0       _rt_mxGetDimensions        10009ec0 f   rt_matrx.obj
 0001:00008f00       _rt_mxGetEps               10009f00 f   rt_matrx.obj
 0001:00008f10       _rt_mxGetString            10009f10 f   rt_matrx.obj
 0001:00008f90       _rtPrintfNoOp              10009f90 f   rt_printf.obj
 0001:00008fa0       _homing_GetCAPIStaticMap   10009fa0 f   homing_capi.obj
 0001:00008fb0       _homing_InitializeDataMapInfo 10009fb0 f   homing_capi.obj
 0001:00009040       _rtGetInf                  1000a040 f   rtGetInf.obj
 0001:00009070       _rtGetInfF                 1000a070 f   rtGetInf.obj
 0001:00009090       _rtGetMinusInf             1000a090 f   rtGetInf.obj
 0001:000090c0       _rtGetMinusInfF            1000a0c0 f   rtGetInf.obj
 0001:000090e0       _rtGetNaN                  1000a0e0 f   rtGetNaN.obj
 0001:00009110       _rtGetNaNF                 1000a110 f   rtGetNaN.obj
 0001:00009130       _rtIsInf                   1000a130 f   rt_nonfinite.obj
 0001:00009170       _rtIsInfF                  1000a170 f   rt_nonfinite.obj
 0001:000091b0       _rtIsNaN                   1000a1b0 f   rt_nonfinite.obj
 0001:000091c0       _rtIsNaNF                  1000a1c0 f   rt_nonfinite.obj
 0001:000091d0       _rt_InitInfAndNaN          1000a1d0 f   rt_nonfinite.obj
 0001:00009230       _rt_CleanUpForStateLogWithMMI 1000a230 f   rt_logging_mmi.obj
 0001:00009340       _rt_FillStateSigInfoFromMMI 1000a340 f   rt_logging_mmi.obj
 0001:000096e0       _rtwCAPI_CountSysRan       1000a6e0 f   rtw_modelmap_utils.obj
 0001:00009780       _rtwCAPI_EncodePath        1000a780 f   rtw_modelmap_utils.obj
 0001:00009890       _rtwCAPI_FillSysRan        1000a890 f   rtw_modelmap_utils.obj
 0001:00009980       _rtwCAPI_FreeFullPaths     1000a980 f   rtw_modelmap_utils.obj
 0001:00009a10       _rtwCAPI_GetFullStateBlockPath 1000aa10 f   rtw_modelmap_utils.obj
 0001:00009ba0       _rtwCAPI_GetNumContStateRecords 1000aba0 f   rtw_modelmap_utils.obj
 0001:00009c60       _rtwCAPI_GetNumSigLogRecords 1000ac60 f   rtw_modelmap_utils.obj
 0001:00009cb0       _rtwCAPI_GetNumSigLogRecordsForRTWLogging 1000acb0 f   rtw_modelmap_utils.obj
 0001:00009d50       _rtwCAPI_GetNumStateRecords 1000ad50 f   rtw_modelmap_utils.obj
 0001:00009da0       _rtwCAPI_GetNumStateRecordsForRTWLogging 1000ada0 f   rtw_modelmap_utils.obj
 0001:00009e40       _rtwCAPI_GetSigAddrFromMap 1000ae40 f   rtw_modelmap_utils.obj
 0001:00009f00       _rtwCAPI_GetSigLogRecordInfo 1000af00 f   rtw_modelmap_utils.obj
 0001:0000a330       _rtwCAPI_GetStateRecordInfo 1000b330 f   rtw_modelmap_utils.obj
 0001:0000a7f0       _rtwCAPI_GetStateWidth     1000b7f0 f   rtw_modelmap_utils.obj
 0001:0000a850       _rtwCAPI_HasStates         1000b850 f   rtw_modelmap_utils.obj
 0001:0000a8b0       _rtwCAPI_UpdateFullPaths   1000b8b0 f   rtw_modelmap_utils.obj
 0001:0000aa90       ___local_stdio_printf_options 1000ba90 f i rt_logging.obj
 0001:0000aaa0       __vfprintf_l               1000baa0 f i rt_logging.obj
 0001:0000aad0       __vsnprintf_l              1000bad0 f i rt_logging.obj
 0001:0000ab10       __vsprintf_l               1000bb10 f i rt_logging.obj
 0001:0000ab50       _fprintf                   1000bb50 f i rt_logging.obj
 0001:0000b050       _printf                    1000c050 f i rt_logging.obj
 0001:0000b090       _rt_CreateLogVar           1000c090 f   rt_logging.obj
 0001:0000b120       _rt_CreateLogVarWithConvert 1000c120 f   rt_logging.obj
 0001:0000ba50       _rt_CreateStructLogVar     1000ca50 f   rt_logging.obj
 0001:0000c7d0       _rt_GetMxIdFromDTypeId     1000d7d0 f   rt_logging.obj
 0001:0000c800       _rt_GetMxIdFromDTypeIdForRSim 1000d800 f   rt_logging.obj
 0001:0000f390       _rt_StartDataLogging       10010390 f   rt_logging.obj
 0001:0000f850       _rt_StartDataLoggingWithStartTime 10010850 f   rt_logging.obj
 0001:0000fcc0       _rt_StopDataLogging        10010cc0 f   rt_logging.obj
 0001:0000fce0       _rt_StopDataLoggingImpl    10010ce0 f   rt_logging.obj
 0001:00010100       _rt_UpdateLogVar           10011100 f   rt_logging.obj
 0001:00011290       _rt_UpdateStructLogVar     10012290 f   rt_logging.obj
 0001:00011320       _rt_UpdateTXXFYLogVars     10012320 f   rt_logging.obj
 0001:00011650       _rt_UpdateTXYLogVars       10012650 f   rt_logging.obj
 0001:00011890       _sprintf                   10012890 f i rt_logging.obj
 0001:000118d0       _DllMain@12                100128d0 f   xpctarget.obj
 0001:000118e0       _SLRTSetErrorStatus        100128e0 f   xpctarget.obj
 0001:00011900       _changeStepSize            10012900 f   xpctarget.obj
 0001:00011950       _getDLMVersion             10012950 f   xpctarget.obj
 0001:00011960       _getRefMdlPath             10012960 f   xpctarget.obj
 0001:000119e0       _getRefMdlSignalNumber     100129e0 f   xpctarget.obj
 0001:00011a90       _getrlmdlinfo              10012a90 f   xpctarget.obj
 0001:00011c70       _homing_ChangeStepSize     10012c70 f   xpctarget.obj
 0001:00011cc0       _updateDiscreteEvents      10012cc0 f   xpctarget.obj
 0001:00011cd0       _getNumRef                 10012cd0 f   appmappingData.obj
 0001:00011ce0       _vprintf                   10012ce0 f i legacy_stdio.obj
 0001:00011d20       _danipcim                  10012d20 f   danipcim.obj
 0001:000124e0       _dinipcim                  100134e0 f   dinipcim.obj
 0001:000128a0       _donipcim                  100138a0 f   donipcim.obj
 0001:00012db0       _encnipcim                 10013db0 f   encnipcim.obj
 0001:00013470       _niMIdentify               10014470 f   xpcionim.obj
 0001:000135e0       _niM_AISetup               100145e0 f   xpcionim.obj
 0001:000139f0       _niM_AO_Setup              100149f0 f   xpcionim.obj
 0001:00013b80       _niM_Cont_Pulse_Train_Generation 10014b80 f   xpcionim.obj
 0001:00013cc0       _niM_Counter_Reset_All     10014cc0 f   xpcionim.obj
 0001:00013d70       _niM_CtrArm                10014d70 f   xpcionim.obj
 0001:00013d90       _niM_CtrDisarm             10014d90 f   xpcionim.obj
 0001:00013db0       _niM_CtrReadArm            10014db0 f   xpcionim.obj
 0001:00013dd0       _niM_CtrReadDisarm         10014dd0 f   xpcionim.obj
 0001:00013df0       _niM_PeriodConfigure       10014df0 f   xpcionim.obj
 0001:00013f70       _niM_Private_Data          10014f70 f   xpcionim.obj
 0001:00014550       _niM_SetPFIFilter          10015550 f   xpcionim.obj
 0001:000145d0       _niM_SetPFI_DO             100155d0 f   xpcionim.obj
 0001:00014610       _niM_SetPFI_Select         10015610 f   xpcionim.obj
 0001:00014690       _niM_aiConfigureChannel    10015690 f   xpcionim.obj
 0001:00014700       _niM_aiGetScalingCoefficients 10015700 f   xpcionim.obj
 0001:000148d0       _niM_aiPolynomialScaler    100158d0 f   xpcionim.obj
 0001:00014a00       _niM_analogTriggerReset    10015a00 f   xpcionim.obj
 0001:00014a50       _niM_aoConfigureDAC        10015a50 f   xpcionim.obj
 0001:00014aa0       _niM_aoGetScalingCoefficients 10015aa0 f   xpcionim.obj
 0001:00014b50       _niM_aoLinearScaler        10015b50 f   xpcionim.obj
 0001:00014b80       _niM_configureTimebase     10015b80 f   xpcionim.obj
 0001:00014ba0       _niM_eepromReadMSeries     10015ba0 f   xpcionim.obj
 0001:00014c70       _niM_pllReset              10015c70 f   xpcionim.obj
 0001:00014ca0       _niM_resetCtr              10015ca0 f   xpcionim.obj
 0001:00014cc0       _niM_whichBank             10015cc0 f   xpcionim.obj
 0001:00014d00       _niMconfig                 10015d00 f   xpcionim.obj
 0001:00014da0       _GetPCIDeviceFull          10015da0 f   xpcruntime:xpcimports.obj
 0001:00014de0       _ShowPCIDevice             10015de0 f   xpcruntime:xpcimports.obj
 0001:000155c0       _xpcGetPciConfigAtSlot     100165c0 f   xpcruntime:xpcimports.obj
 0001:000158d0       _xpcInitProcs              100168d0 f   xpcruntime:xpcimports.obj
 0001:00016c30       _xpceuploadevent           10017c30 f   xpcruntime:xpcimports.obj
 0001:00016c40       __ftoui3                   10017c40 f   LIBCMT:ftol3.obj
 0001:00016c4f       __ftoul3                   10017c4f f   LIBCMT:ftol3.obj
 0001:00016c5e       __ftol3                    10017c5e f   LIBCMT:ftol3.obj
 0001:00016c6b       __ftol3_NaN                10017c6b f   LIBCMT:ftol3.obj
 0001:00016c83       __ftol3_work               10017c83 f   LIBCMT:ftol3.obj
 0001:00016d09       __ftol3_common             10017d09 f   LIBCMT:ftol3.obj
 0001:00016dcb       __ftol3_arg_error          10017dcb f   LIBCMT:ftol3.obj
 0001:00016ddd       __ftol3_except             10017ddd f   LIBCMT:ftol3.obj
 0001:00016e21       __dtoui3                   10017e21 f   LIBCMT:ftol3.obj
 0001:00016e30       __dtoul3                   10017e30 f   LIBCMT:ftol3.obj
 0001:00016e3f       __dtol3                    10017e3f f   LIBCMT:ftol3.obj
 0001:00016e4c       __dtol3_NaN                10017e4c f   LIBCMT:ftol3.obj
 0001:00016e69       __dtol3_work               10017e69 f   LIBCMT:ftol3.obj
 0001:00016f50       __ultod3                   10017f50 f   LIBCMT:ftol3.obj
 0001:00016f90       __ltod3                    10017f90 f   LIBCMT:ftol3.obj
 0001:00017094       ___raise_securityfailure   10018094 f   LIBCMT:gs_report.obj
 0001:000170c6       ___report_gsfailure        100180c6 f   LIBCMT:gs_report.obj
 0001:000171fd       ___report_rangecheckfailure 100181fd f   LIBCMT:gs_report.obj
 0001:0001720c       ___report_securityfailure  1001820c f   LIBCMT:gs_report.obj
 0001:0001730d       ___report_securityfailureEx 1001830d f   LIBCMT:gs_report.obj
 0001:00017466       @__security_check_cookie@4 10018466 f   LIBCMT:secchk.obj
 0001:0001747b       ___isa_available_init      1001847b f   LIBCMT:cpu_disp.obj
 0001:00017a5c       __CRT_INIT@12              10018a5c f   LIBCMT:dll_dllmain.obj
 0001:00017a67       __DllMainCRTStartup@12     10018a67 f   LIBCMT:dll_dllmain.obj
 0001:00017af2       ___security_init_cookie    10018af2 f   LIBCMT:gs_support.obj
 0001:00017b4f       ?__scrt_initialize_type_info@@YAXXZ 10018b4f f   LIBCMT:tncleanup.obj
 0001:00017b5e       ?__scrt_uninitialize_type_info@@YAXXZ 10018b5e f   LIBCMT:tncleanup.obj
 0001:00017b6d       ___local_stdio_scanf_options 10018b6d f i LIBCMT:default_local_stdio_options.obj
 0001:00017b73       ___scrt_initialize_default_local_stdio_options 10018b73 f   LIBCMT:default_local_stdio_options.obj
 0001:00017b97       ??$__crt_fast_decode_pointer@PAP6AXXZ@@YAPAP6AXXZQAP6AXXZ@Z 10018b97 f i LIBCMT:utility.obj
 0001:00017bb0       ??$__crt_fast_encode_pointer@PAP6AXXZ@@YAPAP6AXXZQAP6AXXZ@Z 10018bb0 f i LIBCMT:utility.obj
 0001:00017bd4       ?__crt_rotate_pointer_value@@YAIIH@Z 10018bd4 f i LIBCMT:utility.obj
 0001:00017be4       ?configure_argv@__scrt_narrow_argv_policy@@SAHXZ 10018be4 f i LIBCMT:utility.obj
 0001:00017c49       ?initialize_environment@__scrt_narrow_environment_policy@@SAHXZ 10018c49 f i LIBCMT:utility.obj
 0001:00017c8f       _NtCurrentTeb              10018c8f f i LIBCMT:utility.obj
 0001:00017c96       ___scrt_acquire_startup_lock 10018c96 f   LIBCMT:utility.obj
 0001:00017cd4       ___scrt_dllmain_after_initialize_c 10018cd4 f   LIBCMT:utility.obj
 0001:00017d09       ___scrt_dllmain_before_initialize_c 10018d09 f   LIBCMT:utility.obj
 0001:00017d1a       ___scrt_dllmain_crt_thread_attach 10018d1a f   LIBCMT:utility.obj
 0001:00017d40       ___scrt_dllmain_crt_thread_detach 10018d40 f   LIBCMT:utility.obj
 0001:00017d50       ___scrt_dllmain_exception_filter 10018d50 f   LIBCMT:utility.obj
 0001:00017d91       ___scrt_dllmain_uninitialize_c 10018d91 f   LIBCMT:utility.obj
 0001:00017dbc       ___scrt_dllmain_uninitialize_critical 10018dbc f   LIBCMT:utility.obj
 0001:00017dcc       ___scrt_initialize_crt     10018dcc f   LIBCMT:utility.obj
 0001:00017e13       ___scrt_initialize_onexit_tables 10018e13 f   LIBCMT:utility.obj
 0001:00017ee1       ___scrt_is_nonwritable_in_current_image 10018ee1 f   LIBCMT:utility.obj
 0001:00017f9a       ___scrt_release_startup_lock 10018f9a f   LIBCMT:utility.obj
 0001:00017fbe       ___scrt_uninitialize_crt   10018fbe f   LIBCMT:utility.obj
 0001:00017ff0       __onexit                   10018ff0 f   LIBCMT:utility.obj
 0001:00018039       _at_quick_exit             10019039 f   LIBCMT:utility.obj
 0001:00018076       _atexit                    10019076 f   LIBCMT:utility.obj
 0001:00018090       ___scrt_get_dyn_tls_init_callback 10019090 f   LIBCMT:dyn_tls_init.obj
 0001:00018096       ___scrt_fastfail           10019096 f   LIBCMT:utility_desktop.obj
 0001:000181f6       ___scrt_get_show_window_mode 100191f6 f   LIBCMT:utility_desktop.obj
 0001:00018233       ___scrt_initialize_mta     10019233 f   LIBCMT:utility_desktop.obj
 0001:00018238       ___scrt_initialize_winrt   10019238 f   LIBCMT:utility_desktop.obj
 0001:0001823b       ___scrt_is_managed_app     1001923b f   LIBCMT:utility_desktop.obj
 0001:0001828e       ___scrt_set_unhandled_exception_filter 1001928e f   LIBCMT:utility_desktop.obj
 0001:0001829d       ___scrt_stub_for_initialize_mta 1001929d f   LIBCMT:utility_desktop.obj
 0001:0001829d       ___scrt_exe_initialize_mta 1001929d f   LIBCMT:utility_desktop.obj
 0001:000182a0       ___scrt_unhandled_exception_filter@4 100192a0 f   LIBCMT:utility_desktop.obj
 0001:000182f1       __crt_debugger_hook        100192f1 f   LIBCMT:utility_desktop.obj
 0001:000182fb       __RTC_Initialize           100192fb f   LIBCMT:initsect.obj
 0001:00018332       __RTC_Terminate            10019332 f   LIBCMT:initsect.obj
 0001:00018370       __SEH_prolog4              10019370 f   LIBCMT:sehprolg4.obj
 0001:000183b6       __SEH_epilog4              100193b6 f   LIBCMT:sehprolg4.obj
 0001:000183e1       @_guard_check_icall_nop@4  100193e1 f i LIBCMT:guard_support.obj
 0001:000183e2       _ReadNoFence               100193e2 f i LIBCMT:guard_support.obj
 0001:000183ee       _ReadPointerNoFence        100193ee f i LIBCMT:guard_support.obj
 0001:000183fa       __guard_icall_checks_enforced 100193fa f i LIBCMT:guard_support.obj
 0001:00018410       __get_startup_argv_mode    10019410 f   LIBCMT:argv_mode.obj
 0001:00018414       ___scrt_is_ucrt_dll_in_use 10019414 f   LIBCMT:ucrt_detection.obj
 0001:00018423       _GetModuleHandleA@4        10019423 f   kernel32:KERNEL32.dll
 0001:00018429       _GetProcAddress@8          10019429 f   kernel32:KERNEL32.dll
 0001:0001842f       _UnhandledExceptionFilter@4 1001942f f   kernel32:KERNEL32.dll
 0001:00018435       _SetUnhandledExceptionFilter@4 10019435 f   kernel32:KERNEL32.dll
 0001:0001843b       _GetCurrentProcess@0       1001943b f   kernel32:KERNEL32.dll
 0001:00018441       _TerminateProcess@8        10019441 f   kernel32:KERNEL32.dll
 0001:00018447       _IsProcessorFeaturePresent@4 10019447 f   kernel32:KERNEL32.dll
 0001:0001844d       _QueryPerformanceCounter@4 1001944d f   kernel32:KERNEL32.dll
 0001:00018453       _GetCurrentProcessId@0     10019453 f   kernel32:KERNEL32.dll
 0001:00018459       _GetCurrentThreadId@0      10019459 f   kernel32:KERNEL32.dll
 0001:0001845f       _GetSystemTimeAsFileTime@4 1001945f f   kernel32:KERNEL32.dll
 0001:00018465       _InitializeSListHead@4     10019465 f   kernel32:KERNEL32.dll
 0001:0001846b       _IsDebuggerPresent@0       1001946b f   kernel32:KERNEL32.dll
 0001:00018471       _GetStartupInfoW@4         10019471 f   kernel32:KERNEL32.dll
 0001:00018477       _GetModuleHandleW@4        10019477 f   kernel32:KERNEL32.dll
 0001:00018480       _memset                    10019480 f   libvcruntime:memset.obj
 0001:00018630       _memcpy                    10019630 f   libvcruntime:memcpy.obj
 0001:00018d10       _strchr                    10019d10 f   libvcruntime:strchr.obj
 0001:00018d7e       ___from_strstr_to_strchr   10019d7e     libvcruntime:strchr.obj
 0001:00018e90       _memmove                   10019e90 f   libvcruntime:memmove.obj
 0001:000195b0       __except_handler4          1001a5b0 f   libvcruntime:chandler4.obj
 0001:0001976c       ??$?RD@__crt_internal_free_policy@@QBEXQBD@Z 1001a76c f i libvcruntime:std_type_info.obj
 0001:00019780       ??$?RX@__crt_internal_free_policy@@QBEXQBX@Z 1001a780 f i libvcruntime:std_type_info.obj
 0001:00019794       ??$__crt_interlocked_compare_exchange_pointer@$$CBDPAD$$T@@YAPBDPDSBDQAD$$T@Z 1001a794 f i libvcruntime:std_type_info.obj
 0001:000197aa       ??$__crt_interlocked_read_pointer@$$CBD@@YAPBDPDSBD@Z 1001a7aa f i libvcruntime:std_type_info.obj
 0001:000197b6       ??0?$__crt_unique_heap_ptr@DU__crt_internal_free_policy@@@@QAE@QAD@Z 1001a7b6 f i libvcruntime:std_type_info.obj
 0001:000197c7       ??0?$__crt_unique_heap_ptr@XU__crt_internal_free_policy@@@@QAE@QAX@Z 1001a7c7 f i libvcruntime:std_type_info.obj
 0001:000197d8       ??1?$__crt_unique_heap_ptr@DU__crt_internal_free_policy@@@@QAE@XZ 1001a7d8 f i libvcruntime:std_type_info.obj
 0001:000197ec       ??1?$__crt_unique_heap_ptr@XU__crt_internal_free_policy@@@@QAE@XZ 1001a7ec f i libvcruntime:std_type_info.obj
 0001:0001980c       ??B?$__crt_unique_heap_ptr@DU__crt_internal_free_policy@@@@QBE_NXZ 1001a80c f i libvcruntime:std_type_info.obj
 0001:00019813       ??B?$__crt_unique_heap_ptr@XU__crt_internal_free_policy@@@@QBE_NXZ 1001a813 f i libvcruntime:std_type_info.obj
 0001:00019842       ?__crt_interlocked_read_32@@YAHPDH@Z 1001a842 f i libvcruntime:std_type_info.obj
 0001:0001984e       ?detach@?$__crt_unique_heap_ptr@XU__crt_internal_free_policy@@@@QAEPAXXZ 1001a84e f i libvcruntime:std_type_info.obj
 0001:00019854       ?get@?$__crt_unique_heap_ptr@DU__crt_internal_free_policy@@@@QBEPADXZ 1001a854 f i libvcruntime:std_type_info.obj
 0001:00019857       ?get@?$__crt_unique_heap_ptr@XU__crt_internal_free_policy@@@@QBEPAXXZ 1001a857 f i libvcruntime:std_type_info.obj
 0001:0001985a       ?is_valid@?$__crt_unique_heap_ptr@DU__crt_internal_free_policy@@@@QBE_NXZ 1001a85a f i libvcruntime:std_type_info.obj
 0001:00019861       ?is_valid@?$__crt_unique_heap_ptr@XU__crt_internal_free_policy@@@@QBE_NXZ 1001a861 f i libvcruntime:std_type_info.obj
 0001:00019868       ?release@?$__crt_unique_heap_ptr@DU__crt_internal_free_policy@@@@QAEXXZ 1001a868 f i libvcruntime:std_type_info.obj
 0001:0001987c       ?release@?$__crt_unique_heap_ptr@XU__crt_internal_free_policy@@@@QAEXXZ 1001a87c f i libvcruntime:std_type_info.obj
 0001:00019890       ___std_type_info_compare   1001a890 f   libvcruntime:std_type_info.obj
 0001:000198db       ___std_type_info_destroy_list 1001a8db f   libvcruntime:std_type_info.obj
 0001:00019906       ___std_type_info_hash      1001a906 f   libvcruntime:std_type_info.obj
 0001:00019935       ___std_type_info_name      1001a935 f   libvcruntime:std_type_info.obj
 0001:00019a28       ___vcrt_initialize         1001aa28 f   libvcruntime:initialization.obj
 0001:00019a5b       ___vcrt_thread_attach      1001aa5b f   libvcruntime:initialization.obj
 0001:00019a68       ___vcrt_thread_detach      1001aa68 f   libvcruntime:initialization.obj
 0001:00019a75       ___vcrt_uninitialize       1001aa75 f   libvcruntime:initialization.obj
 0001:00019a9b       ___vcrt_uninitialize_critical 1001aa9b f   libvcruntime:initialization.obj
 0001:00019ab0       __local_unwind4            1001aab0 f   libvcruntime:exsup4.obj
 0001:00019b88       __seh_longjmp_unwind4@4    1001ab88 f   libvcruntime:exsup4.obj
 0001:00019bb0       @_EH4_CallFilterFunc@8     1001abb0 f   libvcruntime:exsup4.obj
 0001:00019bc8       @_EH4_TransferToHandler@8  1001abc8 f   libvcruntime:exsup4.obj
 0001:00019be4       @_EH4_GlobalUnwind2@8      1001abe4 f   libvcruntime:exsup4.obj
 0001:00019c00       @_EH4_LocalUnwind@16       1001ac00 f   libvcruntime:exsup4.obj
 0001:00019c7d       ___except_validate_context_record 1001ac7d f   libvcruntime:jbcxrval.obj
 0001:00019cb9       ___except_validate_jump_buffer 1001acb9 f   libvcruntime:jbcxrval.obj
 0001:00019cf1       ___except_validate_jump_buffer_common 1001acf1 f i libvcruntime:jbcxrval.obj
 0001:00019d38       ??0Block@_HeapManager@@QAE@XZ 1001ad38 f i libvcruntime:undname.obj
 0001:00019d3e       ??0DName@@QAE@AAPBDD@Z     1001ad3e f   libvcruntime:undname.obj
 0001:00019e1c       ??0DName@@QAE@ABV0@@Z      1001ae1c f i libvcruntime:undname.obj
 0001:00019e37       ??0DName@@QAE@D@Z          1001ae37 f   libvcruntime:undname.obj
 0001:00019e65       ??0DName@@QAE@PAV0@@Z      1001ae65 f   libvcruntime:undname.obj
 0001:00019ebf       ??0DName@@QAE@PBD@Z        1001aebf f   libvcruntime:undname.obj
 0001:00019efe       ??0DName@@QAE@W4DNameStatus@@@Z 1001aefe f   libvcruntime:undname.obj
 0001:00019f4e       ??0DName@@QAE@XZ           1001af4e f i libvcruntime:undname.obj
 0001:00019f5a       ??0DName@@QAE@_J@Z         1001af5a f   libvcruntime:undname.obj
 0001:0001a009       ??0DName@@QAE@_K@Z         1001b009 f   libvcruntime:undname.obj
 0001:0001a088       ??0DNameNode@@IAE@XZ       1001b088 f i libvcruntime:undname.obj
 0001:0001a093       ??0Replicator@@QAE@XZ      1001b093 f i libvcruntime:undname.obj
 0001:0001a0a4       ??0UnDecorator@@QAE@PBDP6APADJ@ZK@Z 1001b0a4 f i libvcruntime:undname.obj
 0001:0001a103       ??0charNode@@QAE@D@Z       1001b103 f i libvcruntime:undname.obj
 0001:0001a11d       ??0pDNameNode@@QAE@PAVDName@@@Z 1001b11d f   libvcruntime:undname.obj
 0001:0001a14f       ??0pairNode@@QAE@PBVDNameNode@@0@Z 1001b14f f i libvcruntime:undname.obj
 0001:0001a175       ??0pcharNode@@QAE@PBDH@Z   1001b175 f   libvcruntime:undname.obj
 0001:0001a1eb       ??2@YAPAXIAAV_HeapManager@@H@Z 1001b1eb f i libvcruntime:undname.obj
 0001:0001a205       ??4DName@@QAEAAV0@ABV0@@Z  1001b205 f   libvcruntime:undname.obj
 0001:0001a220       ??4DName@@QAEAAV0@D@Z      1001b220 f i libvcruntime:undname.obj
 0001:0001a24e       ??4DName@@QAEAAV0@PAV0@@Z  1001b24e f   libvcruntime:undname.obj
 0001:0001a2a0       ??4DName@@QAEAAV0@PBD@Z    1001b2a0 f   libvcruntime:undname.obj
 0001:0001a2d5       ??4DName@@QAEAAV0@W4DNameStatus@@@Z 1001b2d5 f   libvcruntime:undname.obj
 0001:0001a313       ??AReplicator@@QBE?AVDName@@H@Z 1001b313 f   libvcruntime:undname.obj
 0001:0001a36a       ??H@YA?AVDName@@DABV0@@Z   1001b36a f i libvcruntime:undname.obj
 0001:0001a394       ??H@YA?AVDName@@PBDABV0@@Z 1001b394 f i libvcruntime:undname.obj
 0001:0001a3be       ??H@YA?AVDName@@W4DNameStatus@@ABV0@@Z 1001b3be f i libvcruntime:undname.obj
 0001:0001a3e8       ??HDName@@QBE?AV0@ABV0@@Z  1001b3e8 f   libvcruntime:undname.obj
 0001:0001a412       ??HDName@@QBE?AV0@D@Z      1001b412 f   libvcruntime:undname.obj
 0001:0001a43c       ??HDName@@QBE?AV0@PAV0@@Z  1001b43c f   libvcruntime:undname.obj
 0001:0001a466       ??HDName@@QBE?AV0@PBD@Z    1001b466 f   libvcruntime:undname.obj
 0001:0001a490       ??HDName@@QBE?AV0@W4DNameStatus@@@Z 1001b490 f   libvcruntime:undname.obj
 0001:0001a4ba       ??YDName@@QAEAAV0@ABV0@@Z  1001b4ba f   libvcruntime:undname.obj
 0001:0001a50b       ??YDName@@QAEAAV0@D@Z      1001b50b f   libvcruntime:undname.obj
 0001:0001a56f       ??YDName@@QAEAAV0@PAV0@@Z  1001b56f f   libvcruntime:undname.obj
 0001:0001a5ed       ??YDName@@QAEAAV0@PBD@Z    1001b5ed f   libvcruntime:undname.obj
 0001:0001a666       ??YDName@@QAEAAV0@W4DNameStatus@@@Z 1001b666 f   libvcruntime:undname.obj
 0001:0001a6b6       ??YReplicator@@QAEAAV0@ABVDName@@@Z 1001b6b6 f   libvcruntime:undname.obj
 0001:0001a712       ??_5DName@@QAEAAV0@ABV0@@Z 1001b712 f   libvcruntime:undname.obj
 0001:0001a735       ?Constructor@_HeapManager@@QAEXP6APAXI@ZP6AXPAX@Z@Z 1001b735 f i libvcruntime:undname.obj
 0001:0001a759       ?Destructor@_HeapManager@@QAEXXZ 1001b759 f i libvcruntime:undname.obj
 0001:0001a79f       ?UScore@UnDecorator@@SAPBDW4Tokens@@@Z 1001b79f f   libvcruntime:undname.obj
 0001:0001a7c5       ?append@DName@@AAEXPBVDNameNode@@@Z 1001b7c5 f   libvcruntime:undname.obj
 0001:0001a81c       ?composeDeclaration@UnDecorator@@CA?AVDName@@ABV2@@Z 1001b81c f i libvcruntime:undname.obj
 0001:0001b830       ?doAccessSpecifiers@UnDecorator@@SAHXZ 1001c830 f i libvcruntime:undname.obj
 0001:0001b841       ?doAllocationLanguage@UnDecorator@@SAHXZ 1001c841 f i libvcruntime:undname.obj
 0001:0001b852       ?doAllocationModel@UnDecorator@@SAHXZ 1001c852 f i libvcruntime:undname.obj
 0001:0001b863       ?doEcsu@UnDecorator@@SAHXZ 1001c863 f i libvcruntime:undname.obj
 0001:0001b874       ?doEllipsis@UnDecorator@@SAHXZ 1001c874 f i libvcruntime:undname.obj
 0001:0001b885       ?doFunctionReturns@UnDecorator@@SAHXZ 1001c885 f i libvcruntime:undname.obj
 0001:0001b896       ?doMSKeywords@UnDecorator@@SAHXZ 1001c896 f i libvcruntime:undname.obj
 0001:0001b8a6       ?doMemberTypes@UnDecorator@@SAHXZ 1001c8a6 f i libvcruntime:undname.obj
 0001:0001b8b7       ?doNameOnly@UnDecorator@@SAHXZ 1001c8b7 f i libvcruntime:undname.obj
 0001:0001b8c4       ?doNoIdentCharCheck@UnDecorator@@SAHXZ 1001c8c4 f i libvcruntime:undname.obj
 0001:0001b8d1       ?doPchar@DName@@AAEXPBDH@Z 1001c8d1 f   libvcruntime:undname.obj
 0001:0001b978       ?doPtr64@UnDecorator@@SAHXZ 1001c978 f i libvcruntime:undname.obj
 0001:0001b989       ?doRestrictionSpec@UnDecorator@@SAHXZ 1001c989 f i libvcruntime:undname.obj
 0001:0001b99a       ?doThisTypes@UnDecorator@@SAHXZ 1001c99a f i libvcruntime:undname.obj
 0001:0001b9b0       ?doThrowTypes@UnDecorator@@SAHXZ 1001c9b0 f i libvcruntime:undname.obj
 0001:0001b9c1       ?doTypeOnly@UnDecorator@@SAHXZ 1001c9c1 f i libvcruntime:undname.obj
 0001:0001b9ce       ?doUnderScore@UnDecorator@@SAHXZ 1001c9ce f i libvcruntime:undname.obj
 0001:0001b9db       ?getArgumentList@UnDecorator@@CA?AVDName@@XZ 1001c9db f   libvcruntime:undname.obj
 0001:0001bb0e       ?getArgumentTypes@UnDecorator@@CA?AVDName@@XZ 1001cb0e f   libvcruntime:undname.obj
 0001:0001bc0a       ?getArrayType@UnDecorator@@CA?AVDName@@ABV2@@Z 1001cc0a f i libvcruntime:undname.obj
 0001:0001be27       ?getBasedType@UnDecorator@@CA?AVDName@@XZ 1001ce27 f   libvcruntime:undname.obj
 0001:0001bee5       ?getBasicDataType@UnDecorator@@CA?AVDName@@ABV2@@Z 1001cee5 f   libvcruntime:undname.obj
 0001:0001c3bb       ?getCHPEName@UnDecorator@@QAEPADPADH@Z 1001d3bb f i libvcruntime:undname.obj
 0001:0001c4d1       ?getCallIndex@UnDecorator@@CA?AVDName@@XZ 1001d4d1 f i libvcruntime:undname.obj
 0001:0001c4ea       ?getCallingConvention@UnDecorator@@CA?AVDName@@XZ 1001d4ea f   libvcruntime:undname.obj
 0001:0001c5f1       ?getDataIndirectType@UnDecorator@@CA?AVDName@@ABV2@PBD0H@Z 1001d5f1 f   libvcruntime:undname.obj
 0001:0001cd55       ?getDataIndirectType@UnDecorator@@CA?AVDName@@XZ 1001dd55 f i libvcruntime:undname.obj
 0001:0001cd93       ?getDataType@UnDecorator@@CA?AVDName@@PAV2@@Z 1001dd93 f   libvcruntime:undname.obj
 0001:0001ce89       ?getDecoratedName@UnDecorator@@CA?AVDName@@XZ 1001de89 f   libvcruntime:undname.obj
 0001:0001d15b       ?getDimension@UnDecorator@@CA?AVDName@@_N@Z 1001e15b f   libvcruntime:undname.obj
 0001:0001d2c1       ?getDispatchTarget@UnDecorator@@CA?AVDName@@XZ 1001e2c1 f   libvcruntime:undname.obj
 0001:0001d32a       ?getDisplacement@UnDecorator@@CA?AVDName@@XZ 1001e32a f i libvcruntime:undname.obj
 0001:0001d343       ?getECSUDataType@UnDecorator@@CA?AVDName@@XZ 1001e343 f   libvcruntime:undname.obj
 0001:0001d4a1       ?getECSUName@UnDecorator@@CA?AVDName@@XZ 1001e4a1 f i libvcruntime:undname.obj
 0001:0001d4b6       ?getEnumType@UnDecorator@@CA?AVDName@@XZ 1001e4b6 f i libvcruntime:undname.obj
 0001:0001d5e2       ?getExtendedDataIndirectType@UnDecorator@@CA?AVDName@@AAPBDAA_NH@Z 1001e5e2 f   libvcruntime:undname.obj
 0001:0001d806       ?getExternalDataType@UnDecorator@@CA?AVDName@@ABV2@@Z 1001e806 f i libvcruntime:undname.obj
 0001:0001d886       ?getFunctionIndirectType@UnDecorator@@CA?AVDName@@ABV2@@Z 1001e886 f   libvcruntime:undname.obj
 0001:0001dd54       ?getGuardNumber@UnDecorator@@CA?AVDName@@XZ 1001ed54 f i libvcruntime:undname.obj
 0001:0001dd6d       ?getLastChar@DName@@QBEDXZ 1001ed6d f i libvcruntime:undname.obj
 0001:0001dd95       ?getLastChar@DNameStatusNode@@UBEDXZ 1001ed95 f i libvcruntime:undname.obj
 0001:0001dda4       ?getLastChar@charNode@@UBEDXZ 1001eda4 f i libvcruntime:undname.obj
 0001:0001dda8       ?getLastChar@pDNameNode@@UBEDXZ 1001eda8 f i libvcruntime:undname.obj
 0001:0001ddb9       ?getLastChar@pairNode@@UBEDXZ 1001edb9 f i libvcruntime:undname.obj
 0001:0001ddfb       ?getLastChar@pcharNode@@UBEDXZ 1001edfb f i libvcruntime:undname.obj
 0001:0001de11       ?getLexicalFrame@UnDecorator@@CA?AVDName@@XZ 1001ee11 f i libvcruntime:undname.obj
 0001:0001de5f       ?getMemory@_HeapManager@@QAEPAXIH@Z 1001ee5f f   libvcruntime:undname.obj
 0001:0001df07       ?getNoexcept@UnDecorator@@CA?AVDName@@XZ 1001ef07 f   libvcruntime:undname.obj
 0001:0001df5d       ?getNumberOfDimensions@UnDecorator@@CAHXZ 1001ef5d f   libvcruntime:undname.obj
 0001:0001dfd6       ?getOperatorName@UnDecorator@@CA?AVDName@@_NPA_N@Z 1001efd6 f i libvcruntime:undname.obj
 0001:0001e7c4       ?getPointerType@UnDecorator@@CA?AVDName@@ABV2@0@Z 1001f7c4 f i libvcruntime:undname.obj
 0001:0001e7e9       ?getPointerTypeArray@UnDecorator@@CA?AVDName@@ABV2@0@Z 1001f7e9 f i libvcruntime:undname.obj
 0001:0001e80e       ?getPrimaryDataType@UnDecorator@@CA?AVDName@@ABV2@@Z 1001f80e f   libvcruntime:undname.obj
 0001:0001ea6b       ?getPtrRefDataType@UnDecorator@@CA?AVDName@@ABV2@H@Z 1001fa6b f   libvcruntime:undname.obj
 0001:0001ebde       ?getPtrRefType@UnDecorator@@CA?AVDName@@ABV2@0PBD@Z 1001fbde f   libvcruntime:undname.obj
 0001:0001ed16       ?getReferenceType@UnDecorator@@CA?AVDName@@ABV2@0PBD@Z 1001fd16 f i libvcruntime:undname.obj
 0001:0001ed39       ?getRestrictionSpec@UnDecorator@@CA?AVDName@@XZ 1001fd39 f   libvcruntime:undname.obj
 0001:0001ee70       ?getReturnType@UnDecorator@@CA?AVDName@@PAV2@@Z 1001fe70 f   libvcruntime:undname.obj
 0001:0001eeaa       ?getScope@UnDecorator@@CA?AVDName@@XZ 1001feaa f   libvcruntime:undname.obj
 0001:0001f323       ?getScopedName@UnDecorator@@CA?AVDName@@XZ 10020323 f   libvcruntime:undname.obj
 0001:0001f42c       ?getSignedDimension@UnDecorator@@CA?AVDName@@XZ 1002042c f   libvcruntime:undname.obj
 0001:0001f491       ?getStorageConvention@UnDecorator@@CA?AVDName@@XZ 10020491 f i libvcruntime:undname.obj
 0001:0001f4a6       ?getString@DName@@QBEPADPAD0@Z 100204a6 f i libvcruntime:undname.obj
 0001:0001f4de       ?getString@DName@@QBEPADPADH@Z 100204de f i libvcruntime:undname.obj
 0001:0001f549       ?getString@DNameStatusNode@@UBEPADPAD0@Z 10020549 f i libvcruntime:undname.obj
 0001:0001f579       ?getString@charNode@@UBEPADPAD0@Z 10020579 f i libvcruntime:undname.obj
 0001:0001f593       ?getString@pDNameNode@@UBEPADPAD0@Z 10020593 f i libvcruntime:undname.obj
 0001:0001f5af       ?getString@pairNode@@UBEPADPAD0@Z 100205af f i libvcruntime:undname.obj
 0001:0001f606       ?getString@pcharNode@@UBEPADPAD0@Z 10020606 f i libvcruntime:undname.obj
 0001:0001f627       ?getStringEncoding@UnDecorator@@CA?AVDName@@PBDH@Z 10020627 f   libvcruntime:undname.obj
 0001:0001f703       ?getStringHelper@@YAPADPADPBD1H@Z 10020703 f i libvcruntime:undname.obj
 0001:0001f747       ?getSymbolName@UnDecorator@@CA?AVDName@@XZ 10020747 f i libvcruntime:undname.obj
 0001:0001f7a1       ?getTemplateArgumentList@UnDecorator@@CA?AVDName@@XZ 100207a1 f   libvcruntime:undname.obj
 0001:0001fae5       ?getTemplateConstant@UnDecorator@@CA?AVDName@@XZ 10020ae5 f   libvcruntime:undname.obj
 0001:0001fee3       ?getTemplateName@UnDecorator@@CA?AVDName@@_N@Z 10020ee3 f   libvcruntime:undname.obj
 0001:0002009d       ?getThisType@UnDecorator@@CA?AVDName@@XZ 1002109d f i libvcruntime:undname.obj
 0001:000200dc       ?getThrowTypes@UnDecorator@@CA?AVDName@@XZ 100210dc f   libvcruntime:undname.obj
 0001:00020107       ?getTypeEncoding@UnDecorator@@CAHXZ 10021107 f i libvcruntime:undname.obj
 0001:000204f9       ?getUndecoratedName@UnDecorator@@QAEPADPADH@Z 100214f9 f i libvcruntime:undname.obj
 0001:000205ee       ?getVCallThunkType@UnDecorator@@CA?AVDName@@XZ 100215ee f i libvcruntime:undname.obj
 0001:00020646       ?getVbTableType@UnDecorator@@CA?AVDName@@ABV2@@Z 10021646 f i libvcruntime:undname.obj
 0001:00020660       ?getVdispMapType@UnDecorator@@CA?AVDName@@ABV2@@Z 10021660 f i libvcruntime:undname.obj
 0001:000206c9       ?getVfTableType@UnDecorator@@CA?AVDName@@ABV2@@Z 100216c9 f i libvcruntime:undname.obj
 0001:00020884       ?getZName@UnDecorator@@CA?AVDName@@_N0@Z 10021884 f   libvcruntime:undname.obj
 0001:00020b02       ?haveTemplateParameters@UnDecorator@@SAHXZ 10021b02 f i libvcruntime:undname.obj
 0001:00020b0f       ?isArray@DName@@QBEHXZ     10021b0f f i libvcruntime:undname.obj
 0001:00020b1b       ?isComArray@DName@@QBEHXZ  10021b1b f i libvcruntime:undname.obj
 0001:00020b27       ?isEmpty@DName@@QBEHXZ     10021b27 f i libvcruntime:undname.obj
 0001:00020b31       ?isFull@Replicator@@QBEHXZ 10021b31 f i libvcruntime:undname.obj
 0001:00020b3c       ?isNoTE@DName@@QBEHXZ      10021b3c f i libvcruntime:undname.obj
 0001:00020b48       ?isPinPtr@DName@@QBEHXZ    10021b48 f i libvcruntime:undname.obj
 0001:00020b54       ?isPtrRef@DName@@QBEHXZ    10021b54 f i libvcruntime:undname.obj
 0001:00020b60       ?isUDC@DName@@QBEHXZ       10021b60 f i libvcruntime:undname.obj
 0001:00020b75       ?isUDTThunk@DName@@QBEHXZ  10021b75 f i libvcruntime:undname.obj
 0001:00020b8a       ?isVCallThunk@DName@@QBEHXZ 10021b8a f i libvcruntime:undname.obj
 0001:00020b96       ?isValid@DName@@QBEHXZ     10021b96 f i libvcruntime:undname.obj
 0001:00020ba2       ?length@DName@@QBEHXZ      10021ba2 f i libvcruntime:undname.obj
 0001:00020bc8       ?length@DNameStatusNode@@UBEHXZ 10021bc8 f i libvcruntime:undname.obj
 0001:00020bcc       ?length@charNode@@UBEHXZ   10021bcc f i libvcruntime:undname.obj
 0001:00020bd0       ?length@pDNameNode@@UBEHXZ 10021bd0 f i libvcruntime:undname.obj
 0001:00020be1       ?length@pairNode@@UBEHXZ   10021be1 f i libvcruntime:undname.obj
 0001:00020c38       ?length@pcharNode@@UBEHXZ  10021c38 f i libvcruntime:undname.obj
 0001:00020c3c       ?make@DNameStatusNode@@SAPBV1@W4DNameStatus@@@Z 10021c3c f i libvcruntime:undname.obj
 0001:00020c5f       ?parseDecoratedName@UnDecorator@@CA?AVDName@@XZ 10021c5f f   libvcruntime:undname.obj
 0001:00020d88       ?setIsArray@DName@@QAEXXZ  10021d88 f i libvcruntime:undname.obj
 0001:00020d92       ?setIsComArray@DName@@QAEXXZ 10021d92 f i libvcruntime:undname.obj
 0001:00020d9c       ?setIsNoTE@DName@@QAEXXZ   10021d9c f i libvcruntime:undname.obj
 0001:00020da6       ?setIsPinPtr@DName@@QAEXXZ 10021da6 f i libvcruntime:undname.obj
 0001:00020db0       ?setIsUDC@DName@@QAEXXZ    10021db0 f i libvcruntime:undname.obj
 0001:00020dc0       ?setIsVCallThunk@DName@@QAEXXZ 10021dc0 f i libvcruntime:undname.obj
 0001:00020dca       ?setPtrRef@DName@@QAEAAV1@XZ 10021dca f i libvcruntime:undname.obj
 0001:00020dd6       ?status@DName@@QBE?AW4DNameStatus@@XZ 10021dd6 f i libvcruntime:undname.obj
 0001:00020e5b       ___unDName                 10021e5b f   libvcruntime:undname.obj
 0001:00020e86       ___unDNameEx               10021e86 f   libvcruntime:undname.obj
 0001:00020f4c       __vsprintf_s_l             10021f4c f i libvcruntime:undname.obj
 0001:00020f84       _sprintf_s                 10021f84 f i libvcruntime:undname.obj
 0001:00020fa7       _unDNameGenerateCHPE       10021fa7 f   libvcruntime:undname.obj
 0001:0002101a       ??$?RU__vcrt_ptd@@@__crt_internal_free_policy@@QBEXQBU__vcrt_ptd@@@Z 1002201a f i libvcruntime:per_thread_data.obj
 0001:0002102e       ??0?$__crt_unique_heap_ptr@U__vcrt_ptd@@U__crt_internal_free_policy@@@@QAE@QAU__vcrt_ptd@@@Z 1002202e f i libvcruntime:per_thread_data.obj
 0001:00021051       ??1?$__crt_unique_heap_ptr@U__vcrt_ptd@@U__crt_internal_free_policy@@@@QAE@XZ 10022051 f i libvcruntime:per_thread_data.obj
 0001:00021070       ??B?$__crt_unique_heap_ptr@U__vcrt_ptd@@U__crt_internal_free_policy@@@@QBE_NXZ 10022070 f i libvcruntime:per_thread_data.obj
 0001:00021077       ?detach@?$__crt_unique_heap_ptr@U__vcrt_ptd@@U__crt_internal_free_policy@@@@QAEPAU__vcrt_ptd@@XZ 10022077 f i libvcruntime:per_thread_data.obj
 0001:0002107d       ?get@?$__crt_unique_heap_ptr@U__vcrt_ptd@@U__crt_internal_free_policy@@@@QBEPAU__vcrt_ptd@@XZ 1002207d f i libvcruntime:per_thread_data.obj
 0001:00021080       ?is_valid@?$__crt_unique_heap_ptr@U__vcrt_ptd@@U__crt_internal_free_policy@@@@QBE_NXZ 10022080 f i libvcruntime:per_thread_data.obj
 0001:00021087       ?release@?$__crt_unique_heap_ptr@U__vcrt_ptd@@U__crt_internal_free_policy@@@@QAEXXZ 10022087 f i libvcruntime:per_thread_data.obj
 0001:000210bb       ___vcrt_freefls@4          100220bb f   libvcruntime:per_thread_data.obj
 0001:000210de       ___vcrt_freeptd            100220de f   libvcruntime:per_thread_data.obj
 0001:00021121       ___vcrt_getptd             10022121 f   libvcruntime:per_thread_data.obj
 0001:00021132       ___vcrt_getptd_noexit      10022132 f   libvcruntime:per_thread_data.obj
 0001:000211e8       ___vcrt_getptd_noinit      100221e8 f   libvcruntime:per_thread_data.obj
 0001:0002122c       ___vcrt_initialize_ptd     1002222c f   libvcruntime:per_thread_data.obj
 0001:0002126b       ___vcrt_uninitialize_ptd   1002226b f   libvcruntime:per_thread_data.obj
 0001:0002128c       ___vcrt_initialize_locks   1002228c f   libvcruntime:locks.obj
 0001:000212d7       ___vcrt_lock               100222d7 f   libvcruntime:locks.obj
 0001:000212f1       ___vcrt_uninitialize_locks 100222f1 f   libvcruntime:locks.obj
 0001:0002132b       ___vcrt_unlock             1002232b f   libvcruntime:locks.obj
 0001:00021345       ??$?BX@__crt_fast_encoded_nullptr_t@@QBEPAXXZ 10022345 f i libvcruntime:winapi_downlevel.obj
 0001:0002134b       ??$__crt_fast_decode_pointer@PAX@@YAPAXQAX@Z 1002234b f i libvcruntime:winapi_downlevel.obj
 0001:00021364       ??$__crt_fast_encode_pointer@PAX@@YAPAXQAX@Z 10022364 f i libvcruntime:winapi_downlevel.obj
 0001:00021388       ??$__crt_interlocked_exchange_pointer@UHINSTANCE__@@PAU1@@@YAPAUHINSTANCE__@@PDSAU0@QAU0@@Z 10022388 f i libvcruntime:winapi_downlevel.obj
 0001:00021398       ??$__crt_interlocked_exchange_pointer@UHINSTANCE__@@PAX@@YAPAUHINSTANCE__@@PDSAU0@QAX@Z 10022398 f i libvcruntime:winapi_downlevel.obj
 0001:000213a8       ??$__crt_interlocked_exchange_pointer@XPAX@@YAPAXPDSAXQAX@Z 100223a8 f i libvcruntime:winapi_downlevel.obj
 0001:000213b8       ??$__crt_interlocked_read_pointer@UHINSTANCE__@@@@YAPAUHINSTANCE__@@PDSAU0@@Z 100223b8 f i libvcruntime:winapi_downlevel.obj
 0001:000213c4       ??$__crt_interlocked_read_pointer@X@@YAPAXPDSAX@Z 100223c4 f i libvcruntime:winapi_downlevel.obj
 0001:000213d0       ?__crt_fast_encode_pointer@@YA?AU__crt_fast_encoded_nullptr_t@@$$T@Z 100223d0 f i libvcruntime:winapi_downlevel.obj
 0001:00021703       ___vcrt_FlsAlloc           10022703 f   libvcruntime:winapi_downlevel.obj
 0001:0002174c       ___vcrt_FlsFree            1002274c f   libvcruntime:winapi_downlevel.obj
 0001:00021795       ___vcrt_FlsGetValue        10022795 f   libvcruntime:winapi_downlevel.obj
 0001:000217de       ___vcrt_FlsSetValue        100227de f   libvcruntime:winapi_downlevel.obj
 0001:0002182b       ___vcrt_InitializeCriticalSectionEx 1002282b f   libvcruntime:winapi_downlevel.obj
 0001:00021883       ___vcrt_initialize_winapi_thunks 10022883 f   libvcruntime:winapi_downlevel.obj
 0001:000218b6       ___vcrt_uninitialize_winapi_thunks 100228b6 f   libvcruntime:winapi_downlevel.obj
 0001:000218f4       ??$?B$$A6AXXZ@__crt_fast_encoded_nullptr_t@@QBEP6AXXZXZ 100228f4 f i libvcruntime:purevirt_data.obj
 0001:000218fa       ??$__crt_fast_encode_pointer@P6AXXZ@@YAP6AXXZQ6AXXZ@Z 100228fa f i libvcruntime:purevirt_data.obj
 0001:0002191e       ___vcrt_initialize_pure_virtual_call_handler 1002291e f   libvcruntime:purevirt_data.obj
 0001:00021930       __global_unwind2           10022930 f   libvcruntime:exsup.obj
 0001:00021996       __local_unwind2            10022996 f   libvcruntime:exsup.obj
 0001:00021a1a       __abnormal_termination     10022a1a f   libvcruntime:exsup.obj
 0001:00021a40       __NLG_Notify1              10022a40 f   libvcruntime:exsup.obj
 0001:00021a4c       __NLG_Notify               10022a4c f   libvcruntime:exsup.obj
 0001:00021a63       __NLG_Dispatch             10022a63     libvcruntime:exsup.obj
 0001:00021a63       __NLG_Dispatch2            10022a63     libvcruntime:exsup.obj
 0001:00021a6b       __NLG_Call                 10022a6b f   libvcruntime:exsup.obj
 0001:00021a6d       __NLG_Return2              10022a6d     libvcruntime:exsup.obj
 0001:00021abd       ??$__crt_fast_decode_pointer@P6AXXZ@@YAP6AXXZQ6AXXZ@Z 10022abd f i libvcruntime:purevirt.obj
 0001:00021ad6       ??$__crt_interlocked_exchange_pointer@$$A6AXXZP6AXXZ@@YAP6AXXZPDS6AXXZQ6AXXZ@Z 10022ad6 f i libvcruntime:purevirt.obj
 0001:00021ae6       ??$__crt_interlocked_read_pointer@$$A6AXXZ@@YAP6AXXZPDS6AXXZ@Z 10022ae6 f i libvcruntime:purevirt.obj
 0001:00021af2       __get_purecall_handler     10022af2 f   libvcruntime:purevirt.obj
 0001:00021b0c       __purecall                 10022b0c f   libvcruntime:purevirt.obj
 0001:00021b2f       __set_purecall_handler     10022b2f f   libvcruntime:purevirt.obj
 0001:00021b5d       ??$?0AAViterator@TryBlockMap@__FrameHandler3@@AAV012@$0A@@?$pair@Viterator@TryBlockMap@__FrameHandler3@@V123@@std@@QAE@AAViterator@TryBlockMap@__FrameHandler3@@0@Z 10022b5d f i libvcruntime:trnsctrl.obj
 0001:00021b8a       ??$forward@AAViterator@TryBlockMap@__FrameHandler3@@@std@@YAAAViterator@TryBlockMap@__FrameHandler3@@AAV123@@Z 10022b8a f i libvcruntime:trnsctrl.obj
 0001:00021b94       ??0iterator@TryBlockMap@__FrameHandler3@@QAE@AAV12@I@Z 10022b94 f i libvcruntime:trnsctrl.obj
 0001:00021bad       ?GetRangeOfTrysToCheck@__FrameHandler3@@SA?AU?$pair@Viterator@TryBlockMap@__FrameHandler3@@V123@@std@@AAVTryBlockMap@1@HH@Z 10022bad f   libvcruntime:trnsctrl.obj
 0001:00021c4f       ?_CallCatchBlock2@@YAPAXPAUEHRegistrationNode@@PBU_s_FuncInfo@@PAXHK@Z 10022c4f f   libvcruntime:trnsctrl.obj
 0001:00021cc4       ?_CallSETranslator@@YAHPAUEHExceptionRecord@@PAUEHRegistrationNode@@PAX2PBU_s_FuncInfo@@H1@Z 10022cc4 f   libvcruntime:trnsctrl.obj
 0001:00021dd5       ?_JumpToContinuation@@YGXPAXPAUEHRegistrationNode@@@Z 10022dd5 f   libvcruntime:trnsctrl.obj
 0001:00021e11       ?_UnwindNestedFrames@@YGXPAUEHRegistrationNode@@PAUEHExceptionRecord@@@Z 10022e11 f   libvcruntime:trnsctrl.obj
 0001:00021e78       ?getFuncInfo@TryBlockMap@__FrameHandler3@@QAEPBU_s_FuncInfo@@XZ 10022e78 f i libvcruntime:trnsctrl.obj
 0001:00021e7b       __CatchGuardHandler        10022e7b f   libvcruntime:trnsctrl.obj
 0001:00021eb8       __CreateFrameInfo          10022eb8 f   libvcruntime:trnsctrl.obj
 0001:00021ee5       __FindAndUnlinkFrame       10022ee5 f   libvcruntime:trnsctrl.obj
 0001:00021f3b       __TranslatorGuardHandler   10022f3b f   libvcruntime:trnsctrl.obj
 0001:00021fff       ___CxxFrameHandler         10022fff f   libvcruntime:trnsctrl.obj
 0001:00022042       ___CxxFrameHandler2        10023042 f   libvcruntime:trnsctrl.obj
 0001:00022085       ___CxxFrameHandler3        10023085 f   libvcruntime:trnsctrl.obj
 0001:000220c8       ___CxxLongjmpUnwind@4      100230c8 f   libvcruntime:trnsctrl.obj
 0001:000229a9       ??$TypeMatchHelper@V__FrameHandler3@@@@YAHPBU_s_HandlerType@@PBU_s_CatchableType@@PBU_s_ThrowInfo@@@Z 100239a9 f i libvcruntime:frame.obj
 0001:00022a5a       ??$__InternalCxxFrameHandler@V__FrameHandler3@@@@YA?AW4_EXCEPTION_DISPOSITION@@PAUEHExceptionRecord@@PAUEHRegistrationNode@@PAU_CONTEXT@@PAXPBU_s_FuncInfo@@H1E@Z 10023a5a f i libvcruntime:frame.obj
 0001:00022b9c       ??0HandlerMap@__FrameHandler3@@QAE@PBU_s_TryBlockMapEntry@@PAX@Z 10023b9c f i libvcruntime:frame.obj
 0001:00022bb8       ??0TryBlockMap@__FrameHandler3@@QAE@PBU_s_FuncInfo@@PAX@Z 10023bb8 f i libvcruntime:frame.obj
 0001:00022bd1       ??0bad_exception@std@@QAE@ABV01@@Z 10023bd1 f i libvcruntime:frame.obj
 0001:00022bf2       ??0bad_exception@std@@QAE@XZ 10023bf2 f i libvcruntime:frame.obj
 0001:00022c10       ??0exception@std@@QAE@ABV01@@Z 10023c10 f i libvcruntime:frame.obj
 0001:00022c47       ??0exception@std@@QAE@QBDH@Z 10023c47 f i libvcruntime:frame.obj
 0001:00022c6b       ??0iterator@HandlerMap@__FrameHandler3@@QAE@AAV12@I@Z 10023c6b f i libvcruntime:frame.obj
 0001:00022c84       ??1bad_exception@std@@UAE@XZ 10023c84 f i libvcruntime:frame.obj
 0001:00022c99       ??1exception@std@@UAE@XZ   10023c99 f i libvcruntime:frame.obj
 0001:00022cae       ??8iterator@HandlerMap@__FrameHandler3@@QBE_NABV012@@Z 10023cae f i libvcruntime:frame.obj
 0001:00022cc5       ??8type_info@@QBE_NABV0@@Z 10023cc5 f i libvcruntime:frame.obj
 0001:00022ceb       ??9iterator@HandlerMap@__FrameHandler3@@QBE_NABV012@@Z 10023ceb f i libvcruntime:frame.obj
 0001:00022d02       ??Diterator@HandlerMap@__FrameHandler3@@QAEPBU_s_HandlerType@@XZ 10023d02 f i libvcruntime:frame.obj
 0001:00022d11       ??Diterator@TryBlockMap@__FrameHandler3@@QAEPBU_s_TryBlockMapEntry@@XZ 10023d11 f i libvcruntime:frame.obj
 0001:00022d20       ??Eiterator@HandlerMap@__FrameHandler3@@QAEAAV012@XZ 10023d20 f i libvcruntime:frame.obj
 0001:00022d26       ??Eiterator@TryBlockMap@__FrameHandler3@@QAEAAV012@XZ 10023d26 f i libvcruntime:frame.obj
 0001:00022d2c       ??Miterator@TryBlockMap@__FrameHandler3@@QBE_NABV012@@Z 10023d2c f i libvcruntime:frame.obj
 0001:00022d43       ??_Ebad_exception@std@@UAEPAXI@Z 10023d43 f i libvcruntime:frame.obj
 0001:00022d43       ??_Gbad_exception@std@@UAEPAXI@Z 10023d43 f i libvcruntime:frame.obj
 0001:00022d7b       ??_Eexception@std@@UAEPAXI@Z 10023d7b f i libvcruntime:frame.obj
 0001:00022d7b       ??_Gexception@std@@UAEPAXI@Z 10023d7b f i libvcruntime:frame.obj
 0001:00022db3       ?BuildCatchObject@__FrameHandler3@@SAXPAUEHExceptionRecord@@PAXPBU_s_HandlerType@@PBU_s_CatchableType@@@Z 10023db3 f   libvcruntime:frame.obj
 0001:00022db8       ?BuildCatchObjectHelper@__FrameHandler3@@SAHPAUEHExceptionRecord@@PAXPBU_s_HandlerType@@PBU_s_CatchableType@@@Z 10023db8 f   libvcruntime:frame.obj
 0001:0002309c       ?FrameUnwindToEmptyState@__FrameHandler3@@SAXPAUEHRegistrationNode@@PAXPBU_s_FuncInfo@@@Z 1002409c f   libvcruntime:frame.obj
 0001:000230ba       ?FrameUnwindToState@__FrameHandler3@@SAXPAUEHRegistrationNode@@PAXPBU_s_FuncInfo@@H@Z 100240ba f   libvcruntime:frame.obj
 0001:000231dc       ?GetMaxState@__FrameHandler3@@SAHPAXPBU_s_FuncInfo@@@Z 100241dc f i libvcruntime:frame.obj
 0001:000232f0       ?TypeMatch@__FrameHandler3@@SAHPBU_s_HandlerType@@PBU_s_CatchableType@@PBU_s_ThrowInfo@@@Z 100242f0 f   libvcruntime:frame.obj
 0001:000232fb       ?_CallMemberFunction1@@YGXQAX00@Z 100242fb f i libvcruntime:frame.obj
 0001:0002330f       ?_CallMemberFunction2@@YGXQAX00H@Z 1002430f f i libvcruntime:frame.obj
 0001:00023326       ?_ValidateExecute@@YA_NP6GHXZ@Z 10024326 f i libvcruntime:frame.obj
 0001:00023335       ?_ValidateRead@@YA_NPBXI@Z 10024335 f i libvcruntime:frame.obj
 0001:00023344       ?_ValidateWrite@@YA_NPAXI@Z 10024344 f i libvcruntime:frame.obj
 0001:00023353       ?begin@HandlerMap@__FrameHandler3@@QAE?AViterator@12@XZ 10024353 f i libvcruntime:frame.obj
 0001:00023367       ?end@HandlerMap@__FrameHandler3@@QAE?AViterator@12@XZ 10024367 f i libvcruntime:frame.obj
 0001:0002337c       ?getESTypes@__FrameHandler3@@SAPBU_s_ESTypeList@@PBU_s_FuncInfo@@@Z 1002437c f i libvcruntime:frame.obj
 0001:00023389       ?getLastEntry@HandlerMap@__FrameHandler3@@QAEPBU_s_HandlerType@@XZ 10024389 f i libvcruntime:frame.obj
 0001:0002339a       ?getMagicNum@__FrameHandler3@@SAIPBU_s_FuncInfo@@@Z 1002439a f i libvcruntime:frame.obj
 0001:000233ac       ?getNumTryBlocks@TryBlockMap@__FrameHandler3@@QAEIXZ 100243ac f i libvcruntime:frame.obj
 0001:000233b2       ?isEHs@__FrameHandler3@@SA_NPBU_s_FuncInfo@@@Z 100243b2 f i libvcruntime:frame.obj
 0001:000233c2       ?isNoExcept@__FrameHandler3@@SA_NPBU_s_FuncInfo@@@Z 100243c2 f i libvcruntime:frame.obj
 0001:000233d6       ?what@exception@std@@UBEPBDXZ 100243d6 f i libvcruntime:frame.obj
 0001:000233e6       ___BuildCatchObject        100243e6 f   libvcruntime:frame.obj
 0001:000233eb       ___BuildCatchObjectHelper  100243eb f   libvcruntime:frame.obj
 0001:000233f6       ___TypeMatch               100243f6 f   libvcruntime:frame.obj
 0001:00023401       ___vcrt_EncodePointer      10024401 f i libvcruntime:frame.obj
 0001:00023420       __CallSettingFrame@12      10024420 f   libvcruntime:lowhelpr.obj
 0001:00023447       __NLG_Return               10024447     libvcruntime:lowhelpr.obj
 0001:00023498       __get_unexpected           10024498 f   libvcruntime:unexpected.obj
 0001:000234ae       _set_unexpected            100244ae f   libvcruntime:unexpected.obj
 0001:000234d3       _unexpected                100244d3 f   libvcruntime:unexpected.obj
 0001:000234f7       ?GetCurrentState@__FrameHandler3@@SAHPAUEHRegistrationNode@@PAXPBU_s_FuncInfo@@@Z 100244f7 f   libvcruntime:ehstate.obj
 0001:0002351b       ?SetState@__FrameHandler3@@SAXPAUEHRegistrationNode@@PBU_s_FuncInfo@@H@Z 1002451b f   libvcruntime:ehstate.obj
 0001:0002352c       ___DestructExceptionObject 1002452c f   libvcruntime:ehhelpers.obj
 0001:000235f4       ?_CallMemberFunction0@@YGXQAX0@Z 100245f4 f i libvcruntime:ehhelpers.obj
 0001:00023604       ?raw_name@type_info@@QBEPBDXZ 10024604 f i libvcruntime:ehhelpers.obj
 0001:00023608       __IsExceptionObjectToBeDestroyed 10024608 f   libvcruntime:ehhelpers.obj
 0001:00023637       __SetWinRTOutOfMemoryExceptionCallback 10024637 f   libvcruntime:ehhelpers.obj
 0001:00023647       ___AdjustPointer           10024647 f   libvcruntime:ehhelpers.obj
 0001:00023675       ___FrameUnwindFilter       10024675 f   libvcruntime:ehhelpers.obj
 0001:000236cb       ___GetPlatformExceptionInfo 100246cb f   libvcruntime:ehhelpers.obj
 0001:0002372a       ___current_exception       1002472a f   libvcruntime:ehhelpers.obj
 0001:00023735       ___current_exception_context 10024735 f   libvcruntime:ehhelpers.obj
 0001:00023740       ___processing_throw        10024740 f   libvcruntime:ehhelpers.obj
 0001:0002374b       ___std_terminate           1002474b f   libvcruntime:ehhelpers.obj
 0001:00023750       __is_exception_typeof      10024750 f   libvcruntime:ehhelpers.obj
 0001:0002381d       ??$?RD@__crt_public_free_policy@@QBEXQBD@Z 1002481d f i libvcruntime:std_exception.obj
 0001:00023831       ??0?$__crt_unique_heap_ptr@DU__crt_public_free_policy@@@@QAE@QAD@Z 10024831 f i libvcruntime:std_exception.obj
 0001:00023842       ??1?$__crt_unique_heap_ptr@DU__crt_public_free_policy@@@@QAE@XZ 10024842 f i libvcruntime:std_exception.obj
 0001:00023856       ??B?$__crt_unique_heap_ptr@DU__crt_public_free_policy@@@@QBE_NXZ 10024856 f i libvcruntime:std_exception.obj
 0001:0002385d       ?detach@?$__crt_unique_heap_ptr@DU__crt_public_free_policy@@@@QAEPADXZ 1002485d f i libvcruntime:std_exception.obj
 0001:00023863       ?get@?$__crt_unique_heap_ptr@DU__crt_public_free_policy@@@@QBEPADXZ 10024863 f i libvcruntime:std_exception.obj
 0001:00023866       ?is_valid@?$__crt_unique_heap_ptr@DU__crt_public_free_policy@@@@QBE_NXZ 10024866 f i libvcruntime:std_exception.obj
 0001:0002386d       ?release@?$__crt_unique_heap_ptr@DU__crt_public_free_policy@@@@QAEXXZ 1002486d f i libvcruntime:std_exception.obj
 0001:00023881       ___std_exception_copy      10024881 f   libvcruntime:std_exception.obj
 0001:000238fc       ___std_exception_destroy   100248fc f   libvcruntime:std_exception.obj
 0001:00023922       __CxxThrowException@8      10024922 f   libvcruntime:throw.obj
 0001:000239aa       _malloc                    100249aa f   libucrt:malloc.obj
 0001:000239b7       _calloc                    100249b7 f   libucrt:calloc.obj
 0001:000239c4       _free                      100249c4 f   libucrt:free.obj
 0001:000239e8       ??$__crt_interlocked_read@J@@YAJPDJ@Z 100249e8 f i libucrt:assert.obj
 0001:000239f7       ??$__vcrt_va_start_verify_argument_type@QBD@@YAXXZ 100249f7 f i libucrt:assert.obj
 0001:000239f8       ??$__vcrt_va_start_verify_argument_type@QB_W@@YAXXZ 100249f8 f i libucrt:assert.obj
 0001:0002499a       ??$ftprintf@PAU_iobuf@@PBDABQBDABQBDABI@?$__crt_char_traits@D@@SAH$$QAPAU_iobuf@@$$QAPBDABQBD2ABI@Z 1002599a f i libucrt:assert.obj
 0001:000249cc       ??$ftprintf@PAU_iobuf@@PB_WABQB_WABQB_WABI@?$__crt_char_traits@_W@@SAH$$QAPAU_iobuf@@$$QAPB_WABQB_W2ABI@Z 100259cc f i libucrt:assert.obj
 0001:000249fe       ??$get_module_file_name@AAPAUHINSTANCE__@@AAY0BAF@DK@?$__crt_char_traits@D@@SAKAAPAUHINSTANCE__@@AAY0BAF@D$$QAK@Z 100259fe f i libucrt:assert.obj
 0001:00024a21       ??$get_module_file_name@AAPAUHINSTANCE__@@AAY0BAF@_WK@?$__crt_char_traits@_W@@SAKAAPAUHINSTANCE__@@AAY0BAF@_W$$QAK@Z 10025a21 f i libucrt:assert.obj
 0001:00024a41       ??$itot_s@ABIPADIH@?$__crt_char_traits@D@@SAHABI$$QAPAD$$QAI$$QAH@Z 10025a41 f i libucrt:assert.obj
 0001:00024a6c       ??$itot_s@ABIPA_WIH@?$__crt_char_traits@_W@@SAHABI$$QAPA_W$$QAI$$QAH@Z 10025a6c f i libucrt:assert.obj
 0001:00024a97       ??$show_message_box@AAY0CEA@DPBDJ@?$__crt_char_traits@D@@SAHAAY0CEA@D$$QAPBD$$QAJ@Z 10025a97 f i libucrt:assert.obj
 0001:00024aba       ??$show_message_box@AAY0CEA@_WPB_WJ@?$__crt_char_traits@_W@@SAHAAY0CEA@_W$$QAPB_W$$QAJ@Z 10025aba f i libucrt:assert.obj
 0001:00024add       ??$tcscat_s@ABQADABIAAPAD@?$__crt_char_traits@D@@SAHABQADABIAAPAD@Z 10025add f i libucrt:assert.obj
 0001:00024b02       ??$tcscat_s@ABQADABIABQBD@?$__crt_char_traits@D@@SAHABQADABIABQBD@Z 10025b02 f i libucrt:assert.obj
 0001:00024b27       ??$tcscat_s@ABQADABIPBD@?$__crt_char_traits@D@@SAHABQADABI$$QAPBD@Z 10025b27 f i libucrt:assert.obj
 0001:00024b4c       ??$tcscat_s@ABQA_WABIAAPA_W@?$__crt_char_traits@_W@@SAHABQA_WABIAAPA_W@Z 10025b4c f i libucrt:assert.obj
 0001:00024b71       ??$tcscat_s@ABQA_WABIABQB_W@?$__crt_char_traits@_W@@SAHABQA_WABIABQB_W@Z 10025b71 f i libucrt:assert.obj
 0001:00024b96       ??$tcscat_s@ABQA_WABIPB_W@?$__crt_char_traits@_W@@SAHABQA_WABI$$QAPB_W@Z 10025b96 f i libucrt:assert.obj
 0001:00024bbb       ??$tcscpy_s@AAY0BAF@DIPBD@?$__crt_char_traits@D@@SAHAAY0BAF@D$$QAI$$QAPBD@Z 10025bbb f i libucrt:assert.obj
 0001:00024bde       ??$tcscpy_s@AAY0BAF@_WIPB_W@?$__crt_char_traits@_W@@SAHAAY0BAF@_W$$QAI$$QAPB_W@Z 10025bde f i libucrt:assert.obj
 0001:00024c01       ??$tcscpy_s@ABQADABIPBD@?$__crt_char_traits@D@@SAHABQADABI$$QAPBD@Z 10025c01 f i libucrt:assert.obj
 0001:00024c26       ??$tcscpy_s@ABQA_WABIPB_W@?$__crt_char_traits@_W@@SAHABQA_WABI$$QAPB_W@Z 10025c26 f i libucrt:assert.obj
 0001:00024c4b       ??$tcslen@AAY0BAF@D@?$__crt_char_traits@D@@SAIAAY0BAF@D@Z 10025c4b f i libucrt:assert.obj
 0001:00024c66       ??$tcslen@AAY0BAF@_W@?$__crt_char_traits@_W@@SAIAAY0BAF@_W@Z 10025c66 f i libucrt:assert.obj
 0001:00024c89       ??$tcslen@ABQAD@?$__crt_char_traits@D@@SAIABQAD@Z 10025c89 f i libucrt:assert.obj
 0001:00024ca7       ??$tcslen@ABQA_W@?$__crt_char_traits@_W@@SAIABQA_W@Z 10025ca7 f i libucrt:assert.obj
 0001:00024ccc       ??$tcslen@ABQBD@?$__crt_char_traits@D@@SAIABQBD@Z 10025ccc f i libucrt:assert.obj
 0001:00024cea       ??$tcslen@ABQB_W@?$__crt_char_traits@_W@@SAIABQB_W@Z 10025cea f i libucrt:assert.obj
 0001:00024d0f       ??$tcsncat_s@ABQADABIAAPBDI@?$__crt_char_traits@D@@SAHABQADABIAAPBD$$QAI@Z 10025d0f f i libucrt:assert.obj
 0001:00024d3a       ??$tcsncat_s@ABQADABIABQBDABI@?$__crt_char_traits@D@@SAHABQADABIABQBD1@Z 10025d3a f i libucrt:assert.obj
 0001:00024d65       ??$tcsncat_s@ABQADABIPBDI@?$__crt_char_traits@D@@SAHABQADABI$$QAPBD$$QAI@Z 10025d65 f i libucrt:assert.obj
 0001:00024d90       ??$tcsncat_s@ABQA_WABIAAPB_WI@?$__crt_char_traits@_W@@SAHABQA_WABIAAPB_W$$QAI@Z 10025d90 f i libucrt:assert.obj
 0001:00024dbb       ??$tcsncat_s@ABQA_WABIABQB_WABI@?$__crt_char_traits@_W@@SAHABQA_WABIABQB_W1@Z 10025dbb f i libucrt:assert.obj
 0001:00024de6       ??$tcsncat_s@ABQA_WABIPB_WI@?$__crt_char_traits@_W@@SAHABQA_WABI$$QAPB_W$$QAI@Z 10025de6 f i libucrt:assert.obj
 0001:00024e11       ??0__crt_stdio_stream@@QAE@QAU_iobuf@@@Z 10025e11 f i libucrt:assert.obj
 0001:00024f57       ?get_flags@__crt_stdio_stream@@QBEJXZ 10025f57 f i libucrt:assert.obj
 0001:00024fa5       ?has_any_buffer@__crt_stdio_stream@@QBE_NXZ 10025fa5 f i libucrt:assert.obj
 0001:00024fb6       ?has_any_of@__crt_stdio_stream@@QBE_NJ@Z 10025fb6 f i libucrt:assert.obj
 0001:00024fcf       __assert                   10025fcf f   libucrt:assert.obj
 0001:00025029       __invoke_watson_if_error   10026029 f i libucrt:assert.obj
 0001:00025053       __vfwprintf_l              10026053 f i libucrt:assert.obj
 0001:00025081       __vswprintf_c_l            10026081 f i libucrt:assert.obj
 0001:000250bb       __wassert                  100260bb f   libucrt:assert.obj
 0001:00025115       _fwprintf                  10026115 f i libucrt:assert.obj
 0001:000251d7       _swprintf                  100261d7 f i libucrt:assert.obj
 0001:000251fc       _realloc                   100261fc f   libucrt:realloc.obj
 0001:00025209       ??$?B$$A6GXPAXK0@Z@__crt_fast_encoded_nullptr_t@@QBEP6GXPAXK0@ZXZ 10026209 f i libucrt:exit.obj
 0001:000252ac       ??$__crt_fast_decode_pointer@P6GXPAXK0@Z@@YAP6GXPAXK0@ZQ6GX0K0@Z@Z 100262ac f i libucrt:exit.obj
 0001:000252c7       ??$__crt_fast_encode_pointer@P6GXPAXK0@Z@@YAP6GXPAXK0@ZQ6GX0K0@Z@Z 100262c7 f i libucrt:exit.obj
 0001:000252ed       ??$__crt_get_proc_address@P6GXI@Z@@YAP6GXI@ZQAUHINSTANCE__@@QBD@Z 100262ed f i libucrt:exit.obj
 0001:00025353       ??0?$__crt_unique_handle_t@U__crt_hmodule_traits@@@@QAE@QAUHINSTANCE__@@@Z 10026353 f i libucrt:exit.obj
 0001:00025367       ??1?$__crt_unique_handle_t@U__crt_hmodule_traits@@@@QAE@XZ 10026367 f i libucrt:exit.obj
 0001:000254ac       ?__acrt_select_exit_lock@@YA?AW4__acrt_lock_id@@XZ 100264ac f i libucrt:exit.obj
 0001:000254c7       ?close@?$__crt_unique_handle_t@U__crt_hmodule_traits@@@@QAEXXZ 100264c7 f i libucrt:exit.obj
 0001:000254e3       ?close@__crt_hmodule_traits@@SA_NPAUHINSTANCE__@@@Z 100264e3 f i libucrt:exit.obj
 0001:000255ce       ?get@?$__crt_unique_handle_t@U__crt_hmodule_traits@@@@QBEPAUHINSTANCE__@@XZ 100265ce f i libucrt:exit.obj
 0001:000255d1       ?get_address_of@?$__crt_unique_handle_t@U__crt_hmodule_traits@@@@QAEPAPAUHINSTANCE__@@XZ 100265d1 f i libucrt:exit.obj
 0001:000255d4       ?get_invalid_value@__crt_hmodule_traits@@SAPAUHINSTANCE__@@XZ 100265d4 f i libucrt:exit.obj
 0001:000256d5       __Exit                     100266d5 f   libucrt:exit.obj
 0001:000256f0       ___acrt_initialize_thread_local_exit_callback 100266f0 f   libucrt:exit.obj
 0001:00025702       __c_exit                   10026702 f   libucrt:exit.obj
 0001:00025714       __cexit                    10026714 f   libucrt:exit.obj
 0001:00025726       __exit                     10026726 f   libucrt:exit.obj
 0001:00025741       __is_c_termination_complete 10026741 f   libucrt:exit.obj
 0001:00025747       __register_thread_local_exe_atexit_callback 10026747 f   libucrt:exit.obj
 0001:0002578d       _exit                      1002678d f   libucrt:exit.obj
 0001:000257a8       _quick_exit                100267a8 f   libucrt:exit.obj
 0001:000257d0       _strncat                   100267d0 f   libucrt:strncat.obj
 0001:00025960       _strncpy                   10026960 f   libucrt:strncpy.obj
 0001:00025acd       ??$?RPAU__crt_stdio_stream_data@@@__crt_internal_free_policy@@QBEXQBQAU__crt_stdio_stream_data@@@Z 10026acd f i libucrt:_file.obj
 0001:00025ae3       ??0?$__crt_unique_heap_ptr@PAU__crt_stdio_stream_data@@U__crt_internal_free_policy@@@@QAE@QAPAU__crt_stdio_stream_data@@@Z 10026ae3 f i libucrt:_file.obj
 0001:00025af7       ??1?$__crt_unique_heap_ptr@PAU__crt_stdio_stream_data@@U__crt_internal_free_policy@@@@QAE@XZ 10026af7 f i libucrt:_file.obj
 0001:00025b0d       ??C__crt_stdio_stream@@QBEPAU__crt_stdio_stream_data@@XZ 10026b0d f i libucrt:_file.obj
 0001:00025b10       ?detach@?$__crt_unique_heap_ptr@PAU__crt_stdio_stream_data@@U__crt_internal_free_policy@@@@QAEPAPAU__crt_stdio_stream_data@@XZ 10026b10 f i libucrt:_file.obj
 0001:00025b16       ?release@?$__crt_unique_heap_ptr@PAU__crt_stdio_stream_data@@U__crt_internal_free_policy@@@@QAEXXZ 10026b16 f i libucrt:_file.obj
 0001:00025b2c       ___acrt_initialize_stdio   10026b2c f   libucrt:_file.obj
 0001:00025c26       ___acrt_iob_func           10026c26 f   libucrt:_file.obj
 0001:00025c3a       ___acrt_uninitialize_stdio 10026c3a f   libucrt:_file.obj
 0001:00025c99       __get_stream_buffer_pointers 10026c99 f   libucrt:_file.obj
 0001:00025cf0       __lock_file                10026cf0 f   libucrt:_file.obj
 0001:00025d09       __unlock_file              10026d09 f   libucrt:_file.obj
 0001:00025d22       ?is_in_use@__crt_stdio_stream@@QBE_NXZ 10026d22 f i libucrt:fclose.obj
 0001:00025d2f       ?is_string_backed@__crt_stdio_stream@@QBE_NXZ 10026d2f f i libucrt:fclose.obj
 0001:00025d3c       ?public_stream@__crt_stdio_stream@@QBEPAU_iobuf@@XZ 10026d3c f i libucrt:fclose.obj
 0001:00025d3f       ?valid@__crt_stdio_stream@@QBE_NXZ 10026d3f f i libucrt:fclose.obj
 0001:00025d46       __fclose_nolock            10026d46 f   libucrt:fclose.obj
 0001:00025dd9       _fclose                    10026dd9 f   libucrt:fclose.obj
 0001:000260cf       ??$open_file@ABQBDABQBDABHPAU_iobuf@@@?$__crt_char_traits@D@@SAPAU_iobuf@@ABQBD0ABH$$QAPAU1@@Z 100270cf f i libucrt:fopen.obj
 0001:000260fa       ??$open_file@ABQB_WABQB_WABHPAU_iobuf@@@?$__crt_char_traits@_W@@SAPAU_iobuf@@ABQB_W0ABH$$QAPAU1@@Z 100270fa f i libucrt:fopen.obj
 0001:00026125       ?unlock@__crt_stdio_stream@@QBEXXZ 10027125 f i libucrt:fopen.obj
 0001:00026130       __fsopen                   10027130 f   libucrt:fopen.obj
 0001:0002613d       __wfopen                   1002713d f   libucrt:fopen.obj
 0001:00026159       __wfopen_s                 10027159 f   libucrt:fopen.obj
 0001:000261b1       __wfsopen                  100271b1 f   libucrt:fopen.obj
 0001:000261be       _fopen                     100271be f   libucrt:fopen.obj
 0001:000261da       _fopen_s                   100271da f   libucrt:fopen.obj
 0001:00026232       ?__acrt_stdio_reset_buffer@@YAXV__crt_stdio_stream@@@Z 10027232 f i libucrt:fread.obj
 0001:0002624d       ?set_flags@__crt_stdio_stream@@QBE_NJ@Z 1002724d f i libucrt:fread.obj
 0001:0002627a       __fread_nolock             1002727a f   libucrt:fread.obj
 0001:0002629e       __fread_nolock_s           1002729e f   libucrt:fread.obj
 0001:000264ed       _fread                     100274ed f   libucrt:fread.obj
 0001:00026511       _fread_s                   10027511 f   libucrt:fread.obj
 0001:00026756       ??0__acrt_stdio_temporary_buffering_guard@@QAE@QAU_iobuf@@@Z 10027756 f i libucrt:fwrite.obj
 0001:0002677b       ??1__acrt_stdio_temporary_buffering_guard@@QAE@XZ 1002777b f i libucrt:fwrite.obj
 0001:000267f9       ?has_big_buffer@__crt_stdio_stream@@QBE_NXZ 100277f9 f i libucrt:fwrite.obj
 0001:00026806       __fwrite_nolock            10027806 f   libucrt:fwrite.obj
 0001:000269df       _fwrite                    100279df f   libucrt:fwrite.obj
 0001:00026b02       ??$__acrt_mbs_to_wcs_cp@U__crt_win32_buffer_internal_dynamic_resizing@@@@YAHQBDAAV?$__crt_win32_buffer@_WU__crt_win32_buffer_internal_dynamic_resizing@@@@I@Z 10027b02 f i libucrt:unlink.obj
 0001:00026b28       ??0?$__crt_win32_buffer@_WU__crt_win32_buffer_internal_dynamic_resizing@@@@QAE@XZ 10027b28 f i libucrt:unlink.obj
 0001:00026b43       ??0_LocaleUpdate@@QAE@QAU__crt_locale_pointers@@@Z 10027b43 f i libucrt:unlink.obj
 0001:00026be6       ??1?$__crt_win32_buffer@_WU__crt_win32_buffer_internal_dynamic_resizing@@@@QAE@XZ 10027be6 f i libucrt:unlink.obj
 0001:00026beb       ??1_LocaleUpdate@@QAE@XZ   10027beb f i libucrt:unlink.obj
 0001:00026c28       ?GetLocaleT@_LocaleUpdate@@QAEPAU__crt_locale_pointers@@XZ 10027c28 f i libucrt:unlink.obj
 0001:00026c2c       ?__acrt_get_utf8_acp_compatibility_codepage@@YAIXZ 10027c2c f i libucrt:unlink.obj
 0001:00026c7d       ?_deallocate@?$__crt_win32_buffer@_WU__crt_win32_buffer_internal_dynamic_resizing@@@@AAEXXZ 10027c7d f i libucrt:unlink.obj
 0001:00026c9d       ?allocate@?$__crt_win32_buffer@_WU__crt_win32_buffer_internal_dynamic_resizing@@@@QAEHI@Z 10027c9d f i libucrt:unlink.obj
 0001:00026ceb       ?allocate@__crt_win32_buffer_internal_dynamic_resizing@@SAHQAPAXIABV__crt_win32_buffer_empty_debug_info@@@Z 10027ceb f i libucrt:unlink.obj
 0001:00026d11       ?capacity@?$__crt_win32_buffer@_WU__crt_win32_buffer_internal_dynamic_resizing@@@@QBEIXZ 10027d11 f i libucrt:unlink.obj
 0001:00026d15       ?data@?$__crt_win32_buffer@_WU__crt_win32_buffer_internal_dynamic_resizing@@@@QAEPA_WXZ 10027d15 f i libucrt:unlink.obj
 0001:00026d19       ?deallocate@__crt_win32_buffer_internal_dynamic_resizing@@SAXQAXABV__crt_win32_buffer_empty_debug_info@@@Z 10027d19 f i libucrt:unlink.obj
 0001:00026d2d       ?debug_info@?$__crt_win32_buffer@_WU__crt_win32_buffer_internal_dynamic_resizing@@@@QBEABV__crt_win32_buffer_empty_debug_info@@XZ 10027d2d f i libucrt:unlink.obj
 0001:00026d30       ?size@?$__crt_win32_buffer@_WU__crt_win32_buffer_internal_dynamic_resizing@@@@QAEXI@Z 10027d30 f i libucrt:unlink.obj
 0001:00026d42       ___acrt_locale_changed     10027d42 f i libucrt:unlink.obj
 0001:00026d4f       __unlink                   10027d4f f   libucrt:unlink.obj
 0001:00026d5c       _remove                    10027d5c f   libucrt:unlink.obj
 0001:00026de3       ?has_all_of@__crt_stdio_stream@@QBE_NJ@Z 10027de3 f i libucrt:rewind.obj
 0001:00026dff       ?unset_flags@__crt_stdio_stream@@QBE_NJ@Z 10027dff f i libucrt:rewind.obj
 0001:00026e32       _rewind                    10027e32 f   libucrt:rewind.obj
 0001:00026f24       ??$?0ABV?$stream_output_adapter@D@__crt_stdio_output@@AB_KABQBDABQAU__crt_locale_pointers@@ABQAD@?$format_validation_base@DV?$stream_output_adapter@D@__crt_stdio_output@@@__crt_stdio_output@@IAE@ABV?$stream_output_adapter@D@1@AB_KABQBDABQAU__crt_locale_pointers@@ABQAD@Z 10027f24 f i libucrt:output.obj
 0001:00026f4f       ??$?0ABV?$stream_output_adapter@D@__crt_stdio_output@@AB_KABQBDABQAU__crt_locale_pointers@@ABQAD@?$positional_parameter_base@DV?$stream_output_adapter@D@__crt_stdio_output@@@__crt_stdio_output@@IAE@ABV?$stream_output_adapter@D@1@AB_KABQBDABQAU__crt_locale_pointers@@ABQAD@Z 10027f4f f i libucrt:output.obj
 0001:00026fa9       ??$?0ABV?$stream_output_adapter@D@__crt_stdio_output@@AB_KABQBDABQAU__crt_locale_pointers@@ABQAD@?$standard_base@DV?$stream_output_adapter@D@__crt_stdio_output@@@__crt_stdio_output@@IAE@ABV?$stream_output_adapter@D@1@AB_KABQBDABQAU__crt_locale_pointers@@ABQAD@Z 10027fa9 f i libucrt:output.obj
 0001:00026feb       ??$?0ABV?$stream_output_adapter@_W@__crt_stdio_output@@AB_KABQB_WABQAU__crt_locale_pointers@@ABQAD@?$format_validation_base@_WV?$stream_output_adapter@_W@__crt_stdio_output@@@__crt_stdio_output@@IAE@ABV?$stream_output_adapter@_W@1@AB_KABQB_WABQAU__crt_locale_pointers@@ABQAD@Z 10027feb f i libucrt:output.obj
 0001:00027016       ??$?0ABV?$stream_output_adapter@_W@__crt_stdio_output@@AB_KABQB_WABQAU__crt_locale_pointers@@ABQAD@?$positional_parameter_base@_WV?$stream_output_adapter@_W@__crt_stdio_output@@@__crt_stdio_output@@IAE@ABV?$stream_output_adapter@_W@1@AB_KABQB_WABQAU__crt_locale_pointers@@ABQAD@Z 10028016 f i libucrt:output.obj
 0001:00027070       ??$?0ABV?$stream_output_adapter@_W@__crt_stdio_output@@AB_KABQB_WABQAU__crt_locale_pointers@@ABQAD@?$standard_base@_WV?$stream_output_adapter@_W@__crt_stdio_output@@@__crt_stdio_output@@IAE@ABV?$stream_output_adapter@_W@1@AB_KABQB_WABQAU__crt_locale_pointers@@ABQAD@Z 10028070 f i libucrt:output.obj
 0001:000270b2       ??$?0ABV?$string_output_adapter@D@__crt_stdio_output@@AB_KABQBDABQAU__crt_locale_pointers@@ABQAD@?$format_validation_base@DV?$string_output_adapter@D@__crt_stdio_output@@@__crt_stdio_output@@IAE@ABV?$string_output_adapter@D@1@AB_KABQBDABQAU__crt_locale_pointers@@ABQAD@Z 100280b2 f i libucrt:output.obj
 0001:000270dd       ??$?0ABV?$string_output_adapter@D@__crt_stdio_output@@AB_KABQBDABQAU__crt_locale_pointers@@ABQAD@?$positional_parameter_base@DV?$string_output_adapter@D@__crt_stdio_output@@@__crt_stdio_output@@IAE@ABV?$string_output_adapter@D@1@AB_KABQBDABQAU__crt_locale_pointers@@ABQAD@Z 100280dd f i libucrt:output.obj
 0001:00027137       ??$?0ABV?$string_output_adapter@D@__crt_stdio_output@@AB_KABQBDABQAU__crt_locale_pointers@@ABQAD@?$standard_base@DV?$string_output_adapter@D@__crt_stdio_output@@@__crt_stdio_output@@IAE@ABV?$string_output_adapter@D@1@AB_KABQBDABQAU__crt_locale_pointers@@ABQAD@Z 10028137 f i libucrt:output.obj
 0001:00027179       ??$?0ABV?$string_output_adapter@_W@__crt_stdio_output@@AB_KABQB_WABQAU__crt_locale_pointers@@ABQAD@?$format_validation_base@_WV?$string_output_adapter@_W@__crt_stdio_output@@@__crt_stdio_output@@IAE@ABV?$string_output_adapter@_W@1@AB_KABQB_WABQAU__crt_locale_pointers@@ABQAD@Z 10028179 f i libucrt:output.obj
 0001:000271a4       ??$?0ABV?$string_output_adapter@_W@__crt_stdio_output@@AB_KABQB_WABQAU__crt_locale_pointers@@ABQAD@?$positional_parameter_base@_WV?$string_output_adapter@_W@__crt_stdio_output@@@__crt_stdio_output@@IAE@ABV?$string_output_adapter@_W@1@AB_KABQB_WABQAU__crt_locale_pointers@@ABQAD@Z 100281a4 f i libucrt:output.obj
 0001:000271fe       ??$?0ABV?$string_output_adapter@_W@__crt_stdio_output@@AB_KABQB_WABQAU__crt_locale_pointers@@ABQAD@?$standard_base@_WV?$string_output_adapter@_W@__crt_stdio_output@@@__crt_stdio_output@@IAE@ABV?$string_output_adapter@_W@1@AB_KABQB_WABQAU__crt_locale_pointers@@ABQAD@Z 100281fe f i libucrt:output.obj
 0001:00028824       ??$count@D@formatting_buffer@__crt_stdio_output@@QBEIXZ 10029824 f i libucrt:output.obj
 0001:00028842       ??$count@_W@formatting_buffer@__crt_stdio_output@@QBEIXZ 10029842 f i libucrt:output.obj
 0001:00028861       ??$data@D@formatting_buffer@__crt_stdio_output@@QAEPADXZ 10029861 f i libucrt:output.obj
 0001:00028871       ??$data@_W@formatting_buffer@__crt_stdio_output@@QAEPA_WXZ 10029871 f i libucrt:output.obj
 0001:00028881       ??$ensure_buffer_is_big_enough@D@formatting_buffer@__crt_stdio_output@@QAE_NI@Z 10029881 f i libucrt:output.obj
 0001:0002891f       ??$ensure_buffer_is_big_enough@_W@formatting_buffer@__crt_stdio_output@@QAE_NI@Z 1002991f f i libucrt:output.obj
 0001:000289bf       ??$extract_argument_from_va_list@C_J@?$positional_parameter_base@DV?$stream_output_adapter@D@__crt_stdio_output@@@__crt_stdio_output@@IAE_NAA_J@Z 100299bf f i libucrt:output.obj
 0001:00028a56       ??$extract_argument_from_va_list@C_J@?$positional_parameter_base@DV?$string_output_adapter@D@__crt_stdio_output@@@__crt_stdio_output@@IAE_NAA_J@Z 10029a56 f i libucrt:output.obj
 0001:00028aed       ??$extract_argument_from_va_list@C_J@?$positional_parameter_base@_WV?$stream_output_adapter@_W@__crt_stdio_output@@@__crt_stdio_output@@IAE_NAA_J@Z 10029aed f i libucrt:output.obj
 0001:00028b84       ??$extract_argument_from_va_list@C_J@?$positional_parameter_base@_WV?$string_output_adapter@_W@__crt_stdio_output@@@__crt_stdio_output@@IAE_NAA_J@Z 10029b84 f i libucrt:output.obj
 0001:00028c1b       ??$extract_argument_from_va_list@C_J@?$standard_base@DV?$stream_output_adapter@D@__crt_stdio_output@@@__crt_stdio_output@@IAE_NAA_J@Z 10029c1b f i libucrt:output.obj
 0001:00028c41       ??$extract_argument_from_va_list@C_J@?$standard_base@DV?$string_output_adapter@D@__crt_stdio_output@@@__crt_stdio_output@@IAE_NAA_J@Z 10029c41 f i libucrt:output.obj
 0001:00028c67       ??$extract_argument_from_va_list@C_J@?$standard_base@_WV?$stream_output_adapter@_W@__crt_stdio_output@@@__crt_stdio_output@@IAE_NAA_J@Z 10029c67 f i libucrt:output.obj
 0001:00028c8d       ??$extract_argument_from_va_list@C_J@?$standard_base@_WV?$string_output_adapter@_W@__crt_stdio_output@@@__crt_stdio_output@@IAE_NAA_J@Z 10029c8d f i libucrt:output.obj
 0001:00028cb3       ??$extract_argument_from_va_list@E_J@?$positional_parameter_base@DV?$stream_output_adapter@D@__crt_stdio_output@@@__crt_stdio_output@@IAE_NAA_J@Z 10029cb3 f i libucrt:output.obj
 0001:00028d4a       ??$extract_argument_from_va_list@E_J@?$positional_parameter_base@DV?$string_output_adapter@D@__crt_stdio_output@@@__crt_stdio_output@@IAE_NAA_J@Z 10029d4a f i libucrt:output.obj
 0001:00028de1       ??$extract_argument_from_va_list@E_J@?$positional_parameter_base@_WV?$stream_output_adapter@_W@__crt_stdio_output@@@__crt_stdio_output@@IAE_NAA_J@Z 10029de1 f i libucrt:output.obj
 0001:00028e78       ??$extract_argument_from_va_list@E_J@?$positional_parameter_base@_WV?$string_output_adapter@_W@__crt_stdio_output@@@__crt_stdio_output@@IAE_NAA_J@Z 10029e78 f i libucrt:output.obj
 0001:00028f0f       ??$extract_argument_from_va_list@E_J@?$standard_base@DV?$stream_output_adapter@D@__crt_stdio_output@@@__crt_stdio_output@@IAE_NAA_J@Z 10029f0f f i libucrt:output.obj
 0001:00028f35       ??$extract_argument_from_va_list@E_J@?$standard_base@DV?$string_output_adapter@D@__crt_stdio_output@@@__crt_stdio_output@@IAE_NAA_J@Z 10029f35 f i libucrt:output.obj
 0001:00028f5b       ??$extract_argument_from_va_list@E_J@?$standard_base@_WV?$stream_output_adapter@_W@__crt_stdio_output@@@__crt_stdio_output@@IAE_NAA_J@Z 10029f5b f i libucrt:output.obj
 0001:00028f81       ??$extract_argument_from_va_list@E_J@?$standard_base@_WV?$string_output_adapter@_W@__crt_stdio_output@@@__crt_stdio_output@@IAE_NAA_J@Z 10029f81 f i libucrt:output.obj
 0001:00028fa7       ??$extract_argument_from_va_list@F_J@?$positional_parameter_base@DV?$stream_output_adapter@D@__crt_stdio_output@@@__crt_stdio_output@@IAE_NAA_J@Z 10029fa7 f i libucrt:output.obj
 0001:0002903e       ??$extract_argument_from_va_list@F_J@?$positional_parameter_base@DV?$string_output_adapter@D@__crt_stdio_output@@@__crt_stdio_output@@IAE_NAA_J@Z 1002a03e f i libucrt:output.obj
 0001:000290d5       ??$extract_argument_from_va_list@F_J@?$positional_parameter_base@_WV?$stream_output_adapter@_W@__crt_stdio_output@@@__crt_stdio_output@@IAE_NAA_J@Z 1002a0d5 f i libucrt:output.obj
 0001:0002916c       ??$extract_argument_from_va_list@F_J@?$positional_parameter_base@_WV?$string_output_adapter@_W@__crt_stdio_output@@@__crt_stdio_output@@IAE_NAA_J@Z 1002a16c f i libucrt:output.obj
 0001:00029203       ??$extract_argument_from_va_list@F_J@?$standard_base@DV?$stream_output_adapter@D@__crt_stdio_output@@@__crt_stdio_output@@IAE_NAA_J@Z 1002a203 f i libucrt:output.obj
 0001:00029229       ??$extract_argument_from_va_list@F_J@?$standard_base@DV?$string_output_adapter@D@__crt_stdio_output@@@__crt_stdio_output@@IAE_NAA_J@Z 1002a229 f i libucrt:output.obj
 0001:0002924f       ??$extract_argument_from_va_list@F_J@?$standard_base@_WV?$stream_output_adapter@_W@__crt_stdio_output@@@__crt_stdio_output@@IAE_NAA_J@Z 1002a24f f i libucrt:output.obj
 0001:00029275       ??$extract_argument_from_va_list@F_J@?$standard_base@_WV?$string_output_adapter@_W@__crt_stdio_output@@@__crt_stdio_output@@IAE_NAA_J@Z 1002a275 f i libucrt:output.obj
 0001:0002929b       ??$extract_argument_from_va_list@GD@?$positional_parameter_base@DV?$stream_output_adapter@D@__crt_stdio_output@@@__crt_stdio_output@@IAE_NAAD@Z 1002a29b f i libucrt:output.obj
 0001:00029331       ??$extract_argument_from_va_list@GD@?$positional_parameter_base@DV?$string_output_adapter@D@__crt_stdio_output@@@__crt_stdio_output@@IAE_NAAD@Z 1002a331 f i libucrt:output.obj
 0001:000293c7       ??$extract_argument_from_va_list@GD@?$standard_base@DV?$stream_output_adapter@D@__crt_stdio_output@@@__crt_stdio_output@@IAE_NAAD@Z 1002a3c7 f i libucrt:output.obj
 0001:000293e7       ??$extract_argument_from_va_list@GD@?$standard_base@DV?$string_output_adapter@D@__crt_stdio_output@@@__crt_stdio_output@@IAE_NAAD@Z 1002a3e7 f i libucrt:output.obj
 0001:00029407       ??$extract_argument_from_va_list@G_J@?$positional_parameter_base@DV?$stream_output_adapter@D@__crt_stdio_output@@@__crt_stdio_output@@IAE_NAA_J@Z 1002a407 f i libucrt:output.obj
 0001:0002949e       ??$extract_argument_from_va_list@G_J@?$positional_parameter_base@DV?$string_output_adapter@D@__crt_stdio_output@@@__crt_stdio_output@@IAE_NAA_J@Z 1002a49e f i libucrt:output.obj
 0001:00029535       ??$extract_argument_from_va_list@G_J@?$positional_parameter_base@_WV?$stream_output_adapter@_W@__crt_stdio_output@@@__crt_stdio_output@@IAE_NAA_J@Z 1002a535 f i libucrt:output.obj
 0001:000295cc       ??$extract_argument_from_va_list@G_J@?$positional_parameter_base@_WV?$string_output_adapter@_W@__crt_stdio_output@@@__crt_stdio_output@@IAE_NAA_J@Z 1002a5cc f i libucrt:output.obj
 0001:00029663       ??$extract_argument_from_va_list@G_J@?$standard_base@DV?$stream_output_adapter@D@__crt_stdio_output@@@__crt_stdio_output@@IAE_NAA_J@Z 1002a663 f i libucrt:output.obj
 0001:00029689       ??$extract_argument_from_va_list@G_J@?$standard_base@DV?$string_output_adapter@D@__crt_stdio_output@@@__crt_stdio_output@@IAE_NAA_J@Z 1002a689 f i libucrt:output.obj
 0001:000296af       ??$extract_argument_from_va_list@G_J@?$standard_base@_WV?$stream_output_adapter@_W@__crt_stdio_output@@@__crt_stdio_output@@IAE_NAA_J@Z 1002a6af f i libucrt:output.obj
 0001:000296d5       ??$extract_argument_from_va_list@G_J@?$standard_base@_WV?$string_output_adapter@_W@__crt_stdio_output@@@__crt_stdio_output@@IAE_NAA_J@Z 1002a6d5 f i libucrt:output.obj
 0001:000296fb       ??$extract_argument_from_va_list@H_J@?$positional_parameter_base@DV?$stream_output_adapter@D@__crt_stdio_output@@@__crt_stdio_output@@IAE_NAA_J@Z 1002a6fb f i libucrt:output.obj
 0001:0002978f       ??$extract_argument_from_va_list@H_J@?$positional_parameter_base@DV?$string_output_adapter@D@__crt_stdio_output@@@__crt_stdio_output@@IAE_NAA_J@Z 1002a78f f i libucrt:output.obj
 0001:00029823       ??$extract_argument_from_va_list@H_J@?$positional_parameter_base@_WV?$stream_output_adapter@_W@__crt_stdio_output@@@__crt_stdio_output@@IAE_NAA_J@Z 1002a823 f i libucrt:output.obj
 0001:000298b7       ??$extract_argument_from_va_list@H_J@?$positional_parameter_base@_WV?$string_output_adapter@_W@__crt_stdio_output@@@__crt_stdio_output@@IAE_NAA_J@Z 1002a8b7 f i libucrt:output.obj
 0001:0002994b       ??$extract_argument_from_va_list@H_J@?$standard_base@DV?$stream_output_adapter@D@__crt_stdio_output@@@__crt_stdio_output@@IAE_NAA_J@Z 1002a94b f i libucrt:output.obj
 0001:00029970       ??$extract_argument_from_va_list@H_J@?$standard_base@DV?$string_output_adapter@D@__crt_stdio_output@@@__crt_stdio_output@@IAE_NAA_J@Z 1002a970 f i libucrt:output.obj
 0001:00029995       ??$extract_argument_from_va_list@H_J@?$standard_base@_WV?$stream_output_adapter@_W@__crt_stdio_output@@@__crt_stdio_output@@IAE_NAA_J@Z 1002a995 f i libucrt:output.obj
 0001:000299ba       ??$extract_argument_from_va_list@H_J@?$standard_base@_WV?$string_output_adapter@_W@__crt_stdio_output@@@__crt_stdio_output@@IAE_NAA_J@Z 1002a9ba f i libucrt:output.obj
 0001:000299df       ??$extract_argument_from_va_list@I_J@?$positional_parameter_base@DV?$stream_output_adapter@D@__crt_stdio_output@@@__crt_stdio_output@@IAE_NAA_J@Z 1002a9df f i libucrt:output.obj
 0001:00029a7f       ??$extract_argument_from_va_list@I_J@?$positional_parameter_base@DV?$string_output_adapter@D@__crt_stdio_output@@@__crt_stdio_output@@IAE_NAA_J@Z 1002aa7f f i libucrt:output.obj
 0001:00029b1f       ??$extract_argument_from_va_list@I_J@?$positional_parameter_base@_WV?$stream_output_adapter@_W@__crt_stdio_output@@@__crt_stdio_output@@IAE_NAA_J@Z 1002ab1f f i libucrt:output.obj
 0001:00029bbf       ??$extract_argument_from_va_list@I_J@?$positional_parameter_base@_WV?$string_output_adapter@_W@__crt_stdio_output@@@__crt_stdio_output@@IAE_NAA_J@Z 1002abbf f i libucrt:output.obj
 0001:00029c5f       ??$extract_argument_from_va_list@I_J@?$standard_base@DV?$stream_output_adapter@D@__crt_stdio_output@@@__crt_stdio_output@@IAE_NAA_J@Z 1002ac5f f i libucrt:output.obj
 0001:00029c84       ??$extract_argument_from_va_list@I_J@?$standard_base@DV?$string_output_adapter@D@__crt_stdio_output@@@__crt_stdio_output@@IAE_NAA_J@Z 1002ac84 f i libucrt:output.obj
 0001:00029ca9       ??$extract_argument_from_va_list@I_J@?$standard_base@_WV?$stream_output_adapter@_W@__crt_stdio_output@@@__crt_stdio_output@@IAE_NAA_J@Z 1002aca9 f i libucrt:output.obj
 0001:00029cce       ??$extract_argument_from_va_list@I_J@?$standard_base@_WV?$string_output_adapter@_W@__crt_stdio_output@@@__crt_stdio_output@@IAE_NAA_J@Z 1002acce f i libucrt:output.obj
 0001:00029cf3       ??$extract_argument_from_va_list@PADPAD@?$positional_parameter_base@DV?$stream_output_adapter@D@__crt_stdio_output@@@__crt_stdio_output@@IAE_NAAPAD@Z 1002acf3 f i libucrt:output.obj
 0001:00029d89       ??$extract_argument_from_va_list@PADPAD@?$positional_parameter_base@DV?$string_output_adapter@D@__crt_stdio_output@@@__crt_stdio_output@@IAE_NAAPAD@Z 1002ad89 f i libucrt:output.obj
 0001:00029e1f       ??$extract_argument_from_va_list@PADPAD@?$positional_parameter_base@_WV?$stream_output_adapter@_W@__crt_stdio_output@@@__crt_stdio_output@@IAE_NAAPAD@Z 1002ae1f f i libucrt:output.obj
 0001:00029eb5       ??$extract_argument_from_va_list@PADPAD@?$positional_parameter_base@_WV?$string_output_adapter@_W@__crt_stdio_output@@@__crt_stdio_output@@IAE_NAAPAD@Z 1002aeb5 f i libucrt:output.obj
 0001:00029f4b       ??$extract_argument_from_va_list@PADPAD@?$standard_base@DV?$stream_output_adapter@D@__crt_stdio_output@@@__crt_stdio_output@@IAE_NAAPAD@Z 1002af4b f i libucrt:output.obj
 0001:00029f6b       ??$extract_argument_from_va_list@PADPAD@?$standard_base@DV?$string_output_adapter@D@__crt_stdio_output@@@__crt_stdio_output@@IAE_NAAPAD@Z 1002af6b f i libucrt:output.obj
 0001:00029f8b       ??$extract_argument_from_va_list@PADPAD@?$standard_base@_WV?$stream_output_adapter@_W@__crt_stdio_output@@@__crt_stdio_output@@IAE_NAAPAD@Z 1002af8b f i libucrt:output.obj
 0001:00029fab       ??$extract_argument_from_va_list@PADPAD@?$standard_base@_WV?$string_output_adapter@_W@__crt_stdio_output@@@__crt_stdio_output@@IAE_NAAPAD@Z 1002afab f i libucrt:output.obj
 0001:0002a3a3       ??$extract_argument_from_va_list@PAXPAX@?$positional_parameter_base@DV?$stream_output_adapter@D@__crt_stdio_output@@@__crt_stdio_output@@IAE_NAAPAX@Z 1002b3a3 f i libucrt:output.obj
 0001:0002a439       ??$extract_argument_from_va_list@PAXPAX@?$positional_parameter_base@DV?$string_output_adapter@D@__crt_stdio_output@@@__crt_stdio_output@@IAE_NAAPAX@Z 1002b439 f i libucrt:output.obj
 0001:0002a4cf       ??$extract_argument_from_va_list@PAXPAX@?$positional_parameter_base@_WV?$stream_output_adapter@_W@__crt_stdio_output@@@__crt_stdio_output@@IAE_NAAPAX@Z 1002b4cf f i libucrt:output.obj
 0001:0002a565       ??$extract_argument_from_va_list@PAXPAX@?$positional_parameter_base@_WV?$string_output_adapter@_W@__crt_stdio_output@@@__crt_stdio_output@@IAE_NAAPAX@Z 1002b565 f i libucrt:output.obj
 0001:0002a5fb       ??$extract_argument_from_va_list@PAXPAX@?$standard_base@DV?$stream_output_adapter@D@__crt_stdio_output@@@__crt_stdio_output@@IAE_NAAPAX@Z 1002b5fb f i libucrt:output.obj
 0001:0002a61b       ??$extract_argument_from_va_list@PAXPAX@?$standard_base@DV?$string_output_adapter@D@__crt_stdio_output@@@__crt_stdio_output@@IAE_NAAPAX@Z 1002b61b f i libucrt:output.obj
 0001:0002a63b       ??$extract_argument_from_va_list@PAXPAX@?$standard_base@_WV?$stream_output_adapter@_W@__crt_stdio_output@@@__crt_stdio_output@@IAE_NAAPAX@Z 1002b63b f i libucrt:output.obj
 0001:0002a65b       ??$extract_argument_from_va_list@PAXPAX@?$standard_base@_WV?$string_output_adapter@_W@__crt_stdio_output@@@__crt_stdio_output@@IAE_NAAPAX@Z 1002b65b f i libucrt:output.obj
 0001:0002a67b       ??$extract_argument_from_va_list@U_CRT_DOUBLE@@U1@@?$positional_parameter_base@DV?$stream_output_adapter@D@__crt_stdio_output@@@__crt_stdio_output@@IAE_NAAU_CRT_DOUBLE@@@Z 1002b67b f i libucrt:output.obj
 0001:0002a722       ??$extract_argument_from_va_list@U_CRT_DOUBLE@@U1@@?$positional_parameter_base@DV?$string_output_adapter@D@__crt_stdio_output@@@__crt_stdio_output@@IAE_NAAU_CRT_DOUBLE@@@Z 1002b722 f i libucrt:output.obj
 0001:0002a7c9       ??$extract_argument_from_va_list@U_CRT_DOUBLE@@U1@@?$positional_parameter_base@_WV?$stream_output_adapter@_W@__crt_stdio_output@@@__crt_stdio_output@@IAE_NAAU_CRT_DOUBLE@@@Z 1002b7c9 f i libucrt:output.obj
 0001:0002a870       ??$extract_argument_from_va_list@U_CRT_DOUBLE@@U1@@?$positional_parameter_base@_WV?$string_output_adapter@_W@__crt_stdio_output@@@__crt_stdio_output@@IAE_NAAU_CRT_DOUBLE@@@Z 1002b870 f i libucrt:output.obj
 0001:0002a917       ??$extract_argument_from_va_list@U_CRT_DOUBLE@@U1@@?$standard_base@DV?$stream_output_adapter@D@__crt_stdio_output@@@__crt_stdio_output@@IAE_NAAU_CRT_DOUBLE@@@Z 1002b917 f i libucrt:output.obj
 0001:0002a93f       ??$extract_argument_from_va_list@U_CRT_DOUBLE@@U1@@?$standard_base@DV?$string_output_adapter@D@__crt_stdio_output@@@__crt_stdio_output@@IAE_NAAU_CRT_DOUBLE@@@Z 1002b93f f i libucrt:output.obj
 0001:0002a967       ??$extract_argument_from_va_list@U_CRT_DOUBLE@@U1@@?$standard_base@_WV?$stream_output_adapter@_W@__crt_stdio_output@@@__crt_stdio_output@@IAE_NAAU_CRT_DOUBLE@@@Z 1002b967 f i libucrt:output.obj
 0001:0002a98f       ??$extract_argument_from_va_list@U_CRT_DOUBLE@@U1@@?$standard_base@_WV?$string_output_adapter@_W@__crt_stdio_output@@@__crt_stdio_output@@IAE_NAAU_CRT_DOUBLE@@@Z 1002b98f f i libucrt:output.obj
 0001:0002a9b7       ??$extract_argument_from_va_list@_J_J@?$positional_parameter_base@DV?$stream_output_adapter@D@__crt_stdio_output@@@__crt_stdio_output@@IAE_NAA_J@Z 1002b9b7 f i libucrt:output.obj
 0001:0002aa5e       ??$extract_argument_from_va_list@_J_J@?$positional_parameter_base@DV?$string_output_adapter@D@__crt_stdio_output@@@__crt_stdio_output@@IAE_NAA_J@Z 1002ba5e f i libucrt:output.obj
 0001:0002ab05       ??$extract_argument_from_va_list@_J_J@?$positional_parameter_base@_WV?$stream_output_adapter@_W@__crt_stdio_output@@@__crt_stdio_output@@IAE_NAA_J@Z 1002bb05 f i libucrt:output.obj
 0001:0002abac       ??$extract_argument_from_va_list@_J_J@?$positional_parameter_base@_WV?$string_output_adapter@_W@__crt_stdio_output@@@__crt_stdio_output@@IAE_NAA_J@Z 1002bbac f i libucrt:output.obj
 0001:0002ac53       ??$extract_argument_from_va_list@_J_J@?$standard_base@DV?$stream_output_adapter@D@__crt_stdio_output@@@__crt_stdio_output@@IAE_NAA_J@Z 1002bc53 f i libucrt:output.obj
 0001:0002ac7b       ??$extract_argument_from_va_list@_J_J@?$standard_base@DV?$string_output_adapter@D@__crt_stdio_output@@@__crt_stdio_output@@IAE_NAA_J@Z 1002bc7b f i libucrt:output.obj
 0001:0002aca3       ??$extract_argument_from_va_list@_J_J@?$standard_base@_WV?$stream_output_adapter@_W@__crt_stdio_output@@@__crt_stdio_output@@IAE_NAA_J@Z 1002bca3 f i libucrt:output.obj
 0001:0002accb       ??$extract_argument_from_va_list@_J_J@?$standard_base@_WV?$string_output_adapter@_W@__crt_stdio_output@@@__crt_stdio_output@@IAE_NAA_J@Z 1002bccb f i libucrt:output.obj
 0001:0002acf3       ??$extract_argument_from_va_list@_K_J@?$positional_parameter_base@DV?$stream_output_adapter@D@__crt_stdio_output@@@__crt_stdio_output@@IAE_NAA_J@Z 1002bcf3 f i libucrt:output.obj
 0001:0002ad9a       ??$extract_argument_from_va_list@_K_J@?$positional_parameter_base@DV?$string_output_adapter@D@__crt_stdio_output@@@__crt_stdio_output@@IAE_NAA_J@Z 1002bd9a f i libucrt:output.obj
 0001:0002ae41       ??$extract_argument_from_va_list@_K_J@?$positional_parameter_base@_WV?$stream_output_adapter@_W@__crt_stdio_output@@@__crt_stdio_output@@IAE_NAA_J@Z 1002be41 f i libucrt:output.obj
 0001:0002aee8       ??$extract_argument_from_va_list@_K_J@?$positional_parameter_base@_WV?$string_output_adapter@_W@__crt_stdio_output@@@__crt_stdio_output@@IAE_NAA_J@Z 1002bee8 f i libucrt:output.obj
 0001:0002af8f       ??$extract_argument_from_va_list@_K_J@?$standard_base@DV?$stream_output_adapter@D@__crt_stdio_output@@@__crt_stdio_output@@IAE_NAA_J@Z 1002bf8f f i libucrt:output.obj
 0001:0002afb7       ??$extract_argument_from_va_list@_K_J@?$standard_base@DV?$string_output_adapter@D@__crt_stdio_output@@@__crt_stdio_output@@IAE_NAA_J@Z 1002bfb7 f i libucrt:output.obj
 0001:0002afdf       ??$extract_argument_from_va_list@_K_J@?$standard_base@_WV?$stream_output_adapter@_W@__crt_stdio_output@@@__crt_stdio_output@@IAE_NAA_J@Z 1002bfdf f i libucrt:output.obj
 0001:0002b007       ??$extract_argument_from_va_list@_K_J@?$standard_base@_WV?$string_output_adapter@_W@__crt_stdio_output@@@__crt_stdio_output@@IAE_NAA_J@Z 1002c007 f i libucrt:output.obj
 0001:0002b02f       ??$extract_argument_from_va_list@_W_W@?$positional_parameter_base@DV?$stream_output_adapter@D@__crt_stdio_output@@@__crt_stdio_output@@IAE_NAA_W@Z 1002c02f f i libucrt:output.obj
 0001:0002b0ca       ??$extract_argument_from_va_list@_W_W@?$positional_parameter_base@DV?$string_output_adapter@D@__crt_stdio_output@@@__crt_stdio_output@@IAE_NAA_W@Z 1002c0ca f i libucrt:output.obj
 0001:0002b165       ??$extract_argument_from_va_list@_W_W@?$positional_parameter_base@_WV?$stream_output_adapter@_W@__crt_stdio_output@@@__crt_stdio_output@@IAE_NAA_W@Z 1002c165 f i libucrt:output.obj
 0001:0002b200       ??$extract_argument_from_va_list@_W_W@?$positional_parameter_base@_WV?$string_output_adapter@_W@__crt_stdio_output@@@__crt_stdio_output@@IAE_NAA_W@Z 1002c200 f i libucrt:output.obj
 0001:0002b29b       ??$extract_argument_from_va_list@_W_W@?$standard_base@DV?$stream_output_adapter@D@__crt_stdio_output@@@__crt_stdio_output@@IAE_NAA_W@Z 1002c29b f i libucrt:output.obj
 0001:0002b2be       ??$extract_argument_from_va_list@_W_W@?$standard_base@DV?$string_output_adapter@D@__crt_stdio_output@@@__crt_stdio_output@@IAE_NAA_W@Z 1002c2be f i libucrt:output.obj
 0001:0002b2e1       ??$extract_argument_from_va_list@_W_W@?$standard_base@_WV?$stream_output_adapter@_W@__crt_stdio_output@@@__crt_stdio_output@@IAE_NAA_W@Z 1002c2e1 f i libucrt:output.obj
 0001:0002b304       ??$extract_argument_from_va_list@_W_W@?$standard_base@_WV?$string_output_adapter@_W@__crt_stdio_output@@@__crt_stdio_output@@IAE_NAA_W@Z 1002c304 f i libucrt:output.obj
 0001:0002b327       ??$get_parameter_type@D@?$positional_parameter_base@DV?$stream_output_adapter@D@__crt_stdio_output@@@__crt_stdio_output@@CA?AW4parameter_type@01@PAD@Z 1002c327 f i libucrt:output.obj
 0001:0002b32b       ??$get_parameter_type@D@?$positional_parameter_base@DV?$string_output_adapter@D@__crt_stdio_output@@@__crt_stdio_output@@CA?AW4parameter_type@01@PAD@Z 1002c32b f i libucrt:output.obj
 0001:0002b32f       ??$get_parameter_type@D@?$positional_parameter_base@_WV?$stream_output_adapter@_W@__crt_stdio_output@@@__crt_stdio_output@@CA?AW4parameter_type@01@PAD@Z 1002c32f f i libucrt:output.obj
 0001:0002b333       ??$get_parameter_type@D@?$positional_parameter_base@_WV?$string_output_adapter@_W@__crt_stdio_output@@@__crt_stdio_output@@CA?AW4parameter_type@01@PAD@Z 1002c333 f i libucrt:output.obj
 0001:0002b347       ??$get_parameter_type@X@?$positional_parameter_base@DV?$stream_output_adapter@D@__crt_stdio_output@@@__crt_stdio_output@@CA?AW4parameter_type@01@PAX@Z 1002c347 f i libucrt:output.obj
 0001:0002b34b       ??$get_parameter_type@X@?$positional_parameter_base@DV?$string_output_adapter@D@__crt_stdio_output@@@__crt_stdio_output@@CA?AW4parameter_type@01@PAX@Z 1002c34b f i libucrt:output.obj
 0001:0002b34f       ??$get_parameter_type@X@?$positional_parameter_base@_WV?$stream_output_adapter@_W@__crt_stdio_output@@@__crt_stdio_output@@CA?AW4parameter_type@01@PAX@Z 1002c34f f i libucrt:output.obj
 0001:0002b353       ??$get_parameter_type@X@?$positional_parameter_base@_WV?$string_output_adapter@_W@__crt_stdio_output@@@__crt_stdio_output@@CA?AW4parameter_type@01@PAX@Z 1002c353 f i libucrt:output.obj
 0001:0002b357       ??$is_character_specifier@D@?$positional_parameter_base@DV?$stream_output_adapter@D@__crt_stdio_output@@@__crt_stdio_output@@CA_ND@Z 1002c357 f i libucrt:output.obj
 0001:0002b375       ??$is_character_specifier@D@?$positional_parameter_base@DV?$string_output_adapter@D@__crt_stdio_output@@@__crt_stdio_output@@CA_ND@Z 1002c375 f i libucrt:output.obj
 0001:0002b393       ??$is_character_specifier@_W@?$positional_parameter_base@_WV?$stream_output_adapter@_W@__crt_stdio_output@@@__crt_stdio_output@@CA_N_W@Z 1002c393 f i libucrt:output.obj
 0001:0002b3b4       ??$is_character_specifier@_W@?$positional_parameter_base@_WV?$string_output_adapter@_W@__crt_stdio_output@@@__crt_stdio_output@@CA_N_W@Z 1002c3b4 f i libucrt:output.obj
 0001:0002b3d5       ??$is_integral_specifier@D@?$positional_parameter_base@DV?$stream_output_adapter@D@__crt_stdio_output@@@__crt_stdio_output@@CA_ND@Z 1002c3d5 f i libucrt:output.obj
 0001:0002b40c       ??$is_integral_specifier@D@?$positional_parameter_base@DV?$string_output_adapter@D@__crt_stdio_output@@@__crt_stdio_output@@CA_ND@Z 1002c40c f i libucrt:output.obj
 0001:0002b443       ??$is_integral_specifier@_W@?$positional_parameter_base@_WV?$stream_output_adapter@_W@__crt_stdio_output@@@__crt_stdio_output@@CA_N_W@Z 1002c443 f i libucrt:output.obj
 0001:0002b48c       ??$is_integral_specifier@_W@?$positional_parameter_base@_WV?$string_output_adapter@_W@__crt_stdio_output@@@__crt_stdio_output@@CA_N_W@Z 1002c48c f i libucrt:output.obj
 0001:0002b4d5       ??$is_pointer_specifier@D@?$positional_parameter_base@DV?$stream_output_adapter@D@__crt_stdio_output@@@__crt_stdio_output@@CA_ND@Z 1002c4d5 f i libucrt:output.obj
 0001:0002b4e6       ??$is_pointer_specifier@D@?$positional_parameter_base@DV?$string_output_adapter@D@__crt_stdio_output@@@__crt_stdio_output@@CA_ND@Z 1002c4e6 f i libucrt:output.obj
 0001:0002b4f7       ??$is_pointer_specifier@_W@?$positional_parameter_base@_WV?$stream_output_adapter@_W@__crt_stdio_output@@@__crt_stdio_output@@CA_N_W@Z 1002c4f7 f i libucrt:output.obj
 0001:0002b509       ??$is_pointer_specifier@_W@?$positional_parameter_base@_WV?$string_output_adapter@_W@__crt_stdio_output@@@__crt_stdio_output@@CA_N_W@Z 1002c509 f i libucrt:output.obj
 0001:0002b51b       ??$is_string_specifier@D@?$positional_parameter_base@DV?$stream_output_adapter@D@__crt_stdio_output@@@__crt_stdio_output@@CA_ND@Z 1002c51b f i libucrt:output.obj
 0001:0002b539       ??$is_string_specifier@D@?$positional_parameter_base@DV?$string_output_adapter@D@__crt_stdio_output@@@__crt_stdio_output@@CA_ND@Z 1002c539 f i libucrt:output.obj
 0001:0002b557       ??$is_string_specifier@_W@?$positional_parameter_base@_WV?$stream_output_adapter@_W@__crt_stdio_output@@@__crt_stdio_output@@CA_N_W@Z 1002c557 f i libucrt:output.obj
 0001:0002b578       ??$is_string_specifier@_W@?$positional_parameter_base@_WV?$string_output_adapter@_W@__crt_stdio_output@@@__crt_stdio_output@@CA_N_W@Z 1002c578 f i libucrt:output.obj
 0001:0002b599       ??$is_wide_character_specifier@D@__crt_stdio_output@@YA_N_KDW4length_modifier@0@@Z 1002c599 f i libucrt:output.obj
 0001:0002b5d6       ??$is_wide_character_specifier@_W@__crt_stdio_output@@YA_N_K_WW4length_modifier@0@@Z 1002c5d6 f i libucrt:output.obj
 0001:0002b637       ??$peek_va_arg@C@__crt_stdio_output@@YACPAD@Z 1002c637 f i libucrt:output.obj
 0001:0002b646       ??$peek_va_arg@E@__crt_stdio_output@@YAEPAD@Z 1002c646 f i libucrt:output.obj
 0001:0002b655       ??$peek_va_arg@F@__crt_stdio_output@@YAFPAD@Z 1002c655 f i libucrt:output.obj
 0001:0002b665       ??$peek_va_arg@G@__crt_stdio_output@@YAGPAD@Z 1002c665 f i libucrt:output.obj
 0001:0002b675       ??$peek_va_arg@H@__crt_stdio_output@@YAHPAD@Z 1002c675 f i libucrt:output.obj
 0001:0002b684       ??$peek_va_arg@I@__crt_stdio_output@@YAIPAD@Z 1002c684 f i libucrt:output.obj
 0001:0002b693       ??$peek_va_arg@PAD@__crt_stdio_output@@YAPADPAD@Z 1002c693 f i libucrt:output.obj
 0001:0002b6de       ??$peek_va_arg@PAX@__crt_stdio_output@@YAPAXPAD@Z 1002c6de f i libucrt:output.obj
 0001:0002b6ed       ??$peek_va_arg@U_CRT_DOUBLE@@@__crt_stdio_output@@YA?AU_CRT_DOUBLE@@PAD@Z 1002c6ed f i libucrt:output.obj
 0001:0002b6ff       ??$peek_va_arg@_J@__crt_stdio_output@@YA_JPAD@Z 1002c6ff f i libucrt:output.obj
 0001:0002b711       ??$peek_va_arg@_K@__crt_stdio_output@@YA_KPAD@Z 1002c711 f i libucrt:output.obj
 0001:0002b723       ??$peek_va_arg@_W@__crt_stdio_output@@YA_WPAD@Z 1002c723 f i libucrt:output.obj
 0001:0002b733       ??$puttc_nolock@ABDPAU_iobuf@@@?$__crt_char_traits@D@@SAHABD$$QAPAU_iobuf@@@Z 1002c733 f i libucrt:output.obj
 0001:0002b753       ??$puttc_nolock@AB_WPAU_iobuf@@@?$__crt_char_traits@_W@@SAGAB_W$$QAPAU_iobuf@@@Z 1002c753 f i libucrt:output.obj
 0001:0002b773       ??$read_va_arg@C@__crt_stdio_output@@YACAAPAD@Z 1002c773 f i libucrt:output.obj
 0001:0002b789       ??$read_va_arg@E@__crt_stdio_output@@YAEAAPAD@Z 1002c789 f i libucrt:output.obj
 0001:0002b79f       ??$read_va_arg@F@__crt_stdio_output@@YAFAAPAD@Z 1002c79f f i libucrt:output.obj
 0001:0002b7b6       ??$read_va_arg@G@__crt_stdio_output@@YAGAAPAD@Z 1002c7b6 f i libucrt:output.obj
 0001:0002b7cd       ??$read_va_arg@H@__crt_stdio_output@@YAHAAPAD@Z 1002c7cd f i libucrt:output.obj
 0001:0002b7e3       ??$read_va_arg@I@__crt_stdio_output@@YAIAAPAD@Z 1002c7e3 f i libucrt:output.obj
 0001:0002b7f9       ??$read_va_arg@PAD@__crt_stdio_output@@YAPADAAPAD@Z 1002c7f9 f i libucrt:output.obj
 0001:0002b917       ??$read_va_arg@PAX@__crt_stdio_output@@YAPAXAAPAD@Z 1002c917 f i libucrt:output.obj
 0001:0002b92d       ??$read_va_arg@U_CRT_DOUBLE@@@__crt_stdio_output@@YA?AU_CRT_DOUBLE@@AAPAD@Z 1002c92d f i libucrt:output.obj
 0001:0002b948       ??$read_va_arg@_J@__crt_stdio_output@@YA_JAAPAD@Z 1002c948 f i libucrt:output.obj
 0001:0002b962       ??$read_va_arg@_K@__crt_stdio_output@@YA_KAAPAD@Z 1002c962 f i libucrt:output.obj
 0001:0002b97c       ??$read_va_arg@_W@__crt_stdio_output@@YA_WAAPAD@Z 1002c97c f i libucrt:output.obj
 0001:0002b993       ??$scratch_count@D@formatting_buffer@__crt_stdio_output@@QBEIXZ 1002c993 f i libucrt:output.obj
 0001:0002b998       ??$scratch_data@D@formatting_buffer@__crt_stdio_output@@QAEPADXZ 1002c998 f i libucrt:output.obj
 0001:0002b9bd       ??$tcstol@AAPBDPAPADH@?$__crt_char_traits@D@@SAJAAPBD$$QAPAPAD$$QAH@Z 1002c9bd f i libucrt:output.obj
 0001:0002b9e2       ??$tcstol@AAPB_WPAPA_WH@?$__crt_char_traits@_W@@SAJAAPB_W$$QAPAPA_W$$QAH@Z 1002c9e2 f i libucrt:output.obj
 0001:0002ba07       ??$tcstol@PBDPAPADH@?$__crt_char_traits@D@@SAJ$$QAPBD$$QAPAPAD$$QAH@Z 1002ca07 f i libucrt:output.obj
 0001:0002ba2c       ??$tcstol@PB_WPAPA_WH@?$__crt_char_traits@_W@@SAJ$$QAPB_W$$QAPAPA_W$$QAH@Z 1002ca2c f i libucrt:output.obj
 0001:0002ba51       ??$type_case_integer_parse_into_buffer@I@?$output_processor@DV?$stream_output_adapter@D@__crt_stdio_output@@V?$format_validation_base@DV?$stream_output_adapter@D@__crt_stdio_output@@@2@@__crt_stdio_output@@AAEXII_N@Z 1002ca51 f i libucrt:output.obj
 0001:0002bae0       ??$type_case_integer_parse_into_buffer@I@?$output_processor@DV?$stream_output_adapter@D@__crt_stdio_output@@V?$positional_parameter_base@DV?$stream_output_adapter@D@__crt_stdio_output@@@2@@__crt_stdio_output@@AAEXII_N@Z 1002cae0 f i libucrt:output.obj
 0001:0002bb6f       ??$type_case_integer_parse_into_buffer@I@?$output_processor@DV?$stream_output_adapter@D@__crt_stdio_output@@V?$standard_base@DV?$stream_output_adapter@D@__crt_stdio_output@@@2@@__crt_stdio_output@@AAEXII_N@Z 1002cb6f f i libucrt:output.obj
 0001:0002bbfe       ??$type_case_integer_parse_into_buffer@I@?$output_processor@DV?$string_output_adapter@D@__crt_stdio_output@@V?$format_validation_base@DV?$string_output_adapter@D@__crt_stdio_output@@@2@@__crt_stdio_output@@AAEXII_N@Z 1002cbfe f i libucrt:output.obj
 0001:0002bc8d       ??$type_case_integer_parse_into_buffer@I@?$output_processor@DV?$string_output_adapter@D@__crt_stdio_output@@V?$positional_parameter_base@DV?$string_output_adapter@D@__crt_stdio_output@@@2@@__crt_stdio_output@@AAEXII_N@Z 1002cc8d f i libucrt:output.obj
 0001:0002bd1c       ??$type_case_integer_parse_into_buffer@I@?$output_processor@DV?$string_output_adapter@D@__crt_stdio_output@@V?$standard_base@DV?$string_output_adapter@D@__crt_stdio_output@@@2@@__crt_stdio_output@@AAEXII_N@Z 1002cd1c f i libucrt:output.obj
 0001:0002bdab       ??$type_case_integer_parse_into_buffer@I@?$output_processor@_WV?$stream_output_adapter@_W@__crt_stdio_output@@V?$format_validation_base@_WV?$stream_output_adapter@_W@__crt_stdio_output@@@2@@__crt_stdio_output@@AAEXII_N@Z 1002cdab f i libucrt:output.obj
 0001:0002be4b       ??$type_case_integer_parse_into_buffer@I@?$output_processor@_WV?$stream_output_adapter@_W@__crt_stdio_output@@V?$positional_parameter_base@_WV?$stream_output_adapter@_W@__crt_stdio_output@@@2@@__crt_stdio_output@@AAEXII_N@Z 1002ce4b f i libucrt:output.obj
 0001:0002beeb       ??$type_case_integer_parse_into_buffer@I@?$output_processor@_WV?$stream_output_adapter@_W@__crt_stdio_output@@V?$standard_base@_WV?$stream_output_adapter@_W@__crt_stdio_output@@@2@@__crt_stdio_output@@AAEXII_N@Z 1002ceeb f i libucrt:output.obj
 0001:0002bf8b       ??$type_case_integer_parse_into_buffer@I@?$output_processor@_WV?$string_output_adapter@_W@__crt_stdio_output@@V?$format_validation_base@_WV?$string_output_adapter@_W@__crt_stdio_output@@@2@@__crt_stdio_output@@AAEXII_N@Z 1002cf8b f i libucrt:output.obj
 0001:0002c02b       ??$type_case_integer_parse_into_buffer@I@?$output_processor@_WV?$string_output_adapter@_W@__crt_stdio_output@@V?$positional_parameter_base@_WV?$string_output_adapter@_W@__crt_stdio_output@@@2@@__crt_stdio_output@@AAEXII_N@Z 1002d02b f i libucrt:output.obj
 0001:0002c0cb       ??$type_case_integer_parse_into_buffer@I@?$output_processor@_WV?$string_output_adapter@_W@__crt_stdio_output@@V?$standard_base@_WV?$string_output_adapter@_W@__crt_stdio_output@@@2@@__crt_stdio_output@@AAEXII_N@Z 1002d0cb f i libucrt:output.obj
 0001:0002c16b       ??$type_case_integer_parse_into_buffer@_K@?$output_processor@DV?$stream_output_adapter@D@__crt_stdio_output@@V?$format_validation_base@DV?$stream_output_adapter@D@__crt_stdio_output@@@2@@__crt_stdio_output@@AAEX_KI_N@Z 1002d16b f i libucrt:output.obj
 0001:0002c21d       ??$type_case_integer_parse_into_buffer@_K@?$output_processor@DV?$stream_output_adapter@D@__crt_stdio_output@@V?$positional_parameter_base@DV?$stream_output_adapter@D@__crt_stdio_output@@@2@@__crt_stdio_output@@AAEX_KI_N@Z 1002d21d f i libucrt:output.obj
 0001:0002c2cf       ??$type_case_integer_parse_into_buffer@_K@?$output_processor@DV?$stream_output_adapter@D@__crt_stdio_output@@V?$standard_base@DV?$stream_output_adapter@D@__crt_stdio_output@@@2@@__crt_stdio_output@@AAEX_KI_N@Z 1002d2cf f i libucrt:output.obj
 0001:0002c381       ??$type_case_integer_parse_into_buffer@_K@?$output_processor@DV?$string_output_adapter@D@__crt_stdio_output@@V?$format_validation_base@DV?$string_output_adapter@D@__crt_stdio_output@@@2@@__crt_stdio_output@@AAEX_KI_N@Z 1002d381 f i libucrt:output.obj
 0001:0002c433       ??$type_case_integer_parse_into_buffer@_K@?$output_processor@DV?$string_output_adapter@D@__crt_stdio_output@@V?$positional_parameter_base@DV?$string_output_adapter@D@__crt_stdio_output@@@2@@__crt_stdio_output@@AAEX_KI_N@Z 1002d433 f i libucrt:output.obj
 0001:0002c4e5       ??$type_case_integer_parse_into_buffer@_K@?$output_processor@DV?$string_output_adapter@D@__crt_stdio_output@@V?$standard_base@DV?$string_output_adapter@D@__crt_stdio_output@@@2@@__crt_stdio_output@@AAEX_KI_N@Z 1002d4e5 f i libucrt:output.obj
 0001:0002c597       ??$type_case_integer_parse_into_buffer@_K@?$output_processor@_WV?$stream_output_adapter@_W@__crt_stdio_output@@V?$format_validation_base@_WV?$stream_output_adapter@_W@__crt_stdio_output@@@2@@__crt_stdio_output@@AAEX_KI_N@Z 1002d597 f i libucrt:output.obj
 0001:0002c65a       ??$type_case_integer_parse_into_buffer@_K@?$output_processor@_WV?$stream_output_adapter@_W@__crt_stdio_output@@V?$positional_parameter_base@_WV?$stream_output_adapter@_W@__crt_stdio_output@@@2@@__crt_stdio_output@@AAEX_KI_N@Z 1002d65a f i libucrt:output.obj
 0001:0002c71d       ??$type_case_integer_parse_into_buffer@_K@?$output_processor@_WV?$stream_output_adapter@_W@__crt_stdio_output@@V?$standard_base@_WV?$stream_output_adapter@_W@__crt_stdio_output@@@2@@__crt_stdio_output@@AAEX_KI_N@Z 1002d71d f i libucrt:output.obj
 0001:0002c7e0       ??$type_case_integer_parse_into_buffer@_K@?$output_processor@_WV?$string_output_adapter@_W@__crt_stdio_output@@V?$format_validation_base@_WV?$string_output_adapter@_W@__crt_stdio_output@@@2@@__crt_stdio_output@@AAEX_KI_N@Z 1002d7e0 f i libucrt:output.obj
 0001:0002c8a3       ??$type_case_integer_parse_into_buffer@_K@?$output_processor@_WV?$string_output_adapter@_W@__crt_stdio_output@@V?$positional_parameter_base@_WV?$string_output_adapter@_W@__crt_stdio_output@@@2@@__crt_stdio_output@@AAEX_KI_N@Z 1002d8a3 f i libucrt:output.obj
 0001:0002c966       ??$type_case_integer_parse_into_buffer@_K@?$output_processor@_WV?$string_output_adapter@_W@__crt_stdio_output@@V?$standard_base@_WV?$string_output_adapter@_W@__crt_stdio_output@@@2@@__crt_stdio_output@@AAEX_KI_N@Z 1002d966 f i libucrt:output.obj
 0001:0002ca29       ??$write_multiple_characters@V?$stream_output_adapter@D@__crt_stdio_output@@D@__crt_stdio_output@@YAXABV?$stream_output_adapter@D@0@DHQAH@Z 1002da29 f i libucrt:output.obj
 0001:0002ca72       ??$write_multiple_characters@V?$stream_output_adapter@_W@__crt_stdio_output@@D@__crt_stdio_output@@YAXABV?$stream_output_adapter@_W@0@DHQAH@Z 1002da72 f i libucrt:output.obj
 0001:0002cac2       ??$write_multiple_characters@V?$string_output_adapter@D@__crt_stdio_output@@D@__crt_stdio_output@@YAXABV?$string_output_adapter@D@0@DHQAH@Z 1002dac2 f i libucrt:output.obj
 0001:0002caf9       ??$write_multiple_characters@V?$string_output_adapter@_W@__crt_stdio_output@@D@__crt_stdio_output@@YAXABV?$string_output_adapter@_W@0@DHQAH@Z 1002daf9 f i libucrt:output.obj
 0001:0002cd6a       ??0?$common_data@D@__crt_stdio_output@@IAE@XZ 1002dd6a f i libucrt:output.obj
 0001:0002cdc2       ??0?$common_data@_W@__crt_stdio_output@@IAE@XZ 1002ddc2 f i libucrt:output.obj
 0001:0002ce21       ??0?$output_adapter_data@DV?$stream_output_adapter@D@__crt_stdio_output@@@__crt_stdio_output@@IAE@ABV?$stream_output_adapter@D@1@_KQBDQAU__crt_locale_pointers@@QAD@Z 1002de21 f i libucrt:output.obj
 0001:0002ce6c       ??0?$output_adapter_data@DV?$string_output_adapter@D@__crt_stdio_output@@@__crt_stdio_output@@IAE@ABV?$string_output_adapter@D@1@_KQBDQAU__crt_locale_pointers@@QAD@Z 1002de6c f i libucrt:output.obj
 0001:0002ceb7       ??0?$output_adapter_data@_WV?$stream_output_adapter@_W@__crt_stdio_output@@@__crt_stdio_output@@IAE@ABV?$stream_output_adapter@_W@1@_KQB_WQAU__crt_locale_pointers@@QAD@Z 1002deb7 f i libucrt:output.obj
 0001:0002cf02       ??0?$output_adapter_data@_WV?$string_output_adapter@_W@__crt_stdio_output@@@__crt_stdio_output@@IAE@ABV?$string_output_adapter@_W@1@_KQB_WQAU__crt_locale_pointers@@QAD@Z 1002df02 f i libucrt:output.obj
 0001:0002cf4d       ??0?$output_processor@DV?$stream_output_adapter@D@__crt_stdio_output@@V?$format_validation_base@DV?$stream_output_adapter@D@__crt_stdio_output@@@2@@__crt_stdio_output@@QAE@ABV?$stream_output_adapter@D@1@_KQBDQAU__crt_locale_pointers@@QAD@Z 1002df4d f i libucrt:output.obj
 0001:0002cf85       ??0?$output_processor@DV?$stream_output_adapter@D@__crt_stdio_output@@V?$positional_parameter_base@DV?$stream_output_adapter@D@__crt_stdio_output@@@2@@__crt_stdio_output@@QAE@ABV?$stream_output_adapter@D@1@_KQBDQAU__crt_locale_pointers@@QAD@Z 1002df85 f i libucrt:output.obj
 0001:0002cfb5       ??0?$output_processor@DV?$stream_output_adapter@D@__crt_stdio_output@@V?$standard_base@DV?$stream_output_adapter@D@__crt_stdio_output@@@2@@__crt_stdio_output@@QAE@ABV?$stream_output_adapter@D@1@_KQBDQAU__crt_locale_pointers@@QAD@Z 1002dfb5 f i libucrt:output.obj
 0001:0002cfed       ??0?$output_processor@DV?$string_output_adapter@D@__crt_stdio_output@@V?$format_validation_base@DV?$string_output_adapter@D@__crt_stdio_output@@@2@@__crt_stdio_output@@QAE@ABV?$string_output_adapter@D@1@_KQBDQAU__crt_locale_pointers@@QAD@Z 1002dfed f i libucrt:output.obj
 0001:0002d025       ??0?$output_processor@DV?$string_output_adapter@D@__crt_stdio_output@@V?$positional_parameter_base@DV?$string_output_adapter@D@__crt_stdio_output@@@2@@__crt_stdio_output@@QAE@ABV?$string_output_adapter@D@1@_KQBDQAU__crt_locale_pointers@@QAD@Z 1002e025 f i libucrt:output.obj
 0001:0002d055       ??0?$output_processor@DV?$string_output_adapter@D@__crt_stdio_output@@V?$standard_base@DV?$string_output_adapter@D@__crt_stdio_output@@@2@@__crt_stdio_output@@QAE@ABV?$string_output_adapter@D@1@_KQBDQAU__crt_locale_pointers@@QAD@Z 1002e055 f i libucrt:output.obj
 0001:0002d08d       ??0?$output_processor@_WV?$stream_output_adapter@_W@__crt_stdio_output@@V?$format_validation_base@_WV?$stream_output_adapter@_W@__crt_stdio_output@@@2@@__crt_stdio_output@@QAE@ABV?$stream_output_adapter@_W@1@_KQB_WQAU__crt_locale_pointers@@QAD@Z 1002e08d f i libucrt:output.obj
 0001:0002d0c5       ??0?$output_processor@_WV?$stream_output_adapter@_W@__crt_stdio_output@@V?$positional_parameter_base@_WV?$stream_output_adapter@_W@__crt_stdio_output@@@2@@__crt_stdio_output@@QAE@ABV?$stream_output_adapter@_W@1@_KQB_WQAU__crt_locale_pointers@@QAD@Z 1002e0c5 f i libucrt:output.obj
 0001:0002d0f5       ??0?$output_processor@_WV?$stream_output_adapter@_W@__crt_stdio_output@@V?$standard_base@_WV?$stream_output_adapter@_W@__crt_stdio_output@@@2@@__crt_stdio_output@@QAE@ABV?$stream_output_adapter@_W@1@_KQB_WQAU__crt_locale_pointers@@QAD@Z 1002e0f5 f i libucrt:output.obj
 0001:0002d12d       ??0?$output_processor@_WV?$string_output_adapter@_W@__crt_stdio_output@@V?$format_validation_base@_WV?$string_output_adapter@_W@__crt_stdio_output@@@2@@__crt_stdio_output@@QAE@ABV?$string_output_adapter@_W@1@_KQB_WQAU__crt_locale_pointers@@QAD@Z 1002e12d f i libucrt:output.obj
 0001:0002d165       ??0?$output_processor@_WV?$string_output_adapter@_W@__crt_stdio_output@@V?$positional_parameter_base@_WV?$string_output_adapter@_W@__crt_stdio_output@@@2@@__crt_stdio_output@@QAE@ABV?$string_output_adapter@_W@1@_KQB_WQAU__crt_locale_pointers@@QAD@Z 1002e165 f i libucrt:output.obj
 0001:0002d195       ??0?$output_processor@_WV?$string_output_adapter@_W@__crt_stdio_output@@V?$standard_base@_WV?$string_output_adapter@_W@__crt_stdio_output@@@2@@__crt_stdio_output@@QAE@ABV?$string_output_adapter@_W@1@_KQB_WQAU__crt_locale_pointers@@QAD@Z 1002e195 f i libucrt:output.obj
 0001:0002d1cd       ??0?$stream_output_adapter@D@__crt_stdio_output@@QAE@QAU_iobuf@@@Z 1002e1cd f i libucrt:output.obj
 0001:0002d1e1       ??0?$stream_output_adapter@_W@__crt_stdio_output@@QAE@QAU_iobuf@@@Z 1002e1e1 f i libucrt:output.obj
 0001:0002d1f5       ??0?$string_output_adapter@D@__crt_stdio_output@@QAE@QAU?$string_output_adapter_context@D@1@@Z 1002e1f5 f i libucrt:output.obj
 0001:0002d209       ??0?$string_output_adapter@_W@__crt_stdio_output@@QAE@QAU?$string_output_adapter_context@_W@1@@Z 1002e209 f i libucrt:output.obj
 0001:0002d21d       ??0__crt_deferred_errno_cache@@QAE@XZ 1002e21d f i libucrt:output.obj
 0001:0002d223       ??0__crt_errno_guard@@QAE@QAH@Z 1002e223 f i libucrt:output.obj
 0001:0002d241       ??0formatting_buffer@__crt_stdio_output@@QAE@XZ 1002e241 f i libucrt:output.obj
 0001:0002d256       ??1?$common_data@D@__crt_stdio_output@@QAE@XZ 1002e256 f i libucrt:output.obj
 0001:0002d260       ??1?$common_data@_W@__crt_stdio_output@@QAE@XZ 1002e260 f i libucrt:output.obj
 0001:0002d26a       ??1?$format_validation_base@DV?$stream_output_adapter@D@__crt_stdio_output@@@__crt_stdio_output@@QAE@XZ 1002e26a f i libucrt:output.obj
 0001:0002d274       ??1?$format_validation_base@DV?$string_output_adapter@D@__crt_stdio_output@@@__crt_stdio_output@@QAE@XZ 1002e274 f i libucrt:output.obj
 0001:0002d27e       ??1?$format_validation_base@_WV?$stream_output_adapter@_W@__crt_stdio_output@@@__crt_stdio_output@@QAE@XZ 1002e27e f i libucrt:output.obj
 0001:0002d288       ??1?$format_validation_base@_WV?$string_output_adapter@_W@__crt_stdio_output@@@__crt_stdio_output@@QAE@XZ 1002e288 f i libucrt:output.obj
 0001:0002d292       ??1?$output_adapter_data@DV?$stream_output_adapter@D@__crt_stdio_output@@@__crt_stdio_output@@QAE@XZ 1002e292 f i libucrt:output.obj
 0001:0002d29c       ??1?$output_adapter_data@DV?$string_output_adapter@D@__crt_stdio_output@@@__crt_stdio_output@@QAE@XZ 1002e29c f i libucrt:output.obj
 0001:0002d2a6       ??1?$output_adapter_data@_WV?$stream_output_adapter@_W@__crt_stdio_output@@@__crt_stdio_output@@QAE@XZ 1002e2a6 f i libucrt:output.obj
 0001:0002d2b0       ??1?$output_adapter_data@_WV?$string_output_adapter@_W@__crt_stdio_output@@@__crt_stdio_output@@QAE@XZ 1002e2b0 f i libucrt:output.obj
 0001:0002d2ba       ??1?$output_processor@DV?$stream_output_adapter@D@__crt_stdio_output@@V?$format_validation_base@DV?$stream_output_adapter@D@__crt_stdio_output@@@2@@__crt_stdio_output@@QAE@XZ 1002e2ba f i libucrt:output.obj
 0001:0002d2c4       ??1?$output_processor@DV?$stream_output_adapter@D@__crt_stdio_output@@V?$positional_parameter_base@DV?$stream_output_adapter@D@__crt_stdio_output@@@2@@__crt_stdio_output@@QAE@XZ 1002e2c4 f i libucrt:output.obj
 0001:0002d2ce       ??1?$output_processor@DV?$stream_output_adapter@D@__crt_stdio_output@@V?$standard_base@DV?$stream_output_adapter@D@__crt_stdio_output@@@2@@__crt_stdio_output@@QAE@XZ 1002e2ce f i libucrt:output.obj
 0001:0002d2d8       ??1?$output_processor@DV?$string_output_adapter@D@__crt_stdio_output@@V?$format_validation_base@DV?$string_output_adapter@D@__crt_stdio_output@@@2@@__crt_stdio_output@@QAE@XZ 1002e2d8 f i libucrt:output.obj
 0001:0002d2e2       ??1?$output_processor@DV?$string_output_adapter@D@__crt_stdio_output@@V?$positional_parameter_base@DV?$string_output_adapter@D@__crt_stdio_output@@@2@@__crt_stdio_output@@QAE@XZ 1002e2e2 f i libucrt:output.obj
 0001:0002d2ec       ??1?$output_processor@DV?$string_output_adapter@D@__crt_stdio_output@@V?$standard_base@DV?$string_output_adapter@D@__crt_stdio_output@@@2@@__crt_stdio_output@@QAE@XZ 1002e2ec f i libucrt:output.obj
 0001:0002d2f6       ??1?$output_processor@_WV?$stream_output_adapter@_W@__crt_stdio_output@@V?$format_validation_base@_WV?$stream_output_adapter@_W@__crt_stdio_output@@@2@@__crt_stdio_output@@QAE@XZ 1002e2f6 f i libucrt:output.obj
 0001:0002d300       ??1?$output_processor@_WV?$stream_output_adapter@_W@__crt_stdio_output@@V?$positional_parameter_base@_WV?$stream_output_adapter@_W@__crt_stdio_output@@@2@@__crt_stdio_output@@QAE@XZ 1002e300 f i libucrt:output.obj
 0001:0002d30a       ??1?$output_processor@_WV?$stream_output_adapter@_W@__crt_stdio_output@@V?$standard_base@_WV?$stream_output_adapter@_W@__crt_stdio_output@@@2@@__crt_stdio_output@@QAE@XZ 1002e30a f i libucrt:output.obj
 0001:0002d314       ??1?$output_processor@_WV?$string_output_adapter@_W@__crt_stdio_output@@V?$format_validation_base@_WV?$string_output_adapter@_W@__crt_stdio_output@@@2@@__crt_stdio_output@@QAE@XZ 1002e314 f i libucrt:output.obj
 0001:0002d31e       ??1?$output_processor@_WV?$string_output_adapter@_W@__crt_stdio_output@@V?$positional_parameter_base@_WV?$string_output_adapter@_W@__crt_stdio_output@@@2@@__crt_stdio_output@@QAE@XZ 1002e31e f i libucrt:output.obj
 0001:0002d328       ??1?$output_processor@_WV?$string_output_adapter@_W@__crt_stdio_output@@V?$standard_base@_WV?$string_output_adapter@_W@__crt_stdio_output@@@2@@__crt_stdio_output@@QAE@XZ 1002e328 f i libucrt:output.obj
 0001:0002d332       ??1?$positional_parameter_base@DV?$stream_output_adapter@D@__crt_stdio_output@@@__crt_stdio_output@@QAE@XZ 1002e332 f i libucrt:output.obj
 0001:0002d33c       ??1?$positional_parameter_base@DV?$string_output_adapter@D@__crt_stdio_output@@@__crt_stdio_output@@QAE@XZ 1002e33c f i libucrt:output.obj
 0001:0002d346       ??1?$positional_parameter_base@_WV?$stream_output_adapter@_W@__crt_stdio_output@@@__crt_stdio_output@@QAE@XZ 1002e346 f i libucrt:output.obj
 0001:0002d350       ??1?$positional_parameter_base@_WV?$string_output_adapter@_W@__crt_stdio_output@@@__crt_stdio_output@@QAE@XZ 1002e350 f i libucrt:output.obj
 0001:0002d35a       ??1?$standard_base@DV?$stream_output_adapter@D@__crt_stdio_output@@@__crt_stdio_output@@QAE@XZ 1002e35a f i libucrt:output.obj
 0001:0002d364       ??1?$standard_base@DV?$string_output_adapter@D@__crt_stdio_output@@@__crt_stdio_output@@QAE@XZ 1002e364 f i libucrt:output.obj
 0001:0002d36e       ??1?$standard_base@_WV?$stream_output_adapter@_W@__crt_stdio_output@@@__crt_stdio_output@@QAE@XZ 1002e36e f i libucrt:output.obj
 0001:0002d378       ??1?$standard_base@_WV?$string_output_adapter@_W@__crt_stdio_output@@@__crt_stdio_output@@QAE@XZ 1002e378 f i libucrt:output.obj
 0001:0002d382       ??1__crt_errno_guard@@QAE@XZ 1002e382 f i libucrt:output.obj
 0001:0002d397       ??1formatting_buffer@__crt_stdio_output@@QAE@XZ 1002e397 f i libucrt:output.obj
 0001:0002d3b7       ??4?$__crt_unique_heap_ptr@DU__crt_internal_free_policy@@@@QAEAAV0@$$QAV0@@Z 1002e3b7 f i libucrt:output.obj
 0001:0002da92       ?adjust_hexit@?$output_processor@DV?$stream_output_adapter@D@__crt_stdio_output@@V?$format_validation_base@DV?$stream_output_adapter@D@__crt_stdio_output@@@2@@__crt_stdio_output@@CADH_N@Z 1002ea92 f i libucrt:output.obj
 0001:0002daab       ?adjust_hexit@?$output_processor@DV?$stream_output_adapter@D@__crt_stdio_output@@V?$positional_parameter_base@DV?$stream_output_adapter@D@__crt_stdio_output@@@2@@__crt_stdio_output@@CADH_N@Z 1002eaab f i libucrt:output.obj
 0001:0002dac4       ?adjust_hexit@?$output_processor@DV?$stream_output_adapter@D@__crt_stdio_output@@V?$standard_base@DV?$stream_output_adapter@D@__crt_stdio_output@@@2@@__crt_stdio_output@@CADH_N@Z 1002eac4 f i libucrt:output.obj
 0001:0002dadd       ?adjust_hexit@?$output_processor@DV?$string_output_adapter@D@__crt_stdio_output@@V?$format_validation_base@DV?$string_output_adapter@D@__crt_stdio_output@@@2@@__crt_stdio_output@@CADH_N@Z 1002eadd f i libucrt:output.obj
 0001:0002daf6       ?adjust_hexit@?$output_processor@DV?$string_output_adapter@D@__crt_stdio_output@@V?$positional_parameter_base@DV?$string_output_adapter@D@__crt_stdio_output@@@2@@__crt_stdio_output@@CADH_N@Z 1002eaf6 f i libucrt:output.obj
 0001:0002db0f       ?adjust_hexit@?$output_processor@DV?$string_output_adapter@D@__crt_stdio_output@@V?$standard_base@DV?$string_output_adapter@D@__crt_stdio_output@@@2@@__crt_stdio_output@@CADH_N@Z 1002eb0f f i libucrt:output.obj
 0001:0002db28       ?adjust_hexit@?$output_processor@_WV?$stream_output_adapter@_W@__crt_stdio_output@@V?$format_validation_base@_WV?$stream_output_adapter@_W@__crt_stdio_output@@@2@@__crt_stdio_output@@CADH_N@Z 1002eb28 f i libucrt:output.obj
 0001:0002db41       ?adjust_hexit@?$output_processor@_WV?$stream_output_adapter@_W@__crt_stdio_output@@V?$positional_parameter_base@_WV?$stream_output_adapter@_W@__crt_stdio_output@@@2@@__crt_stdio_output@@CADH_N@Z 1002eb41 f i libucrt:output.obj
 0001:0002db5a       ?adjust_hexit@?$output_processor@_WV?$stream_output_adapter@_W@__crt_stdio_output@@V?$standard_base@_WV?$stream_output_adapter@_W@__crt_stdio_output@@@2@@__crt_stdio_output@@CADH_N@Z 1002eb5a f i libucrt:output.obj
 0001:0002db73       ?adjust_hexit@?$output_processor@_WV?$string_output_adapter@_W@__crt_stdio_output@@V?$format_validation_base@_WV?$string_output_adapter@_W@__crt_stdio_output@@@2@@__crt_stdio_output@@CADH_N@Z 1002eb73 f i libucrt:output.obj
 0001:0002db8c       ?adjust_hexit@?$output_processor@_WV?$string_output_adapter@_W@__crt_stdio_output@@V?$positional_parameter_base@_WV?$string_output_adapter@_W@__crt_stdio_output@@@2@@__crt_stdio_output@@CADH_N@Z 1002eb8c f i libucrt:output.obj
 0001:0002dba5       ?adjust_hexit@?$output_processor@_WV?$string_output_adapter@_W@__crt_stdio_output@@V?$standard_base@_WV?$string_output_adapter@_W@__crt_stdio_output@@@2@@__crt_stdio_output@@CADH_N@Z 1002eba5 f i libucrt:output.obj
 0001:0002dbbe       ?advance_to_next_pass@?$positional_parameter_base@DV?$stream_output_adapter@D@__crt_stdio_output@@@__crt_stdio_output@@IAE_NXZ 1002ebbe f i libucrt:output.obj
 0001:0002dc1d       ?advance_to_next_pass@?$positional_parameter_base@DV?$string_output_adapter@D@__crt_stdio_output@@@__crt_stdio_output@@IAE_NXZ 1002ec1d f i libucrt:output.obj
 0001:0002dc7c       ?advance_to_next_pass@?$positional_parameter_base@_WV?$stream_output_adapter@_W@__crt_stdio_output@@@__crt_stdio_output@@IAE_NXZ 1002ec7c f i libucrt:output.obj
 0001:0002dcdb       ?advance_to_next_pass@?$positional_parameter_base@_WV?$string_output_adapter@_W@__crt_stdio_output@@@__crt_stdio_output@@IAE_NXZ 1002ecdb f i libucrt:output.obj
 0001:0002dd3a       ?advance_to_next_pass@?$standard_base@DV?$stream_output_adapter@D@__crt_stdio_output@@@__crt_stdio_output@@IAE_NXZ 1002ed3a f i libucrt:output.obj
 0001:0002dd4f       ?advance_to_next_pass@?$standard_base@DV?$string_output_adapter@D@__crt_stdio_output@@@__crt_stdio_output@@IAE_NXZ 1002ed4f f i libucrt:output.obj
 0001:0002dd64       ?advance_to_next_pass@?$standard_base@_WV?$stream_output_adapter@_W@__crt_stdio_output@@@__crt_stdio_output@@IAE_NXZ 1002ed64 f i libucrt:output.obj
 0001:0002dd79       ?advance_to_next_pass@?$standard_base@_WV?$string_output_adapter@_W@__crt_stdio_output@@@__crt_stdio_output@@IAE_NXZ 1002ed79 f i libucrt:output.obj
 0001:0002dd8e       ?crop_zeroes@__crt_stdio_output@@YAXPADQAU__crt_locale_pointers@@@Z 1002ed8e f i libucrt:output.obj
 0001:0002de06       ?find_next_state@?$output_processor@DV?$stream_output_adapter@D@__crt_stdio_output@@V?$format_validation_base@DV?$stream_output_adapter@D@__crt_stdio_output@@@2@@__crt_stdio_output@@ABE?AW4state@2@DW432@@Z 1002ee06 f i libucrt:output.obj
 0001:0002de58       ?find_next_state@?$output_processor@DV?$stream_output_adapter@D@__crt_stdio_output@@V?$positional_parameter_base@DV?$stream_output_adapter@D@__crt_stdio_output@@@2@@__crt_stdio_output@@ABE?AW4state@2@DW432@@Z 1002ee58 f i libucrt:output.obj
 0001:0002deaa       ?find_next_state@?$output_processor@DV?$stream_output_adapter@D@__crt_stdio_output@@V?$standard_base@DV?$stream_output_adapter@D@__crt_stdio_output@@@2@@__crt_stdio_output@@ABE?AW4state@2@DW432@@Z 1002eeaa f i libucrt:output.obj
 0001:0002def8       ?find_next_state@?$output_processor@DV?$string_output_adapter@D@__crt_stdio_output@@V?$format_validation_base@DV?$string_output_adapter@D@__crt_stdio_output@@@2@@__crt_stdio_output@@ABE?AW4state@2@DW432@@Z 1002eef8 f i libucrt:output.obj
 0001:0002df4a       ?find_next_state@?$output_processor@DV?$string_output_adapter@D@__crt_stdio_output@@V?$positional_parameter_base@DV?$string_output_adapter@D@__crt_stdio_output@@@2@@__crt_stdio_output@@ABE?AW4state@2@DW432@@Z 1002ef4a f i libucrt:output.obj
 0001:0002df9c       ?find_next_state@?$output_processor@DV?$string_output_adapter@D@__crt_stdio_output@@V?$standard_base@DV?$string_output_adapter@D@__crt_stdio_output@@@2@@__crt_stdio_output@@ABE?AW4state@2@DW432@@Z 1002ef9c f i libucrt:output.obj
 0001:0002dfea       ?find_next_state@?$output_processor@_WV?$stream_output_adapter@_W@__crt_stdio_output@@V?$format_validation_base@_WV?$stream_output_adapter@_W@__crt_stdio_output@@@2@@__crt_stdio_output@@ABE?AW4state@2@_WW432@@Z 1002efea f i libucrt:output.obj
 0001:0002e03f       ?find_next_state@?$output_processor@_WV?$stream_output_adapter@_W@__crt_stdio_output@@V?$positional_parameter_base@_WV?$stream_output_adapter@_W@__crt_stdio_output@@@2@@__crt_stdio_output@@ABE?AW4state@2@_WW432@@Z 1002f03f f i libucrt:output.obj
 0001:0002e094       ?find_next_state@?$output_processor@_WV?$stream_output_adapter@_W@__crt_stdio_output@@V?$standard_base@_WV?$stream_output_adapter@_W@__crt_stdio_output@@@2@@__crt_stdio_output@@ABE?AW4state@2@_WW432@@Z 1002f094 f i libucrt:output.obj
 0001:0002e0e5       ?find_next_state@?$output_processor@_WV?$string_output_adapter@_W@__crt_stdio_output@@V?$format_validation_base@_WV?$string_output_adapter@_W@__crt_stdio_output@@@2@@__crt_stdio_output@@ABE?AW4state@2@_WW432@@Z 1002f0e5 f i libucrt:output.obj
 0001:0002e13a       ?find_next_state@?$output_processor@_WV?$string_output_adapter@_W@__crt_stdio_output@@V?$positional_parameter_base@_WV?$string_output_adapter@_W@__crt_stdio_output@@@2@@__crt_stdio_output@@ABE?AW4state@2@_WW432@@Z 1002f13a f i libucrt:output.obj
 0001:0002e18f       ?find_next_state@?$output_processor@_WV?$string_output_adapter@_W@__crt_stdio_output@@V?$standard_base@_WV?$string_output_adapter@_W@__crt_stdio_output@@@2@@__crt_stdio_output@@ABE?AW4state@2@_WW432@@Z 1002f18f f i libucrt:output.obj
 0001:0002e1e0       ?force_decimal_point@__crt_stdio_output@@YAXPADQAU__crt_locale_pointers@@@Z 1002f1e0 f i libucrt:output.obj
 0001:0002e253       ?get@__crt_deferred_errno_cache@@QAEAAHXZ 1002f253 f i libucrt:output.obj
 0001:0002e26c       ?get_parameter_type@?$positional_parameter_base@DV?$stream_output_adapter@D@__crt_stdio_output@@@__crt_stdio_output@@CA?AW4parameter_type@12@F@Z 1002f26c f i libucrt:output.obj
 0001:0002e270       ?get_parameter_type@?$positional_parameter_base@DV?$stream_output_adapter@D@__crt_stdio_output@@@__crt_stdio_output@@CA?AW4parameter_type@12@G@Z 1002f270 f i libucrt:output.obj
 0001:0002e274       ?get_parameter_type@?$positional_parameter_base@DV?$stream_output_adapter@D@__crt_stdio_output@@@__crt_stdio_output@@CA?AW4parameter_type@12@H@Z 1002f274 f i libucrt:output.obj
 0001:0002e278       ?get_parameter_type@?$positional_parameter_base@DV?$stream_output_adapter@D@__crt_stdio_output@@@__crt_stdio_output@@CA?AW4parameter_type@12@I@Z 1002f278 f i libucrt:output.obj
 0001:0002e27c       ?get_parameter_type@?$positional_parameter_base@DV?$stream_output_adapter@D@__crt_stdio_output@@@__crt_stdio_output@@CA?AW4parameter_type@12@U_CRT_DOUBLE@@@Z 1002f27c f i libucrt:output.obj
 0001:0002e280       ?get_parameter_type@?$positional_parameter_base@DV?$stream_output_adapter@D@__crt_stdio_output@@@__crt_stdio_output@@CA?AW4parameter_type@12@_J@Z 1002f280 f i libucrt:output.obj
 0001:0002e284       ?get_parameter_type@?$positional_parameter_base@DV?$stream_output_adapter@D@__crt_stdio_output@@@__crt_stdio_output@@CA?AW4parameter_type@12@_K@Z 1002f284 f i libucrt:output.obj
 0001:0002e288       ?get_parameter_type@?$positional_parameter_base@DV?$stream_output_adapter@D@__crt_stdio_output@@@__crt_stdio_output@@CA?AW4parameter_type@12@_W@Z 1002f288 f i libucrt:output.obj
 0001:0002e28c       ?get_parameter_type@?$positional_parameter_base@DV?$string_output_adapter@D@__crt_stdio_output@@@__crt_stdio_output@@CA?AW4parameter_type@12@F@Z 1002f28c f i libucrt:output.obj
 0001:0002e290       ?get_parameter_type@?$positional_parameter_base@DV?$string_output_adapter@D@__crt_stdio_output@@@__crt_stdio_output@@CA?AW4parameter_type@12@G@Z 1002f290 f i libucrt:output.obj
 0001:0002e294       ?get_parameter_type@?$positional_parameter_base@DV?$string_output_adapter@D@__crt_stdio_output@@@__crt_stdio_output@@CA?AW4parameter_type@12@H@Z 1002f294 f i libucrt:output.obj
 0001:0002e298       ?get_parameter_type@?$positional_parameter_base@DV?$string_output_adapter@D@__crt_stdio_output@@@__crt_stdio_output@@CA?AW4parameter_type@12@I@Z 1002f298 f i libucrt:output.obj
 0001:0002e29c       ?get_parameter_type@?$positional_parameter_base@DV?$string_output_adapter@D@__crt_stdio_output@@@__crt_stdio_output@@CA?AW4parameter_type@12@U_CRT_DOUBLE@@@Z 1002f29c f i libucrt:output.obj
 0001:0002e2a0       ?get_parameter_type@?$positional_parameter_base@DV?$string_output_adapter@D@__crt_stdio_output@@@__crt_stdio_output@@CA?AW4parameter_type@12@_J@Z 1002f2a0 f i libucrt:output.obj
 0001:0002e2a4       ?get_parameter_type@?$positional_parameter_base@DV?$string_output_adapter@D@__crt_stdio_output@@@__crt_stdio_output@@CA?AW4parameter_type@12@_K@Z 1002f2a4 f i libucrt:output.obj
 0001:0002e2a8       ?get_parameter_type@?$positional_parameter_base@DV?$string_output_adapter@D@__crt_stdio_output@@@__crt_stdio_output@@CA?AW4parameter_type@12@_W@Z 1002f2a8 f i libucrt:output.obj
 0001:0002e2ac       ?get_parameter_type@?$positional_parameter_base@_WV?$stream_output_adapter@_W@__crt_stdio_output@@@__crt_stdio_output@@CA?AW4parameter_type@12@F@Z 1002f2ac f i libucrt:output.obj
 0001:0002e2b0       ?get_parameter_type@?$positional_parameter_base@_WV?$stream_output_adapter@_W@__crt_stdio_output@@@__crt_stdio_output@@CA?AW4parameter_type@12@G@Z 1002f2b0 f i libucrt:output.obj
 0001:0002e2b4       ?get_parameter_type@?$positional_parameter_base@_WV?$stream_output_adapter@_W@__crt_stdio_output@@@__crt_stdio_output@@CA?AW4parameter_type@12@H@Z 1002f2b4 f i libucrt:output.obj
 0001:0002e2b8       ?get_parameter_type@?$positional_parameter_base@_WV?$stream_output_adapter@_W@__crt_stdio_output@@@__crt_stdio_output@@CA?AW4parameter_type@12@I@Z 1002f2b8 f i libucrt:output.obj
 0001:0002e2bc       ?get_parameter_type@?$positional_parameter_base@_WV?$stream_output_adapter@_W@__crt_stdio_output@@@__crt_stdio_output@@CA?AW4parameter_type@12@U_CRT_DOUBLE@@@Z 1002f2bc f i libucrt:output.obj
 0001:0002e2c0       ?get_parameter_type@?$positional_parameter_base@_WV?$stream_output_adapter@_W@__crt_stdio_output@@@__crt_stdio_output@@CA?AW4parameter_type@12@_J@Z 1002f2c0 f i libucrt:output.obj
 0001:0002e2c4       ?get_parameter_type@?$positional_parameter_base@_WV?$stream_output_adapter@_W@__crt_stdio_output@@@__crt_stdio_output@@CA?AW4parameter_type@12@_K@Z 1002f2c4 f i libucrt:output.obj
 0001:0002e2c8       ?get_parameter_type@?$positional_parameter_base@_WV?$stream_output_adapter@_W@__crt_stdio_output@@@__crt_stdio_output@@CA?AW4parameter_type@12@_W@Z 1002f2c8 f i libucrt:output.obj
 0001:0002e2cc       ?get_parameter_type@?$positional_parameter_base@_WV?$string_output_adapter@_W@__crt_stdio_output@@@__crt_stdio_output@@CA?AW4parameter_type@12@F@Z 1002f2cc f i libucrt:output.obj
 0001:0002e2d0       ?get_parameter_type@?$positional_parameter_base@_WV?$string_output_adapter@_W@__crt_stdio_output@@@__crt_stdio_output@@CA?AW4parameter_type@12@G@Z 1002f2d0 f i libucrt:output.obj
 0001:0002e2d4       ?get_parameter_type@?$positional_parameter_base@_WV?$string_output_adapter@_W@__crt_stdio_output@@@__crt_stdio_output@@CA?AW4parameter_type@12@H@Z 1002f2d4 f i libucrt:output.obj
 0001:0002e2d8       ?get_parameter_type@?$positional_parameter_base@_WV?$string_output_adapter@_W@__crt_stdio_output@@@__crt_stdio_output@@CA?AW4parameter_type@12@I@Z 1002f2d8 f i libucrt:output.obj
 0001:0002e2dc       ?get_parameter_type@?$positional_parameter_base@_WV?$string_output_adapter@_W@__crt_stdio_output@@@__crt_stdio_output@@CA?AW4parameter_type@12@U_CRT_DOUBLE@@@Z 1002f2dc f i libucrt:output.obj
 0001:0002e2e0       ?get_parameter_type@?$positional_parameter_base@_WV?$string_output_adapter@_W@__crt_stdio_output@@@__crt_stdio_output@@CA?AW4parameter_type@12@_J@Z 1002f2e0 f i libucrt:output.obj
 0001:0002e2e4       ?get_parameter_type@?$positional_parameter_base@_WV?$string_output_adapter@_W@__crt_stdio_output@@@__crt_stdio_output@@CA?AW4parameter_type@12@_K@Z 1002f2e4 f i libucrt:output.obj
 0001:0002e2e8       ?get_parameter_type@?$positional_parameter_base@_WV?$string_output_adapter@_W@__crt_stdio_output@@@__crt_stdio_output@@CA?AW4parameter_type@12@_W@Z 1002f2e8 f i libucrt:output.obj
 0001:0002e2ec       ?has_flag@?$output_processor@DV?$stream_output_adapter@D@__crt_stdio_output@@V?$format_validation_base@DV?$stream_output_adapter@D@__crt_stdio_output@@@2@@__crt_stdio_output@@ABE_NI@Z 1002f2ec f i libucrt:output.obj
 0001:0002e302       ?has_flag@?$output_processor@DV?$stream_output_adapter@D@__crt_stdio_output@@V?$positional_parameter_base@DV?$stream_output_adapter@D@__crt_stdio_output@@@2@@__crt_stdio_output@@ABE_NI@Z 1002f302 f i libucrt:output.obj
 0001:0002e318       ?has_flag@?$output_processor@DV?$stream_output_adapter@D@__crt_stdio_output@@V?$standard_base@DV?$stream_output_adapter@D@__crt_stdio_output@@@2@@__crt_stdio_output@@ABE_NI@Z 1002f318 f i libucrt:output.obj
 0001:0002e32e       ?has_flag@?$output_processor@DV?$string_output_adapter@D@__crt_stdio_output@@V?$format_validation_base@DV?$string_output_adapter@D@__crt_stdio_output@@@2@@__crt_stdio_output@@ABE_NI@Z 1002f32e f i libucrt:output.obj
 0001:0002e344       ?has_flag@?$output_processor@DV?$string_output_adapter@D@__crt_stdio_output@@V?$positional_parameter_base@DV?$string_output_adapter@D@__crt_stdio_output@@@2@@__crt_stdio_output@@ABE_NI@Z 1002f344 f i libucrt:output.obj
 0001:0002e35a       ?has_flag@?$output_processor@DV?$string_output_adapter@D@__crt_stdio_output@@V?$standard_base@DV?$string_output_adapter@D@__crt_stdio_output@@@2@@__crt_stdio_output@@ABE_NI@Z 1002f35a f i libucrt:output.obj
 0001:0002e370       ?has_flag@?$output_processor@_WV?$stream_output_adapter@_W@__crt_stdio_output@@V?$format_validation_base@_WV?$stream_output_adapter@_W@__crt_stdio_output@@@2@@__crt_stdio_output@@ABE_NI@Z 1002f370 f i libucrt:output.obj
 0001:0002e386       ?has_flag@?$output_processor@_WV?$stream_output_adapter@_W@__crt_stdio_output@@V?$positional_parameter_base@_WV?$stream_output_adapter@_W@__crt_stdio_output@@@2@@__crt_stdio_output@@ABE_NI@Z 1002f386 f i libucrt:output.obj
 0001:0002e39c       ?has_flag@?$output_processor@_WV?$stream_output_adapter@_W@__crt_stdio_output@@V?$standard_base@_WV?$stream_output_adapter@_W@__crt_stdio_output@@@2@@__crt_stdio_output@@ABE_NI@Z 1002f39c f i libucrt:output.obj
 0001:0002e3b2       ?has_flag@?$output_processor@_WV?$string_output_adapter@_W@__crt_stdio_output@@V?$format_validation_base@_WV?$string_output_adapter@_W@__crt_stdio_output@@@2@@__crt_stdio_output@@ABE_NI@Z 1002f3b2 f i libucrt:output.obj
 0001:0002e3c8       ?has_flag@?$output_processor@_WV?$string_output_adapter@_W@__crt_stdio_output@@V?$positional_parameter_base@_WV?$string_output_adapter@_W@__crt_stdio_output@@@2@@__crt_stdio_output@@ABE_NI@Z 1002f3c8 f i libucrt:output.obj
 0001:0002e3de       ?has_flag@?$output_processor@_WV?$string_output_adapter@_W@__crt_stdio_output@@V?$standard_base@_WV?$string_output_adapter@_W@__crt_stdio_output@@@2@@__crt_stdio_output@@ABE_NI@Z 1002f3de f i libucrt:output.obj
 0001:0002e3f4       ?is_positional_parameter_reappearance_consistent@?$positional_parameter_base@DV?$stream_output_adapter@D@__crt_stdio_output@@@__crt_stdio_output@@AAE_NABUparameter_data@12@W4parameter_type@12@DW4length_modifier@2@@Z 1002f3f4 f i libucrt:output.obj
 0001:0002e554       ?is_positional_parameter_reappearance_consistent@?$positional_parameter_base@DV?$string_output_adapter@D@__crt_stdio_output@@@__crt_stdio_output@@AAE_NABUparameter_data@12@W4parameter_type@12@DW4length_modifier@2@@Z 1002f554 f i libucrt:output.obj
 0001:0002e6b4       ?is_positional_parameter_reappearance_consistent@?$positional_parameter_base@_WV?$stream_output_adapter@_W@__crt_stdio_output@@@__crt_stdio_output@@AAE_NABUparameter_data@12@W4parameter_type@12@_WW4length_modifier@2@@Z 1002f6b4 f i libucrt:output.obj
 0001:0002e813       ?is_positional_parameter_reappearance_consistent@?$positional_parameter_base@_WV?$string_output_adapter@_W@__crt_stdio_output@@@__crt_stdio_output@@AAE_NABUparameter_data@12@W4parameter_type@12@_WW4length_modifier@2@@Z 1002f813 f i libucrt:output.obj
 0001:0002e972       ?narrow_null_string@?$output_processor@DV?$stream_output_adapter@D@__crt_stdio_output@@V?$format_validation_base@DV?$stream_output_adapter@D@__crt_stdio_output@@@2@@__crt_stdio_output@@CAPADXZ 1002f972 f i libucrt:output.obj
 0001:0002e978       ?narrow_null_string@?$output_processor@DV?$stream_output_adapter@D@__crt_stdio_output@@V?$positional_parameter_base@DV?$stream_output_adapter@D@__crt_stdio_output@@@2@@__crt_stdio_output@@CAPADXZ 1002f978 f i libucrt:output.obj
 0001:0002e97e       ?narrow_null_string@?$output_processor@DV?$stream_output_adapter@D@__crt_stdio_output@@V?$standard_base@DV?$stream_output_adapter@D@__crt_stdio_output@@@2@@__crt_stdio_output@@CAPADXZ 1002f97e f i libucrt:output.obj
 0001:0002e984       ?narrow_null_string@?$output_processor@DV?$string_output_adapter@D@__crt_stdio_output@@V?$format_validation_base@DV?$string_output_adapter@D@__crt_stdio_output@@@2@@__crt_stdio_output@@CAPADXZ 1002f984 f i libucrt:output.obj
 0001:0002e98a       ?narrow_null_string@?$output_processor@DV?$string_output_adapter@D@__crt_stdio_output@@V?$positional_parameter_base@DV?$string_output_adapter@D@__crt_stdio_output@@@2@@__crt_stdio_output@@CAPADXZ 1002f98a f i libucrt:output.obj
 0001:0002e990       ?narrow_null_string@?$output_processor@DV?$string_output_adapter@D@__crt_stdio_output@@V?$standard_base@DV?$string_output_adapter@D@__crt_stdio_output@@@2@@__crt_stdio_output@@CAPADXZ 1002f990 f i libucrt:output.obj
 0001:0002e996       ?narrow_null_string@?$output_processor@_WV?$stream_output_adapter@_W@__crt_stdio_output@@V?$format_validation_base@_WV?$stream_output_adapter@_W@__crt_stdio_output@@@2@@__crt_stdio_output@@CAPADXZ 1002f996 f i libucrt:output.obj
 0001:0002e99c       ?narrow_null_string@?$output_processor@_WV?$stream_output_adapter@_W@__crt_stdio_output@@V?$positional_parameter_base@_WV?$stream_output_adapter@_W@__crt_stdio_output@@@2@@__crt_stdio_output@@CAPADXZ 1002f99c f i libucrt:output.obj
 0001:0002e9a2       ?narrow_null_string@?$output_processor@_WV?$stream_output_adapter@_W@__crt_stdio_output@@V?$standard_base@_WV?$stream_output_adapter@_W@__crt_stdio_output@@@2@@__crt_stdio_output@@CAPADXZ 1002f9a2 f i libucrt:output.obj
 0001:0002e9a8       ?narrow_null_string@?$output_processor@_WV?$string_output_adapter@_W@__crt_stdio_output@@V?$format_validation_base@_WV?$string_output_adapter@_W@__crt_stdio_output@@@2@@__crt_stdio_output@@CAPADXZ 1002f9a8 f i libucrt:output.obj
 0001:0002e9ae       ?narrow_null_string@?$output_processor@_WV?$string_output_adapter@_W@__crt_stdio_output@@V?$positional_parameter_base@_WV?$string_output_adapter@_W@__crt_stdio_output@@@2@@__crt_stdio_output@@CAPADXZ 1002f9ae f i libucrt:output.obj
 0001:0002e9b4       ?narrow_null_string@?$output_processor@_WV?$string_output_adapter@_W@__crt_stdio_output@@V?$standard_base@_WV?$string_output_adapter@_W@__crt_stdio_output@@@2@@__crt_stdio_output@@CAPADXZ 1002f9b4 f i libucrt:output.obj
 0001:0002e9ba       ?parse_int_from_format_string@?$output_processor@DV?$stream_output_adapter@D@__crt_stdio_output@@V?$format_validation_base@DV?$stream_output_adapter@D@__crt_stdio_output@@@2@@__crt_stdio_output@@AAE_NQAH@Z 1002f9ba f i libucrt:output.obj
 0001:0002ea4d       ?parse_int_from_format_string@?$output_processor@DV?$stream_output_adapter@D@__crt_stdio_output@@V?$positional_parameter_base@DV?$stream_output_adapter@D@__crt_stdio_output@@@2@@__crt_stdio_output@@AAE_NQAH@Z 1002fa4d f i libucrt:output.obj
 0001:0002eae0       ?parse_int_from_format_string@?$output_processor@DV?$stream_output_adapter@D@__crt_stdio_output@@V?$standard_base@DV?$stream_output_adapter@D@__crt_stdio_output@@@2@@__crt_stdio_output@@AAE_NQAH@Z 1002fae0 f i libucrt:output.obj
 0001:0002eb73       ?parse_int_from_format_string@?$output_processor@DV?$string_output_adapter@D@__crt_stdio_output@@V?$format_validation_base@DV?$string_output_adapter@D@__crt_stdio_output@@@2@@__crt_stdio_output@@AAE_NQAH@Z 1002fb73 f i libucrt:output.obj
 0001:0002ec06       ?parse_int_from_format_string@?$output_processor@DV?$string_output_adapter@D@__crt_stdio_output@@V?$positional_parameter_base@DV?$string_output_adapter@D@__crt_stdio_output@@@2@@__crt_stdio_output@@AAE_NQAH@Z 1002fc06 f i libucrt:output.obj
 0001:0002ec99       ?parse_int_from_format_string@?$output_processor@DV?$string_output_adapter@D@__crt_stdio_output@@V?$standard_base@DV?$string_output_adapter@D@__crt_stdio_output@@@2@@__crt_stdio_output@@AAE_NQAH@Z 1002fc99 f i libucrt:output.obj
 0001:0002ed2c       ?parse_int_from_format_string@?$output_processor@_WV?$stream_output_adapter@_W@__crt_stdio_output@@V?$format_validation_base@_WV?$stream_output_adapter@_W@__crt_stdio_output@@@2@@__crt_stdio_output@@AAE_NQAH@Z 1002fd2c f i libucrt:output.obj
 0001:0002edc2       ?parse_int_from_format_string@?$output_processor@_WV?$stream_output_adapter@_W@__crt_stdio_output@@V?$positional_parameter_base@_WV?$stream_output_adapter@_W@__crt_stdio_output@@@2@@__crt_stdio_output@@AAE_NQAH@Z 1002fdc2 f i libucrt:output.obj
 0001:0002ee58       ?parse_int_from_format_string@?$output_processor@_WV?$stream_output_adapter@_W@__crt_stdio_output@@V?$standard_base@_WV?$stream_output_adapter@_W@__crt_stdio_output@@@2@@__crt_stdio_output@@AAE_NQAH@Z 1002fe58 f i libucrt:output.obj
 0001:0002eeee       ?parse_int_from_format_string@?$output_processor@_WV?$string_output_adapter@_W@__crt_stdio_output@@V?$format_validation_base@_WV?$string_output_adapter@_W@__crt_stdio_output@@@2@@__crt_stdio_output@@AAE_NQAH@Z 1002feee f i libucrt:output.obj
 0001:0002ef84       ?parse_int_from_format_string@?$output_processor@_WV?$string_output_adapter@_W@__crt_stdio_output@@V?$positional_parameter_base@_WV?$string_output_adapter@_W@__crt_stdio_output@@@2@@__crt_stdio_output@@AAE_NQAH@Z 1002ff84 f i libucrt:output.obj
 0001:0002f01a       ?parse_int_from_format_string@?$output_processor@_WV?$string_output_adapter@_W@__crt_stdio_output@@V?$standard_base@_WV?$string_output_adapter@_W@__crt_stdio_output@@@2@@__crt_stdio_output@@AAE_NQAH@Z 1003001a f i libucrt:output.obj
 0001:0002f0b0       ?process@?$output_processor@DV?$stream_output_adapter@D@__crt_stdio_output@@V?$format_validation_base@DV?$stream_output_adapter@D@__crt_stdio_output@@@2@@__crt_stdio_output@@QAEHXZ 100300b0 f i libucrt:output.obj
 0001:0002f222       ?process@?$output_processor@DV?$stream_output_adapter@D@__crt_stdio_output@@V?$positional_parameter_base@DV?$stream_output_adapter@D@__crt_stdio_output@@@2@@__crt_stdio_output@@QAEHXZ 10030222 f i libucrt:output.obj
 0001:0002f3d5       ?process@?$output_processor@DV?$stream_output_adapter@D@__crt_stdio_output@@V?$standard_base@DV?$stream_output_adapter@D@__crt_stdio_output@@@2@@__crt_stdio_output@@QAEHXZ 100303d5 f i libucrt:output.obj
 0001:0002f538       ?process@?$output_processor@DV?$string_output_adapter@D@__crt_stdio_output@@V?$format_validation_base@DV?$string_output_adapter@D@__crt_stdio_output@@@2@@__crt_stdio_output@@QAEHXZ 10030538 f i libucrt:output.obj
 0001:0002f6aa       ?process@?$output_processor@DV?$string_output_adapter@D@__crt_stdio_output@@V?$positional_parameter_base@DV?$string_output_adapter@D@__crt_stdio_output@@@2@@__crt_stdio_output@@QAEHXZ 100306aa f i libucrt:output.obj
 0001:0002f85d       ?process@?$output_processor@DV?$string_output_adapter@D@__crt_stdio_output@@V?$standard_base@DV?$string_output_adapter@D@__crt_stdio_output@@@2@@__crt_stdio_output@@QAEHXZ 1003085d f i libucrt:output.obj
 0001:0002f9c0       ?process@?$output_processor@_WV?$stream_output_adapter@_W@__crt_stdio_output@@V?$format_validation_base@_WV?$stream_output_adapter@_W@__crt_stdio_output@@@2@@__crt_stdio_output@@QAEHXZ 100309c0 f i libucrt:output.obj
 0001:0002fb3c       ?process@?$output_processor@_WV?$stream_output_adapter@_W@__crt_stdio_output@@V?$positional_parameter_base@_WV?$stream_output_adapter@_W@__crt_stdio_output@@@2@@__crt_stdio_output@@QAEHXZ 10030b3c f i libucrt:output.obj
 0001:0002fcf4       ?process@?$output_processor@_WV?$stream_output_adapter@_W@__crt_stdio_output@@V?$standard_base@_WV?$stream_output_adapter@_W@__crt_stdio_output@@@2@@__crt_stdio_output@@QAEHXZ 10030cf4 f i libucrt:output.obj
 0001:0002fe5c       ?process@?$output_processor@_WV?$string_output_adapter@_W@__crt_stdio_output@@V?$format_validation_base@_WV?$string_output_adapter@_W@__crt_stdio_output@@@2@@__crt_stdio_output@@QAEHXZ 10030e5c f i libucrt:output.obj
 0001:0002ffd8       ?process@?$output_processor@_WV?$string_output_adapter@_W@__crt_stdio_output@@V?$positional_parameter_base@_WV?$string_output_adapter@_W@__crt_stdio_output@@@2@@__crt_stdio_output@@QAEHXZ 10030fd8 f i libucrt:output.obj
 0001:00030190       ?process@?$output_processor@_WV?$string_output_adapter@_W@__crt_stdio_output@@V?$standard_base@_WV?$string_output_adapter@_W@__crt_stdio_output@@@2@@__crt_stdio_output@@QAEHXZ 10031190 f i libucrt:output.obj
 0001:000302f8       ?set_flag@?$output_processor@DV?$stream_output_adapter@D@__crt_stdio_output@@V?$format_validation_base@DV?$stream_output_adapter@D@__crt_stdio_output@@@2@@__crt_stdio_output@@AAEXI@Z 100312f8 f i libucrt:output.obj
 0001:0003030a       ?set_flag@?$output_processor@DV?$stream_output_adapter@D@__crt_stdio_output@@V?$positional_parameter_base@DV?$stream_output_adapter@D@__crt_stdio_output@@@2@@__crt_stdio_output@@AAEXI@Z 1003130a f i libucrt:output.obj
 0001:0003031c       ?set_flag@?$output_processor@DV?$stream_output_adapter@D@__crt_stdio_output@@V?$standard_base@DV?$stream_output_adapter@D@__crt_stdio_output@@@2@@__crt_stdio_output@@AAEXI@Z 1003131c f i libucrt:output.obj
 0001:0003032e       ?set_flag@?$output_processor@DV?$string_output_adapter@D@__crt_stdio_output@@V?$format_validation_base@DV?$string_output_adapter@D@__crt_stdio_output@@@2@@__crt_stdio_output@@AAEXI@Z 1003132e f i libucrt:output.obj
 0001:00030340       ?set_flag@?$output_processor@DV?$string_output_adapter@D@__crt_stdio_output@@V?$positional_parameter_base@DV?$string_output_adapter@D@__crt_stdio_output@@@2@@__crt_stdio_output@@AAEXI@Z 10031340 f i libucrt:output.obj
 0001:00030352       ?set_flag@?$output_processor@DV?$string_output_adapter@D@__crt_stdio_output@@V?$standard_base@DV?$string_output_adapter@D@__crt_stdio_output@@@2@@__crt_stdio_output@@AAEXI@Z 10031352 f i libucrt:output.obj
 0001:00030364       ?set_flag@?$output_processor@_WV?$stream_output_adapter@_W@__crt_stdio_output@@V?$format_validation_base@_WV?$stream_output_adapter@_W@__crt_stdio_output@@@2@@__crt_stdio_output@@AAEXI@Z 10031364 f i libucrt:output.obj
 0001:00030376       ?set_flag@?$output_processor@_WV?$stream_output_adapter@_W@__crt_stdio_output@@V?$positional_parameter_base@_WV?$stream_output_adapter@_W@__crt_stdio_output@@@2@@__crt_stdio_output@@AAEXI@Z 10031376 f i libucrt:output.obj
 0001:00030388       ?set_flag@?$output_processor@_WV?$stream_output_adapter@_W@__crt_stdio_output@@V?$standard_base@_WV?$stream_output_adapter@_W@__crt_stdio_output@@@2@@__crt_stdio_output@@AAEXI@Z 10031388 f i libucrt:output.obj
 0001:0003039a       ?set_flag@?$output_processor@_WV?$string_output_adapter@_W@__crt_stdio_output@@V?$format_validation_base@_WV?$string_output_adapter@_W@__crt_stdio_output@@@2@@__crt_stdio_output@@AAEXI@Z 1003139a f i libucrt:output.obj
 0001:000303ac       ?set_flag@?$output_processor@_WV?$string_output_adapter@_W@__crt_stdio_output@@V?$positional_parameter_base@_WV?$string_output_adapter@_W@__crt_stdio_output@@@2@@__crt_stdio_output@@AAEXI@Z 100313ac f i libucrt:output.obj
 0001:000303be       ?set_flag@?$output_processor@_WV?$string_output_adapter@_W@__crt_stdio_output@@V?$standard_base@_WV?$string_output_adapter@_W@__crt_stdio_output@@@2@@__crt_stdio_output@@AAEXI@Z 100313be f i libucrt:output.obj
 0001:000303d0       ?should_format@?$positional_parameter_base@DV?$stream_output_adapter@D@__crt_stdio_output@@@__crt_stdio_output@@IAE_NXZ 100313d0 f i libucrt:output.obj
 0001:000303eb       ?should_format@?$positional_parameter_base@DV?$string_output_adapter@D@__crt_stdio_output@@@__crt_stdio_output@@IAE_NXZ 100313eb f i libucrt:output.obj
 0001:00030406       ?should_format@?$positional_parameter_base@_WV?$stream_output_adapter@_W@__crt_stdio_output@@@__crt_stdio_output@@IAE_NXZ 10031406 f i libucrt:output.obj
 0001:00030421       ?should_format@?$positional_parameter_base@_WV?$string_output_adapter@_W@__crt_stdio_output@@@__crt_stdio_output@@IAE_NXZ 10031421 f i libucrt:output.obj
 0001:0003043c       ?should_format@?$standard_base@DV?$stream_output_adapter@D@__crt_stdio_output@@@__crt_stdio_output@@IAE_NXZ 1003143c f i libucrt:output.obj
 0001:0003043f       ?should_format@?$standard_base@DV?$string_output_adapter@D@__crt_stdio_output@@@__crt_stdio_output@@IAE_NXZ 1003143f f i libucrt:output.obj
 0001:00030442       ?should_format@?$standard_base@_WV?$stream_output_adapter@_W@__crt_stdio_output@@@__crt_stdio_output@@IAE_NXZ 10031442 f i libucrt:output.obj
 0001:00030445       ?should_format@?$standard_base@_WV?$string_output_adapter@_W@__crt_stdio_output@@@__crt_stdio_output@@IAE_NXZ 10031445 f i libucrt:output.obj
 0001:00030448       ?should_skip_normal_state_processing@?$positional_parameter_base@DV?$stream_output_adapter@D@__crt_stdio_output@@@__crt_stdio_output@@IAE_NXZ 10031448 f i libucrt:output.obj
 0001:0003047a       ?should_skip_normal_state_processing@?$positional_parameter_base@DV?$string_output_adapter@D@__crt_stdio_output@@@__crt_stdio_output@@IAE_NXZ 1003147a f i libucrt:output.obj
 0001:000304ac       ?should_skip_normal_state_processing@?$positional_parameter_base@_WV?$stream_output_adapter@_W@__crt_stdio_output@@@__crt_stdio_output@@IAE_NXZ 100314ac f i libucrt:output.obj
 0001:000304de       ?should_skip_normal_state_processing@?$positional_parameter_base@_WV?$string_output_adapter@_W@__crt_stdio_output@@@__crt_stdio_output@@IAE_NXZ 100314de f i libucrt:output.obj
 0001:00030510       ?should_skip_normal_state_processing@?$standard_base@DV?$stream_output_adapter@D@__crt_stdio_output@@@__crt_stdio_output@@IAE_NXZ 10031510 f i libucrt:output.obj
 0001:00030513       ?should_skip_normal_state_processing@?$standard_base@DV?$string_output_adapter@D@__crt_stdio_output@@@__crt_stdio_output@@IAE_NXZ 10031513 f i libucrt:output.obj
 0001:00030516       ?should_skip_normal_state_processing@?$standard_base@_WV?$stream_output_adapter@_W@__crt_stdio_output@@@__crt_stdio_output@@IAE_NXZ 10031516 f i libucrt:output.obj
 0001:00030519       ?should_skip_normal_state_processing@?$standard_base@_WV?$string_output_adapter@_W@__crt_stdio_output@@@__crt_stdio_output@@IAE_NXZ 10031519 f i libucrt:output.obj
 0001:0003051c       ?should_skip_type_state_output@?$positional_parameter_base@DV?$stream_output_adapter@D@__crt_stdio_output@@@__crt_stdio_output@@IBE_NXZ 1003151c f i libucrt:output.obj
 0001:00030538       ?should_skip_type_state_output@?$positional_parameter_base@DV?$string_output_adapter@D@__crt_stdio_output@@@__crt_stdio_output@@IBE_NXZ 10031538 f i libucrt:output.obj
 0001:00030554       ?should_skip_type_state_output@?$positional_parameter_base@_WV?$stream_output_adapter@_W@__crt_stdio_output@@@__crt_stdio_output@@IBE_NXZ 10031554 f i libucrt:output.obj
 0001:00030570       ?should_skip_type_state_output@?$positional_parameter_base@_WV?$string_output_adapter@_W@__crt_stdio_output@@@__crt_stdio_output@@IBE_NXZ 10031570 f i libucrt:output.obj
 0001:0003058c       ?should_skip_type_state_output@?$standard_base@DV?$stream_output_adapter@D@__crt_stdio_output@@@__crt_stdio_output@@IBE_NXZ 1003158c f i libucrt:output.obj
 0001:0003058f       ?should_skip_type_state_output@?$standard_base@DV?$string_output_adapter@D@__crt_stdio_output@@@__crt_stdio_output@@IBE_NXZ 1003158f f i libucrt:output.obj
 0001:00030592       ?should_skip_type_state_output@?$standard_base@_WV?$stream_output_adapter@_W@__crt_stdio_output@@@__crt_stdio_output@@IBE_NXZ 10031592 f i libucrt:output.obj
 0001:00030595       ?should_skip_type_state_output@?$standard_base@_WV?$string_output_adapter@_W@__crt_stdio_output@@@__crt_stdio_output@@IBE_NXZ 10031595 f i libucrt:output.obj
 0001:00030598       ?state_case_dot@?$output_processor@DV?$stream_output_adapter@D@__crt_stdio_output@@V?$format_validation_base@DV?$stream_output_adapter@D@__crt_stdio_output@@@2@@__crt_stdio_output@@AAE_NXZ 10031598 f i libucrt:output.obj
 0001:0003059f       ?state_case_dot@?$output_processor@DV?$stream_output_adapter@D@__crt_stdio_output@@V?$positional_parameter_base@DV?$stream_output_adapter@D@__crt_stdio_output@@@2@@__crt_stdio_output@@AAE_NXZ 1003159f f i libucrt:output.obj
 0001:000305a6       ?state_case_dot@?$output_processor@DV?$stream_output_adapter@D@__crt_stdio_output@@V?$standard_base@DV?$stream_output_adapter@D@__crt_stdio_output@@@2@@__crt_stdio_output@@AAE_NXZ 100315a6 f i libucrt:output.obj
 0001:000305ad       ?state_case_dot@?$output_processor@DV?$string_output_adapter@D@__crt_stdio_output@@V?$format_validation_base@DV?$string_output_adapter@D@__crt_stdio_output@@@2@@__crt_stdio_output@@AAE_NXZ 100315ad f i libucrt:output.obj
 0001:000305b4       ?state_case_dot@?$output_processor@DV?$string_output_adapter@D@__crt_stdio_output@@V?$positional_parameter_base@DV?$string_output_adapter@D@__crt_stdio_output@@@2@@__crt_stdio_output@@AAE_NXZ 100315b4 f i libucrt:output.obj
 0001:000305bb       ?state_case_dot@?$output_processor@DV?$string_output_adapter@D@__crt_stdio_output@@V?$standard_base@DV?$string_output_adapter@D@__crt_stdio_output@@@2@@__crt_stdio_output@@AAE_NXZ 100315bb f i libucrt:output.obj
 0001:000305c2       ?state_case_dot@?$output_processor@_WV?$stream_output_adapter@_W@__crt_stdio_output@@V?$format_validation_base@_WV?$stream_output_adapter@_W@__crt_stdio_output@@@2@@__crt_stdio_output@@AAE_NXZ 100315c2 f i libucrt:output.obj
 0001:000305c9       ?state_case_dot@?$output_processor@_WV?$stream_output_adapter@_W@__crt_stdio_output@@V?$positional_parameter_base@_WV?$stream_output_adapter@_W@__crt_stdio_output@@@2@@__crt_stdio_output@@AAE_NXZ 100315c9 f i libucrt:output.obj
 0001:000305d0       ?state_case_dot@?$output_processor@_WV?$stream_output_adapter@_W@__crt_stdio_output@@V?$standard_base@_WV?$stream_output_adapter@_W@__crt_stdio_output@@@2@@__crt_stdio_output@@AAE_NXZ 100315d0 f i libucrt:output.obj
 0001:000305d7       ?state_case_dot@?$output_processor@_WV?$string_output_adapter@_W@__crt_stdio_output@@V?$format_validation_base@_WV?$string_output_adapter@_W@__crt_stdio_output@@@2@@__crt_stdio_output@@AAE_NXZ 100315d7 f i libucrt:output.obj
 0001:000305de       ?state_case_dot@?$output_processor@_WV?$string_output_adapter@_W@__crt_stdio_output@@V?$positional_parameter_base@_WV?$string_output_adapter@_W@__crt_stdio_output@@@2@@__crt_stdio_output@@AAE_NXZ 100315de f i libucrt:output.obj
 0001:000305e5       ?state_case_dot@?$output_processor@_WV?$string_output_adapter@_W@__crt_stdio_output@@V?$standard_base@_WV?$string_output_adapter@_W@__crt_stdio_output@@@2@@__crt_stdio_output@@AAE_NXZ 100315e5 f i libucrt:output.obj
 0001:000305ec       ?state_case_flag@?$output_processor@DV?$stream_output_adapter@D@__crt_stdio_output@@V?$format_validation_base@DV?$stream_output_adapter@D@__crt_stdio_output@@@2@@__crt_stdio_output@@AAE_NXZ 100315ec f i libucrt:output.obj
 0001:00030638       ?state_case_flag@?$output_processor@DV?$stream_output_adapter@D@__crt_stdio_output@@V?$positional_parameter_base@DV?$stream_output_adapter@D@__crt_stdio_output@@@2@@__crt_stdio_output@@AAE_NXZ 10031638 f i libucrt:output.obj
 0001:00030684       ?state_case_flag@?$output_processor@DV?$stream_output_adapter@D@__crt_stdio_output@@V?$standard_base@DV?$stream_output_adapter@D@__crt_stdio_output@@@2@@__crt_stdio_output@@AAE_NXZ 10031684 f i libucrt:output.obj
 0001:000306d0       ?state_case_flag@?$output_processor@DV?$string_output_adapter@D@__crt_stdio_output@@V?$format_validation_base@DV?$string_output_adapter@D@__crt_stdio_output@@@2@@__crt_stdio_output@@AAE_NXZ 100316d0 f i libucrt:output.obj
 0001:0003071c       ?state_case_flag@?$output_processor@DV?$string_output_adapter@D@__crt_stdio_output@@V?$positional_parameter_base@DV?$string_output_adapter@D@__crt_stdio_output@@@2@@__crt_stdio_output@@AAE_NXZ 1003171c f i libucrt:output.obj
 0001:00030768       ?state_case_flag@?$output_processor@DV?$string_output_adapter@D@__crt_stdio_output@@V?$standard_base@DV?$string_output_adapter@D@__crt_stdio_output@@@2@@__crt_stdio_output@@AAE_NXZ 10031768 f i libucrt:output.obj
 0001:000307b4       ?state_case_flag@?$output_processor@_WV?$stream_output_adapter@_W@__crt_stdio_output@@V?$format_validation_base@_WV?$stream_output_adapter@_W@__crt_stdio_output@@@2@@__crt_stdio_output@@AAE_NXZ 100317b4 f i libucrt:output.obj
 0001:00030800       ?state_case_flag@?$output_processor@_WV?$stream_output_adapter@_W@__crt_stdio_output@@V?$positional_parameter_base@_WV?$stream_output_adapter@_W@__crt_stdio_output@@@2@@__crt_stdio_output@@AAE_NXZ 10031800 f i libucrt:output.obj
 0001:0003084c       ?state_case_flag@?$output_processor@_WV?$stream_output_adapter@_W@__crt_stdio_output@@V?$standard_base@_WV?$stream_output_adapter@_W@__crt_stdio_output@@@2@@__crt_stdio_output@@AAE_NXZ 1003184c f i libucrt:output.obj
 0001:00030898       ?state_case_flag@?$output_processor@_WV?$string_output_adapter@_W@__crt_stdio_output@@V?$format_validation_base@_WV?$string_output_adapter@_W@__crt_stdio_output@@@2@@__crt_stdio_output@@AAE_NXZ 10031898 f i libucrt:output.obj
 0001:000308e4       ?state_case_flag@?$output_processor@_WV?$string_output_adapter@_W@__crt_stdio_output@@V?$positional_parameter_base@_WV?$string_output_adapter@_W@__crt_stdio_output@@@2@@__crt_stdio_output@@AAE_NXZ 100318e4 f i libucrt:output.obj
 0001:00030930       ?state_case_flag@?$output_processor@_WV?$string_output_adapter@_W@__crt_stdio_output@@V?$standard_base@_WV?$string_output_adapter@_W@__crt_stdio_output@@@2@@__crt_stdio_output@@AAE_NXZ 10031930 f i libucrt:output.obj
 0001:0003097c       ?state_case_normal@?$output_processor@DV?$stream_output_adapter@D@__crt_stdio_output@@V?$format_validation_base@DV?$stream_output_adapter@D@__crt_stdio_output@@@2@@__crt_stdio_output@@AAE_NXZ 1003197c f i libucrt:output.obj
 0001:000309a2       ?state_case_normal@?$output_processor@DV?$stream_output_adapter@D@__crt_stdio_output@@V?$positional_parameter_base@DV?$stream_output_adapter@D@__crt_stdio_output@@@2@@__crt_stdio_output@@AAE_NXZ 100319a2 f i libucrt:output.obj
 0001:000309df       ?state_case_normal@?$output_processor@DV?$stream_output_adapter@D@__crt_stdio_output@@V?$standard_base@DV?$stream_output_adapter@D@__crt_stdio_output@@@2@@__crt_stdio_output@@AAE_NXZ 100319df f i libucrt:output.obj
 0001:00030a05       ?state_case_normal@?$output_processor@DV?$string_output_adapter@D@__crt_stdio_output@@V?$format_validation_base@DV?$string_output_adapter@D@__crt_stdio_output@@@2@@__crt_stdio_output@@AAE_NXZ 10031a05 f i libucrt:output.obj
 0001:00030a2b       ?state_case_normal@?$output_processor@DV?$string_output_adapter@D@__crt_stdio_output@@V?$positional_parameter_base@DV?$string_output_adapter@D@__crt_stdio_output@@@2@@__crt_stdio_output@@AAE_NXZ 10031a2b f i libucrt:output.obj
 0001:00030a68       ?state_case_normal@?$output_processor@DV?$string_output_adapter@D@__crt_stdio_output@@V?$standard_base@DV?$string_output_adapter@D@__crt_stdio_output@@@2@@__crt_stdio_output@@AAE_NXZ 10031a68 f i libucrt:output.obj
 0001:00030a8e       ?state_case_normal@?$output_processor@_WV?$stream_output_adapter@_W@__crt_stdio_output@@V?$format_validation_base@_WV?$stream_output_adapter@_W@__crt_stdio_output@@@2@@__crt_stdio_output@@AAE_NXZ 10031a8e f i libucrt:output.obj
 0001:00030ab4       ?state_case_normal@?$output_processor@_WV?$stream_output_adapter@_W@__crt_stdio_output@@V?$positional_parameter_base@_WV?$stream_output_adapter@_W@__crt_stdio_output@@@2@@__crt_stdio_output@@AAE_NXZ 10031ab4 f i libucrt:output.obj
 0001:00030af1       ?state_case_normal@?$output_processor@_WV?$stream_output_adapter@_W@__crt_stdio_output@@V?$standard_base@_WV?$stream_output_adapter@_W@__crt_stdio_output@@@2@@__crt_stdio_output@@AAE_NXZ 10031af1 f i libucrt:output.obj
 0001:00030b17       ?state_case_normal@?$output_processor@_WV?$string_output_adapter@_W@__crt_stdio_output@@V?$format_validation_base@_WV?$string_output_adapter@_W@__crt_stdio_output@@@2@@__crt_stdio_output@@AAE_NXZ 10031b17 f i libucrt:output.obj
 0001:00030b3d       ?state_case_normal@?$output_processor@_WV?$string_output_adapter@_W@__crt_stdio_output@@V?$positional_parameter_base@_WV?$string_output_adapter@_W@__crt_stdio_output@@@2@@__crt_stdio_output@@AAE_NXZ 10031b3d f i libucrt:output.obj
 0001:00030b7a       ?state_case_normal@?$output_processor@_WV?$string_output_adapter@_W@__crt_stdio_output@@V?$standard_base@_WV?$string_output_adapter@_W@__crt_stdio_output@@@2@@__crt_stdio_output@@AAE_NXZ 10031b7a f i libucrt:output.obj
 0001:00030ba0       ?state_case_normal_common@?$output_processor@DV?$stream_output_adapter@D@__crt_stdio_output@@V?$format_validation_base@DV?$stream_output_adapter@D@__crt_stdio_output@@@2@@__crt_stdio_output@@AAE_NXZ 10031ba0 f i libucrt:output.obj
 0001:00030beb       ?state_case_normal_common@?$output_processor@DV?$stream_output_adapter@D@__crt_stdio_output@@V?$positional_parameter_base@DV?$stream_output_adapter@D@__crt_stdio_output@@@2@@__crt_stdio_output@@AAE_NXZ 10031beb f i libucrt:output.obj
 0001:00030c36       ?state_case_normal_common@?$output_processor@DV?$stream_output_adapter@D@__crt_stdio_output@@V?$standard_base@DV?$stream_output_adapter@D@__crt_stdio_output@@@2@@__crt_stdio_output@@AAE_NXZ 10031c36 f i libucrt:output.obj
 0001:00030c81       ?state_case_normal_common@?$output_processor@DV?$string_output_adapter@D@__crt_stdio_output@@V?$format_validation_base@DV?$string_output_adapter@D@__crt_stdio_output@@@2@@__crt_stdio_output@@AAE_NXZ 10031c81 f i libucrt:output.obj
 0001:00030cb5       ?state_case_normal_common@?$output_processor@DV?$string_output_adapter@D@__crt_stdio_output@@V?$positional_parameter_base@DV?$string_output_adapter@D@__crt_stdio_output@@@2@@__crt_stdio_output@@AAE_NXZ 10031cb5 f i libucrt:output.obj
 0001:00030ce9       ?state_case_normal_common@?$output_processor@DV?$string_output_adapter@D@__crt_stdio_output@@V?$standard_base@DV?$string_output_adapter@D@__crt_stdio_output@@@2@@__crt_stdio_output@@AAE_NXZ 10031ce9 f i libucrt:output.obj
 0001:00030d1d       ?state_case_normal_common@?$output_processor@_WV?$stream_output_adapter@_W@__crt_stdio_output@@V?$format_validation_base@_WV?$stream_output_adapter@_W@__crt_stdio_output@@@2@@__crt_stdio_output@@AAE_NXZ 10031d1d f i libucrt:output.obj
 0001:00030d51       ?state_case_normal_common@?$output_processor@_WV?$stream_output_adapter@_W@__crt_stdio_output@@V?$positional_parameter_base@_WV?$stream_output_adapter@_W@__crt_stdio_output@@@2@@__crt_stdio_output@@AAE_NXZ 10031d51 f i libucrt:output.obj
 0001:00030d85       ?state_case_normal_common@?$output_processor@_WV?$stream_output_adapter@_W@__crt_stdio_output@@V?$standard_base@_WV?$stream_output_adapter@_W@__crt_stdio_output@@@2@@__crt_stdio_output@@AAE_NXZ 10031d85 f i libucrt:output.obj
 0001:00030db9       ?state_case_normal_common@?$output_processor@_WV?$string_output_adapter@_W@__crt_stdio_output@@V?$format_validation_base@_WV?$string_output_adapter@_W@__crt_stdio_output@@@2@@__crt_stdio_output@@AAE_NXZ 10031db9 f i libucrt:output.obj
 0001:00030dda       ?state_case_normal_common@?$output_processor@_WV?$string_output_adapter@_W@__crt_stdio_output@@V?$positional_parameter_base@_WV?$string_output_adapter@_W@__crt_stdio_output@@@2@@__crt_stdio_output@@AAE_NXZ 10031dda f i libucrt:output.obj
 0001:00030dfb       ?state_case_normal_common@?$output_processor@_WV?$string_output_adapter@_W@__crt_stdio_output@@V?$standard_base@_WV?$string_output_adapter@_W@__crt_stdio_output@@@2@@__crt_stdio_output@@AAE_NXZ 10031dfb f i libucrt:output.obj
 0001:00030e1c       ?state_case_normal_tchar@?$output_processor@DV?$stream_output_adapter@D@__crt_stdio_output@@V?$format_validation_base@DV?$stream_output_adapter@D@__crt_stdio_output@@@2@@__crt_stdio_output@@AAE_ND@Z 10031e1c f i libucrt:output.obj
 0001:00030e96       ?state_case_normal_tchar@?$output_processor@DV?$stream_output_adapter@D@__crt_stdio_output@@V?$positional_parameter_base@DV?$stream_output_adapter@D@__crt_stdio_output@@@2@@__crt_stdio_output@@AAE_ND@Z 10031e96 f i libucrt:output.obj
 0001:00030f10       ?state_case_normal_tchar@?$output_processor@DV?$stream_output_adapter@D@__crt_stdio_output@@V?$standard_base@DV?$stream_output_adapter@D@__crt_stdio_output@@@2@@__crt_stdio_output@@AAE_ND@Z 10031f10 f i libucrt:output.obj
 0001:00030f8a       ?state_case_normal_tchar@?$output_processor@DV?$string_output_adapter@D@__crt_stdio_output@@V?$format_validation_base@DV?$string_output_adapter@D@__crt_stdio_output@@@2@@__crt_stdio_output@@AAE_ND@Z 10031f8a f i libucrt:output.obj
 0001:00030ff9       ?state_case_normal_tchar@?$output_processor@DV?$string_output_adapter@D@__crt_stdio_output@@V?$positional_parameter_base@DV?$string_output_adapter@D@__crt_stdio_output@@@2@@__crt_stdio_output@@AAE_ND@Z 10031ff9 f i libucrt:output.obj
 0001:00031068       ?state_case_normal_tchar@?$output_processor@DV?$string_output_adapter@D@__crt_stdio_output@@V?$standard_base@DV?$string_output_adapter@D@__crt_stdio_output@@@2@@__crt_stdio_output@@AAE_ND@Z 10032068 f i libucrt:output.obj
 0001:000310d7       ?state_case_normal_tchar@?$output_processor@_WV?$stream_output_adapter@_W@__crt_stdio_output@@V?$format_validation_base@_WV?$stream_output_adapter@_W@__crt_stdio_output@@@2@@__crt_stdio_output@@AAE_N_W@Z 100320d7 f i libucrt:output.obj
 0001:000310e2       ?state_case_normal_tchar@?$output_processor@_WV?$stream_output_adapter@_W@__crt_stdio_output@@V?$positional_parameter_base@_WV?$stream_output_adapter@_W@__crt_stdio_output@@@2@@__crt_stdio_output@@AAE_N_W@Z 100320e2 f i libucrt:output.obj
 0001:000310ed       ?state_case_normal_tchar@?$output_processor@_WV?$stream_output_adapter@_W@__crt_stdio_output@@V?$standard_base@_WV?$stream_output_adapter@_W@__crt_stdio_output@@@2@@__crt_stdio_output@@AAE_N_W@Z 100320ed f i libucrt:output.obj
 0001:000310f8       ?state_case_normal_tchar@?$output_processor@_WV?$string_output_adapter@_W@__crt_stdio_output@@V?$format_validation_base@_WV?$string_output_adapter@_W@__crt_stdio_output@@@2@@__crt_stdio_output@@AAE_N_W@Z 100320f8 f i libucrt:output.obj
 0001:00031103       ?state_case_normal_tchar@?$output_processor@_WV?$string_output_adapter@_W@__crt_stdio_output@@V?$positional_parameter_base@_WV?$string_output_adapter@_W@__crt_stdio_output@@@2@@__crt_stdio_output@@AAE_N_W@Z 10032103 f i libucrt:output.obj
 0001:0003110e       ?state_case_normal_tchar@?$output_processor@_WV?$string_output_adapter@_W@__crt_stdio_output@@V?$standard_base@_WV?$string_output_adapter@_W@__crt_stdio_output@@@2@@__crt_stdio_output@@AAE_N_W@Z 1003210e f i libucrt:output.obj
 0001:00031119       ?state_case_percent@?$output_processor@DV?$stream_output_adapter@D@__crt_stdio_output@@V?$format_validation_base@DV?$stream_output_adapter@D@__crt_stdio_output@@@2@@__crt_stdio_output@@AAE_NXZ 10032119 f i libucrt:output.obj
 0001:00031137       ?state_case_percent@?$output_processor@DV?$stream_output_adapter@D@__crt_stdio_output@@V?$positional_parameter_base@DV?$stream_output_adapter@D@__crt_stdio_output@@@2@@__crt_stdio_output@@AAE_NXZ 10032137 f i libucrt:output.obj
 0001:00031155       ?state_case_percent@?$output_processor@DV?$stream_output_adapter@D@__crt_stdio_output@@V?$standard_base@DV?$stream_output_adapter@D@__crt_stdio_output@@@2@@__crt_stdio_output@@AAE_NXZ 10032155 f i libucrt:output.obj
 0001:00031173       ?state_case_percent@?$output_processor@DV?$string_output_adapter@D@__crt_stdio_output@@V?$format_validation_base@DV?$string_output_adapter@D@__crt_stdio_output@@@2@@__crt_stdio_output@@AAE_NXZ 10032173 f i libucrt:output.obj
 0001:00031191       ?state_case_percent@?$output_processor@DV?$string_output_adapter@D@__crt_stdio_output@@V?$positional_parameter_base@DV?$string_output_adapter@D@__crt_stdio_output@@@2@@__crt_stdio_output@@AAE_NXZ 10032191 f i libucrt:output.obj
 0001:000311af       ?state_case_percent@?$output_processor@DV?$string_output_adapter@D@__crt_stdio_output@@V?$standard_base@DV?$string_output_adapter@D@__crt_stdio_output@@@2@@__crt_stdio_output@@AAE_NXZ 100321af f i libucrt:output.obj
 0001:000311cd       ?state_case_percent@?$output_processor@_WV?$stream_output_adapter@_W@__crt_stdio_output@@V?$format_validation_base@_WV?$stream_output_adapter@_W@__crt_stdio_output@@@2@@__crt_stdio_output@@AAE_NXZ 100321cd f i libucrt:output.obj
 0001:000311eb       ?state_case_percent@?$output_processor@_WV?$stream_output_adapter@_W@__crt_stdio_output@@V?$positional_parameter_base@_WV?$stream_output_adapter@_W@__crt_stdio_output@@@2@@__crt_stdio_output@@AAE_NXZ 100321eb f i libucrt:output.obj
 0001:00031209       ?state_case_percent@?$output_processor@_WV?$stream_output_adapter@_W@__crt_stdio_output@@V?$standard_base@_WV?$stream_output_adapter@_W@__crt_stdio_output@@@2@@__crt_stdio_output@@AAE_NXZ 10032209 f i libucrt:output.obj
 0001:00031227       ?state_case_percent@?$output_processor@_WV?$string_output_adapter@_W@__crt_stdio_output@@V?$format_validation_base@_WV?$string_output_adapter@_W@__crt_stdio_output@@@2@@__crt_stdio_output@@AAE_NXZ 10032227 f i libucrt:output.obj
 0001:00031245       ?state_case_percent@?$output_processor@_WV?$string_output_adapter@_W@__crt_stdio_output@@V?$positional_parameter_base@_WV?$string_output_adapter@_W@__crt_stdio_output@@@2@@__crt_stdio_output@@AAE_NXZ 10032245 f i libucrt:output.obj
 0001:00031263       ?state_case_percent@?$output_processor@_WV?$string_output_adapter@_W@__crt_stdio_output@@V?$standard_base@_WV?$string_output_adapter@_W@__crt_stdio_output@@@2@@__crt_stdio_output@@AAE_NXZ 10032263 f i libucrt:output.obj
 0001:00031281       ?state_case_precision@?$output_processor@DV?$stream_output_adapter@D@__crt_stdio_output@@V?$format_validation_base@DV?$stream_output_adapter@D@__crt_stdio_output@@@2@@__crt_stdio_output@@AAE_NXZ 10032281 f i libucrt:output.obj
 0001:000312b0       ?state_case_precision@?$output_processor@DV?$stream_output_adapter@D@__crt_stdio_output@@V?$positional_parameter_base@DV?$stream_output_adapter@D@__crt_stdio_output@@@2@@__crt_stdio_output@@AAE_NXZ 100322b0 f i libucrt:output.obj
 0001:000312f8       ?state_case_precision@?$output_processor@DV?$stream_output_adapter@D@__crt_stdio_output@@V?$standard_base@DV?$stream_output_adapter@D@__crt_stdio_output@@@2@@__crt_stdio_output@@AAE_NXZ 100322f8 f i libucrt:output.obj
 0001:00031327       ?state_case_precision@?$output_processor@DV?$string_output_adapter@D@__crt_stdio_output@@V?$format_validation_base@DV?$string_output_adapter@D@__crt_stdio_output@@@2@@__crt_stdio_output@@AAE_NXZ 10032327 f i libucrt:output.obj
 0001:00031356       ?state_case_precision@?$output_processor@DV?$string_output_adapter@D@__crt_stdio_output@@V?$positional_parameter_base@DV?$string_output_adapter@D@__crt_stdio_output@@@2@@__crt_stdio_output@@AAE_NXZ 10032356 f i libucrt:output.obj
 0001:0003139e       ?state_case_precision@?$output_processor@DV?$string_output_adapter@D@__crt_stdio_output@@V?$standard_base@DV?$string_output_adapter@D@__crt_stdio_output@@@2@@__crt_stdio_output@@AAE_NXZ 1003239e f i libucrt:output.obj
 0001:000313cd       ?state_case_precision@?$output_processor@_WV?$stream_output_adapter@_W@__crt_stdio_output@@V?$format_validation_base@_WV?$stream_output_adapter@_W@__crt_stdio_output@@@2@@__crt_stdio_output@@AAE_NXZ 100323cd f i libucrt:output.obj
 0001:000313fd       ?state_case_precision@?$output_processor@_WV?$stream_output_adapter@_W@__crt_stdio_output@@V?$positional_parameter_base@_WV?$stream_output_adapter@_W@__crt_stdio_output@@@2@@__crt_stdio_output@@AAE_NXZ 100323fd f i libucrt:output.obj
 0001:00031446       ?state_case_precision@?$output_processor@_WV?$stream_output_adapter@_W@__crt_stdio_output@@V?$standard_base@_WV?$stream_output_adapter@_W@__crt_stdio_output@@@2@@__crt_stdio_output@@AAE_NXZ 10032446 f i libucrt:output.obj
 0001:00031476       ?state_case_precision@?$output_processor@_WV?$string_output_adapter@_W@__crt_stdio_output@@V?$format_validation_base@_WV?$string_output_adapter@_W@__crt_stdio_output@@@2@@__crt_stdio_output@@AAE_NXZ 10032476 f i libucrt:output.obj
 0001:000314a6       ?state_case_precision@?$output_processor@_WV?$string_output_adapter@_W@__crt_stdio_output@@V?$positional_parameter_base@_WV?$string_output_adapter@_W@__crt_stdio_output@@@2@@__crt_stdio_output@@AAE_NXZ 100324a6 f i libucrt:output.obj
 0001:000314ef       ?state_case_precision@?$output_processor@_WV?$string_output_adapter@_W@__crt_stdio_output@@V?$standard_base@_WV?$string_output_adapter@_W@__crt_stdio_output@@@2@@__crt_stdio_output@@AAE_NXZ 100324ef f i libucrt:output.obj
 0001:0003151f       ?state_case_size@?$output_processor@DV?$stream_output_adapter@D@__crt_stdio_output@@V?$format_validation_base@DV?$stream_output_adapter@D@__crt_stdio_output@@@2@@__crt_stdio_output@@AAE_NXZ 1003251f f i libucrt:output.obj
 0001:000316cf       ?state_case_size@?$output_processor@DV?$stream_output_adapter@D@__crt_stdio_output@@V?$positional_parameter_base@DV?$stream_output_adapter@D@__crt_stdio_output@@@2@@__crt_stdio_output@@AAE_NXZ 100326cf f i libucrt:output.obj
 0001:0003187f       ?state_case_size@?$output_processor@DV?$stream_output_adapter@D@__crt_stdio_output@@V?$standard_base@DV?$stream_output_adapter@D@__crt_stdio_output@@@2@@__crt_stdio_output@@AAE_NXZ 1003287f f i libucrt:output.obj
 0001:00031a2f       ?state_case_size@?$output_processor@DV?$string_output_adapter@D@__crt_stdio_output@@V?$format_validation_base@DV?$string_output_adapter@D@__crt_stdio_output@@@2@@__crt_stdio_output@@AAE_NXZ 10032a2f f i libucrt:output.obj
 0001:00031bdf       ?state_case_size@?$output_processor@DV?$string_output_adapter@D@__crt_stdio_output@@V?$positional_parameter_base@DV?$string_output_adapter@D@__crt_stdio_output@@@2@@__crt_stdio_output@@AAE_NXZ 10032bdf f i libucrt:output.obj
 0001:00031d8f       ?state_case_size@?$output_processor@DV?$string_output_adapter@D@__crt_stdio_output@@V?$standard_base@DV?$string_output_adapter@D@__crt_stdio_output@@@2@@__crt_stdio_output@@AAE_NXZ 10032d8f f i libucrt:output.obj
 0001:00031f3f       ?state_case_size@?$output_processor@_WV?$stream_output_adapter@_W@__crt_stdio_output@@V?$format_validation_base@_WV?$stream_output_adapter@_W@__crt_stdio_output@@@2@@__crt_stdio_output@@AAE_NXZ 10032f3f f i libucrt:output.obj
 0001:00032107       ?state_case_size@?$output_processor@_WV?$stream_output_adapter@_W@__crt_stdio_output@@V?$positional_parameter_base@_WV?$stream_output_adapter@_W@__crt_stdio_output@@@2@@__crt_stdio_output@@AAE_NXZ 10033107 f i libucrt:output.obj
 0001:000322cf       ?state_case_size@?$output_processor@_WV?$stream_output_adapter@_W@__crt_stdio_output@@V?$standard_base@_WV?$stream_output_adapter@_W@__crt_stdio_output@@@2@@__crt_stdio_output@@AAE_NXZ 100332cf f i libucrt:output.obj
 0001:00032497       ?state_case_size@?$output_processor@_WV?$string_output_adapter@_W@__crt_stdio_output@@V?$format_validation_base@_WV?$string_output_adapter@_W@__crt_stdio_output@@@2@@__crt_stdio_output@@AAE_NXZ 10033497 f i libucrt:output.obj
 0001:0003265f       ?state_case_size@?$output_processor@_WV?$string_output_adapter@_W@__crt_stdio_output@@V?$positional_parameter_base@_WV?$string_output_adapter@_W@__crt_stdio_output@@@2@@__crt_stdio_output@@AAE_NXZ 1003365f f i libucrt:output.obj
 0001:00032827       ?state_case_size@?$output_processor@_WV?$string_output_adapter@_W@__crt_stdio_output@@V?$standard_base@_WV?$string_output_adapter@_W@__crt_stdio_output@@@2@@__crt_stdio_output@@AAE_NXZ 10033827 f i libucrt:output.obj
 0001:000329ef       ?state_case_type@?$output_processor@DV?$stream_output_adapter@D@__crt_stdio_output@@V?$format_validation_base@DV?$stream_output_adapter@D@__crt_stdio_output@@@2@@__crt_stdio_output@@AAE_NXZ 100339ef f i libucrt:output.obj
 0001:00032ca2       ?state_case_type@?$output_processor@DV?$stream_output_adapter@D@__crt_stdio_output@@V?$positional_parameter_base@DV?$stream_output_adapter@D@__crt_stdio_output@@@2@@__crt_stdio_output@@AAE_NXZ 10033ca2 f i libucrt:output.obj
 0001:00032f63       ?state_case_type@?$output_processor@DV?$stream_output_adapter@D@__crt_stdio_output@@V?$standard_base@DV?$stream_output_adapter@D@__crt_stdio_output@@@2@@__crt_stdio_output@@AAE_NXZ 10033f63 f i libucrt:output.obj
 0001:00033216       ?state_case_type@?$output_processor@DV?$string_output_adapter@D@__crt_stdio_output@@V?$format_validation_base@DV?$string_output_adapter@D@__crt_stdio_output@@@2@@__crt_stdio_output@@AAE_NXZ 10034216 f i libucrt:output.obj
 0001:000334c9       ?state_case_type@?$output_processor@DV?$string_output_adapter@D@__crt_stdio_output@@V?$positional_parameter_base@DV?$string_output_adapter@D@__crt_stdio_output@@@2@@__crt_stdio_output@@AAE_NXZ 100344c9 f i libucrt:output.obj
 0001:0003378a       ?state_case_type@?$output_processor@DV?$string_output_adapter@D@__crt_stdio_output@@V?$standard_base@DV?$string_output_adapter@D@__crt_stdio_output@@@2@@__crt_stdio_output@@AAE_NXZ 1003478a f i libucrt:output.obj
 0001:00033a3d       ?state_case_type@?$output_processor@_WV?$stream_output_adapter@_W@__crt_stdio_output@@V?$format_validation_base@_WV?$stream_output_adapter@_W@__crt_stdio_output@@@2@@__crt_stdio_output@@AAE_NXZ 10034a3d f i libucrt:output.obj
 0001:00033d3d       ?state_case_type@?$output_processor@_WV?$stream_output_adapter@_W@__crt_stdio_output@@V?$positional_parameter_base@_WV?$stream_output_adapter@_W@__crt_stdio_output@@@2@@__crt_stdio_output@@AAE_NXZ 10034d3d f i libucrt:output.obj
 0001:00034050       ?state_case_type@?$output_processor@_WV?$stream_output_adapter@_W@__crt_stdio_output@@V?$standard_base@_WV?$stream_output_adapter@_W@__crt_stdio_output@@@2@@__crt_stdio_output@@AAE_NXZ 10035050 f i libucrt:output.obj
 0001:00034350       ?state_case_type@?$output_processor@_WV?$string_output_adapter@_W@__crt_stdio_output@@V?$format_validation_base@_WV?$string_output_adapter@_W@__crt_stdio_output@@@2@@__crt_stdio_output@@AAE_NXZ 10035350 f i libucrt:output.obj
 0001:00034650       ?state_case_type@?$output_processor@_WV?$string_output_adapter@_W@__crt_stdio_output@@V?$positional_parameter_base@_WV?$string_output_adapter@_W@__crt_stdio_output@@@2@@__crt_stdio_output@@AAE_NXZ 10035650 f i libucrt:output.obj
 0001:00034963       ?state_case_type@?$output_processor@_WV?$string_output_adapter@_W@__crt_stdio_output@@V?$standard_base@_WV?$string_output_adapter@_W@__crt_stdio_output@@@2@@__crt_stdio_output@@AAE_NXZ 10035963 f i libucrt:output.obj
 0001:00034c63       ?state_case_width@?$output_processor@DV?$stream_output_adapter@D@__crt_stdio_output@@V?$format_validation_base@DV?$stream_output_adapter@D@__crt_stdio_output@@@2@@__crt_stdio_output@@AAE_NXZ 10035c63 f i libucrt:output.obj
 0001:00034c98       ?state_case_width@?$output_processor@DV?$stream_output_adapter@D@__crt_stdio_output@@V?$positional_parameter_base@DV?$stream_output_adapter@D@__crt_stdio_output@@@2@@__crt_stdio_output@@AAE_NXZ 10035c98 f i libucrt:output.obj
 0001:00034ce8       ?state_case_width@?$output_processor@DV?$stream_output_adapter@D@__crt_stdio_output@@V?$standard_base@DV?$stream_output_adapter@D@__crt_stdio_output@@@2@@__crt_stdio_output@@AAE_NXZ 10035ce8 f i libucrt:output.obj
 0001:00034d1d       ?state_case_width@?$output_processor@DV?$string_output_adapter@D@__crt_stdio_output@@V?$format_validation_base@DV?$string_output_adapter@D@__crt_stdio_output@@@2@@__crt_stdio_output@@AAE_NXZ 10035d1d f i libucrt:output.obj
 0001:00034d52       ?state_case_width@?$output_processor@DV?$string_output_adapter@D@__crt_stdio_output@@V?$positional_parameter_base@DV?$string_output_adapter@D@__crt_stdio_output@@@2@@__crt_stdio_output@@AAE_NXZ 10035d52 f i libucrt:output.obj
 0001:00034da2       ?state_case_width@?$output_processor@DV?$string_output_adapter@D@__crt_stdio_output@@V?$standard_base@DV?$string_output_adapter@D@__crt_stdio_output@@@2@@__crt_stdio_output@@AAE_NXZ 10035da2 f i libucrt:output.obj
 0001:00034dd7       ?state_case_width@?$output_processor@_WV?$stream_output_adapter@_W@__crt_stdio_output@@V?$format_validation_base@_WV?$stream_output_adapter@_W@__crt_stdio_output@@@2@@__crt_stdio_output@@AAE_NXZ 10035dd7 f i libucrt:output.obj
 0001:00034e0e       ?state_case_width@?$output_processor@_WV?$stream_output_adapter@_W@__crt_stdio_output@@V?$positional_parameter_base@_WV?$stream_output_adapter@_W@__crt_stdio_output@@@2@@__crt_stdio_output@@AAE_NXZ 10035e0e f i libucrt:output.obj
 0001:00034e5f       ?state_case_width@?$output_processor@_WV?$stream_output_adapter@_W@__crt_stdio_output@@V?$standard_base@_WV?$stream_output_adapter@_W@__crt_stdio_output@@@2@@__crt_stdio_output@@AAE_NXZ 10035e5f f i libucrt:output.obj
 0001:00034e96       ?state_case_width@?$output_processor@_WV?$string_output_adapter@_W@__crt_stdio_output@@V?$format_validation_base@_WV?$string_output_adapter@_W@__crt_stdio_output@@@2@@__crt_stdio_output@@AAE_NXZ 10035e96 f i libucrt:output.obj
 0001:00034ecd       ?state_case_width@?$output_processor@_WV?$string_output_adapter@_W@__crt_stdio_output@@V?$positional_parameter_base@_WV?$string_output_adapter@_W@__crt_stdio_output@@@2@@__crt_stdio_output@@AAE_NXZ 10035ecd f i libucrt:output.obj
 0001:00034f1e       ?state_case_width@?$output_processor@_WV?$string_output_adapter@_W@__crt_stdio_output@@V?$standard_base@_WV?$string_output_adapter@_W@__crt_stdio_output@@@2@@__crt_stdio_output@@AAE_NXZ 10035f1e f i libucrt:output.obj
 0001:00034f55       ?state_count@?$format_validation_base@DV?$stream_output_adapter@D@__crt_stdio_output@@@__crt_stdio_output@@KAIXZ 10035f55 f i libucrt:output.obj
 0001:00034f59       ?state_count@?$format_validation_base@DV?$string_output_adapter@D@__crt_stdio_output@@@__crt_stdio_output@@KAIXZ 10035f59 f i libucrt:output.obj
 0001:00034f5d       ?state_count@?$format_validation_base@_WV?$stream_output_adapter@_W@__crt_stdio_output@@@__crt_stdio_output@@KAIXZ 10035f5d f i libucrt:output.obj
 0001:00034f61       ?state_count@?$format_validation_base@_WV?$string_output_adapter@_W@__crt_stdio_output@@@__crt_stdio_output@@KAIXZ 10035f61 f i libucrt:output.obj
 0001:00034f65       ?state_count@?$standard_base@DV?$stream_output_adapter@D@__crt_stdio_output@@@__crt_stdio_output@@KAIXZ 10035f65 f i libucrt:output.obj
 0001:00034f69       ?state_count@?$standard_base@DV?$string_output_adapter@D@__crt_stdio_output@@@__crt_stdio_output@@KAIXZ 10035f69 f i libucrt:output.obj
 0001:00034f6d       ?state_count@?$standard_base@_WV?$stream_output_adapter@_W@__crt_stdio_output@@@__crt_stdio_output@@KAIXZ 10035f6d f i libucrt:output.obj
 0001:00034f71       ?state_count@?$standard_base@_WV?$string_output_adapter@_W@__crt_stdio_output@@@__crt_stdio_output@@KAIXZ 10035f71 f i libucrt:output.obj
 0001:00034f75       ?state_transition_table@?$format_validation_base@DV?$stream_output_adapter@D@__crt_stdio_output@@@__crt_stdio_output@@KAPBEXZ 10035f75 f i libucrt:output.obj
 0001:00034f7b       ?state_transition_table@?$format_validation_base@DV?$string_output_adapter@D@__crt_stdio_output@@@__crt_stdio_output@@KAPBEXZ 10035f7b f i libucrt:output.obj
 0001:00034f81       ?state_transition_table@?$format_validation_base@_WV?$stream_output_adapter@_W@__crt_stdio_output@@@__crt_stdio_output@@KAPBEXZ 10035f81 f i libucrt:output.obj
 0001:00034f87       ?state_transition_table@?$format_validation_base@_WV?$string_output_adapter@_W@__crt_stdio_output@@@__crt_stdio_output@@KAPBEXZ 10035f87 f i libucrt:output.obj
 0001:00034f8d       ?state_transition_table@?$standard_base@DV?$stream_output_adapter@D@__crt_stdio_output@@@__crt_stdio_output@@KAPBEXZ 10035f8d f i libucrt:output.obj
 0001:00034f93       ?state_transition_table@?$standard_base@DV?$string_output_adapter@D@__crt_stdio_output@@@__crt_stdio_output@@KAPBEXZ 10035f93 f i libucrt:output.obj
 0001:00034f99       ?state_transition_table@?$standard_base@_WV?$stream_output_adapter@_W@__crt_stdio_output@@@__crt_stdio_output@@KAPBEXZ 10035f99 f i libucrt:output.obj
 0001:00034f9f       ?state_transition_table@?$standard_base@_WV?$string_output_adapter@_W@__crt_stdio_output@@@__crt_stdio_output@@KAPBEXZ 10035f9f f i libucrt:output.obj
 0001:00034fa5       ?tchar_string@?$common_data@D@__crt_stdio_output@@IAEAAPADD@Z 10035fa5 f i libucrt:output.obj
 0001:00034fab       ?tchar_string@?$common_data@D@__crt_stdio_output@@IAEAAPADXZ 10035fab f i libucrt:output.obj
 0001:00034faf       ?tchar_string@?$common_data@_W@__crt_stdio_output@@IAEAAPA_WXZ 10035faf f i libucrt:output.obj
 0001:00034fb3       ?tchar_string@?$common_data@_W@__crt_stdio_output@@IAEAAPA_W_W@Z 10035fb3 f i libucrt:output.obj
 0001:00034fb9       ?to_integer_size@__crt_stdio_output@@YAIW4length_modifier@1@@Z 10035fb9 f i libucrt:output.obj
 0001:0003502c       ?type_case_X@?$output_processor@DV?$stream_output_adapter@D@__crt_stdio_output@@V?$format_validation_base@DV?$stream_output_adapter@D@__crt_stdio_output@@@2@@__crt_stdio_output@@AAE_NXZ 1003602c f i libucrt:output.obj
 0001:00035038       ?type_case_X@?$output_processor@DV?$stream_output_adapter@D@__crt_stdio_output@@V?$positional_parameter_base@DV?$stream_output_adapter@D@__crt_stdio_output@@@2@@__crt_stdio_output@@AAE_NXZ 10036038 f i libucrt:output.obj
 0001:00035044       ?type_case_X@?$output_processor@DV?$stream_output_adapter@D@__crt_stdio_output@@V?$standard_base@DV?$stream_output_adapter@D@__crt_stdio_output@@@2@@__crt_stdio_output@@AAE_NXZ 10036044 f i libucrt:output.obj
 0001:00035050       ?type_case_X@?$output_processor@DV?$string_output_adapter@D@__crt_stdio_output@@V?$format_validation_base@DV?$string_output_adapter@D@__crt_stdio_output@@@2@@__crt_stdio_output@@AAE_NXZ 10036050 f i libucrt:output.obj
 0001:0003505c       ?type_case_X@?$output_processor@DV?$string_output_adapter@D@__crt_stdio_output@@V?$positional_parameter_base@DV?$string_output_adapter@D@__crt_stdio_output@@@2@@__crt_stdio_output@@AAE_NXZ 1003605c f i libucrt:output.obj
 0001:00035068       ?type_case_X@?$output_processor@DV?$string_output_adapter@D@__crt_stdio_output@@V?$standard_base@DV?$string_output_adapter@D@__crt_stdio_output@@@2@@__crt_stdio_output@@AAE_NXZ 10036068 f i libucrt:output.obj
 0001:00035074       ?type_case_X@?$output_processor@_WV?$stream_output_adapter@_W@__crt_stdio_output@@V?$format_validation_base@_WV?$stream_output_adapter@_W@__crt_stdio_output@@@2@@__crt_stdio_output@@AAE_NXZ 10036074 f i libucrt:output.obj
 0001:00035080       ?type_case_X@?$output_processor@_WV?$stream_output_adapter@_W@__crt_stdio_output@@V?$positional_parameter_base@_WV?$stream_output_adapter@_W@__crt_stdio_output@@@2@@__crt_stdio_output@@AAE_NXZ 10036080 f i libucrt:output.obj
 0001:0003508c       ?type_case_X@?$output_processor@_WV?$stream_output_adapter@_W@__crt_stdio_output@@V?$standard_base@_WV?$stream_output_adapter@_W@__crt_stdio_output@@@2@@__crt_stdio_output@@AAE_NXZ 1003608c f i libucrt:output.obj
 0001:00035098       ?type_case_X@?$output_processor@_WV?$string_output_adapter@_W@__crt_stdio_output@@V?$format_validation_base@_WV?$string_output_adapter@_W@__crt_stdio_output@@@2@@__crt_stdio_output@@AAE_NXZ 10036098 f i libucrt:output.obj
 0001:000350a4       ?type_case_X@?$output_processor@_WV?$string_output_adapter@_W@__crt_stdio_output@@V?$positional_parameter_base@_WV?$string_output_adapter@_W@__crt_stdio_output@@@2@@__crt_stdio_output@@AAE_NXZ 100360a4 f i libucrt:output.obj
 0001:000350b0       ?type_case_X@?$output_processor@_WV?$string_output_adapter@_W@__crt_stdio_output@@V?$standard_base@_WV?$string_output_adapter@_W@__crt_stdio_output@@@2@@__crt_stdio_output@@AAE_NXZ 100360b0 f i libucrt:output.obj
 0001:000350bc       ?type_case_Z@?$output_processor@DV?$stream_output_adapter@D@__crt_stdio_output@@V?$format_validation_base@DV?$stream_output_adapter@D@__crt_stdio_output@@@2@@__crt_stdio_output@@AAE_NXZ 100360bc f i libucrt:output.obj
 0001:00035135       ?type_case_Z@?$output_processor@DV?$stream_output_adapter@D@__crt_stdio_output@@V?$positional_parameter_base@DV?$stream_output_adapter@D@__crt_stdio_output@@@2@@__crt_stdio_output@@AAE_NXZ 10036135 f i libucrt:output.obj
 0001:0003524b       ?type_case_Z@?$output_processor@DV?$stream_output_adapter@D@__crt_stdio_output@@V?$standard_base@DV?$stream_output_adapter@D@__crt_stdio_output@@@2@@__crt_stdio_output@@AAE_NXZ 1003624b f i libucrt:output.obj
 0001:000352c4       ?type_case_Z@?$output_processor@DV?$string_output_adapter@D@__crt_stdio_output@@V?$format_validation_base@DV?$string_output_adapter@D@__crt_stdio_output@@@2@@__crt_stdio_output@@AAE_NXZ 100362c4 f i libucrt:output.obj
 0001:0003533d       ?type_case_Z@?$output_processor@DV?$string_output_adapter@D@__crt_stdio_output@@V?$positional_parameter_base@DV?$string_output_adapter@D@__crt_stdio_output@@@2@@__crt_stdio_output@@AAE_NXZ 1003633d f i libucrt:output.obj
 0001:00035453       ?type_case_Z@?$output_processor@DV?$string_output_adapter@D@__crt_stdio_output@@V?$standard_base@DV?$string_output_adapter@D@__crt_stdio_output@@@2@@__crt_stdio_output@@AAE_NXZ 10036453 f i libucrt:output.obj
 0001:000354cc       ?type_case_Z@?$output_processor@_WV?$stream_output_adapter@_W@__crt_stdio_output@@V?$format_validation_base@_WV?$stream_output_adapter@_W@__crt_stdio_output@@@2@@__crt_stdio_output@@AAE_NXZ 100364cc f i libucrt:output.obj
 0001:00035545       ?type_case_Z@?$output_processor@_WV?$stream_output_adapter@_W@__crt_stdio_output@@V?$positional_parameter_base@_WV?$stream_output_adapter@_W@__crt_stdio_output@@@2@@__crt_stdio_output@@AAE_NXZ 10036545 f i libucrt:output.obj
 0001:0003565b       ?type_case_Z@?$output_processor@_WV?$stream_output_adapter@_W@__crt_stdio_output@@V?$standard_base@_WV?$stream_output_adapter@_W@__crt_stdio_output@@@2@@__crt_stdio_output@@AAE_NXZ 1003665b f i libucrt:output.obj
 0001:000356d4       ?type_case_Z@?$output_processor@_WV?$string_output_adapter@_W@__crt_stdio_output@@V?$format_validation_base@_WV?$string_output_adapter@_W@__crt_stdio_output@@@2@@__crt_stdio_output@@AAE_NXZ 100366d4 f i libucrt:output.obj
 0001:0003574d       ?type_case_Z@?$output_processor@_WV?$string_output_adapter@_W@__crt_stdio_output@@V?$positional_parameter_base@_WV?$string_output_adapter@_W@__crt_stdio_output@@@2@@__crt_stdio_output@@AAE_NXZ 1003674d f i libucrt:output.obj
 0001:00035863       ?type_case_Z@?$output_processor@_WV?$string_output_adapter@_W@__crt_stdio_output@@V?$standard_base@_WV?$string_output_adapter@_W@__crt_stdio_output@@@2@@__crt_stdio_output@@AAE_NXZ 10036863 f i libucrt:output.obj
 0001:000358dc       ?type_case_a@?$output_processor@DV?$stream_output_adapter@D@__crt_stdio_output@@V?$format_validation_base@DV?$stream_output_adapter@D@__crt_stdio_output@@@2@@__crt_stdio_output@@AAE_NXZ 100368dc f i libucrt:output.obj
 0001:00035a8b       ?type_case_a@?$output_processor@DV?$stream_output_adapter@D@__crt_stdio_output@@V?$positional_parameter_base@DV?$stream_output_adapter@D@__crt_stdio_output@@@2@@__crt_stdio_output@@AAE_NXZ 10036a8b f i libucrt:output.obj
 0001:00035c61       ?type_case_a@?$output_processor@DV?$stream_output_adapter@D@__crt_stdio_output@@V?$standard_base@DV?$stream_output_adapter@D@__crt_stdio_output@@@2@@__crt_stdio_output@@AAE_NXZ 10036c61 f i libucrt:output.obj
 0001:00035e10       ?type_case_a@?$output_processor@DV?$string_output_adapter@D@__crt_stdio_output@@V?$format_validation_base@DV?$string_output_adapter@D@__crt_stdio_output@@@2@@__crt_stdio_output@@AAE_NXZ 10036e10 f i libucrt:output.obj
 0001:00035fbf       ?type_case_a@?$output_processor@DV?$string_output_adapter@D@__crt_stdio_output@@V?$positional_parameter_base@DV?$string_output_adapter@D@__crt_stdio_output@@@2@@__crt_stdio_output@@AAE_NXZ 10036fbf f i libucrt:output.obj
 0001:00036195       ?type_case_a@?$output_processor@DV?$string_output_adapter@D@__crt_stdio_output@@V?$standard_base@DV?$string_output_adapter@D@__crt_stdio_output@@@2@@__crt_stdio_output@@AAE_NXZ 10037195 f i libucrt:output.obj
 0001:00036344       ?type_case_a@?$output_processor@_WV?$stream_output_adapter@_W@__crt_stdio_output@@V?$format_validation_base@_WV?$stream_output_adapter@_W@__crt_stdio_output@@@2@@__crt_stdio_output@@AAE_NXZ 10037344 f i libucrt:output.obj
 0001:0003650e       ?type_case_a@?$output_processor@_WV?$stream_output_adapter@_W@__crt_stdio_output@@V?$positional_parameter_base@_WV?$stream_output_adapter@_W@__crt_stdio_output@@@2@@__crt_stdio_output@@AAE_NXZ 1003750e f i libucrt:output.obj
 0001:000366ff       ?type_case_a@?$output_processor@_WV?$stream_output_adapter@_W@__crt_stdio_output@@V?$standard_base@_WV?$stream_output_adapter@_W@__crt_stdio_output@@@2@@__crt_stdio_output@@AAE_NXZ 100376ff f i libucrt:output.obj
 0001:000368c9       ?type_case_a@?$output_processor@_WV?$string_output_adapter@_W@__crt_stdio_output@@V?$format_validation_base@_WV?$string_output_adapter@_W@__crt_stdio_output@@@2@@__crt_stdio_output@@AAE_NXZ 100378c9 f i libucrt:output.obj
 0001:00036a93       ?type_case_a@?$output_processor@_WV?$string_output_adapter@_W@__crt_stdio_output@@V?$positional_parameter_base@_WV?$string_output_adapter@_W@__crt_stdio_output@@@2@@__crt_stdio_output@@AAE_NXZ 10037a93 f i libucrt:output.obj
 0001:00036c84       ?type_case_a@?$output_processor@_WV?$string_output_adapter@_W@__crt_stdio_output@@V?$standard_base@_WV?$string_output_adapter@_W@__crt_stdio_output@@@2@@__crt_stdio_output@@AAE_NXZ 10037c84 f i libucrt:output.obj
 0001:00036e4e       ?type_case_c@?$output_processor@DV?$stream_output_adapter@D@__crt_stdio_output@@V?$format_validation_base@DV?$stream_output_adapter@D@__crt_stdio_output@@@2@@__crt_stdio_output@@AAE_NXZ 10037e4e f i libucrt:output.obj
 0001:00036e58       ?type_case_c@?$output_processor@DV?$stream_output_adapter@D@__crt_stdio_output@@V?$positional_parameter_base@DV?$stream_output_adapter@D@__crt_stdio_output@@@2@@__crt_stdio_output@@AAE_NXZ 10037e58 f i libucrt:output.obj
 0001:00036e62       ?type_case_c@?$output_processor@DV?$stream_output_adapter@D@__crt_stdio_output@@V?$standard_base@DV?$stream_output_adapter@D@__crt_stdio_output@@@2@@__crt_stdio_output@@AAE_NXZ 10037e62 f i libucrt:output.obj
 0001:00036e6c       ?type_case_c@?$output_processor@DV?$string_output_adapter@D@__crt_stdio_output@@V?$format_validation_base@DV?$string_output_adapter@D@__crt_stdio_output@@@2@@__crt_stdio_output@@AAE_NXZ 10037e6c f i libucrt:output.obj
 0001:00036e76       ?type_case_c@?$output_processor@DV?$string_output_adapter@D@__crt_stdio_output@@V?$positional_parameter_base@DV?$string_output_adapter@D@__crt_stdio_output@@@2@@__crt_stdio_output@@AAE_NXZ 10037e76 f i libucrt:output.obj
 0001:00036e80       ?type_case_c@?$output_processor@DV?$string_output_adapter@D@__crt_stdio_output@@V?$standard_base@DV?$string_output_adapter@D@__crt_stdio_output@@@2@@__crt_stdio_output@@AAE_NXZ 10037e80 f i libucrt:output.obj
 0001:00036e8a       ?type_case_c@?$output_processor@_WV?$stream_output_adapter@_W@__crt_stdio_output@@V?$format_validation_base@_WV?$stream_output_adapter@_W@__crt_stdio_output@@@2@@__crt_stdio_output@@AAE_NXZ 10037e8a f i libucrt:output.obj
 0001:00036e94       ?type_case_c@?$output_processor@_WV?$stream_output_adapter@_W@__crt_stdio_output@@V?$positional_parameter_base@_WV?$stream_output_adapter@_W@__crt_stdio_output@@@2@@__crt_stdio_output@@AAE_NXZ 10037e94 f i libucrt:output.obj
 0001:00036e9e       ?type_case_c@?$output_processor@_WV?$stream_output_adapter@_W@__crt_stdio_output@@V?$standard_base@_WV?$stream_output_adapter@_W@__crt_stdio_output@@@2@@__crt_stdio_output@@AAE_NXZ 10037e9e f i libucrt:output.obj
 0001:00036ea8       ?type_case_c@?$output_processor@_WV?$string_output_adapter@_W@__crt_stdio_output@@V?$format_validation_base@_WV?$string_output_adapter@_W@__crt_stdio_output@@@2@@__crt_stdio_output@@AAE_NXZ 10037ea8 f i libucrt:output.obj
 0001:00036eb2       ?type_case_c@?$output_processor@_WV?$string_output_adapter@_W@__crt_stdio_output@@V?$positional_parameter_base@_WV?$string_output_adapter@_W@__crt_stdio_output@@@2@@__crt_stdio_output@@AAE_NXZ 10037eb2 f i libucrt:output.obj
 0001:00036ebc       ?type_case_c@?$output_processor@_WV?$string_output_adapter@_W@__crt_stdio_output@@V?$standard_base@_WV?$string_output_adapter@_W@__crt_stdio_output@@@2@@__crt_stdio_output@@AAE_NXZ 10037ebc f i libucrt:output.obj
 0001:00036ec6       ?type_case_c_tchar@?$output_processor@DV?$stream_output_adapter@D@__crt_stdio_output@@V?$format_validation_base@DV?$stream_output_adapter@D@__crt_stdio_output@@@2@@__crt_stdio_output@@AAE_ND@Z 10037ec6 f i libucrt:output.obj
 0001:00036f7a       ?type_case_c_tchar@?$output_processor@DV?$stream_output_adapter@D@__crt_stdio_output@@V?$positional_parameter_base@DV?$stream_output_adapter@D@__crt_stdio_output@@@2@@__crt_stdio_output@@AAE_ND@Z 10037f7a f i libucrt:output.obj
 0001:0003706a       ?type_case_c_tchar@?$output_processor@DV?$stream_output_adapter@D@__crt_stdio_output@@V?$standard_base@DV?$stream_output_adapter@D@__crt_stdio_output@@@2@@__crt_stdio_output@@AAE_ND@Z 1003806a f i libucrt:output.obj
 0001:0003711e       ?type_case_c_tchar@?$output_processor@DV?$string_output_adapter@D@__crt_stdio_output@@V?$format_validation_base@DV?$string_output_adapter@D@__crt_stdio_output@@@2@@__crt_stdio_output@@AAE_ND@Z 1003811e f i libucrt:output.obj
 0001:000371d2       ?type_case_c_tchar@?$output_processor@DV?$string_output_adapter@D@__crt_stdio_output@@V?$positional_parameter_base@DV?$string_output_adapter@D@__crt_stdio_output@@@2@@__crt_stdio_output@@AAE_ND@Z 100381d2 f i libucrt:output.obj
 0001:000372c2       ?type_case_c_tchar@?$output_processor@DV?$string_output_adapter@D@__crt_stdio_output@@V?$standard_base@DV?$string_output_adapter@D@__crt_stdio_output@@@2@@__crt_stdio_output@@AAE_ND@Z 100382c2 f i libucrt:output.obj
 0001:00037376       ?type_case_c_tchar@?$output_processor@_WV?$stream_output_adapter@_W@__crt_stdio_output@@V?$format_validation_base@_WV?$stream_output_adapter@_W@__crt_stdio_output@@@2@@__crt_stdio_output@@AAE_N_W@Z 10038376 f i libucrt:output.obj
 0001:00037434       ?type_case_c_tchar@?$output_processor@_WV?$stream_output_adapter@_W@__crt_stdio_output@@V?$positional_parameter_base@_WV?$stream_output_adapter@_W@__crt_stdio_output@@@2@@__crt_stdio_output@@AAE_N_W@Z 10038434 f i libucrt:output.obj
 0001:0003750e       ?type_case_c_tchar@?$output_processor@_WV?$stream_output_adapter@_W@__crt_stdio_output@@V?$standard_base@_WV?$stream_output_adapter@_W@__crt_stdio_output@@@2@@__crt_stdio_output@@AAE_N_W@Z 1003850e f i libucrt:output.obj
 0001:000375cc       ?type_case_c_tchar@?$output_processor@_WV?$string_output_adapter@_W@__crt_stdio_output@@V?$format_validation_base@_WV?$string_output_adapter@_W@__crt_stdio_output@@@2@@__crt_stdio_output@@AAE_N_W@Z 100385cc f i libucrt:output.obj
 0001:0003768a       ?type_case_c_tchar@?$output_processor@_WV?$string_output_adapter@_W@__crt_stdio_output@@V?$positional_parameter_base@_WV?$string_output_adapter@_W@__crt_stdio_output@@@2@@__crt_stdio_output@@AAE_N_W@Z 1003868a f i libucrt:output.obj
 0001:00037764       ?type_case_c_tchar@?$output_processor@_WV?$string_output_adapter@_W@__crt_stdio_output@@V?$standard_base@_WV?$string_output_adapter@_W@__crt_stdio_output@@@2@@__crt_stdio_output@@AAE_N_W@Z 10038764 f i libucrt:output.obj
 0001:00037822       ?type_case_d@?$output_processor@DV?$stream_output_adapter@D@__crt_stdio_output@@V?$format_validation_base@DV?$stream_output_adapter@D@__crt_stdio_output@@@2@@__crt_stdio_output@@AAE_NXZ 10038822 f i libucrt:output.obj
 0001:00037833       ?type_case_d@?$output_processor@DV?$stream_output_adapter@D@__crt_stdio_output@@V?$positional_parameter_base@DV?$stream_output_adapter@D@__crt_stdio_output@@@2@@__crt_stdio_output@@AAE_NXZ 10038833 f i libucrt:output.obj
 0001:00037844       ?type_case_d@?$output_processor@DV?$stream_output_adapter@D@__crt_stdio_output@@V?$standard_base@DV?$stream_output_adapter@D@__crt_stdio_output@@@2@@__crt_stdio_output@@AAE_NXZ 10038844 f i libucrt:output.obj
 0001:00037855       ?type_case_d@?$output_processor@DV?$string_output_adapter@D@__crt_stdio_output@@V?$format_validation_base@DV?$string_output_adapter@D@__crt_stdio_output@@@2@@__crt_stdio_output@@AAE_NXZ 10038855 f i libucrt:output.obj
 0001:00037866       ?type_case_d@?$output_processor@DV?$string_output_adapter@D@__crt_stdio_output@@V?$positional_parameter_base@DV?$string_output_adapter@D@__crt_stdio_output@@@2@@__crt_stdio_output@@AAE_NXZ 10038866 f i libucrt:output.obj
 0001:00037877       ?type_case_d@?$output_processor@DV?$string_output_adapter@D@__crt_stdio_output@@V?$standard_base@DV?$string_output_adapter@D@__crt_stdio_output@@@2@@__crt_stdio_output@@AAE_NXZ 10038877 f i libucrt:output.obj
 0001:00037888       ?type_case_d@?$output_processor@_WV?$stream_output_adapter@_W@__crt_stdio_output@@V?$format_validation_base@_WV?$stream_output_adapter@_W@__crt_stdio_output@@@2@@__crt_stdio_output@@AAE_NXZ 10038888 f i libucrt:output.obj
 0001:00037899       ?type_case_d@?$output_processor@_WV?$stream_output_adapter@_W@__crt_stdio_output@@V?$positional_parameter_base@_WV?$stream_output_adapter@_W@__crt_stdio_output@@@2@@__crt_stdio_output@@AAE_NXZ 10038899 f i libucrt:output.obj
 0001:000378aa       ?type_case_d@?$output_processor@_WV?$stream_output_adapter@_W@__crt_stdio_output@@V?$standard_base@_WV?$stream_output_adapter@_W@__crt_stdio_output@@@2@@__crt_stdio_output@@AAE_NXZ 100388aa f i libucrt:output.obj
 0001:000378bb       ?type_case_d@?$output_processor@_WV?$string_output_adapter@_W@__crt_stdio_output@@V?$format_validation_base@_WV?$string_output_adapter@_W@__crt_stdio_output@@@2@@__crt_stdio_output@@AAE_NXZ 100388bb f i libucrt:output.obj
 0001:000378cc       ?type_case_d@?$output_processor@_WV?$string_output_adapter@_W@__crt_stdio_output@@V?$positional_parameter_base@_WV?$string_output_adapter@_W@__crt_stdio_output@@@2@@__crt_stdio_output@@AAE_NXZ 100388cc f i libucrt:output.obj
 0001:000378dd       ?type_case_d@?$output_processor@_WV?$string_output_adapter@_W@__crt_stdio_output@@V?$standard_base@_WV?$string_output_adapter@_W@__crt_stdio_output@@@2@@__crt_stdio_output@@AAE_NXZ 100388dd f i libucrt:output.obj
 0001:000378ee       ?type_case_integer@?$output_processor@DV?$stream_output_adapter@D@__crt_stdio_output@@V?$format_validation_base@DV?$stream_output_adapter@D@__crt_stdio_output@@@2@@__crt_stdio_output@@AAE_NI_N@Z 100388ee f i libucrt:output.obj
 0001:00037a95       ?type_case_integer@?$output_processor@DV?$stream_output_adapter@D@__crt_stdio_output@@V?$positional_parameter_base@DV?$stream_output_adapter@D@__crt_stdio_output@@@2@@__crt_stdio_output@@AAE_NI_N@Z 10038a95 f i libucrt:output.obj
 0001:00037c78       ?type_case_integer@?$output_processor@DV?$stream_output_adapter@D@__crt_stdio_output@@V?$standard_base@DV?$stream_output_adapter@D@__crt_stdio_output@@@2@@__crt_stdio_output@@AAE_NI_N@Z 10038c78 f i libucrt:output.obj
 0001:00037e1f       ?type_case_integer@?$output_processor@DV?$string_output_adapter@D@__crt_stdio_output@@V?$format_validation_base@DV?$string_output_adapter@D@__crt_stdio_output@@@2@@__crt_stdio_output@@AAE_NI_N@Z 10038e1f f i libucrt:output.obj
 0001:00037fc6       ?type_case_integer@?$output_processor@DV?$string_output_adapter@D@__crt_stdio_output@@V?$positional_parameter_base@DV?$string_output_adapter@D@__crt_stdio_output@@@2@@__crt_stdio_output@@AAE_NI_N@Z 10038fc6 f i libucrt:output.obj
 0001:000381a9       ?type_case_integer@?$output_processor@DV?$string_output_adapter@D@__crt_stdio_output@@V?$standard_base@DV?$string_output_adapter@D@__crt_stdio_output@@@2@@__crt_stdio_output@@AAE_NI_N@Z 100391a9 f i libucrt:output.obj
 0001:00038350       ?type_case_integer@?$output_processor@_WV?$stream_output_adapter@_W@__crt_stdio_output@@V?$format_validation_base@_WV?$stream_output_adapter@_W@__crt_stdio_output@@@2@@__crt_stdio_output@@AAE_NI_N@Z 10039350 f i libucrt:output.obj
 0001:000384fc       ?type_case_integer@?$output_processor@_WV?$stream_output_adapter@_W@__crt_stdio_output@@V?$positional_parameter_base@_WV?$stream_output_adapter@_W@__crt_stdio_output@@@2@@__crt_stdio_output@@AAE_NI_N@Z 100394fc f i libucrt:output.obj
 0001:000386e4       ?type_case_integer@?$output_processor@_WV?$stream_output_adapter@_W@__crt_stdio_output@@V?$standard_base@_WV?$stream_output_adapter@_W@__crt_stdio_output@@@2@@__crt_stdio_output@@AAE_NI_N@Z 100396e4 f i libucrt:output.obj
 0001:00038890       ?type_case_integer@?$output_processor@_WV?$string_output_adapter@_W@__crt_stdio_output@@V?$format_validation_base@_WV?$string_output_adapter@_W@__crt_stdio_output@@@2@@__crt_stdio_output@@AAE_NI_N@Z 10039890 f i libucrt:output.obj
 0001:00038a3c       ?type_case_integer@?$output_processor@_WV?$string_output_adapter@_W@__crt_stdio_output@@V?$positional_parameter_base@_WV?$string_output_adapter@_W@__crt_stdio_output@@@2@@__crt_stdio_output@@AAE_NI_N@Z 10039a3c f i libucrt:output.obj
 0001:00038c24       ?type_case_integer@?$output_processor@_WV?$string_output_adapter@_W@__crt_stdio_output@@V?$standard_base@_WV?$string_output_adapter@_W@__crt_stdio_output@@@2@@__crt_stdio_output@@AAE_NI_N@Z 10039c24 f i libucrt:output.obj
 0001:00038dd0       ?type_case_n@?$output_processor@DV?$stream_output_adapter@D@__crt_stdio_output@@V?$format_validation_base@DV?$stream_output_adapter@D@__crt_stdio_output@@@2@@__crt_stdio_output@@AAE_NXZ 10039dd0 f i libucrt:output.obj
 0001:00038e61       ?type_case_n@?$output_processor@DV?$stream_output_adapter@D@__crt_stdio_output@@V?$positional_parameter_base@DV?$stream_output_adapter@D@__crt_stdio_output@@@2@@__crt_stdio_output@@AAE_NXZ 10039e61 f i libucrt:output.obj
 0001:00038f20       ?type_case_n@?$output_processor@DV?$stream_output_adapter@D@__crt_stdio_output@@V?$standard_base@DV?$stream_output_adapter@D@__crt_stdio_output@@@2@@__crt_stdio_output@@AAE_NXZ 10039f20 f i libucrt:output.obj
 0001:00038fb1       ?type_case_n@?$output_processor@DV?$string_output_adapter@D@__crt_stdio_output@@V?$format_validation_base@DV?$string_output_adapter@D@__crt_stdio_output@@@2@@__crt_stdio_output@@AAE_NXZ 10039fb1 f i libucrt:output.obj
 0001:00039042       ?type_case_n@?$output_processor@DV?$string_output_adapter@D@__crt_stdio_output@@V?$positional_parameter_base@DV?$string_output_adapter@D@__crt_stdio_output@@@2@@__crt_stdio_output@@AAE_NXZ 1003a042 f i libucrt:output.obj
 0001:00039101       ?type_case_n@?$output_processor@DV?$string_output_adapter@D@__crt_stdio_output@@V?$standard_base@DV?$string_output_adapter@D@__crt_stdio_output@@@2@@__crt_stdio_output@@AAE_NXZ 1003a101 f i libucrt:output.obj
 0001:00039192       ?type_case_n@?$output_processor@_WV?$stream_output_adapter@_W@__crt_stdio_output@@V?$format_validation_base@_WV?$stream_output_adapter@_W@__crt_stdio_output@@@2@@__crt_stdio_output@@AAE_NXZ 1003a192 f i libucrt:output.obj
 0001:00039223       ?type_case_n@?$output_processor@_WV?$stream_output_adapter@_W@__crt_stdio_output@@V?$positional_parameter_base@_WV?$stream_output_adapter@_W@__crt_stdio_output@@@2@@__crt_stdio_output@@AAE_NXZ 1003a223 f i libucrt:output.obj
 0001:000392e2       ?type_case_n@?$output_processor@_WV?$stream_output_adapter@_W@__crt_stdio_output@@V?$standard_base@_WV?$stream_output_adapter@_W@__crt_stdio_output@@@2@@__crt_stdio_output@@AAE_NXZ 1003a2e2 f i libucrt:output.obj
 0001:00039373       ?type_case_n@?$output_processor@_WV?$string_output_adapter@_W@__crt_stdio_output@@V?$format_validation_base@_WV?$string_output_adapter@_W@__crt_stdio_output@@@2@@__crt_stdio_output@@AAE_NXZ 1003a373 f i libucrt:output.obj
 0001:00039404       ?type_case_n@?$output_processor@_WV?$string_output_adapter@_W@__crt_stdio_output@@V?$positional_parameter_base@_WV?$string_output_adapter@_W@__crt_stdio_output@@@2@@__crt_stdio_output@@AAE_NXZ 1003a404 f i libucrt:output.obj
 0001:000394c3       ?type_case_n@?$output_processor@_WV?$string_output_adapter@_W@__crt_stdio_output@@V?$standard_base@_WV?$string_output_adapter@_W@__crt_stdio_output@@@2@@__crt_stdio_output@@AAE_NXZ 1003a4c3 f i libucrt:output.obj
 0001:00039554       ?type_case_o@?$output_processor@DV?$stream_output_adapter@D@__crt_stdio_output@@V?$format_validation_base@DV?$stream_output_adapter@D@__crt_stdio_output@@@2@@__crt_stdio_output@@AAE_NXZ 1003a554 f i libucrt:output.obj
 0001:0003957a       ?type_case_o@?$output_processor@DV?$stream_output_adapter@D@__crt_stdio_output@@V?$positional_parameter_base@DV?$stream_output_adapter@D@__crt_stdio_output@@@2@@__crt_stdio_output@@AAE_NXZ 1003a57a f i libucrt:output.obj
 0001:000395a0       ?type_case_o@?$output_processor@DV?$stream_output_adapter@D@__crt_stdio_output@@V?$standard_base@DV?$stream_output_adapter@D@__crt_stdio_output@@@2@@__crt_stdio_output@@AAE_NXZ 1003a5a0 f i libucrt:output.obj
 0001:000395c6       ?type_case_o@?$output_processor@DV?$string_output_adapter@D@__crt_stdio_output@@V?$format_validation_base@DV?$string_output_adapter@D@__crt_stdio_output@@@2@@__crt_stdio_output@@AAE_NXZ 1003a5c6 f i libucrt:output.obj
 0001:000395ec       ?type_case_o@?$output_processor@DV?$string_output_adapter@D@__crt_stdio_output@@V?$positional_parameter_base@DV?$string_output_adapter@D@__crt_stdio_output@@@2@@__crt_stdio_output@@AAE_NXZ 1003a5ec f i libucrt:output.obj
 0001:00039612       ?type_case_o@?$output_processor@DV?$string_output_adapter@D@__crt_stdio_output@@V?$standard_base@DV?$string_output_adapter@D@__crt_stdio_output@@@2@@__crt_stdio_output@@AAE_NXZ 1003a612 f i libucrt:output.obj
 0001:00039638       ?type_case_o@?$output_processor@_WV?$stream_output_adapter@_W@__crt_stdio_output@@V?$format_validation_base@_WV?$stream_output_adapter@_W@__crt_stdio_output@@@2@@__crt_stdio_output@@AAE_NXZ 1003a638 f i libucrt:output.obj
 0001:0003965e       ?type_case_o@?$output_processor@_WV?$stream_output_adapter@_W@__crt_stdio_output@@V?$positional_parameter_base@_WV?$stream_output_adapter@_W@__crt_stdio_output@@@2@@__crt_stdio_output@@AAE_NXZ 1003a65e f i libucrt:output.obj
 0001:00039684       ?type_case_o@?$output_processor@_WV?$stream_output_adapter@_W@__crt_stdio_output@@V?$standard_base@_WV?$stream_output_adapter@_W@__crt_stdio_output@@@2@@__crt_stdio_output@@AAE_NXZ 1003a684 f i libucrt:output.obj
 0001:000396aa       ?type_case_o@?$output_processor@_WV?$string_output_adapter@_W@__crt_stdio_output@@V?$format_validation_base@_WV?$string_output_adapter@_W@__crt_stdio_output@@@2@@__crt_stdio_output@@AAE_NXZ 1003a6aa f i libucrt:output.obj
 0001:000396d0       ?type_case_o@?$output_processor@_WV?$string_output_adapter@_W@__crt_stdio_output@@V?$positional_parameter_base@_WV?$string_output_adapter@_W@__crt_stdio_output@@@2@@__crt_stdio_output@@AAE_NXZ 1003a6d0 f i libucrt:output.obj
 0001:000396f6       ?type_case_o@?$output_processor@_WV?$string_output_adapter@_W@__crt_stdio_output@@V?$standard_base@_WV?$string_output_adapter@_W@__crt_stdio_output@@@2@@__crt_stdio_output@@AAE_NXZ 1003a6f6 f i libucrt:output.obj
 0001:0003971c       ?type_case_p@?$output_processor@DV?$stream_output_adapter@D@__crt_stdio_output@@V?$format_validation_base@DV?$stream_output_adapter@D@__crt_stdio_output@@@2@@__crt_stdio_output@@AAE_NXZ 1003a71c f i libucrt:output.obj
 0001:0003973a       ?type_case_p@?$output_processor@DV?$stream_output_adapter@D@__crt_stdio_output@@V?$positional_parameter_base@DV?$stream_output_adapter@D@__crt_stdio_output@@@2@@__crt_stdio_output@@AAE_NXZ 1003a73a f i libucrt:output.obj
 0001:00039758       ?type_case_p@?$output_processor@DV?$stream_output_adapter@D@__crt_stdio_output@@V?$standard_base@DV?$stream_output_adapter@D@__crt_stdio_output@@@2@@__crt_stdio_output@@AAE_NXZ 1003a758 f i libucrt:output.obj
 0001:00039776       ?type_case_p@?$output_processor@DV?$string_output_adapter@D@__crt_stdio_output@@V?$format_validation_base@DV?$string_output_adapter@D@__crt_stdio_output@@@2@@__crt_stdio_output@@AAE_NXZ 1003a776 f i libucrt:output.obj
 0001:00039794       ?type_case_p@?$output_processor@DV?$string_output_adapter@D@__crt_stdio_output@@V?$positional_parameter_base@DV?$string_output_adapter@D@__crt_stdio_output@@@2@@__crt_stdio_output@@AAE_NXZ 1003a794 f i libucrt:output.obj
 0001:000397b2       ?type_case_p@?$output_processor@DV?$string_output_adapter@D@__crt_stdio_output@@V?$standard_base@DV?$string_output_adapter@D@__crt_stdio_output@@@2@@__crt_stdio_output@@AAE_NXZ 1003a7b2 f i libucrt:output.obj
 0001:000397d0       ?type_case_p@?$output_processor@_WV?$stream_output_adapter@_W@__crt_stdio_output@@V?$format_validation_base@_WV?$stream_output_adapter@_W@__crt_stdio_output@@@2@@__crt_stdio_output@@AAE_NXZ 1003a7d0 f i libucrt:output.obj
 0001:000397ee       ?type_case_p@?$output_processor@_WV?$stream_output_adapter@_W@__crt_stdio_output@@V?$positional_parameter_base@_WV?$stream_output_adapter@_W@__crt_stdio_output@@@2@@__crt_stdio_output@@AAE_NXZ 1003a7ee f i libucrt:output.obj
 0001:0003980c       ?type_case_p@?$output_processor@_WV?$stream_output_adapter@_W@__crt_stdio_output@@V?$standard_base@_WV?$stream_output_adapter@_W@__crt_stdio_output@@@2@@__crt_stdio_output@@AAE_NXZ 1003a80c f i libucrt:output.obj
 0001:0003982a       ?type_case_p@?$output_processor@_WV?$string_output_adapter@_W@__crt_stdio_output@@V?$format_validation_base@_WV?$string_output_adapter@_W@__crt_stdio_output@@@2@@__crt_stdio_output@@AAE_NXZ 1003a82a f i libucrt:output.obj
 0001:00039848       ?type_case_p@?$output_processor@_WV?$string_output_adapter@_W@__crt_stdio_output@@V?$positional_parameter_base@_WV?$string_output_adapter@_W@__crt_stdio_output@@@2@@__crt_stdio_output@@AAE_NXZ 1003a848 f i libucrt:output.obj
 0001:00039866       ?type_case_p@?$output_processor@_WV?$string_output_adapter@_W@__crt_stdio_output@@V?$standard_base@_WV?$string_output_adapter@_W@__crt_stdio_output@@@2@@__crt_stdio_output@@AAE_NXZ 1003a866 f i libucrt:output.obj
 0001:00039884       ?type_case_s@?$output_processor@DV?$stream_output_adapter@D@__crt_stdio_output@@V?$format_validation_base@DV?$stream_output_adapter@D@__crt_stdio_output@@@2@@__crt_stdio_output@@AAE_NXZ 1003a884 f i libucrt:output.obj
 0001:00039911       ?type_case_s@?$output_processor@DV?$stream_output_adapter@D@__crt_stdio_output@@V?$positional_parameter_base@DV?$stream_output_adapter@D@__crt_stdio_output@@@2@@__crt_stdio_output@@AAE_NXZ 1003a911 f i libucrt:output.obj
 0001:000399ae       ?type_case_s@?$output_processor@DV?$stream_output_adapter@D@__crt_stdio_output@@V?$standard_base@DV?$stream_output_adapter@D@__crt_stdio_output@@@2@@__crt_stdio_output@@AAE_NXZ 1003a9ae f i libucrt:output.obj
 0001:00039a3b       ?type_case_s@?$output_processor@DV?$string_output_adapter@D@__crt_stdio_output@@V?$format_validation_base@DV?$string_output_adapter@D@__crt_stdio_output@@@2@@__crt_stdio_output@@AAE_NXZ 1003aa3b f i libucrt:output.obj
 0001:00039ac8       ?type_case_s@?$output_processor@DV?$string_output_adapter@D@__crt_stdio_output@@V?$positional_parameter_base@DV?$string_output_adapter@D@__crt_stdio_output@@@2@@__crt_stdio_output@@AAE_NXZ 1003aac8 f i libucrt:output.obj
 0001:00039b65       ?type_case_s@?$output_processor@DV?$string_output_adapter@D@__crt_stdio_output@@V?$standard_base@DV?$string_output_adapter@D@__crt_stdio_output@@@2@@__crt_stdio_output@@AAE_NXZ 1003ab65 f i libucrt:output.obj
 0001:00039bf2       ?type_case_s@?$output_processor@_WV?$stream_output_adapter@_W@__crt_stdio_output@@V?$format_validation_base@_WV?$stream_output_adapter@_W@__crt_stdio_output@@@2@@__crt_stdio_output@@AAE_NXZ 1003abf2 f i libucrt:output.obj
 0001:00039c81       ?type_case_s@?$output_processor@_WV?$stream_output_adapter@_W@__crt_stdio_output@@V?$positional_parameter_base@_WV?$stream_output_adapter@_W@__crt_stdio_output@@@2@@__crt_stdio_output@@AAE_NXZ 1003ac81 f i libucrt:output.obj
 0001:00039d21       ?type_case_s@?$output_processor@_WV?$stream_output_adapter@_W@__crt_stdio_output@@V?$standard_base@_WV?$stream_output_adapter@_W@__crt_stdio_output@@@2@@__crt_stdio_output@@AAE_NXZ 1003ad21 f i libucrt:output.obj
 0001:00039db0       ?type_case_s@?$output_processor@_WV?$string_output_adapter@_W@__crt_stdio_output@@V?$format_validation_base@_WV?$string_output_adapter@_W@__crt_stdio_output@@@2@@__crt_stdio_output@@AAE_NXZ 1003adb0 f i libucrt:output.obj
 0001:00039e3f       ?type_case_s@?$output_processor@_WV?$string_output_adapter@_W@__crt_stdio_output@@V?$positional_parameter_base@_WV?$string_output_adapter@_W@__crt_stdio_output@@@2@@__crt_stdio_output@@AAE_NXZ 1003ae3f f i libucrt:output.obj
 0001:00039edf       ?type_case_s@?$output_processor@_WV?$string_output_adapter@_W@__crt_stdio_output@@V?$standard_base@_WV?$string_output_adapter@_W@__crt_stdio_output@@@2@@__crt_stdio_output@@AAE_NXZ 1003aedf f i libucrt:output.obj
 0001:00039f6e       ?type_case_s_compute_narrow_string_length@?$output_processor@DV?$stream_output_adapter@D@__crt_stdio_output@@V?$format_validation_base@DV?$stream_output_adapter@D@__crt_stdio_output@@@2@@__crt_stdio_output@@ABEHHD@Z 1003af6e f i libucrt:output.obj
 0001:00039f89       ?type_case_s_compute_narrow_string_length@?$output_processor@DV?$stream_output_adapter@D@__crt_stdio_output@@V?$positional_parameter_base@DV?$stream_output_adapter@D@__crt_stdio_output@@@2@@__crt_stdio_output@@ABEHHD@Z 1003af89 f i libucrt:output.obj
 0001:00039fa4       ?type_case_s_compute_narrow_string_length@?$output_processor@DV?$stream_output_adapter@D@__crt_stdio_output@@V?$standard_base@DV?$stream_output_adapter@D@__crt_stdio_output@@@2@@__crt_stdio_output@@ABEHHD@Z 1003afa4 f i libucrt:output.obj
 0001:00039fbf       ?type_case_s_compute_narrow_string_length@?$output_processor@DV?$string_output_adapter@D@__crt_stdio_output@@V?$format_validation_base@DV?$string_output_adapter@D@__crt_stdio_output@@@2@@__crt_stdio_output@@ABEHHD@Z 1003afbf f i libucrt:output.obj
 0001:00039fda       ?type_case_s_compute_narrow_string_length@?$output_processor@DV?$string_output_adapter@D@__crt_stdio_output@@V?$positional_parameter_base@DV?$string_output_adapter@D@__crt_stdio_output@@@2@@__crt_stdio_output@@ABEHHD@Z 1003afda f i libucrt:output.obj
 0001:00039ff5       ?type_case_s_compute_narrow_string_length@?$output_processor@DV?$string_output_adapter@D@__crt_stdio_output@@V?$standard_base@DV?$string_output_adapter@D@__crt_stdio_output@@@2@@__crt_stdio_output@@ABEHHD@Z 1003aff5 f i libucrt:output.obj
 0001:0003a010       ?type_case_s_compute_narrow_string_length@?$output_processor@_WV?$stream_output_adapter@_W@__crt_stdio_output@@V?$format_validation_base@_WV?$stream_output_adapter@_W@__crt_stdio_output@@@2@@__crt_stdio_output@@ABEHH_W@Z 1003b010 f i libucrt:output.obj
 0001:0003a05c       ?type_case_s_compute_narrow_string_length@?$output_processor@_WV?$stream_output_adapter@_W@__crt_stdio_output@@V?$positional_parameter_base@_WV?$stream_output_adapter@_W@__crt_stdio_output@@@2@@__crt_stdio_output@@ABEHH_W@Z 1003b05c f i libucrt:output.obj
 0001:0003a0a8       ?type_case_s_compute_narrow_string_length@?$output_processor@_WV?$stream_output_adapter@_W@__crt_stdio_output@@V?$standard_base@_WV?$stream_output_adapter@_W@__crt_stdio_output@@@2@@__crt_stdio_output@@ABEHH_W@Z 1003b0a8 f i libucrt:output.obj
 0001:0003a0f4       ?type_case_s_compute_narrow_string_length@?$output_processor@_WV?$string_output_adapter@_W@__crt_stdio_output@@V?$format_validation_base@_WV?$string_output_adapter@_W@__crt_stdio_output@@@2@@__crt_stdio_output@@ABEHH_W@Z 1003b0f4 f i libucrt:output.obj
 0001:0003a140       ?type_case_s_compute_narrow_string_length@?$output_processor@_WV?$string_output_adapter@_W@__crt_stdio_output@@V?$positional_parameter_base@_WV?$string_output_adapter@_W@__crt_stdio_output@@@2@@__crt_stdio_output@@ABEHH_W@Z 1003b140 f i libucrt:output.obj
 0001:0003a18c       ?type_case_s_compute_narrow_string_length@?$output_processor@_WV?$string_output_adapter@_W@__crt_stdio_output@@V?$standard_base@_WV?$string_output_adapter@_W@__crt_stdio_output@@@2@@__crt_stdio_output@@ABEHH_W@Z 1003b18c f i libucrt:output.obj
 0001:0003a1d8       ?type_case_u@?$output_processor@DV?$stream_output_adapter@D@__crt_stdio_output@@V?$format_validation_base@DV?$stream_output_adapter@D@__crt_stdio_output@@@2@@__crt_stdio_output@@AAE_NXZ 1003b1d8 f i libucrt:output.obj
 0001:0003a1e4       ?type_case_u@?$output_processor@DV?$stream_output_adapter@D@__crt_stdio_output@@V?$positional_parameter_base@DV?$stream_output_adapter@D@__crt_stdio_output@@@2@@__crt_stdio_output@@AAE_NXZ 1003b1e4 f i libucrt:output.obj
 0001:0003a1f0       ?type_case_u@?$output_processor@DV?$stream_output_adapter@D@__crt_stdio_output@@V?$standard_base@DV?$stream_output_adapter@D@__crt_stdio_output@@@2@@__crt_stdio_output@@AAE_NXZ 1003b1f0 f i libucrt:output.obj
 0001:0003a1fc       ?type_case_u@?$output_processor@DV?$string_output_adapter@D@__crt_stdio_output@@V?$format_validation_base@DV?$string_output_adapter@D@__crt_stdio_output@@@2@@__crt_stdio_output@@AAE_NXZ 1003b1fc f i libucrt:output.obj
 0001:0003a208       ?type_case_u@?$output_processor@DV?$string_output_adapter@D@__crt_stdio_output@@V?$positional_parameter_base@DV?$string_output_adapter@D@__crt_stdio_output@@@2@@__crt_stdio_output@@AAE_NXZ 1003b208 f i libucrt:output.obj
 0001:0003a214       ?type_case_u@?$output_processor@DV?$string_output_adapter@D@__crt_stdio_output@@V?$standard_base@DV?$string_output_adapter@D@__crt_stdio_output@@@2@@__crt_stdio_output@@AAE_NXZ 1003b214 f i libucrt:output.obj
 0001:0003a220       ?type_case_u@?$output_processor@_WV?$stream_output_adapter@_W@__crt_stdio_output@@V?$format_validation_base@_WV?$stream_output_adapter@_W@__crt_stdio_output@@@2@@__crt_stdio_output@@AAE_NXZ 1003b220 f i libucrt:output.obj
 0001:0003a22c       ?type_case_u@?$output_processor@_WV?$stream_output_adapter@_W@__crt_stdio_output@@V?$positional_parameter_base@_WV?$stream_output_adapter@_W@__crt_stdio_output@@@2@@__crt_stdio_output@@AAE_NXZ 1003b22c f i libucrt:output.obj
 0001:0003a238       ?type_case_u@?$output_processor@_WV?$stream_output_adapter@_W@__crt_stdio_output@@V?$standard_base@_WV?$stream_output_adapter@_W@__crt_stdio_output@@@2@@__crt_stdio_output@@AAE_NXZ 1003b238 f i libucrt:output.obj
 0001:0003a244       ?type_case_u@?$output_processor@_WV?$string_output_adapter@_W@__crt_stdio_output@@V?$format_validation_base@_WV?$string_output_adapter@_W@__crt_stdio_output@@@2@@__crt_stdio_output@@AAE_NXZ 1003b244 f i libucrt:output.obj
 0001:0003a250       ?type_case_u@?$output_processor@_WV?$string_output_adapter@_W@__crt_stdio_output@@V?$positional_parameter_base@_WV?$string_output_adapter@_W@__crt_stdio_output@@@2@@__crt_stdio_output@@AAE_NXZ 1003b250 f i libucrt:output.obj
 0001:0003a25c       ?type_case_u@?$output_processor@_WV?$string_output_adapter@_W@__crt_stdio_output@@V?$standard_base@_WV?$string_output_adapter@_W@__crt_stdio_output@@@2@@__crt_stdio_output@@AAE_NXZ 1003b25c f i libucrt:output.obj
 0001:0003a268       ?type_case_x@?$output_processor@DV?$stream_output_adapter@D@__crt_stdio_output@@V?$format_validation_base@DV?$stream_output_adapter@D@__crt_stdio_output@@@2@@__crt_stdio_output@@AAE_NXZ 1003b268 f i libucrt:output.obj
 0001:0003a274       ?type_case_x@?$output_processor@DV?$stream_output_adapter@D@__crt_stdio_output@@V?$positional_parameter_base@DV?$stream_output_adapter@D@__crt_stdio_output@@@2@@__crt_stdio_output@@AAE_NXZ 1003b274 f i libucrt:output.obj
 0001:0003a280       ?type_case_x@?$output_processor@DV?$stream_output_adapter@D@__crt_stdio_output@@V?$standard_base@DV?$stream_output_adapter@D@__crt_stdio_output@@@2@@__crt_stdio_output@@AAE_NXZ 1003b280 f i libucrt:output.obj
 0001:0003a28c       ?type_case_x@?$output_processor@DV?$string_output_adapter@D@__crt_stdio_output@@V?$format_validation_base@DV?$string_output_adapter@D@__crt_stdio_output@@@2@@__crt_stdio_output@@AAE_NXZ 1003b28c f i libucrt:output.obj
 0001:0003a298       ?type_case_x@?$output_processor@DV?$string_output_adapter@D@__crt_stdio_output@@V?$positional_parameter_base@DV?$string_output_adapter@D@__crt_stdio_output@@@2@@__crt_stdio_output@@AAE_NXZ 1003b298 f i libucrt:output.obj
 0001:0003a2a4       ?type_case_x@?$output_processor@DV?$string_output_adapter@D@__crt_stdio_output@@V?$standard_base@DV?$string_output_adapter@D@__crt_stdio_output@@@2@@__crt_stdio_output@@AAE_NXZ 1003b2a4 f i libucrt:output.obj
 0001:0003a2b0       ?type_case_x@?$output_processor@_WV?$stream_output_adapter@_W@__crt_stdio_output@@V?$format_validation_base@_WV?$stream_output_adapter@_W@__crt_stdio_output@@@2@@__crt_stdio_output@@AAE_NXZ 1003b2b0 f i libucrt:output.obj
 0001:0003a2bc       ?type_case_x@?$output_processor@_WV?$stream_output_adapter@_W@__crt_stdio_output@@V?$positional_parameter_base@_WV?$stream_output_adapter@_W@__crt_stdio_output@@@2@@__crt_stdio_output@@AAE_NXZ 1003b2bc f i libucrt:output.obj
 0001:0003a2c8       ?type_case_x@?$output_processor@_WV?$stream_output_adapter@_W@__crt_stdio_output@@V?$standard_base@_WV?$stream_output_adapter@_W@__crt_stdio_output@@@2@@__crt_stdio_output@@AAE_NXZ 1003b2c8 f i libucrt:output.obj
 0001:0003a2d4       ?type_case_x@?$output_processor@_WV?$string_output_adapter@_W@__crt_stdio_output@@V?$format_validation_base@_WV?$string_output_adapter@_W@__crt_stdio_output@@@2@@__crt_stdio_output@@AAE_NXZ 1003b2d4 f i libucrt:output.obj
 0001:0003a2e0       ?type_case_x@?$output_processor@_WV?$string_output_adapter@_W@__crt_stdio_output@@V?$positional_parameter_base@_WV?$string_output_adapter@_W@__crt_stdio_output@@@2@@__crt_stdio_output@@AAE_NXZ 1003b2e0 f i libucrt:output.obj
 0001:0003a2ec       ?type_case_x@?$output_processor@_WV?$string_output_adapter@_W@__crt_stdio_output@@V?$standard_base@_WV?$string_output_adapter@_W@__crt_stdio_output@@@2@@__crt_stdio_output@@AAE_NXZ 1003b2ec f i libucrt:output.obj
 0001:0003a2f8       ?unset_flag@?$output_processor@DV?$stream_output_adapter@D@__crt_stdio_output@@V?$format_validation_base@DV?$stream_output_adapter@D@__crt_stdio_output@@@2@@__crt_stdio_output@@AAEXI@Z 1003b2f8 f i libucrt:output.obj
 0001:0003a30d       ?unset_flag@?$output_processor@DV?$stream_output_adapter@D@__crt_stdio_output@@V?$positional_parameter_base@DV?$stream_output_adapter@D@__crt_stdio_output@@@2@@__crt_stdio_output@@AAEXI@Z 1003b30d f i libucrt:output.obj
 0001:0003a322       ?unset_flag@?$output_processor@DV?$stream_output_adapter@D@__crt_stdio_output@@V?$standard_base@DV?$stream_output_adapter@D@__crt_stdio_output@@@2@@__crt_stdio_output@@AAEXI@Z 1003b322 f i libucrt:output.obj
 0001:0003a337       ?unset_flag@?$output_processor@DV?$string_output_adapter@D@__crt_stdio_output@@V?$format_validation_base@DV?$string_output_adapter@D@__crt_stdio_output@@@2@@__crt_stdio_output@@AAEXI@Z 1003b337 f i libucrt:output.obj
 0001:0003a34c       ?unset_flag@?$output_processor@DV?$string_output_adapter@D@__crt_stdio_output@@V?$positional_parameter_base@DV?$string_output_adapter@D@__crt_stdio_output@@@2@@__crt_stdio_output@@AAEXI@Z 1003b34c f i libucrt:output.obj
 0001:0003a361       ?unset_flag@?$output_processor@DV?$string_output_adapter@D@__crt_stdio_output@@V?$standard_base@DV?$string_output_adapter@D@__crt_stdio_output@@@2@@__crt_stdio_output@@AAEXI@Z 1003b361 f i libucrt:output.obj
 0001:0003a376       ?unset_flag@?$output_processor@_WV?$stream_output_adapter@_W@__crt_stdio_output@@V?$format_validation_base@_WV?$stream_output_adapter@_W@__crt_stdio_output@@@2@@__crt_stdio_output@@AAEXI@Z 1003b376 f i libucrt:output.obj
 0001:0003a38b       ?unset_flag@?$output_processor@_WV?$stream_output_adapter@_W@__crt_stdio_output@@V?$positional_parameter_base@_WV?$stream_output_adapter@_W@__crt_stdio_output@@@2@@__crt_stdio_output@@AAEXI@Z 1003b38b f i libucrt:output.obj
 0001:0003a3a0       ?unset_flag@?$output_processor@_WV?$stream_output_adapter@_W@__crt_stdio_output@@V?$standard_base@_WV?$stream_output_adapter@_W@__crt_stdio_output@@@2@@__crt_stdio_output@@AAEXI@Z 1003b3a0 f i libucrt:output.obj
 0001:0003a3b5       ?unset_flag@?$output_processor@_WV?$string_output_adapter@_W@__crt_stdio_output@@V?$format_validation_base@_WV?$string_output_adapter@_W@__crt_stdio_output@@@2@@__crt_stdio_output@@AAEXI@Z 1003b3b5 f i libucrt:output.obj
 0001:0003a3ca       ?unset_flag@?$output_processor@_WV?$string_output_adapter@_W@__crt_stdio_output@@V?$positional_parameter_base@_WV?$string_output_adapter@_W@__crt_stdio_output@@@2@@__crt_stdio_output@@AAEXI@Z 1003b3ca f i libucrt:output.obj
 0001:0003a3df       ?unset_flag@?$output_processor@_WV?$string_output_adapter@_W@__crt_stdio_output@@V?$standard_base@_WV?$string_output_adapter@_W@__crt_stdio_output@@@2@@__crt_stdio_output@@AAEXI@Z 1003b3df f i libucrt:output.obj
 0001:0003a3f4       ?update_field_width@?$positional_parameter_base@DV?$stream_output_adapter@D@__crt_stdio_output@@@__crt_stdio_output@@IAE_NXZ 1003b3f4 f i libucrt:output.obj
 0001:0003a4d7       ?update_field_width@?$positional_parameter_base@DV?$string_output_adapter@D@__crt_stdio_output@@@__crt_stdio_output@@IAE_NXZ 1003b4d7 f i libucrt:output.obj
 0001:0003a5ba       ?update_field_width@?$positional_parameter_base@_WV?$stream_output_adapter@_W@__crt_stdio_output@@@__crt_stdio_output@@IAE_NXZ 1003b5ba f i libucrt:output.obj
 0001:0003a69e       ?update_field_width@?$positional_parameter_base@_WV?$string_output_adapter@_W@__crt_stdio_output@@@__crt_stdio_output@@IAE_NXZ 1003b69e f i libucrt:output.obj
 0001:0003a782       ?update_field_width@?$standard_base@DV?$stream_output_adapter@D@__crt_stdio_output@@@__crt_stdio_output@@IAE_NXZ 1003b782 f i libucrt:output.obj
 0001:0003a796       ?update_field_width@?$standard_base@DV?$string_output_adapter@D@__crt_stdio_output@@@__crt_stdio_output@@IAE_NXZ 1003b796 f i libucrt:output.obj
 0001:0003a7aa       ?update_field_width@?$standard_base@_WV?$stream_output_adapter@_W@__crt_stdio_output@@@__crt_stdio_output@@IAE_NXZ 1003b7aa f i libucrt:output.obj
 0001:0003a7be       ?update_field_width@?$standard_base@_WV?$string_output_adapter@_W@__crt_stdio_output@@@__crt_stdio_output@@IAE_NXZ 1003b7be f i libucrt:output.obj
 0001:0003a7d2       ?update_precision@?$positional_parameter_base@DV?$stream_output_adapter@D@__crt_stdio_output@@@__crt_stdio_output@@IAE_NXZ 1003b7d2 f i libucrt:output.obj
 0001:0003a8b5       ?update_precision@?$positional_parameter_base@DV?$string_output_adapter@D@__crt_stdio_output@@@__crt_stdio_output@@IAE_NXZ 1003b8b5 f i libucrt:output.obj
 0001:0003a998       ?update_precision@?$positional_parameter_base@_WV?$stream_output_adapter@_W@__crt_stdio_output@@@__crt_stdio_output@@IAE_NXZ 1003b998 f i libucrt:output.obj
 0001:0003aa7c       ?update_precision@?$positional_parameter_base@_WV?$string_output_adapter@_W@__crt_stdio_output@@@__crt_stdio_output@@IAE_NXZ 1003ba7c f i libucrt:output.obj
 0001:0003ab60       ?update_precision@?$standard_base@DV?$stream_output_adapter@D@__crt_stdio_output@@@__crt_stdio_output@@IAE_NXZ 1003bb60 f i libucrt:output.obj
 0001:0003ab74       ?update_precision@?$standard_base@DV?$string_output_adapter@D@__crt_stdio_output@@@__crt_stdio_output@@IAE_NXZ 1003bb74 f i libucrt:output.obj
 0001:0003ab88       ?update_precision@?$standard_base@_WV?$stream_output_adapter@_W@__crt_stdio_output@@@__crt_stdio_output@@IAE_NXZ 1003bb88 f i libucrt:output.obj
 0001:0003ab9c       ?update_precision@?$standard_base@_WV?$string_output_adapter@_W@__crt_stdio_output@@@__crt_stdio_output@@IAE_NXZ 1003bb9c f i libucrt:output.obj
 0001:0003abb0       ?validate@?$stream_output_adapter@D@__crt_stdio_output@@QBE_NXZ 1003bbb0 f i libucrt:output.obj
 0001:0003abd9       ?validate@?$stream_output_adapter@_W@__crt_stdio_output@@QBE_NXZ 1003bbd9 f i libucrt:output.obj
 0001:0003abfa       ?validate@?$string_output_adapter@D@__crt_stdio_output@@QBE_NXZ 1003bbfa f i libucrt:output.obj
 0001:0003ac1b       ?validate@?$string_output_adapter@_W@__crt_stdio_output@@QBE_NXZ 1003bc1b f i libucrt:output.obj
 0001:0003ac3c       ?validate_and_store_parameter_data@?$positional_parameter_base@DV?$stream_output_adapter@D@__crt_stdio_output@@@__crt_stdio_output@@AAE_NAAUparameter_data@12@W4parameter_type@12@DW4length_modifier@2@@Z 1003bc3c f i libucrt:output.obj
 0001:0003ac99       ?validate_and_store_parameter_data@?$positional_parameter_base@DV?$string_output_adapter@D@__crt_stdio_output@@@__crt_stdio_output@@AAE_NAAUparameter_data@12@W4parameter_type@12@DW4length_modifier@2@@Z 1003bc99 f i libucrt:output.obj
 0001:0003acf6       ?validate_and_store_parameter_data@?$positional_parameter_base@_WV?$stream_output_adapter@_W@__crt_stdio_output@@@__crt_stdio_output@@AAE_NAAUparameter_data@12@W4parameter_type@12@_WW4length_modifier@2@@Z 1003bcf6 f i libucrt:output.obj
 0001:0003ad56       ?validate_and_store_parameter_data@?$positional_parameter_base@_WV?$string_output_adapter@_W@__crt_stdio_output@@@__crt_stdio_output@@AAE_NAAUparameter_data@12@W4parameter_type@12@_WW4length_modifier@2@@Z 1003bd56 f i libucrt:output.obj
 0001:0003adb6       ?validate_and_update_state_at_beginning_of_format_character@?$positional_parameter_base@DV?$stream_output_adapter@D@__crt_stdio_output@@@__crt_stdio_output@@IAE_NXZ 1003bdb6 f i libucrt:output.obj
 0001:0003aeee       ?validate_and_update_state_at_beginning_of_format_character@?$positional_parameter_base@DV?$string_output_adapter@D@__crt_stdio_output@@@__crt_stdio_output@@IAE_NXZ 1003beee f i libucrt:output.obj
 0001:0003b026       ?validate_and_update_state_at_beginning_of_format_character@?$positional_parameter_base@_WV?$stream_output_adapter@_W@__crt_stdio_output@@@__crt_stdio_output@@IAE_NXZ 1003c026 f i libucrt:output.obj
 0001:0003b169       ?validate_and_update_state_at_beginning_of_format_character@?$positional_parameter_base@_WV?$string_output_adapter@_W@__crt_stdio_output@@@__crt_stdio_output@@IAE_NXZ 1003c169 f i libucrt:output.obj
 0001:0003b2ac       ?validate_and_update_state_at_beginning_of_format_character@?$standard_base@DV?$stream_output_adapter@D@__crt_stdio_output@@@__crt_stdio_output@@IAE_NXZ 1003c2ac f i libucrt:output.obj
 0001:0003b2af       ?validate_and_update_state_at_beginning_of_format_character@?$standard_base@DV?$string_output_adapter@D@__crt_stdio_output@@@__crt_stdio_output@@IAE_NXZ 1003c2af f i libucrt:output.obj
 0001:0003b2b2       ?validate_and_update_state_at_beginning_of_format_character@?$standard_base@_WV?$stream_output_adapter@_W@__crt_stdio_output@@@__crt_stdio_output@@IAE_NXZ 1003c2b2 f i libucrt:output.obj
 0001:0003b2b5       ?validate_and_update_state_at_beginning_of_format_character@?$standard_base@_WV?$string_output_adapter@_W@__crt_stdio_output@@@__crt_stdio_output@@IAE_NXZ 1003c2b5 f i libucrt:output.obj
 0001:0003b2b8       ?validate_and_update_state_at_end_of_format_string@?$format_validation_base@DV?$stream_output_adapter@D@__crt_stdio_output@@@__crt_stdio_output@@IBE_NXZ 1003c2b8 f i libucrt:output.obj
 0001:0003b2e2       ?validate_and_update_state_at_end_of_format_string@?$format_validation_base@DV?$string_output_adapter@D@__crt_stdio_output@@@__crt_stdio_output@@IBE_NXZ 1003c2e2 f i libucrt:output.obj
 0001:0003b30c       ?validate_and_update_state_at_end_of_format_string@?$format_validation_base@_WV?$stream_output_adapter@_W@__crt_stdio_output@@@__crt_stdio_output@@IBE_NXZ 1003c30c f i libucrt:output.obj
 0001:0003b336       ?validate_and_update_state_at_end_of_format_string@?$format_validation_base@_WV?$string_output_adapter@_W@__crt_stdio_output@@@__crt_stdio_output@@IBE_NXZ 1003c336 f i libucrt:output.obj
 0001:0003b360       ?validate_and_update_state_at_end_of_format_string@?$positional_parameter_base@DV?$stream_output_adapter@D@__crt_stdio_output@@@__crt_stdio_output@@IAE_NXZ 1003c360 f i libucrt:output.obj
 0001:0003b406       ?validate_and_update_state_at_end_of_format_string@?$positional_parameter_base@DV?$string_output_adapter@D@__crt_stdio_output@@@__crt_stdio_output@@IAE_NXZ 1003c406 f i libucrt:output.obj
 0001:0003b4ac       ?validate_and_update_state_at_end_of_format_string@?$positional_parameter_base@_WV?$stream_output_adapter@_W@__crt_stdio_output@@@__crt_stdio_output@@IAE_NXZ 1003c4ac f i libucrt:output.obj
 0001:0003b552       ?validate_and_update_state_at_end_of_format_string@?$positional_parameter_base@_WV?$string_output_adapter@_W@__crt_stdio_output@@@__crt_stdio_output@@IAE_NXZ 1003c552 f i libucrt:output.obj
 0001:0003b5f8       ?validate_and_update_state_at_end_of_format_string@?$standard_base@DV?$stream_output_adapter@D@__crt_stdio_output@@@__crt_stdio_output@@IBE_NXZ 1003c5f8 f i libucrt:output.obj
 0001:0003b5fb       ?validate_and_update_state_at_end_of_format_string@?$standard_base@DV?$string_output_adapter@D@__crt_stdio_output@@@__crt_stdio_output@@IBE_NXZ 1003c5fb f i libucrt:output.obj
 0001:0003b5fe       ?validate_and_update_state_at_end_of_format_string@?$standard_base@_WV?$stream_output_adapter@_W@__crt_stdio_output@@@__crt_stdio_output@@IBE_NXZ 1003c5fe f i libucrt:output.obj
 0001:0003b601       ?validate_and_update_state_at_end_of_format_string@?$standard_base@_WV?$string_output_adapter@_W@__crt_stdio_output@@@__crt_stdio_output@@IBE_NXZ 1003c601 f i libucrt:output.obj
 0001:0003b604       ?validate_state_for_type_case_a@?$positional_parameter_base@DV?$stream_output_adapter@D@__crt_stdio_output@@@__crt_stdio_output@@IAE_NXZ 1003c604 f i libucrt:output.obj
 0001:0003b666       ?validate_state_for_type_case_a@?$positional_parameter_base@DV?$string_output_adapter@D@__crt_stdio_output@@@__crt_stdio_output@@IAE_NXZ 1003c666 f i libucrt:output.obj
 0001:0003b6c8       ?validate_state_for_type_case_a@?$positional_parameter_base@_WV?$stream_output_adapter@_W@__crt_stdio_output@@@__crt_stdio_output@@IAE_NXZ 1003c6c8 f i libucrt:output.obj
 0001:0003b72a       ?validate_state_for_type_case_a@?$positional_parameter_base@_WV?$string_output_adapter@_W@__crt_stdio_output@@@__crt_stdio_output@@IAE_NXZ 1003c72a f i libucrt:output.obj
 0001:0003b78c       ?validate_state_for_type_case_a@?$standard_base@DV?$stream_output_adapter@D@__crt_stdio_output@@@__crt_stdio_output@@IBE_NXZ 1003c78c f i libucrt:output.obj
 0001:0003b78f       ?validate_state_for_type_case_a@?$standard_base@DV?$string_output_adapter@D@__crt_stdio_output@@@__crt_stdio_output@@IBE_NXZ 1003c78f f i libucrt:output.obj
 0001:0003b792       ?validate_state_for_type_case_a@?$standard_base@_WV?$stream_output_adapter@_W@__crt_stdio_output@@@__crt_stdio_output@@IBE_NXZ 1003c792 f i libucrt:output.obj
 0001:0003b795       ?validate_state_for_type_case_a@?$standard_base@_WV?$string_output_adapter@_W@__crt_stdio_output@@@__crt_stdio_output@@IBE_NXZ 1003c795 f i libucrt:output.obj
 0001:0003b798       ?validate_stream_is_ansi_if_required@?$__acrt_stdio_char_traits@D@@SA_NQAU_iobuf@@@Z 1003c798 f i libucrt:output.obj
 0001:0003b83f       ?validate_stream_is_ansi_if_required@?$__acrt_stdio_char_traits@_W@@SA_NQAU_iobuf@@@Z 1003c83f f i libucrt:output.obj
 0001:0003b842       ?wide_null_string@?$output_processor@DV?$stream_output_adapter@D@__crt_stdio_output@@V?$format_validation_base@DV?$stream_output_adapter@D@__crt_stdio_output@@@2@@__crt_stdio_output@@CAPA_WXZ 1003c842 f i libucrt:output.obj
 0001:0003b848       ?wide_null_string@?$output_processor@DV?$stream_output_adapter@D@__crt_stdio_output@@V?$positional_parameter_base@DV?$stream_output_adapter@D@__crt_stdio_output@@@2@@__crt_stdio_output@@CAPA_WXZ 1003c848 f i libucrt:output.obj
 0001:0003b84e       ?wide_null_string@?$output_processor@DV?$stream_output_adapter@D@__crt_stdio_output@@V?$standard_base@DV?$stream_output_adapter@D@__crt_stdio_output@@@2@@__crt_stdio_output@@CAPA_WXZ 1003c84e f i libucrt:output.obj
 0001:0003b854       ?wide_null_string@?$output_processor@DV?$string_output_adapter@D@__crt_stdio_output@@V?$format_validation_base@DV?$string_output_adapter@D@__crt_stdio_output@@@2@@__crt_stdio_output@@CAPA_WXZ 1003c854 f i libucrt:output.obj
 0001:0003b85a       ?wide_null_string@?$output_processor@DV?$string_output_adapter@D@__crt_stdio_output@@V?$positional_parameter_base@DV?$string_output_adapter@D@__crt_stdio_output@@@2@@__crt_stdio_output@@CAPA_WXZ 1003c85a f i libucrt:output.obj
 0001:0003b860       ?wide_null_string@?$output_processor@DV?$string_output_adapter@D@__crt_stdio_output@@V?$standard_base@DV?$string_output_adapter@D@__crt_stdio_output@@@2@@__crt_stdio_output@@CAPA_WXZ 1003c860 f i libucrt:output.obj
 0001:0003b866       ?wide_null_string@?$output_processor@_WV?$stream_output_adapter@_W@__crt_stdio_output@@V?$format_validation_base@_WV?$stream_output_adapter@_W@__crt_stdio_output@@@2@@__crt_stdio_output@@CAPA_WXZ 1003c866 f i libucrt:output.obj
 0001:0003b86c       ?wide_null_string@?$output_processor@_WV?$stream_output_adapter@_W@__crt_stdio_output@@V?$positional_parameter_base@_WV?$stream_output_adapter@_W@__crt_stdio_output@@@2@@__crt_stdio_output@@CAPA_WXZ 1003c86c f i libucrt:output.obj
 0001:0003b872       ?wide_null_string@?$output_processor@_WV?$stream_output_adapter@_W@__crt_stdio_output@@V?$standard_base@_WV?$stream_output_adapter@_W@__crt_stdio_output@@@2@@__crt_stdio_output@@CAPA_WXZ 1003c872 f i libucrt:output.obj
 0001:0003b878       ?wide_null_string@?$output_processor@_WV?$string_output_adapter@_W@__crt_stdio_output@@V?$format_validation_base@_WV?$string_output_adapter@_W@__crt_stdio_output@@@2@@__crt_stdio_output@@CAPA_WXZ 1003c878 f i libucrt:output.obj
 0001:0003b87e       ?wide_null_string@?$output_processor@_WV?$string_output_adapter@_W@__crt_stdio_output@@V?$positional_parameter_base@_WV?$string_output_adapter@_W@__crt_stdio_output@@@2@@__crt_stdio_output@@CAPA_WXZ 1003c87e f i libucrt:output.obj
 0001:0003b884       ?wide_null_string@?$output_processor@_WV?$string_output_adapter@_W@__crt_stdio_output@@V?$standard_base@_WV?$string_output_adapter@_W@__crt_stdio_output@@@2@@__crt_stdio_output@@CAPA_WXZ 1003c884 f i libucrt:output.obj
 0001:0003b88a       ?write_character@?$output_adapter_common@DV?$stream_output_adapter@D@__crt_stdio_output@@@__crt_stdio_output@@QBEXDQAH@Z 1003c88a f i libucrt:output.obj
 0001:0003b8b0       ?write_character@?$output_adapter_common@_WV?$stream_output_adapter@_W@__crt_stdio_output@@@__crt_stdio_output@@QBEX_WQAH@Z 1003c8b0 f i libucrt:output.obj
 0001:0003b8d6       ?write_character@?$string_output_adapter@D@__crt_stdio_output@@QBE_NDQAH@Z 1003c8d6 f i libucrt:output.obj
 0001:0003b928       ?write_character@?$string_output_adapter@_W@__crt_stdio_output@@QBE_N_WQAH@Z 1003c928 f i libucrt:output.obj
 0001:0003b97e       ?write_character_without_count_update@?$stream_output_adapter@D@__crt_stdio_output@@QBE_ND@Z 1003c97e f i libucrt:output.obj
 0001:0003b9c0       ?write_character_without_count_update@?$stream_output_adapter@_W@__crt_stdio_output@@QBE_N_W@Z 1003c9c0 f i libucrt:output.obj
 0001:0003ba06       ?write_stored_string_tchar@?$output_processor@DV?$stream_output_adapter@D@__crt_stdio_output@@V?$format_validation_base@DV?$stream_output_adapter@D@__crt_stdio_output@@@2@@__crt_stdio_output@@AAE_ND@Z 1003ca06 f i libucrt:output.obj
 0001:0003bad9       ?write_stored_string_tchar@?$output_processor@DV?$stream_output_adapter@D@__crt_stdio_output@@V?$positional_parameter_base@DV?$stream_output_adapter@D@__crt_stdio_output@@@2@@__crt_stdio_output@@AAE_ND@Z 1003cad9 f i libucrt:output.obj
 0001:0003bbac       ?write_stored_string_tchar@?$output_processor@DV?$stream_output_adapter@D@__crt_stdio_output@@V?$standard_base@DV?$stream_output_adapter@D@__crt_stdio_output@@@2@@__crt_stdio_output@@AAE_ND@Z 1003cbac f i libucrt:output.obj
 0001:0003bc7f       ?write_stored_string_tchar@?$output_processor@DV?$string_output_adapter@D@__crt_stdio_output@@V?$format_validation_base@DV?$string_output_adapter@D@__crt_stdio_output@@@2@@__crt_stdio_output@@AAE_ND@Z 1003cc7f f i libucrt:output.obj
 0001:0003bd52       ?write_stored_string_tchar@?$output_processor@DV?$string_output_adapter@D@__crt_stdio_output@@V?$positional_parameter_base@DV?$string_output_adapter@D@__crt_stdio_output@@@2@@__crt_stdio_output@@AAE_ND@Z 1003cd52 f i libucrt:output.obj
 0001:0003be25       ?write_stored_string_tchar@?$output_processor@DV?$string_output_adapter@D@__crt_stdio_output@@V?$standard_base@DV?$string_output_adapter@D@__crt_stdio_output@@@2@@__crt_stdio_output@@AAE_ND@Z 1003ce25 f i libucrt:output.obj
 0001:0003bef8       ?write_stored_string_tchar@?$output_processor@_WV?$stream_output_adapter@_W@__crt_stdio_output@@V?$format_validation_base@_WV?$stream_output_adapter@_W@__crt_stdio_output@@@2@@__crt_stdio_output@@AAE_N_W@Z 1003cef8 f i libucrt:output.obj
 0001:0003bfb2       ?write_stored_string_tchar@?$output_processor@_WV?$stream_output_adapter@_W@__crt_stdio_output@@V?$positional_parameter_base@_WV?$stream_output_adapter@_W@__crt_stdio_output@@@2@@__crt_stdio_output@@AAE_N_W@Z 1003cfb2 f i libucrt:output.obj
 0001:0003c06c       ?write_stored_string_tchar@?$output_processor@_WV?$stream_output_adapter@_W@__crt_stdio_output@@V?$standard_base@_WV?$stream_output_adapter@_W@__crt_stdio_output@@@2@@__crt_stdio_output@@AAE_N_W@Z 1003d06c f i libucrt:output.obj
 0001:0003c126       ?write_stored_string_tchar@?$output_processor@_WV?$string_output_adapter@_W@__crt_stdio_output@@V?$format_validation_base@_WV?$string_output_adapter@_W@__crt_stdio_output@@@2@@__crt_stdio_output@@AAE_N_W@Z 1003d126 f i libucrt:output.obj
 0001:0003c1e0       ?write_stored_string_tchar@?$output_processor@_WV?$string_output_adapter@_W@__crt_stdio_output@@V?$positional_parameter_base@_WV?$string_output_adapter@_W@__crt_stdio_output@@@2@@__crt_stdio_output@@AAE_N_W@Z 1003d1e0 f i libucrt:output.obj
 0001:0003c29a       ?write_stored_string_tchar@?$output_processor@_WV?$string_output_adapter@_W@__crt_stdio_output@@V?$standard_base@_WV?$string_output_adapter@_W@__crt_stdio_output@@@2@@__crt_stdio_output@@AAE_N_W@Z 1003d29a f i libucrt:output.obj
 0001:0003c354       ?write_string@?$stream_output_adapter@D@__crt_stdio_output@@QBEXQBDHQAHAAV__crt_deferred_errno_cache@@@Z 1003d354 f i libucrt:output.obj
 0001:0003c389       ?write_string@?$stream_output_adapter@_W@__crt_stdio_output@@QBEXQB_WHQAHAAV__crt_deferred_errno_cache@@@Z 1003d389 f i libucrt:output.obj
 0001:0003c3be       ?write_string@?$string_output_adapter@D@__crt_stdio_output@@QBEXQBDHQAHAAV__crt_deferred_errno_cache@@@Z 1003d3be f i libucrt:output.obj
 0001:0003c43e       ?write_string@?$string_output_adapter@_W@__crt_stdio_output@@QBEXQB_WHQAHAAV__crt_deferred_errno_cache@@@Z 1003d43e f i libucrt:output.obj
 0001:0003c4cd       ?write_string_impl@?$output_adapter_common@DV?$stream_output_adapter@D@__crt_stdio_output@@@__crt_stdio_output@@IBEXQBDHQAHAAV__crt_deferred_errno_cache@@@Z 1003d4cd f i libucrt:output.obj
 0001:0003c595       ?write_string_impl@?$output_adapter_common@_WV?$stream_output_adapter@_W@__crt_stdio_output@@@__crt_stdio_output@@IBEXQB_WHQAHAAV__crt_deferred_errno_cache@@@Z 1003d595 f i libucrt:output.obj
 0001:0003c660       ___acrt_isleadbyte_l_noupdate 1003d660 f i libucrt:output.obj
 0001:0003c681       ___stdio_common_vfprintf   1003d681 f   libucrt:output.obj
 0001:0003c727       ___stdio_common_vfprintf_p 1003d727 f   libucrt:output.obj
 0001:0003c7cd       ___stdio_common_vfprintf_s 1003d7cd f   libucrt:output.obj
 0001:0003c873       ___stdio_common_vfwprintf  1003d873 f   libucrt:output.obj
 0001:0003c919       ___stdio_common_vfwprintf_p 1003d919 f   libucrt:output.obj
 0001:0003c9bf       ___stdio_common_vfwprintf_s 1003d9bf f   libucrt:output.obj
 0001:0003ca65       ___stdio_common_vsnprintf_s 1003da65 f   libucrt:output.obj
 0001:0003ca95       ___stdio_common_vsnwprintf_s 1003da95 f   libucrt:output.obj
 0001:0003cac5       ___stdio_common_vsprintf   1003dac5 f   libucrt:output.obj
 0001:0003caf2       ___stdio_common_vsprintf_p 1003daf2 f   libucrt:output.obj
 0001:0003cb1f       ___stdio_common_vsprintf_s 1003db1f f   libucrt:output.obj
 0001:0003cb4c       ___stdio_common_vswprintf  1003db4c f   libucrt:output.obj
 0001:0003cb79       ___stdio_common_vswprintf_p 1003db79 f   libucrt:output.obj
 0001:0003cba6       ___stdio_common_vswprintf_s 1003dba6 f   libucrt:output.obj
 0001:0003cbd3       _ldexp                     1003dbd3 f   libucrt:ldexp.obj
 0001:0003ce4c       __errcode                  1003de4c f   libucrt:fpexcept.obj
 0001:0003ce8d       __except1                  1003de8d f   libucrt:fpexcept.obj
 0001:0003cf8e       __except2                  1003df8e f   libucrt:fpexcept.obj
 0001:0003d0d7       __handle_exc               1003e0d7 f   libucrt:fpexcept.obj
 0001:0003d33f       __handle_qnan2             1003e33f f   libucrt:fpexcept.obj
 0001:0003d34f       __raise_exc                1003e34f f   libucrt:fpexcept.obj
 0001:0003d37a       __raise_exc_ex             1003e37a f   libucrt:fpexcept.obj
 0001:0003d72d       __raise_excf               1003e72d f   libucrt:fpexcept.obj
 0001:0003d758       __set_errno_from_matherr   1003e758 f   libucrt:fpexcept.obj
 0001:0003d792       __umatherr                 1003e792 f   libucrt:fpexcept.obj
 0001:0003d85c       __initterm                 1003e85c f   libucrt:initterm.obj
 0001:0003d8cf       __initterm_e               1003e8cf f   libucrt:initterm.obj
 0001:0003d952       __seh_filter_dll           1003e952 f   libucrt:exception_filter.obj
 0001:0003d97a       __seh_filter_exe           1003e97a f   libucrt:exception_filter.obj
 0001:0003db39       ??$?RE@__crt_internal_free_policy@@QBEXQBE@Z 1003eb39 f i libucrt:argv_parsing.obj
 0001:0003db4f       ??$?RPAD@__crt_internal_free_policy@@QBEXQBQAD@Z 1003eb4f f i libucrt:argv_parsing.obj
 0001:0003db65       ??$?RPA_W@__crt_internal_free_policy@@QBEXQBQA_W@Z 1003eb65 f i libucrt:argv_parsing.obj
 0001:0003de7e       ??$get_module_file_name@$$TAAY0BAF@DH@?$__crt_char_traits@D@@SAK$$QA$$TAAY0BAF@D$$QAH@Z 1003ee7e f i libucrt:argv_parsing.obj
 0001:0003dea1       ??$get_module_file_name@$$TAAY0BAF@_WH@?$__crt_char_traits@_W@@SAK$$QA$$TAAY0BAF@_W$$QAH@Z 1003eea1 f i libucrt:argv_parsing.obj
 0001:0003e294       ??$set_program_name@PAD@?$__crt_char_traits@D@@SAX$$QAPAD@Z 1003f294 f i libucrt:argv_parsing.obj
 0001:0003e2a9       ??$set_program_name@PA_W@?$__crt_char_traits@_W@@SAX$$QAPA_W@Z 1003f2a9 f i libucrt:argv_parsing.obj
 0001:0003e2e6       ??0?$__crt_unique_heap_ptr@EU__crt_internal_free_policy@@@@QAE@QAE@Z 1003f2e6 f i libucrt:argv_parsing.obj
 0001:0003e2fa       ??0?$__crt_unique_heap_ptr@PADU__crt_internal_free_policy@@@@QAE@QAPAD@Z 1003f2fa f i libucrt:argv_parsing.obj
 0001:0003e30e       ??0?$__crt_unique_heap_ptr@PA_WU__crt_internal_free_policy@@@@QAE@QAPA_W@Z 1003f30e f i libucrt:argv_parsing.obj
 0001:0003e322       ??1?$__crt_unique_heap_ptr@EU__crt_internal_free_policy@@@@QAE@XZ 1003f322 f i libucrt:argv_parsing.obj
 0001:0003e338       ??1?$__crt_unique_heap_ptr@PADU__crt_internal_free_policy@@@@QAE@XZ 1003f338 f i libucrt:argv_parsing.obj
 0001:0003e34e       ??1?$__crt_unique_heap_ptr@PA_WU__crt_internal_free_policy@@@@QAE@XZ 1003f34e f i libucrt:argv_parsing.obj
 0001:0003e364       ??B?$__crt_unique_heap_ptr@EU__crt_internal_free_policy@@@@QBE_NXZ 1003f364 f i libucrt:argv_parsing.obj
 0001:0003e3a1       ?detach@?$__crt_unique_heap_ptr@EU__crt_internal_free_policy@@@@QAEPAEXZ 1003f3a1 f i libucrt:argv_parsing.obj
 0001:0003e3a7       ?detach@?$__crt_unique_heap_ptr@PADU__crt_internal_free_policy@@@@QAEPAPADXZ 1003f3a7 f i libucrt:argv_parsing.obj
 0001:0003e3ad       ?detach@?$__crt_unique_heap_ptr@PA_WU__crt_internal_free_policy@@@@QAEPAPA_WXZ 1003f3ad f i libucrt:argv_parsing.obj
 0001:0003e3d3       ?get@?$__crt_unique_heap_ptr@EU__crt_internal_free_policy@@@@QBEPAEXZ 1003f3d3 f i libucrt:argv_parsing.obj
 0001:0003e3d6       ?get@?$__crt_unique_heap_ptr@PADU__crt_internal_free_policy@@@@QBEPAPADXZ 1003f3d6 f i libucrt:argv_parsing.obj
 0001:0003e3d9       ?get@?$__crt_unique_heap_ptr@PA_WU__crt_internal_free_policy@@@@QBEPAPA_WXZ 1003f3d9 f i libucrt:argv_parsing.obj
 0001:0003e3dc       ?get_address_of@?$__crt_unique_heap_ptr@PADU__crt_internal_free_policy@@@@QAEPAPAPADXZ 1003f3dc f i libucrt:argv_parsing.obj
 0001:0003e3df       ?get_address_of@?$__crt_unique_heap_ptr@PA_WU__crt_internal_free_policy@@@@QAEPAPAPA_WXZ 1003f3df f i libucrt:argv_parsing.obj
 0001:0003e3fa       ?is_valid@?$__crt_unique_heap_ptr@EU__crt_internal_free_policy@@@@QBE_NXZ 1003f3fa f i libucrt:argv_parsing.obj
 0001:0003e401       ?release@?$__crt_unique_heap_ptr@EU__crt_internal_free_policy@@@@QAEXXZ 1003f401 f i libucrt:argv_parsing.obj
 0001:0003e417       ?release@?$__crt_unique_heap_ptr@PADU__crt_internal_free_policy@@@@QAEXXZ 1003f417 f i libucrt:argv_parsing.obj
 0001:0003e42d       ?release@?$__crt_unique_heap_ptr@PA_WU__crt_internal_free_policy@@@@QAEXXZ 1003f42d f i libucrt:argv_parsing.obj
 0001:0003e462       ___acrt_allocate_buffer_for_argv 1003f462 f   libucrt:argv_parsing.obj
 0001:0003e4c4       __configure_narrow_argv    1003f4c4 f   libucrt:argv_parsing.obj
 0001:0003e4d1       __configure_wide_argv      1003f4d1 f   libucrt:argv_parsing.obj
 0001:0003e4de       __set_pgmptr               1003f4de f i libucrt:argv_parsing.obj
 0001:0003e4f0       __set_wpgmptr              1003f4f0 f i libucrt:argv_parsing.obj
 0001:0003e502       ??$?R_W@__crt_internal_free_policy@@QBEXQB_W@Z 1003f502 f i libucrt:environment_initialization.obj
 0001:0003e9e8       ??$get_environment_from_os@$$V@?$__crt_char_traits@D@@SAPADXZ 1003f9e8 f i libucrt:environment_initialization.obj
 0001:0003e9ed       ??$get_environment_from_os@$$V@?$__crt_char_traits@_W@@SAPA_WXZ 1003f9ed f i libucrt:environment_initialization.obj
 0001:0003eb3e       ??$set_variable_in_environment_nolock@PADH@?$__crt_char_traits@D@@SAH$$QAPAD$$QAH@Z 1003fb3e f i libucrt:environment_initialization.obj
 0001:0003eb5c       ??$set_variable_in_environment_nolock@PA_WH@?$__crt_char_traits@_W@@SAH$$QAPA_W$$QAH@Z 1003fb5c f i libucrt:environment_initialization.obj
 0001:0003eb7a       ??$tcscpy_s@PADABIAAPAD@?$__crt_char_traits@D@@SAH$$QAPADABIAAPAD@Z 1003fb7a f i libucrt:environment_initialization.obj
 0001:0003eb9f       ??$tcscpy_s@PA_WABIAAPA_W@?$__crt_char_traits@_W@@SAH$$QAPA_WABIAAPA_W@Z 1003fb9f f i libucrt:environment_initialization.obj
 0001:0003ebc4       ??$tcslen@AAPAD@?$__crt_char_traits@D@@SAIAAPAD@Z 1003fbc4 f i libucrt:environment_initialization.obj
 0001:0003ebe2       ??$tcslen@AAPA_W@?$__crt_char_traits@_W@@SAIAAPA_W@Z 1003fbe2 f i libucrt:environment_initialization.obj
 0001:0003ec07       ??$uninitialize@A6AXAAPAPAD@Z@?$dual_state_global@PAPAD@__crt_state_management@@QAEXA6AXAAPAPAD@Z@Z 1003fc07 f i libucrt:environment_initialization.obj
 0001:0003ec57       ??$uninitialize@A6AXAAPAPA_W@Z@?$dual_state_global@PAPA_W@__crt_state_management@@QAEXA6AXAAPAPA_W@Z@Z 1003fc57 f i libucrt:environment_initialization.obj
 0001:0003ece9       ??0?$__crt_unique_heap_ptr@_WU__crt_internal_free_policy@@@@QAE@QA_W@Z 1003fce9 f i libucrt:environment_initialization.obj
 0001:0003ecfd       ??1?$__crt_unique_heap_ptr@_WU__crt_internal_free_policy@@@@QAE@XZ 1003fcfd f i libucrt:environment_initialization.obj
 0001:0003ed13       ??B?$__crt_unique_heap_ptr@PADU__crt_internal_free_policy@@@@QBE_NXZ 1003fd13 f i libucrt:environment_initialization.obj
 0001:0003ed1a       ??B?$__crt_unique_heap_ptr@PA_WU__crt_internal_free_policy@@@@QBE_NXZ 1003fd1a f i libucrt:environment_initialization.obj
 0001:0003ed21       ??B?$__crt_unique_heap_ptr@_WU__crt_internal_free_policy@@@@QBE_NXZ 1003fd21 f i libucrt:environment_initialization.obj
 0001:0003ed28       ?__crt_compute_required_transform_buffer_count@@YAIIQBD@Z 1003fd28 f i libucrt:environment_initialization.obj
 0001:0003ed4b       ?__crt_compute_required_transform_buffer_count@@YAIIQB_W@Z 1003fd4b f i libucrt:environment_initialization.obj
 0001:0003ed70       ?__crt_transform_string@@YAIIQBDQA_WI@Z 1003fd70 f i libucrt:environment_initialization.obj
 0001:0003ed96       ?__crt_transform_string@@YAIIQB_WQADI@Z 1003fd96 f i libucrt:environment_initialization.obj
 0001:0003edc0       ?detach@?$__crt_unique_heap_ptr@DU__crt_internal_free_policy@@@@QAEPADXZ 1003fdc0 f i libucrt:environment_initialization.obj
 0001:0003edc6       ?detach@?$__crt_unique_heap_ptr@_WU__crt_internal_free_policy@@@@QAEPA_WXZ 1003fdc6 f i libucrt:environment_initialization.obj
 0001:0003edcc       ?get@?$__crt_unique_heap_ptr@_WU__crt_internal_free_policy@@@@QBEPA_WXZ 1003fdcc f i libucrt:environment_initialization.obj
 0001:0003edcf       ?get_current_state_index@__crt_state_management@@YAIXZ 1003fdcf f i libucrt:environment_initialization.obj
 0001:0003edf6       ?initialize@?$dual_state_global@PAPAD@__crt_state_management@@QAEXQAPAD@Z 1003fdf6 f i libucrt:environment_initialization.obj
 0001:0003ee25       ?initialize@?$dual_state_global@PAPA_W@__crt_state_management@@QAEXQAPA_W@Z 1003fe25 f i libucrt:environment_initialization.obj
 0001:0003ee54       ?is_valid@?$__crt_unique_heap_ptr@PADU__crt_internal_free_policy@@@@QBE_NXZ 1003fe54 f i libucrt:environment_initialization.obj
 0001:0003ee5b       ?is_valid@?$__crt_unique_heap_ptr@PA_WU__crt_internal_free_policy@@@@QBE_NXZ 1003fe5b f i libucrt:environment_initialization.obj
 0001:0003ee62       ?is_valid@?$__crt_unique_heap_ptr@_WU__crt_internal_free_policy@@@@QBE_NXZ 1003fe62 f i libucrt:environment_initialization.obj
 0001:0003ee6f       ?release@?$__crt_unique_heap_ptr@_WU__crt_internal_free_policy@@@@QAEXXZ 1003fe6f f i libucrt:environment_initialization.obj
 0001:0003ee85       ?value@?$dual_state_global@PAPAD@__crt_state_management@@QAEAAPAPADXZ 1003fe85 f i libucrt:environment_initialization.obj
 0001:0003ee88       ?value@?$dual_state_global@PAPA_W@__crt_state_management@@QAEAAPAPA_WXZ 1003fe88 f i libucrt:environment_initialization.obj
 0001:0003ee8b       ___dcrt_get_or_create_narrow_environment_nolock 1003fe8b f   libucrt:environment_initialization.obj
 0001:0003ee90       ___dcrt_get_or_create_wide_environment_nolock 1003fe90 f   libucrt:environment_initialization.obj
 0001:0003ee95       ___dcrt_uninitialize_environments_nolock 1003fe95 f   libucrt:environment_initialization.obj
 0001:0003eed9       ___p__environ              1003fed9 f   libucrt:environment_initialization.obj
 0001:0003eedf       ___p__wenviron             1003fedf f   libucrt:environment_initialization.obj
 0001:0003eee5       __get_initial_narrow_environment 1003fee5 f   libucrt:environment_initialization.obj
 0001:0003eefe       __get_initial_wide_environment 1003fefe f   libucrt:environment_initialization.obj
 0001:0003ef17       __initialize_narrow_environment 1003ff17 f   libucrt:environment_initialization.obj
 0001:0003ef1c       __initialize_wide_environment 1003ff1c f   libucrt:environment_initialization.obj
 0001:0003ef21       ??$?BP6AXXZ@__crt_fast_encoded_nullptr_t@@QBEPAP6AXXZXZ 1003ff21 f i libucrt:onexit.obj
 0001:0003ef3f       ??$?RP6AXXZ@__crt_internal_free_policy@@QBEXQBQ6AXXZ@Z 1003ff3f f i libucrt:onexit.obj
 0001:0003f083       ??$__crt_fast_encode_pointer@P6AHXZ@@YAP6AHXZQ6AHXZ@Z 10040083 f i libucrt:onexit.obj
 0001:0003f130       ??0?$__crt_unique_heap_ptr@P6AXXZU__crt_internal_free_policy@@@@QAE@QAP6AXXZ@Z 10040130 f i libucrt:onexit.obj
 0001:0003f144       ??1?$__crt_unique_heap_ptr@P6AXXZU__crt_internal_free_policy@@@@QAE@XZ 10040144 f i libucrt:onexit.obj
 0001:0003f15a       ??1scoped_global_state_reset@__crt_state_management@@QAE@XZ 1004015a f i libucrt:onexit.obj
 0001:0003f485       ?detach@?$__crt_unique_heap_ptr@P6AXXZU__crt_internal_free_policy@@@@QAEPAP6AXXZXZ 10040485 f i libucrt:onexit.obj
 0001:0003f48b       ?release@?$__crt_unique_heap_ptr@P6AXXZU__crt_internal_free_policy@@@@QAEXXZ 1004048b f i libucrt:onexit.obj
 0001:0003f4a1       __crt_at_quick_exit        100404a1 f   libucrt:onexit.obj
 0001:0003f4bc       __crt_atexit               100404bc f   libucrt:onexit.obj
 0001:0003f4d7       __execute_onexit_table     100404d7 f   libucrt:onexit.obj
 0001:0003f511       __initialize_onexit_table  10040511 f   libucrt:onexit.obj
 0001:0003f55d       __register_onexit_function 1004055d f   libucrt:onexit.obj
 0001:0003f728       ?__acrt_stdio_is_initialized@@YA_NXZ 10040728 f i libucrt:initialization.obj
 0001:0003f735       ?initialize@?$dual_state_global@PAU__crt_locale_data@@@__crt_state_management@@QAEXQAU__crt_locale_data@@@Z 10040735 f i libucrt:initialization.obj
 0001:0003f764       ___acrt_initialize         10040764 f   libucrt:initialization.obj
 0001:0003f77a       ___acrt_thread_attach      1004077a f   libucrt:initialization.obj
 0001:0003f787       ___acrt_thread_detach      10040787 f   libucrt:initialization.obj
 0001:0003f791       ___acrt_uninitialize       10040791 f   libucrt:initialization.obj
 0001:0003f7cd       ___acrt_uninitialize_critical 100407cd f   libucrt:initialization.obj
 0001:0003f7fe       __get_terminate            100407fe f   libucrt:terminate.obj
 0001:0003f814       _set_terminate             10040814 f   libucrt:terminate.obj
 0001:0003f83c       _terminate                 1004083c f   libucrt:terminate.obj
 0001:0003f8f7       _strcpy_s                  100408f7 f   libucrt:strcpy_s.obj
 0001:0003f967       ??$is_overflow_condition@K@__crt_strtox@@YA_NIK@Z 10040967 f i libucrt:atox.obj
 0001:0003f9a4       ??$is_overflow_condition@_K@__crt_strtox@@YA_NI_K@Z 100409a4 f i libucrt:atox.obj
 0001:0003f9f5       ??$make_c_string_character_source@D$$T@__crt_strtox@@YA?AV?$c_string_character_source@D@0@QBD$$T@Z 100409f5 f i libucrt:atox.obj
 0001:0003fa16       ??$make_c_string_character_source@_W$$T@__crt_strtox@@YA?AV?$c_string_character_source@_W@0@QB_W$$T@Z 10040a16 f i libucrt:atox.obj
 0001:0003fa37       ??$parse_integer@KV?$c_string_character_source@D@__crt_strtox@@@__crt_strtox@@YAKQAU__crt_locale_pointers@@V?$c_string_character_source@D@0@H_N@Z 10040a37 f i libucrt:atox.obj
 0001:0003fcea       ??$parse_integer@KV?$c_string_character_source@_W@__crt_strtox@@@__crt_strtox@@YAKQAU__crt_locale_pointers@@V?$c_string_character_source@_W@0@H_N@Z 10040cea f i libucrt:atox.obj
 0001:000404bb       ??$parse_integer@_KV?$c_string_character_source@D@__crt_strtox@@@__crt_strtox@@YA_KQAU__crt_locale_pointers@@V?$c_string_character_source@D@0@H_N@Z 100414bb f i libucrt:atox.obj
 0001:0004080b       ??$parse_integer@_KV?$c_string_character_source@_W@__crt_strtox@@@__crt_strtox@@YA_KQAU__crt_locale_pointers@@V?$c_string_character_source@_W@0@H_N@Z 1004180b f i libucrt:atox.obj
 0001:000410d8       ??$parse_integer_from_string@JD$$T@__crt_strtox@@YAJQBD$$THQAU__crt_locale_pointers@@@Z 100420d8 f i libucrt:atox.obj
 0001:00041110       ??$parse_integer_from_string@J_W$$T@__crt_strtox@@YAJQB_W$$THQAU__crt_locale_pointers@@@Z 10042110 f i libucrt:atox.obj
 0001:00041148       ??$parse_integer_from_string@_JD$$T@__crt_strtox@@YA_JQBD$$THQAU__crt_locale_pointers@@@Z 10042148 f i libucrt:atox.obj
 0001:00041180       ??$parse_integer_from_string@_J_W$$T@__crt_strtox@@YA_JQB_W$$THQAU__crt_locale_pointers@@@Z 10042180 f i libucrt:atox.obj
 0001:000411b8       ??0?$c_string_character_source@D@__crt_strtox@@QAE@QBDQAPBD@Z 100421b8 f i libucrt:atox.obj
 0001:000411db       ??0?$c_string_character_source@_W@__crt_strtox@@QAE@QB_WQAPB_W@Z 100421db f i libucrt:atox.obj
 0001:000411fe       ??1?$c_string_character_source@D@__crt_strtox@@QAE@XZ 100421fe f i libucrt:atox.obj
 0001:0004120d       ??1?$c_string_character_source@_W@__crt_strtox@@QAE@XZ 1004220d f i libucrt:atox.obj
 0001:0004121c       ?get@?$c_string_character_source@D@__crt_strtox@@QAEDXZ 1004221c f i libucrt:atox.obj
 0001:00041226       ?get@?$c_string_character_source@_W@__crt_strtox@@QAE_WXZ 10042226 f i libucrt:atox.obj
 0001:00041233       ?is_space@__crt_strtox@@YA_NDQAU__crt_locale_pointers@@@Z 10042233 f i libucrt:atox.obj
 0001:00041258       ?is_space@__crt_strtox@@YA_N_WPAU__crt_locale_pointers@@@Z 10042258 f i libucrt:atox.obj
 0001:00041276       ?maximum_signed_value@__crt_strtox@@YAJK@Z 10042276 f i libucrt:atox.obj
 0001:0004127c       ?maximum_signed_value@__crt_strtox@@YA_J_K@Z 1004227c f i libucrt:atox.obj
 0001:00041287       ?minimum_signed_value@__crt_strtox@@YAJK@Z 10042287 f i libucrt:atox.obj
 0001:0004128d       ?minimum_signed_value@__crt_strtox@@YA_J_K@Z 1004228d f i libucrt:atox.obj
 0001:00041297       ?parse_digit@__crt_strtox@@YAID@Z 10042297 f i libucrt:atox.obj
 0001:000412df       ?parse_digit@__crt_strtox@@YAI_W@Z 100422df f i libucrt:atox.obj
 0001:00041550       ?restore_state@?$c_string_character_source@D@__crt_strtox@@QAE_NQBD@Z 10042550 f i libucrt:atox.obj
 0001:00041564       ?restore_state@?$c_string_character_source@_W@__crt_strtox@@QAE_NQB_W@Z 10042564 f i libucrt:atox.obj
 0001:00041578       ?save_state@?$c_string_character_source@D@__crt_strtox@@QBEPBDXZ 10042578 f i libucrt:atox.obj
 0001:0004157b       ?save_state@?$c_string_character_source@_W@__crt_strtox@@QBEPB_WXZ 1004257b f i libucrt:atox.obj
 0001:0004157e       ?unget@?$c_string_character_source@D@__crt_strtox@@QAEXD@Z 1004257e f i libucrt:atox.obj
 0001:000415b1       ?unget@?$c_string_character_source@_W@__crt_strtox@@QAEX_W@Z 100425b1 f i libucrt:atox.obj
 0001:000415ea       ?validate@?$c_string_character_source@D@__crt_strtox@@QBE_NXZ 100425ea f i libucrt:atox.obj
 0001:0004160b       ?validate@?$c_string_character_source@_W@__crt_strtox@@QBE_NXZ 1004260b f i libucrt:atox.obj
 0001:0004162c       ?wide_character_to_digit@__crt_strtox@@YAH_W@Z 1004262c f i libucrt:atox.obj
 0001:00041835       ___acrt_get_locale_data_prefix 10042835 f i libucrt:atox.obj
 0001:00041844       __atoi64                   10042844 f   libucrt:atox.obj
 0001:00041872       __atoi64_l                 10042872 f   libucrt:atox.obj
 0001:000418a1       __atoi_l                   100428a1 f   libucrt:atox.obj
 0001:000418d0       __atol_l                   100428d0 f   libucrt:atox.obj
 0001:000418ff       __atoll_l                  100428ff f   libucrt:atox.obj
 0001:0004192e       __chvalidchk_l             1004292e f i libucrt:atox.obj
 0001:0004195d       __ischartype_l             1004295d f i libucrt:atox.obj
 0001:0004199c       __wtoi                     1004299c f   libucrt:atox.obj
 0001:000419ca       __wtoi64                   100429ca f   libucrt:atox.obj
 0001:000419f8       __wtoi64_l                 100429f8 f   libucrt:atox.obj
 0001:00041a27       __wtoi_l                   10042a27 f   libucrt:atox.obj
 0001:00041a56       __wtol                     10042a56 f   libucrt:atox.obj
 0001:00041a84       __wtol_l                   10042a84 f   libucrt:atox.obj
 0001:00041ab3       __wtoll                    10042ab3 f   libucrt:atox.obj
 0001:00041ae1       __wtoll_l                  10042ae1 f   libucrt:atox.obj
 0001:00041b10       _atoi                      10042b10 f   libucrt:atox.obj
 0001:00041b3e       _atol                      10042b3e f   libucrt:atox.obj
 0001:00041b6c       _atoll                     10042b6c f   libucrt:atox.obj
 0001:00041ba0       _strncmp                   10042ba0 f   libucrt:strncmp.obj
 0001:00041c36       __set_abort_behavior       10042c36 f   libucrt:abort.obj
 0001:00041c5f       _abort                     10042c5f f   libucrt:abort.obj
 0001:00041cb4       _wcsncmp                   10042cb4 f   libucrt:wcsncmp.obj
 0001:00041cfc       __malloc_base              10042cfc f   libucrt:malloc_base.obj
 0001:00041d5d       __calloc_base              10042d5d f   libucrt:calloc_base.obj
 0001:00041dd7       __free_base                10042dd7 f   libucrt:free_base.obj
 0001:00041e1f       ??$__crt_fast_decode_pointer@P6AXPB_W00II@Z@@YAP6AXPB_W00II@ZQ6AX000II@Z@Z 10042e1f f i libucrt:invalid_parameter.obj
 0001:00041e3a       ??$__crt_fast_encode_pointer@P6AXPB_W00II@Z@@YAP6AXPB_W00II@ZQ6AX000II@Z@Z 10042e3a f i libucrt:invalid_parameter.obj
 0001:00041e60       ??$initialize_from_array@$$BY00Q6AXPB_W00II@Z@?$dual_state_global@P6AXPB_W00II@Z@__crt_state_management@@QAAXAAY00Q6AXPB_W00II@Z@Z 10042e60 f i libucrt:invalid_parameter.obj
 0001:00041e75       ?dangerous_get_state_array@?$dual_state_global@P6AXPB_W00II@Z@__crt_state_management@@QAEPAP6AXPB_W00II@ZXZ 10042e75 f i libucrt:invalid_parameter.obj
 0001:00041e78       ?value@?$dual_state_global@P6AXPB_W00II@Z@__crt_state_management@@QAEAAP6AXPB_W00II@ZXZ 10042e78 f i libucrt:invalid_parameter.obj
 0001:00041e7b       ___acrt_call_reportfault   10042e7b f   libucrt:invalid_parameter.obj
 0001:00042004       ___acrt_initialize_invalid_parameter_handler 10043004 f   libucrt:invalid_parameter.obj
 0001:00042016       __get_invalid_parameter_handler 10043016 f   libucrt:invalid_parameter.obj
 0001:0004202d       __get_thread_local_invalid_parameter_handler 1004302d f   libucrt:invalid_parameter.obj
 0001:00042042       __invalid_parameter        10043042 f   libucrt:invalid_parameter.obj
 0001:000420db       __invalid_parameter_noinfo 100430db f   libucrt:invalid_parameter.obj
 0001:000420ef       __invalid_parameter_noinfo_noreturn 100430ef f   libucrt:invalid_parameter.obj
 0001:00042113       __invoke_watson            10043113 f   libucrt:invalid_parameter.obj
 0001:00042154       __set_invalid_parameter_handler 10043154 f   libucrt:invalid_parameter.obj
 0001:00042190       __set_thread_local_invalid_parameter_handler 10043190 f   libucrt:invalid_parameter.obj
 0001:0004227b       ___acrt_report_runtime_error 1004327b f   libucrt:report_runtime_error.obj
 0001:000423d5       __query_app_type           100433d5 f   libucrt:report_runtime_error.obj
 0001:000423db       __set_app_type             100433db f   libucrt:report_runtime_error.obj
 0001:000423ed       ___acrt_errno_from_os_error 100433ed f   libucrt:errno.obj
 0001:00042440       ___acrt_errno_map_os_error 10043440 f   libucrt:errno.obj
 0001:0004246b       ___doserrno                1004346b f   libucrt:errno.obj
 0001:00042482       __errno                    10043482 f   libucrt:errno.obj
 0001:00042499       __get_doserrno             10043499 f   libucrt:errno.obj
 0001:000424c7       __get_errno                100434c7 f   libucrt:errno.obj
 0001:000424f5       __set_doserrno             100434f5 f   libucrt:errno.obj
 0001:0004251e       __set_errno                1004351e f   libucrt:errno.obj
 0001:00042b4c       __i64toa                   10043b4c f   libucrt:xtoa.obj
 0001:00042b9f       __i64toa_s                 10043b9f f   libucrt:xtoa.obj
 0001:00042bf0       __i64tow                   10043bf0 f   libucrt:xtoa.obj
 0001:00042c43       __i64tow_s                 10043c43 f   libucrt:xtoa.obj
 0001:00042c94       __itoa                     10043c94 f   libucrt:xtoa.obj
 0001:00042cd8       __itoa_s                   10043cd8 f   libucrt:xtoa.obj
 0001:00042d1a       __itow                     10043d1a f   libucrt:xtoa.obj
 0001:00042d5e       __itow_s                   10043d5e f   libucrt:xtoa.obj
 0001:00042da0       __ltoa                     10043da0 f   libucrt:xtoa.obj
 0001:00042de4       __ltoa_s                   10043de4 f   libucrt:xtoa.obj
 0001:00042e26       __ltow                     10043e26 f   libucrt:xtoa.obj
 0001:00042e6a       __ltow_s                   10043e6a f   libucrt:xtoa.obj
 0001:00042eac       __ui64toa                  10043eac f   libucrt:xtoa.obj
 0001:00042ed6       __ui64toa_s                10043ed6 f   libucrt:xtoa.obj
 0001:00042efe       __ui64tow                  10043efe f   libucrt:xtoa.obj
 0001:00042f28       __ui64tow_s                10043f28 f   libucrt:xtoa.obj
 0001:00042f50       __ultoa                    10043f50 f   libucrt:xtoa.obj
 0001:00042f76       __ultoa_s                  10043f76 f   libucrt:xtoa.obj
 0001:00042f9a       __ultow                    10043f9a f   libucrt:xtoa.obj
 0001:00042fc0       __ultow_s                  10043fc0 f   libucrt:xtoa.obj
 0001:00042fe4       __set_error_mode           10043fe4 f   libucrt:set_error_mode.obj
 0001:000430c0       _wcscat_s                  100440c0 f   libucrt:wcscat_s.obj
 0001:000431ca       _wcscpy_s                  100441ca f   libucrt:wcscpy_s.obj
 0001:0004336a       _wcsncat_s                 1004436a f   libucrt:wcsncat_s.obj
 0001:000433fa       _strcat_s                  100443fa f   libucrt:strcat_s.obj
 0001:00043581       _strncat_s                 10044581 f   libucrt:strncat_s.obj
 0001:0004358e       ___acrt_GetModuleFileNameA 1004458e f   libucrt:getmodulefilenamea.obj
 0001:00043746       ??$message_box@$$TABQBDABQBDK@?$__crt_char_traits@D@@SAH$$QA$$TABQBD1$$QAK@Z 10044746 f i libucrt:crtmbox.obj
 0001:0004376e       ??$message_box@$$TABQB_WABQB_WK@?$__crt_char_traits@_W@@SAH$$QA$$TABQB_W1$$QAK@Z 1004476e f i libucrt:crtmbox.obj
 0001:00043796       ??$message_box@PAUHWND__@@ABQBDABQBDABI@?$__crt_char_traits@D@@SAH$$QAPAUHWND__@@ABQBD1ABI@Z 10044796 f i libucrt:crtmbox.obj
 0001:000437be       ??$message_box@PAUHWND__@@ABQB_WABQB_WABI@?$__crt_char_traits@_W@@SAH$$QAPAUHWND__@@ABQB_W1ABI@Z 100447be f i libucrt:crtmbox.obj
 0001:000437e6       ??$output_debug_string@ABQBD@?$__crt_char_traits@D@@SAXABQBD@Z 100447e6 f i libucrt:crtmbox.obj
 0001:000437fb       ??$output_debug_string@ABQB_W@?$__crt_char_traits@_W@@SAXABQB_W@Z 100447fb f i libucrt:crtmbox.obj
 0001:00043811       ___acrt_show_narrow_message_box 10044811 f   libucrt:crtmbox.obj
 0001:0004381e       ___acrt_show_wide_message_box 1004481e f   libucrt:crtmbox.obj
 0001:00043b7c       ??0__crt_stdio_stream@@QAE@QAU__crt_stdio_stream_data@@@Z 10044b7c f i libucrt:fflush.obj
 0001:00043de5       ___acrt_stdio_flush_nolock 10044de5 f   libucrt:fflush.obj
 0001:00043e60       __fflush_nolock            10044e60 f   libucrt:fflush.obj
 0001:00043eb8       __flushall                 10044eb8 f   libucrt:fflush.obj
 0001:00043ec3       _fflush                    10044ec3 f   libucrt:fflush.obj
 0001:0004412e       _setvbuf                   1004512e f   libucrt:setvbuf.obj
 0001:000441d3       ??$?B$$A6AXH@Z@__crt_fast_encoded_nullptr_t@@QBEP6AXH@ZXZ 100451d3 f i libucrt:signal.obj
 0001:00044293       ??$__crt_fast_decode_pointer@P6AXH@Z@@YAP6AXH@ZQ6AXH@Z@Z 10045293 f i libucrt:signal.obj
 0001:000442ae       ??$__crt_fast_encode_pointer@P6AXH@Z@@YAP6AXH@ZQ6AXH@Z@Z 100452ae f i libucrt:signal.obj
 0001:00044458       ?initialize@?$dual_state_global@P6AXH@Z@__crt_state_management@@QAEXQ6AXH@Z@Z 10045458 f i libucrt:signal.obj
 0001:00044536       ?value@?$dual_state_global@P6AXH@Z@__crt_state_management@@QAEAAP6AXH@ZXZ 10045536 f i libucrt:signal.obj
 0001:00044539       ___acrt_get_sigabrt_handler 10045539 f   libucrt:signal.obj
 0001:0004456c       ___acrt_initialize_signal_handlers 1004556c f   libucrt:signal.obj
 0001:00044591       ___fpecode                 10045591 f   libucrt:signal.obj
 0001:0004459c       ___pxcptinfoptrs           1004559c f   libucrt:signal.obj
 0001:000445a7       _raise                     100455a7 f   libucrt:signal.obj
 0001:00044829       _signal                    10045829 f   libucrt:signal.obj
 0001:00044a46       __realloc_base             10045a46 f   libucrt:realloc_base.obj
 0001:00044ac9       ___acrt_initialize_locks   10045ac9 f   libucrt:locks.obj
 0001:00044b1a       ___acrt_lock               10045b1a f   libucrt:locks.obj
 0001:00044b36       ___acrt_uninitialize_locks 10045b36 f   libucrt:locks.obj
 0001:00044b73       ___acrt_unlock             10045b73 f   libucrt:locks.obj
 0001:00044b8f       __lock_locales             10045b8f f   libucrt:locks.obj
 0001:00044ba0       __unlock_locales           10045ba0 f   libucrt:locks.obj
 0001:00044dbe       ___acrt_get_begin_thread_init_policy 10045dbe f   libucrt:win_policies.obj
 0001:00044e14       ___acrt_get_developer_information_policy 10045e14 f   libucrt:win_policies.obj
 0001:00044e6a       ___acrt_get_process_end_policy 10045e6a f   libucrt:win_policies.obj
 0001:00044ea9       ___acrt_get_windowing_model_policy 10045ea9 f   libucrt:win_policies.obj
 0001:00044f2d       ??$?B$$A6GHPA_WKJ@Z@__crt_fast_encoded_nullptr_t@@QBEP6GHPA_WKJ@ZXZ 10045f2d f i libucrt:winapi_thunks.obj
 0001:00045027       ??$__crt_fast_decode_pointer@P6GHPA_WKJ@Z@@YAP6GHPA_WKJ@ZQ6GH0KJ@Z@Z 10046027 f i libucrt:winapi_thunks.obj
 0001:00045042       ??$__crt_fast_encode_pointer@P6GHPA_WKJ@Z@@YAP6GHPA_WKJ@ZQ6GH0KJ@Z@Z 10046042 f i libucrt:winapi_thunks.obj
 0001:000458a1       _GetCurrentThreadEffectiveToken 100468a1 f i libucrt:winapi_thunks.obj
 0001:000458a5       ___acrt_AppPolicyGetProcessTerminationMethodInternal@4 100468a5 f   libucrt:winapi_thunks.obj
 0001:00045911       ___acrt_AppPolicyGetShowDeveloperDiagnosticInternal@4 10046911 f   libucrt:winapi_thunks.obj
 0001:0004597d       ___acrt_AppPolicyGetThreadInitializationTypeInternal@4 1004697d f   libucrt:winapi_thunks.obj
 0001:000459e9       ___acrt_AppPolicyGetWindowingModelInternal@4 100469e9 f   libucrt:winapi_thunks.obj
 0001:00045a55       ___acrt_AreFileApisANSI@0  10046a55 f   libucrt:winapi_thunks.obj
 0001:00045a9d       ___acrt_CompareStringEx@36 10046a9d f   libucrt:winapi_thunks.obj
 0001:00045b2e       ___acrt_EnumSystemLocalesEx@16 10046b2e f   libucrt:winapi_thunks.obj
 0001:00045bb2       ___acrt_FlsAlloc@4         10046bb2 f   libucrt:winapi_thunks.obj
 0001:00045c1d       ___acrt_FlsFree@4          10046c1d f   libucrt:winapi_thunks.obj
 0001:00045c88       ___acrt_FlsGetValue@4      10046c88 f   libucrt:winapi_thunks.obj
 0001:00045cf3       ___acrt_FlsSetValue@8      10046cf3 f   libucrt:winapi_thunks.obj
 0001:00045d62       ___acrt_GetDateFormatEx@28 10046d62 f   libucrt:winapi_thunks.obj
 0001:00045deb       ___acrt_GetEnabledXStateFeatures@0 10046deb f   libucrt:winapi_thunks.obj
 0001:00045e4d       ___acrt_GetLocaleInfoEx@16 10046e4d f   libucrt:winapi_thunks.obj
 0001:00045eb8       ___acrt_GetSystemTimePreciseAsFileTime@4 10046eb8 f   libucrt:winapi_thunks.obj
 0001:00045f23       ___acrt_GetTimeFormatEx@24 10046f23 f   libucrt:winapi_thunks.obj
 0001:00045f96       ___acrt_GetUserDefaultLocaleName@8 10046f96 f   libucrt:winapi_thunks.obj
 0001:00045ffd       ___acrt_GetXStateFeaturesMask@8 10046ffd f   libucrt:winapi_thunks.obj
 0001:00046069       ___acrt_InitializeCriticalSectionEx@12 10047069 f   libucrt:winapi_thunks.obj
 0001:000460e3       ___acrt_IsValidLocaleName@4 100470e3 f   libucrt:winapi_thunks.obj
 0001:00046145       ___acrt_LCIDToLocaleName@16 10047145 f   libucrt:winapi_thunks.obj
 0001:000461b0       ___acrt_LCMapStringEx@36   100471b0 f   libucrt:winapi_thunks.obj
 0001:00046241       ___acrt_LocaleNameToLCID@8 10047241 f   libucrt:winapi_thunks.obj
 0001:0004629b       ___acrt_LocateXStateFeature@12 1004729b f   libucrt:winapi_thunks.obj
 0001:000462f2       ___acrt_MessageBoxA@16     100472f2 f   libucrt:winapi_thunks.obj
 0001:0004634d       ___acrt_MessageBoxW@16     1004734d f   libucrt:winapi_thunks.obj
 0001:000463a8       ___acrt_RoInitialize@4     100473a8 f   libucrt:winapi_thunks.obj
 0001:0004640e       ___acrt_RoUninitialize@0   1004740e f   libucrt:winapi_thunks.obj
 0001:00046469       ___acrt_RtlGenRandom@8     10047469 f   libucrt:winapi_thunks.obj
 0001:000464d5       ___acrt_SetThreadStackGuarantee@4 100474d5 f   libucrt:winapi_thunks.obj
 0001:0004653b       ___acrt_can_show_message_box 1004753b f   libucrt:winapi_thunks.obj
 0001:0004656b       ___acrt_can_use_vista_locale_apis 1004756b f   libucrt:winapi_thunks.obj
 0001:00046578       ___acrt_can_use_xstate_apis 10047578 f   libucrt:winapi_thunks.obj
 0001:00046585       ___acrt_eagerly_load_locale_apis 10047585 f   libucrt:winapi_thunks.obj
 0001:000465c9       ___acrt_get_parent_window  100475c9 f   libucrt:winapi_thunks.obj
 0001:00046667       ___acrt_initialize_winapi_thunks 10047667 f   libucrt:winapi_thunks.obj
 0001:000466b2       ___acrt_is_interactive     100476b2 f   libucrt:winapi_thunks.obj
 0001:00046781       ___acrt_uninitialize_winapi_thunks 10047781 f   libucrt:winapi_thunks.obj
 0001:000467c4       __fcloseall                100477c4 f   libucrt:closeall.obj
 0001:0004688c       ?has_crt_buffer@__crt_stdio_stream@@QBE_NXZ 1004788c f i libucrt:_freebuf.obj
 0001:00046899       ___acrt_stdio_free_buffer_nolock 10047899 f   libucrt:_freebuf.obj
 0001:00046ad7       ___acrt_initialize_lowio   10047ad7 f   libucrt:ioinit.obj
 0001:00046b42       ___acrt_uninitialize_lowio 10047b42 f   libucrt:ioinit.obj
 0001:00046d6e       __close                    10047d6e f   libucrt:close.obj
 0001:00046e20       __close_nolock             10047e20 f   libucrt:close.obj
 0001:00046ee3       ?lowio_handle@__crt_stdio_stream@@QBEHXZ 10047ee3 f i libucrt:fileno.obj
 0001:00046ee9       __fileno                   10047ee9 f   libucrt:fileno.obj
 0001:00046f18       ??$?RU__crt_stdio_stream_data@@@__crt_internal_free_policy@@QBEXQBU__crt_stdio_stream_data@@@Z 10047f18 f i libucrt:stream.obj
 0001:00046f2e       ??0?$__crt_unique_heap_ptr@U__crt_stdio_stream_data@@U__crt_internal_free_policy@@@@QAE@QAU__crt_stdio_stream_data@@@Z 10047f2e f i libucrt:stream.obj
 0001:00046f42       ??0__crt_stdio_stream@@QAE@XZ 10047f42 f i libucrt:stream.obj
 0001:00046f48       ??1?$__crt_unique_heap_ptr@U__crt_stdio_stream_data@@U__crt_internal_free_policy@@@@QAE@XZ 10047f48 f i libucrt:stream.obj
 0001:00046f5e       ?__acrt_stdio_allocate_stream@@YA?AV__crt_stdio_stream@@XZ 10047f5e f   libucrt:stream.obj
 0001:00046fd4       ?__acrt_stdio_free_stream@@YAXV__crt_stdio_stream@@@Z 10047fd4 f   libucrt:stream.obj
 0001:0004701d       ?deallocate@__crt_stdio_stream@@QAEXXZ 1004801d f i libucrt:stream.obj
 0001:00047029       ?detach@?$__crt_unique_heap_ptr@U__crt_stdio_stream_data@@U__crt_internal_free_policy@@@@QAEPAU__crt_stdio_stream_data@@XZ 10048029 f i libucrt:stream.obj
 0001:00047122       ?lock@__crt_stdio_stream@@QBEXXZ 10048122 f i libucrt:stream.obj
 0001:0004712d       ?release@?$__crt_unique_heap_ptr@U__crt_stdio_stream_data@@U__crt_internal_free_policy@@@@QAEXXZ 1004812d f i libucrt:stream.obj
 0001:00047143       ?try_allocate@__crt_stdio_stream@@QAE_NXZ 10048143 f i libucrt:stream.obj
 0001:0004716b       ??$__acrt_stdio_parse_mode@D@@YA?AU__acrt_stdio_stream_mode@@QBD@Z 1004816b f i libucrt:openfile.obj
 0001:00047425       ??$__acrt_stdio_parse_mode@_W@@YA?AU__acrt_stdio_stream_mode@@QB_W@Z 10048425 f i libucrt:openfile.obj
 0001:0004787a       ??$tcsncmp@AAPBDAAY02$$CBDI@?$__crt_char_traits@D@@SAHAAPBDAAY02$$CBD$$QAI@Z 1004887a f i libucrt:openfile.obj
 0001:0004789d       ??$tcsncmp@AAPB_WAAY02$$CB_WI@?$__crt_char_traits@_W@@SAHAAPB_WAAY02$$CB_W$$QAI@Z 1004889d f i libucrt:openfile.obj
 0001:000478c0       ??$tcsnicmp@AAPBDAAY04$$CBDI@?$__crt_char_traits@D@@SAHAAPBDAAY04$$CBD$$QAI@Z 100488c0 f i libucrt:openfile.obj
 0001:000478e3       ??$tcsnicmp@AAPBDAAY06$$CBDI@?$__crt_char_traits@D@@SAHAAPBDAAY06$$CBD$$QAI@Z 100488e3 f i libucrt:openfile.obj
 0001:00047906       ??$tcsnicmp@AAPBDAAY07$$CBDI@?$__crt_char_traits@D@@SAHAAPBDAAY07$$CBD$$QAI@Z 10048906 f i libucrt:openfile.obj
 0001:00047929       ??$tcsnicmp@AAPB_WAAY04$$CB_WI@?$__crt_char_traits@_W@@SAHAAPB_WAAY04$$CB_W$$QAI@Z 10048929 f i libucrt:openfile.obj
 0001:0004794c       ??$tcsnicmp@AAPB_WAAY06$$CB_WI@?$__crt_char_traits@_W@@SAHAAPB_WAAY06$$CB_W$$QAI@Z 1004894c f i libucrt:openfile.obj
 0001:0004796f       ??$tcsnicmp@AAPB_WAAY07$$CB_WI@?$__crt_char_traits@_W@@SAHAAPB_WAAY07$$CB_W$$QAI@Z 1004896f f i libucrt:openfile.obj
 0001:00047992       ??$tsopen_s@PAHABQBDABHABHH@?$__crt_char_traits@D@@SAH$$QAPAHABQBDABH2$$QAH@Z 10048992 f i libucrt:openfile.obj
 0001:000479c4       ??$tsopen_s@PAHABQB_WABHABHH@?$__crt_char_traits@_W@@SAH$$QAPAHABQB_WABH2$$QAH@Z 100489c4 f i libucrt:openfile.obj
 0001:000479f6       ?__acrt_stdio_parse_mode_D@@YA_NAAU__acrt_stdio_stream_mode@@@Z 100489f6 f i libucrt:openfile.obj
 0001:00047a17       ?__acrt_stdio_parse_mode_N@@YA_NAAU__acrt_stdio_stream_mode@@@Z 10048a17 f i libucrt:openfile.obj
 0001:00047a2d       ?__acrt_stdio_parse_mode_R@@YA_NAAU__acrt_stdio_stream_mode@@AA_N@Z 10048a2d f i libucrt:openfile.obj
 0001:00047a52       ?__acrt_stdio_parse_mode_S@@YA_NAAU__acrt_stdio_stream_mode@@AA_N@Z 10048a52 f i libucrt:openfile.obj
 0001:00047a77       ?__acrt_stdio_parse_mode_T@@YA_NAAU__acrt_stdio_stream_mode@@@Z 10048a77 f i libucrt:openfile.obj
 0001:00047a9d       ?__acrt_stdio_parse_mode_b@@YA_NAAU__acrt_stdio_stream_mode@@@Z 10048a9d f i libucrt:openfile.obj
 0001:00047ac5       ?__acrt_stdio_parse_mode_c@@YA_NAAU__acrt_stdio_stream_mode@@AA_N@Z 10048ac5 f i libucrt:openfile.obj
 0001:00047aef       ?__acrt_stdio_parse_mode_n@@YA_NAAU__acrt_stdio_stream_mode@@AA_N@Z 10048aef f i libucrt:openfile.obj
 0001:00047b19       ?__acrt_stdio_parse_mode_plus@@YA_NAAU__acrt_stdio_stream_mode@@AA_N@Z 10048b19 f i libucrt:openfile.obj
 0001:00047b5b       ?__acrt_stdio_parse_mode_t@@YA_NAAU__acrt_stdio_stream_mode@@@Z 10048b5b f i libucrt:openfile.obj
 0001:00047b83       ?__acrt_stdio_parse_mode_x@@YA_NAAU__acrt_stdio_stream_mode@@@Z 10048b83 f i libucrt:openfile.obj
 0001:00047bab       __openfile                 10048bab f   libucrt:openfile.obj
 0001:00047bb8       __wopenfile                10048bb8 f   libucrt:openfile.obj
 0001:0004828b       __read                     1004928b f   libucrt:read.obj
 0001:000483d7       __read_nolock              100493d7 f   libucrt:read.obj
 0001:00048875       __utf8_no_of_trailbytes    10049875 f i libucrt:read.obj
 0001:00048d94       ___acrt_stdio_refill_and_read_narrow_nolock 10049d94 f   libucrt:_filbuf.obj
 0001:00048da1       ___acrt_stdio_refill_and_read_wide_nolock 10049da1 f   libucrt:_filbuf.obj
 0001:00049523       __write                    1004a523 f   libucrt:write.obj
 0001:00049645       __write_nolock             1004a645 f   libucrt:write.obj
 0001:00049d87       ___acrt_stdio_flush_and_write_narrow_nolock 1004ad87 f   libucrt:_flsbuf.obj
 0001:00049d94       ___acrt_stdio_flush_and_write_wide_nolock 1004ad94 f   libucrt:_flsbuf.obj
 0001:00049da1       ?has_temporary_buffer@__crt_stdio_stream@@QBE_NXZ 1004ada1 f i libucrt:_sftbuf.obj
 0001:00049dae       ___acrt_stdio_begin_temporary_buffering_nolock 1004adae f   libucrt:_sftbuf.obj
 0001:00049e90       ___acrt_stdio_end_temporary_buffering_nolock 1004ae90 f   libucrt:_sftbuf.obj
 0001:00049f59       ___acrt_MultiByteToWideChar 1004af59 f   libucrt:multibytetowidechar.obj
 0001:00049ff4       ??$?RU__acrt_ptd@@@__crt_internal_free_policy@@QBEXQBU__acrt_ptd@@@Z 1004aff4 f i libucrt:per_thread_data.obj
 0001:0004a36d       ??0?$__crt_unique_heap_ptr@U__acrt_ptd@@U__crt_internal_free_policy@@@@QAE@QAU__acrt_ptd@@@Z 1004b36d f i libucrt:per_thread_data.obj
 0001:0004a381       ??0__crt_scoped_get_last_error_reset@@QAE@XZ 1004b381 f i libucrt:per_thread_data.obj
 0001:0004a396       ??1?$__crt_unique_heap_ptr@U__acrt_ptd@@U__crt_internal_free_policy@@@@QAE@XZ 1004b396 f i libucrt:per_thread_data.obj
 0001:0004a3ac       ??1__crt_scoped_get_last_error_reset@@QAE@XZ 1004b3ac f i libucrt:per_thread_data.obj
 0001:0004a3b7       ??B?$__crt_unique_heap_ptr@U__acrt_ptd@@U__crt_internal_free_policy@@@@QBE_NXZ 1004b3b7 f i libucrt:per_thread_data.obj
 0001:0004a554       ?dangerous_get_state_array@?$dual_state_global@PAU__crt_locale_data@@@__crt_state_management@@QAEPAPAU__crt_locale_data@@XZ 1004b554 f i libucrt:per_thread_data.obj
 0001:0004a687       ?detach@?$__crt_unique_heap_ptr@U__acrt_ptd@@U__crt_internal_free_policy@@@@QAEPAU__acrt_ptd@@XZ 1004b687 f i libucrt:per_thread_data.obj
 0001:0004a68d       ?get@?$__crt_unique_heap_ptr@U__acrt_ptd@@U__crt_internal_free_policy@@@@QBEPAU__acrt_ptd@@XZ 1004b68d f i libucrt:per_thread_data.obj
 0001:0004a690       ?get_current_state_index@__crt_state_management@@YAIABV__crt_scoped_get_last_error_reset@@@Z 1004b690 f i libucrt:per_thread_data.obj
 0001:0004a816       ?is_valid@?$__crt_unique_heap_ptr@U__acrt_ptd@@U__crt_internal_free_policy@@@@QBE_NXZ 1004b816 f i libucrt:per_thread_data.obj
 0001:0004a81d       ?release@?$__crt_unique_heap_ptr@U__acrt_ptd@@U__crt_internal_free_policy@@@@QAEXXZ 1004b81d f i libucrt:per_thread_data.obj
 0001:0004a8a9       ?value@?$dual_state_global@PAU__crt_locale_data@@@__crt_state_management@@QAEAAPAU__crt_locale_data@@XZ 1004b8a9 f i libucrt:per_thread_data.obj
 0001:0004a8ac       ___acrt_freeptd            1004b8ac f   libucrt:per_thread_data.obj
 0001:0004a8e3       ___acrt_getptd             1004b8e3 f   libucrt:per_thread_data.obj
 0001:0004a9c7       ___acrt_getptd_head        1004b9c7 f   libucrt:per_thread_data.obj
 0001:0004aa87       ___acrt_getptd_noexit      1004ba87 f   libucrt:per_thread_data.obj
 0001:0004ab5f       ___acrt_initialize_ptd     1004bb5f f   libucrt:per_thread_data.obj
 0001:0004ab96       ___acrt_uninitialize_ptd   1004bb96 f   libucrt:per_thread_data.obj
 0001:0004abb6       ___threadhandle            1004bbb6 f   libucrt:per_thread_data.obj
 0001:0004abbc       ___threadid                1004bbbc f   libucrt:per_thread_data.obj
 0001:0004abc2       ?value@?$dual_state_global@PAU__crt_multibyte_data@@@__crt_state_management@@QAEAAPAU__crt_multibyte_data@@XZ 1004bbc2 f i libucrt:locale_update.obj
 0001:0004abc5       ___acrt_update_locale_info 1004bbc5 f   libucrt:locale_update.obj
 0001:0004abfd       ___acrt_update_multibyte_info 1004bbfd f   libucrt:locale_update.obj
 0001:0004ac35       __wremove                  1004bc35 f   libucrt:wunlink.obj
 0001:0004ac67       __wunlink                  1004bc67 f   libucrt:wunlink.obj
 0001:0004ac77       ??$?RU__crt_locale_data@@@__crt_internal_free_policy@@QBEXQBU__crt_locale_data@@@Z 1004bc77 f i libucrt:wsetlocale.obj
 0001:0004ac8d       ??$?RU__crt_locale_pointers@@@__crt_internal_free_policy@@QBEXQBU__crt_locale_pointers@@@Z 1004bc8d f i libucrt:wsetlocale.obj
 0001:0004aca3       ??$?RU__crt_multibyte_data@@@__crt_internal_free_policy@@QBEXQBU__crt_multibyte_data@@@Z 1004bca3 f i libucrt:wsetlocale.obj
 0001:0004af73       ??$__vcrt_va_start_verify_argument_type@H@@YAXXZ 1004bf73 f i libucrt:wsetlocale.obj
 0001:0004b0fe       ??0?$__crt_unique_heap_ptr@U__crt_locale_data@@U__crt_internal_free_policy@@@@QAE@QAU__crt_locale_data@@@Z 1004c0fe f i libucrt:wsetlocale.obj
 0001:0004b112       ??0?$__crt_unique_heap_ptr@U__crt_locale_pointers@@U__crt_internal_free_policy@@@@QAE@QAU__crt_locale_pointers@@@Z 1004c112 f i libucrt:wsetlocale.obj
 0001:0004b126       ??0?$__crt_unique_heap_ptr@U__crt_multibyte_data@@U__crt_internal_free_policy@@@@QAE@QAU__crt_multibyte_data@@@Z 1004c126 f i libucrt:wsetlocale.obj
 0001:0004b13a       ??1?$__crt_unique_heap_ptr@U__crt_locale_data@@U__crt_internal_free_policy@@@@QAE@XZ 1004c13a f i libucrt:wsetlocale.obj
 0001:0004b150       ??1?$__crt_unique_heap_ptr@U__crt_locale_pointers@@U__crt_internal_free_policy@@@@QAE@XZ 1004c150 f i libucrt:wsetlocale.obj
 0001:0004b166       ??1?$__crt_unique_heap_ptr@U__crt_multibyte_data@@U__crt_internal_free_policy@@@@QAE@XZ 1004c166 f i libucrt:wsetlocale.obj
 0001:0004b17c       ??B?$__crt_unique_heap_ptr@U__crt_locale_data@@U__crt_internal_free_policy@@@@QBE_NXZ 1004c17c f i libucrt:wsetlocale.obj
 0001:0004b183       ??B?$__crt_unique_heap_ptr@U__crt_locale_pointers@@U__crt_internal_free_policy@@@@QBE_NXZ 1004c183 f i libucrt:wsetlocale.obj
 0001:0004b18a       ??B?$__crt_unique_heap_ptr@U__crt_multibyte_data@@U__crt_internal_free_policy@@@@QBE_NXZ 1004c18a f i libucrt:wsetlocale.obj
 0001:0004b42c       ?detach@?$__crt_unique_heap_ptr@U__crt_locale_data@@U__crt_internal_free_policy@@@@QAEPAU__crt_locale_data@@XZ 1004c42c f i libucrt:wsetlocale.obj
 0001:0004b432       ?detach@?$__crt_unique_heap_ptr@U__crt_locale_pointers@@U__crt_internal_free_policy@@@@QAEPAU__crt_locale_pointers@@XZ 1004c432 f i libucrt:wsetlocale.obj
 0001:0004b438       ?detach@?$__crt_unique_heap_ptr@U__crt_multibyte_data@@U__crt_internal_free_policy@@@@QAEPAU__crt_multibyte_data@@XZ 1004c438 f i libucrt:wsetlocale.obj
 0001:0004b43e       ?get@?$__crt_unique_heap_ptr@U__crt_locale_data@@U__crt_internal_free_policy@@@@QBEPAU__crt_locale_data@@XZ 1004c43e f i libucrt:wsetlocale.obj
 0001:0004b441       ?get@?$__crt_unique_heap_ptr@U__crt_locale_pointers@@U__crt_internal_free_policy@@@@QBEPAU__crt_locale_pointers@@XZ 1004c441 f i libucrt:wsetlocale.obj
 0001:0004b444       ?get@?$__crt_unique_heap_ptr@U__crt_multibyte_data@@U__crt_internal_free_policy@@@@QBEPAU__crt_multibyte_data@@XZ 1004c444 f i libucrt:wsetlocale.obj
 0001:0004b447       ?is_valid@?$__crt_unique_heap_ptr@U__crt_locale_data@@U__crt_internal_free_policy@@@@QBE_NXZ 1004c447 f i libucrt:wsetlocale.obj
 0001:0004b44e       ?is_valid@?$__crt_unique_heap_ptr@U__crt_locale_pointers@@U__crt_internal_free_policy@@@@QBE_NXZ 1004c44e f i libucrt:wsetlocale.obj
 0001:0004b455       ?is_valid@?$__crt_unique_heap_ptr@U__crt_multibyte_data@@U__crt_internal_free_policy@@@@QBE_NXZ 1004c455 f i libucrt:wsetlocale.obj
 0001:0004b45c       ?release@?$__crt_unique_heap_ptr@U__crt_locale_data@@U__crt_internal_free_policy@@@@QAEXXZ 1004c45c f i libucrt:wsetlocale.obj
 0001:0004b472       ?release@?$__crt_unique_heap_ptr@U__crt_locale_pointers@@U__crt_internal_free_policy@@@@QAEXXZ 1004c472 f i libucrt:wsetlocale.obj
 0001:0004b488       ?release@?$__crt_unique_heap_ptr@U__crt_multibyte_data@@U__crt_internal_free_policy@@@@QAEXXZ 1004c488 f i libucrt:wsetlocale.obj
 0001:0004b49e       ___acrt_copy_locale_name   1004c49e f   libucrt:wsetlocale.obj
 0001:0004b51d       ___acrt_set_locale_changed 1004c51d f   libucrt:wsetlocale.obj
 0001:0004b52a       ___acrt_uninitialize_locale 1004c52a f   libucrt:wsetlocale.obj
 0001:0004b55d       ___lc_lctowcs              1004c55d f   libucrt:wsetlocale.obj
 0001:0004b5e9       ___lc_wcstolc              1004c5e9 f   libucrt:wsetlocale.obj
 0001:0004b789       __configthreadlocale       1004c789 f   libucrt:wsetlocale.obj
 0001:0004b83d       __create_locale            1004c83d f   libucrt:wsetlocale.obj
 0001:0004b8bc       __expandlocale             1004c8bc f   libucrt:wsetlocale.obj
 0001:0004bd90       __free_locale              1004cd90 f   libucrt:wsetlocale.obj
 0001:0004be76       __get_current_locale       1004ce76 f   libucrt:wsetlocale.obj
 0001:0004bf3a       __wcreate_locale           1004cf3a f   libucrt:wsetlocale.obj
 0001:0004c085       __wcscats                  1004d085 f   libucrt:wsetlocale.obj
 0001:0004c0d6       __wsetlocale               1004d0d6 f   libucrt:wsetlocale.obj
 0001:0004cc0d       ___p___mb_cur_max          1004dc0d f   libucrt:nlsdata.obj
 0001:0004d09d       __lseek                    1004e09d f   libucrt:lseek.obj
 0001:0004d0aa       __lseek_nolock             1004e0aa f   libucrt:lseek.obj
 0001:0004d0b7       __lseeki64                 1004e0b7 f   libucrt:lseek.obj
 0001:0004d0d8       __lseeki64_nolock          1004e0d8 f   libucrt:lseek.obj
 0001:0004d115       ___isascii                 1004e115 f i libucrt:_ctype.obj
 0001:0004d12b       ___iscsym                  1004e12b f i libucrt:_ctype.obj
 0001:0004d155       ___iscsymf                 1004e155 f i libucrt:_ctype.obj
 0001:0004d17b       ___toascii                 1004e17b f i libucrt:_ctype.obj
 0001:0004d18b       __isalnum_l                1004e18b f i libucrt:_ctype.obj
 0001:0004d1d4       __isalpha_l                1004e1d4 f i libucrt:_ctype.obj
 0001:0004d21d       __isblank_l                1004e21d f i libucrt:_ctype.obj
 0001:0004d270       __iscntrl_l                1004e270 f i libucrt:_ctype.obj
 0001:0004d2b6       __iscsym_l                 1004e2b6 f i libucrt:_ctype.obj
 0001:0004d2e1       __iscsymf_l                1004e2e1 f i libucrt:_ctype.obj
 0001:0004d30c       __isdigit_l                1004e30c f i libucrt:_ctype.obj
 0001:0004d352       __isgraph_l                1004e352 f i libucrt:_ctype.obj
 0001:0004d39b       __islower_l                1004e39b f i libucrt:_ctype.obj
 0001:0004d3e1       __isprint_l                1004e3e1 f i libucrt:_ctype.obj
 0001:0004d42a       __ispunct_l                1004e42a f i libucrt:_ctype.obj
 0001:0004d470       __isspace_l                1004e470 f i libucrt:_ctype.obj
 0001:0004d4b6       __isupper_l                1004e4b6 f i libucrt:_ctype.obj
 0001:0004d4fc       __isxdigit_l               1004e4fc f i libucrt:_ctype.obj
 0001:0004d545       _isalnum                   1004e545 f i libucrt:_ctype.obj
 0001:0004d581       _isalpha                   1004e581 f i libucrt:_ctype.obj
 0001:0004d5bd       _isblank                   1004e5bd f i libucrt:_ctype.obj
 0001:0004d605       _iscntrl                   1004e605 f i libucrt:_ctype.obj
 0001:0004d63e       _isdigit                   1004e63e f i libucrt:_ctype.obj
 0001:0004d677       _isgraph                   1004e677 f i libucrt:_ctype.obj
 0001:0004d6b3       _islower                   1004e6b3 f i libucrt:_ctype.obj
 0001:0004d6ec       _isprint                   1004e6ec f i libucrt:_ctype.obj
 0001:0004d728       _ispunct                   1004e728 f i libucrt:_ctype.obj
 0001:0004d761       _isspace                   1004e761 f i libucrt:_ctype.obj
 0001:0004d79a       _isupper                   1004e79a f i libucrt:_ctype.obj
 0001:0004d7d3       _isxdigit                  1004e7d3 f i libucrt:_ctype.obj
 0001:0004dbcb       __tolower                  1004ebcb f   libucrt:tolower_toupper.obj
 0001:0004dbdb       __tolower_l                1004ebdb f   libucrt:tolower_toupper.obj
 0001:0004dbfb       __toupper                  1004ebfb f   libucrt:tolower_toupper.obj
 0001:0004dc0b       __toupper_l                1004ec0b f   libucrt:tolower_toupper.obj
 0001:0004dc2b       _tolower                   1004ec2b f   libucrt:tolower_toupper.obj
 0001:0004dc67       _toupper                   1004ec67 f   libucrt:tolower_toupper.obj
 0001:0004dca3       ??$make_c_string_character_source@DPAPAD@__crt_strtox@@YA?AV?$c_string_character_source@D@0@QBDQAPAD@Z 1004eca3 f i libucrt:strtox.obj
 0001:0004dcc4       ??$make_c_string_character_source@_WPAPA_W@__crt_strtox@@YA?AV?$c_string_character_source@_W@0@QB_WQAPA_W@Z 1004ecc4 f i libucrt:strtox.obj
 0001:0004dce5       ??$parse_integer_from_string@JDPAPAD@__crt_strtox@@YAJQBDQAPADHQAU__crt_locale_pointers@@@Z 1004ece5 f i libucrt:strtox.obj
 0001:0004dd1d       ??$parse_integer_from_string@J_WPAPA_W@__crt_strtox@@YAJQB_WQAPA_WHQAU__crt_locale_pointers@@@Z 1004ed1d f i libucrt:strtox.obj
 0001:0004dd55       ??$parse_integer_from_string@KDPAPAD@__crt_strtox@@YAKQBDQAPADHQAU__crt_locale_pointers@@@Z 1004ed55 f i libucrt:strtox.obj
 0001:0004dd8d       ??$parse_integer_from_string@K_WPAPA_W@__crt_strtox@@YAKQB_WQAPA_WHQAU__crt_locale_pointers@@@Z 1004ed8d f i libucrt:strtox.obj
 0001:0004ddc5       ??$parse_integer_from_string@_JDPAPAD@__crt_strtox@@YA_JQBDQAPADHQAU__crt_locale_pointers@@@Z 1004edc5 f i libucrt:strtox.obj
 0001:0004ddfd       ??$parse_integer_from_string@_J_WPAPA_W@__crt_strtox@@YA_JQB_WQAPA_WHQAU__crt_locale_pointers@@@Z 1004edfd f i libucrt:strtox.obj
 0001:0004de35       ??$parse_integer_from_string@_KDPAPAD@__crt_strtox@@YA_KQBDQAPADHQAU__crt_locale_pointers@@@Z 1004ee35 f i libucrt:strtox.obj
 0001:0004de6d       ??$parse_integer_from_string@_K_WPAPA_W@__crt_strtox@@YA_KQB_WQAPA_WHQAU__crt_locale_pointers@@@Z 1004ee6d f i libucrt:strtox.obj
 0001:0004dea5       __strtoi64                 1004eea5 f   libucrt:strtox.obj
 0001:0004dedc       __strtoi64_l               1004eedc f   libucrt:strtox.obj
 0001:0004df14       __strtoimax_l              1004ef14 f   libucrt:strtox.obj
 0001:0004df4c       __strtol_l                 1004ef4c f   libucrt:strtox.obj
 0001:0004df84       __strtoll_l                1004ef84 f   libucrt:strtox.obj
 0001:0004dfbc       __strtoui64                1004efbc f   libucrt:strtox.obj
 0001:0004dff3       __strtoui64_l              1004eff3 f   libucrt:strtox.obj
 0001:0004e02b       __strtoul_l                1004f02b f   libucrt:strtox.obj
 0001:0004e063       __strtoull_l               1004f063 f   libucrt:strtox.obj
 0001:0004e09b       __strtoumax_l              1004f09b f   libucrt:strtox.obj
 0001:0004e0d3       __wcstoi64                 1004f0d3 f   libucrt:strtox.obj
 0001:0004e10a       __wcstoi64_l               1004f10a f   libucrt:strtox.obj
 0001:0004e142       __wcstoimax_l              1004f142 f   libucrt:strtox.obj
 0001:0004e17a       __wcstol_l                 1004f17a f   libucrt:strtox.obj
 0001:0004e1b2       __wcstoll_l                1004f1b2 f   libucrt:strtox.obj
 0001:0004e1ea       __wcstoui64                1004f1ea f   libucrt:strtox.obj
 0001:0004e221       __wcstoui64_l              1004f221 f   libucrt:strtox.obj
 0001:0004e259       __wcstoul_l                1004f259 f   libucrt:strtox.obj
 0001:0004e291       __wcstoull_l               1004f291 f   libucrt:strtox.obj
 0001:0004e2c9       __wcstoumax_l              1004f2c9 f   libucrt:strtox.obj
 0001:0004e301       _strtoimax                 1004f301 f   libucrt:strtox.obj
 0001:0004e338       _strtol                    1004f338 f   libucrt:strtox.obj
 0001:0004e36f       _strtoll                   1004f36f f   libucrt:strtox.obj
 0001:0004e3a6       _strtoul                   1004f3a6 f   libucrt:strtox.obj
 0001:0004e3dd       _strtoull                  1004f3dd f   libucrt:strtox.obj
 0001:0004e414       _strtoumax                 1004f414 f   libucrt:strtox.obj
 0001:0004e44b       _wcstoimax                 1004f44b f   libucrt:strtox.obj
 0001:0004e482       _wcstol                    1004f482 f   libucrt:strtox.obj
 0001:0004e4b9       _wcstoll                   1004f4b9 f   libucrt:strtox.obj
 0001:0004e4f0       _wcstoul                   1004f4f0 f   libucrt:strtox.obj
 0001:0004e527       _wcstoull                  1004f527 f   libucrt:strtox.obj
 0001:0004e55e       _wcstoumax                 1004f55e f   libucrt:strtox.obj
 0001:0004e595       __mbtowc_l                 1004f595 f   libucrt:mbtowc.obj
 0001:0004e72a       _mbtowc                    1004f72a f   libucrt:mbtowc.obj
 0001:0004e74a       __wctomb_l                 1004f74a f   libucrt:wctomb.obj
 0001:0004e7b1       __wctomb_s_l               1004f7b1 f   libucrt:wctomb.obj
 0001:0004e91c       _wctomb                    1004f91c f   libucrt:wctomb.obj
 0001:0004e95d       _wctomb_s                  1004f95d f   libucrt:wctomb.obj
 0001:0004f37a       ??1?$__crt_simd_cleanup_guard@$00@@QAE@XZ 1005037a f i libucrt:strnlen.obj
 0001:0004f37e       ??1?$__crt_simd_cleanup_guard@$0A@@@QAE@XZ 1005037e f i libucrt:strnlen.obj
 0001:0004f37f       ?compare_equals@?$__crt_simd_traits@$00E@@SA?AT__m256i@@T2@0@Z 1005037f f i libucrt:strnlen.obj
 0001:0004f384       ?compare_equals@?$__crt_simd_traits@$00G@@SA?AT__m256i@@T2@0@Z 10050384 f i libucrt:strnlen.obj
 0001:0004f389       ?compare_equals@?$__crt_simd_traits@$0A@E@@SA?AT__m128i@@T2@0@Z 10050389 f i libucrt:strnlen.obj
 0001:0004f38e       ?compare_equals@?$__crt_simd_traits@$0A@G@@SA?AT__m128i@@T2@0@Z 1005038e f i libucrt:strnlen.obj
 0001:0004f393       ?compute_byte_mask@?$__crt_simd_pack_traits@$00@@SAHT__m256i@@@Z 10050393 f i libucrt:strnlen.obj
 0001:0004f398       ?compute_byte_mask@?$__crt_simd_pack_traits@$0A@@@SAHT__m128i@@@Z 10050398 f i libucrt:strnlen.obj
 0001:0004f39d       ?get_zero_pack@?$__crt_simd_pack_traits@$00@@SA?AT__m256i@@XZ 1005039d f i libucrt:strnlen.obj
 0001:0004f3a2       ?get_zero_pack@?$__crt_simd_pack_traits@$0A@@@SA?AT__m128i@@XZ 100503a2 f i libucrt:strnlen.obj
 0001:0004f3a6       _strnlen                   100503a6 f   libucrt:strnlen.obj
 0001:0004f510       _wcslen                    10050510 f   libucrt:strnlen.obj
 0001:0004f682       _wcsnlen                   10050682 f   libucrt:strnlen.obj
 0001:0004f89e       ?__acrt_fp_classify@@YA?AW4__acrt_fp_class@@ABN@Z 1005089e f i libucrt:cvt.obj
 0001:0004f918       ?__acrt_fp_is_negative@@YA_NABN@Z 10050918 f i libucrt:cvt.obj
 0001:0005039d       ?strrchr@@YAPADQADH@Z      1005139d f i libucrt:cvt.obj
 0001:000503aa       ___acrt_fp_format          100513aa f   libucrt:cvt.obj
 0001:00050572       __fputwc_nolock            10051572 f   libucrt:fputwc.obj
 0001:000506e6       __fputwchar                100516e6 f   libucrt:fputwc.obj
 0001:00050706       __putwc_nolock             10051706 f   libucrt:fputwc.obj
 0001:00050713       _fputwc                    10051713 f   libucrt:fputwc.obj
 0001:000507a4       _putwc                     100517a4 f   libucrt:fputwc.obj
 0001:000507b1       _putwchar                  100517b1 f   libucrt:fputwc.obj
 0001:000507be       __fputc_nolock             100517be f   libucrt:fputc.obj
 0001:000507f1       __fputchar                 100517f1 f   libucrt:fputc.obj
 0001:00050811       __putc_nolock              10051811 f   libucrt:fputc.obj
 0001:0005081e       _fputc                     1005181e f   libucrt:fputc.obj
 0001:0005095c       _putc                      1005195c f   libucrt:fputc.obj
 0001:00050969       _putchar                   10051969 f   libucrt:fputc.obj
 0001:00050976       __get_printf_count_output  10051976 f   libucrt:printf_count_output.obj
 0001:00050990       __set_printf_count_output  10051990 f   libucrt:printf_count_output.obj
 0001:000509c4       __chgsign                  100519c4 f   libucrt:ieeemisc.obj
 0001:000509fe       __chgsignf                 100519fe f   libucrt:ieeemisc.obj
 0001:00050a29       __copysign                 10051a29 f   libucrt:ieeemisc.obj
 0001:00050a5d       __copysignf                10051a5d f   libucrt:ieeemisc.obj
 0001:00050a82       __finite                   10051a82 f   libucrt:ieeemisc.obj
 0001:00050aa2       __fpclass                  10051aa2 f   libucrt:ieeemisc.obj
 0001:00050b6f       __isnan                    10051b6f f   libucrt:ieeemisc.obj
 0001:00050bb2       __logb                     10051bb2 f   libucrt:ieeemisc.obj
 0001:00050cb7       __nextafter                10051cb7 f   libucrt:ieeemisc.obj
 0001:00050cdd       __scalb                    10051cdd f   libucrt:ieeemisc.obj
 0001:00050cfd       __add_exp                  10051cfd f   libucrt:util.obj
 0001:00050d37       __decomp                   10051d37 f   libucrt:util.obj
 0001:00050e4c       __get_exp                  10051e4c f   libucrt:util.obj
 0001:00050e6a       __set_bexp                 10051e6a f   libucrt:util.obj
 0001:00050e9d       __set_exp                  10051e9d f   libucrt:util.obj
 0001:00050ed7       __sptype                   10051ed7 f   libucrt:util.obj
 0001:00050f4c       ___clrfp_sse2              10051f4c f   libucrt:fpctrl.obj
 0001:00050f75       ___ctrlfp_sse2             10051f75 f   libucrt:fpctrl.obj
 0001:00050fbe       ___fclrf_sse2              10051fbe f   libucrt:fpctrl.obj
 0001:00050fe4       ___get_fpsr_sse2           10051fe4 f   libucrt:fpctrl.obj
 0001:00051009       ___set_fpsr_sse2           10052009 f   libucrt:fpctrl.obj
 0001:0005109c       ___set_statfp_sse2         1005209c f   libucrt:fpctrl.obj
 0001:000510bd       ___statfp_sse2             100520bd f   libucrt:fpctrl.obj
 0001:000510d7       __clrfp                    100520d7 f   libucrt:fpctrl.obj
 0001:000510ee       __ctrlfp                   100520ee f   libucrt:fpctrl.obj
 0001:00051125       __set_statfp               10052125 f   libucrt:fpctrl.obj
 0001:00051196       __statfp                   10052196 f   libucrt:fpctrl.obj
 0001:000511ac       ??$__crt_fast_decode_pointer@P6AHPAU_exception@@@Z@@YAP6AHPAU_exception@@@ZQ6AH0@Z@Z 100521ac f i libucrt:matherr.obj
 0001:000511c7       ??$__crt_fast_encode_pointer@P6AHPAU_exception@@@Z@@YAP6AHPAU_exception@@@ZQ6AH0@Z@Z 100521c7 f i libucrt:matherr.obj
 0001:000511ed       ?initialize@?$dual_state_global@P6AHPAU_exception@@@Z@__crt_state_management@@QAEXQ6AHPAU_exception@@@Z@Z 100521ed f i libucrt:matherr.obj
 0001:0005121c       ?value@?$dual_state_global@P6AHPAU_exception@@@Z@__crt_state_management@@QAEAAP6AHPAU_exception@@@ZXZ 1005221c f i libucrt:matherr.obj
 0001:0005121f       ___acrt_has_user_matherr   1005221f f   libucrt:matherr.obj
 0001:0005123d       ___acrt_initialize_user_matherr 1005223d f   libucrt:matherr.obj
 0001:0005124f       ___acrt_invoke_user_matherr 1005224f f   libucrt:matherr.obj
 0001:000512aa       ___setusermatherr          100522aa f   libucrt:matherr.obj
 0001:00051db5       ??$find_first_file_ex@ABQADW4_FINDEX_INFO_LEVELS@@PAU_WIN32_FIND_DATAA@@W4_FINDEX_SEARCH_OPS@@$$TH@?$__crt_char_traits@D@@SAPAXABQAD$$QAW4_FINDEX_INFO_LEVELS@@$$QAPAU_WIN32_FIND_DATAA@@$$QAW4_FINDEX_SEARCH_OPS@@$$QA$$T$$QAH@Z 10052db5 f i libucrt:argv_wildcards.obj
 0001:00051ded       ??$find_first_file_ex@ABQA_WW4_FINDEX_INFO_LEVELS@@PAU_WIN32_FIND_DATAW@@W4_FINDEX_SEARCH_OPS@@$$TH@?$__crt_char_traits@_W@@SAPAXABQA_W$$QAW4_FINDEX_INFO_LEVELS@@$$QAPAU_WIN32_FIND_DATAW@@$$QAW4_FINDEX_SEARCH_OPS@@$$QA$$T$$QAH@Z 10052ded f i libucrt:argv_wildcards.obj
 0001:00051e22       ??$find_next_file@PAXPAU_WIN32_FIND_DATAA@@@?$__crt_char_traits@D@@SAH$$QAPAX$$QAPAU_WIN32_FIND_DATAA@@@Z 10052e22 f i libucrt:argv_wildcards.obj
 0001:00051e40       ??$find_next_file@PAXPAU_WIN32_FIND_DATAW@@@?$__crt_char_traits@_W@@SAH$$QAPAX$$QAPAU_WIN32_FIND_DATAW@@@Z 10052e40 f i libucrt:argv_wildcards.obj
 0001:00051e5c       ??$tcsncpy_s@AAPADIAAPADABI@?$__crt_char_traits@D@@SAHAAPAD$$QAI0ABI@Z 10052e5c f i libucrt:argv_wildcards.obj
 0001:00051e87       ??$tcsncpy_s@AAPA_WIAAPA_WABI@?$__crt_char_traits@_W@@SAHAAPA_W$$QAI0ABI@Z 10052e87 f i libucrt:argv_wildcards.obj
 0001:00051eb2       ??$tcsncpy_s@PADABIABQBDABI@?$__crt_char_traits@D@@SAH$$QAPADABIABQBD1@Z 10052eb2 f i libucrt:argv_wildcards.obj
 0001:00051edd       ??$tcsncpy_s@PADIABQBDABI@?$__crt_char_traits@D@@SAH$$QAPAD$$QAIABQBDABI@Z 10052edd f i libucrt:argv_wildcards.obj
 0001:00051f08       ??$tcsncpy_s@PA_WABIABQB_WABI@?$__crt_char_traits@_W@@SAH$$QAPA_WABIABQB_W1@Z 10052f08 f i libucrt:argv_wildcards.obj
 0001:00051f33       ??$tcsncpy_s@PA_WIABQB_WABI@?$__crt_char_traits@_W@@SAH$$QAPA_W$$QAIABQB_WABI@Z 10052f33 f i libucrt:argv_wildcards.obj
 0001:00051f5e       ??$tcspbrk@AAPADAAY02$$CBD@?$__crt_char_traits@D@@SAPADAAPADAAY02$$CBD@Z 10052f5e f i libucrt:argv_wildcards.obj
 0001:00051f79       ??$tcspbrk@AAPA_WAAY02$$CB_W@?$__crt_char_traits@_W@@SAPA_WAAPA_WAAY02$$CB_W@Z 10052f79 f i libucrt:argv_wildcards.obj
 0001:00051f94       ??0?$__crt_unique_handle_t@U__crt_findfile_traits@@@@QAE@QAX@Z 10052f94 f i libucrt:argv_wildcards.obj
 0001:00051fc8       ??1?$__crt_unique_handle_t@U__crt_findfile_traits@@@@QAE@XZ 10052fc8 f i libucrt:argv_wildcards.obj
 0001:00052172       ?close@?$__crt_unique_handle_t@U__crt_findfile_traits@@@@QAEXXZ 10053172 f i libucrt:argv_wildcards.obj
 0001:0005218e       ?close@__crt_findfile_traits@@SA_NPAX@Z 1005318e f i libucrt:argv_wildcards.obj
 0001:00052300       ?get@?$__crt_unique_handle_t@U__crt_findfile_traits@@@@QBEPAXXZ 10053300 f i libucrt:argv_wildcards.obj
 0001:00052303       ?get_invalid_value@__crt_findfile_traits@@SAPAXXZ 10053303 f i libucrt:argv_wildcards.obj
 0001:0005233a       ?strpbrk@@YAPADQADQBD@Z    1005333a f i libucrt:argv_wildcards.obj
 0001:00052347       ?wcspbrk@@YAPA_WPA_WPB_W@Z 10053347 f i libucrt:argv_wildcards.obj
 0001:00052354       ___acrt_expand_narrow_argv_wildcards 10053354 f   libucrt:argv_wildcards.obj
 0001:00052361       ___acrt_expand_wide_argv_wildcards 10053361 f   libucrt:argv_wildcards.obj
 0001:000523f3       ??$initialize_from_array@$$BY10BAA@E@?$dual_state_global@PAE@__crt_state_management@@QAAXAAY10BAA@E@Z 100533f3 f i libucrt:mbctype.obj
 0001:00052405       ??$initialize_from_array@$$BY10BAB@E@?$dual_state_global@PAE@__crt_state_management@@QAAXAAY10BAB@E@Z 10053405 f i libucrt:mbctype.obj
 0001:00052564       ?dangerous_get_state_array@?$dual_state_global@PAE@__crt_state_management@@QAEPAPAEXZ 10053564 f i libucrt:mbctype.obj
 0001:00052567       ?dangerous_get_state_array@?$dual_state_global@PAU__crt_multibyte_data@@@__crt_state_management@@QAEPAPAU__crt_multibyte_data@@XZ 10053567 f i libucrt:mbctype.obj
 0001:000525f9       ?initialize@?$dual_state_global@PAU__crt_multibyte_data@@@__crt_state_management@@QAEXQAU__crt_multibyte_data@@@Z 100535f9 f i libucrt:mbctype.obj
 0001:00052ae8       ?value@?$dual_state_global@PAE@__crt_state_management@@QAEAAPAEXZ 10053ae8 f i libucrt:mbctype.obj
 0001:00052aeb       ___acrt_initialize_multibyte 10053aeb f   libucrt:mbctype.obj
 0001:00052b45       ___acrt_update_thread_multibyte_data 10053b45 f   libucrt:mbctype.obj
 0001:00052b5c       ___p__mbcasemap            10053b5c f   libucrt:mbctype.obj
 0001:00052b62       ___p__mbctype              10053b62 f   libucrt:mbctype.obj
 0001:00052b68       __getmbcp                  10053b68 f   libucrt:mbctype.obj
 0001:00052bab       __setmbcp                  10053bab f   libucrt:mbctype.obj
 0001:00052bd1       __setmbcp_nolock           10053bd1 f   libucrt:mbctype.obj
 0001:00052f5a       __ismbbalnum               10053f5a f   libucrt:ismbbyte.obj
 0001:00052f7b       __ismbbalnum_l             10053f7b f   libucrt:ismbbyte.obj
 0001:00052f9e       __ismbbalpha               10053f9e f   libucrt:ismbbyte.obj
 0001:00052fbf       __ismbbalpha_l             10053fbf f   libucrt:ismbbyte.obj
 0001:00052fe2       __ismbbblank               10053fe2 f   libucrt:ismbbyte.obj
 0001:0005300d       __ismbbblank_l             1005400d f   libucrt:ismbbyte.obj
 0001:0005303a       __ismbbgraph               1005403a f   libucrt:ismbbyte.obj
 0001:0005305b       __ismbbgraph_l             1005405b f   libucrt:ismbbyte.obj
 0001:0005307e       __ismbbkalnum              1005407e f   libucrt:ismbbyte.obj
 0001:0005309c       __ismbbkalnum_l            1005409c f   libucrt:ismbbyte.obj
 0001:000530bb       __ismbbkana                100540bb f   libucrt:ismbbyte.obj
 0001:000530d2       __ismbbkana_l              100540d2 f   libucrt:ismbbyte.obj
 0001:00053137       __ismbbkprint              10054137 f   libucrt:ismbbyte.obj
 0001:00053155       __ismbbkprint_l            10054155 f   libucrt:ismbbyte.obj
 0001:00053174       __ismbbkpunct              10054174 f   libucrt:ismbbyte.obj
 0001:00053192       __ismbbkpunct_l            10054192 f   libucrt:ismbbyte.obj
 0001:000531b1       __ismbblead                100541b1 f   libucrt:ismbbyte.obj
 0001:000531cf       __ismbblead_l              100541cf f   libucrt:ismbbyte.obj
 0001:000531ee       __ismbbprint               100541ee f   libucrt:ismbbyte.obj
 0001:0005320f       __ismbbprint_l             1005420f f   libucrt:ismbbyte.obj
 0001:00053232       __ismbbpunct               10054232 f   libucrt:ismbbyte.obj
 0001:00053250       __ismbbpunct_l             10054250 f   libucrt:ismbbyte.obj
 0001:0005326f       __ismbbtrail               1005426f f   libucrt:ismbbyte.obj
 0001:0005328d       __ismbbtrail_l             1005428d f   libucrt:ismbbyte.obj
 0001:000532ac       ___acrt_initialize_command_line 100542ac f   libucrt:argv_data.obj
 0001:000532cb       ___acrt_uninitialize_command_line 100542cb f   libucrt:argv_data.obj
 0001:000532ce       ___p___argc                100542ce f   libucrt:argv_data.obj
 0001:000532d4       ___p___argv                100542d4 f   libucrt:argv_data.obj
 0001:000532da       ___p___wargv               100542da f   libucrt:argv_data.obj
 0001:000532e0       ___p__acmdln               100542e0 f   libucrt:argv_data.obj
 0001:000532e6       ___p__pgmptr               100542e6 f   libucrt:argv_data.obj
 0001:000532ec       ___p__wcmdln               100542ec f   libucrt:argv_data.obj
 0001:000532f2       ___p__wpgmptr              100542f2 f   libucrt:argv_data.obj
 0001:000532f8       __get_pgmptr               100542f8 f   libucrt:argv_data.obj
 0001:00053335       __get_wpgmptr              10054335 f   libucrt:argv_data.obj
 0001:000533f0       ___acrt_WideCharToMultiByte 100543f0 f   libucrt:widechartomultibyte.obj
 0001:00053582       ___dcrt_get_narrow_environment_from_os 10054582 f   libucrt:get_environment_from_os.obj
 0001:00053629       ___dcrt_get_wide_environment_from_os 10054629 f   libucrt:get_environment_from_os.obj
 0001:00053f2d       ??$get_or_create_environment_nolock@$$V@?$__crt_char_traits@D@@SAPAPADXZ 10054f2d f i libucrt:setenv.obj
 0001:00053f32       ??$get_or_create_environment_nolock@$$V@?$__crt_char_traits@_W@@SAPAPA_WXZ 10054f32 f i libucrt:setenv.obj
 0001:00053f37       ??$set_environment_variable@ABQADQAD@?$__crt_char_traits@D@@SAHABQAD$$QBQAD@Z 10054f37 f i libucrt:setenv.obj
 0001:00053f55       ??$set_environment_variable@ABQA_WQA_W@?$__crt_char_traits@_W@@SAHABQA_W$$QBQA_W@Z 10054f55 f i libucrt:setenv.obj
 0001:00053f71       ??$tcschr@ABQADD@?$__crt_char_traits@D@@SAPADABQAD$$QAD@Z 10054f71 f i libucrt:setenv.obj
 0001:00053f91       ??$tcschr@ABQA_WD@?$__crt_char_traits@_W@@SAPA_WABQA_W$$QAD@Z 10054f91 f i libucrt:setenv.obj
 0001:00053fb6       ??$tcscpy_s@AAPADABIAAPAD@?$__crt_char_traits@D@@SAHAAPADABI0@Z 10054fb6 f i libucrt:setenv.obj
 0001:00053fdb       ??$tcscpy_s@AAPA_WABIAAPA_W@?$__crt_char_traits@_W@@SAHAAPA_WABI0@Z 10054fdb f i libucrt:setenv.obj
 0001:00054000       ??$tcscpy_s@ABQADABIABQAD@?$__crt_char_traits@D@@SAHABQADABI0@Z 10055000 f i libucrt:setenv.obj
 0001:00054025       ??$tcscpy_s@ABQA_WABIABQA_W@?$__crt_char_traits@_W@@SAHABQA_WABI0@Z 10055025 f i libucrt:setenv.obj
 0001:0005404a       ??$tcsnicoll@ABQBDAAPADABI@?$__crt_char_traits@D@@SAHABQBDAAPADABI@Z 1005504a f i libucrt:setenv.obj
 0001:0005406f       ??$tcsnicoll@ABQB_WAAPA_WABI@?$__crt_char_traits@_W@@SAHABQB_WAAPA_WABI@Z 1005506f f i libucrt:setenv.obj
 0001:000540b8       ?strchr@@YAPADQADH@Z       100550b8 f i libucrt:setenv.obj
 0001:000540c5       ?wcschr@@YAPA_WPA_W_W@Z    100550c5 f i libucrt:setenv.obj
 0001:000540d2       ___dcrt_set_variable_in_narrow_environment_nolock 100550d2 f   libucrt:setenv.obj
 0001:000540df       ___dcrt_set_variable_in_wide_environment_nolock 100550df f   libucrt:setenv.obj
 0001:000540ec       __recalloc                 100550ec f   libucrt:recalloc.obj
 0001:000540f9       __recalloc_base            100550f9 f   libucrt:recalloc.obj
 0001:00054181       ___acrt_getheap            10055181 f   libucrt:heap_handle.obj
 0001:00054187       ___acrt_initialize_heap    10055187 f   libucrt:heap_handle.obj
 0001:0005419c       ___acrt_uninitialize_heap  1005519c f   libucrt:heap_handle.obj
 0001:000541a8       __get_heap_handle          100551a8 f   libucrt:heap_handle.obj
 0001:000541ae       ___acrt_execute_initializers 100551ae f   libucrt:shared_initialization.obj
 0001:00054251       ___acrt_execute_uninitializers 10055251 f   libucrt:shared_initialization.obj
 0001:000542ab       ??$?B$$A6AHI@Z@__crt_fast_encoded_nullptr_t@@QBEP6AHI@ZXZ 100552ab f i libucrt:new_handler.obj
 0001:000542c9       ??$__crt_fast_decode_pointer@P6AHI@Z@@YAP6AHI@ZQ6AHI@Z@Z 100552c9 f i libucrt:new_handler.obj
 0001:000542e4       ??$__crt_fast_encode_pointer@P6AHI@Z@@YAP6AHI@ZQ6AHI@Z@Z 100552e4 f i libucrt:new_handler.obj
 0001:0005430a       ?_set_new_handler@@YAP6AHI@ZH@Z 1005530a f   libucrt:new_handler.obj
 0001:00054330       ?initialize@?$dual_state_global@P6AHI@Z@__crt_state_management@@QAEXQ6AHI@Z@Z 10055330 f i libucrt:new_handler.obj
 0001:0005435f       ?value@?$dual_state_global@P6AHI@Z@__crt_state_management@@QAEAAP6AHI@ZXZ 1005535f f i libucrt:new_handler.obj
 0001:00054362       ___acrt_initialize_new_handler 10055362 f   libucrt:new_handler.obj
 0001:00054374       __callnewh                 10055374 f   libucrt:new_handler.obj
 0001:000543c9       __query_new_handler        100553c9 f   libucrt:new_handler.obj
 0001:0005442f       __set_new_handler          1005542f f   libucrt:new_handler.obj
 0001:000544a7       ___pctype_func             100554a7 f   libucrt:ctype.obj
 0001:000544d6       ___pwctype_func            100554d6 f   libucrt:ctype.obj
 0001:000544dc       __iswctype_l               100554dc f   libucrt:iswctype.obj
 0001:000544f5       _iswctype                  100554f5 f   libucrt:iswctype.obj
 0001:0005457a       __isctype                  1005557a f   libucrt:isctype.obj
 0001:000545b8       __isctype_l                100555b8 f   libucrt:isctype.obj
 0001:000546c6       ?value@?$dual_state_global@J@__crt_state_management@@QAEAAJXZ 100556c6 f i libucrt:new_mode.obj
 0001:000546c9       __query_new_mode           100556c9 f   libucrt:new_mode.obj
 0001:000546cf       __set_new_mode             100556cf f   libucrt:new_mode.obj
 0001:00054808       _wcsncpy_s                 10055808 f   libucrt:wcsncpy_s.obj
 0001:00054a23       __mbstowcs_l               10055a23 f   libucrt:mbstowcs.obj
 0001:00054a30       __mbstowcs_s_l             10055a30 f   libucrt:mbstowcs.obj
 0001:00054b4a       _mbstowcs                  10055b4a f   libucrt:mbstowcs.obj
 0001:00054b7e       _mbstowcs_s                10055b7e f   libucrt:mbstowcs.obj
 0001:00054ba6       ___acrt_OutputDebugStringA@4 10055ba6 f   libucrt:outputdebugstringa.obj
 0001:00054de3       __commit                   10055de3 f   libucrt:commit.obj
 0001:0005502d       ___acrt_DownlevelLCIDToLocaleName 1005602d f   libucrt:lcidtoname_downlevel.obj
 0001:00055101       ___acrt_DownlevelLocaleNameToLCID 10056101 f   libucrt:lcidtoname_downlevel.obj
 0001:00055138       ??$?RU__crt_lowio_handle_data@@@__crt_internal_free_policy@@QBEXQBU__crt_lowio_handle_data@@@Z 10056138 f i libucrt:osfinfo.obj
 0001:0005514e       ??0?$__crt_unique_heap_ptr@U__crt_lowio_handle_data@@U__crt_internal_free_policy@@@@QAE@QAU__crt_lowio_handle_data@@@Z 1005614e f i libucrt:osfinfo.obj
 0001:00055162       ??1?$__crt_unique_heap_ptr@U__crt_lowio_handle_data@@U__crt_internal_free_policy@@@@QAE@XZ 10056162 f i libucrt:osfinfo.obj
 0001:00055178       ??B?$__crt_unique_heap_ptr@U__crt_lowio_handle_data@@U__crt_internal_free_policy@@@@QBE_NXZ 10056178 f i libucrt:osfinfo.obj
 0001:0005517f       ?detach@?$__crt_unique_heap_ptr@U__crt_lowio_handle_data@@U__crt_internal_free_policy@@@@QAEPAU__crt_lowio_handle_data@@XZ 1005617f f i libucrt:osfinfo.obj
 0001:00055185       ?get@?$__crt_unique_heap_ptr@U__crt_lowio_handle_data@@U__crt_internal_free_policy@@@@QBEPAU__crt_lowio_handle_data@@XZ 10056185 f i libucrt:osfinfo.obj
 0001:00055188       ?is_valid@?$__crt_unique_heap_ptr@U__crt_lowio_handle_data@@U__crt_internal_free_policy@@@@QBE_NXZ 10056188 f i libucrt:osfinfo.obj
 0001:0005518f       ?release@?$__crt_unique_heap_ptr@U__crt_lowio_handle_data@@U__crt_internal_free_policy@@@@QAEXXZ 1005618f f i libucrt:osfinfo.obj
 0001:000551a5       ___acrt_lowio_create_handle_array 100561a5 f   libucrt:osfinfo.obj
 0001:0005523d       ___acrt_lowio_destroy_handle_array 1005623d f   libucrt:osfinfo.obj
 0001:0005527f       ___acrt_lowio_ensure_fh_exists 1005627f f   libucrt:osfinfo.obj
 0001:00055338       ___acrt_lowio_lock_fh      10056338 f   libucrt:osfinfo.obj
 0001:00055363       ___acrt_lowio_set_os_handle 10056363 f   libucrt:osfinfo.obj
 0001:0005541c       ___acrt_lowio_unlock_fh    1005641c f   libucrt:osfinfo.obj
 0001:00055447       __alloc_osfhnd             10056447 f   libucrt:osfinfo.obj
 0001:00055592       __free_osfhnd              10056592 f   libucrt:osfinfo.obj
 0001:00055647       __get_osfhandle            10056647 f   libucrt:osfinfo.obj
 0001:000556cb       __open_osfhandle           100566cb f   libucrt:osfinfo.obj
 0001:0005581a       __wcsnicmp                 1005681a f   libucrt:wcsnicmp.obj
 0001:000558f7       __wcsnicmp_l               100568f7 f   libucrt:wcsnicmp.obj
 0001:00055a33       __strnicmp                 10056a33 f   libucrt:strnicmp.obj
 0001:00055abb       __strnicmp_l               10056abb f   libucrt:strnicmp.obj
 0001:00055c44       ??$__vcrt_va_start_verify_argument_type@$$CBH@@YAXXZ 10056c44 f i libucrt:open.obj
 0001:00055fb5       ??$tsopen_nolock@PAHABQAHABQBDABHABHABHABH@?$__crt_char_traits@D@@SAH$$QAPAHABQAHABQBDABH333@Z 10056fb5 f i libucrt:open.obj
 0001:00055ff3       ??$tsopen_nolock@PAHABQAHABQB_WABHABHABHABH@?$__crt_char_traits@_W@@SAH$$QAPAHABQAHABQB_WABH333@Z 10056ff3 f i libucrt:open.obj
 0001:00056031       ??$tsopen_nolock@PAHPAHABQBDABHHABHH@?$__crt_char_traits@D@@SAH$$QAPAH0ABQBDABH$$QAH23@Z 10057031 f i libucrt:open.obj
 0001:0005606f       ??$tsopen_nolock@PAHPAHABQB_WABHHABHH@?$__crt_char_traits@_W@@SAH$$QAPAH0ABQB_WABH$$QAH23@Z 1005706f f i libucrt:open.obj
 0001:00056861       __open                     10057861 f   libucrt:open.obj
 0001:0005687f       __sopen                    1005787f f   libucrt:open.obj
 0001:000568c1       __sopen_dispatch           100578c1 f   libucrt:open.obj
 0001:000568ce       __sopen_nolock             100578ce f   libucrt:open.obj
 0001:0005695a       __sopen_s                  1005795a f   libucrt:open.obj
 0001:00056982       __wopen                    10057982 f   libucrt:open.obj
 0001:000569a0       __wsopen                   100579a0 f   libucrt:open.obj
 0001:000569e2       __wsopen_dispatch          100579e2 f   libucrt:open.obj
 0001:000569ef       __wsopen_nolock            100579ef f   libucrt:open.obj
 0001:00056de6       __wsopen_s                 10057de6 f   libucrt:open.obj
 0001:00056e0e       ___p__commode              10057e0e f   libucrt:ncommode.obj
 0001:00056e14       __isatty                   10057e14 f   libucrt:isatty.obj
 0001:00056e7f       ___acrt_stdio_allocate_buffer_nolock 10057e7f f   libucrt:_getbuf.obj
 0001:00056ffb       __putwch                   10057ffb f   libucrt:putwch.obj
 0001:00057035       __putwch_nolock            10058035 f   libucrt:putwch.obj
 0001:00057076       ___acrt_add_locale_ref     10058076 f   libucrt:locale_refcounting.obj
 0001:00057112       ___acrt_free_locale        10058112 f   libucrt:locale_refcounting.obj
 0001:000572ae       ___acrt_locale_add_lc_time_reference 100582ae f   libucrt:locale_refcounting.obj
 0001:000572e1       ___acrt_locale_free_lc_time_if_unreferenced 100582e1 f   libucrt:locale_refcounting.obj
 0001:0005731d       ___acrt_locale_release_lc_time_reference 1005831d f   libucrt:locale_refcounting.obj
 0001:00057350       ___acrt_release_locale_ref 10058350 f   libucrt:locale_refcounting.obj
 0001:000573f1       ___acrt_update_thread_locale_data 100583f1 f   libucrt:locale_refcounting.obj
 0001:00057485       __updatetlocinfoEx_nolock  10058485 f   libucrt:locale_refcounting.obj
 0001:000574e9       ??$?RG@__crt_internal_free_policy@@QBEXQBG@Z 100584e9 f i libucrt:initctype.obj
 0001:000574ff       ??$?RJ@__crt_internal_free_policy@@QBEXQBJ@Z 100584ff f i libucrt:initctype.obj
 0001:00057515       ??0?$__crt_unique_heap_ptr@GU__crt_internal_free_policy@@@@QAE@QAG@Z 10058515 f i libucrt:initctype.obj
 0001:00057529       ??0?$__crt_unique_heap_ptr@JU__crt_internal_free_policy@@@@QAE@QAJ@Z 10058529 f i libucrt:initctype.obj
 0001:0005753d       ??1?$__crt_unique_heap_ptr@GU__crt_internal_free_policy@@@@QAE@XZ 1005853d f i libucrt:initctype.obj
 0001:00057553       ??1?$__crt_unique_heap_ptr@JU__crt_internal_free_policy@@@@QAE@XZ 10058553 f i libucrt:initctype.obj
 0001:00057569       ?detach@?$__crt_unique_heap_ptr@GU__crt_internal_free_policy@@@@QAEPAGXZ 10058569 f i libucrt:initctype.obj
 0001:0005756f       ?detach@?$__crt_unique_heap_ptr@JU__crt_internal_free_policy@@@@QAEPAJXZ 1005856f f i libucrt:initctype.obj
 0001:00057575       ?release@?$__crt_unique_heap_ptr@GU__crt_internal_free_policy@@@@QAEXXZ 10058575 f i libucrt:initctype.obj
 0001:0005758b       ?release@?$__crt_unique_heap_ptr@JU__crt_internal_free_policy@@@@QAEXXZ 1005858b f i libucrt:initctype.obj
 0001:000575a1       ____lc_codepage_func       100585a1 f   libucrt:initctype.obj
 0001:000575d1       ____lc_collate_cp_func     100585d1 f   libucrt:initctype.obj
 0001:00057601       ____lc_locale_name_func    10058601 f   libucrt:initctype.obj
 0001:00057634       ____mb_cur_max_func        10058634 f   libucrt:initctype.obj
 0001:00057664       ____mb_cur_max_l_func      10058664 f   libucrt:initctype.obj
 0001:00057683       ___acrt_locale_initialize_ctype 10058683 f   libucrt:initctype.obj
 0001:00057bc4       ??$?RUlconv@@@__crt_internal_free_policy@@QBEXQBUlconv@@@Z 10058bc4 f i libucrt:initmon.obj
 0001:00057bda       ??0?$__crt_unique_heap_ptr@Ulconv@@U__crt_internal_free_policy@@@@QAE@QAUlconv@@@Z 10058bda f i libucrt:initmon.obj
 0001:00057bee       ??1?$__crt_unique_heap_ptr@Ulconv@@U__crt_internal_free_policy@@@@QAE@XZ 10058bee f i libucrt:initmon.obj
 0001:00057c04       ?detach@?$__crt_unique_heap_ptr@Ulconv@@U__crt_internal_free_policy@@@@QAEPAUlconv@@XZ 10058c04 f i libucrt:initmon.obj
 0001:00057c0a       ?release@?$__crt_unique_heap_ptr@Ulconv@@U__crt_internal_free_policy@@@@QAEXXZ 10058c0a f i libucrt:initmon.obj
 0001:00057c20       ___acrt_locale_free_monetary 10058c20 f   libucrt:initmon.obj
 0001:00057d5d       ___acrt_locale_initialize_monetary 10058d5d f   libucrt:initmon.obj
 0001:0005824a       ___acrt_locale_free_numeric 1005924a f   libucrt:initnum.obj
 0001:000582cd       ___acrt_locale_initialize_numeric 100592cd f   libucrt:initnum.obj
 0001:000585a8       ??$?RU__crt_lc_time_data@@@__crt_internal_free_policy@@QBEXQBU__crt_lc_time_data@@@Z 100595a8 f i libucrt:inittime.obj
 0001:00058648       ??0?$__crt_unique_heap_ptr@U__crt_lc_time_data@@U__crt_internal_free_policy@@@@QAE@QAU__crt_lc_time_data@@@Z 10059648 f i libucrt:inittime.obj
 0001:0005865c       ??1?$__crt_unique_heap_ptr@U__crt_lc_time_data@@U__crt_internal_free_policy@@@@QAE@XZ 1005965c f i libucrt:inittime.obj
 0001:00058672       ??B?$__crt_unique_heap_ptr@U__crt_lc_time_data@@U__crt_internal_free_policy@@@@QBE_NXZ 10059672 f i libucrt:inittime.obj
 0001:00058679       ?detach@?$__crt_unique_heap_ptr@U__crt_lc_time_data@@U__crt_internal_free_policy@@@@QAEPAU__crt_lc_time_data@@XZ 10059679 f i libucrt:inittime.obj
 0001:000586c5       ?get@?$__crt_unique_heap_ptr@U__crt_lc_time_data@@U__crt_internal_free_policy@@@@QBEPAU__crt_lc_time_data@@XZ 100596c5 f i libucrt:inittime.obj
 0001:00058a5e       ?is_valid@?$__crt_unique_heap_ptr@U__crt_lc_time_data@@U__crt_internal_free_policy@@@@QBE_NXZ 10059a5e f i libucrt:inittime.obj
 0001:00058a65       ?release@?$__crt_unique_heap_ptr@U__crt_lc_time_data@@U__crt_internal_free_policy@@@@QAEXXZ 10059a65 f i libucrt:inittime.obj
 0001:00058a7b       ___acrt_locale_free_time   10059a7b f   libucrt:inittime.obj
 0001:00058b98       ___acrt_locale_initialize_time 10059b98 f   libucrt:inittime.obj
 0001:00058c31       _wcscspn                   10059c31 f   libucrt:wcscspn.obj
 0001:00058ca2       _wcspbrk                   10059ca2 f   libucrt:wcspbrk.obj
 0001:00058d03       __wcsicmp                  10059d03 f   libucrt:wcsicmp.obj
 0001:00058db4       __wcsicmp_l                10059db4 f   libucrt:wcsicmp.obj
 0001:00058ec8       ??0?$__crt_scoped_stack_ptr@_W@@QAE@U?$__crt_scoped_stack_ptr_tag@_W@@@Z 10059ec8 f i libucrt:getstringtypea.obj
 0001:00058edc       ??0?$__crt_scoped_stack_ptr_tag@_W@@QAE@QA_W@Z 10059edc f i libucrt:getstringtypea.obj
 0001:00058ef0       ??1?$__crt_scoped_stack_ptr@_W@@QAE@XZ 10059ef0 f i libucrt:getstringtypea.obj
 0001:00058efb       ?get@?$__crt_scoped_stack_ptr@_W@@QBEPA_WXZ 10059efb f i libucrt:getstringtypea.obj
 0001:00058efe       __MallocaComputeSize       10059efe f i libucrt:getstringtypea.obj
 0001:00058f15       __MarkAllocaS              10059f15 f i libucrt:getstringtypea.obj
 0001:00058f30       ___acrt_GetStringTypeA     10059f30 f   libucrt:getstringtypea.obj
 0001:00059076       __freea_crt                1005a076 f i libucrt:getstringtypea.obj
 0001:000599cd       ___acrt_get_qualified_locale 1005a9cd f   libucrt:get_qualified_locale.obj
 0001:0005a5bb       ___acrt_get_qualified_locale_downlevel 1005b5bb f   libucrt:getqloc_downlevel.obj
 0001:0005a82f       _localeconv                1005b82f f   libucrt:localeconv.obj
 0001:0005a863       ___iswcsym                 1005b863 f i libucrt:_wctype.obj
 0001:0005a892       ___iswcsymf                1005b892 f i libucrt:_wctype.obj
 0001:0005a8c1       __isleadbyte_l             1005b8c1 f i libucrt:_wctype.obj
 0001:0005a908       __iswalnum_l               1005b908 f i libucrt:_wctype.obj
 0001:0005a923       __iswalpha_l               1005b923 f i libucrt:_wctype.obj
 0001:0005a93e       __iswblank_l               1005b93e f i libucrt:_wctype.obj
 0001:0005a962       __iswcntrl_l               1005b962 f i libucrt:_wctype.obj
 0001:0005a979       __iswcsym_l                1005b979 f i libucrt:_wctype.obj
 0001:0005a9a8       __iswcsymf_l               1005b9a8 f i libucrt:_wctype.obj
 0001:0005a9d7       __iswdigit_l               1005b9d7 f i libucrt:_wctype.obj
 0001:0005a9ee       __iswgraph_l               1005b9ee f i libucrt:_wctype.obj
 0001:0005aa09       __iswlower_l               1005ba09 f i libucrt:_wctype.obj
 0001:0005aa20       __iswprint_l               1005ba20 f i libucrt:_wctype.obj
 0001:0005aa3b       __iswpunct_l               1005ba3b f i libucrt:_wctype.obj
 0001:0005aa52       __iswspace_l               1005ba52 f i libucrt:_wctype.obj
 0001:0005aa69       __iswupper_l               1005ba69 f i libucrt:_wctype.obj
 0001:0005aa80       __iswxdigit_l              1005ba80 f i libucrt:_wctype.obj
 0001:0005aa9b       _isleadbyte                1005ba9b f i libucrt:_wctype.obj
 0001:0005aab2       _iswalnum                  1005bab2 f i libucrt:_wctype.obj
 0001:0005aacd       _iswalpha                  1005bacd f i libucrt:_wctype.obj
 0001:0005aae8       _iswascii                  1005bae8 f i libucrt:_wctype.obj
 0001:0005ab01       _iswblank                  1005bb01 f i libucrt:_wctype.obj
 0001:0005ab25       _iswcntrl                  1005bb25 f i libucrt:_wctype.obj
 0001:0005ab3c       _iswdigit                  1005bb3c f i libucrt:_wctype.obj
 0001:0005ab53       _iswgraph                  1005bb53 f i libucrt:_wctype.obj
 0001:0005ab6e       _iswlower                  1005bb6e f i libucrt:_wctype.obj
 0001:0005ab85       _iswprint                  1005bb85 f i libucrt:_wctype.obj
 0001:0005aba0       _iswpunct                  1005bba0 f i libucrt:_wctype.obj
 0001:0005abb7       _iswspace                  1005bbb7 f i libucrt:_wctype.obj
 0001:0005abce       _iswupper                  1005bbce f i libucrt:_wctype.obj
 0001:0005abe5       _iswxdigit                 1005bbe5 f i libucrt:_wctype.obj
 0001:0005ac00       ??B?$__crt_scoped_stack_ptr@_W@@QBE_NXZ 1005bc00 f i libucrt:lcmapstringa.obj
 0001:0005ae6e       ___acrt_LCMapStringA       1005be6e f   libucrt:lcmapstringa.obj
 0001:0005af02       ?__mbrtowc_utf8@__crt_mbstring@@YAIPA_WPBDIPAU_Mbstatet@@@Z 1005bf02 f   libucrt:mbrtowc.obj
 0001:0005af54       ?__mbsrtowcs_utf8@__crt_mbstring@@YAIPA_WPAPBDIPAU_Mbstatet@@@Z 1005bf54 f   libucrt:mbrtowc.obj
 0001:0005b471       _btowc                     1005c471 f   libucrt:mbrtowc.obj
 0001:0005b4e1       _mbrlen                    1005c4e1 f   libucrt:mbrtowc.obj
 0001:0005b522       _mbrtowc                   1005c522 f   libucrt:mbrtowc.obj
 0001:0005b589       _mbsrtowcs                 1005c589 f   libucrt:mbrtowc.obj
 0001:0005b596       _mbsrtowcs_s               1005c596 f   libucrt:mbrtowc.obj
 0001:0005b661       ___acrt_fp_strflt_to_string 1005c661 f   libucrt:_fptostr.obj
 0001:0005cf80       ??0big_integer@__crt_strtox@@QAE@ABU01@@Z 1005df80 f i libucrt:cfout.obj
 0001:0005cfc0       ??0big_integer@__crt_strtox@@QAE@XZ 1005dfc0 f i libucrt:cfout.obj
 0001:0005d020       ??4big_integer@__crt_strtox@@QAEAAU01@ABU01@@Z 1005e020 f i libucrt:cfout.obj
 0001:0005d060       ??8__crt_strtox@@YA_NABUbig_integer@0@0@Z 1005e060 f i libucrt:cfout.obj
 0001:0005d0b0       ??9__crt_strtox@@YA_NABUbig_integer@0@0@Z 1005e0b0 f i libucrt:cfout.obj
 0001:0005d100       ?add_carry@__crt_strtox@@YAIAAIII@Z 1005e100 f i libucrt:cfout.obj
 0001:0005d130       ?add_multiply_carry@__crt_strtox@@YAIAAIIII@Z 1005e130 f i libucrt:cfout.obj
 0001:0005d160       ?bit_scan_reverse@__crt_strtox@@YAII@Z 1005e160 f i libucrt:cfout.obj
 0001:0005d190       ?count_sequential_high_zeroes@__crt_strtox@@YAII@Z 1005e190 f i libucrt:cfout.obj
 0001:0005d1c0       ?divide@__crt_strtox@@YA_KAAUbig_integer@1@ABU21@@Z 1005e1c0 f i libucrt:cfout.obj
 0001:0005d770       ?is_zero@__crt_strtox@@YA_NABUbig_integer@1@@Z 1005e770 f i libucrt:cfout.obj
 0001:0005d790       ?make_big_integer@__crt_strtox@@YA?AUbig_integer@1@_K@Z 1005e790 f i libucrt:cfout.obj
 0001:0005d7c0       ?make_big_integer_power_of_two@__crt_strtox@@YA?AUbig_integer@1@I@Z 1005e7c0 f i libucrt:cfout.obj
 0001:0005d820       ?multiply@__crt_strtox@@YA_NAAUbig_integer@1@ABU21@@Z 1005e820 f i libucrt:cfout.obj
 0001:0005dc30       ?multiply@__crt_strtox@@YA_NAAUbig_integer@1@I@Z 1005ec30 f i libucrt:cfout.obj
 0001:0005dd30       ?multiply_64_32@__crt_strtox@@YA_K_KI@Z 1005ed30 f i libucrt:cfout.obj
 0001:0005dd50       ?multiply_by_power_of_ten@__crt_strtox@@YA_NAAUbig_integer@1@I@Z 1005ed50 f i libucrt:cfout.obj
 0001:0005e3c0       ?multiply_core@__crt_strtox@@YAIQAIII@Z 1005f3c0 f i libucrt:cfout.obj
 0001:0005e410       ?shift_left@__crt_strtox@@YA_NAAUbig_integer@1@I@Z 1005f410 f i libucrt:cfout.obj
 0001:0005e5bb       ___acrt_fltout             1005f5bb f   libucrt:cfout.obj
 0001:0005fea6       _nextafter                 10060ea6 f   libucrt:nextafter.obj
 0001:0005ffe0       _qsort                     10060fe0 f   libucrt:qsort.obj
 0001:00060611       _strncpy_s                 10061611 f   libucrt:strncpy_s.obj
 0001:00060620       _strpbrk                   10061620 f   libucrt:strpbrk.obj
 0001:00060670       ??$__acrt_convert_wcs_mbs@D_W$$A6AIPA_WPBDIPAU__crt_locale_pointers@@@ZU__crt_win32_buffer_internal_dynamic_resizing@@@@YAHQBDAAV?$__crt_win32_buffer@_WU__crt_win32_buffer_internal_dynamic_resizing@@@@A6AIPA_WPBDIPAU__crt_locale_pointers@@@Z4@Z 10061670 f i libucrt:findfirstfileexa.obj
 0001:00060739       ??$__acrt_mbs_to_wcs@U__crt_win32_buffer_internal_dynamic_resizing@@@@YAHQBDAAV?$__crt_win32_buffer@_WU__crt_win32_buffer_internal_dynamic_resizing@@@@PAU__crt_locale_pointers@@@Z 10061739 f i libucrt:findfirstfileexa.obj
 0001:0006075d       ?set_to_nullptr@?$__crt_win32_buffer@_WU__crt_win32_buffer_internal_dynamic_resizing@@@@QAEXXZ 1006175d f i libucrt:findfirstfileexa.obj
 0001:00060779       ___acrt_FindFirstFileExA   10061779 f   libucrt:findfirstfileexa.obj
 0001:000607f8       ??$?0$0BAE@@?$__crt_win32_buffer@DU__crt_win32_buffer_no_resizing@@@@QAE@AAY0BAE@D@Z 100617f8 f i libucrt:findnextfilea.obj
 0001:00060827       ??$?0$0O@@?$__crt_win32_buffer@DU__crt_win32_buffer_no_resizing@@@@QAE@AAY0O@D@Z 10061827 f i libucrt:findnextfilea.obj
 0001:00060854       ??$__acrt_convert_wcs_mbs@_WD$$A6AIPADPB_WIPAU__crt_locale_pointers@@@ZU__crt_win32_buffer_no_resizing@@@@YAHQB_WAAV?$__crt_win32_buffer@DU__crt_win32_buffer_no_resizing@@@@A6AIPADPB_WIPAU__crt_locale_pointers@@@Z4@Z 10061854 f i libucrt:findnextfilea.obj
 0001:0006091e       ??$__acrt_wcs_to_mbs@U__crt_win32_buffer_no_resizing@@@@YAHQB_WAAV?$__crt_win32_buffer@DU__crt_win32_buffer_no_resizing@@@@PAU__crt_locale_pointers@@@Z 1006191e f i libucrt:findnextfilea.obj
 0001:00060942       ??1?$__crt_win32_buffer@DU__crt_win32_buffer_no_resizing@@@@QAE@XZ 10061942 f i libucrt:findnextfilea.obj
 0001:0006094f       ?_deallocate@?$__crt_win32_buffer@DU__crt_win32_buffer_no_resizing@@@@AAEXXZ 1006194f f i libucrt:findnextfilea.obj
 0001:0006095c       ?allocate@?$__crt_win32_buffer@DU__crt_win32_buffer_no_resizing@@@@QAEHI@Z 1006195c f i libucrt:findnextfilea.obj
 0001:0006098c       ?allocate@__crt_win32_buffer_no_resizing@@SAHQAPAXIABV__crt_win32_buffer_empty_debug_info@@@Z 1006198c f i libucrt:findnextfilea.obj
 0001:0006099c       ?capacity@?$__crt_win32_buffer@DU__crt_win32_buffer_no_resizing@@@@QBEIXZ 1006199c f i libucrt:findnextfilea.obj
 0001:000609a0       ?data@?$__crt_win32_buffer@DU__crt_win32_buffer_no_resizing@@@@QAEPADXZ 100619a0 f i libucrt:findnextfilea.obj
 0001:000609a4       ?deallocate@__crt_win32_buffer_no_resizing@@SAXQAXABV__crt_win32_buffer_empty_debug_info@@@Z 100619a4 f i libucrt:findnextfilea.obj
 0001:000609a5       ?debug_info@?$__crt_win32_buffer@DU__crt_win32_buffer_no_resizing@@@@QBEABV__crt_win32_buffer_empty_debug_info@@XZ 100619a5 f i libucrt:findnextfilea.obj
 0001:000609a8       ?set_to_nullptr@?$__crt_win32_buffer@DU__crt_win32_buffer_no_resizing@@@@QAEXXZ 100619a8 f i libucrt:findnextfilea.obj
 0001:000609c1       ?size@?$__crt_win32_buffer@DU__crt_win32_buffer_no_resizing@@@@QAEXI@Z 100619c1 f i libucrt:findnextfilea.obj
 0001:000609d3       ___acrt_FindNextFileA      100619d3 f   libucrt:findnextfilea.obj
 0001:00060b64       __mbsdec                   10061b64 f   libucrt:mbsdec.obj
 0001:00060b80       __mbsdec_l                 10061b80 f   libucrt:mbsdec.obj
 0001:00060c44       __wcsnicoll                10061c44 f   libucrt:wcsnicol.obj
 0001:00060d3c       __wcsnicoll_l              10061d3c f   libucrt:wcsnicol.obj
 0001:00060ea1       __strnicoll                10061ea1 f   libucrt:strnicol.obj
 0001:00060ed4       __strnicoll_l              10061ed4 f   libucrt:strnicol.obj
 0001:00060fd0       ___acrt_SetEnvironmentVariableA 10061fd0 f   libucrt:setenvironmentvariablea.obj
 0001:0006109f       __msize                    1006209f f   libucrt:msize.obj
 0001:000610ac       __msize_base               100620ac f   libucrt:msize.obj
 0001:000610eb       ___acrt_GetStringTypeW     100620eb f   libucrt:getstringtypew.obj
 0001:0006110a       __towlower_l               1006210a f   libucrt:towlower.obj
 0001:00061205       _towlower                  10062205 f   libucrt:towlower.obj
 0001:00061220       ___ascii_strnicmp          10062220 f   libucrt:_strnicm.obj
 0001:00061299       ??$__crt_interlocked_read@H@@YAHPDH@Z 10062299 f i libucrt:setmode.obj
 0001:000612a8       ?value@?$dual_state_global@H@__crt_state_management@@QAEAAHXZ 100622a8 f i libucrt:setmode.obj
 0001:000612ab       __get_fmode                100622ab f   libucrt:setmode.obj
 0001:000612e2       __set_fmode                100622e2 f   libucrt:setmode.obj
 0001:0006132e       __setmode                  1006232e f   libucrt:setmode.obj
 0001:00061476       __setmode_nolock           10062476 f   libucrt:setmode.obj
 0001:00061707       __chsize                   10062707 f   libucrt:chsize.obj
 0001:0006172a       __chsize_nolock            1006272a f   libucrt:chsize.obj
 0001:0006191f       __chsize_s                 1006291f f   libucrt:chsize.obj
 0001:000619f7       __umask                    100629f7 f   libucrt:umask.obj
 0001:00061a25       __umask_s                  10062a25 f   libucrt:umask.obj
 0001:00061b48       ___dcrt_lowio_ensure_console_output_initialized 10062b48 f   libucrt:initcon.obj
 0001:00061b6e       ___dcrt_terminate_console_output 10062b6e f   libucrt:initcon.obj
 0001:00061b8a       ___dcrt_write_console      10062b8a f   libucrt:initcon.obj
 0001:00061d0d       ___acrt_GetLocaleInfoA     10062d0d f   libucrt:getlocaleinfoa.obj
 0001:00061f2b       ___strncnt                 10062f2b f   libucrt:strncnt.obj
 0001:00061f4e       ?__mbrtoc32_utf8@__crt_mbstring@@YAIPA_UPBDIPAU_Mbstatet@@@Z 10062f4e f   libucrt:mbrtoc32.obj
 0001:0006216f       ?reset_and_return@__crt_mbstring@@YAIIPAU_Mbstatet@@@Z 1006316f f i libucrt:mbrtoc32.obj
 0001:00062188       ?return_illegal_sequence@__crt_mbstring@@YAIPAU_Mbstatet@@@Z 10063188 f i libucrt:mbrtoc32.obj
 0001:000621ae       _mbrtoc32                  100631ae f   libucrt:mbrtoc32.obj
 0001:000621bb       _fegetenv                  100631bb f   libucrt:fegetenv.obj
 0001:000621df       _fesetenv                  100631df f   libucrt:fesetenv.obj
 0001:0006223f       _feholdexcept              1006323f f   libucrt:feholdexcept.obj
 0001:000622b0       __CIlog10                  100632b0 f   libucrt:log10_impl.obj
 0001:000622eb       __CIlog10_default          100632eb f   libucrt:log10_impl.obj
 0001:000622ff       __log10_default            100632ff     libucrt:log10_impl.obj
 0001:00062410       _ceil                      10063410 f   libucrt:ceil_pentium4.obj
 0001:00062450       __ceil_pentium4            10063450 f   libucrt:ceil_pentium4.obj
 0001:00062574       _nexttoward                10063574 f   libucrt:nexttoward.obj
 0001:00062abc       __wcstombs_l               10063abc f   libucrt:wcstombs.obj
 0001:00062ac9       __wcstombs_s_l             10063ac9 f   libucrt:wcstombs.obj
 0001:00062bc9       _wcstombs                  10063bc9 f   libucrt:wcstombs.obj
 0001:00062be9       _wcstombs_s                10063be9 f   libucrt:wcstombs.obj
 0001:00062c11       ___acrt_CompareStringW     10063c11 f   libucrt:comparestringw.obj
 0001:00062fa8       ___acrt_CompareStringA     10063fa8 f   libucrt:comparestringa.obj
 0001:00063002       ___acrt_LCMapStringW       10064002 f   libucrt:lcmapstringw.obj
 0001:0006304f       ___p__fmode                1006404f f   libucrt:txtmode.obj
 0001:00063055       ??$__acrt_fenv_shift_bits@W4__acrt_fenv_abstract_control@@@@YA?AW4__acrt_fenv_abstract_control@@W40@0I@Z 10064055 f i libucrt:_fenvutils.obj
 0001:0006306b       ??$__acrt_fenv_shift_bits@W4__acrt_fenv_abstract_status@@@@YA?AW4__acrt_fenv_abstract_status@@W40@0I@Z 1006406b f i libucrt:_fenvutils.obj
 0001:00063081       ??$__acrt_fenv_translate_bit@W4__acrt_fenv_abstract_control@@W4__acrt_fenv_machine_sse_control@@@@YA?AW4__acrt_fenv_abstract_control@@W4__acrt_fenv_machine_sse_control@@0W40@1@Z 10064081 f i libucrt:_fenvutils.obj
 0001:0006309f       ??$__acrt_fenv_translate_bit@W4__acrt_fenv_abstract_control@@W4__acrt_fenv_machine_x87_control@@@@YA?AW4__acrt_fenv_abstract_control@@W4__acrt_fenv_machine_x87_control@@0W40@1@Z 1006409f f i libucrt:_fenvutils.obj
 0001:000630bd       ??$__acrt_fenv_translate_bit@W4__acrt_fenv_abstract_status@@W4__acrt_fenv_machine_sse_status@@@@YA?AW4__acrt_fenv_abstract_status@@W4__acrt_fenv_machine_sse_status@@0W40@1@Z 100640bd f i libucrt:_fenvutils.obj
 0001:000630d7       ??$__acrt_fenv_translate_bit@W4__acrt_fenv_abstract_status@@W4__acrt_fenv_machine_x87_status@@@@YA?AW4__acrt_fenv_abstract_status@@W4__acrt_fenv_machine_x87_status@@0W40@1@Z 100640d7 f i libucrt:_fenvutils.obj
 0001:000630f1       ??$__acrt_fenv_translate_bit@W4__acrt_fenv_machine_sse_control@@W4__acrt_fenv_abstract_control@@@@YA?AW4__acrt_fenv_machine_sse_control@@W4__acrt_fenv_abstract_control@@0W40@1@Z 100640f1 f i libucrt:_fenvutils.obj
 0001:0006310d       ??$__acrt_fenv_translate_bit@W4__acrt_fenv_machine_sse_status@@W4__acrt_fenv_abstract_status@@@@YA?AW4__acrt_fenv_machine_sse_status@@W4__acrt_fenv_abstract_status@@0W40@1@Z 1006410d f i libucrt:_fenvutils.obj
 0001:00063127       ??$__acrt_fenv_translate_bit@W4__acrt_fenv_machine_x87_control@@W4__acrt_fenv_abstract_control@@@@YA?AW4__acrt_fenv_machine_x87_control@@W4__acrt_fenv_abstract_control@@0W40@1@Z 10064127 f i libucrt:_fenvutils.obj
 0001:00063143       ??$__acrt_fenv_translate_bit@W4__acrt_fenv_machine_x87_status@@W4__acrt_fenv_abstract_status@@@@YA?AW4__acrt_fenv_machine_x87_status@@W4__acrt_fenv_abstract_status@@0W40@1@Z 10064143 f i libucrt:_fenvutils.obj
 0001:0006315d       ??$__acrt_fenv_unshift_bits@W4__acrt_fenv_abstract_control@@@@YA?AW4__acrt_fenv_abstract_control@@W40@0I@Z 1006415d f i libucrt:_fenvutils.obj
 0001:00063173       ??$__acrt_fenv_unshift_bits@W4__acrt_fenv_abstract_status@@@@YA?AW4__acrt_fenv_abstract_status@@W40@0I@Z 10064173 f i libucrt:_fenvutils.obj
 0001:0006379e       ??I@YA?AW4__acrt_fenv_abstract_control@@W40@0@Z 1006479e f i libucrt:_fenvutils.obj
 0001:000637ae       ??I@YA?AW4__acrt_fenv_abstract_status@@W40@0@Z 100647ae f i libucrt:_fenvutils.obj
 0001:000637be       ??I@YA?AW4__acrt_fenv_machine_sse_control@@W40@0@Z 100647be f i libucrt:_fenvutils.obj
 0001:000637ce       ??I@YA?AW4__acrt_fenv_machine_sse_status@@W40@0@Z 100647ce f i libucrt:_fenvutils.obj
 0001:000637de       ??I@YA?AW4__acrt_fenv_machine_x87_control@@W40@0@Z 100647de f i libucrt:_fenvutils.obj
 0001:000637ee       ??I@YA?AW4__acrt_fenv_machine_x87_status@@W40@0@Z 100647ee f i libucrt:_fenvutils.obj
 0001:000637fe       ??U@YA?AW4__acrt_fenv_abstract_control@@W40@0@Z 100647fe f i libucrt:_fenvutils.obj
 0001:0006380e       ??U@YA?AW4__acrt_fenv_abstract_status@@W40@0@Z 1006480e f i libucrt:_fenvutils.obj
 0001:0006381e       ??U@YA?AW4__acrt_fenv_machine_sse_control@@W40@0@Z 1006481e f i libucrt:_fenvutils.obj
 0001:0006382e       ??U@YA?AW4__acrt_fenv_machine_x87_control@@W40@0@Z 1006482e f i libucrt:_fenvutils.obj
 0001:0006383e       ??_5@YAAAW4__acrt_fenv_abstract_control@@AAW40@W40@@Z 1006483e f i libucrt:_fenvutils.obj
 0001:00063850       ??_5@YAAAW4__acrt_fenv_abstract_status@@AAW40@W40@@Z 10064850 f i libucrt:_fenvutils.obj
 0001:00063862       ??_5@YAAAW4__acrt_fenv_machine_sse_control@@AAW40@W40@@Z 10064862 f i libucrt:_fenvutils.obj
 0001:00063877       ??_5@YAAAW4__acrt_fenv_machine_sse_status@@AAW40@W40@@Z 10064877 f i libucrt:_fenvutils.obj
 0001:00063889       ??_5@YAAAW4__acrt_fenv_machine_x87_control@@AAW40@W40@@Z 10064889 f i libucrt:_fenvutils.obj
 0001:0006389e       ??_5@YAAAW4__acrt_fenv_machine_x87_status@@AAW40@W40@@Z 1006489e f i libucrt:_fenvutils.obj
 0001:000638b0       ?__acrt_fenv_shift_abstract_sse_control@@YA?AW4__acrt_fenv_abstract_control@@W41@@Z 100648b0 f i libucrt:_fenvutils.obj
 0001:000638d4       ?__acrt_fenv_shift_abstract_sse_status@@YA?AW4__acrt_fenv_abstract_status@@W41@@Z 100648d4 f i libucrt:_fenvutils.obj
 0001:000638e8       ?__acrt_fenv_shift_abstract_x87_control@@YA?AW4__acrt_fenv_abstract_control@@W41@@Z 100648e8 f i libucrt:_fenvutils.obj
 0001:0006390c       ?__acrt_fenv_shift_abstract_x87_status@@YA?AW4__acrt_fenv_abstract_status@@W41@@Z 1006490c f i libucrt:_fenvutils.obj
 0001:00063920       ?__acrt_fenv_unshift_abstract_sse_control@@YA?AW4__acrt_fenv_abstract_control@@W41@@Z 10064920 f i libucrt:_fenvutils.obj
 0001:00063946       ?__acrt_fenv_unshift_abstract_sse_status@@YA?AW4__acrt_fenv_abstract_status@@W41@@Z 10064946 f i libucrt:_fenvutils.obj
 0001:0006395a       ?__acrt_fenv_unshift_abstract_x87_control@@YA?AW4__acrt_fenv_abstract_control@@W41@@Z 1006495a f i libucrt:_fenvutils.obj
 0001:00063980       ?__acrt_fenv_unshift_abstract_x87_status@@YA?AW4__acrt_fenv_abstract_status@@W41@@Z 10064980 f i libucrt:_fenvutils.obj
 0001:00064037       ___acrt_fenv_expand_round_control 10065037 f   libucrt:_fenvutils.obj
 0001:0006407a       ___acrt_fenv_get_common_round_control 1006507a f   libucrt:_fenvutils.obj
 0001:000640a4       ___acrt_fenv_get_control   100650a4 f   libucrt:_fenvutils.obj
 0001:00064146       ___acrt_fenv_get_fp_status_word_from_exception_mask 10065146 f   libucrt:_fenvutils.obj
 0001:00064166       ___acrt_fenv_get_status    10065166 f   libucrt:_fenvutils.obj
 0001:00064258       ___acrt_fenv_set_control   10065258 f   libucrt:_fenvutils.obj
 0001:000642dc       ___acrt_fenv_set_status    100652dc f   libucrt:_fenvutils.obj
 0001:000645a8       ___control87_2             100655a8 f   libucrt:ieee87.obj
 0001:00064b74       ___fpreset_sse2            10065b74 f   libucrt:ieee87.obj
 0001:00064dbd       __clearfp                  10065dbd f   libucrt:ieee87.obj
 0001:00064ed5       __control87                10065ed5 f   libucrt:ieee87.obj
 0001:00065293       __controlfp                10066293 f   libucrt:ieee87.obj
 0001:000652b3       __fpreset                  100662b3 f   libucrt:ieee87.obj
 0001:000653b6       __set_controlfp            100663b6 f   libucrt:ieee87.obj
 0001:0006544c       __statusfp                 1006644c f   libucrt:ieee87.obj
 0001:00065510       __statusfp2                10066510 f   libucrt:ieee87.obj
 0001:0006558e       ___acrt_initialize_sse2    1006658e f   libucrt:mathfcns.obj
 0001:000655a2       __set_SSE2_enable          100665a2 f   libucrt:mathfcns.obj
 0001:000655d0       __CIlog10_pentium4         100665d0 f   libucrt:log10_pentium4.obj
 0001:000655e8       __log10_pentium4           100665e8     libucrt:log10_pentium4.obj
 0001:00065930       __fFEXP                    10066930 f   libucrt:87tran.obj
 0001:00065987       __rtinfpopse               10066987     libucrt:87tran.obj
 0001:00065989       __rtinfnpopse              10066989     libucrt:87tran.obj
 0001:00065999       __fFLN                     10066999     libucrt:87tran.obj
 0001:00065a4e       __rtinfpop                 10066a4e     libucrt:87tran.obj
 0001:00065a50       __rtinfnpop                10066a50     libucrt:87tran.obj
 0001:00065a60       __rtforexpinf              10066a60 f   libucrt:87tran.obj
 0001:00065a6d       __ffexpm1                  10066a6d     libucrt:87tran.obj
 0001:00065ba0       __trandisp1                10066ba0 f   libucrt:87disp.obj
 0001:00065c15       __trandisp2                10066c15 f   libucrt:87disp.obj
 0001:00065caf       __rttospopde               10066caf     libucrt:87disp.obj
 0001:00065cb4       __rttospop                 10066cb4     libucrt:87disp.obj
 0001:00065cc0       __rtnospop                 10066cc0 f   libucrt:87disp.obj
 0001:00065cd0       __rttosnpop                10066cd0 f   libucrt:87disp.obj
 0001:00065cd1       __rtnospopde               10066cd1     libucrt:87disp.obj
 0001:00065cd8       __rtzeropop                10066cd8     libucrt:87disp.obj
 0001:00065cda       __rtzeronpop               10066cda     libucrt:87disp.obj
 0001:00065ce0       __rtzerospop               10066ce0 f   libucrt:87disp.obj
 0001:00065ced       __rtonepop                 10066ced     libucrt:87disp.obj
 0001:00065cf0       __rtonenpop                10066cf0 f   libucrt:87disp.obj
 0001:00065d00       __tosnan1                  10066d00 f   libucrt:87disp.obj
 0001:00065d30       __nosnan2                  10066d30 f   libucrt:87disp.obj
 0001:00065d40       __tosnan2                  10066d40 f   libucrt:87disp.obj
 0001:00065d70       __nan2                     10066d70 f   libucrt:87disp.obj
 0001:00065db0       __rtindfpop                10066db0 f   libucrt:87disp.obj
 0001:00065db2       __rtindfnpop               10066db2     libucrt:87disp.obj
 0001:00065dc3       __rttosnpopde              10066dc3     libucrt:87disp.obj
 0001:00065dd0       __rtatan2inf               10066dd0 f   libucrt:87disp.obj
 0001:00065ded       __rtchsifneg               10066ded     libucrt:87disp.obj
 0001:00065e89       ___setfflag                10066e89 f   libucrt:fp_flags.obj
 0001:00065eb0       __twoToTOS                 10066eb0 f   libucrt:common.obj
 0001:00065ec5       __load_CW                  10066ec5 f   libucrt:common.obj
 0001:00065edc       __convertTOStoQNaN         10066edc f   libucrt:common.obj
 0001:00065ef5       __fload_withFB             10066ef5 f   libucrt:common.obj
 0001:00065f38       __checkTOS_withFB          10066f38 f   libucrt:common.obj
 0001:00065f4e       __fast_exit                10066f4e f   libucrt:common.obj
 0001:00065f5b       __math_exit                10066f5b f   libucrt:common.obj
 0001:00065f85       __check_overflow_exit      10066f85 f   libucrt:common.obj
 0001:00065f99       __check_range_exit         10066f99 f   libucrt:common.obj
 0001:000660a0       __startTwoArgErrorHandling 100670a0 f   libucrt:genexcep.obj
 0001:000660b7       __startOneArgErrorHandling 100670b7 f   libucrt:genexcep.obj
 0001:00066107       ___libm_error_support      10067107 f   libucrt:libm_error.obj
 0001:000663a5       ___libm_setusermatherr     100673a5 f   libucrt:libm_error.obj
 0001:000663d5       __ceil_default             100673d5 f   libucrt:ceil.obj
 0001:00066552       __d_int                    10067552 f   libucrt:_test.obj
 0001:0006669c       __dtest                    1006769c f   libucrt:_test.obj
 0001:00066719       __fd_int                   10067719 f   libucrt:_test.obj
 0001:0006681b       __fdtest                   1006781b f   libucrt:_test.obj
 0001:0006687c       __fperrraise               1006787c f   libucrt:_test.obj
 0001:000668a7       __ld_int                   100678a7 f   libucrt:_test.obj
 0001:000668b4       __ldtest                   100678b4 f   libucrt:_test.obj
 0001:000668c1       ?__wcsrtombs_utf8@__crt_mbstring@@YAIPADPAPB_WIPAU_Mbstatet@@@Z 100678c1 f   libucrt:wcrtomb.obj
 0001:00066d6b       _wcrtomb                   10067d6b f   libucrt:wcrtomb.obj
 0001:00066da8       _wcrtomb_s                 10067da8 f   libucrt:wcrtomb.obj
 0001:00066e3f       _wcsrtombs                 10067e3f f   libucrt:wcrtomb.obj
 0001:00066e4c       _wcsrtombs_s               10067e4c f   libucrt:wcrtomb.obj
 0001:00066f0b       _wctob                     10067f0b f   libucrt:wcrtomb.obj
 0001:00066f7f       __controlfp_s              10067f7f f   libucrt:contrlfp.obj
 0001:00066ff5       __d_inttype                10067ff5 f   libucrt:powhlp.obj
 0001:00067079       __powhlp                   10068079 f   libucrt:powhlp.obj
 0001:000671ee       __87except                 100681ee f   libucrt:87except.obj
 0001:0006733a       __frnd                     1006833a f   libucrt:frnd.obj
 0001:00067355       ??_4@YAAAW4__acrt_fenv_abstract_status@@AAW40@W40@@Z 10068355 f i libucrt:fegetexceptflag.obj
 0001:00067367       _fegetexceptflag           10068367 f   libucrt:fegetexceptflag.obj
 0001:000673a4       ??S@YA?AW4__acrt_fenv_abstract_status@@W40@@Z 100683a4 f i libucrt:fesetexceptflag.obj
 0001:000673b3       _fesetexceptflag           100683b3 f   libucrt:fesetexceptflag.obj
 0001:00067422       ?__c16rtomb_utf8@__crt_mbstring@@YAIPAD_SPAU_Mbstatet@@@Z 10068422 f   libucrt:c16rtomb.obj
 0001:0006757a       _c16rtomb                  1006857a f   libucrt:c16rtomb.obj
 0001:00067587       _fetestexcept              10068587 f   libucrt:fetestexcept.obj
 0001:000675b1       ?__c32rtomb_utf8@__crt_mbstring@@YAIPAD_UPAU_Mbstatet@@@Z 100685b1 f   libucrt:c32rtomb.obj
 0001:0006768b       _c32rtomb                  1006868b f   libucrt:c32rtomb.obj
 0001:000676a0       __FindPESection            100686a0 f   LIBCMT:pesect.obj
 0001:00067700       __IsNonwritableInCurrentImage 10068700 f   LIBCMT:pesect.obj
 0001:000677f0       __ValidateImageBase        100687f0 f   LIBCMT:pesect.obj
 0001:0006782f       __EH_epilog3               1006882f f   LIBCMT:ehprolg3.obj
 0001:00067849       __EH_epilog3_GS            10068849 f   LIBCMT:ehprolg3.obj
 0001:0006785e       __EH_epilog3_catch_GS      1006885e f   LIBCMT:ehprolg3.obj
 0001:00067873       __EH_prolog3               10068873 f   LIBCMT:ehprolg3.obj
 0001:000678b4       __EH_prolog3_GS            100688b4 f   LIBCMT:ehprolg3.obj
 0001:000678f8       __EH_prolog3_catch         100688f8 f   LIBCMT:ehprolg3.obj
 0001:0006793c       __EH_prolog3_catch_GS      1006893c f   LIBCMT:ehprolg3.obj
 0001:00067990       __aulldvrm                 10068990 f   LIBCMT:ulldvrm.obj
 0001:00067a4a       ??1type_info@@UAE@XZ       10068a4a f   LIBCMT:std_type_info_static.obj
 0001:00067a51       ??_Gtype_info@@UAEPAXI@Z   10068a51 f i LIBCMT:std_type_info_static.obj
 0001:00067a51       ??_Etype_info@@UAEPAXI@Z   10068a51 f i LIBCMT:std_type_info_static.obj
 0001:00067a7c       ??3@YAXPAXI@Z              10068a7c f   LIBCMT:delete_scalar_size.obj
 0001:00067a90       __SEH_prolog4_GS           10068a90 f   LIBCMT:sehprolg4gs.obj
 0001:00067ad9       __SEH_epilog4_GS           10068ad9 f   LIBCMT:sehprolg4gs.obj
 0001:00067b00       __allmul                   10068b00 f   LIBCMT:llmul.obj
 0001:00067b50       __chkstk                   10068b50 f   LIBCMT:chkstk.obj
 0001:00067b50       __alloca_probe             10068b50 f   LIBCMT:chkstk.obj
 0001:00067b90       __alldvrm                  10068b90 f   LIBCMT:lldvrm.obj
 0001:00067cb0       __aullshr                  10068cb0 f   LIBCMT:ullshr.obj
 0001:00067ce0       __alloca_probe_16          10068ce0 f   LIBCMT:alloca16.obj
 0001:00067cf6       __alloca_probe_8           10068cf6     LIBCMT:alloca16.obj
 0001:00067d20       __allshl                   10068d20 f   LIBCMT:llshl.obj
 0001:00067d50       __ftol2_sse                10068d50 f   LIBCMT:ftol2.obj
 0001:00067d59       __ftol2_pentium4           10068d59 f   LIBCMT:ftol2.obj
 0001:00067d6c       __ftol2_sse_excpt          10068d6c f   LIBCMT:ftol2.obj
 0001:00067d90       __ftol2                    10068d90 f   LIBCMT:ftol2.obj
 0001:00067e32       __initialize_default_precision 10068e32 f   LIBCMT:default_precision.obj
 0001:00067e5b       ??3@YAXPAX@Z               10068e5b f   LIBCMT:delete_scalar.obj
 0001:00067e60       _InterlockedPushEntrySList@8 10068e60 f   kernel32:KERNEL32.dll
 0001:00067e66       _InterlockedFlushSList@4   10068e66 f   kernel32:KERNEL32.dll
 0001:00067e6c       _RtlUnwind@16              10068e6c f   kernel32:KERNEL32.dll
 0001:00067e72       _GetLastError@0            10068e72 f   kernel32:KERNEL32.dll
 0001:00067e78       _SetLastError@4            10068e78 f   kernel32:KERNEL32.dll
 0001:00067e7e       _EnterCriticalSection@4    10068e7e f   kernel32:KERNEL32.dll
 0001:00067e84       _LeaveCriticalSection@4    10068e84 f   kernel32:KERNEL32.dll
 0001:00067e8a       _DeleteCriticalSection@4   10068e8a f   kernel32:KERNEL32.dll
 0001:00067e90       _InitializeCriticalSectionAndSpinCount@8 10068e90 f   kernel32:KERNEL32.dll
 0001:00067e96       _TlsAlloc@0                10068e96 f   kernel32:KERNEL32.dll
 0001:00067e9c       _TlsGetValue@4             10068e9c f   kernel32:KERNEL32.dll
 0001:00067ea2       _TlsSetValue@8             10068ea2 f   kernel32:KERNEL32.dll
 0001:00067ea8       _TlsFree@4                 10068ea8 f   kernel32:KERNEL32.dll
 0001:00067eae       _FreeLibrary@4             10068eae f   kernel32:KERNEL32.dll
 0001:00067eb4       _LoadLibraryExW@12         10068eb4 f   kernel32:KERNEL32.dll
 0001:00067eba       _EncodePointer@4           10068eba f   kernel32:KERNEL32.dll
 0001:00067ec0       _RaiseException@16         10068ec0 f   kernel32:KERNEL32.dll
 0001:00067ec6       _GetStdHandle@4            10068ec6 f   kernel32:KERNEL32.dll
 0001:00067ecc       _GetFileType@4             10068ecc f   kernel32:KERNEL32.dll
 0001:00067ed2       _GetModuleFileNameW@12     10068ed2 f   kernel32:KERNEL32.dll
 0001:00067ed8       _GetModuleHandleExW@12     10068ed8 f   kernel32:KERNEL32.dll
 0001:00067ede       _WriteConsoleW@20          10068ede f   kernel32:KERNEL32.dll
 0001:00067ee4       _ExitProcess@4             10068ee4 f   kernel32:KERNEL32.dll
 0001:00067eea       _HeapAlloc@12              10068eea f   kernel32:KERNEL32.dll
 0001:00067ef0       _HeapFree@12               10068ef0 f   kernel32:KERNEL32.dll
 0001:00067ef6       _WriteFile@20              10068ef6 f   kernel32:KERNEL32.dll
 0001:00067efc       _OutputDebugStringW@4      10068efc f   kernel32:KERNEL32.dll
 0001:00067f02       _SetConsoleCtrlHandler@8   10068f02 f   kernel32:KERNEL32.dll
 0001:00067f08       _HeapReAlloc@16            10068f08 f   kernel32:KERNEL32.dll
 0001:00067f0e       _GetDateFormatW@24         10068f0e f   kernel32:KERNEL32.dll
 0001:00067f14       _GetTimeFormatW@24         10068f14 f   kernel32:KERNEL32.dll
 0001:00067f1a       _CompareStringW@24         10068f1a f   kernel32:KERNEL32.dll
 0001:00067f20       _LCMapStringW@24           10068f20 f   kernel32:KERNEL32.dll
 0001:00067f26       _GetLocaleInfoW@16         10068f26 f   kernel32:KERNEL32.dll
 0001:00067f2c       _IsValidLocale@8           10068f2c f   kernel32:KERNEL32.dll
 0001:00067f32       _GetUserDefaultLCID@0      10068f32 f   kernel32:KERNEL32.dll
 0001:00067f38       _EnumSystemLocalesW@8      10068f38 f   kernel32:KERNEL32.dll
 0001:00067f3e       _CloseHandle@4             10068f3e f   kernel32:KERNEL32.dll
 0001:00067f44       _ReadFile@20               10068f44 f   kernel32:KERNEL32.dll
 0001:00067f4a       _GetConsoleMode@8          10068f4a f   kernel32:KERNEL32.dll
 0001:00067f50       _ReadConsoleW@20           10068f50 f   kernel32:KERNEL32.dll
 0001:00067f56       _GetConsoleCP@0            10068f56 f   kernel32:KERNEL32.dll
 0001:00067f5c       _MultiByteToWideChar@24    10068f5c f   kernel32:KERNEL32.dll
 0001:00067f62       _GetCurrentThread@0        10068f62 f   kernel32:KERNEL32.dll
 0001:00067f68       _DeleteFileW@4             10068f68 f   kernel32:KERNEL32.dll
 0001:00067f6e       _SetFilePointerEx@20       10068f6e f   kernel32:KERNEL32.dll
 0001:00067f74       _FindClose@4               10068f74 f   kernel32:KERNEL32.dll
 0001:00067f7a       _FindFirstFileExW@24       10068f7a f   kernel32:KERNEL32.dll
 0001:00067f80       _FindNextFileW@8           10068f80 f   kernel32:KERNEL32.dll
 0001:00067f86       _IsValidCodePage@4         10068f86 f   kernel32:KERNEL32.dll
 0001:00067f8c       _GetACP@0                  10068f8c f   kernel32:KERNEL32.dll
 0001:00067f92       _GetOEMCP@0                10068f92 f   kernel32:KERNEL32.dll
 0001:00067f98       _GetCPInfo@8               10068f98 f   kernel32:KERNEL32.dll
 0001:00067f9e       _GetCommandLineA@0         10068f9e f   kernel32:KERNEL32.dll
 0001:00067fa4       _GetCommandLineW@0         10068fa4 f   kernel32:KERNEL32.dll
 0001:00067faa       _WideCharToMultiByte@32    10068faa f   kernel32:KERNEL32.dll
 0001:00067fb0       _GetEnvironmentStringsW@0  10068fb0 f   kernel32:KERNEL32.dll
 0001:00067fb6       _FreeEnvironmentStringsW@4 10068fb6 f   kernel32:KERNEL32.dll
 0001:00067fbc       _SetEnvironmentVariableW@8 10068fbc f   kernel32:KERNEL32.dll
 0001:00067fc2       _GetProcessHeap@0          10068fc2 f   kernel32:KERNEL32.dll
 0001:00067fc8       _FlushFileBuffers@4        10068fc8 f   kernel32:KERNEL32.dll
 0001:00067fce       _SetStdHandle@8            10068fce f   kernel32:KERNEL32.dll
 0001:00067fd4       _CreateFileW@28            10068fd4 f   kernel32:KERNEL32.dll
 0001:00067fda       _GetStringTypeW@16         10068fda f   kernel32:KERNEL32.dll
 0001:00067fe0       _HeapSize@12               10068fe0 f   kernel32:KERNEL32.dll
 0001:00067fe6       _SetEndOfFile@4            10068fe6 f   kernel32:KERNEL32.dll
 0001:00067fec       _DecodePointer@4           10068fec f   kernel32:KERNEL32.dll
 0001:00068123       _memcmp                    10069123 f   libvcruntime:memcmp.obj
 0001:0006a610       _strrchr                   1006b610 f   libvcruntime:strrchr.obj
 0001:0006a794       _wcschr                    1006b794 f   libvcruntime:wcschr.obj
 0002:00000000       ___xc_a                    10070000     LIBCMT:initializers.obj
 0002:00000104       ___xc_z                    10070104     LIBCMT:initializers.obj
 0002:00000208       ___xi_a                    10070208     LIBCMT:initializers.obj
 0002:0000030c       ___acrt_stdio_initializer  1007030c     libucrt:stdio_initializer.obj
 0002:00000310       ___acrt_multibyte_initializer 10070310     libucrt:multibyte_initializer.obj
 0002:00000314       ___acrt_tran_sse2_initializer 10070314     libucrt:sse2_initializer.obj
 0002:0000041c       ___xi_z                    1007041c     LIBCMT:initializers.obj
 0002:00000520       ___xp_a                    10070520     LIBCMT:initializers.obj
 0002:00000624       ___acrt_locale_terminator  10070624     libucrt:locale_initializer.obj
 0002:00000628       ___dcrt_console_output_terminator 10070628     libucrt:console_output_initializer.obj
 0002:00000730       ___acrt_stdio_terminator   10070730     libucrt:stdio_initializer.obj
 0002:00000834       ___xp_z                    10070834     LIBCMT:initializers.obj
 0002:00000938       ___xt_a                    10070938     LIBCMT:initializers.obj
 0002:00000a3c       ___xt_z                    10070a3c     LIBCMT:initializers.obj
 0002:00000b40       _homing_M                  10070b40     homing.obj
 0002:00000b44       ??_C@_0BC@OJJPBDHH@FixedStepDiscrete@ 10070b44     homing.obj
 0002:00000b5c       ??_C@_04EPKDLPPB@tout@     10070b5c     homing.obj
 0002:00000b62       ??_C@_00CNPNBAHC@@         10070b62     homing.obj
 0002:00000b64       ??_C@_03HBFGMJOD@rt_@      10070b64     homing.obj
 0002:00000b68       ??_C@_0M@IJCNLJFC@PCI?96229?5DI@ 10070b68     homing.obj
 0002:00000b78       ??_C@_0BD@MFLMMCJ@homing?1PCI?96229?5DI@ 10070b78     homing.obj
 0002:00000b90       ??_C@_0P@KEKPFIMK@PCI?56229?5ENC?52@ 10070b90     homing.obj
 0002:00000ba4       ??_C@_0BG@BHCFIGEE@homing?1PCI?56229?5ENC?52@ 10070ba4     homing.obj
 0002:00000bc0       ??_C@_0P@LNLEGJIL@PCI?56229?5ENC?53@ 10070bc0     homing.obj
 0002:00000bd4       ??_C@_0BG@ODOLHAF@homing?1PCI?56229?5ENC?53@ 10070bd4     homing.obj
 0002:00000bf0       ??_C@_0N@DANFLPCO@PCI?96229?5DA4@ 10070bf0     homing.obj
 0002:00000c00       ??_C@_0BE@PHIHGBOP@homing?1PCI?96229?5DA4@ 10070c00     homing.obj
 0002:00000c18       ??_C@_0N@CJMOIOGP@PCI?96229?5DA5@ 10070c18     homing.obj
 0002:00000c28       ??_C@_0BE@OOJMFAKO@homing?1PCI?96229?5DA5@ 10070c28     homing.obj
 0002:00000c40       ??_C@_0N@EHDMGGGB@PCI?96229?5DO1@ 10070c40     homing.obj
 0002:00000c50       ??_C@_0BE@IAGOLIKA@homing?1PCI?96229?5DO1@ 10070c50     homing.obj
 0002:00000c68       ??_C@_0O@LGELPGOG@PCI?56229?5ENC?5@ 10070c68     homing.obj
 0002:00000c78       ??_C@_0BF@FKOPFGBO@homing?1PCI?56229?5ENC?5@ 10070c78     homing.obj
 0002:00000c94       ??_C@_0P@IPICALAJ@PCI?56229?5ENC?51@ 10070c94     homing.obj
 0002:00000ca8       ??_C@_0BG@DMAINFIH@homing?1PCI?56229?5ENC?51@ 10070ca8     homing.obj
 0002:00000cc8       __real@3f50624dd2f1a9fc    10070cc8     homing.obj
 0002:00000cd8       __real@3fe0000000000000    10070cd8     homing.obj
 0002:00000ce8       __real@41f0000000000000    10070ce8     homing.obj
 0002:00000cf8       __real@bff0000000000000    10070cf8     homing.obj
 0002:00000d10       __xmm@00000000000000003f50624dd2f1a9fc 10070d10     homing.obj
 0002:00000d30       __xmm@000000e2000000290000003c00000001 10070d30     homing.obj
 0002:00000d50       __xmm@3ff00000000000003ff0000000000000 10070d50     homing.obj
 0002:00000d70       __xmm@3ff3333333333333c000cccccccccccd 10070d70     homing.obj
 0002:00000d90       __xmm@41f00000000000000000000000000000 10070d90     homing.obj
 0002:00000db0       __xmm@7fffffffffffffff7fffffffffffffff 10070db0     homing.obj
 0002:00000dd0       __xmm@bff33333333333334000cccccccccccd 10070dd0     homing.obj
 0002:00000de8       __real@3cb0000000000000    10070de8     rt_matrx.obj
 0002:00000df8       __real@3ff0000000000000    10070df8     rt_matrx.obj
 0002:00001c34       ??_C@_08PAGDBCID@Chart?1p1@ 10071c34     homing_capi.obj
 0002:00001c40       ??_C@_08NLEOEBEA@Chart?1p2@ 10071c40     homing_capi.obj
 0002:00001c4c       ??_C@_08MCFFHAAB@Chart?1p3@ 10071c4c     homing_capi.obj
 0002:00001c58       ??_C@_08INBEOGMG@Chart?1p4@ 10071c58     homing_capi.obj
 0002:00001c64       ??_C@_08JEAPNHIH@Chart?1p5@ 10071c64     homing_capi.obj
 0002:00001c70       ??_C@_08LPCCIEEE@Chart?1p6@ 10071c70     homing_capi.obj
 0002:00001c7c       ??_C@_09IIHOELEE@Constant1@ 10071c7c     homing_capi.obj
 0002:00001c88       ??_C@_04OMOMKKFL@Gain@     10071c88     homing_capi.obj
 0002:00001c90       ??_C@_0BD@EPFMCPOH@posizione?5motore?5x@ 10071c90     homing_capi.obj
 0002:00001ca8       ??_C@_05DKAIGDGE@Gain1@    10071ca8     homing_capi.obj
 0002:00001cb0       ??_C@_0BF@HBPOPMFC@posizione?5carrello?5y@ 10071cb0     homing_capi.obj
 0002:00001ccc       ??_C@_05BBCFDAKH@Gain2@    10071ccc     homing_capi.obj
 0002:00001cd4       ??_C@_0BD@FGEHBOKG@posizione?5motore?5y@ 10071cd4     homing_capi.obj
 0002:00001cec       ??_C@_05IDOABOG@Gain3@     10071cec     homing_capi.obj
 0002:00001cf4       ??_C@_0BF@GIOFMNBD@posizione?5carrello?5x@ 10071cf4     homing_capi.obj
 0002:00001d10       ??_C@_05EHHPJHCB@Gain4@    10071d10     homing_capi.obj
 0002:00001d18       ??_C@_05GMFCMEOC@Gain7@    10071d18     homing_capi.obj
 0002:00001d20       ??_C@_05OLMKNICN@Gain8@    10071d20     homing_capi.obj
 0002:00001d28       ??_C@_05PCNBOJGM@Gain9@    10071d28     homing_capi.obj
 0002:00001d30       ??_C@_0BB@CMNBNJBK@pozione?5motore?5y@ 10071d30     homing_capi.obj
 0002:00001d44       ??_C@_0P@HFBNGDFJ@PCI?96229?5DI?1p1@ 10071d44     homing_capi.obj
 0002:00001d58       ??_C@_07OJGKPLCD@fc?5x?5sx@ 10071d58     homing_capi.obj
 0002:00001d64       ??_C@_0P@FODADAJK@PCI?96229?5DI?1p2@ 10071d64     homing_capi.obj
 0002:00001d78       ??_C@_07PAADEONG@fc?5x?5dx@ 10071d78     homing_capi.obj
 0002:00001d84       ??_C@_0P@EHCLABNL@PCI?96229?5DI?1p3@ 10071d84     homing_capi.obj
 0002:00001d98       ??_C@_09CNJIBEEI@fc?5y?5high@ 10071d98     homing_capi.obj
 0002:00001da4       ??_C@_0P@IGKJHBM@PCI?96229?5DI?1p4@ 10071da4     homing_capi.obj
 0002:00001db8       ??_C@_09IHHPKCGD@fc?5y?5down@ 10071db8     homing_capi.obj
 0002:00001dc4       ??_C@_04LHPAOBFF@Sum2@     10071dc4     homing_capi.obj
 0002:00001dcc       ??_C@_04KOOLNABE@Sum3@     10071dcc     homing_capi.obj
 0002:00001dd4       ??_C@_0N@BLFBKHKN@Dot?5Product3@ 10071dd4     homing_capi.obj
 0002:00001de4       ??_C@_0N@FEBADBGK@Dot?5Product4@ 10071de4     homing_capi.obj
 0002:00001df4       ??_C@_0N@ENALAACL@Dot?5Product5@ 10071df4     homing_capi.obj
 0002:00001e04       ??_C@_0N@GGCGFDOI@Dot?5Product6@ 10071e04     homing_capi.obj
 0002:00001e14       ??_C@_0BJ@CPBFEPCF@Discrete?5Derivative?1Diff@ 10071e14     homing_capi.obj
 0002:00001e34       ??_C@_0BK@BNNBMNBK@Discrete?5Derivative?1TSamp@ 10071e34     homing_capi.obj
 0002:00001e54       ??_C@_0BH@MAOHMDCI@Discrete?5Derivative?1UD@ 10071e54     homing_capi.obj
 0002:00001e70       ??_C@_06CFNEEADJ@U?$CIk?91?$CJ@ 10071e70     homing_capi.obj
 0002:00001e78       ??_C@_0BK@EMGMOOMA@Discrete?5Derivative1?1Diff@ 10071e78     homing_capi.obj
 0002:00001e98       ??_C@_0BL@MNNCKCEM@Discrete?5Derivative1?1TSamp@ 10071e98     homing_capi.obj
 0002:00001eb8       ??_C@_0BI@GHNGGFGE@Discrete?5Derivative1?1UD@ 10071eb8     homing_capi.obj
 0002:00001ed4       ??_C@_0BK@HNIEPEFN@Discrete?5Derivative2?1Diff@ 10071ed4     homing_capi.obj
 0002:00001ef4       ??_C@_0BL@EDFNKFKP@Discrete?5Derivative2?1TSamp@ 10071ef4     homing_capi.obj
 0002:00001f14       ??_C@_0BI@CAHGBPLE@Discrete?5Derivative2?1UD@ 10071f14     homing_capi.obj
 0002:00001f30       ??_C@_0BK@NLPDPPOJ@Discrete?5Derivative3?1Diff@ 10071f30     homing_capi.obj
 0002:00001f50       ??_C@_0BL@IPPHKFDB@Discrete?5Derivative3?1TSamp@ 10071f50     homing_capi.obj
 0002:00001f70       ??_C@_0BI@BNBGDGAE@Discrete?5Derivative3?1UD@ 10071f70     homing_capi.obj
 0002:00001f8c       ??_C@_0BE@OCAEDHHH@Discrete?5Derivative@ 10071f8c     homing_capi.obj
 0002:00001fa4       ??_C@_0BC@DNAKAAEE@ICPrevScaledInput@ 10071fa4     homing_capi.obj
 0002:00001fbc       ??_C@_0BF@INOOHBK@Discrete?5Derivative1@ 10071fbc     homing_capi.obj
 0002:00001fd8       ??_C@_0BF@CDPDLENJ@Discrete?5Derivative2@ 10071fd8     homing_capi.obj
 0002:00001ff4       ??_C@_0BF@DKOIIFJI@Discrete?5Derivative3@ 10071ff4     homing_capi.obj
 0002:00002010       ??_C@_05LPIJGKJ@Value@     10072010     homing_capi.obj
 0002:00002018       ??_C@_02KKFPAPOP@P1@       10072018     homing_capi.obj
 0002:0000201c       ??_C@_02IBHCFMCM@P2@       1007201c     homing_capi.obj
 0002:00002020       ??_C@_02JIGJGNGN@P3@       10072020     homing_capi.obj
 0002:00002024       ??_C@_02NHCIPLKK@P4@       10072024     homing_capi.obj
 0002:00002028       ??_C@_02MODDMKOL@P5@       10072028     homing_capi.obj
 0002:0000202c       ??_C@_02OFBOJJCI@P6@       1007202c     homing_capi.obj
 0002:00002030       ??_C@_02PMAFKIGJ@P7@       10072030     homing_capi.obj
 0002:00002034       ??_C@_02HLJNLEKG@P8@       10072034     homing_capi.obj
 0002:00002038       ??_C@_02GCIGIFOH@P9@       10072038     homing_capi.obj
 0002:0000203c       ??_C@_03OPFJJGBF@P10@      1007203c     homing_capi.obj
 0002:00002040       ??_C@_04GKLBNPCL@WtEt@     10072040     homing_capi.obj
 0002:00002048       ??_C@_06BNJCAIGJ@double@   10072048     homing_capi.obj
 0002:00002050       ??_C@_06CNMIJIPB@real_T@   10072050     homing_capi.obj
 0002:00002058       ??_C@_05KNFBNCOH@float@    10072058     homing_capi.obj
 0002:00002060       _serialfifoground          10072060     xpc_datatype_ground.obj
 0002:0000206c       _bcmsg1553ground           1007206c     xpc_datatype_ground.obj
 0002:0000207c       _bcstatground              1007207c     xpc_datatype_ground.obj
 0002:00002094       _bmmsg1553ground           10072094     xpc_datatype_ground.obj
 0002:000020d0       ??_C@_0BI@INNPNFJN@Memory?5Allocation?5Error@ 100720d0     rtw_modelmap_utils.obj
 0002:000020f0       ??_C@_1FG@HMJFKDEC@?$AAD?$AA?3?$AA?2?$AAM?$AAA?$AAT?$AAL?$AAA?$AAB?$AA?$HO?$AA1?$AA?2?$AAr?$AAt?$AAw@ 100720f0     rtw_modelmap_utils.obj
 0002:00002158       ??_C@_1CI@OEAJCJND@?$AAj?$AA?5?$AA?$DN?$AA?$DN?$AA?5?$AAe?$AAn?$AAc?$AAo?$AAd?$AAe?$AAd?$AAP?$AAa?$AAt@ 10072158     rtw_modelmap_utils.obj
 0002:00002188       ??_C@_1DC@NFAOIFKB@?$AAe?$AAn?$AAc?$AAo?$AAd?$AAe?$AAd?$AAP?$AAa?$AAt?$AAh?$AA?$FL?$AAj?$AA?9?$AA1@ 10072188     rtw_modelmap_utils.obj
 0002:000021c4       ??_C@_1DI@FLNJGPEE@?$AAs?$AAi?$AAg?$AAC?$AAo?$AAm?$AAp?$AAl?$AAe?$AAx?$AAi?$AAt?$AAy?$AA?$FL?$AA?$CK@ 100721c4     rtw_modelmap_utils.obj
 0002:00002208       ??_C@_1KI@OFELMGBG@?$AA?$CI?$AA?$CI?$AA?$CI?$AAd?$AAa?$AAt?$AAa?$AAT?$AAy?$AAp?$AAe?$AAM?$AAa?$AAp?$AA?$CJ@ 10072208     rtw_modelmap_utils.obj
 0002:000022d4       ??_C@_1DA@ILCMPHNE@?$AAf?$AAu?$AAl?$AAl?$AAP?$AAa?$AAt?$AAh?$AA?5?$AA?$CB?$AA?$DN?$AA?5?$AA?$CI?$AA?$CI?$AAv@ 100722d4     rtw_modelmap_utils.obj
 0002:00002310       ??_C@_1CI@OEPPFCCA@?$AAp?$AAa?$AAt?$AAh?$AA?5?$AA?$CB?$AA?$DN?$AA?5?$AA?$CI?$AA?$CI?$AAv?$AAo?$AAi?$AAd?$AA?5@ 10072310     rtw_modelmap_utils.obj
 0002:00002340       ??_C@_1FK@GLJIMFHB@?$AA?$CI?$AA?$CI?$AAm?$AAm?$AAi?$AA?$CJ?$AA?9?$AA?$DO?$AAI?$AAn?$AAs?$AAt?$AAa?$AAn?$AAc@ 10072340     rtw_modelmap_utils.obj
 0002:000023ac       ??_C@_1DG@HPCJGNCE@?$AAm?$AAm?$AAi?$AAP?$AAa?$AAt?$AAh?$AA?$FL?$AAp?$AAa?$AAt?$AAh?$AAL?$AAe?$AAn@ 100723ac     rtw_modelmap_utils.obj
 0002:000023ec       ??_C@_1DM@DBAOGGOO@?$AAm?$AAm?$AAi?$AAP?$AAa?$AAt?$AAh?$AA?$FL?$AAm?$AAm?$AAi?$AAP?$AAa?$AAt?$AAh@ 100723ec     rtw_modelmap_utils.obj
 0002:00002434       ??_C@_1DC@LHIAKAFE@?$AAb?$AAl?$AAo?$AAc?$AAk?$AAP?$AAa?$AAt?$AAh?$AA?5?$AA?$CB?$AA?$DN?$AA?5?$AA?$CI?$AA?$CI@ 10072434     rtw_modelmap_utils.obj
 0002:00002470       ??_C@_1GI@KIEJKPGC@?$AAf?$AAu?$AAl?$AAl?$AAS?$AAt?$AAa?$AAt?$AAe?$AAB?$AAl?$AAo?$AAc?$AAk?$AAP@ 10072470     rtw_modelmap_utils.obj
 0002:000024f0       ??_C@_1EE@DNPIBJHC@?$AA?$CI?$AA?$CI?$AAd?$AAi?$AAm?$AAM?$AAa?$AAp?$AA?$CJ?$AA?$FL?$AA?$CI?$AAm?$AAa?$AAp?$AAI@ 100724f0     rtw_modelmap_utils.obj
 0002:00002544       ??_C@_06JFOKFOED@CSTATE@   10072544     rtw_modelmap_utils.obj
 0002:0000254c       ??_C@_06FAENGAMN@DSTATE@   1007254c     rtw_modelmap_utils.obj
 0002:00002554       ??_C@_1BI@LEBJNOGG@?$AAc?$AAs?$AAv?$AAI?$AAd?$AAx?$AA?5?$AA?$DO?$AA?$DN?$AA?5?$AA0@ 10072554     rtw_modelmap_utils.obj
 0002:00002570       ??_C@_1BA@KDMGHCHP@?$AAT?$AAI?$AAD?$AA?$DN?$AA?$DN?$AA?9?$AA1@ 10072570     rtw_modelmap_utils.obj
 0002:00002584       ??_C@_1DM@DHGKBPCE@?$AAs?$AAi?$AAg?$AAP?$AAa?$AAt?$AAh?$AA?$FL?$AAs?$AAi?$AAg?$AAP?$AAa?$AAt?$AAh@ 10072584     rtw_modelmap_utils.obj
 0002:00002e30       ??_C@_0DJ@FHKINPLE@Unexpected?5itemKind?5?$DN?5DATA_ITEM@ 10072e30     rt_logging.obj
 0002:00002e74       ??_C@_0DA@IEHFPFCJ@Unexpected?5itemKind?$DN?$CFd?5in?5rt_Pr@ 10072e74     rt_logging.obj
 0002:00002eb0       ??_C@_0DA@IFLHJPBO@Unexpected?5itemKind?$DN?$CFd?5in?5rt_Pr@ 10072eb0     rt_logging.obj
 0002:00002eec       ??_C@_0DA@IAPIIJJL@Unexpected?5itemKind?$DN?$CFd?5in?5rt_Pr@ 10072eec     rt_logging.obj
 0002:00002f28       ??_C@_0BE@LCIGPJIG@MATLAB?55?40?5MAT?9file@ 10072f28     rt_logging.obj
 0002:00002f40       ??_C@_0FB@PCJEAJIB@?$CK?$CK?$CK?5Log?5variable?5?$CFs?5has?5wrapped@ 10072f40     rt_logging.obj
 0002:00002fa8       ??_C@_0MG@NKMLMOGF@?$CK?$CK?$CK?5To?5avoid?5wrapping?0?5explicit@ 10072fa8     rt_logging.obj
 0002:00003098       ??_C@_0N@IPAEOLLP@_rtw_tmw?4tmw@ 10073098     rt_logging.obj
 0002:000030a8       ??_C@_04HDOCAJNK@?$CFs?$CFs@ 100730a8     rt_logging.obj
 0002:000030b0       ??_C@_03ELIABIOC@w?$CLb@   100730b0     rt_logging.obj
 0002:000030b4       ??_C@_0BF@JPILDDFA@?$CK?$CK?$CK?5Error?5opening?5?$CFs@ 100730b4     rt_logging.obj
 0002:000030d0       ??_C@_0BK@EEMDELA@unable?5to?5open?5data?5file?6@ 100730d0     rt_logging.obj
 0002:000030f0       ??_C@_04CGFJFPFD@none@     100730f0     rt_logging.obj
 0002:000030f8       ??_C@_0EE@LCGFPNON@?$CK?$CK?$CK?5Error?5creating?5signals?5stru@ 100730f8     rt_logging.obj
 0002:0000314c       ??_C@_0CE@NHECEDMK@?$CK?$CK?$CK?5Error?5creating?5log?5variable@ 1007314c     rt_logging.obj
 0002:00003178       ??_C@_0DB@IOCGKAGH@?$CK?$CK?$CK?5Errors?5occurred?5when?5starti@ 10073178     rt_logging.obj
 0002:000031b4       ??_C@_0BO@BBLOGEBK@?$CK?$CK?$CK?5Memory?5allocation?5error?4?6@ 100731b4     rt_logging.obj
 0002:000031d8       ??_C@_0N@LGFBAGEL@?5?$CIreal?5part?$CJ@ 100731d8     rt_logging.obj
 0002:000031e8       ??_C@_0KH@CGNMHNFE@?5?5?5?5varName?5?5?5?5?5?5?5?5?5?5?$DN?5?$CFs?$CFs?6?5?5?5@ 100731e8     rt_logging.obj
 0002:000032b0       ??_C@_0LE@OALKKEFM@?5?5?5?5varName?5?5?5?5?5?5?5?5?5?5?$DN?5?$CFs?5?$CIcomp@ 100732b0     rt_logging.obj
 0002:00003388       ??_C@_0KF@JDDLEOKO@?5?5?5?5varName?5?5?5?5?5?5?5?5?5?5?$DN?5?$CFs?6?5?5?5?5n@ 10073388     rt_logging.obj
 0002:00003450       ??_C@_0DP@HPDMIOFM@?$CK?$CK?$CK?5Using?5a?5default?5buffer?5of?5s@ 10073450     rt_logging.obj
 0002:000034a0       ??_C@_0KE@JEFOLKNF@?6?$CK?$CK?$CK?5Memory?5required?5to?5log?5var@ 100734a0     rt_logging.obj
 0002:00003568       ??_C@_0JP@DKLMHCBI@?$CK?$CK?$CK?5Details?3?6?5?5?5?5?5?5?5varName?5?5?5?5@ 10073568     rt_logging.obj
 0002:00003628       ??_C@_0CM@CAMILBED@?$CK?$CK?$CK?5Error?5allocating?5memory?5for@ 10073628     rt_logging.obj
 0002:0000365c       ??_C@_0DF@BBCNMOPM@?$CK?$CK?$CK?5Error?5allocating?5memory?5for@ 1007365c     rt_logging.obj
 0002:000036a0       ??_C@_0JP@DBCLPCCI@?$CK?$CK?$CK?5Details?3?6?5?5?5?5?5?5?5varName?5?5?5?5@ 100736a0     rt_logging.obj
 0002:00003760       ??_C@_0FK@DPGAOBGA@?$CK?$CK?$CK?5Error?5allocating?5memory?5for@ 10073760     rt_logging.obj
 0002:000037cc       ??_C@_0BI@GGDNPHLJ@?$CK?$CK?$CK?5Error?5writing?5to?5?$CFs@ 100737cc     rt_logging.obj
 0002:000037e8       ??_C@_0CB@IBGJGELG@?$CK?$CK?$CK?5Error?5writing?5?$CFs?5due?5to?3?5?$CFs@ 100737e8     rt_logging.obj
 0002:00003810       ??_C@_0CN@FLMCHCPB@?$CK?$CK?$CK?5Error?5writing?5log?5variable?5@ 10073810     rt_logging.obj
 0002:00003848       ??_C@_0DH@GAJCNOJP@?$CK?$CK?$CK?5Error?5writing?5structure?5log@ 10073848     rt_logging.obj
 0002:0000388c       ??_C@_0BD@POEALECL@?$CK?$CK?5created?5?$CFs?5?$CK?$CK?6?6@ 1007388c     rt_logging.obj
 0002:000038a8       __real@4020000000000000    100738a8     rt_logging.obj
 0002:000038b8       __real@41dfffffffc00000    100738b8     rt_logging.obj
 0002:000038c8       __real@41efffffffe00000    100738c8     rt_logging.obj
 0002:000038d8       __real@4330000000000000    100738d8     rt_logging.obj
 0002:000038e8       __real@8000000000000000    100738e8     rt_logging.obj
 0002:000038f8       __real@bfbf9add3afd2773    100738f8     rt_logging.obj
 0002:00003908       __real@c000000000000000    10073908     rt_logging.obj
 0002:00003920       __xmm@20202020202020202020202020202020 10073920     rt_logging.obj
 0002:00003934       ??_C@_06GMBBIPLD@homing@   10073934     xpctarget.obj
 0002:0000393c       _ptsetfilename             1007393c     xpctarget.obj
 0002:00003940       _xmlfile                   10073940     xpctarget.obj
 0002:00003948       ??_C@_0L@CHBJKKFC@xpceSetVar@ 10073948     xpctarget.obj
 0002:00003958       ??_C@_03LADEHNAB@6?46@     10073958     xpctarget.obj
 0002:00003960       __real@3fb999999999999a    10073960     xpctarget.obj
 0002:00003970       __real@408f400000000000    10073970     xpctarget.obj
 0002:00003980       _homing_BIOMAP             10073980     appmappingData.obj
 0002:00003b78       _homing_LBLMAP             10073b78     appmappingData.obj
 0002:00003d70       _homing_SIDMAP             10073d70     appmappingData.obj
 0002:00003f68       _homing_SBIO               10073f68     appmappingData.obj
 0002:00004010       _homing_SLBL               10074010     appmappingData.obj
 0002:000040b8       _homing_PTIDSMAP           100740b8     appmappingData.obj
 0002:00004358       _homing_PTNAMESMAP         10074358     appmappingData.obj
 0002:000045f8       _homing_SPTMAP             100745f8     appmappingData.obj
 0002:00004748       _homing_dtmap              10074748     appmappingData.obj
 0002:00004758       _appInfo                   10074758     appmappingData.obj
 0002:00004a78       ??_C@_0ED@LKHIFFLC@Wrong?5number?5of?5input?5arguments@ 10074a78     danipcim.obj
 0002:00004ac8       ??_C@_0DB@HFHLNKLE@Channel?5?$CFd?5exceeds?5the?5max?5DA?5c@ 10074ac8     danipcim.obj
 0002:00004b04       ??_C@_0CL@GCJHHCMG@Output?5range?5?$CFd?5is?5not?5supporte@ 10074b04     danipcim.obj
 0002:00004b38       ??_C@_0CC@FIFFDAB@?$CFd?5input?5args?5expected?0?5?$CFd?5pass@ 10074b38     encnipcim.obj
 0002:00004b60       ??_C@_0BN@JIEFLHEB@?$CFs?3?5Too?5many?5M?5series?5boards@ 10074b60     encnipcim.obj
 0002:00004b84       ??_C@_0M@IMCLKBPP@NI?5PCI?96220@ 10074b84     xpcionim.obj
 0002:00004b94       ??_C@_0M@JFDAJALO@NI?5PCI?96221@ 10074b94     xpcionim.obj
 0002:00004ba4       ??_C@_0P@NGCDCNKM@NI?5PCI?96221?137@ 10074ba4     xpcionim.obj
 0002:00004bb8       ??_C@_0M@OIEHGEPL@NI?5PCI?96224@ 10074bb8     xpcionim.obj
 0002:00004bc8       ??_C@_0M@PBFMFFLK@NI?5PCI?96225@ 10074bc8     xpcionim.obj
 0002:00004bd8       ??_C@_0M@FNOJBKLG@NI?5PCI?96229@ 10074bd8     xpcionim.obj
 0002:00004be8       ??_C@_0M@INOJMLMI@NI?5PCI?96230@ 10074be8     xpcionim.obj
 0002:00004bf8       ??_C@_0M@LPNPKJEK@NI?5PCI?96232@ 10074bf8     xpcionim.obj
 0002:00004c08       ??_C@_0M@KGMEJIAL@NI?5PCI?96233@ 10074c08     xpcionim.obj
 0002:00004c18       ??_C@_0M@NLLDGMEO@NI?5PCI?96236@ 10074c18     xpcionim.obj
 0002:00004c28       ??_C@_0M@EFDAEBMA@NI?5PCI?96238@ 10074c28     xpcionim.obj
 0002:00004c38       ??_C@_0M@FMCLHAIB@NI?5PCI?96239@ 10074c38     xpcionim.obj
 0002:00004c48       ??_C@_0M@IJGELHHK@NI?5PCI?96250@ 10074c48     xpcionim.obj
 0002:00004c58       ??_C@_0M@JAHPIGDL@NI?5PCI?96251@ 10074c58     xpcionim.obj
 0002:00004c68       ??_C@_0M@ONAIHCHO@NI?5PCI?96254@ 10074c68     xpcionim.obj
 0002:00004c78       ??_C@_0M@PEBDEDDP@NI?5PCI?96255@ 10074c78     xpcionim.obj
 0002:00004c88       ??_C@_0M@FIKGAMDD@NI?5PCI?96259@ 10074c88     xpcionim.obj
 0002:00004c98       ??_C@_0M@IBLMCECJ@NI?5PCI?96280@ 10074c98     xpcionim.obj
 0002:00004ca8       ??_C@_0M@JIKHBFGI@NI?5PCI?96281@ 10074ca8     xpcionim.obj
 0002:00004cb8       ??_C@_0M@OFNAOBCN@NI?5PCI?96284@ 10074cb8     xpcionim.obj
 0002:00004cc8       ??_C@_0M@FAHOJPGA@NI?5PCI?96289@ 10074cc8     xpcionim.obj
 0002:00004cd8       ??_C@_0CI@NFFNBHJA@?$CFs?5?$CIbus?5?$CFd?0?5slot?5?$CFd?$CJ?3?5board?5not@ 10074cd8     xpcionim.obj
 0002:00004d08       ??_C@_0CD@MBDNCLAI@NI?5M?5series?3?5Unknown?5board?5type@ 10074d08     xpcionim.obj
 0002:00004d34       ??_C@_0CC@DMFKNLL@VendorId?5?$DN?50x?$CFx?0?5DeviceId?5?$DN?50x?$CF@ 10074d34     xpcruntime:xpcimports.obj
 0002:00004d5c       ??_C@_0DH@OHCBLNMG@Subsystem?5Device?5ID?5?$DN?50x?$CFx?6Subs@ 10074d5c     xpcruntime:xpcimports.obj
 0002:00004da0       ??_C@_0BD@MMMMEFCM@Class?5Code?5?$DN?50x?$CFx?6@ 10074da0     xpcruntime:xpcimports.obj
 0002:00004db8       ??_C@_0BE@OLDDDNHM@InterruptLine?5?$DN?5?$CFd?6@ 10074db8     xpcruntime:xpcimports.obj
 0002:00004dd0       ??_C@_0BF@OLKLEKBD@bus?5?$DN?5?$CFd?0?5slot?5?$DN?5?$CFd?6@ 10074dd0     xpcruntime:xpcimports.obj
 0002:00004dec       ??_C@_0CE@DGLLGDFH@?5?5?5?5Phys?5?5?5Virtual?5?5?5Length?5IO?1@ 10074dec     xpcruntime:xpcimports.obj
 0002:00004e18       ??_C@_0BI@FEOPLEMG@?$CF08x?5?$CF08x?5?$CF08x?5?5?5?5?5?5?$CFc?6@ 10074e18     xpcruntime:xpcimports.obj
 0002:00004e34       ??_C@_0BB@BNNCEDPC@rl32eScopeExists@ 10074e34     xpcruntime:xpcimports.obj
 0002:00004e48       ??_C@_0BM@FJBFEGFG@rl32eScopeExists?5not?5found?6@ 10074e48     xpcruntime:xpcimports.obj
 0002:00004e6c       ??_C@_0O@BNNGKJEA@rl32eDefScope@ 10074e6c     xpcruntime:xpcimports.obj
 0002:00004e7c       ??_C@_0BJ@CDNOENKA@rl32eDefScope?5not?5found?6@ 10074e7c     xpcruntime:xpcimports.obj
 0002:00004e9c       ??_C@_0P@CKNKILDP@rl32eAddSignal@ 10074e9c     xpcruntime:xpcimports.obj
 0002:00004eb0       ??_C@_0BK@GMJAJBAI@rl32eAddSignal?5not?5found?6@ 10074eb0     xpcruntime:xpcimports.obj
 0002:00004ed0       ??_C@_0BB@LDMIHGCE@rl32eGetSignalNo@ 10074ed0     xpcruntime:xpcimports.obj
 0002:00004ee4       ??_C@_0BM@LGAMBAID@rl32eGetSignalNo?5not?5found?6@ 10074ee4     xpcruntime:xpcimports.obj
 0002:00004f08       ??_C@_0O@CFDGALBP@rl32eSetScope@ 10074f08     xpcruntime:xpcimports.obj
 0002:00004f18       ??_C@_0BJ@JCLHHIN@rl32eSetScope?5not?5found?6@ 10074f18     xpcruntime:xpcimports.obj
 0002:00004f38       ??_C@_0P@IKMCBMHH@xpceFSScopeSet@ 10074f38     xpcruntime:xpcimports.obj
 0002:00004f4c       ??_C@_0BK@JODJPNNH@xpceFSScopeSet?5not?5found?6@ 10074f4c     xpcruntime:xpcimports.obj
 0002:00004f6c       ??_C@_0BE@DLACEEJM@rl32eSetTargetScope@ 10074f6c     xpcruntime:xpcimports.obj
 0002:00004f84       ??_C@_0BP@JCHFMKPJ@rl32eSetTargetScope?5not?5found?6@ 10074f84     xpcruntime:xpcimports.obj
 0002:00004fac       ??_C@_0BJ@LIDLNDHC@rl32eSetTargetScopeSigFt@ 10074fac     xpcruntime:xpcimports.obj
 0002:00004fcc       ??_C@_0CE@JLGHCFHI@rl32eSetTargetScopeSigFt?5not?5fo@ 10074fcc     xpcruntime:xpcimports.obj
 0002:00004ff8       ??_C@_0BI@JAPOIDNG@rl32eRestartAcquisition@ 10074ff8     xpcruntime:xpcimports.obj
 0002:00005014       ??_C@_0CD@LLBEFFBO@rl32eRestartAcquisition?5not?5fou@ 10075014     xpcruntime:xpcimports.obj
 0002:00005040       ??_C@_0P@IEIIADJB@xpceScopeAcqOK@ 10075040     xpcruntime:xpcimports.obj
 0002:00005054       ??_C@_0BK@NJCKNFPN@xpceScopeAcqOK?5not?5found?6@ 10075054     xpcruntime:xpcimports.obj
 0002:00005074       ??_C@_0BA@IJINKAHF@xpceRegisterISR@ 10075074     xpcruntime:xpcimports.obj
 0002:00005088       ??_C@_0BL@NNDLOEJE@xpceRegisterISR?5not?5found?6@ 10075088     xpcruntime:xpcimports.obj
 0002:000050a8       ??_C@_0BC@NLBADGKF@xpceDeRegisterISR@ 100750a8     xpcruntime:xpcimports.obj
 0002:000050c0       ??_C@_0BN@DCAIKFFD@xpceDeRegisterISR?5not?5found?6@ 100750c0     xpcruntime:xpcimports.obj
 0002:000050e4       ??_C@_07JPMEPILD@xpcInpB@  100750e4     xpcruntime:xpcimports.obj
 0002:000050f0       ??_C@_0BD@PGABEJOL@xpcInpB?5not?5found?6@ 100750f0     xpcruntime:xpcimports.obj
 0002:00005108       ??_C@_07KIHBBOKH@xpcInpW@  10075108     xpcruntime:xpcimports.obj
 0002:00005114       ??_C@_0BD@FPCJFMCC@xpcInpW?5not?5found?6@ 10075114     xpcruntime:xpcimports.obj
 0002:0000512c       ??_C@_08KDIAJBOP@xpcInpDW@ 1007512c     xpcruntime:xpcimports.obj
 0002:00005138       ??_C@_0BE@PIELDNIL@xpcInpDW?5not?5found?6@ 10075138     xpcruntime:xpcimports.obj
 0002:00005150       ??_C@_08PJFMOIGO@xpcOutpB@ 10075150     xpcruntime:xpcimports.obj
 0002:0000515c       ??_C@_0BE@HCKNCEKF@xpcOutpB?5not?5found?6@ 1007515c     xpcruntime:xpcimports.obj
 0002:00005174       ??_C@_08MOOJAOHK@xpcOutpW@ 10075174     xpcruntime:xpcimports.obj
 0002:00005180       ??_C@_0BE@NLIFDBGM@xpcOutpW?5not?5found?6@ 10075180     xpcruntime:xpcimports.obj
 0002:00005198       ??_C@_09FLIEKHJG@xpcOutpDW@ 10075198     xpcruntime:xpcimports.obj
 0002:000051a4       ??_C@_0BF@GJKLPNHB@xpcOutpDW?5not?5found?6@ 100751a4     xpcruntime:xpcimports.obj
 0002:000051c0       ??_C@_0BH@EHOLELHH@xpcReserveMemoryRegion@ 100751c0     xpcruntime:xpcimports.obj
 0002:000051dc       ??_C@_0CC@KAAAGPI@xpcReserveMemoryRegion?5not?5foun@ 100751dc     xpcruntime:xpcimports.obj
 0002:00005204       ??_C@_0BA@JGPMHGAF@rl32eShowPCIDev@ 10075204     xpcruntime:xpcimports.obj
 0002:00005218       ??_C@_0BL@DDFFLNHI@rl32eShowPCIDev?5not?5found?6@ 10075218     xpcruntime:xpcimports.obj
 0002:00005238       ??_C@_0BB@KBCOJPFB@rl32eShowPCIInfo@ 10075238     xpcruntime:xpcimports.obj
 0002:0000524c       ??_C@_0BM@IFDMAGLO@rl32eShowPCIInfo?5not?5found?6@ 1007524c     xpcruntime:xpcimports.obj
 0002:00005270       ??_C@_0BA@BGPAADB@rl32eGetPCIInfo@ 10075270     xpcruntime:xpcimports.obj
 0002:00005284       ??_C@_0BL@IGOMLDCK@rl32eGetPCIInfo?5not?5found?6@ 10075284     xpcruntime:xpcimports.obj
 0002:000052a4       ??_C@_0BG@NJPFKFDP@rl32eGetPCIInfoAtSlot@ 100752a4     xpcruntime:xpcimports.obj
 0002:000052c0       ??_C@_0CB@BBKIPMLA@rl32eGetPCIInfoAtSlot?5not?5found@ 100752c0     xpcruntime:xpcimports.obj
 0002:000052e8       ??_C@_0BH@OKBOPNFG@xpceAssignPCIInterrupt@ 100752e8     xpcruntime:xpcimports.obj
 0002:00005304       ??_C@_0CC@CDNDNJBJ@xpceAssignPCIInterrupt?5not?5foun@ 10075304     xpcruntime:xpcimports.obj
 0002:0000532c       ??_C@_0BD@PCKOKHO@xpceGetSignalValue@ 1007532c     xpcruntime:xpcimports.obj
 0002:00005344       ??_C@_0BO@GCBDJHMB@xpceGetSignalValue?5not?5found?6@ 10075344     xpcruntime:xpcimports.obj
 0002:00005368       ??_C@_0BB@BJONJAGA@xpceSetParameter@ 10075368     xpcruntime:xpcimports.obj
 0002:0000537c       ??_C@_0BM@BJIKDLHA@xpceSetParameter?5not?5found?6@ 1007537c     xpcruntime:xpcimports.obj
 0002:000053a0       ??_C@_0BB@GNFDFMCM@xpceGetParameter@ 100753a0     xpcruntime:xpcimports.obj
 0002:000053b4       ??_C@_0BM@POHNKBC@xpceGetParameter?5not?5found?6@ 100753b4     xpcruntime:xpcimports.obj
 0002:000053d8       ??_C@_0BB@CEIJLFCD@xpceGetParamDims@ 100753d8     xpcruntime:xpcimports.obj
 0002:000053ec       ??_C@_0BM@OABDBKAO@xpceGetParamDims?5not?5found?6@ 100753ec     xpcruntime:xpcimports.obj
 0002:00005410       ??_C@_0L@OCBLLHBM@xpceGetTET@ 10075410     xpcruntime:xpcimports.obj
 0002:00005420       ??_C@_0BG@HNOFBOB@xpceGetTET?5not?5found?6@ 10075420     xpcruntime:xpcimports.obj
 0002:0000543c       ??_C@_0P@OKGNGAGH@xpcIsModelInit@ 1007543c     xpcruntime:xpcimports.obj
 0002:00005450       ??_C@_0BK@DHEMLBIM@xpcIsModelInit?5not?5found?6@ 10075450     xpcruntime:xpcimports.obj
 0002:00005470       ??_C@_0BH@KJJLCAOJ@xpcAllocPhysicalMemory@ 10075470     xpcruntime:xpcimports.obj
 0002:0000548c       ??_C@_0CC@MOJPNHKL@xpcAllocPhysicalMemory?5not?5foun@ 1007548c     xpcruntime:xpcimports.obj
 0002:000054b4       ??_C@_0BG@CBNPGAEL@xpcFreePhysicalMemory@ 100754b4     xpcruntime:xpcimports.obj
 0002:000054d0       ??_C@_0CB@PKJEBPOG@xpcFreePhysicalMemory?5not?5found@ 100754d0     xpcruntime:xpcimports.obj
 0002:000054f8       ??_C@_0BC@JGKNLICL@xpcGetElapsedTime@ 100754f8     xpcruntime:xpcimports.obj
 0002:00005510       ??_C@_0BN@OEOAHCIO@xpcGetElapsedTime?5not?5found?6@ 10075510     xpcruntime:xpcimports.obj
 0002:00005534       ??_C@_0M@ICBLMODA@xpcBusyWait@ 10075534     xpcruntime:xpcimports.obj
 0002:00005544       ??_C@_0BH@FBOPECBI@xpcBusyWait?5not?5found?6@ 10075544     xpcruntime:xpcimports.obj
 0002:00005560       ??_C@_0N@LKKJEKKA@TBCreateSpin@ 10075560     xpcruntime:xpcimports.obj
 0002:00005570       ??_C@_0BI@FHKMLKOE@TBCreateSpin?5not?5found?6@ 10075570     xpcruntime:xpcimports.obj
 0002:0000558c       ??_C@_0N@HOAJHNBD@TBDeleteSpin@ 1007558c     xpcruntime:xpcimports.obj
 0002:0000559c       ??_C@_0BI@BKCPAAG@TBDeleteSpin?5not?5found?6@ 1007559c     xpcruntime:xpcimports.obj
 0002:000055b8       ??_C@_0P@DAHDDBJG@TBTakeSpinFast@ 100755b8     xpcruntime:xpcimports.obj
 0002:000055cc       ??_C@_0BK@NKAIBHGB@TBTakeSpinFast?5not?5found?6@ 100755cc     xpcruntime:xpcimports.obj
 0002:000055ec       ??_C@_0P@FKNAAELA@TBGiveSpinFast@ 100755ec     xpcruntime:xpcimports.obj
 0002:00005600       ??_C@_0BK@KGPJBJND@TBGiveSpinFast?5not?5found?6@ 10075600     xpcruntime:xpcimports.obj
 0002:00005620       ??_C@_0BE@IIGBFDHK@xpceCreateSemaphore@ 10075620     xpcruntime:xpcimports.obj
 0002:00005638       ??_C@_0BP@KFBAFFKJ@xpceCreateSemaphore?5not?5found?6@ 10075638     xpcruntime:xpcimports.obj
 0002:00005660       ??_C@_0BC@IFNIONKJ@xpceWaitSemaphore@ 10075660     xpcruntime:xpcimports.obj
 0002:00005678       ??_C@_0BN@NMFAADIO@xpceWaitSemaphore?5not?5found?6@ 10075678     xpcruntime:xpcimports.obj
 0002:0000569c       ??_C@_0BE@NNDIOBKE@xpceSignalSemaphore@ 1007569c     xpcruntime:xpcimports.obj
 0002:000056b4       ??_C@_0BP@LBANMHJP@xpceSignalSemaphore?5not?5found?6@ 100756b4     xpcruntime:xpcimports.obj
 0002:000056dc       ??_C@_0BE@MEBEKOIM@xpceDeleteSemaphore@ 100756dc     xpcruntime:xpcimports.obj
 0002:000056f4       ??_C@_0BP@OFNCKOJH@xpceDeleteSemaphore?5not?5found?6@ 100756f4     xpcruntime:xpcimports.obj
 0002:0000571c       ??_C@_0BD@MFNDMBOF@FindUsbVideoDevice@ 1007571c     xpcruntime:xpcimports.obj
 0002:00005734       ??_C@_0BO@POKLDHMI@FindUsbVideoDevice?5not?5found?6@ 10075734     xpcruntime:xpcimports.obj
 0002:00005758       ??_C@_0BA@PLPAPNAB@GetVideoConfigs@ 10075758     xpcruntime:xpcimports.obj
 0002:0000576c       ??_C@_0BL@DALDHKHC@GetVideoConfigs?5not?5found?6@ 1007576c     xpcruntime:xpcimports.obj
 0002:0000578c       ??_C@_0L@GBAEMHMH@StartVideo@ 1007578c     xpcruntime:xpcimports.obj
 0002:0000579c       ??_C@_0BG@HDCELEBP@StartVideo?5not?5found?6@ 1007579c     xpcruntime:xpcimports.obj
 0002:000057b8       ??_C@_0BA@FDNPOCLN@ReadFrameBuffer@ 100757b8     xpcruntime:xpcimports.obj
 0002:000057cc       ??_C@_0BL@JHGHPNBI@ReadFrameBuffer?5not?5found?6@ 100757cc     xpcruntime:xpcimports.obj
 0002:000057ec       ??_C@_09FAHCLKAG@StopVideo@ 100757ec     xpcruntime:xpcimports.obj
 0002:000057f8       ??_C@_0BF@NKGKKADL@StopVideo?5not?5found?6@ 100757f8     xpcruntime:xpcimports.obj
 0002:00005814       ??_C@_0O@MCPKDLLL@ConvertUImage@ 10075814     xpcruntime:xpcimports.obj
 0002:00005824       ??_C@_0BJ@PHJKOAFL@ConvertUImage?5not?5found?6@ 10075824     xpcruntime:xpcimports.obj
 0002:00005844       ??_C@_0BD@NKCBPBJJ@CreateVideoDisplay@ 10075844     xpcruntime:xpcimports.obj
 0002:0000585c       ??_C@_0BO@HPPLLNFP@CreateVideoDisplay?5not?5found?6@ 1007585c     xpcruntime:xpcimports.obj
 0002:00005880       ??_C@_0BE@KJCKGPHA@DestroyVideoDisplay@ 10075880     xpcruntime:xpcimports.obj
 0002:00005898       ??_C@_0BP@FMGLJAIJ@DestroyVideoDisplay?5not?5found?6@ 10075898     xpcruntime:xpcimports.obj
 0002:000058c0       ??_C@_0BC@HCMIMIDN@StartVideoDisplay@ 100758c0     xpcruntime:xpcimports.obj
 0002:000058d8       ??_C@_0BN@EFIEBGOO@StartVideoDisplay?5not?5found?6@ 100758d8     xpcruntime:xpcimports.obj
 0002:000058fc       ??_C@_0BB@JBBLMILG@StopVideoDisplay@ 100758fc     xpcruntime:xpcimports.obj
 0002:00005910       ??_C@_0BM@DBJBPLEL@StopVideoDisplay?5not?5found?6@ 10075910     xpcruntime:xpcimports.obj
 0002:00005934       ??_C@_0M@MFJEGMHC@StreamVideo@ 10075934     xpcruntime:xpcimports.obj
 0002:00005944       ??_C@_0BH@OINCDMLA@StreamVideo?5not?5found?6@ 10075944     xpcruntime:xpcimports.obj
 0002:00005960       ??_C@_0N@IGGLCIGE@xpceaddEvent@ 10075960     xpcruntime:xpcimports.obj
 0002:00005970       ??_C@_0BI@NHJNFMKH@xpceaddEvent?5not?5found?6@ 10075970     xpcruntime:xpcimports.obj
 0002:0000598c       ??_C@_0BB@HDPOIJAB@xpceDAQPostEvent@ 1007598c     xpcruntime:xpcimports.obj
 0002:000059a0       ??_C@_0BM@IHANBKGN@xpceDAQPostEvent?5not?5found?6@ 100759a0     xpcruntime:xpcimports.obj
 0002:000059c4       ??_C@_0BH@MBACMOD@xpceDAQUpdateTimeStamp@ 100759c4     xpcruntime:xpcimports.obj
 0002:000059e0       ??_C@_0CC@DAKBBINL@xpceDAQUpdateTimeStamp?5not?5foun@ 100759e0     xpcruntime:xpcimports.obj
 0002:00005a08       ??_C@_0BN@HJOHIFOM@xpceGetIntTimerGranularityNS@ 10075a08     xpcruntime:xpcimports.obj
 0002:00005a2c       ??_C@_0CI@OADDPMKB@xpceGetIntTimerGranularityNS?5no@ 10075a2c     xpcruntime:xpcimports.obj
 0002:00005a5c       ??_C@_0BG@CCHICKPN@slrteSetStepSizeDelta@ 10075a5c     xpcruntime:xpcimports.obj
 0002:00005a78       ??_C@_0CB@MKHINEIJ@slrteSetStepSizeDelta?5not?5found@ 10075a78     xpcruntime:xpcimports.obj
 0002:00005aa0       ??_C@_0BI@CLNBLDKJ@slrteGetCurrentStepSize@ 10075aa0     xpcruntime:xpcimports.obj
 0002:00005abc       ??_C@_0CD@GIOJPGJA@slrteGetCurrentStepSize?5not?5fou@ 10075abc     xpcruntime:xpcimports.obj
 0002:00005ae8       ??_C@_0BE@FCLCBOC@registerPTPTimeRead@ 10075ae8     xpcruntime:xpcimports.obj
 0002:00005b00       ??_C@_0BP@LHPKAJIP@registerPTPTimeRead?5not?5found?6@ 10075b00     xpcruntime:xpcimports.obj
 0002:00005b28       ??_C@_0BG@KIGCDDJI@unRegisterPTPTimeRead@ 10075b28     xpcruntime:xpcimports.obj
 0002:00005b44       ??_C@_0CB@MLFFBFCM@unRegisterPTPTimeRead?5not?5found@ 10075b44     xpcruntime:xpcimports.obj
 0002:00005b6c       ??_C@_0BB@IPMDDBHK@slTestInitialize@ 10075b6c     xpcruntime:xpcimports.obj
 0002:00005b80       ??_C@_0BM@LAJFCCJH@slTestInitialize?5not?5found?6@ 10075b80     xpcruntime:xpcimports.obj
 0002:00005ba4       ??_C@_0BF@OOMPMEBC@slTestLogAssessments@ 10075ba4     xpcruntime:xpcimports.obj
 0002:00005bc0       ??_C@_0CA@FGJCEBAG@slTestLogAssessments?5not?5found?6@ 10075bc0     xpcruntime:xpcimports.obj
 0002:00005be8       ??_C@_0BB@HJHKONHO@slTestEvalOnFail@ 10075be8     xpcruntime:xpcimports.obj
 0002:00005bfc       ??_C@_0BM@JIKCFFNJ@slTestEvalOnFail?5not?5found?6@ 10075bfc     xpcruntime:xpcimports.obj
 0002:00005c20       ??_C@_0BA@LBHLABFP@slTestTerminate@ 10075c20     xpcruntime:xpcimports.obj
 0002:00005c34       ??_C@_0BL@EMFGKAPA@slTestTerminate?5not?5found?6@ 10075c34     xpcruntime:xpcimports.obj
 0002:00005c54       ??_C@_0BE@JPNPBBEO@slTestRegAssessment@ 10075c54     xpcruntime:xpcimports.obj
 0002:00005c6c       ??_C@_0BP@FBDEJJJH@slTestRegAssessment?5not?5found?6@ 10075c6c     xpcruntime:xpcimports.obj
 0002:00005c94       ??_C@_0O@NCLGDNIB@slrteSetupMSI@ 10075c94     xpcruntime:xpcimports.obj
 0002:00005ca4       ??_C@_0BJ@HEFMECLM@slrteSetupMSI?5not?5found?6@ 10075ca4     xpcruntime:xpcimports.obj
 0002:00005cc4       ??_C@_0BH@BPOLALHD@slrtGetCRBScratchSpace@ 10075cc4     xpcruntime:xpcimports.obj
 0002:00005ce0       ??_C@_0CC@KCKAJKKJ@slrtGetCRBScratchSpace?5not?5foun@ 10075ce0     xpcruntime:xpcimports.obj
 0002:00005d08       ??_C@_0BC@MKFDAKOL@slrtGetSgCRBSpace@ 10075d08     xpcruntime:xpcimports.obj
 0002:00005d20       ??_C@_0BN@JDPHPLHL@slrtGetSgCRBSpace?5not?5found?6@ 10075d20     xpcruntime:xpcimports.obj
 0002:00005d44       ??_C@_0P@EPAPKLIF@slrtfsOpenFile@ 10075d44     xpcruntime:xpcimports.obj
 0002:00005d58       ??_C@_0BK@FIHCBOHG@slrtfsOpenFile?5not?5found?6@ 10075d58     xpcruntime:xpcimports.obj
 0002:00005d78       ??_C@_0BA@LILAFDDL@slrtfsCloseFile@ 10075d78     xpcruntime:xpcimports.obj
 0002:00005d8c       ??_C@_0BL@DEGHJFIB@slrtfsCloseFile?5not?5found?6@ 10075d8c     xpcruntime:xpcimports.obj
 0002:00005dac       ??_C@_0BC@OKMJDIEH@slrtfsWriteToFile@ 10075dac     xpcruntime:xpcimports.obj
 0002:00005dc4       ??_C@_0BN@KCFLCLAH@slrtfsWriteToFile?5not?5found?6@ 10075dc4     xpcruntime:xpcimports.obj
 0002:00005de8       ??_C@_0BK@GIPNFFFF@slrtfsGetFileErrorMessage@ 10075de8     xpcruntime:xpcimports.obj
 0002:00005e08       ??_C@_0CF@BCBLMKLE@slrtfsGetFileErrorMessage?5not?5f@ 10075e08     xpcruntime:xpcimports.obj
 0002:00005e34       ??_C@_0BD@ICBOKMK@slrtfsGetFileError@ 10075e34     xpcruntime:xpcimports.obj
 0002:00005e4c       ??_C@_0BO@FNBANAE@slrtfsGetFileError?5not?5found?6@ 10075e4c     xpcruntime:xpcimports.obj
 0002:00005e70       ??_C@_0BE@PPAJMHJP@slrtfsOpenFileAsync@ 10075e70     xpcruntime:xpcimports.obj
 0002:00005e88       ??_C@_0BP@HKBMMJOK@slrtfsOpenFileAsync?5not?5found?6@ 10075e88     xpcruntime:xpcimports.obj
 0002:00005eb0       ??_C@_0BF@IGNDIBPF@slrtfsCloseFileAsync@ 10075eb0     xpcruntime:xpcimports.obj
 0002:00005ecc       ??_C@_0CA@GJPFDBKN@slrtfsCloseFileAsync?5not?5found?6@ 10075ecc     xpcruntime:xpcimports.obj
 0002:00005ef4       ??_C@_0BE@IOLEBNB@slrtfsGetFileStatus@ 10075ef4     xpcruntime:xpcimports.obj
 0002:00005f0c       ??_C@_0BP@PEFHDGHL@slrtfsGetFileStatus?5not?5found?6@ 10075f0c     xpcruntime:xpcimports.obj
 0002:00005f34       ??_C@_0M@HKIJIMG@slrtfsFread@ 10075f34     xpcruntime:xpcimports.obj
 0002:00005f44       ??_C@_0BH@OOKBGONO@slrtfsFread?5not?5found?6@ 10075f44     xpcruntime:xpcimports.obj
 0002:00005f60       ??_C@_0BE@OGCMPLAP@slrtGetDefaultDrive@ 10075f60     xpcruntime:xpcimports.obj
 0002:00005f78       ??_C@_0BP@HKFGLHOE@slrtGetDefaultDrive?5not?5found?6@ 10075f78     xpcruntime:xpcimports.obj
 0002:00005fa0       ??_C@_0N@NAJIKFFI@slrtLogEvent@ 10075fa0     xpcruntime:xpcimports.obj
 0002:00005fb0       ??_C@_0BI@NKCEACND@slrtLogEvent?5not?5found?6@ 10075fb0     xpcruntime:xpcimports.obj
 0002:00005fcc       ??_C@_0N@IDKFJOHI@getlasterror@ 10075fcc     xpcruntime:xpcimports.obj
 0002:00005fdc       ??_C@_0BI@MIHMCHGL@getlasterror?5not?5found?6@ 10075fdc     xpcruntime:xpcimports.obj
 0002:00005ff8       ??_C@_0P@OKHGKJKN@geterrorstring@ 10075ff8     xpcruntime:xpcimports.obj
 0002:0000600c       ??_C@_0BK@NOHFDMLP@geterrorstring?5not?5found?6@ 1007600c     xpcruntime:xpcimports.obj
 0002:0000602c       ??_C@_0BD@HNFFKMGJ@slrtGetCPUTCelsius@ 1007602c     xpcruntime:xpcimports.obj
 0002:00006044       ??_C@_0BO@LHBFKLIH@slrtGetCPUTCelsius?5not?5found?6@ 10076044     xpcruntime:xpcimports.obj
 0002:00006068       ??_C@_0M@OONCNCLM@slrtWarning@ 10076068     xpcruntime:xpcimports.obj
 0002:00006078       ??_C@_0BH@ICKGIEMB@slrtWarning?5not?5found?6@ 10076078     xpcruntime:xpcimports.obj
 0002:00006094       ??_C@_0N@EAAOMIIE@isUsedByRTIP@ 10076094     xpcruntime:xpcimports.obj
 0002:000060a4       ??_C@_0BI@GNHHHICK@isUsedByRTIP?5not?5found?6@ 100760a4     xpcruntime:xpcimports.obj
 0002:000060c0       ??_C@_0BC@HLDKJAG@SetIPTASKPriority@ 100760c0     xpcruntime:xpcimports.obj
 0002:000060d8       ??_C@_0BN@OGKMHHAE@SetIPTASKPriority?5not?5found?6@ 100760d8     xpcruntime:xpcimports.obj
 0002:000060fc       ??_C@_0O@LHENMBDD@OpenInterface@ 100760fc     xpcruntime:xpcimports.obj
 0002:0000610c       ??_C@_0BJ@PFGDBKHB@OpenInterface?5not?5found?6@ 1007610c     xpcruntime:xpcimports.obj
 0002:0000612c       ??_C@_0P@IINFELKD@CloseInterface@ 1007612c     xpcruntime:xpcimports.obj
 0002:00006140       ??_C@_0BK@PAPDNDBK@CloseInterface?5not?5found?6@ 10076140     xpcruntime:xpcimports.obj
 0002:00006160       ??_C@_05LEFIAAOI@SetIP@    10076160     xpcruntime:xpcimports.obj
 0002:00006168       ??_C@_0BB@CGLIBAMM@SetIP?5not?5found?6@ 10076168     xpcruntime:xpcimports.obj
 0002:0000617c       ??_C@_0BA@HIJJHHMD@AddGatewayRoute@ 1007617c     xpcruntime:xpcimports.obj
 0002:00006190       ??_C@_0BL@BFCFMDMN@AddGatewayRoute?5not?5found?6@ 10076190     xpcruntime:xpcimports.obj
 0002:000061b0       ??_C@_0M@PHMABFPI@DeleteRoute@ 100761b0     xpcruntime:xpcimports.obj
 0002:000061c0       ??_C@_0BH@JPJGLLID@DeleteRoute?5not?5found?6@ 100761c0     xpcruntime:xpcimports.obj
 0002:000061dc       ??_C@_0BA@FCDIMKIJ@GetHostTarIPAdd@ 100761dc     xpcruntime:xpcimports.obj
 0002:000061f0       ??_C@_0BL@MBKDGKBO@GetHostTarIPAdd?5not?5found?6@ 100761f0     xpcruntime:xpcimports.obj
 0002:00006210       ??_C@_0M@HPMIPIBI@GetDCUUsage@ 10076210     xpcruntime:xpcimports.obj
 0002:00006220       ??_C@_0BH@EBLJKCJC@GetDCUUsage?5not?5found?6@ 10076220     xpcruntime:xpcimports.obj
 0002:0000623c       ??_C@_06MPKMECK@accept@    1007623c     xpcruntime:xpcimports.obj
 0002:00006244       ??_C@_0BC@GBGIEMNO@accept?5not?5found?6@ 10076244     xpcruntime:xpcimports.obj
 0002:0000625c       ??_C@_04NPNJNMMP@bind@     1007625c     xpcruntime:xpcimports.obj
 0002:00006264       ??_C@_0BA@DAJNENLO@bind?5not?5found?6@ 10076264     xpcruntime:xpcimports.obj
 0002:00006278       ??_C@_0L@CKHNIFCM@setsockopt@ 10076278     xpcruntime:xpcimports.obj
 0002:00006288       ??_C@_0BG@MFIIOMFE@setsockopt?5not?5found?6@ 10076288     xpcruntime:xpcimports.obj
 0002:000062a4       ??_C@_0M@ODDJDCDK@closesocket@ 100762a4     xpcruntime:xpcimports.obj
 0002:000062b4       ??_C@_0BH@JHGHMIL@closesocket?5not?5found?6@ 100762b4     xpcruntime:xpcimports.obj
 0002:000062d0       ??_C@_07KAIBNCHO@connect@  100762d0     xpcruntime:xpcimports.obj
 0002:000062dc       ??_C@_0BD@MKLLMBM@connect?5not?5found?6@ 100762dc     xpcruntime:xpcimports.obj
 0002:000062f4       ??_C@_0M@PBPOCKDG@ioctlsocket@ 100762f4     xpcruntime:xpcimports.obj
 0002:00006304       ??_C@_0BH@NFCNHHIH@ioctlsocket?5not?5found?6@ 10076304     xpcruntime:xpcimports.obj
 0002:00006320       ??_C@_06OODDLKLE@listen@   10076320     xpcruntime:xpcimports.obj
 0002:00006328       ??_C@_0BC@NHBILEKI@listen?5not?5found?6@ 10076328     xpcruntime:xpcimports.obj
 0002:00006340       ??_C@_08HMBBGFHE@recvfrom@ 10076340     xpcruntime:xpcimports.obj
 0002:0000634c       ??_C@_0BE@BJAJFFLF@recvfrom?5not?5found?6@ 1007634c     xpcruntime:xpcimports.obj
 0002:00006364       ??_C@_06MEPBGKEC@sendto@   10076364     xpcruntime:xpcimports.obj
 0002:0000636c       ??_C@_0BC@BHPIMDJO@sendto?5not?5found?6@ 1007636c     xpcruntime:xpcimports.obj
 0002:00006384       ??_C@_09JKBDEEOB@inet_addr@ 10076384     xpcruntime:xpcimports.obj
 0002:00006390       ??_C@_0BF@HKJPGECN@inet_addr?5not?5found?6@ 10076390     xpcruntime:xpcimports.obj
 0002:000063ac       ??_C@_06HBELJPBO@socket@   100763ac     xpcruntime:xpcimports.obj
 0002:000063b4       ??_C@_0BC@NAGFFJGA@socket?5not?5found?6@ 100763b4     xpcruntime:xpcimports.obj
 0002:000063cc       ??_C@_09ICJIFGNC@GetSocket@ 100763cc     xpcruntime:xpcimports.obj
 0002:000063d8       ??_C@_0BF@KDBCKMOJ@GetSocket?5not?5found?6@ 100763d8     xpcruntime:xpcimports.obj
 0002:000063f4       ??_C@_0P@KJEGJMJI@GetSocketState@ 100763f4     xpcruntime:xpcimports.obj
 0002:00006408       ??_C@_0BK@IALBJHEB@GetSocketState?5not?5found?6@ 10076408     xpcruntime:xpcimports.obj
 0002:00006428       ??_C@_0L@MEAJHNHB@SocketSend@ 10076428     xpcruntime:xpcimports.obj
 0002:00006438       ??_C@_0BG@EOCMBFJA@SocketSend?5not?5found?6@ 10076438     xpcruntime:xpcimports.obj
 0002:00006454       ??_C@_0O@PFPCLEMF@SocketReceive@ 10076454     xpcruntime:xpcimports.obj
 0002:00006464       ??_C@_0BJ@HIBADDFO@SocketReceive?5not?5found?6@ 10076464     xpcruntime:xpcimports.obj
 0002:00006484       ??_C@_0BD@OOGFNAIK@CreateServerSocket@ 10076484     xpcruntime:xpcimports.obj
 0002:0000649c       ??_C@_0BO@GKIJHIPH@CreateServerSocket?5not?5found?6@ 1007649c     xpcruntime:xpcimports.obj
 0002:000064c0       ??_C@_0BB@KGHJGFFO@OpenServerListen@ 100764c0     xpcruntime:xpcimports.obj
 0002:000064d4       ??_C@_0BM@NFMMLIO@OpenServerListen?5not?5found?6@ 100764d4     xpcruntime:xpcimports.obj
 0002:000064f8       ??_C@_0BE@BAJLDJAH@ConnectServerSocket@ 100764f8     xpcruntime:xpcimports.obj
 0002:00006510       ??_C@_0BP@KJNODIKE@ConnectServerSocket?5not?5found?6@ 10076510     xpcruntime:xpcimports.obj
 0002:00006538       ??_C@_0BC@PLKKJDIM@CloseServerSocket@ 10076538     xpcruntime:xpcimports.obj
 0002:00006550       ??_C@_0BN@KEJEPNMB@CloseServerSocket?5not?5found?6@ 10076550     xpcruntime:xpcimports.obj
 0002:00006574       ??_C@_0BD@MCLPKCPP@CreateClientSocket@ 10076574     xpcruntime:xpcimports.obj
 0002:0000658c       ??_C@_0BO@DILAGPFN@CreateClientSocket?5not?5found?6@ 1007658c     xpcruntime:xpcimports.obj
 0002:000065b0       ??_C@_0BB@DAPKNNLG@BindClientSocket@ 100765b0     xpcruntime:xpcimports.obj
 0002:000065c4       ??_C@_0BM@LLLMMDFN@BindClientSocket?5not?5found?6@ 100765c4     xpcruntime:xpcimports.obj
 0002:000065e8       ??_C@_0BE@DMEBELHC@ConnectClientSocket@ 100765e8     xpcruntime:xpcimports.obj
 0002:00006600       ??_C@_0BP@PLOHCPAO@ConnectClientSocket?5not?5found?6@ 10076600     xpcruntime:xpcimports.obj
 0002:00006628       ??_C@_0BC@NHHAOBPJ@CloseClientSocket@ 10076628     xpcruntime:xpcimports.obj
 0002:00006640       ??_C@_0BN@PGKNOKGL@CloseClientSocket?5not?5found?6@ 10076640     xpcruntime:xpcimports.obj
 0002:00006718       __pRawDllMain              10076718     LIBCMT:dll_dllmain.obj
 0002:00006718       __pDefaultRawDllMain       10076718     LIBCMT:dll_dllmain.obj
 0002:00006910       ??_C@_08EHJDFFNH@__based?$CI@ 10076910     libvcruntime:undname.obj
 0002:0000691c       ??_C@_07KOLFKCDI@__cdecl@  1007691c     libvcruntime:undname.obj
 0002:00006928       ??_C@_08GHMPAG@__pascal@   10076928     libvcruntime:undname.obj
 0002:00006934       ??_C@_09IFJBGAPI@__stdcall@ 10076934     libvcruntime:undname.obj
 0002:00006940       ??_C@_0L@NPHFGOKO@__thiscall@ 10076940     libvcruntime:undname.obj
 0002:00006950       ??_C@_0L@JMKHOMEK@__fastcall@ 10076950     libvcruntime:undname.obj
 0002:00006960       ??_C@_0N@BCKKPABJ@__vectorcall@ 10076960     libvcruntime:undname.obj
 0002:00006970       ??_C@_09HIJEGCPM@__clrcall@ 10076970     libvcruntime:undname.obj
 0002:0000697c       ??_C@_06GHPCKEAG@__eabi@   1007697c     libvcruntime:undname.obj
 0002:00006984       ??_C@_09IOPIDJLG@__swift_1@ 10076984     libvcruntime:undname.obj
 0002:00006990       ??_C@_09KFNFGKHF@__swift_2@ 10076990     libvcruntime:undname.obj
 0002:0000699c       ??_C@_07JOMMBBKO@__ptr64@  1007699c     libvcruntime:undname.obj
 0002:000069a8       ??_C@_0L@PILCLIHE@__restrict@ 100769a8     libvcruntime:undname.obj
 0002:000069b8       ??_C@_0M@GFIIJFMG@__unaligned@ 100769b8     libvcruntime:undname.obj
 0002:000069c8       ??_C@_09DHDLOLLB@restrict?$CI@ 100769c8     libvcruntime:undname.obj
 0002:000069d4       ??_C@_04NIHEBCM@?5new@     100769d4     libvcruntime:undname.obj
 0002:000069dc       ??_C@_07FPCDHGMM@?5delete@ 100769dc     libvcruntime:undname.obj
 0002:000069e8       ??_C@_01NEMOKFLO@?$DN@     100769e8     libvcruntime:undname.obj
 0002:000069ec       ??_C@_02GPIOPFAK@?$DO?$DO@ 100769ec     libvcruntime:undname.obj
 0002:000069f0       ??_C@_02FODMEDOG@?$DM?$DM@ 100769f0     libvcruntime:undname.obj
 0002:000069f4       ??_C@_01DCLJPIOD@?$CB@     100769f4     libvcruntime:undname.obj
 0002:000069f8       ??_C@_02EGOFBIJA@?$DN?$DN@ 100769f8     libvcruntime:undname.obj
 0002:000069fc       ??_C@_02FDNJECIE@?$CB?$DN@ 100769fc     libvcruntime:undname.obj
 0002:00006a00       ??_C@_02GPECMEKF@?$FL?$FN@ 10076a00     libvcruntime:undname.obj
 0002:00006a04       ??_C@_08LHJFAFGD@operator@ 10076a04     libvcruntime:undname.obj
 0002:00006a10       ??_C@_02HBOOOICD@?9?$DO@   10076a10     libvcruntime:undname.obj
 0002:00006a14       ??_C@_01NBENCBCI@?$CK@     10076a14     libvcruntime:undname.obj
 0002:00006a18       ??_C@_02ECNGHCIF@?$CL?$CL@ 10076a18     libvcruntime:undname.obj
 0002:00006a1c       ??_C@_02BAABKJLB@?9?9@     10076a1c     libvcruntime:undname.obj
 0002:00006a20       ??_C@_01JOAMLHOP@?9@       10076a20     libvcruntime:undname.obj
 0002:00006a24       ??_C@_01MIFGBAGJ@?$CL@     10076a24     libvcruntime:undname.obj
 0002:00006a28       ??_C@_01HNPIGOCE@?$CG@     10076a28     libvcruntime:undname.obj
 0002:00006a2c       ??_C@_03MNHNFDLC@?9?$DO?$CK@ 10076a2c     libvcruntime:undname.obj
 0002:00006a30       ??_C@_01KMDKNFGN@?1@       10076a30     libvcruntime:undname.obj
 0002:00006a34       ??_C@_01FGNFDNOH@?$CF@     10076a34     libvcruntime:undname.obj
 0002:00006a38       ??_C@_01MNNFJEPP@?$DM@     10076a38     libvcruntime:undname.obj
 0002:00006a3c       ??_C@_02EHCHHCKH@?$DM?$DN@ 10076a3c     libvcruntime:undname.obj
 0002:00006a40       ??_C@_01PPODPGHN@?$DO@     10076a40     libvcruntime:undname.obj
 0002:00006a44       ??_C@_02EEKDKGMJ@?$DO?$DN@ 10076a44     libvcruntime:undname.obj
 0002:00006a48       ??_C@_01IHBHIGKO@?0@       10076a48     libvcruntime:undname.obj
 0002:00006a4c       ??_C@_02HCKGKOFO@?$CI?$CJ@ 10076a4c     libvcruntime:undname.obj
 0002:00006a50       ??_C@_01PJKLJHI@?$HO@      10076a50     libvcruntime:undname.obj
 0002:00006a54       ??_C@_01JKBOJNNK@?$FO@     10076a54     libvcruntime:undname.obj
 0002:00006a58       ??_C@_01DNKMNLPK@?$HM@     10076a58     libvcruntime:undname.obj
 0002:00006a5c       ??_C@_02PPKAJPJL@?$CG?$CG@ 10076a5c     libvcruntime:undname.obj
 0002:00006a60       ??_C@_02NONPIBCD@?$HM?$HM@ 10076a60     libvcruntime:undname.obj
 0002:00006a64       ??_C@_02FPIMKNGF@?$CK?$DN@ 10076a64     libvcruntime:undname.obj
 0002:00006a68       ??_C@_02FOEOMHFC@?$CL?$DN@ 10076a68     libvcruntime:undname.obj
 0002:00006a6c       ??_C@_02FKMDLLOA@?9?$DN@   10076a6c     libvcruntime:undname.obj
 0002:00006a70       ??_C@_02FJEHGPIO@?1?$DN@   10076a70     libvcruntime:undname.obj
 0002:00006a74       ??_C@_02FENAOKFI@?$CF?$DN@ 10076a74     libvcruntime:undname.obj
 0002:00006a78       ??_C@_03IKFCCPFF@?$DO?$DO?$DN@ 10076a78     libvcruntime:undname.obj
 0002:00006a7c       ??_C@_03CDNPDDLA@?$DM?$DM?$DN@ 10076a7c     libvcruntime:undname.obj
 0002:00006a80       ??_C@_02FGJGFEAB@?$CG?$DN@ 10076a80     libvcruntime:undname.obj
 0002:00006a84       ??_C@_02DHLNPPGH@?$HM?$DN@ 10076a84     libvcruntime:undname.obj
 0002:00006a88       ??_C@_02MHEGNOJ@?$FO?$DN@  10076a88     libvcruntime:undname.obj
 0002:00006a8c       ??_C@_09IFPLHPGF@?$GAvftable?8@ 10076a8c     libvcruntime:undname.obj
 0002:00006a98       ??_C@_09BLBHBJP@?$GAvbtable?8@ 10076a98     libvcruntime:undname.obj
 0002:00006aa4       ??_C@_07FEEIOKP@?$GAvcall?8@ 10076aa4     libvcruntime:undname.obj
 0002:00006ab0       ??_C@_08LLFFHHDJ@?$GAtypeof?8@ 10076ab0     libvcruntime:undname.obj
 0002:00006abc       ??_C@_0BF@KDPPACIK@?$GAlocal?5static?5guard?8@ 10076abc     libvcruntime:undname.obj
 0002:00006ad8       ??_C@_08OBABFOLI@?$GAstring?8@ 10076ad8     libvcruntime:undname.obj
 0002:00006ae4       ??_C@_0BD@JDLKDPAB@?$GAvbase?5destructor?8@ 10076ae4     libvcruntime:undname.obj
 0002:00006afc       ??_C@_0BN@DEGPLNFK@?$GAvector?5deleting?5destructor?8@ 10076afc     libvcruntime:undname.obj
 0002:00006b20       ??_C@_0BO@OBMKPJIG@?$GAdefault?5constructor?5closure?8@ 10076b20     libvcruntime:undname.obj
 0002:00006b44       ??_C@_0BN@IMDCHIKM@?$GAscalar?5deleting?5destructor?8@ 10076b44     libvcruntime:undname.obj
 0002:00006b68       ??_C@_0BO@PFGOCPJJ@?$GAvector?5constructor?5iterator?8@ 10076b68     libvcruntime:undname.obj
 0002:00006b8c       ??_C@_0BN@LFPFMEDL@?$GAvector?5destructor?5iterator?8@ 10076b8c     libvcruntime:undname.obj
 0002:00006bb0       ??_C@_0CE@IKBNEHA@?$GAvector?5vbase?5constructor?5itera@ 10076bb0     libvcruntime:undname.obj
 0002:00006bdc       ??_C@_0BL@NILFHHPC@?$GAvirtual?5displacement?5map?8@ 10076bdc     libvcruntime:undname.obj
 0002:00006bfc       ??_C@_0CB@JONCMFFK@?$GAeh?5vector?5constructor?5iterator@ 10076bfc     libvcruntime:undname.obj
 0002:00006c24       ??_C@_0CA@GCEOPDGL@?$GAeh?5vector?5destructor?5iterator?8@ 10076c24     libvcruntime:undname.obj
 0002:00006c4c       ??_C@_0CH@OOJPLCPH@?$GAeh?5vector?5vbase?5constructor?5it@ 10076c4c     libvcruntime:undname.obj
 0002:00006c7c       ??_C@_0BL@LLKPOHJI@?$GAcopy?5constructor?5closure?8@ 10076c7c     libvcruntime:undname.obj
 0002:00006c9c       ??_C@_0BA@KBCDOMBN@?$GAudt?5returning?8@ 10076c9c     libvcruntime:undname.obj
 0002:00006cb0       ??_C@_03KLGMFNMG@?$GAEH@   10076cb0     libvcruntime:undname.obj
 0002:00006cb4       ??_C@_05KHLCHHI@?$GARTTI@  10076cb4     libvcruntime:undname.obj
 0002:00006cbc       ??_C@_0BA@KKLDJDLB@?$GAlocal?5vftable?8@ 10076cbc     libvcruntime:undname.obj
 0002:00006cd0       ??_C@_0CE@IIHCMGGL@?$GAlocal?5vftable?5constructor?5clos@ 10076cd0     libvcruntime:undname.obj
 0002:00006cfc       ??_C@_06FHBGPFGH@?5new?$FL?$FN@ 10076cfc     libvcruntime:undname.obj
 0002:00006d04       ??_C@_09LBNFPBCA@?5delete?$FL?$FN@ 10076d04     libvcruntime:undname.obj
 0002:00006d10       ??_C@_0P@HJKNJFNN@?$GAomni?5callsig?8@ 10076d10     libvcruntime:undname.obj
 0002:00006d24       ??_C@_0BL@CNOONJFP@?$GAplacement?5delete?5closure?8@ 10076d24     libvcruntime:undname.obj
 0002:00006d44       ??_C@_0BN@CKNJLHMB@?$GAplacement?5delete?$FL?$FN?5closure?8@ 10076d44     libvcruntime:undname.obj
 0002:00006d68       ??_C@_0CG@CFDHKGGD@?$GAmanaged?5vector?5constructor?5ite@ 10076d68     libvcruntime:undname.obj
 0002:00006d98       ??_C@_0CF@IMGKMJNO@?$GAmanaged?5vector?5destructor?5iter@ 10076d98     libvcruntime:undname.obj
 0002:00006dc4       ??_C@_0CG@HLDDJMAG@?$GAeh?5vector?5copy?5constructor?5ite@ 10076dc4     libvcruntime:undname.obj
 0002:00006df4       ??_C@_0CM@FCBBDIGB@?$GAeh?5vector?5vbase?5copy?5construct@ 10076df4     libvcruntime:undname.obj
 0002:00006e28       ??_C@_0BL@CLIPGLGB@?$GAdynamic?5initializer?5for?5?8@ 10076e28     libvcruntime:undname.obj
 0002:00006e48       ??_C@_0CB@PDBIFEP@?$GAdynamic?5atexit?5destructor?5for?5@ 10076e48     libvcruntime:undname.obj
 0002:00006e70       ??_C@_0CD@CGAJBKEJ@?$GAvector?5copy?5constructor?5iterat@ 10076e70     libvcruntime:undname.obj
 0002:00006e9c       ??_C@_0CJ@GJELGAMM@?$GAvector?5vbase?5copy?5constructor?5@ 10076e9c     libvcruntime:undname.obj
 0002:00006ed0       ??_C@_0CL@FGIJHLCE@?$GAmanaged?5vector?5copy?5constructo@ 10076ed0     libvcruntime:undname.obj
 0002:00006f04       ??_C@_0BM@PMGGMLDN@?$GAlocal?5static?5thread?5guard?8@ 10076f04     libvcruntime:undname.obj
 0002:00006f28       ??_C@_0N@BDNMDMOL@operator?5?$CC?$CC?5@ 10076f28     libvcruntime:undname.obj
 0002:00006f38       ??_C@_0BC@GGEBGALA@operator?5co_await@ 10076f38     libvcruntime:undname.obj
 0002:00006f50       ??_C@_0BC@DAFEJGAK@?5Type?5Descriptor?8@ 10076f50     libvcruntime:undname.obj
 0002:00006f68       ??_C@_0BM@LDKODKLH@?5Base?5Class?5Descriptor?5at?5?$CI@ 10076f68     libvcruntime:undname.obj
 0002:00006f8c       ??_C@_0BD@LGICGFMM@?5Base?5Class?5Array?8@ 10076f8c     libvcruntime:undname.obj
 0002:00006fa4       ??_C@_0BN@MECKDCOJ@?5Class?5Hierarchy?5Descriptor?8@ 10076fa4     libvcruntime:undname.obj
 0002:00006fc8       ??_C@_0BK@CFCOFLF@?5Complete?5Object?5Locator?8@ 10076fc8     libvcruntime:undname.obj
 0002:00006fe8       ??_C@_04HEJADOOB@CV?3?5@   10076fe8     libvcruntime:undname.obj
 0002:00006ff0       ??_C@_02MOLJINC@?3?3@      10076ff0     libvcruntime:undname.obj
 0002:00006ff4       ??_C@_0BE@JAEOCHPE@template?9parameter?9@ 10076ff4     libvcruntime:undname.obj
 0002:0000700c       ??_C@_0O@KHGCOMHP@generic?9type?9@ 1007700c     libvcruntime:undname.obj
 0002:0000701c       ??_C@_01NLNLIGKH@?$GA@     1007701c     libvcruntime:undname.obj
 0002:00007020       ??_C@_01GEODFPGF@?8@       10077020     libvcruntime:undname.obj
 0002:00007024       ??_C@_0BG@JNJLAMPM@?$GAanonymous?5namespace?8@ 10077024     libvcruntime:undname.obj
 0002:00007040       ??_C@_02OHHJMEON@?8?8@     10077040     libvcruntime:undname.obj
 0002:00007044       ??_C@_0BN@IBLMMFAP@?$GAnon?9type?9template?9parameter@ 10077044     libvcruntime:undname.obj
 0002:00007068       ??_C@_04GKJNKENE@void@     10077068     libvcruntime:undname.obj
 0002:00007070       ??_C@_0BE@EODMJLIF@?$GAtemplate?9parameter@ 10077070     libvcruntime:undname.obj
 0002:00007088       ??_C@_03KHICJKCI@?4?4?4@   10077088     libvcruntime:undname.obj
 0002:0000708c       ??_C@_04HIBGFPH@NULL@      1007708c     libvcruntime:undname.obj
 0002:00007094       ??_C@_02DPKJAMEF@?$CFd@    10077094     libvcruntime:undname.obj
 0002:00007098       ??_C@_0BK@IHCCFNEL@?$GAtemplate?9type?9parameter?9@ 10077098     libvcruntime:undname.obj
 0002:000070b8       ??_C@_0BK@OFCNNNKO@?$GAgeneric?9class?9parameter?9@ 100770b8     libvcruntime:undname.obj
 0002:000070d8       ??_C@_0BL@NGJBLFIL@?$GAgeneric?9method?9parameter?9@ 100770d8     libvcruntime:undname.obj
 0002:000070f8       ??_C@_03OPGICMGF@?$HN?8?5@ 100770f8     libvcruntime:undname.obj
 0002:000070fc       ??_C@_02IGFCGPIL@?$HN?8@   100770fc     libvcruntime:undname.obj
 0002:00007100       ??_C@_01CLKCMJKC@?5@       10077100     libvcruntime:undname.obj
 0002:00007104       ??_C@_0N@CBHHHENL@?$GAvtordispex?$HL@ 10077104     libvcruntime:undname.obj
 0002:00007114       ??_C@_0L@GHPFDFH@?$GAvtordisp?$HL@ 10077114     libvcruntime:undname.obj
 0002:00007124       ??_C@_0L@HNGCOGAE@?$GAadjustor?$HL@ 10077124     libvcruntime:undname.obj
 0002:00007134       ??_C@_0CB@KJDOOODE@?$GAlocal?5static?5destructor?5helper@ 10077134     libvcruntime:undname.obj
 0002:0000715c       ??_C@_0DB@ILEFOCIJ@?$GAtemplate?5static?5data?5member?5co@ 1007715c     libvcruntime:undname.obj
 0002:00007198       ??_C@_0DA@HGFJFBBE@?$GAtemplate?5static?5data?5member?5de@ 10077198     libvcruntime:undname.obj
 0002:000071d4       ??_C@_07PGOEDBHP@static?5@ 100771d4     libvcruntime:undname.obj
 0002:000071e0       ??_C@_08NIEOINHE@virtual?5@ 100771e0     libvcruntime:undname.obj
 0002:000071ec       ??_C@_09LAPHOOG@private?3?5@ 100771ec     libvcruntime:undname.obj
 0002:000071f8       ??_C@_0M@GAIFPFIP@protected?3?5@ 100771f8     libvcruntime:undname.obj
 0002:00007208       ??_C@_08GPDDCMKI@public?3?5@ 10077208     libvcruntime:undname.obj
 0002:00007214       ??_C@_08KJLFOPNE@?$FLthunk?$FN?3@ 10077214     libvcruntime:undname.obj
 0002:00007220       ??_C@_0M@DHNBOJMP@extern?5?$CCC?$CC?5@ 10077220     libvcruntime:undname.obj
 0002:00007230       ??_C@_02KCKGHPCA@?$CJ?5@   10077230     libvcruntime:undname.obj
 0002:00007234       ??_C@_05CIHEBHNO@char?5@   10077234     libvcruntime:undname.obj
 0002:0000723c       ??_C@_06EHJMALKF@short?5@  1007723c     libvcruntime:undname.obj
 0002:00007244       ??_C@_04LAHKHJMA@int?5@    10077244     libvcruntime:undname.obj
 0002:0000724c       ??_C@_05CJIMAING@long?5@   1007724c     libvcruntime:undname.obj
 0002:00007254       ??_C@_09EBBEKKIH@unsigned?5@ 10077254     libvcruntime:undname.obj
 0002:00007260       ??_C@_05BEFAKPML@void?5@   10077260     libvcruntime:undname.obj
 0002:00007268       ??_C@_08PABEKFH@volatile@  10077268     libvcruntime:undname.obj
 0002:00007274       ??_C@_0BA@LKIJLKPP@std?3?3nullptr_t?5@ 10077274     libvcruntime:undname.obj
 0002:00007288       ??_C@_0P@GCOCNKDM@std?3?3nullptr_t@ 10077288     libvcruntime:undname.obj
 0002:0000729c       ??_C@_0L@EGPHHEKN@?$DMellipsis?$DO@ 1007729c     libvcruntime:undname.obj
 0002:000072ac       ??_C@_04EENFHACM@?0?4?4?4@ 100772ac     libvcruntime:undname.obj
 0002:000072b4       ??_C@_0M@ELJOJFFH@?0?$DMellipsis?$DO@ 100772b4     libvcruntime:undname.obj
 0002:000072c4       ??_C@_09DNHFEOJI@?5noexcept@ 100772c4     libvcruntime:undname.obj
 0002:000072d0       ??_C@_03PBJBJNON@cpu@      100772d0     libvcruntime:undname.obj
 0002:000072d4       ??_C@_03DCBBJBAA@amp@      100772d4     libvcruntime:undname.obj
 0002:000072d8       ??_C@_02KEGNLNML@?0?5@     100772d8     libvcruntime:undname.obj
 0002:000072dc       ??_C@_04ENMBGAPA@char@     100772dc     libvcruntime:undname.obj
 0002:000072e4       ??_C@_05BFKKPKCG@short@    100772e4     libvcruntime:undname.obj
 0002:000072ec       ??_C@_03JBIPMCLC@int@      100772ec     libvcruntime:undname.obj
 0002:000072f0       ??_C@_04GOKPGOLB@long@     100772f0     libvcruntime:undname.obj
 0002:000072f8       ??_C@_04DDKJGDCM@bool@     100772f8     libvcruntime:undname.obj
 0002:00007300       ??_C@_06EBGKOKIG@__int8@   10077300     libvcruntime:undname.obj
 0002:00007308       ??_C@_07ICFHOGAF@__int16@  10077308     libvcruntime:undname.obj
 0002:00007314       ??_C@_07OFLPPHGP@__int32@  10077314     libvcruntime:undname.obj
 0002:00007320       ??_C@_07LFCOJCAC@__int64@  10077320     libvcruntime:undname.obj
 0002:0000732c       ??_C@_08GAHOLHEO@__int128@ 1007732c     libvcruntime:undname.obj
 0002:00007338       ??_C@_09EEKGDCPH@?$DMunknown?$DO@ 10077338     libvcruntime:undname.obj
 0002:00007344       ??_C@_08HBIPOFJB@char16_t@ 10077344     libvcruntime:undname.obj
 0002:00007350       ??_C@_08IECNCBKG@char32_t@ 10077350     libvcruntime:undname.obj
 0002:0000735c       ??_C@_07CLGGIAMF@wchar_t@  1007735c     libvcruntime:undname.obj
 0002:00007368       ??_C@_06GCICPBLB@__w64?5@  10077368     libvcruntime:undname.obj
 0002:00007370       ??_C@_07NFANNNEC@UNKNOWN@  10077370     libvcruntime:undname.obj
 0002:0000737c       ??_C@_07EDHNAJHC@signed?5@ 1007737c     libvcruntime:undname.obj
 0002:00007388       ??_C@_05BNCCCJPP@const@    10077388     libvcruntime:undname.obj
 0002:00007390       ??_C@_09EFNPDFFP@?5volatile@ 10077390     libvcruntime:undname.obj
 0002:0000739c       ??_C@_0P@GCIFDJCJ@?$GAunknown?5ecsu?8@ 1007739c     libvcruntime:undname.obj
 0002:000073b0       ??_C@_06MOJHIBMG@union?5@  100773b0     libvcruntime:undname.obj
 0002:000073b8       ??_C@_07DIBCDNGL@struct?5@ 100773b8     libvcruntime:undname.obj
 0002:000073c4       ??_C@_06LJBABKPM@class?5@  100773c4     libvcruntime:undname.obj
 0002:000073cc       ??_C@_08KOFANOFK@coclass?5@ 100773cc     libvcruntime:undname.obj
 0002:000073d8       ??_C@_0N@DLIEFKNA@cointerface?5@ 100773d8     libvcruntime:undname.obj
 0002:000073e8       ??_C@_05LJGMCFOG@enum?5@   100773e8     libvcruntime:undname.obj
 0002:000073f0       ??_C@_09GAIEOBLP@volatile?5@ 100773f0     libvcruntime:undname.obj
 0002:000073fc       ??_C@_06LIJLOJAG@const?5@  100773fc     libvcruntime:undname.obj
 0002:00007404       ??_C@_02KJPKDIBN@?$CG?5@   10077404     libvcruntime:undname.obj
 0002:00007408       ??_C@_03PCKGMOPB@?$CG?$CG?5@ 10077408     libvcruntime:undname.obj
 0002:0000740c       ??_C@_0M@EALIELKG@cli?3?3array?$DM@ 1007740c     libvcruntime:undname.obj
 0002:0000741c       ??_C@_0O@GKABPPIF@cli?3?3pin_ptr?$DM@ 1007741c     libvcruntime:undname.obj
 0002:0000742c       ??_C@_02GOGNNPBN@?$CJ?$FL@ 1007742c     libvcruntime:undname.obj
 0002:00007430       ??_C@_06EEGAIFAK@?$HLflat?$HN@ 10077430     libvcruntime:undname.obj
 0002:00007438       ??_C@_05JIBOFOHK@?$HLfor?5@ 10077438     libvcruntime:undname.obj
 0002:00007440       ??_C@_02MDINNEEG@s?5@      10077440     libvcruntime:undname.obj
 0002:00007448       ??_7DNameNode@@6B@         10077448     libvcruntime:undname.obj
 0002:0000745c       ??_7charNode@@6B@          1007745c     libvcruntime:undname.obj
 0002:00007470       ??_7pcharNode@@6B@         10077470     libvcruntime:undname.obj
 0002:00007484       ??_7pDNameNode@@6B@        10077484     libvcruntime:undname.obj
 0002:00007498       ??_7DNameStatusNode@@6B@   10077498     libvcruntime:undname.obj
 0002:000074ac       ??_7pairNode@@6B@          100774ac     libvcruntime:undname.obj
 0002:000074bc       ??_C@_04OKOHEJBO@?5?$DP?$DP?5@ 100774bc     libvcruntime:undname.obj
 0002:000074c4       ?nodes@?1??make@DNameStatusNode@@SAPBV2@W4DNameStatus@@@Z@4QBV2@B 100774c4     libvcruntime:undname.obj
 0002:00007510       ??_C@_1DM@KHCHBNEB@?$AAa?$AAp?$AAi?$AA?9?$AAm?$AAs?$AA?9?$AAw?$AAi?$AAn?$AA?9?$AAc?$AAo?$AAr?$AAe@ 10077510     libvcruntime:winapi_downlevel.obj
 0002:00007558       ??_C@_1DK@LPPGFMPP@?$AAa?$AAp?$AAi?$AA?9?$AAm?$AAs?$AA?9?$AAw?$AAi?$AAn?$AA?9?$AAc?$AAo?$AAr?$AAe@ 10077558     libvcruntime:winapi_downlevel.obj
 0002:000075a0       ??_C@_1BC@GDMECMAK@?$AAk?$AAe?$AAr?$AAn?$AAe?$AAl?$AA3?$AA2@ 100775a0     libvcruntime:winapi_downlevel.obj
 0002:000075b8       ??_C@_1BA@PFFKHIOG@?$AAa?$AAp?$AAi?$AA?9?$AAm?$AAs?$AA?9@ 100775b8     libvcruntime:winapi_downlevel.obj
 0002:000075cc       ??_C@_1BA@IAIFMGEF@?$AAe?$AAx?$AAt?$AA?9?$AAm?$AAs?$AA?9@ 100775cc     libvcruntime:winapi_downlevel.obj
 0002:000075ec       ??_C@_08KNHFBNJ@FlsAlloc@  100775ec     libvcruntime:winapi_downlevel.obj
 0002:00007604       ??_C@_07PEJMOBNF@FlsFree@  10077604     libvcruntime:winapi_downlevel.obj
 0002:0000761c       ??_C@_0M@GDNOONDI@FlsGetValue@ 1007761c     libvcruntime:winapi_downlevel.obj
 0002:00007638       ??_C@_0M@JCPCPOEF@FlsSetValue@ 10077638     libvcruntime:winapi_downlevel.obj
 0002:00007654       ??_C@_0BM@HCFOFFN@InitializeCriticalSectionEx@ 10077654     libvcruntime:winapi_downlevel.obj
 0002:0000767c       ??_7exception@std@@6B@     1007767c     libvcruntime:frame.obj
 0002:00007688       ??_C@_0BC@EOODALEL@Unknown?5exception@ 10077688     libvcruntime:frame.obj
 0002:000076a4       ??_7bad_exception@std@@6B@ 100776a4     libvcruntime:frame.obj
 0002:000076b0       ??_C@_0O@DPKOEFFH@bad?5exception@ 100776b0     libvcruntime:frame.obj
 0002:000076c0       __pDestructExceptionObject 100776c0     libvcruntime:ehhelpers.obj
 0002:000076ec       ??_C@_0CK@CFPGFGGO@Assertion?5failed?3?5?$CFTs?0?5file?5?$CFTs?0@ 100776ec     libucrt:assert.obj
 0002:00007720       ??_C@_1FE@LHBLIKM@?$AAA?$AAs?$AAs?$AAe?$AAr?$AAt?$AAi?$AAo?$AAn?$AA?5?$AAf?$AAa?$AAi?$AAl?$AAe?$AAd?$AA?3?$AA?5?$AA?$CF?$AAT?$AAs?$AA?0?$AA?5?$AAf?$AAi?$AAl?$AAe?$AA?5?$AA?$CF?$AAT?$AAs?$AA?0@ 10077720     libucrt:assert.obj
 0002:00007784       ??_C@_0CF@GOGNBNAK@Microsoft?5Visual?5C?$CL?$CL?5Runtime?5Lib@ 10077784     libucrt:assert.obj
 0002:000077b0       ??_C@_1EK@MBDPDCGA@?$AAM?$AAi?$AAc?$AAr?$AAo?$AAs?$AAo?$AAf?$AAt?$AA?5?$AAV?$AAi?$AAs?$AAu?$AAa?$AAl?$AA?5?$AAC?$AA?$CL?$AA?$CL?$AA?5?$AAR?$AAu?$AAn?$AAt?$AAi?$AAm?$AAe?$AA?5?$AAL?$AAi?$AAb@ 100777b0     libucrt:assert.obj
 0002:00007808       ??_C@_0BC@LAIDCHCH@Assertion?5failed?$CB?$AA@ 10077808     libucrt:assert.obj
 0002:00007820       ??_C@_1CE@OJBNHDMO@?$AAA?$AAs?$AAs?$AAe?$AAr?$AAt?$AAi?$AAo?$AAn?$AA?5?$AAf?$AAa?$AAi?$AAl?$AAe?$AAd?$AA?$CB?$AA?$AA@ 10077820     libucrt:assert.obj
 0002:0000784c       ??_C@_09KLGCKDOD@Program?3?5?$AA@ 1007784c     libucrt:assert.obj
 0002:00007858       ??_C@_1BE@PHKBBGE@?$AAP?$AAr?$AAo?$AAg?$AAr?$AAa?$AAm?$AA?3?$AA?5?$AA?$AA@ 10077858     libucrt:assert.obj
 0002:00007870       ??_C@_06IGPBOHMJ@File?3?5?$AA@ 10077870     libucrt:assert.obj
 0002:00007878       ??_C@_1O@HEMHKNDC@?$AAF?$AAi?$AAl?$AAe?$AA?3?$AA?5?$AA?$AA@ 10077878     libucrt:assert.obj
 0002:00007888       ??_C@_06FIEBOLOH@Line?3?5?$AA@ 10077888     libucrt:assert.obj
 0002:00007890       ??_C@_1O@KCAFKHJE@?$AAL?$AAi?$AAn?$AAe?$AA?3?$AA?5?$AA?$AA@ 10077890     libucrt:assert.obj
 0002:000078a0       ??_C@_0N@MEECIJGN@Expression?3?5?$AA@ 100778a0     libucrt:assert.obj
 0002:000078b0       ??_C@_1BK@PEDCIPMA@?$AAE?$AAx?$AAp?$AAr?$AAe?$AAs?$AAs?$AAi?$AAo?$AAn?$AA?3?$AA?5?$AA?$AA@ 100778b0     libucrt:assert.obj
 0002:000078d0       ??_C@_0HA@OJHAGA@For?5information?5on?5how?5your?5prog@ 100778d0     libucrt:assert.obj
 0002:00007958       ??_C@_1OA@EGMLFBHJ@?$AAF?$AAo?$AAr?$AA?5?$AAi?$AAn?$AAf?$AAo?$AAr?$AAm?$AAa?$AAt?$AAi?$AAo?$AAn?$AA?5?$AAo?$AAn?$AA?5?$AAh?$AAo?$AAw?$AA?5?$AAy?$AAo?$AAu?$AAr?$AA?5?$AAp?$AAr?$AAo?$AAg@ 10077958     libucrt:assert.obj
 0002:00007a64       ??_C@_0DN@EBBNMLME@?$CIPress?5Retry?5to?5debug?5the?5applic@ 10077a64     libucrt:assert.obj
 0002:00007ab0       ??_C@_1HK@POCJMFGK@?$AA?$CI?$AAP?$AAr?$AAe?$AAs?$AAs?$AA?5?$AAR?$AAe?$AAt?$AAr?$AAy?$AA?5?$AAt?$AAo?$AA?5?$AAd?$AAe?$AAb?$AAu?$AAg?$AA?5?$AAt?$AAh?$AAe?$AA?5?$AAa?$AAp?$AAp?$AAl?$AAi?$AAc@ 10077ab0     libucrt:assert.obj
 0002:00007b44       ??_C@_03KHICJKCI@?4?4?4?$AA@ 10077b44     libucrt:assert.obj
 0002:00007b48       ??_C@_17LGKOMLJ@?$AA?4?$AA?4?$AA?4?$AA?$AA@ 10077b48     libucrt:assert.obj
 0002:00007b54       ??_C@_01EEMJAFIK@?6?$AA@   10077b54     libucrt:assert.obj
 0002:00007b58       ??_C@_13LBAGMAIH@?$AA?6?$AA?$AA@ 10077b58     libucrt:assert.obj
 0002:00007b5c       ??_C@_02PHMGELLB@?6?6?$AA@ 10077b5c     libucrt:assert.obj
 0002:00007b60       ??_C@_15IABLJNFO@?$AA?6?$AA?6?$AA?$AA@ 10077b60     libucrt:assert.obj
 0002:00007b68       ??_C@_0BH@DNAGHKFM@?$DMprogram?5name?5unknown?$DO?$AA@ 10077b68     libucrt:assert.obj
 0002:00007b84       ??_C@_1CO@EAEJAADC@?$AA?$DM?$AAp?$AAr?$AAo?$AAg?$AAr?$AAa?$AAm?$AA?5?$AAn?$AAa?$AAm?$AAe?$AA?5?$AAu?$AAn?$AAk?$AAn?$AAo?$AAw?$AAn?$AA?$DO?$AA?$AA@ 10077b84     libucrt:assert.obj
 0002:00007bbc       _RtlNtPathSeperatorString  10077bbc     libucrt:exit.obj
 0002:00007bc8       ??_C@_13FPGAJAPJ@?$AA?2?$AA?$AA@ 10077bc8     libucrt:exit.obj
 0002:00007bcc       _RtlDosPathSeperatorsString 10077bcc     libucrt:exit.obj
 0002:00007bd8       ??_C@_15MNCACJLI@?$AA?2?$AA?1?$AA?$AA@ 10077bd8     libucrt:exit.obj
 0002:00007be0       _RtlAlternateDosPathSeperatorString 10077be0     libucrt:exit.obj
 0002:00007bec       ??_C@_13CGOKJPIL@?$AA?1?$AA?$AA@ 10077bec     libucrt:exit.obj
 0002:00007bf0       ??_C@_1BI@BGOHAHKC@?$AAm?$AAs?$AAc?$AAo?$AAr?$AAe?$AAe?$AA?4?$AAd?$AAl?$AAl?$AA?$AA@ 10077bf0     libucrt:exit.obj
 0002:00007c0c       ??_C@_0P@MIGLKIOC@CorExitProcess?$AA@ 10077c0c     libucrt:exit.obj
 0002:00007c20       _standard_lookup_table     10077c20     libucrt:output.obj
 0002:00007c90       _format_validation_lookup_table 10077c90     libucrt:output.obj
 0002:00007d00       ??_C@_1O@CEDCILHN@?$AA?$CI?$AAn?$AAu?$AAl?$AAl?$AA?$CJ?$AA?$AA@ 10077d00     libucrt:output.obj
 0002:00007d10       ??_C@_06OJHGLDPL@?$CInull?$CJ?$AA@ 10077d10     libucrt:output.obj
 0002:00007d18       __real@0000000000000000    10077d18     libucrt:ldexp.obj
 0002:00007e40       ??_C@_03KHJOGHMM@exp?$AA@  10077e40     libucrt:fpexcept.obj
 0002:00007e44       ??_C@_03JGHBODFD@pow?$AA@  10077e44     libucrt:fpexcept.obj
 0002:00007e48       ??_C@_03MGHMBJCF@log?$AA@  10077e48     libucrt:fpexcept.obj
 0002:00007e4c       ??_C@_05HGHHAHAP@log10?$AA@ 10077e4c     libucrt:fpexcept.obj
 0002:00007e54       ??_C@_04COOMCNPB@sinh?$AA@ 10077e54     libucrt:fpexcept.obj
 0002:00007e5c       ??_C@_04HPJJNFIM@cosh?$AA@ 10077e5c     libucrt:fpexcept.obj
 0002:00007e64       ??_C@_04FJHINJAO@tanh?$AA@ 10077e64     libucrt:fpexcept.obj
 0002:00007e6c       ??_C@_04FIHNOPOL@asin?$AA@ 10077e6c     libucrt:fpexcept.obj
 0002:00007e74       ??_C@_04PDIFKINK@acos?$AA@ 10077e74     libucrt:fpexcept.obj
 0002:00007e7c       ??_C@_04MLLJIGOK@atan?$AA@ 10077e7c     libucrt:fpexcept.obj
 0002:00007e84       ??_C@_05KNGEOGJB@atan2?$AA@ 10077e84     libucrt:fpexcept.obj
 0002:00007e8c       ??_C@_04EIAKFFMI@sqrt?$AA@ 10077e8c     libucrt:fpexcept.obj
 0002:00007e94       ??_C@_03BLEJJJBH@sin?$AA@  10077e94     libucrt:fpexcept.obj
 0002:00007e98       ??_C@_03LALBNOCG@cos?$AA@  10077e98     libucrt:fpexcept.obj
 0002:00007e9c       ??_C@_03IIINPABG@tan?$AA@  10077e9c     libucrt:fpexcept.obj
 0002:00007ea0       ??_C@_04GFPJNGEK@ceil?$AA@ 10077ea0     libucrt:fpexcept.obj
 0002:00007ea8       ??_C@_05PBJFFIGL@floor?$AA@ 10077ea8     libucrt:fpexcept.obj
 0002:00007eb0       ??_C@_04ODHECPBC@fabs?$AA@ 10077eb0     libucrt:fpexcept.obj
 0002:00007eb8       ??_C@_04EHEDPDJG@modf?$AA@ 10077eb8     libucrt:fpexcept.obj
 0002:00007ec0       ??_C@_05CEJMAHNP@ldexp?$AA@ 10077ec0     libucrt:fpexcept.obj
 0002:00007ec8       ??_C@_05KBKMEMPO@_cabs?$AA@ 10077ec8     libucrt:fpexcept.obj
 0002:00007ed0       ??_C@_06MEIMCGCF@_hypot?$AA@ 10077ed0     libucrt:fpexcept.obj
 0002:00007ed8       ??_C@_04KEPJIHGP@fmod?$AA@ 10077ed8     libucrt:fpexcept.obj
 0002:00007ee0       ??_C@_05GKKHEGJL@frexp?$AA@ 10077ee0     libucrt:fpexcept.obj
 0002:00007ee8       ??_C@_03MJLDFKDL@_y0?$AA@  10077ee8     libucrt:fpexcept.obj
 0002:00007eec       ??_C@_03NAKIGLHK@_y1?$AA@  10077eec     libucrt:fpexcept.obj
 0002:00007ef0       ??_C@_03ONILCKOB@_yn?$AA@  10077ef0     libucrt:fpexcept.obj
 0002:00007ef4       ??_C@_05JGDBENOH@_logb?$AA@ 10077ef4     libucrt:fpexcept.obj
 0002:00007efc       ??_C@_0L@KDOEJCKC@_nextafter?$AA@ 10077efc     libucrt:fpexcept.obj
 0002:00007f10       ___acrt_exception_action_table 10077f10     libucrt:exception_filter.obj
 0002:00007fbc       ___acrt_signal_action_table_count 10077fbc     libucrt:exception_filter.obj
 0002:00007fc0       ___acrt_signal_action_table_size 10077fc0     libucrt:exception_filter.obj
 0002:00007fc4       ___acrt_signal_action_first_fpe_index 10077fc4     libucrt:exception_filter.obj
 0002:00007fc8       ___acrt_signal_action_fpe_count 10077fc8     libucrt:exception_filter.obj
 0002:0000806c       __Fenv1                    1007806c     libucrt:atox.obj
 0002:00008078       ??_C@_1DE@JNGNBFGO@?$AAR?$AAu?$AAn?$AAt?$AAi?$AAm?$AAe?$AA?5?$AAE?$AAr?$AAr?$AAo?$AAr?$AA?$CB?$AA?6?$AA?6?$AAP?$AAr?$AAo?$AAg?$AAr?$AAa?$AAm?$AA?3?$AA?5?$AA?$AA@ 10078078     libucrt:report_runtime_error.obj
 0002:000082c0       ??_C@_1EA@JGEFHKEI@?$AAa?$AAp?$AAi?$AA?9?$AAm?$AAs?$AA?9?$AAw?$AAi?$AAn?$AA?9?$AAc?$AAo?$AAr?$AAe?$AA?9?$AAd?$AAa?$AAt?$AAe?$AAt?$AAi?$AAm?$AAe?$AA?9?$AAl?$AA1?$AA?9?$AA1?$AA?9?$AA1?$AA?$AA@ 100782c0     libucrt:winapi_thunks.obj
 0002:0000830c       ??_C@_1DM@KHCHBNEB@?$AAa?$AAp?$AAi?$AA?9?$AAm?$AAs?$AA?9?$AAw?$AAi?$AAn?$AA?9?$AAc?$AAo?$AAr?$AAe?$AA?9?$AAf?$AAi?$AAb?$AAe?$AAr?$AAs?$AA?9?$AAl?$AA1?$AA?9?$AA1?$AA?9?$AA1?$AA?$AA@ 1007830c     libucrt:winapi_thunks.obj
 0002:00008354       ??_C@_1DI@IJCEHOCB@?$AAa?$AAp?$AAi?$AA?9?$AAm?$AAs?$AA?9?$AAw?$AAi?$AAn?$AA?9?$AAc?$AAo?$AAr?$AAe?$AA?9?$AAf?$AAi?$AAl?$AAe?$AA?9?$AAl?$AA1?$AA?9?$AA2?$AA?9?$AA2?$AA?$AA@ 10078354     libucrt:winapi_thunks.obj
 0002:00008398       ??_C@_1EI@MPIAOHOC@?$AAa?$AAp?$AAi?$AA?9?$AAm?$AAs?$AA?9?$AAw?$AAi?$AAn?$AA?9?$AAc?$AAo?$AAr?$AAe?$AA?9?$AAl?$AAo?$AAc?$AAa?$AAl?$AAi?$AAz?$AAa?$AAt?$AAi?$AAo?$AAn?$AA?9?$AAl?$AA1?$AA?9@ 10078398     libucrt:winapi_thunks.obj
 0002:000083f0       ??_C@_1FK@FPHCKFIE@?$AAa?$AAp?$AAi?$AA?9?$AAm?$AAs?$AA?9?$AAw?$AAi?$AAn?$AA?9?$AAc?$AAo?$AAr?$AAe?$AA?9?$AAl?$AAo?$AAc?$AAa?$AAl?$AAi?$AAz?$AAa?$AAt?$AAi?$AAo?$AAn?$AA?9?$AAo?$AAb?$AAs@ 100783f0     libucrt:winapi_thunks.obj
 0002:00008460       ??_C@_1EM@DILCGIIO@?$AAa?$AAp?$AAi?$AA?9?$AAm?$AAs?$AA?9?$AAw?$AAi?$AAn?$AA?9?$AAc?$AAo?$AAr?$AAe?$AA?9?$AAp?$AAr?$AAo?$AAc?$AAe?$AAs?$AAs?$AAt?$AAh?$AAr?$AAe?$AAa?$AAd?$AAs?$AA?9?$AAl@ 10078460     libucrt:winapi_thunks.obj
 0002:000084bc       ??_C@_1DM@LNCGDDPN@?$AAa?$AAp?$AAi?$AA?9?$AAm?$AAs?$AA?9?$AAw?$AAi?$AAn?$AA?9?$AAc?$AAo?$AAr?$AAe?$AA?9?$AAs?$AAt?$AAr?$AAi?$AAn?$AAg?$AA?9?$AAl?$AA1?$AA?9?$AA1?$AA?9?$AA0?$AA?$AA@ 100784bc     libucrt:winapi_thunks.obj
 0002:00008504       ??_C@_1DK@LPPGFMPP@?$AAa?$AAp?$AAi?$AA?9?$AAm?$AAs?$AA?9?$AAw?$AAi?$AAn?$AA?9?$AAc?$AAo?$AAr?$AAe?$AA?9?$AAs?$AAy?$AAn?$AAc?$AAh?$AA?9?$AAl?$AA1?$AA?9?$AA2?$AA?9?$AA0?$AA?$AA@ 10078504     libucrt:winapi_thunks.obj
 0002:0000854c       ??_C@_1DO@FPAPJEMD@?$AAa?$AAp?$AAi?$AA?9?$AAm?$AAs?$AA?9?$AAw?$AAi?$AAn?$AA?9?$AAc?$AAo?$AAr?$AAe?$AA?9?$AAs?$AAy?$AAs?$AAi?$AAn?$AAf?$AAo?$AA?9?$AAl?$AA1?$AA?9?$AA2?$AA?9?$AA1?$AA?$AA@ 1007854c     libucrt:winapi_thunks.obj
 0002:00008598       ??_C@_1DK@NDHNAHIO@?$AAa?$AAp?$AAi?$AA?9?$AAm?$AAs?$AA?9?$AAw?$AAi?$AAn?$AA?9?$AAc?$AAo?$AAr?$AAe?$AA?9?$AAw?$AAi?$AAn?$AAr?$AAt?$AA?9?$AAl?$AA1?$AA?9?$AA1?$AA?9?$AA0?$AA?$AA@ 10078598     libucrt:winapi_thunks.obj
 0002:000085e0       ??_C@_1DM@KGHDGBCM@?$AAa?$AAp?$AAi?$AA?9?$AAm?$AAs?$AA?9?$AAw?$AAi?$AAn?$AA?9?$AAc?$AAo?$AAr?$AAe?$AA?9?$AAx?$AAs?$AAt?$AAa?$AAt?$AAe?$AA?9?$AAl?$AA2?$AA?9?$AA1?$AA?9?$AA0?$AA?$AA@ 100785e0     libucrt:winapi_thunks.obj
 0002:00008628       ??_C@_1EO@IJIOEFOH@?$AAa?$AAp?$AAi?$AA?9?$AAm?$AAs?$AA?9?$AAw?$AAi?$AAn?$AA?9?$AAr?$AAt?$AAc?$AAo?$AAr?$AAe?$AA?9?$AAn?$AAt?$AAu?$AAs?$AAe?$AAr?$AA?9?$AAw?$AAi?$AAn?$AAd?$AAo?$AAw?$AA?9@ 10078628     libucrt:winapi_thunks.obj
 0002:00008688       ??_C@_1FG@HHGEKANL@?$AAa?$AAp?$AAi?$AA?9?$AAm?$AAs?$AA?9?$AAw?$AAi?$AAn?$AA?9?$AAs?$AAe?$AAc?$AAu?$AAr?$AAi?$AAt?$AAy?$AA?9?$AAs?$AAy?$AAs?$AAt?$AAe?$AAm?$AAf?$AAu?$AAn?$AAc?$AAt?$AAi@ 10078688     libucrt:winapi_thunks.obj
 0002:000086f0       ??_C@_1EG@DBIOJECG@?$AAe?$AAx?$AAt?$AA?9?$AAm?$AAs?$AA?9?$AAw?$AAi?$AAn?$AA?9?$AAn?$AAt?$AAu?$AAs?$AAe?$AAr?$AA?9?$AAd?$AAi?$AAa?$AAl?$AAo?$AAg?$AAb?$AAo?$AAx?$AA?9?$AAl?$AA1?$AA?9?$AA1@ 100786f0     libucrt:winapi_thunks.obj
 0002:00008748       ??_C@_1EO@FIHMJCLF@?$AAe?$AAx?$AAt?$AA?9?$AAm?$AAs?$AA?9?$AAw?$AAi?$AAn?$AA?9?$AAn?$AAt?$AAu?$AAs?$AAe?$AAr?$AA?9?$AAw?$AAi?$AAn?$AAd?$AAo?$AAw?$AAs?$AAt?$AAa?$AAt?$AAi?$AAo?$AAn?$AA?9@ 10078748     libucrt:winapi_thunks.obj
 0002:000087a8       ??_C@_1BC@DNHGCMLG@?$AAa?$AAd?$AAv?$AAa?$AAp?$AAi?$AA3?$AA2?$AA?$AA@ 100787a8     libucrt:winapi_thunks.obj
 0002:000087c0       ??_C@_1BC@GDMECMAK@?$AAk?$AAe?$AAr?$AAn?$AAe?$AAl?$AA3?$AA2?$AA?$AA@ 100787c0     libucrt:winapi_thunks.obj
 0002:000087d8       ??_C@_1M@OAIMIKLP@?$AAn?$AAt?$AAd?$AAl?$AAl?$AA?$AA@ 100787d8     libucrt:winapi_thunks.obj
 0002:000087e8       ??_C@_1EG@DPGNFKGC@?$AAa?$AAp?$AAi?$AA?9?$AAm?$AAs?$AA?9?$AAw?$AAi?$AAn?$AA?9?$AAa?$AAp?$AAp?$AAm?$AAo?$AAd?$AAe?$AAl?$AA?9?$AAr?$AAu?$AAn?$AAt?$AAi?$AAm?$AAe?$AA?9?$AAl?$AA1?$AA?9?$AA1@ 100787e8     libucrt:winapi_thunks.obj
 0002:0000883c       ??_C@_1O@BCCLBEOE@?$AAu?$AAs?$AAe?$AAr?$AA3?$AA2?$AA?$AA@ 1007883c     libucrt:winapi_thunks.obj
 0002:0000884c       ??_C@_1BA@PFFKHIOG@?$AAa?$AAp?$AAi?$AA?9?$AAm?$AAs?$AA?9?$AA?$AA@ 1007884c     libucrt:winapi_thunks.obj
 0002:00008860       ??_C@_1BA@IAIFMGEF@?$AAe?$AAx?$AAt?$AA?9?$AAm?$AAs?$AA?9?$AA?$AA@ 10078860     libucrt:winapi_thunks.obj
 0002:00008878       ??_C@_0BA@FHFNEAED@AreFileApisANSI?$AA@ 10078878     libucrt:winapi_thunks.obj
 0002:00008898       ??_C@_0BA@IHGNDAEB@CompareStringEx?$AA@ 10078898     libucrt:winapi_thunks.obj
 0002:000088b8       ??_C@_0BE@LJANKFHF@EnumSystemLocalesEx?$AA@ 100788b8     libucrt:winapi_thunks.obj
 0002:000088dc       ??_C@_08KNHFBNJ@FlsAlloc?$AA@ 100788dc     libucrt:winapi_thunks.obj
 0002:000088f4       ??_C@_07PEJMOBNF@FlsFree?$AA@ 100788f4     libucrt:winapi_thunks.obj
 0002:0000890c       ??_C@_0M@GDNOONDI@FlsGetValue?$AA@ 1007890c     libucrt:winapi_thunks.obj
 0002:00008928       ??_C@_0M@JCPCPOEF@FlsSetValue?$AA@ 10078928     libucrt:winapi_thunks.obj
 0002:00008944       ??_C@_0BA@HNOPNCHB@GetActiveWindow?$AA@ 10078944     libucrt:winapi_thunks.obj
 0002:00008964       ??_C@_0BA@EPCJIIPD@GetDateFormatEx?$AA@ 10078964     libucrt:winapi_thunks.obj
 0002:00008984       ??_C@_0BJ@DIBIJBHA@GetEnabledXStateFeatures?$AA@ 10078984     libucrt:winapi_thunks.obj
 0002:000089b0       ??_C@_0BD@HHGDFDBJ@GetLastActivePopup?$AA@ 100789b0     libucrt:winapi_thunks.obj
 0002:000089d4       ??_C@_0BA@ONOKGCMP@GetLocaleInfoEx?$AA@ 100789d4     libucrt:winapi_thunks.obj
 0002:000089f4       ??_C@_0BI@DFKBFLJE@GetProcessWindowStation?$AA@ 100789f4     libucrt:winapi_thunks.obj
 0002:00008a14       ??_C@_0BP@FPNJPEJC@GetSystemTimePreciseAsFileTime?$AA@ 10078a14     libucrt:winapi_thunks.obj
 0002:00008a48       ??_C@_0BA@CIJJKCJJ@GetTimeFormatEx?$AA@ 10078a48     libucrt:winapi_thunks.obj
 0002:00008a68       ??_C@_0BJ@PBCCBIPI@GetUserDefaultLocaleName?$AA@ 10078a68     libucrt:winapi_thunks.obj
 0002:00008a94       ??_C@_0BK@DEKFELLI@GetUserObjectInformationW?$AA@ 10078a94     libucrt:winapi_thunks.obj
 0002:00008ac0       ??_C@_0BG@IKLDMBLM@GetXStateFeaturesMask?$AA@ 10078ac0     libucrt:winapi_thunks.obj
 0002:00008ae8       ??_C@_0BM@HCFOFFN@InitializeCriticalSectionEx?$AA@ 10078ae8     libucrt:winapi_thunks.obj
 0002:00008b18       ??_C@_0BC@CELBKLLA@IsValidLocaleName?$AA@ 10078b18     libucrt:winapi_thunks.obj
 0002:00008b3c       ??_C@_0O@KKBNKAPF@LCMapStringEx?$AA@ 10078b3c     libucrt:winapi_thunks.obj
 0002:00008b58       ??_C@_0BB@CDHDDLLP@LCIDToLocaleName?$AA@ 10078b58     libucrt:winapi_thunks.obj
 0002:00008b78       ??_C@_0BB@HBDEELFH@LocaleNameToLCID?$AA@ 10078b78     libucrt:winapi_thunks.obj
 0002:00008b98       ??_C@_0BE@KINNKFDA@LocateXStateFeature?$AA@ 10078b98     libucrt:winapi_thunks.obj
 0002:00008bbc       ??_C@_0M@CHKKJDAI@MessageBoxA?$AA@ 10078bbc     libucrt:winapi_thunks.obj
 0002:00008bd8       ??_C@_0M@DLDCCGNP@MessageBoxW?$AA@ 10078bd8     libucrt:winapi_thunks.obj
 0002:00008bec       ??_C@_0N@PPOMPGGK@RoInitialize?$AA@ 10078bec     libucrt:winapi_thunks.obj
 0002:00008c00       ??_C@_0P@LLFHBIJD@RoUninitialize?$AA@ 10078c00     libucrt:winapi_thunks.obj
 0002:00008c18       ??_C@_0CF@OJOFEIGO@AppPolicyGetProcessTerminationMe@ 10078c18     libucrt:winapi_thunks.obj
 0002:00008c48       ??_C@_0CF@NNDFDCOC@AppPolicyGetThreadInitialization@ 10078c48     libucrt:winapi_thunks.obj
 0002:00008c78       ??_C@_0CE@OICFMIKE@AppPolicyGetShowDeveloperDiagnos@ 10078c78     libucrt:winapi_thunks.obj
 0002:00008ca8       ??_C@_0BL@ODDJNEDA@AppPolicyGetWindowingModel?$AA@ 10078ca8     libucrt:winapi_thunks.obj
 0002:00008cd4       ??_C@_0BI@BKLFFAPO@SetThreadStackGuarantee?$AA@ 10078cd4     libucrt:winapi_thunks.obj
 0002:00008cfc       ??_C@_0BC@JEAENNKH@SystemFunction036?$AA@ 10078cfc     libucrt:winapi_thunks.obj
 0002:00008d14       ?ccs@?1???$__acrt_stdio_parse_mode@D@@YA?AU__acrt_stdio_stream_mode@@QBD@Z@4QBDB 10078d14     libucrt:openfile.obj
 0002:00008d18       ?utf8_encoding@?1???$__acrt_stdio_parse_mode@D@@YA?AU__acrt_stdio_stream_mode@@QBD@Z@4QBDB 10078d18     libucrt:openfile.obj
 0002:00008d20       ?utf16_encoding@?1???$__acrt_stdio_parse_mode@D@@YA?AU__acrt_stdio_stream_mode@@QBD@Z@4QBDB 10078d20     libucrt:openfile.obj
 0002:00008d2c       ?unicode_encoding@?1???$__acrt_stdio_parse_mode@D@@YA?AU__acrt_stdio_stream_mode@@QBD@Z@4QBDB 10078d2c     libucrt:openfile.obj
 0002:00008d34       ?ccs@?1???$__acrt_stdio_parse_mode@_W@@YA?AU__acrt_stdio_stream_mode@@QB_W@Z@4QB_WB 10078d34     libucrt:openfile.obj
 0002:00008d3c       ?utf8_encoding@?1???$__acrt_stdio_parse_mode@_W@@YA?AU__acrt_stdio_stream_mode@@QB_W@Z@4QB_WB 10078d3c     libucrt:openfile.obj
 0002:00008d48       ?utf16_encoding@?1???$__acrt_stdio_parse_mode@_W@@YA?AU__acrt_stdio_stream_mode@@QB_W@Z@4QB_WB 10078d48     libucrt:openfile.obj
 0002:00008d5c       ?unicode_encoding@?1???$__acrt_stdio_parse_mode@_W@@YA?AU__acrt_stdio_stream_mode@@QB_W@Z@4QB_WB 10078d5c     libucrt:openfile.obj
 0002:00008e08       ___lc_category             10078e08     libucrt:wsetlocale.obj
 0002:00008e60       ??_C@_1O@GIFLHMA@?$AAL?$AAC?$AA_?$AAA?$AAL?$AAL?$AA?$AA@ 10078e60     libucrt:wsetlocale.obj
 0002:00008e70       ??_C@_1BG@PPOMIBNJ@?$AAL?$AAC?$AA_?$AAC?$AAO?$AAL?$AAL?$AAA?$AAT?$AAE?$AA?$AA@ 10078e70     libucrt:wsetlocale.obj
 0002:00008e8c       ??_C@_1BC@FFJGAPJM@?$AAL?$AAC?$AA_?$AAC?$AAT?$AAY?$AAP?$AAE?$AA?$AA@ 10078e8c     libucrt:wsetlocale.obj
 0002:00008ea4       ??_C@_1BI@PCKFNJFB@?$AAL?$AAC?$AA_?$AAM?$AAO?$AAN?$AAE?$AAT?$AAA?$AAR?$AAY?$AA?$AA@ 10078ea4     libucrt:wsetlocale.obj
 0002:00008ec0       ??_C@_1BG@ENIEDKID@?$AAL?$AAC?$AA_?$AAN?$AAU?$AAM?$AAE?$AAR?$AAI?$AAC?$AA?$AA@ 10078ec0     libucrt:wsetlocale.obj
 0002:00008edc       ??_C@_1BA@HAAOMIIG@?$AAL?$AAC?$AA_?$AAT?$AAI?$AAM?$AAE?$AA?$AA@ 10078edc     libucrt:wsetlocale.obj
 0002:00008ef0       ??_C@_15NBPDDFIP@?$AA?$DN?$AA?$DL?$AA?$AA@ 10078ef0     libucrt:wsetlocale.obj
 0002:00008ef8       ??_C@_13PJJBFPED@?$AA?$DL?$AA?$AA@ 10078ef8     libucrt:wsetlocale.obj
 0002:00008efc       ??_C@_13NMPKAAJP@?$AA?$DN?$AA?$AA@ 10078efc     libucrt:wsetlocale.obj
 0002:00008f00       ??_C@_13FHBKNHDA@?$AAC?$AA?$AA@ 10078f00     libucrt:wsetlocale.obj
 0002:00008f04       ??_C@_19MPDNHKDG@?$AAu?$AAt?$AAf?$AA8?$AA?$AA@ 10078f04     libucrt:wsetlocale.obj
 0002:00008f10       ??_C@_1M@FPEIIFAM@?$AAu?$AAt?$AAf?$AA?9?$AA8?$AA?$AA@ 10078f10     libucrt:wsetlocale.obj
 0002:00008f20       ??_C@_17MBJJLFDM@?$AA_?$AA?4?$AA?0?$AA?$AA@ 10078f20     libucrt:wsetlocale.obj
 0002:00008f2c       ??_C@_13ENNFDPBH@?$AA_?$AA?$AA@ 10078f2c     libucrt:wsetlocale.obj
 0002:00008f30       ??_C@_13JOFGPIOO@?$AA?4?$AA?$AA@ 10078f30     libucrt:wsetlocale.obj
 0002:00008f38       ___lc_time_c               10078f38     libucrt:nlsdata.obj
 0002:000090e4       ??_C@_03KOEHGMDN@Sun?$AA@  100790e4     libucrt:nlsdata.obj
 0002:000090e8       ??_C@_03PDAGKDH@Mon?$AA@   100790e8     libucrt:nlsdata.obj
 0002:000090ec       ??_C@_03NAGEINEP@Tue?$AA@  100790ec     libucrt:nlsdata.obj
 0002:000090f0       ??_C@_03MHOMLAJA@Wed?$AA@  100790f0     libucrt:nlsdata.obj
 0002:000090f4       ??_C@_03IOFIKPDN@Thu?$AA@  100790f4     libucrt:nlsdata.obj
 0002:000090f8       ??_C@_03IDIOELNC@Fri?$AA@  100790f8     libucrt:nlsdata.obj
 0002:000090fc       ??_C@_03FEFJNEK@Sat?$AA@   100790fc     libucrt:nlsdata.obj
 0002:00009100       ??_C@_06OOPIFAJ@Sunday?$AA@ 10079100     libucrt:nlsdata.obj
 0002:00009108       ??_C@_06JLEDEDGH@Monday?$AA@ 10079108     libucrt:nlsdata.obj
 0002:00009110       ??_C@_07BAAGCFCM@Tuesday?$AA@ 10079110     libucrt:nlsdata.obj
 0002:0000911c       ??_C@_09DLIGFAKA@Wednesday?$AA@ 1007911c     libucrt:nlsdata.obj
 0002:00009128       ??_C@_08HACCIKIA@Thursday?$AA@ 10079128     libucrt:nlsdata.obj
 0002:00009134       ??_C@_06JECMNKMI@Friday?$AA@ 10079134     libucrt:nlsdata.obj
 0002:0000913c       ??_C@_08INBOOONO@Saturday?$AA@ 1007913c     libucrt:nlsdata.obj
 0002:00009148       ??_C@_03JIHJHPIE@Jan?$AA@  10079148     libucrt:nlsdata.obj
 0002:0000914c       ??_C@_03HJBDCHOM@Feb?$AA@  1007914c     libucrt:nlsdata.obj
 0002:00009150       ??_C@_03ODNJBKGA@Mar?$AA@  10079150     libucrt:nlsdata.obj
 0002:00009154       ??_C@_03LEOLGMJP@Apr?$AA@  10079154     libucrt:nlsdata.obj
 0002:00009158       ??_C@_03CNMDKL@May?$AA@    10079158     libucrt:nlsdata.obj
 0002:0000915c       ??_C@_03IDFGHECI@Jun?$AA@  1007915c     libucrt:nlsdata.obj
 0002:00009160       ??_C@_03LBGABGKK@Jul?$AA@  10079160     libucrt:nlsdata.obj
 0002:00009164       ??_C@_03IFJFEIGA@Aug?$AA@  10079164     libucrt:nlsdata.obj
 0002:00009168       ??_C@_03GGCAPAJC@Sep?$AA@  10079168     libucrt:nlsdata.obj
 0002:0000916c       ??_C@_03BMAOKBAD@Oct?$AA@  1007916c     libucrt:nlsdata.obj
 0002:00009170       ??_C@_03JPJOFNIA@Nov?$AA@  10079170     libucrt:nlsdata.obj
 0002:00009174       ??_C@_03MKABNOCG@Dec?$AA@  10079174     libucrt:nlsdata.obj
 0002:00009178       ??_C@_07CGJPFGJA@January?$AA@ 10079178     libucrt:nlsdata.obj
 0002:00009184       ??_C@_08GNJGEPFN@February?$AA@ 10079184     libucrt:nlsdata.obj
 0002:00009190       ??_C@_05HPCKOFNC@March?$AA@ 10079190     libucrt:nlsdata.obj
 0002:00009198       ??_C@_05DMJDNLEJ@April?$AA@ 10079198     libucrt:nlsdata.obj
 0002:000091a0       ??_C@_04CNLMGBGM@June?$AA@ 100791a0     libucrt:nlsdata.obj
 0002:000091a8       ??_C@_04MIEPOIFP@July?$AA@ 100791a8     libucrt:nlsdata.obj
 0002:000091b0       ??_C@_06LBBHFDDG@August?$AA@ 100791b0     libucrt:nlsdata.obj
 0002:000091b8       ??_C@_09BHHEALKD@September?$AA@ 100791b8     libucrt:nlsdata.obj
 0002:000091c4       ??_C@_07JJNFCEND@October?$AA@ 100791c4     libucrt:nlsdata.obj
 0002:000091d0       ??_C@_08HCHEGEOA@November?$AA@ 100791d0     libucrt:nlsdata.obj
 0002:000091dc       ??_C@_08EDHMEBNP@December?$AA@ 100791dc     libucrt:nlsdata.obj
 0002:000091e8       ??_C@_02DEDBPAFC@AM?$AA@   100791e8     libucrt:nlsdata.obj
 0002:000091ec       ??_C@_02CJNFDJBF@PM?$AA@   100791ec     libucrt:nlsdata.obj
 0002:000091f0       ??_C@_08BPBNCDIB@MM?1dd?1yy?$AA@ 100791f0     libucrt:nlsdata.obj
 0002:000091fc       ??_C@_0BE@CKGJFCPC@dddd?0?5MMMM?5dd?0?5yyyy?$AA@ 100791fc     libucrt:nlsdata.obj
 0002:00009214       ??_C@_08JCCMCCIL@HH?3mm?3ss?$AA@ 10079214     libucrt:nlsdata.obj
 0002:00009220       ??_C@_17MBGCMIPB@?$AAS?$AAu?$AAn?$AA?$AA@ 10079220     libucrt:nlsdata.obj
 0002:0000922c       ??_C@_17KBOMKBF@?$AAM?$AAo?$AAn?$AA?$AA@ 1007922c     libucrt:nlsdata.obj
 0002:00009238       ??_C@_17BMKGEGOJ@?$AAT?$AAu?$AAe?$AA?$AA@ 10079238     libucrt:nlsdata.obj
 0002:00009244       ??_C@_17CJEDCEPE@?$AAW?$AAe?$AAd?$AA?$AA@ 10079244     libucrt:nlsdata.obj
 0002:00009250       ??_C@_17PDPHAADD@?$AAT?$AAh?$AAu?$AA?$AA@ 10079250     libucrt:nlsdata.obj
 0002:0000925c       ??_C@_17HFOLPPLP@?$AAF?$AAr?$AAi?$AA?$AA@ 1007925c     libucrt:nlsdata.obj
 0002:00009268       ??_C@_17GGIBDPIH@?$AAS?$AAa?$AAt?$AA?$AA@ 10079268     libucrt:nlsdata.obj
 0002:00009274       ??_C@_1O@IHNHDHPB@?$AAS?$AAu?$AAn?$AAd?$AAa?$AAy?$AA?$AA@ 10079274     libucrt:nlsdata.obj
 0002:00009284       ??_C@_1O@MMNBFLIA@?$AAM?$AAo?$AAn?$AAd?$AAa?$AAy?$AA?$AA@ 10079284     libucrt:nlsdata.obj
 0002:00009294       ??_C@_1BA@ENFBFFEK@?$AAT?$AAu?$AAe?$AAs?$AAd?$AAa?$AAy?$AA?$AA@ 10079294     libucrt:nlsdata.obj
 0002:000092a8       ??_C@_1BE@EBOGMDOH@?$AAW?$AAe?$AAd?$AAn?$AAe?$AAs?$AAd?$AAa?$AAy?$AA?$AA@ 100792a8     libucrt:nlsdata.obj
 0002:000092c0       ??_C@_1BC@HHMNLIHE@?$AAT?$AAh?$AAu?$AAr?$AAs?$AAd?$AAa?$AAy?$AA?$AA@ 100792c0     libucrt:nlsdata.obj
 0002:000092d8       ??_C@_1O@PDICJHAG@?$AAF?$AAr?$AAi?$AAd?$AAa?$AAy?$AA?$AA@ 100792d8     libucrt:nlsdata.obj
 0002:000092e8       ??_C@_1BC@ENMNNPAJ@?$AAS?$AAa?$AAt?$AAu?$AAr?$AAd?$AAa?$AAy?$AA?$AA@ 100792e8     libucrt:nlsdata.obj
 0002:00009300       ??_C@_17DKNBKCHM@?$AAJ?$AAa?$AAn?$AA?$AA@ 10079300     libucrt:nlsdata.obj
 0002:0000930c       ??_C@_17LMDJEKJN@?$AAF?$AAe?$AAb?$AA?$AA@ 1007930c     libucrt:nlsdata.obj
 0002:00009318       ??_C@_17CKNLEDEC@?$AAM?$AAa?$AAr?$AA?$AA@ 10079318     libucrt:nlsdata.obj
 0002:00009324       ??_C@_17LFPOIHDD@?$AAA?$AAp?$AAr?$AA?$AA@ 10079324     libucrt:nlsdata.obj
 0002:00009330       ??_C@_17PNNKMEED@?$AAM?$AAa?$AAy?$AA?$AA@ 10079330     libucrt:nlsdata.obj
 0002:0000933c       ??_C@_17KCJGOCPB@?$AAJ?$AAu?$AAn?$AA?$AA@ 1007933c     libucrt:nlsdata.obj
 0002:00009348       ??_C@_17IJPCKHK@?$AAJ?$AAu?$AAl?$AA?$AA@ 10079348     libucrt:nlsdata.obj
 0002:00009354       ??_C@_17ICPELBCN@?$AAA?$AAu?$AAg?$AA?$AA@ 10079354     libucrt:nlsdata.obj
 0002:00009360       ??_C@_17HCHCOKMG@?$AAS?$AAe?$AAp?$AA?$AA@ 10079360     libucrt:nlsdata.obj
 0002:0000936c       ??_C@_17FNLKOI@?$AAO?$AAc?$AAt?$AA?$AA@ 1007936c     libucrt:nlsdata.obj
 0002:00009378       ??_C@_17BBDMLCIG@?$AAN?$AAo?$AAv?$AA?$AA@ 10079378     libucrt:nlsdata.obj
 0002:00009384       ??_C@_17EGKACKIF@?$AAD?$AAe?$AAc?$AA?$AA@ 10079384     libucrt:nlsdata.obj
 0002:00009390       ??_C@_1BA@EFMEIEBA@?$AAJ?$AAa?$AAn?$AAu?$AAa?$AAr?$AAy?$AA?$AA@ 10079390     libucrt:nlsdata.obj
 0002:000093a4       ??_C@_1BC@JGDDFFAM@?$AAF?$AAe?$AAb?$AAr?$AAu?$AAa?$AAr?$AAy?$AA?$AA@ 100793a4     libucrt:nlsdata.obj
 0002:000093bc       ??_C@_1M@IKEENEDF@?$AAM?$AAa?$AAr?$AAc?$AAh?$AA?$AA@ 100793bc     libucrt:nlsdata.obj
 0002:000093cc       ??_C@_1M@GJNLMHFD@?$AAA?$AAp?$AAr?$AAi?$AAl?$AA?$AA@ 100793cc     libucrt:nlsdata.obj
 0002:000093dc       ??_C@_19EPFLPGAP@?$AAJ?$AAu?$AAn?$AAe?$AA?$AA@ 100793dc     libucrt:nlsdata.obj
 0002:000093e8       ??_C@_19BIFMLPCD@?$AAJ?$AAu?$AAl?$AAy?$AA?$AA@ 100793e8     libucrt:nlsdata.obj
 0002:000093f4       ??_C@_1O@PAHLKOAC@?$AAA?$AAu?$AAg?$AAu?$AAs?$AAt?$AA?$AA@ 100793f4     libucrt:nlsdata.obj
 0002:00009404       ??_C@_1BE@DKAAMBJL@?$AAS?$AAe?$AAp?$AAt?$AAe?$AAm?$AAb?$AAe?$AAr?$AA?$AA@ 10079404     libucrt:nlsdata.obj
 0002:0000941c       ??_C@_1BA@EPANDLNG@?$AAO?$AAc?$AAt?$AAo?$AAb?$AAe?$AAr?$AA?$AA@ 1007941c     libucrt:nlsdata.obj
 0002:00009430       ??_C@_1BC@BGLIFPF@?$AAN?$AAo?$AAv?$AAe?$AAm?$AAb?$AAe?$AAr?$AA?$AA@ 10079430     libucrt:nlsdata.obj
 0002:00009448       ??_C@_1BC@FEMKIFH@?$AAD?$AAe?$AAc?$AAe?$AAm?$AAb?$AAe?$AAr?$AA?$AA@ 10079448     libucrt:nlsdata.obj
 0002:00009460       ??_C@_15ODEHAHHF@?$AAA?$AAM?$AA?$AA@ 10079460     libucrt:nlsdata.obj
 0002:00009468       ??_C@_15CLMNNGEL@?$AAP?$AAM?$AA?$AA@ 10079468     libucrt:nlsdata.obj
 0002:00009470       ??_C@_1BC@IEBCMHCM@?$AAM?$AAM?$AA?1?$AAd?$AAd?$AA?1?$AAy?$AAy?$AA?$AA@ 10079470     libucrt:nlsdata.obj
 0002:00009488       ??_C@_1CI@KNAKOEBC@?$AAd?$AAd?$AAd?$AAd?$AA?0?$AA?5?$AAM?$AAM?$AAM?$AAM?$AA?5?$AAd?$AAd?$AA?0?$AA?5?$AAy?$AAy?$AAy?$AAy?$AA?$AA@ 10079488     libucrt:nlsdata.obj
 0002:000094b8       ??_C@_1BC@GDGBMEMK@?$AAH?$AAH?$AA?3?$AAm?$AAm?$AA?3?$AAs?$AAs?$AA?$AA@ 100794b8     libucrt:nlsdata.obj
 0002:000094d0       ??_C@_1M@BMHNFIME@?$AAe?$AAn?$AA?9?$AAU?$AAS?$AA?$AA@ 100794d0     libucrt:nlsdata.obj
 0002:000094e0       ??_C@_03OEIAHPBN@INF?$AA@  100794e0     libucrt:cvt.obj
 0002:000094e4       ??_C@_03OJHLLCGB@inf?$AA@  100794e4     libucrt:cvt.obj
 0002:000094e8       ??_C@_03LKNCIKJB@NAN?$AA@  100794e8     libucrt:cvt.obj
 0002:000094ec       ??_C@_03LHCJEHON@nan?$AA@  100794ec     libucrt:cvt.obj
 0002:000094f0       ??_C@_09OFJJIMPC@NAN?$CISNAN?$CJ?$AA@ 100794f0     libucrt:cvt.obj
 0002:000094fc       ??_C@_09IPFBKMDL@nan?$CIsnan?$CJ?$AA@ 100794fc     libucrt:cvt.obj
 0002:00009508       ??_C@_08IKHNHAJ@NAN?$CIIND?$CJ?$AA@ 10079508     libucrt:cvt.obj
 0002:00009514       ??_C@_08OFCDMILK@nan?$CIind?$CJ?$AA@ 10079514     libucrt:cvt.obj
 0002:00009520       ??_C@_05KLBDPFGC@e?$CL000?$AA@ 10079520     libucrt:cvt.obj
 0002:00009528       __d_inf                    10079528     libucrt:util.obj
 0002:00009538       __d_ind                    10079538     libucrt:util.obj
 0002:00009548       __d_max                    10079548     libucrt:util.obj
 0002:00009558       __d_min                    10079558     libucrt:util.obj
 0002:00009568       __d_mzero                  10079568     libucrt:util.obj
 0002:000095a8       ??_C@_1M@HPNHIDJI@?$AAj?$AAa?$AA?9?$AAJ?$AAP?$AA?$AA@ 100795a8     libucrt:mbctype.obj
 0002:000095b8       ??_C@_1M@BIBDDEMK@?$AAz?$AAh?$AA?9?$AAC?$AAN?$AA?$AA@ 100795b8     libucrt:mbctype.obj
 0002:000095c8       ??_C@_1M@JLOOOEGK@?$AAk?$AAo?$AA?9?$AAK?$AAR?$AA?$AA@ 100795c8     libucrt:mbctype.obj
 0002:000095d8       ??_C@_1M@CLNBBOPM@?$AAz?$AAh?$AA?9?$AAT?$AAW?$AA?$AA@ 100795d8     libucrt:mbctype.obj
 0002:000095e8       ___newctype                100795e8     libucrt:ctype.obj
 0002:00009988       ___newclmap                10079988     libucrt:ctype.obj
 0002:00009b58       ___newcumap                10079b58     libucrt:ctype.obj
 0002:00009d28       __wctype                   10079d28     libucrt:ctype.obj
 0002:0000a824       ??_C@_15EMKDOKLE@?$AAa?$AAr?$AA?$AA@ 1007a824     libucrt:lcidtoname_downlevel.obj
 0002:0000a82c       ??_C@_15KNPADPLH@?$AAb?$AAg?$AA?$AA@ 1007a82c     libucrt:lcidtoname_downlevel.obj
 0002:0000a834       ??_C@_15EDMHLDMO@?$AAc?$AAa?$AA?$AA@ 1007a834     libucrt:lcidtoname_downlevel.obj
 0002:0000a83c       ??_C@_1O@BPEAJADD@?$AAz?$AAh?$AA?9?$AAC?$AAH?$AAS?$AA?$AA@ 1007a83c     libucrt:lcidtoname_downlevel.obj
 0002:0000a84c       ??_C@_15LJNHCMNK@?$AAc?$AAs?$AA?$AA@ 1007a84c     libucrt:lcidtoname_downlevel.obj
 0002:0000a854       ??_C@_15FOMCIDHG@?$AAd?$AAa?$AA?$AA@ 1007a854     libucrt:lcidtoname_downlevel.obj
 0002:0000a85c       ??_C@_15NBKABECB@?$AAd?$AAe?$AA?$AA@ 1007a85c     libucrt:lcidtoname_downlevel.obj
 0002:0000a864       ??_C@_15GHPEIIAO@?$AAe?$AAl?$AA?$AA@ 1007a864     libucrt:lcidtoname_downlevel.obj
 0002:0000a86c       ??_C@_15MNPNEAIF@?$AAe?$AAn?$AA?$AA@ 1007a86c     libucrt:lcidtoname_downlevel.obj
 0002:0000a874       ??_C@_15GPIOMPMH@?$AAe?$AAs?$AA?$AA@ 1007a874     libucrt:lcidtoname_downlevel.obj
 0002:0000a87c       ??_C@_15NGLOAKJC@?$AAf?$AAi?$AA?$AA@ 1007a87c     libucrt:lcidtoname_downlevel.obj
 0002:0000a884       ??_C@_15FBKGNKAM@?$AAf?$AAr?$AA?$AA@ 1007a884     libucrt:lcidtoname_downlevel.obj
 0002:0000a88c       ??_C@_15KGGCNEFK@?$AAh?$AAe?$AA?$AA@ 1007a88c     libucrt:lcidtoname_downlevel.obj
 0002:0000a894       ??_C@_15PGHLIDMF@?$AAh?$AAu?$AA?$AA@ 1007a894     libucrt:lcidtoname_downlevel.obj
 0002:0000a89c       ??_C@_15BIEMAPLM@?$AAi?$AAs?$AA?$AA@ 1007a89c     libucrt:lcidtoname_downlevel.obj
 0002:0000a8a4       ??_C@_15IFJLDHAF@?$AAi?$AAt?$AA?$AA@ 1007a8a4     libucrt:lcidtoname_downlevel.obj
 0002:0000a8ac       ??_C@_15GEMIOCAG@?$AAj?$AAa?$AA?$AA@ 1007a8ac     libucrt:lcidtoname_downlevel.obj
 0002:0000a8b4       ??_C@_15EPELEGJA@?$AAk?$AAo?$AA?$AA@ 1007a8b4     libucrt:lcidtoname_downlevel.obj
 0002:0000a8bc       ??_C@_15NDDHIMN@?$AAn?$AAl?$AA?$AA@ 1007a8bc     libucrt:lcidtoname_downlevel.obj
 0002:0000a8c4       ??_C@_15BPIGNHCD@?$AAn?$AAo?$AA?$AA@ 1007a8c4     libucrt:lcidtoname_downlevel.obj
 0002:0000a8cc       ??_C@_15DEOPBLCG@?$AAp?$AAl?$AA?$AA@ 1007a8cc     libucrt:lcidtoname_downlevel.obj
 0002:0000a8d4       ??_C@_15KBECGEFG@?$AAp?$AAt?$AA?$AA@ 1007a8d4     libucrt:lcidtoname_downlevel.obj
 0002:0000a8dc       ??_C@_15GLJCBFMD@?$AAr?$AAo?$AA?$AA@ 1007a8dc     libucrt:lcidtoname_downlevel.obj
 0002:0000a8e4       ??_C@_15FEDGKCDI@?$AAr?$AAu?$AA?$AA@ 1007a8e4     libucrt:lcidtoname_downlevel.obj
 0002:0000a8ec       ??_C@_15GLKMLLHM@?$AAh?$AAr?$AA?$AA@ 1007a8ec     libucrt:lcidtoname_downlevel.obj
 0002:0000a8f4       ??_C@_15CPKMFBDB@?$AAs?$AAk?$AA?$AA@ 1007a8f4     libucrt:lcidtoname_downlevel.obj
 0002:0000a8fc       ??_C@_15BAAIOGMK@?$AAs?$AAq?$AA?$AA@ 1007a8fc     libucrt:lcidtoname_downlevel.obj
 0002:0000a904       ??_C@_15INNPNOHD@?$AAs?$AAv?$AA?$AA@ 1007a904     libucrt:lcidtoname_downlevel.obj
 0002:0000a90c       ??_C@_15CABMMOGH@?$AAt?$AAh?$AA?$AA@ 1007a90c     libucrt:lcidtoname_downlevel.obj
 0002:0000a914       ??_C@_15BPLIHJJM@?$AAt?$AAr?$AA?$AA@ 1007a914     libucrt:lcidtoname_downlevel.obj
 0002:0000a91c       ??_C@_15NEOEKKDJ@?$AAu?$AAr?$AA?$AA@ 1007a91c     libucrt:lcidtoname_downlevel.obj
 0002:0000a924       ??_C@_15NFICGAJK@?$AAi?$AAd?$AA?$AA@ 1007a924     libucrt:lcidtoname_downlevel.obj
 0002:0000a92c       ??_C@_15PJPFLCCM@?$AAu?$AAk?$AA?$AA@ 1007a92c     libucrt:lcidtoname_downlevel.obj
 0002:0000a934       ??_C@_15HPJPHDM@?$AAb?$AAe?$AA?$AA@ 1007a934     libucrt:lcidtoname_downlevel.obj
 0002:0000a93c       ??_C@_15LCHLGJII@?$AAs?$AAl?$AA?$AA@ 1007a93c     libucrt:lcidtoname_downlevel.obj
 0002:0000a944       ??_C@_15PCFJPHHO@?$AAe?$AAt?$AA?$AA@ 1007a944     libucrt:lcidtoname_downlevel.obj
 0002:0000a94c       ??_C@_15HPFPGODN@?$AAl?$AAv?$AA?$AA@ 1007a94c     libucrt:lcidtoname_downlevel.obj
 0002:0000a954       ??_C@_15NFFGKGLG@?$AAl?$AAt?$AA?$AA@ 1007a954     libucrt:lcidtoname_downlevel.obj
 0002:0000a95c       ??_C@_15BDAKCCHN@?$AAf?$AAa?$AA?$AA@ 1007a95c     libucrt:lcidtoname_downlevel.obj
 0002:0000a964       ??_C@_15NFGIAIAJ@?$AAv?$AAi?$AA?$AA@ 1007a964     libucrt:lcidtoname_downlevel.obj
 0002:0000a96c       ??_C@_15LMKNDMHN@?$AAh?$AAy?$AA?$AA@ 1007a96c     libucrt:lcidtoname_downlevel.obj
 0002:0000a974       ??_C@_15IJBHMCFL@?$AAa?$AAz?$AA?$AA@ 1007a974     libucrt:lcidtoname_downlevel.obj
 0002:0000a97c       ??_C@_15EKOFJABL@?$AAe?$AAu?$AA?$AA@ 1007a97c     libucrt:lcidtoname_downlevel.obj
 0002:0000a984       ??_C@_15BGHADCNK@?$AAm?$AAk?$AA?$AA@ 1007a984     libucrt:lcidtoname_downlevel.obj
 0002:0000a98c       ??_C@_15JDNICKHM@?$AAa?$AAf?$AA?$AA@ 1007a98c     libucrt:lcidtoname_downlevel.obj
 0002:0000a994       ??_C@_15KPJEDBKD@?$AAk?$AAa?$AA?$AA@ 1007a994     libucrt:lcidtoname_downlevel.obj
 0002:0000a99c       ??_C@_15PDNFFFEO@?$AAf?$AAo?$AA?$AA@ 1007a99c     libucrt:lcidtoname_downlevel.obj
 0002:0000a9a4       ??_C@_15OMLEGLOC@?$AAh?$AAi?$AA?$AA@ 1007a9a4     libucrt:lcidtoname_downlevel.obj
 0002:0000a9ac       ??_C@_15IDNNENKK@?$AAm?$AAs?$AA?$AA@ 1007a9ac     libucrt:lcidtoname_downlevel.obj
 0002:0000a9b4       ??_C@_15MACJNBMH@?$AAk?$AAk?$AA?$AA@ 1007a9b4     libucrt:lcidtoname_downlevel.obj
 0002:0000a9bc       ??_C@_15DKDJEOND@?$AAk?$AAy?$AA?$AA@ 1007a9bc     libucrt:lcidtoname_downlevel.obj
 0002:0000a9c4       ??_C@_15DFGDLJBG@?$AAs?$AAw?$AA?$AA@ 1007a9c4     libucrt:lcidtoname_downlevel.obj
 0002:0000a9cc       ??_C@_15BBFAICNG@?$AAu?$AAz?$AA?$AA@ 1007a9cc     libucrt:lcidtoname_downlevel.obj
 0002:0000a9d4       ??_C@_15DKNDCGEA@?$AAt?$AAt?$AA?$AA@ 1007a9d4     libucrt:lcidtoname_downlevel.obj
 0002:0000a9dc       ??_C@_15MGIFMDPL@?$AAp?$AAa?$AA?$AA@ 1007a9dc     libucrt:lcidtoname_downlevel.obj
 0002:0000a9e4       ??_C@_15HCNDBBA@?$AAg?$AAu?$AA?$AA@ 1007a9e4     libucrt:lcidtoname_downlevel.obj
 0002:0000a9ec       ??_C@_15FNBEIBON@?$AAt?$AAa?$AA?$AA@ 1007a9ec     libucrt:lcidtoname_downlevel.obj
 0002:0000a9f4       ??_C@_15NCHGBGLK@?$AAt?$AAe?$AA?$AA@ 1007a9f4     libucrt:lcidtoname_downlevel.obj
 0002:0000a9fc       ??_C@_15PHPHCBPF@?$AAk?$AAn?$AA?$AA@ 1007a9fc     libucrt:lcidtoname_downlevel.obj
 0002:0000aa04       ??_C@_15DLGBCKMP@?$AAm?$AAr?$AA?$AA@ 1007aa04     libucrt:lcidtoname_downlevel.obj
 0002:0000aa0c       ??_C@_15EABBLBFF@?$AAs?$AAa?$AA?$AA@ 1007aa0c     libucrt:lcidtoname_downlevel.obj
 0002:0000aa14       ??_C@_15CBKOMCOI@?$AAm?$AAn?$AA?$AA@ 1007aa14     libucrt:lcidtoname_downlevel.obj
 0002:0000aa1c       ??_C@_15CKDMCJAF@?$AAg?$AAl?$AA?$AA@ 1007aa1c     libucrt:lcidtoname_downlevel.obj
 0002:0000aa24       ??_C@_17CNJFBPG@?$AAk?$AAo?$AAk?$AA?$AA@ 1007aa24     libucrt:lcidtoname_downlevel.obj
 0002:0000aa30       ??_C@_17FFBJICPL@?$AAs?$AAy?$AAr?$AA?$AA@ 1007aa30     libucrt:lcidtoname_downlevel.obj
 0002:0000aa3c       ??_C@_17KPNDCPAF@?$AAd?$AAi?$AAv?$AA?$AA@ 1007aa3c     libucrt:lcidtoname_downlevel.obj
 0002:0000aa48       ??_C@_11LOCGONAA@?$AA?$AA@ 1007aa48     libucrt:lcidtoname_downlevel.obj
 0002:0000aa4c       ??_C@_1M@OKAHONE@?$AAa?$AAr?$AA?9?$AAS?$AAA?$AA?$AA@ 1007aa4c     libucrt:lcidtoname_downlevel.obj
 0002:0000aa5c       ??_C@_1M@FFFIGIGK@?$AAb?$AAg?$AA?9?$AAB?$AAG?$AA?$AA@ 1007aa5c     libucrt:lcidtoname_downlevel.obj
 0002:0000aa6c       ??_C@_1M@BJNKEDC@?$AAc?$AAa?$AA?9?$AAE?$AAS?$AA?$AA@ 1007aa6c     libucrt:lcidtoname_downlevel.obj
 0002:0000aa7c       ??_C@_1M@IJJHFJHA@?$AAc?$AAs?$AA?9?$AAC?$AAZ?$AA?$AA@ 1007aa7c     libucrt:lcidtoname_downlevel.obj
 0002:0000aa8c       ??_C@_1M@CLPEOBGI@?$AAd?$AAa?$AA?9?$AAD?$AAK?$AA?$AA@ 1007aa8c     libucrt:lcidtoname_downlevel.obj
 0002:0000aa9c       ??_C@_1M@MCMADGCB@?$AAd?$AAe?$AA?9?$AAD?$AAE?$AA?$AA@ 1007aa9c     libucrt:lcidtoname_downlevel.obj
 0002:0000aaac       ??_C@_1M@OOCKEMAM@?$AAe?$AAl?$AA?9?$AAG?$AAR?$AA?$AA@ 1007aaac     libucrt:lcidtoname_downlevel.obj
 0002:0000aabc       ??_C@_1M@DDNJFGID@?$AAf?$AAi?$AA?9?$AAF?$AAI?$AA?$AA@ 1007aabc     libucrt:lcidtoname_downlevel.obj
 0002:0000aacc       ??_C@_1M@GLIPPMAC@?$AAf?$AAr?$AA?9?$AAF?$AAR?$AA?$AA@ 1007aacc     libucrt:lcidtoname_downlevel.obj
 0002:0000aadc       ??_C@_1M@GFMCHPE@?$AAh?$AAe?$AA?9?$AAI?$AAL?$AA?$AA@ 1007aadc     libucrt:lcidtoname_downlevel.obj
 0002:0000aaec       ??_C@_1M@MHLPGNKM@?$AAh?$AAu?$AA?9?$AAH?$AAU?$AA?$AA@ 1007aaec     libucrt:lcidtoname_downlevel.obj
 0002:0000aafc       ??_C@_1M@LPDDNNPN@?$AAi?$AAs?$AA?9?$AAI?$AAS?$AA?$AA@ 1007aafc     libucrt:lcidtoname_downlevel.obj
 0002:0000ab0c       ??_C@_1M@MADIPODN@?$AAi?$AAt?$AA?9?$AAI?$AAT?$AA?$AA@ 1007ab0c     libucrt:lcidtoname_downlevel.obj
 0002:0000ab1c       ??_C@_1M@IHBJJGG@?$AAn?$AAl?$AA?9?$AAN?$AAL?$AA?$AA@ 1007ab1c     libucrt:lcidtoname_downlevel.obj
 0002:0000ab2c       ??_C@_1M@EANAGDL@?$AAn?$AAb?$AA?9?$AAN?$AAO?$AA?$AA@ 1007ab2c     libucrt:lcidtoname_downlevel.obj
 0002:0000ab3c       ??_C@_1M@NEIEMEGP@?$AAp?$AAl?$AA?9?$AAP?$AAL?$AA?$AA@ 1007ab3c     libucrt:lcidtoname_downlevel.obj
 0002:0000ab4c       ??_C@_1M@BOCFIGEP@?$AAp?$AAt?$AA?9?$AAB?$AAR?$AA?$AA@ 1007ab4c     libucrt:lcidtoname_downlevel.obj
 0002:0000ab5c       ??_C@_1M@IMPFOPBG@?$AAr?$AAo?$AA?9?$AAR?$AAO?$AA?$AA@ 1007ab5c     libucrt:lcidtoname_downlevel.obj
 0002:0000ab6c       ??_C@_1M@IDNNEJMM@?$AAr?$AAu?$AA?9?$AAR?$AAU?$AA?$AA@ 1007ab6c     libucrt:lcidtoname_downlevel.obj
 0002:0000ab7c       ??_C@_1M@LILEEOGM@?$AAh?$AAr?$AA?9?$AAH?$AAR?$AA?$AA@ 1007ab7c     libucrt:lcidtoname_downlevel.obj
 0002:0000ab8c       ??_C@_1M@FKIFEHPB@?$AAs?$AAk?$AA?9?$AAS?$AAK?$AA?$AA@ 1007ab8c     libucrt:lcidtoname_downlevel.obj
 0002:0000ab9c       ??_C@_1M@LJMAMNPJ@?$AAs?$AAq?$AA?9?$AAA?$AAL?$AA?$AA@ 1007ab9c     libucrt:lcidtoname_downlevel.obj
 0002:0000abac       ??_C@_1M@GIAKDKJK@?$AAs?$AAv?$AA?9?$AAS?$AAE?$AA?$AA@ 1007abac     libucrt:lcidtoname_downlevel.obj
 0002:0000abbc       ??_C@_1M@MKJKIKCL@?$AAt?$AAh?$AA?9?$AAT?$AAH?$AA?$AA@ 1007abbc     libucrt:lcidtoname_downlevel.obj
 0002:0000abcc       ??_C@_1M@MFLCCMPB@?$AAt?$AAr?$AA?9?$AAT?$AAR?$AA?$AA@ 1007abcc     libucrt:lcidtoname_downlevel.obj
 0002:0000abdc       ??_C@_1M@OIJHDKJN@?$AAu?$AAr?$AA?9?$AAP?$AAK?$AA?$AA@ 1007abdc     libucrt:lcidtoname_downlevel.obj
 0002:0000abec       ??_C@_1M@LHIPCIEK@?$AAi?$AAd?$AA?9?$AAI?$AAD?$AA?$AA@ 1007abec     libucrt:lcidtoname_downlevel.obj
 0002:0000abfc       ??_C@_1M@MFMOBGI@?$AAu?$AAk?$AA?9?$AAU?$AAA?$AA?$AA@ 1007abfc     libucrt:lcidtoname_downlevel.obj
 0002:0000ac0c       ??_C@_1M@OBGLJIPL@?$AAb?$AAe?$AA?9?$AAB?$AAY?$AA?$AA@ 1007ac0c     libucrt:lcidtoname_downlevel.obj
 0002:0000ac1c       ??_C@_1M@BCFAJEAD@?$AAs?$AAl?$AA?9?$AAS?$AAI?$AA?$AA@ 1007ac1c     libucrt:lcidtoname_downlevel.obj
 0002:0000ac2c       ??_C@_1M@FKFFEDDN@?$AAe?$AAt?$AA?9?$AAE?$AAE?$AA?$AA@ 1007ac2c     libucrt:lcidtoname_downlevel.obj
 0002:0000ac3c       ??_C@_1M@KGKKAACI@?$AAl?$AAv?$AA?9?$AAL?$AAV?$AA?$AA@ 1007ac3c     libucrt:lcidtoname_downlevel.obj
 0002:0000ac4c       ??_C@_1M@IFGBIJO@?$AAl?$AAt?$AA?9?$AAL?$AAT?$AA?$AA@ 1007ac4c     libucrt:lcidtoname_downlevel.obj
 0002:0000ac5c       ??_C@_1M@FGEAHEDM@?$AAf?$AAa?$AA?9?$AAI?$AAR?$AA?$AA@ 1007ac5c     libucrt:lcidtoname_downlevel.obj
 0002:0000ac6c       ??_C@_1M@KBMAIBFN@?$AAv?$AAi?$AA?9?$AAV?$AAN?$AA?$AA@ 1007ac6c     libucrt:lcidtoname_downlevel.obj
 0002:0000ac7c       ??_C@_1M@GPCBKDJK@?$AAh?$AAy?$AA?9?$AAA?$AAM?$AA?$AA@ 1007ac7c     libucrt:lcidtoname_downlevel.obj
 0002:0000ac8c       ??_C@_1BG@BECMDDJB@?$AAa?$AAz?$AA?9?$AAA?$AAZ?$AA?9?$AAL?$AAa?$AAt?$AAn?$AA?$AA@ 1007ac8c     libucrt:lcidtoname_downlevel.obj
 0002:0000aca8       ??_C@_1M@MAOFCAEA@?$AAe?$AAu?$AA?9?$AAE?$AAS?$AA?$AA@ 1007aca8     libucrt:lcidtoname_downlevel.obj
 0002:0000acb8       ??_C@_1M@IGHABKPI@?$AAm?$AAk?$AA?9?$AAM?$AAK?$AA?$AA@ 1007acb8     libucrt:lcidtoname_downlevel.obj
 0002:0000acc8       ??_C@_1M@IAIGNEJG@?$AAt?$AAn?$AA?9?$AAZ?$AAA?$AA?$AA@ 1007acc8     libucrt:lcidtoname_downlevel.obj
 0002:0000acd8       ??_C@_1M@IIJCOJFA@?$AAx?$AAh?$AA?9?$AAZ?$AAA?$AA?$AA@ 1007acd8     libucrt:lcidtoname_downlevel.obj
 0002:0000ace8       ??_C@_1M@LGPJHNJH@?$AAz?$AAu?$AA?9?$AAZ?$AAA?$AA?$AA@ 1007ace8     libucrt:lcidtoname_downlevel.obj
 0002:0000acf8       ??_C@_1M@HOKAOIO@?$AAa?$AAf?$AA?9?$AAZ?$AAA?$AA?$AA@ 1007acf8     libucrt:lcidtoname_downlevel.obj
 0002:0000ad08       ??_C@_1M@DPCLHLIE@?$AAk?$AAa?$AA?9?$AAG?$AAE?$AA?$AA@ 1007ad08     libucrt:lcidtoname_downlevel.obj
 0002:0000ad18       ??_C@_1M@BLKMHJBI@?$AAf?$AAo?$AA?9?$AAF?$AAO?$AA?$AA@ 1007ad18     libucrt:lcidtoname_downlevel.obj
 0002:0000ad28       ??_C@_1M@LGGJAPPB@?$AAh?$AAi?$AA?9?$AAI?$AAN?$AA?$AA@ 1007ad28     libucrt:lcidtoname_downlevel.obj
 0002:0000ad38       ??_C@_1M@FIKPIHFE@?$AAm?$AAt?$AA?9?$AAM?$AAT?$AA?$AA@ 1007ad38     libucrt:lcidtoname_downlevel.obj
 0002:0000ad48       ??_C@_1M@HEGGPBFA@?$AAs?$AAe?$AA?9?$AAN?$AAO?$AA?$AA@ 1007ad48     libucrt:lcidtoname_downlevel.obj
 0002:0000ad58       ??_C@_1M@EIBJEEPA@?$AAm?$AAs?$AA?9?$AAM?$AAY?$AA?$AA@ 1007ad58     libucrt:lcidtoname_downlevel.obj
 0002:0000ad68       ??_C@_1M@FHLBGMPP@?$AAk?$AAk?$AA?9?$AAK?$AAZ?$AA?$AA@ 1007ad68     libucrt:lcidtoname_downlevel.obj
 0002:0000ad78       ??_C@_1M@NGJJLCGI@?$AAk?$AAy?$AA?9?$AAK?$AAG?$AA?$AA@ 1007ad78     libucrt:lcidtoname_downlevel.obj
 0002:0000ad88       ??_C@_1M@GIENNBFC@?$AAs?$AAw?$AA?9?$AAK?$AAE?$AA?$AA@ 1007ad88     libucrt:lcidtoname_downlevel.obj
 0002:0000ad98       ??_C@_1BG@NDGMJIMJ@?$AAu?$AAz?$AA?9?$AAU?$AAZ?$AA?9?$AAL?$AAa?$AAt?$AAn?$AA?$AA@ 1007ad98     libucrt:lcidtoname_downlevel.obj
 0002:0000adb4       ??_C@_1M@IDCCIHBC@?$AAt?$AAt?$AA?9?$AAR?$AAU?$AA?$AA@ 1007adb4     libucrt:lcidtoname_downlevel.obj
 0002:0000adc4       ??_C@_1M@LOICPMOJ@?$AAb?$AAn?$AA?9?$AAI?$AAN?$AA?$AA@ 1007adc4     libucrt:lcidtoname_downlevel.obj
 0002:0000add4       ??_C@_1M@KPKKNEAH@?$AAp?$AAa?$AA?9?$AAI?$AAN?$AA?$AA@ 1007add4     libucrt:lcidtoname_downlevel.obj
 0002:0000ade4       ??_C@_1M@PJGPPBOG@?$AAg?$AAu?$AA?9?$AAI?$AAN?$AA?$AA@ 1007ade4     libucrt:lcidtoname_downlevel.obj
 0002:0000adf4       ??_C@_1M@KMKMOPHI@?$AAt?$AAa?$AA?9?$AAI?$AAN?$AA?$AA@ 1007adf4     libucrt:lcidtoname_downlevel.obj
 0002:0000ae04       ??_C@_1M@KFEHEPAC@?$AAt?$AAe?$AA?9?$AAI?$AAN?$AA?$AA@ 1007ae04     libucrt:lcidtoname_downlevel.obj
 0002:0000ae14       ??_C@_1M@CDCLMGHI@?$AAk?$AAn?$AA?9?$AAI?$AAN?$AA?$AA@ 1007ae14     libucrt:lcidtoname_downlevel.obj
 0002:0000ae24       ??_C@_1M@MIODLDKF@?$AAm?$AAl?$AA?9?$AAI?$AAN?$AA?$AA@ 1007ae24     libucrt:lcidtoname_downlevel.obj
 0002:0000ae34       ??_C@_1M@PBIEACPO@?$AAm?$AAr?$AA?9?$AAI?$AAN?$AA?$AA@ 1007ae34     libucrt:lcidtoname_downlevel.obj
 0002:0000ae44       ??_C@_1M@NIDEAGPH@?$AAs?$AAa?$AA?9?$AAI?$AAN?$AA?$AA@ 1007ae44     libucrt:lcidtoname_downlevel.obj
 0002:0000ae54       ??_C@_1M@FHIHCBIO@?$AAm?$AAn?$AA?9?$AAM?$AAN?$AA?$AA@ 1007ae54     libucrt:lcidtoname_downlevel.obj
 0002:0000ae64       ??_C@_1M@JAIJPENP@?$AAc?$AAy?$AA?9?$AAG?$AAB?$AA?$AA@ 1007ae64     libucrt:lcidtoname_downlevel.obj
 0002:0000ae74       ??_C@_1M@PHGFBEPN@?$AAg?$AAl?$AA?9?$AAE?$AAS?$AA?$AA@ 1007ae74     libucrt:lcidtoname_downlevel.obj
 0002:0000ae84       ??_C@_1O@KPIPDNCP@?$AAk?$AAo?$AAk?$AA?9?$AAI?$AAN?$AA?$AA@ 1007ae84     libucrt:lcidtoname_downlevel.obj
 0002:0000ae94       ??_C@_1O@KNHJLDJA@?$AAs?$AAy?$AAr?$AA?9?$AAS?$AAY?$AA?$AA@ 1007ae94     libucrt:lcidtoname_downlevel.obj
 0002:0000aea4       ??_C@_1O@MKEKBLAH@?$AAd?$AAi?$AAv?$AA?9?$AAM?$AAV?$AA?$AA@ 1007aea4     libucrt:lcidtoname_downlevel.obj
 0002:0000aeb4       ??_C@_1O@OHDCKDDF@?$AAq?$AAu?$AAz?$AA?9?$AAB?$AAO?$AA?$AA@ 1007aeb4     libucrt:lcidtoname_downlevel.obj
 0002:0000aec4       ??_C@_1M@LEPJNLFD@?$AAn?$AAs?$AA?9?$AAZ?$AAA?$AA?$AA@ 1007aec4     libucrt:lcidtoname_downlevel.obj
 0002:0000aed4       ??_C@_1M@OMLEIIJB@?$AAm?$AAi?$AA?9?$AAN?$AAZ?$AA?$AA@ 1007aed4     libucrt:lcidtoname_downlevel.obj
 0002:0000aee4       ??_C@_1M@PMPEAILG@?$AAa?$AAr?$AA?9?$AAI?$AAQ?$AA?$AA@ 1007aee4     libucrt:lcidtoname_downlevel.obj
 0002:0000aef4       ??_C@_1M@CNKPNOEE@?$AAd?$AAe?$AA?9?$AAC?$AAH?$AA?$AA@ 1007aef4     libucrt:lcidtoname_downlevel.obj
 0002:0000af04       ??_C@_1M@LKMGMLKO@?$AAe?$AAn?$AA?9?$AAG?$AAB?$AA?$AA@ 1007af04     libucrt:lcidtoname_downlevel.obj
 0002:0000af14       ??_C@_1M@PGKJFFGL@?$AAe?$AAs?$AA?9?$AAM?$AAX?$AA?$AA@ 1007af14     libucrt:lcidtoname_downlevel.obj
 0002:0000af24       ??_C@_1M@DNNANBDC@?$AAf?$AAr?$AA?9?$AAB?$AAE?$AA?$AA@ 1007af24     libucrt:lcidtoname_downlevel.obj
 0002:0000af34       ??_C@_1M@HLGMDFHM@?$AAi?$AAt?$AA?9?$AAC?$AAH?$AA?$AA@ 1007af34     libucrt:lcidtoname_downlevel.obj
 0002:0000af44       ??_C@_1M@CLLBGJH@?$AAn?$AAl?$AA?9?$AAB?$AAE?$AA?$AA@ 1007af44     libucrt:lcidtoname_downlevel.obj
 0002:0000af54       ??_C@_1M@BODBOGLF@?$AAn?$AAn?$AA?9?$AAN?$AAO?$AA?$AA@ 1007af54     libucrt:lcidtoname_downlevel.obj
 0002:0000af64       ??_C@_1M@HFFAHKAD@?$AAp?$AAt?$AA?9?$AAP?$AAT?$AA?$AA@ 1007af64     libucrt:lcidtoname_downlevel.obj
 0002:0000af74       ??_C@_1BG@LNOAKHIE@?$AAs?$AAr?$AA?9?$AAS?$AAP?$AA?9?$AAL?$AAa?$AAt?$AAn?$AA?$AA@ 1007af74     libucrt:lcidtoname_downlevel.obj
 0002:0000af90       ??_C@_1M@HBMHBGAK@?$AAs?$AAv?$AA?9?$AAF?$AAI?$AA?$AA@ 1007af90     libucrt:lcidtoname_downlevel.obj
 0002:0000afa0       ??_C@_1BG@DGCJGJBE@?$AAa?$AAz?$AA?9?$AAA?$AAZ?$AA?9?$AAC?$AAy?$AAr?$AAl?$AA?$AA@ 1007afa0     libucrt:lcidtoname_downlevel.obj
 0002:0000afbc       ??_C@_1M@KEJDAAHB@?$AAs?$AAe?$AA?9?$AAS?$AAE?$AA?$AA@ 1007afbc     libucrt:lcidtoname_downlevel.obj
 0002:0000afcc       ??_C@_1M@HEIBJJAD@?$AAm?$AAs?$AA?9?$AAB?$AAN?$AA?$AA@ 1007afcc     libucrt:lcidtoname_downlevel.obj
 0002:0000afdc       ??_C@_1BG@PBGJMCEM@?$AAu?$AAz?$AA?9?$AAU?$AAZ?$AA?9?$AAC?$AAy?$AAr?$AAl?$AA?$AA@ 1007afdc     libucrt:lcidtoname_downlevel.obj
 0002:0000aff8       ??_C@_1O@LAOBCMDF@?$AAq?$AAu?$AAz?$AA?9?$AAE?$AAC?$AA?$AA@ 1007aff8     libucrt:lcidtoname_downlevel.obj
 0002:0000b008       ??_C@_1M@POEEMAIO@?$AAa?$AAr?$AA?9?$AAE?$AAG?$AA?$AA@ 1007b008     libucrt:lcidtoname_downlevel.obj
 0002:0000b018       ??_C@_1M@EFAKDEDL@?$AAz?$AAh?$AA?9?$AAH?$AAK?$AA?$AA@ 1007b018     libucrt:lcidtoname_downlevel.obj
 0002:0000b028       ??_C@_1M@HKKIJHGI@?$AAd?$AAe?$AA?9?$AAA?$AAT?$AA?$AA@ 1007b028     libucrt:lcidtoname_downlevel.obj
 0002:0000b038       ??_C@_1M@KBFBEHJF@?$AAe?$AAn?$AA?9?$AAA?$AAU?$AA?$AA@ 1007b038     libucrt:lcidtoname_downlevel.obj
 0002:0000b048       ??_C@_1M@MNPLFAAH@?$AAe?$AAs?$AA?9?$AAE?$AAS?$AA?$AA@ 1007b048     libucrt:lcidtoname_downlevel.obj
 0002:0000b058       ??_C@_1M@HJOOJFMA@?$AAf?$AAr?$AA?9?$AAC?$AAA?$AA?$AA@ 1007b058     libucrt:lcidtoname_downlevel.obj
 0002:0000b068       ??_C@_1BG@JPOFPNAB@?$AAs?$AAr?$AA?9?$AAS?$AAP?$AA?9?$AAC?$AAy?$AAr?$AAl?$AA?$AA@ 1007b068     libucrt:lcidtoname_downlevel.obj
 0002:0000b084       ??_C@_1M@LNFOCMOB@?$AAs?$AAe?$AA?9?$AAF?$AAI?$AA?$AA@ 1007b084     libucrt:lcidtoname_downlevel.obj
 0002:0000b094       ??_C@_1O@MGJBOAMB@?$AAq?$AAu?$AAz?$AA?9?$AAP?$AAE?$AA?$AA@ 1007b094     libucrt:lcidtoname_downlevel.obj
 0002:0000b0a4       ??_C@_1M@GJINLBOK@?$AAa?$AAr?$AA?9?$AAL?$AAY?$AA?$AA@ 1007b0a4     libucrt:lcidtoname_downlevel.obj
 0002:0000b0b4       ??_C@_1M@GGMNHJNL@?$AAz?$AAh?$AA?9?$AAS?$AAG?$AA?$AA@ 1007b0b4     libucrt:lcidtoname_downlevel.obj
 0002:0000b0c4       ??_C@_1M@HOIKODND@?$AAd?$AAe?$AA?9?$AAL?$AAU?$AA?$AA@ 1007b0c4     libucrt:lcidtoname_downlevel.obj
 0002:0000b0d4       ??_C@_1M@DDOCCGFG@?$AAe?$AAn?$AA?9?$AAC?$AAA?$AA?$AA@ 1007b0d4     libucrt:lcidtoname_downlevel.obj
 0002:0000b0e4       ??_C@_1M@BNOEMJLF@?$AAe?$AAs?$AA?9?$AAG?$AAT?$AA?$AA@ 1007b0e4     libucrt:lcidtoname_downlevel.obj
 0002:0000b0f4       ??_C@_1M@EOGNKEK@?$AAf?$AAr?$AA?9?$AAC?$AAH?$AA?$AA@ 1007b0f4     libucrt:lcidtoname_downlevel.obj
 0002:0000b104       ??_C@_1M@FLIDJFHL@?$AAh?$AAr?$AA?9?$AAB?$AAA?$AA?$AA@ 1007b104     libucrt:lcidtoname_downlevel.obj
 0002:0000b114       ??_C@_1O@FMCELNAJ@?$AAs?$AAm?$AAj?$AA?9?$AAN?$AAO?$AA?$AA@ 1007b114     libucrt:lcidtoname_downlevel.obj
 0002:0000b124       ??_C@_1M@JHGLJMGJ@?$AAa?$AAr?$AA?9?$AAD?$AAZ?$AA?$AA@ 1007b124     libucrt:lcidtoname_downlevel.obj
 0002:0000b134       ??_C@_1M@JKKFDCNP@?$AAz?$AAh?$AA?9?$AAM?$AAO?$AA?$AA@ 1007b134     libucrt:lcidtoname_downlevel.obj
 0002:0000b144       ??_C@_1M@GEEFALPE@?$AAd?$AAe?$AA?9?$AAL?$AAI?$AA?$AA@ 1007b144     libucrt:lcidtoname_downlevel.obj
 0002:0000b154       ??_C@_1M@IGEOFBG@?$AAe?$AAn?$AA?9?$AAN?$AAZ?$AA?$AA@ 1007b154     libucrt:lcidtoname_downlevel.obj
 0002:0000b164       ??_C@_1M@KDBONEHP@?$AAe?$AAs?$AA?9?$AAC?$AAR?$AA?$AA@ 1007b164     libucrt:lcidtoname_downlevel.obj
 0002:0000b174       ??_C@_1M@FHMDOHNN@?$AAf?$AAr?$AA?9?$AAL?$AAU?$AA?$AA@ 1007b174     libucrt:lcidtoname_downlevel.obj
 0002:0000b184       ??_C@_1BG@NFKKMAFG@?$AAb?$AAs?$AA?9?$AAB?$AAA?$AA?9?$AAL?$AAa?$AAt?$AAn?$AA?$AA@ 1007b184     libucrt:lcidtoname_downlevel.obj
 0002:0000b1a0       ??_C@_1O@IMNBEMCI@?$AAs?$AAm?$AAj?$AA?9?$AAS?$AAE?$AA?$AA@ 1007b1a0     libucrt:lcidtoname_downlevel.obj
 0002:0000b1b0       ??_C@_1M@DHHMBNDP@?$AAa?$AAr?$AA?9?$AAM?$AAA?$AA?$AA@ 1007b1b0     libucrt:lcidtoname_downlevel.obj
 0002:0000b1c0       ??_C@_1M@BNBLJCGH@?$AAe?$AAn?$AA?9?$AAI?$AAE?$AA?$AA@ 1007b1c0     libucrt:lcidtoname_downlevel.obj
 0002:0000b1d0       ??_C@_1M@GEPAFMDL@?$AAe?$AAs?$AA?9?$AAP?$AAA?$AA?$AA@ 1007b1d0     libucrt:lcidtoname_downlevel.obj
 0002:0000b1e0       ??_C@_1M@OJONDMDL@?$AAf?$AAr?$AA?9?$AAM?$AAC?$AA?$AA@ 1007b1e0     libucrt:lcidtoname_downlevel.obj
 0002:0000b1f0       ??_C@_1BG@OBCNFJB@?$AAs?$AAr?$AA?9?$AAB?$AAA?$AA?9?$AAL?$AAa?$AAt?$AAn?$AA?$AA@ 1007b1f0     libucrt:lcidtoname_downlevel.obj
 0002:0000b20c       ??_C@_1O@KEMEEGPO@?$AAs?$AAm?$AAa?$AA?9?$AAN?$AAO?$AA?$AA@ 1007b20c     libucrt:lcidtoname_downlevel.obj
 0002:0000b21c       ??_C@_1M@ELMGFODK@?$AAa?$AAr?$AA?9?$AAT?$AAN?$AA?$AA@ 1007b21c     libucrt:lcidtoname_downlevel.obj
 0002:0000b22c       ??_C@_1M@BHDLHFAF@?$AAe?$AAn?$AA?9?$AAZ?$AAA?$AA?$AA@ 1007b22c     libucrt:lcidtoname_downlevel.obj
 0002:0000b23c       ??_C@_1M@BMGIGLIF@?$AAe?$AAs?$AA?9?$AAD?$AAO?$AA?$AA@ 1007b23c     libucrt:lcidtoname_downlevel.obj
 0002:0000b24c       ??_C@_1BG@CMBHIPBE@?$AAs?$AAr?$AA?9?$AAB?$AAA?$AA?9?$AAC?$AAy?$AAr?$AAl?$AA?$AA@ 1007b24c     libucrt:lcidtoname_downlevel.obj
 0002:0000b268       ??_C@_1O@HEDBLHNP@?$AAs?$AAm?$AAa?$AA?9?$AAS?$AAE?$AA?$AA@ 1007b268     libucrt:lcidtoname_downlevel.obj
 0002:0000b278       ??_C@_1M@DAGCADIM@?$AAa?$AAr?$AA?9?$AAO?$AAM?$AA?$AA@ 1007b278     libucrt:lcidtoname_downlevel.obj
 0002:0000b288       ??_C@_1M@FODLMICG@?$AAe?$AAn?$AA?9?$AAJ?$AAM?$AA?$AA@ 1007b288     libucrt:lcidtoname_downlevel.obj
 0002:0000b298       ??_C@_1M@DNMLCIHB@?$AAe?$AAs?$AA?9?$AAV?$AAE?$AA?$AA@ 1007b298     libucrt:lcidtoname_downlevel.obj
 0002:0000b2a8       ??_C@_1O@EOKHMKJK@?$AAs?$AAm?$AAs?$AA?9?$AAF?$AAI?$AA?$AA@ 1007b2a8     libucrt:lcidtoname_downlevel.obj
 0002:0000b2b8       ??_C@_1M@CAFJMKOF@?$AAa?$AAr?$AA?9?$AAY?$AAE?$AA?$AA@ 1007b2b8     libucrt:lcidtoname_downlevel.obj
 0002:0000b2c8       ??_C@_1M@CBFHIJLI@?$AAe?$AAn?$AA?9?$AAC?$AAB?$AA?$AA@ 1007b2c8     libucrt:lcidtoname_downlevel.obj
 0002:0000b2d8       ??_C@_1M@BGNFLDN@?$AAe?$AAs?$AA?9?$AAC?$AAO?$AA?$AA@ 1007b2d8     libucrt:lcidtoname_downlevel.obj
 0002:0000b2e8       ??_C@_1O@JMPHMAMC@?$AAs?$AAm?$AAn?$AA?9?$AAF?$AAI?$AA?$AA@ 1007b2e8     libucrt:lcidtoname_downlevel.obj
 0002:0000b2f8       ??_C@_1M@JLANABKE@?$AAa?$AAr?$AA?9?$AAS?$AAY?$AA?$AA@ 1007b2f8     libucrt:lcidtoname_downlevel.obj
 0002:0000b308       ??_C@_1M@HPKGCFGN@?$AAe?$AAn?$AA?9?$AAB?$AAZ?$AA?$AA@ 1007b308     libucrt:lcidtoname_downlevel.obj
 0002:0000b318       ??_C@_1M@OLJCMLGM@?$AAe?$AAs?$AA?9?$AAP?$AAE?$AA?$AA@ 1007b318     libucrt:lcidtoname_downlevel.obj
 0002:0000b328       ??_C@_1M@MKKGFKLE@?$AAa?$AAr?$AA?9?$AAJ?$AAO?$AA?$AA@ 1007b328     libucrt:lcidtoname_downlevel.obj
 0002:0000b338       ??_C@_1M@EKPGLDNI@?$AAe?$AAn?$AA?9?$AAT?$AAT?$AA?$AA@ 1007b338     libucrt:lcidtoname_downlevel.obj
 0002:0000b348       ??_C@_1M@OONGHFHE@?$AAe?$AAs?$AA?9?$AAA?$AAR?$AA?$AA@ 1007b348     libucrt:lcidtoname_downlevel.obj
 0002:0000b358       ??_C@_1M@OOJFGBHE@?$AAa?$AAr?$AA?9?$AAL?$AAB?$AA?$AA@ 1007b358     libucrt:lcidtoname_downlevel.obj
 0002:0000b368       ??_C@_1M@GCEJHNEG@?$AAe?$AAn?$AA?9?$AAZ?$AAW?$AA?$AA@ 1007b368     libucrt:lcidtoname_downlevel.obj
 0002:0000b378       ??_C@_1M@JNOCAHJI@?$AAe?$AAs?$AA?9?$AAE?$AAC?$AA?$AA@ 1007b378     libucrt:lcidtoname_downlevel.obj
 0002:0000b388       ??_C@_1M@JEFHPGGB@?$AAa?$AAr?$AA?9?$AAK?$AAW?$AA?$AA@ 1007b388     libucrt:lcidtoname_downlevel.obj
 0002:0000b398       ??_C@_1M@MLKIBJOJ@?$AAe?$AAn?$AA?9?$AAP?$AAH?$AA?$AA@ 1007b398     libucrt:lcidtoname_downlevel.obj
 0002:0000b3a8       ??_C@_1M@BDNIPEND@?$AAe?$AAs?$AA?9?$AAC?$AAL?$AA?$AA@ 1007b3a8     libucrt:lcidtoname_downlevel.obj
 0002:0000b3b8       ??_C@_1M@MPNMEKBD@?$AAa?$AAr?$AA?9?$AAA?$AAE?$AA?$AA@ 1007b3b8     libucrt:lcidtoname_downlevel.obj
 0002:0000b3c8       ??_C@_1M@KBJALCPI@?$AAe?$AAs?$AA?9?$AAU?$AAY?$AA?$AA@ 1007b3c8     libucrt:lcidtoname_downlevel.obj
 0002:0000b3d8       ??_C@_1M@LLCCOAGA@?$AAa?$AAr?$AA?9?$AAB?$AAH?$AA?$AA@ 1007b3d8     libucrt:lcidtoname_downlevel.obj
 0002:0000b3e8       ??_C@_1M@PBFNCDEL@?$AAe?$AAs?$AA?9?$AAP?$AAY?$AA?$AA@ 1007b3e8     libucrt:lcidtoname_downlevel.obj
 0002:0000b3f8       ??_C@_1M@EDGINPNP@?$AAa?$AAr?$AA?9?$AAQ?$AAA?$AA?$AA@ 1007b3f8     libucrt:lcidtoname_downlevel.obj
 0002:0000b408       ??_C@_1M@MKDBIIJI@?$AAe?$AAs?$AA?9?$AAB?$AAO?$AA?$AA@ 1007b408     libucrt:lcidtoname_downlevel.obj
 0002:0000b418       ??_C@_1M@CPKKEBLD@?$AAe?$AAs?$AA?9?$AAS?$AAV?$AA?$AA@ 1007b418     libucrt:lcidtoname_downlevel.obj
 0002:0000b428       ??_C@_1M@NDBGMMJL@?$AAe?$AAs?$AA?9?$AAH?$AAN?$AA?$AA@ 1007b428     libucrt:lcidtoname_downlevel.obj
 0002:0000b438       ??_C@_1M@JIJIBHDP@?$AAe?$AAs?$AA?9?$AAN?$AAI?$AA?$AA@ 1007b438     libucrt:lcidtoname_downlevel.obj
 0002:0000b448       ??_C@_1M@CGFMKEEK@?$AAe?$AAs?$AA?9?$AAP?$AAR?$AA?$AA@ 1007b448     libucrt:lcidtoname_downlevel.obj
 0002:0000b458       ??_C@_1O@ICJHKIIK@?$AAz?$AAh?$AA?9?$AAC?$AAH?$AAT?$AA?$AA@ 1007b458     libucrt:lcidtoname_downlevel.obj
 0002:0000b468       ??_C@_15CLNEJCE@?$AAs?$AAr?$AA?$AA@ 1007b468     libucrt:lcidtoname_downlevel.obj
 0002:0000bcfc       ??_C@_1M@KAHEKEIG@?$AAa?$AAf?$AA?9?$AAz?$AAa?$AA?$AA@ 1007bcfc     libucrt:lcidtoname_downlevel.obj
 0002:0000bd0c       ??_C@_1M@GIECOABL@?$AAa?$AAr?$AA?9?$AAa?$AAe?$AA?$AA@ 1007bd0c     libucrt:lcidtoname_downlevel.obj
 0002:0000bd1c       ??_C@_1M@BMLMEKGI@?$AAa?$AAr?$AA?9?$AAb?$AAh?$AA?$AA@ 1007bd1c     libucrt:lcidtoname_downlevel.obj
 0002:0000bd2c       ??_C@_1M@DAPFDGGB@?$AAa?$AAr?$AA?9?$AAd?$AAz?$AA?$AA@ 1007bd2c     libucrt:lcidtoname_downlevel.obj
 0002:0000bd3c       ??_C@_1M@FJNKGKIG@?$AAa?$AAr?$AA?9?$AAe?$AAg?$AA?$AA@ 1007bd3c     libucrt:lcidtoname_downlevel.obj
 0002:0000bd4c       ??_C@_1M@FLGKKCLO@?$AAa?$AAr?$AA?9?$AAi?$AAq?$AA?$AA@ 1007bd4c     libucrt:lcidtoname_downlevel.obj
 0002:0000bd5c       ??_C@_1M@GNDIPALM@?$AAa?$AAr?$AA?9?$AAj?$AAo?$AA?$AA@ 1007bd5c     libucrt:lcidtoname_downlevel.obj
 0002:0000bd6c       ??_C@_1M@DDMJFMGJ@?$AAa?$AAr?$AA?9?$AAk?$AAw?$AA?$AA@ 1007bd6c     libucrt:lcidtoname_downlevel.obj
 0002:0000bd7c       ??_C@_1M@EJALMLHM@?$AAa?$AAr?$AA?9?$AAl?$AAb?$AA?$AA@ 1007bd7c     libucrt:lcidtoname_downlevel.obj
 0002:0000bd8c       ??_C@_1M@MOBDBLOC@?$AAa?$AAr?$AA?9?$AAl?$AAy?$AA?$AA@ 1007bd8c     libucrt:lcidtoname_downlevel.obj
 0002:0000bd9c       ??_C@_1M@JAOCLHDH@?$AAa?$AAr?$AA?9?$AAm?$AAa?$AA?$AA@ 1007bd9c     libucrt:lcidtoname_downlevel.obj
 0002:0000bdac       ??_C@_1M@JHPMKJIE@?$AAa?$AAr?$AA?9?$AAo?$AAm?$AA?$AA@ 1007bdac     libucrt:lcidtoname_downlevel.obj
 0002:0000bdbc       ??_C@_1M@OEPGHFNH@?$AAa?$AAr?$AA?9?$AAq?$AAa?$AA?$AA@ 1007bdbc     libucrt:lcidtoname_downlevel.obj
 0002:0000bdcc       ??_C@_1M@KJDONENM@?$AAa?$AAr?$AA?9?$AAs?$AAa?$AA?$AA@ 1007bdcc     libucrt:lcidtoname_downlevel.obj
 0002:0000bddc       ??_C@_1M@DMJDKLKM@?$AAa?$AAr?$AA?9?$AAs?$AAy?$AA?$AA@ 1007bddc     libucrt:lcidtoname_downlevel.obj
 0002:0000bdec       ??_C@_1M@OMFIPEDC@?$AAa?$AAr?$AA?9?$AAt?$AAn?$AA?$AA@ 1007bdec     libucrt:lcidtoname_downlevel.obj
 0002:0000bdfc       ??_C@_1M@IHMHGAON@?$AAa?$AAr?$AA?9?$AAy?$AAe?$AA?$AA@ 1007bdfc     libucrt:lcidtoname_downlevel.obj
 0002:0000be0c       ??_C@_1BG@KDCPGJGB@?$AAa?$AAz?$AA?9?$AAa?$AAz?$AA?9?$AAc?$AAy?$AAr?$AAl?$AA?$AA@ 1007be0c     libucrt:lcidtoname_downlevel.obj
 0002:0000be28       ??_C@_1BG@IBCKDDOE@?$AAa?$AAz?$AA?9?$AAa?$AAz?$AA?9?$AAl?$AAa?$AAt?$AAn?$AA?$AA@ 1007be28     libucrt:lcidtoname_downlevel.obj
 0002:0000be44       ??_C@_1M@EGPFDCPD@?$AAb?$AAe?$AA?9?$AAb?$AAy?$AA?$AA@ 1007be44     libucrt:lcidtoname_downlevel.obj
 0002:0000be54       ??_C@_1M@PCMGMCGC@?$AAb?$AAg?$AA?9?$AAb?$AAg?$AA?$AA@ 1007be54     libucrt:lcidtoname_downlevel.obj
 0002:0000be64       ??_C@_1M@BJBMFGOB@?$AAb?$AAn?$AA?9?$AAi?$AAn?$AA?$AA@ 1007be64     libucrt:lcidtoname_downlevel.obj
 0002:0000be74       ??_C@_1BG@EAKMMACD@?$AAb?$AAs?$AA?9?$AAb?$AAa?$AA?9?$AAl?$AAa?$AAt?$AAn?$AA?$AA@ 1007be74     libucrt:lcidtoname_downlevel.obj
 0002:0000be90       ??_C@_1M@KGADAODK@?$AAc?$AAa?$AA?9?$AAe?$AAs?$AA?$AA@ 1007be90     libucrt:lcidtoname_downlevel.obj
 0002:0000bea0       ??_C@_1M@COAJPDHI@?$AAc?$AAs?$AA?9?$AAc?$AAz?$AA?$AA@ 1007bea0     libucrt:lcidtoname_downlevel.obj
 0002:0000beb0       ??_C@_1M@DHBHFONH@?$AAc?$AAy?$AA?9?$AAg?$AAb?$AA?$AA@ 1007beb0     libucrt:lcidtoname_downlevel.obj
 0002:0000bec0       ??_C@_1M@IMGKELGA@?$AAd?$AAa?$AA?9?$AAd?$AAk?$AA?$AA@ 1007bec0     libucrt:lcidtoname_downlevel.obj
 0002:0000bed0       ??_C@_1M@NNDGDNGA@?$AAd?$AAe?$AA?9?$AAa?$AAt?$AA?$AA@ 1007bed0     libucrt:lcidtoname_downlevel.obj
 0002:0000bee0       ??_C@_1M@IKDBHEEM@?$AAd?$AAe?$AA?9?$AAc?$AAh?$AA?$AA@ 1007bee0     libucrt:lcidtoname_downlevel.obj
 0002:0000bef0       ??_C@_1M@GFFOJMCJ@?$AAd?$AAe?$AA?9?$AAd?$AAe?$AA?$AA@ 1007bef0     libucrt:lcidtoname_downlevel.obj
 0002:0000bf00       ??_C@_1M@MDNLKBPM@?$AAd?$AAe?$AA?9?$AAl?$AAi?$AA?$AA@ 1007bf00     libucrt:lcidtoname_downlevel.obj
 0002:0000bf10       ??_C@_1M@NJBEEJNL@?$AAd?$AAe?$AA?9?$AAl?$AAu?$AA?$AA@ 1007bf10     libucrt:lcidtoname_downlevel.obj
 0002:0000bf20       ??_C@_1O@GNNELBAP@?$AAd?$AAi?$AAv?$AA?9?$AAm?$AAv?$AA?$AA@ 1007bf20     libucrt:lcidtoname_downlevel.obj
 0002:0000bf30       ??_C@_1M@EJLEOGAE@?$AAe?$AAl?$AA?9?$AAg?$AAr?$AA?$AA@ 1007bf30     libucrt:lcidtoname_downlevel.obj
 0002:0000bf40       ??_C@_1M@GMPONJN@?$AAe?$AAn?$AA?9?$AAa?$AAu?$AA?$AA@ 1007bf40     libucrt:lcidtoname_downlevel.obj
 0002:0000bf50       ??_C@_1M@NIDIIPGF@?$AAe?$AAn?$AA?9?$AAb?$AAz?$AA?$AA@ 1007bf50     libucrt:lcidtoname_downlevel.obj
 0002:0000bf60       ??_C@_1M@JEHMIMFO@?$AAe?$AAn?$AA?9?$AAc?$AAa?$AA?$AA@ 1007bf60     libucrt:lcidtoname_downlevel.obj
 0002:0000bf70       ??_C@_1M@IGMJCDLA@?$AAe?$AAn?$AA?9?$AAc?$AAb?$AA?$AA@ 1007bf70     libucrt:lcidtoname_downlevel.obj
 0002:0000bf80       ??_C@_1M@BNFIGBKG@?$AAe?$AAn?$AA?9?$AAg?$AAb?$AA?$AA@ 1007bf80     libucrt:lcidtoname_downlevel.obj
 0002:0000bf90       ??_C@_1M@LKIFDIGP@?$AAe?$AAn?$AA?9?$AAi?$AAe?$AA?$AA@ 1007bf90     libucrt:lcidtoname_downlevel.obj
 0002:0000bfa0       ??_C@_1M@PJKFGCCO@?$AAe?$AAn?$AA?9?$AAj?$AAm?$AA?$AA@ 1007bfa0     libucrt:lcidtoname_downlevel.obj
 0002:0000bfb0       ??_C@_1M@KPPKEPBO@?$AAe?$AAn?$AA?9?$AAn?$AAz?$AA?$AA@ 1007bfb0     libucrt:lcidtoname_downlevel.obj
 0002:0000bfc0       ??_C@_1M@GMDGLDOB@?$AAe?$AAn?$AA?9?$AAp?$AAh?$AA?$AA@ 1007bfc0     libucrt:lcidtoname_downlevel.obj
 0002:0000bfd0       ??_C@_1M@ONGIBJNA@?$AAe?$AAn?$AA?9?$AAt?$AAt?$AA?$AA@ 1007bfd0     libucrt:lcidtoname_downlevel.obj
 0002:0000bfe0       ??_C@_1M@LLODPCMM@?$AAe?$AAn?$AA?9?$AAu?$AAs?$AA?$AA@ 1007bfe0     libucrt:lcidtoname_downlevel.obj
 0002:0000bff0       ??_C@_1M@LAKFNPAN@?$AAe?$AAn?$AA?9?$AAz?$AAa?$AA?$AA@ 1007bff0     libucrt:lcidtoname_downlevel.obj
 0002:0000c000       ??_C@_1M@MFNHNHEO@?$AAe?$AAn?$AA?9?$AAz?$AAw?$AA?$AA@ 1007c000     libucrt:lcidtoname_downlevel.obj
 0002:0000c010       ??_C@_1M@EJEINPHM@?$AAe?$AAs?$AA?9?$AAa?$AAr?$AA?$AA@ 1007c010     libucrt:lcidtoname_downlevel.obj
 0002:0000c020       ??_C@_1M@GNKPCCJA@?$AAe?$AAs?$AA?9?$AAb?$AAo?$AA?$AA@ 1007c020     libucrt:lcidtoname_downlevel.obj
 0002:0000c030       ??_C@_1M@LEEGFONL@?$AAe?$AAs?$AA?9?$AAc?$AAl?$AA?$AA@ 1007c030     libucrt:lcidtoname_downlevel.obj
 0002:0000c040       ??_C@_1M@KGPDPBDF@?$AAe?$AAs?$AA?9?$AAc?$AAo?$AA?$AA@ 1007c040     libucrt:lcidtoname_downlevel.obj
 0002:0000c050       ??_C@_1M@EIAHOHH@?$AAe?$AAs?$AA?9?$AAc?$AAr?$AA?$AA@ 1007c050     libucrt:lcidtoname_downlevel.obj
 0002:0000c060       ??_C@_1M@LLPGMBIN@?$AAe?$AAs?$AA?9?$AAd?$AAo?$AA?$AA@ 1007c060     libucrt:lcidtoname_downlevel.obj
 0002:0000c070       ??_C@_1M@DKHMKNJA@?$AAe?$AAs?$AA?9?$AAe?$AAc?$AA?$AA@ 1007c070     libucrt:lcidtoname_downlevel.obj
 0002:0000c080       ??_C@_1M@GKGFPKAP@?$AAe?$AAs?$AA?9?$AAe?$AAs?$AA?$AA@ 1007c080     libucrt:lcidtoname_downlevel.obj
 0002:0000c090       ??_C@_1M@LKHKGDLN@?$AAe?$AAs?$AA?9?$AAg?$AAt?$AA?$AA@ 1007c090     libucrt:lcidtoname_downlevel.obj
 0002:0000c0a0       ??_C@_1M@HEIIGGJD@?$AAe?$AAs?$AA?9?$AAh?$AAn?$AA?$AA@ 1007c0a0     libucrt:lcidtoname_downlevel.obj
 0002:0000c0b0       ??_C@_1M@FBDHPPGD@?$AAe?$AAs?$AA?9?$AAm?$AAx?$AA?$AA@ 1007c0b0     libucrt:lcidtoname_downlevel.obj
 0002:0000c0c0       ??_C@_1M@DPAGLNDH@?$AAe?$AAs?$AA?9?$AAn?$AAi?$AA?$AA@ 1007c0c0     libucrt:lcidtoname_downlevel.obj
 0002:0000c0d0       ??_C@_1M@MDGOPGDD@?$AAe?$AAs?$AA?9?$AAp?$AAa?$AA?$AA@ 1007c0d0     libucrt:lcidtoname_downlevel.obj
 0002:0000c0e0       ??_C@_1M@EMAMGBGE@?$AAe?$AAs?$AA?9?$AAp?$AAe?$AA?$AA@ 1007c0e0     libucrt:lcidtoname_downlevel.obj
 0002:0000c0f0       ??_C@_1M@IBMCAOEC@?$AAe?$AAs?$AA?9?$AAp?$AAr?$AA?$AA@ 1007c0f0     libucrt:lcidtoname_downlevel.obj
 0002:0000c100       ??_C@_1M@FGMDIJED@?$AAe?$AAs?$AA?9?$AAp?$AAy?$AA?$AA@ 1007c100     libucrt:lcidtoname_downlevel.obj
 0002:0000c110       ??_C@_1M@IIDEOLLL@?$AAe?$AAs?$AA?9?$AAs?$AAv?$AA?$AA@ 1007c110     libucrt:lcidtoname_downlevel.obj
 0002:0000c120       ??_C@_1M@GAOBIPA@?$AAe?$AAs?$AA?9?$AAu?$AAy?$AA?$AA@ 1007c120     libucrt:lcidtoname_downlevel.obj
 0002:0000c130       ??_C@_1M@JKFFICHJ@?$AAe?$AAs?$AA?9?$AAv?$AAe?$AA?$AA@ 1007c130     libucrt:lcidtoname_downlevel.obj
 0002:0000c140       ??_C@_1M@PNMLOJDF@?$AAe?$AAt?$AA?9?$AAe?$AAe?$AA?$AA@ 1007c140     libucrt:lcidtoname_downlevel.obj
 0002:0000c150       ??_C@_1M@GHHLIKEI@?$AAe?$AAu?$AA?9?$AAe?$AAs?$AA?$AA@ 1007c150     libucrt:lcidtoname_downlevel.obj
 0002:0000c160       ??_C@_1M@PBNONODE@?$AAf?$AAa?$AA?9?$AAi?$AAr?$AA?$AA@ 1007c160     libucrt:lcidtoname_downlevel.obj
 0002:0000c170       ??_C@_1M@JEEHPMIL@?$AAf?$AAi?$AA?9?$AAf?$AAi?$AA?$AA@ 1007c170     libucrt:lcidtoname_downlevel.obj
 0002:0000c180       ??_C@_1M@LMDCNDBA@?$AAf?$AAo?$AA?9?$AAf?$AAo?$AA?$AA@ 1007c180     libucrt:lcidtoname_downlevel.obj
 0002:0000c190       ??_C@_1M@JKEOHLDK@?$AAf?$AAr?$AA?9?$AAb?$AAe?$AA?$AA@ 1007c190     libucrt:lcidtoname_downlevel.obj
 0002:0000c1a0       ??_C@_1M@NOHADPMI@?$AAf?$AAr?$AA?9?$AAc?$AAa?$AA?$AA@ 1007c1a0     libucrt:lcidtoname_downlevel.obj
 0002:0000c1b0       ??_C@_1M@KDHIHAEC@?$AAf?$AAr?$AA?9?$AAc?$AAh?$AA?$AA@ 1007c1b0     libucrt:lcidtoname_downlevel.obj
 0002:0000c1c0       ??_C@_1M@MMBBFGAK@?$AAf?$AAr?$AA?9?$AAf?$AAr?$AA?$AA@ 1007c1c0     libucrt:lcidtoname_downlevel.obj
 0002:0000c1d0       ??_C@_1M@PAFNENNF@?$AAf?$AAr?$AA?9?$AAl?$AAu?$AA?$AA@ 1007c1d0     libucrt:lcidtoname_downlevel.obj
 0002:0000c1e0       ??_C@_1M@EOHDJGDD@?$AAf?$AAr?$AA?9?$AAm?$AAc?$AA?$AA@ 1007c1e0     libucrt:lcidtoname_downlevel.obj
 0002:0000c1f0       ??_C@_1M@FAPLLOPF@?$AAg?$AAl?$AA?9?$AAe?$AAs?$AA?$AA@ 1007c1f0     libucrt:lcidtoname_downlevel.obj
 0002:0000c200       ??_C@_1M@FOPBFLOO@?$AAg?$AAu?$AA?9?$AAi?$AAn?$AA?$AA@ 1007c200     libucrt:lcidtoname_downlevel.obj
 0002:0000c210       ??_C@_1M@KBMCINPM@?$AAh?$AAe?$AA?9?$AAi?$AAl?$AA?$AA@ 1007c210     libucrt:lcidtoname_downlevel.obj
 0002:0000c220       ??_C@_1M@BBPHKFPJ@?$AAh?$AAi?$AA?9?$AAi?$AAn?$AA?$AA@ 1007c220     libucrt:lcidtoname_downlevel.obj
 0002:0000c230       ??_C@_1M@PMBNDPHD@?$AAh?$AAr?$AA?9?$AAb?$AAa?$AA?$AA@ 1007c230     libucrt:lcidtoname_downlevel.obj
 0002:0000c240       ??_C@_1M@BPCKOEGE@?$AAh?$AAr?$AA?9?$AAh?$AAr?$AA?$AA@ 1007c240     libucrt:lcidtoname_downlevel.obj
 0002:0000c250       ??_C@_1M@GACBMHKE@?$AAh?$AAu?$AA?9?$AAh?$AAu?$AA?$AA@ 1007c250     libucrt:lcidtoname_downlevel.obj
 0002:0000c260       ??_C@_1M@MILPAJJC@?$AAh?$AAy?$AA?9?$AAa?$AAm?$AA?$AA@ 1007c260     libucrt:lcidtoname_downlevel.obj
 0002:0000c270       ??_C@_1M@BABBICEC@?$AAi?$AAd?$AA?9?$AAi?$AAd?$AA?$AA@ 1007c270     libucrt:lcidtoname_downlevel.obj
 0002:0000c280       ??_C@_1M@BIKNHHPF@?$AAi?$AAs?$AA?9?$AAi?$AAs?$AA?$AA@ 1007c280     libucrt:lcidtoname_downlevel.obj
 0002:0000c290       ??_C@_1M@NMPCJPHE@?$AAi?$AAt?$AA?9?$AAc?$AAh?$AA?$AA@ 1007c290     libucrt:lcidtoname_downlevel.obj
 0002:0000c2a0       ??_C@_1M@GHKGFEDF@?$AAi?$AAt?$AA?9?$AAi?$AAt?$AA?$AA@ 1007c2a0     libucrt:lcidtoname_downlevel.obj
 0002:0000c2b0       ??_C@_1M@NIEJCJJA@?$AAj?$AAa?$AA?9?$AAj?$AAp?$AA?$AA@ 1007c2b0     libucrt:lcidtoname_downlevel.obj
 0002:0000c2c0       ??_C@_1M@JILFNBIM@?$AAk?$AAa?$AA?9?$AAg?$AAe?$AA?$AA@ 1007c2c0     libucrt:lcidtoname_downlevel.obj
