 slrttestmdl_slrt

 Timestamp is 619e4ea6 (Wed Nov 24 15:39:34 2021)

 Preferred load address is 10000000

 Start         Length     Name                   Class
 0001:00000000 000688a2H .text$mn                CODE
 0001:000688a2 00001085H .text$x                 CODE
 0002:00000000 00000104H .CRT$XCA                DATA
 0002:00000104 00000104H .CRT$XCZ                DATA
 0002:00000208 00000104H .CRT$XIA                DATA
 0002:0000030c 00000110H .CRT$XIC                DATA
 0002:0000041c 00000104H .CRT$XIZ                DATA
 0002:00000520 00000104H .CRT$XPA                DATA
 0002:00000624 0000010cH .CRT$XPX                DATA
 0002:00000730 00000104H .CRT$XPXA               DATA
 0002:00000834 00000104H .CRT$XPZ                DATA
 0002:00000938 00000104H .CRT$XTA                DATA
 0002:00000a3c 00000104H .CRT$XTZ                DATA
 0002:00000b40 0000ca9cH .rdata                  DATA
 0002:0000d5dc 00000444H .rdata$r                DATA
 0002:0000da20 00000128H .rdata$sxdata           DATA
 0002:0000db48 00000214H .rdata$zzzdbg           DATA
 0002:0000dd5c 00000104H .rtc$IAA                DATA
 0002:0000de60 00000104H .rtc$IZZ                DATA
 0002:0000df64 00000104H .rtc$TAA                DATA
 0002:0000e068 00000108H .rtc$TZZ                DATA
 0002:0000e170 00000ce0H .xdata$x                DATA
 0002:0000ee50 000001e5H .edata                  DATA
 0003:00000000 00000fb0H .data                   DATA
 0003:00000fb0 00000250H .data$r                 DATA
 0003:00001200 0001321cH .bss                    DATA
 0004:00000000 000001b4H .idata$5                DATA
 0004:000001b4 00000014H .idata$2                DATA
 0004:000001c8 00000014H .idata$3                DATA
 0004:000001dc 000001b4H .idata$4                DATA
 0004:00000390 000007a2H .idata$6                DATA
 0005:00000000 00000104H .00cfg                  DATA

  Address         Publics by Value              Rva+Base       Lib:Object

 0000:00000000       ___hybrid_code_map_count   00000000     <absolute>
 0000:00000000       ___guard_fids_table        00000000     <absolute>
 0000:00000000       ___guard_longjmp_count     00000000     <absolute>
 0000:00000000       ___guard_fids_count        00000000     <absolute>
 0000:00000000       ___volatile_metadata       00000000     <absolute>
 0000:00000000       ___guard_longjmp_table     00000000     <absolute>
 0000:00000000       ___dynamic_value_reloc_table 00000000     <absolute>
 0000:00000000       __except_list              00000000     <absolute>
 0000:00000000       ___hybrid_auxiliary_iat    00000000     <absolute>
 0000:00000000       ___hybrid_code_map         00000000     <absolute>
 0000:00000000       ___enclave_config          00000000     <absolute>
 0000:00000000       ___guard_iat_table         00000000     <absolute>
 0000:00000000       ___guard_iat_count         00000000     <absolute>
 0000:00000008       ___safe_se_handler_count   00000008     <absolute>
 0000:00000100       ___guard_flags             00000100     <absolute>
 0000:00000000       ___ImageBase               10000000     <linker-defined>
 0001:000063c0       _MdlInitialize             100073c0 f   slrttestmdl.obj
 0001:000063d0       _MdlInitializeSampleTimes  100073d0 f   slrttestmdl.obj
 0001:000063e0       _MdlInitializeSizes        100073e0 f   slrttestmdl.obj
 0001:000063f0       _MdlOutputs                100073f0 f   slrttestmdl.obj
 0001:00006400       _MdlStart                  10007400 f   slrttestmdl.obj
 0001:00006430       _MdlTerminate              10007430 f   slrttestmdl.obj
 0001:00006440       _MdlUpdate                 10007440 f   slrttestmdl.obj
 0001:00006510       _rt_ODECreateIntegrationData 10007510 f   slrttestmdl.obj
 0001:00006520       _rt_ODEDestroyIntegrationData 10007520 f   slrttestmdl.obj
 0001:00006530       _rt_ODEUpdateContinuousStates 10007530 f   slrttestmdl.obj
 0001:00006800       _slrttestmdl               10007800 f   slrttestmdl.obj
 0001:00006bc0       _slrttestmdl_derivatives   10007bc0 f   slrttestmdl.obj
 0001:00006bf0       _slrttestmdl_initialize    10007bf0 f   slrttestmdl.obj
 0001:00006c20       _slrttestmdl_output        10007c20 f   slrttestmdl.obj
 0001:00006e40       _slrttestmdl_terminate     10007e40 f   slrttestmdl.obj
 0001:00006e50       _slrttestmdl_update        10007e50 f   slrttestmdl.obj
 0001:00006f20       _rtGetInf                  10007f20 f   rtGetInf.obj
 0001:00006f50       _rtGetInfF                 10007f50 f   rtGetInf.obj
 0001:00006f70       _rtGetMinusInf             10007f70 f   rtGetInf.obj
 0001:00006fa0       _rtGetMinusInfF            10007fa0 f   rtGetInf.obj
 0001:00006fc0       _rtGetNaN                  10007fc0 f   rtGetNaN.obj
 0001:00006ff0       _rtGetNaNF                 10007ff0 f   rtGetNaN.obj
 0001:00007010       _rtIsInf                   10008010 f   rt_nonfinite.obj
 0001:00007050       _rtIsInfF                  10008050 f   rt_nonfinite.obj
 0001:00007090       _rtIsNaN                   10008090 f   rt_nonfinite.obj
 0001:000070a0       _rtIsNaNF                  100080a0 f   rt_nonfinite.obj
 0001:000070b0       _rt_InitInfAndNaN          100080b0 f   rt_nonfinite.obj
 0001:00007110       _slrttestmdl_GetCAPIStaticMap 10008110 f   slrttestmdl_capi.obj
 0001:00007120       _slrttestmdl_InitializeDataMapInfo 10008120 f   slrttestmdl_capi.obj
 0001:000071b0       _rt_CleanUpForStateLogWithMMI 100081b0 f   rt_logging_mmi.obj
 0001:000072c0       _rt_FillStateSigInfoFromMMI 100082c0 f   rt_logging_mmi.obj
 0001:00007660       _rtwCAPI_CountSysRan       10008660 f   rtw_modelmap_utils.obj
 0001:00007700       _rtwCAPI_EncodePath        10008700 f   rtw_modelmap_utils.obj
 0001:00007810       _rtwCAPI_FillSysRan        10008810 f   rtw_modelmap_utils.obj
 0001:00007900       _rtwCAPI_FreeFullPaths     10008900 f   rtw_modelmap_utils.obj
 0001:00007990       _rtwCAPI_GetFullStateBlockPath 10008990 f   rtw_modelmap_utils.obj
 0001:00007b20       _rtwCAPI_GetNumContStateRecords 10008b20 f   rtw_modelmap_utils.obj
 0001:00007be0       _rtwCAPI_GetNumSigLogRecords 10008be0 f   rtw_modelmap_utils.obj
 0001:00007c30       _rtwCAPI_GetNumSigLogRecordsForRTWLogging 10008c30 f   rtw_modelmap_utils.obj
 0001:00007cd0       _rtwCAPI_GetNumStateRecords 10008cd0 f   rtw_modelmap_utils.obj
 0001:00007d20       _rtwCAPI_GetNumStateRecordsForRTWLogging 10008d20 f   rtw_modelmap_utils.obj
 0001:00007dc0       _rtwCAPI_GetSigAddrFromMap 10008dc0 f   rtw_modelmap_utils.obj
 0001:00007e80       _rtwCAPI_GetSigLogRecordInfo 10008e80 f   rtw_modelmap_utils.obj
 0001:000082b0       _rtwCAPI_GetStateRecordInfo 100092b0 f   rtw_modelmap_utils.obj
 0001:00008770       _rtwCAPI_GetStateWidth     10009770 f   rtw_modelmap_utils.obj
 0001:000087d0       _rtwCAPI_HasStates         100097d0 f   rtw_modelmap_utils.obj
 0001:00008830       _rtwCAPI_UpdateFullPaths   10009830 f   rtw_modelmap_utils.obj
 0001:00008a10       ___local_stdio_printf_options 10009a10 f i rt_logging.obj
 0001:00008a20       __vfprintf_l               10009a20 f i rt_logging.obj
 0001:00008a50       __vsnprintf_l              10009a50 f i rt_logging.obj
 0001:00008a90       __vsprintf_l               10009a90 f i rt_logging.obj
 0001:00008ad0       _fprintf                   10009ad0 f i rt_logging.obj
 0001:00008fd0       _printf                    10009fd0 f i rt_logging.obj
 0001:00009010       _rt_CreateLogVar           1000a010 f   rt_logging.obj
 0001:000090a0       _rt_CreateLogVarWithConvert 1000a0a0 f   rt_logging.obj
 0001:000099d0       _rt_CreateStructLogVar     1000a9d0 f   rt_logging.obj
 0001:0000a750       _rt_GetMxIdFromDTypeId     1000b750 f   rt_logging.obj
 0001:0000a780       _rt_GetMxIdFromDTypeIdForRSim 1000b780 f   rt_logging.obj
 0001:0000d310       _rt_StartDataLogging       1000e310 f   rt_logging.obj
 0001:0000d7d0       _rt_StartDataLoggingWithStartTime 1000e7d0 f   rt_logging.obj
 0001:0000dc40       _rt_StopDataLogging        1000ec40 f   rt_logging.obj
 0001:0000dc60       _rt_StopDataLoggingImpl    1000ec60 f   rt_logging.obj
 0001:0000e080       _rt_UpdateLogVar           1000f080 f   rt_logging.obj
 0001:0000f210       _rt_UpdateStructLogVar     10010210 f   rt_logging.obj
 0001:0000f2a0       _rt_UpdateTXXFYLogVars     100102a0 f   rt_logging.obj
 0001:0000f5d0       _rt_UpdateTXYLogVars       100105d0 f   rt_logging.obj
 0001:0000f810       _sprintf                   10010810 f i rt_logging.obj
 0001:0000f850       _DllMain@12                10010850 f   xpctarget.obj
 0001:0000f860       _SLRTSetErrorStatus        10010860 f   xpctarget.obj
 0001:0000f880       _changeStepSize            10010880 f   xpctarget.obj
 0001:0000f8f0       _getDLMVersion             100108f0 f   xpctarget.obj
 0001:0000f900       _getRefMdlPath             10010900 f   xpctarget.obj
 0001:0000f980       _getRefMdlSignalNumber     10010980 f   xpctarget.obj
 0001:0000fa30       _getrlmdlinfo              10010a30 f   xpctarget.obj
 0001:0000fc10       _slrttestmdl_ChangeStepSize 10010c10 f   xpctarget.obj
 0001:0000fc80       _updateDiscreteEvents      10010c80 f   xpctarget.obj
 0001:0000fc90       _getNumRef                 10010c90 f   appmappingData.obj
 0001:0000fca0       _vprintf                   10010ca0 f i legacy_stdio.obj
 0001:0000fce0       _GetPCIDeviceFull          10010ce0 f   xpcruntime:xpcimports.obj
 0001:0000fd20       _ShowPCIDevice             10010d20 f   xpcruntime:xpcimports.obj
 0001:00010500       _xpcGetPciConfigAtSlot     10011500 f   xpcruntime:xpcimports.obj
 0001:00010810       _xpcInitProcs              10011810 f   xpcruntime:xpcimports.obj
 0001:00011b70       _xpceuploadevent           10012b70 f   xpcruntime:xpcimports.obj
 0001:00011b71       ___raise_securityfailure   10012b71 f   LIBCMT:gs_report.obj
 0001:00011ba3       ___report_gsfailure        10012ba3 f   LIBCMT:gs_report.obj
 0001:00011cda       ___report_rangecheckfailure 10012cda f   LIBCMT:gs_report.obj
 0001:00011ce9       ___report_securityfailure  10012ce9 f   LIBCMT:gs_report.obj
 0001:00011dea       ___report_securityfailureEx 10012dea f   LIBCMT:gs_report.obj
 0001:00011f43       @__security_check_cookie@4 10012f43 f   LIBCMT:secchk.obj
 0001:00011f60       __ftoui3                   10012f60 f   LIBCMT:ftol3.obj
 0001:00011f6f       __ftoul3                   10012f6f f   LIBCMT:ftol3.obj
 0001:00011f7e       __ftol3                    10012f7e f   LIBCMT:ftol3.obj
 0001:00011f8b       __ftol3_NaN                10012f8b f   LIBCMT:ftol3.obj
 0001:00011fa3       __ftol3_work               10012fa3 f   LIBCMT:ftol3.obj
 0001:00012029       __ftol3_common             10013029 f   LIBCMT:ftol3.obj
 0001:000120eb       __ftol3_arg_error          100130eb f   LIBCMT:ftol3.obj
 0001:000120fd       __ftol3_except             100130fd f   LIBCMT:ftol3.obj
 0001:00012141       __dtoui3                   10013141 f   LIBCMT:ftol3.obj
 0001:00012150       __dtoul3                   10013150 f   LIBCMT:ftol3.obj
 0001:0001215f       __dtol3                    1001315f f   LIBCMT:ftol3.obj
 0001:0001216c       __dtol3_NaN                1001316c f   LIBCMT:ftol3.obj
 0001:00012189       __dtol3_work               10013189 f   LIBCMT:ftol3.obj
 0001:00012270       __ultod3                   10013270 f   LIBCMT:ftol3.obj
 0001:000122b0       __ltod3                    100132b0 f   LIBCMT:ftol3.obj
 0001:000123b4       ___isa_available_init      100133b4 f   LIBCMT:cpu_disp.obj
 0001:00012995       __CRT_INIT@12              10013995 f   LIBCMT:dll_dllmain.obj
 0001:000129a0       __DllMainCRTStartup@12     100139a0 f   LIBCMT:dll_dllmain.obj
 0001:00012a2b       ___security_init_cookie    10013a2b f   LIBCMT:gs_support.obj
 0001:00012a88       ?__scrt_initialize_type_info@@YAXXZ 10013a88 f   LIBCMT:tncleanup.obj
 0001:00012a97       ?__scrt_uninitialize_type_info@@YAXXZ 10013a97 f   LIBCMT:tncleanup.obj
 0001:00012aa6       ___local_stdio_scanf_options 10013aa6 f i LIBCMT:default_local_stdio_options.obj
 0001:00012aac       ___scrt_initialize_default_local_stdio_options 10013aac f   LIBCMT:default_local_stdio_options.obj
 0001:00012ad0       ??$__crt_fast_decode_pointer@PAP6AXXZ@@YAPAP6AXXZQAP6AXXZ@Z 10013ad0 f i LIBCMT:utility.obj
 0001:00012ae9       ??$__crt_fast_encode_pointer@PAP6AXXZ@@YAPAP6AXXZQAP6AXXZ@Z 10013ae9 f i LIBCMT:utility.obj
 0001:00012b0d       ?__crt_rotate_pointer_value@@YAIIH@Z 10013b0d f i LIBCMT:utility.obj
 0001:00012b1d       ?configure_argv@__scrt_narrow_argv_policy@@SAHXZ 10013b1d f i LIBCMT:utility.obj
 0001:00012b82       ?initialize_environment@__scrt_narrow_environment_policy@@SAHXZ 10013b82 f i LIBCMT:utility.obj
 0001:00012bc8       _NtCurrentTeb              10013bc8 f i LIBCMT:utility.obj
 0001:00012bcf       ___scrt_acquire_startup_lock 10013bcf f   LIBCMT:utility.obj
 0001:00012c0d       ___scrt_dllmain_after_initialize_c 10013c0d f   LIBCMT:utility.obj
 0001:00012c42       ___scrt_dllmain_before_initialize_c 10013c42 f   LIBCMT:utility.obj
 0001:00012c53       ___scrt_dllmain_crt_thread_attach 10013c53 f   LIBCMT:utility.obj
 0001:00012c79       ___scrt_dllmain_crt_thread_detach 10013c79 f   LIBCMT:utility.obj
 0001:00012c89       ___scrt_dllmain_exception_filter 10013c89 f   LIBCMT:utility.obj
 0001:00012cca       ___scrt_dllmain_uninitialize_c 10013cca f   LIBCMT:utility.obj
 0001:00012cf5       ___scrt_dllmain_uninitialize_critical 10013cf5 f   LIBCMT:utility.obj
 0001:00012d05       ___scrt_initialize_crt     10013d05 f   LIBCMT:utility.obj
 0001:00012d4c       ___scrt_initialize_onexit_tables 10013d4c f   LIBCMT:utility.obj
 0001:00012e1a       ___scrt_is_nonwritable_in_current_image 10013e1a f   LIBCMT:utility.obj
 0001:00012ed3       ___scrt_release_startup_lock 10013ed3 f   LIBCMT:utility.obj
 0001:00012ef7       ___scrt_uninitialize_crt   10013ef7 f   LIBCMT:utility.obj
 0001:00012f29       __onexit                   10013f29 f   LIBCMT:utility.obj
 0001:00012f72       _at_quick_exit             10013f72 f   LIBCMT:utility.obj
 0001:00012faf       _atexit                    10013faf f   LIBCMT:utility.obj
 0001:00012fc9       ___scrt_get_dyn_tls_init_callback 10013fc9 f   LIBCMT:dyn_tls_init.obj
 0001:00012fcf       ___scrt_fastfail           10013fcf f   LIBCMT:utility_desktop.obj
 0001:0001312f       ___scrt_get_show_window_mode 1001412f f   LIBCMT:utility_desktop.obj
 0001:0001316c       ___scrt_initialize_mta     1001416c f   LIBCMT:utility_desktop.obj
 0001:00013171       ___scrt_initialize_winrt   10014171 f   LIBCMT:utility_desktop.obj
 0001:00013174       ___scrt_is_managed_app     10014174 f   LIBCMT:utility_desktop.obj
 0001:000131c7       ___scrt_set_unhandled_exception_filter 100141c7 f   LIBCMT:utility_desktop.obj
 0001:000131d6       ___scrt_exe_initialize_mta 100141d6 f   LIBCMT:utility_desktop.obj
 0001:000131d6       ___scrt_stub_for_initialize_mta 100141d6 f   LIBCMT:utility_desktop.obj
 0001:000131d9       ___scrt_unhandled_exception_filter@4 100141d9 f   LIBCMT:utility_desktop.obj
 0001:0001322a       __crt_debugger_hook        1001422a f   LIBCMT:utility_desktop.obj
 0001:00013234       __RTC_Initialize           10014234 f   LIBCMT:initsect.obj
 0001:0001326b       __RTC_Terminate            1001426b f   LIBCMT:initsect.obj
 0001:000132b0       __SEH_prolog4              100142b0 f   LIBCMT:sehprolg4.obj
 0001:000132f6       __SEH_epilog4              100142f6 f   LIBCMT:sehprolg4.obj
 0001:00013321       @_guard_check_icall_nop@4  10014321 f i LIBCMT:guard_support.obj
 0001:00013322       _ReadNoFence               10014322 f i LIBCMT:guard_support.obj
 0001:0001332e       _ReadPointerNoFence        1001432e f i LIBCMT:guard_support.obj
 0001:0001333a       __guard_icall_checks_enforced 1001433a f i LIBCMT:guard_support.obj
 0001:00013350       __get_startup_argv_mode    10014350 f   LIBCMT:argv_mode.obj
 0001:00013354       ___scrt_is_ucrt_dll_in_use 10014354 f   LIBCMT:ucrt_detection.obj
 0001:00013363       _GetModuleHandleA@4        10014363 f   kernel32:KERNEL32.dll
 0001:00013369       _GetProcAddress@8          10014369 f   kernel32:KERNEL32.dll
 0001:0001336f       _UnhandledExceptionFilter@4 1001436f f   kernel32:KERNEL32.dll
 0001:00013375       _SetUnhandledExceptionFilter@4 10014375 f   kernel32:KERNEL32.dll
 0001:0001337b       _GetCurrentProcess@0       1001437b f   kernel32:KERNEL32.dll
 0001:00013381       _TerminateProcess@8        10014381 f   kernel32:KERNEL32.dll
 0001:00013387       _IsProcessorFeaturePresent@4 10014387 f   kernel32:KERNEL32.dll
 0001:0001338d       _QueryPerformanceCounter@4 1001438d f   kernel32:KERNEL32.dll
 0001:00013393       _GetCurrentProcessId@0     10014393 f   kernel32:KERNEL32.dll
 0001:00013399       _GetCurrentThreadId@0      10014399 f   kernel32:KERNEL32.dll
 0001:0001339f       _GetSystemTimeAsFileTime@4 1001439f f   kernel32:KERNEL32.dll
 0001:000133a5       _InitializeSListHead@4     100143a5 f   kernel32:KERNEL32.dll
 0001:000133ab       _IsDebuggerPresent@0       100143ab f   kernel32:KERNEL32.dll
 0001:000133b1       _GetStartupInfoW@4         100143b1 f   kernel32:KERNEL32.dll
 0001:000133b7       _GetModuleHandleW@4        100143b7 f   kernel32:KERNEL32.dll
 0001:000133c0       _memset                    100143c0 f   libvcruntime:memset.obj
 0001:00013570       _memcpy                    10014570 f   libvcruntime:memcpy.obj
 0001:00013c50       _strchr                    10014c50 f   libvcruntime:strchr.obj
 0001:00013cbe       ___from_strstr_to_strchr   10014cbe     libvcruntime:strchr.obj
 0001:00013dd0       _memmove                   10014dd0 f   libvcruntime:memmove.obj
 0001:000144f0       __except_handler4          100154f0 f   libvcruntime:chandler4.obj
 0001:000146ac       ??$?RD@__crt_internal_free_policy@@QBEXQBD@Z 100156ac f i libvcruntime:std_type_info.obj
 0001:000146c0       ??$?RX@__crt_internal_free_policy@@QBEXQBX@Z 100156c0 f i libvcruntime:std_type_info.obj
 0001:000146d4       ??$__crt_interlocked_compare_exchange_pointer@$$CBDPAD$$T@@YAPBDPDSBDQAD$$T@Z 100156d4 f i libvcruntime:std_type_info.obj
 0001:000146ea       ??$__crt_interlocked_read_pointer@$$CBD@@YAPBDPDSBD@Z 100156ea f i libvcruntime:std_type_info.obj
 0001:000146f6       ??0?$__crt_unique_heap_ptr@DU__crt_internal_free_policy@@@@QAE@QAD@Z 100156f6 f i libvcruntime:std_type_info.obj
 0001:00014707       ??0?$__crt_unique_heap_ptr@XU__crt_internal_free_policy@@@@QAE@QAX@Z 10015707 f i libvcruntime:std_type_info.obj
 0001:00014718       ??1?$__crt_unique_heap_ptr@DU__crt_internal_free_policy@@@@QAE@XZ 10015718 f i libvcruntime:std_type_info.obj
 0001:0001472c       ??1?$__crt_unique_heap_ptr@XU__crt_internal_free_policy@@@@QAE@XZ 1001572c f i libvcruntime:std_type_info.obj
 0001:0001474c       ??B?$__crt_unique_heap_ptr@DU__crt_internal_free_policy@@@@QBE_NXZ 1001574c f i libvcruntime:std_type_info.obj
 0001:00014753       ??B?$__crt_unique_heap_ptr@XU__crt_internal_free_policy@@@@QBE_NXZ 10015753 f i libvcruntime:std_type_info.obj
 0001:00014782       ?__crt_interlocked_read_32@@YAHPDH@Z 10015782 f i libvcruntime:std_type_info.obj
 0001:0001478e       ?detach@?$__crt_unique_heap_ptr@XU__crt_internal_free_policy@@@@QAEPAXXZ 1001578e f i libvcruntime:std_type_info.obj
 0001:00014794       ?get@?$__crt_unique_heap_ptr@DU__crt_internal_free_policy@@@@QBEPADXZ 10015794 f i libvcruntime:std_type_info.obj
 0001:00014797       ?get@?$__crt_unique_heap_ptr@XU__crt_internal_free_policy@@@@QBEPAXXZ 10015797 f i libvcruntime:std_type_info.obj
 0001:0001479a       ?is_valid@?$__crt_unique_heap_ptr@DU__crt_internal_free_policy@@@@QBE_NXZ 1001579a f i libvcruntime:std_type_info.obj
 0001:000147a1       ?is_valid@?$__crt_unique_heap_ptr@XU__crt_internal_free_policy@@@@QBE_NXZ 100157a1 f i libvcruntime:std_type_info.obj
 0001:000147a8       ?release@?$__crt_unique_heap_ptr@DU__crt_internal_free_policy@@@@QAEXXZ 100157a8 f i libvcruntime:std_type_info.obj
 0001:000147bc       ?release@?$__crt_unique_heap_ptr@XU__crt_internal_free_policy@@@@QAEXXZ 100157bc f i libvcruntime:std_type_info.obj
 0001:000147d0       ___std_type_info_compare   100157d0 f   libvcruntime:std_type_info.obj
 0001:0001481b       ___std_type_info_destroy_list 1001581b f   libvcruntime:std_type_info.obj
 0001:00014846       ___std_type_info_hash      10015846 f   libvcruntime:std_type_info.obj
 0001:00014875       ___std_type_info_name      10015875 f   libvcruntime:std_type_info.obj
 0001:00014968       ___vcrt_initialize         10015968 f   libvcruntime:initialization.obj
 0001:0001499b       ___vcrt_thread_attach      1001599b f   libvcruntime:initialization.obj
 0001:000149a8       ___vcrt_thread_detach      100159a8 f   libvcruntime:initialization.obj
 0001:000149b5       ___vcrt_uninitialize       100159b5 f   libvcruntime:initialization.obj
 0001:000149db       ___vcrt_uninitialize_critical 100159db f   libvcruntime:initialization.obj
 0001:000149f0       __local_unwind4            100159f0 f   libvcruntime:exsup4.obj
 0001:00014ac8       __seh_longjmp_unwind4@4    10015ac8 f   libvcruntime:exsup4.obj
 0001:00014af0       @_EH4_CallFilterFunc@8     10015af0 f   libvcruntime:exsup4.obj
 0001:00014b08       @_EH4_TransferToHandler@8  10015b08 f   libvcruntime:exsup4.obj
 0001:00014b24       @_EH4_GlobalUnwind2@8      10015b24 f   libvcruntime:exsup4.obj
 0001:00014b40       @_EH4_LocalUnwind@16       10015b40 f   libvcruntime:exsup4.obj
 0001:00014bbd       ___except_validate_context_record 10015bbd f   libvcruntime:jbcxrval.obj
 0001:00014bf9       ___except_validate_jump_buffer 10015bf9 f   libvcruntime:jbcxrval.obj
 0001:00014c31       ___except_validate_jump_buffer_common 10015c31 f i libvcruntime:jbcxrval.obj
 0001:00014c78       ??0Block@_HeapManager@@QAE@XZ 10015c78 f i libvcruntime:undname.obj
 0001:00014c7e       ??0DName@@QAE@AAPBDD@Z     10015c7e f   libvcruntime:undname.obj
 0001:00014d5c       ??0DName@@QAE@ABV0@@Z      10015d5c f i libvcruntime:undname.obj
 0001:00014d77       ??0DName@@QAE@D@Z          10015d77 f   libvcruntime:undname.obj
 0001:00014da5       ??0DName@@QAE@PAV0@@Z      10015da5 f   libvcruntime:undname.obj
 0001:00014dff       ??0DName@@QAE@PBD@Z        10015dff f   libvcruntime:undname.obj
 0001:00014e3e       ??0DName@@QAE@W4DNameStatus@@@Z 10015e3e f   libvcruntime:undname.obj
 0001:00014e8e       ??0DName@@QAE@XZ           10015e8e f i libvcruntime:undname.obj
 0001:00014e9a       ??0DName@@QAE@_J@Z         10015e9a f   libvcruntime:undname.obj
 0001:00014f49       ??0DName@@QAE@_K@Z         10015f49 f   libvcruntime:undname.obj
 0001:00014fc8       ??0DNameNode@@IAE@XZ       10015fc8 f i libvcruntime:undname.obj
 0001:00014fd3       ??0Replicator@@QAE@XZ      10015fd3 f i libvcruntime:undname.obj
 0001:00014fe4       ??0UnDecorator@@QAE@PBDP6APADJ@ZK@Z 10015fe4 f i libvcruntime:undname.obj
 0001:00015043       ??0charNode@@QAE@D@Z       10016043 f i libvcruntime:undname.obj
 0001:0001505d       ??0pDNameNode@@QAE@PAVDName@@@Z 1001605d f   libvcruntime:undname.obj
 0001:0001508f       ??0pairNode@@QAE@PBVDNameNode@@0@Z 1001608f f i libvcruntime:undname.obj
 0001:000150b5       ??0pcharNode@@QAE@PBDH@Z   100160b5 f   libvcruntime:undname.obj
 0001:0001512b       ??2@YAPAXIAAV_HeapManager@@H@Z 1001612b f i libvcruntime:undname.obj
 0001:00015145       ??4DName@@QAEAAV0@ABV0@@Z  10016145 f   libvcruntime:undname.obj
 0001:00015160       ??4DName@@QAEAAV0@D@Z      10016160 f i libvcruntime:undname.obj
 0001:0001518e       ??4DName@@QAEAAV0@PAV0@@Z  1001618e f   libvcruntime:undname.obj
 0001:000151e0       ??4DName@@QAEAAV0@PBD@Z    100161e0 f   libvcruntime:undname.obj
 0001:00015215       ??4DName@@QAEAAV0@W4DNameStatus@@@Z 10016215 f   libvcruntime:undname.obj
 0001:00015253       ??AReplicator@@QBE?AVDName@@H@Z 10016253 f   libvcruntime:undname.obj
 0001:000152aa       ??H@YA?AVDName@@DABV0@@Z   100162aa f i libvcruntime:undname.obj
 0001:000152d4       ??H@YA?AVDName@@PBDABV0@@Z 100162d4 f i libvcruntime:undname.obj
 0001:000152fe       ??H@YA?AVDName@@W4DNameStatus@@ABV0@@Z 100162fe f i libvcruntime:undname.obj
 0001:00015328       ??HDName@@QBE?AV0@ABV0@@Z  10016328 f   libvcruntime:undname.obj
 0001:00015352       ??HDName@@QBE?AV0@D@Z      10016352 f   libvcruntime:undname.obj
 0001:0001537c       ??HDName@@QBE?AV0@PAV0@@Z  1001637c f   libvcruntime:undname.obj
 0001:000153a6       ??HDName@@QBE?AV0@PBD@Z    100163a6 f   libvcruntime:undname.obj
 0001:000153d0       ??HDName@@QBE?AV0@W4DNameStatus@@@Z 100163d0 f   libvcruntime:undname.obj
 0001:000153fa       ??YDName@@QAEAAV0@ABV0@@Z  100163fa f   libvcruntime:undname.obj
 0001:0001544b       ??YDName@@QAEAAV0@D@Z      1001644b f   libvcruntime:undname.obj
 0001:000154af       ??YDName@@QAEAAV0@PAV0@@Z  100164af f   libvcruntime:undname.obj
 0001:0001552d       ??YDName@@QAEAAV0@PBD@Z    1001652d f   libvcruntime:undname.obj
 0001:000155a6       ??YDName@@QAEAAV0@W4DNameStatus@@@Z 100165a6 f   libvcruntime:undname.obj
 0001:000155f6       ??YReplicator@@QAEAAV0@ABVDName@@@Z 100165f6 f   libvcruntime:undname.obj
 0001:00015652       ??_5DName@@QAEAAV0@ABV0@@Z 10016652 f   libvcruntime:undname.obj
 0001:00015675       ?Constructor@_HeapManager@@QAEXP6APAXI@ZP6AXPAX@Z@Z 10016675 f i libvcruntime:undname.obj
 0001:00015699       ?Destructor@_HeapManager@@QAEXXZ 10016699 f i libvcruntime:undname.obj
 0001:000156df       ?UScore@UnDecorator@@SAPBDW4Tokens@@@Z 100166df f   libvcruntime:undname.obj
 0001:00015705       ?append@DName@@AAEXPBVDNameNode@@@Z 10016705 f   libvcruntime:undname.obj
 0001:0001575c       ?composeDeclaration@UnDecorator@@CA?AVDName@@ABV2@@Z 1001675c f i libvcruntime:undname.obj
 0001:00016770       ?doAccessSpecifiers@UnDecorator@@SAHXZ 10017770 f i libvcruntime:undname.obj
 0001:00016781       ?doAllocationLanguage@UnDecorator@@SAHXZ 10017781 f i libvcruntime:undname.obj
 0001:00016792       ?doAllocationModel@UnDecorator@@SAHXZ 10017792 f i libvcruntime:undname.obj
 0001:000167a3       ?doEcsu@UnDecorator@@SAHXZ 100177a3 f i libvcruntime:undname.obj
 0001:000167b4       ?doEllipsis@UnDecorator@@SAHXZ 100177b4 f i libvcruntime:undname.obj
 0001:000167c5       ?doFunctionReturns@UnDecorator@@SAHXZ 100177c5 f i libvcruntime:undname.obj
 0001:000167d6       ?doMSKeywords@UnDecorator@@SAHXZ 100177d6 f i libvcruntime:undname.obj
 0001:000167e6       ?doMemberTypes@UnDecorator@@SAHXZ 100177e6 f i libvcruntime:undname.obj
 0001:000167f7       ?doNameOnly@UnDecorator@@SAHXZ 100177f7 f i libvcruntime:undname.obj
 0001:00016804       ?doNoIdentCharCheck@UnDecorator@@SAHXZ 10017804 f i libvcruntime:undname.obj
 0001:00016811       ?doPchar@DName@@AAEXPBDH@Z 10017811 f   libvcruntime:undname.obj
 0001:000168b8       ?doPtr64@UnDecorator@@SAHXZ 100178b8 f i libvcruntime:undname.obj
 0001:000168c9       ?doRestrictionSpec@UnDecorator@@SAHXZ 100178c9 f i libvcruntime:undname.obj
 0001:000168da       ?doThisTypes@UnDecorator@@SAHXZ 100178da f i libvcruntime:undname.obj
 0001:000168f0       ?doThrowTypes@UnDecorator@@SAHXZ 100178f0 f i libvcruntime:undname.obj
 0001:00016901       ?doTypeOnly@UnDecorator@@SAHXZ 10017901 f i libvcruntime:undname.obj
 0001:0001690e       ?doUnderScore@UnDecorator@@SAHXZ 1001790e f i libvcruntime:undname.obj
 0001:0001691b       ?getArgumentList@UnDecorator@@CA?AVDName@@XZ 1001791b f   libvcruntime:undname.obj
 0001:00016a4e       ?getArgumentTypes@UnDecorator@@CA?AVDName@@XZ 10017a4e f   libvcruntime:undname.obj
 0001:00016b4a       ?getArrayType@UnDecorator@@CA?AVDName@@ABV2@@Z 10017b4a f i libvcruntime:undname.obj
 0001:00016d67       ?getBasedType@UnDecorator@@CA?AVDName@@XZ 10017d67 f   libvcruntime:undname.obj
 0001:00016e25       ?getBasicDataType@UnDecorator@@CA?AVDName@@ABV2@@Z 10017e25 f   libvcruntime:undname.obj
 0001:000172fb       ?getCHPEName@UnDecorator@@QAEPADPADH@Z 100182fb f i libvcruntime:undname.obj
 0001:00017411       ?getCallIndex@UnDecorator@@CA?AVDName@@XZ 10018411 f i libvcruntime:undname.obj
 0001:0001742a       ?getCallingConvention@UnDecorator@@CA?AVDName@@XZ 1001842a f   libvcruntime:undname.obj
 0001:00017531       ?getDataIndirectType@UnDecorator@@CA?AVDName@@ABV2@PBD0H@Z 10018531 f   libvcruntime:undname.obj
 0001:00017c95       ?getDataIndirectType@UnDecorator@@CA?AVDName@@XZ 10018c95 f i libvcruntime:undname.obj
 0001:00017cd3       ?getDataType@UnDecorator@@CA?AVDName@@PAV2@@Z 10018cd3 f   libvcruntime:undname.obj
 0001:00017dc9       ?getDecoratedName@UnDecorator@@CA?AVDName@@XZ 10018dc9 f   libvcruntime:undname.obj
 0001:0001809b       ?getDimension@UnDecorator@@CA?AVDName@@_N@Z 1001909b f   libvcruntime:undname.obj
 0001:00018201       ?getDispatchTarget@UnDecorator@@CA?AVDName@@XZ 10019201 f   libvcruntime:undname.obj
 0001:0001826a       ?getDisplacement@UnDecorator@@CA?AVDName@@XZ 1001926a f i libvcruntime:undname.obj
 0001:00018283       ?getECSUDataType@UnDecorator@@CA?AVDName@@XZ 10019283 f   libvcruntime:undname.obj
 0001:000183e1       ?getECSUName@UnDecorator@@CA?AVDName@@XZ 100193e1 f i libvcruntime:undname.obj
 0001:000183f6       ?getEnumType@UnDecorator@@CA?AVDName@@XZ 100193f6 f i libvcruntime:undname.obj
 0001:00018522       ?getExtendedDataIndirectType@UnDecorator@@CA?AVDName@@AAPBDAA_NH@Z 10019522 f   libvcruntime:undname.obj
 0001:00018746       ?getExternalDataType@UnDecorator@@CA?AVDName@@ABV2@@Z 10019746 f i libvcruntime:undname.obj
 0001:000187c6       ?getFunctionIndirectType@UnDecorator@@CA?AVDName@@ABV2@@Z 100197c6 f   libvcruntime:undname.obj
 0001:00018c94       ?getGuardNumber@UnDecorator@@CA?AVDName@@XZ 10019c94 f i libvcruntime:undname.obj
 0001:00018cad       ?getLastChar@DName@@QBEDXZ 10019cad f i libvcruntime:undname.obj
 0001:00018cd5       ?getLastChar@DNameStatusNode@@UBEDXZ 10019cd5 f i libvcruntime:undname.obj
 0001:00018ce4       ?getLastChar@charNode@@UBEDXZ 10019ce4 f i libvcruntime:undname.obj
 0001:00018ce8       ?getLastChar@pDNameNode@@UBEDXZ 10019ce8 f i libvcruntime:undname.obj
 0001:00018cf9       ?getLastChar@pairNode@@UBEDXZ 10019cf9 f i libvcruntime:undname.obj
 0001:00018d3b       ?getLastChar@pcharNode@@UBEDXZ 10019d3b f i libvcruntime:undname.obj
 0001:00018d51       ?getLexicalFrame@UnDecorator@@CA?AVDName@@XZ 10019d51 f i libvcruntime:undname.obj
 0001:00018d9f       ?getMemory@_HeapManager@@QAEPAXIH@Z 10019d9f f   libvcruntime:undname.obj
 0001:00018e47       ?getNoexcept@UnDecorator@@CA?AVDName@@XZ 10019e47 f   libvcruntime:undname.obj
 0001:00018e9d       ?getNumberOfDimensions@UnDecorator@@CAHXZ 10019e9d f   libvcruntime:undname.obj
 0001:00018f16       ?getOperatorName@UnDecorator@@CA?AVDName@@_NPA_N@Z 10019f16 f i libvcruntime:undname.obj
 0001:00019704       ?getPointerType@UnDecorator@@CA?AVDName@@ABV2@0@Z 1001a704 f i libvcruntime:undname.obj
 0001:00019729       ?getPointerTypeArray@UnDecorator@@CA?AVDName@@ABV2@0@Z 1001a729 f i libvcruntime:undname.obj
 0001:0001974e       ?getPrimaryDataType@UnDecorator@@CA?AVDName@@ABV2@@Z 1001a74e f   libvcruntime:undname.obj
 0001:000199ab       ?getPtrRefDataType@UnDecorator@@CA?AVDName@@ABV2@H@Z 1001a9ab f   libvcruntime:undname.obj
 0001:00019b1e       ?getPtrRefType@UnDecorator@@CA?AVDName@@ABV2@0PBD@Z 1001ab1e f   libvcruntime:undname.obj
 0001:00019c56       ?getReferenceType@UnDecorator@@CA?AVDName@@ABV2@0PBD@Z 1001ac56 f i libvcruntime:undname.obj
 0001:00019c79       ?getRestrictionSpec@UnDecorator@@CA?AVDName@@XZ 1001ac79 f   libvcruntime:undname.obj
 0001:00019db0       ?getReturnType@UnDecorator@@CA?AVDName@@PAV2@@Z 1001adb0 f   libvcruntime:undname.obj
 0001:00019dea       ?getScope@UnDecorator@@CA?AVDName@@XZ 1001adea f   libvcruntime:undname.obj
 0001:0001a263       ?getScopedName@UnDecorator@@CA?AVDName@@XZ 1001b263 f   libvcruntime:undname.obj
 0001:0001a36c       ?getSignedDimension@UnDecorator@@CA?AVDName@@XZ 1001b36c f   libvcruntime:undname.obj
 0001:0001a3d1       ?getStorageConvention@UnDecorator@@CA?AVDName@@XZ 1001b3d1 f i libvcruntime:undname.obj
 0001:0001a3e6       ?getString@DName@@QBEPADPAD0@Z 1001b3e6 f i libvcruntime:undname.obj
 0001:0001a41e       ?getString@DName@@QBEPADPADH@Z 1001b41e f i libvcruntime:undname.obj
 0001:0001a489       ?getString@DNameStatusNode@@UBEPADPAD0@Z 1001b489 f i libvcruntime:undname.obj
 0001:0001a4b9       ?getString@charNode@@UBEPADPAD0@Z 1001b4b9 f i libvcruntime:undname.obj
 0001:0001a4d3       ?getString@pDNameNode@@UBEPADPAD0@Z 1001b4d3 f i libvcruntime:undname.obj
 0001:0001a4ef       ?getString@pairNode@@UBEPADPAD0@Z 1001b4ef f i libvcruntime:undname.obj
 0001:0001a546       ?getString@pcharNode@@UBEPADPAD0@Z 1001b546 f i libvcruntime:undname.obj
 0001:0001a567       ?getStringEncoding@UnDecorator@@CA?AVDName@@PBDH@Z 1001b567 f   libvcruntime:undname.obj
 0001:0001a643       ?getStringHelper@@YAPADPADPBD1H@Z 1001b643 f i libvcruntime:undname.obj
 0001:0001a687       ?getSymbolName@UnDecorator@@CA?AVDName@@XZ 1001b687 f i libvcruntime:undname.obj
 0001:0001a6e1       ?getTemplateArgumentList@UnDecorator@@CA?AVDName@@XZ 1001b6e1 f   libvcruntime:undname.obj
 0001:0001aa25       ?getTemplateConstant@UnDecorator@@CA?AVDName@@XZ 1001ba25 f   libvcruntime:undname.obj
 0001:0001ae23       ?getTemplateName@UnDecorator@@CA?AVDName@@_N@Z 1001be23 f   libvcruntime:undname.obj
 0001:0001afdd       ?getThisType@UnDecorator@@CA?AVDName@@XZ 1001bfdd f i libvcruntime:undname.obj
 0001:0001b01c       ?getThrowTypes@UnDecorator@@CA?AVDName@@XZ 1001c01c f   libvcruntime:undname.obj
 0001:0001b047       ?getTypeEncoding@UnDecorator@@CAHXZ 1001c047 f i libvcruntime:undname.obj
 0001:0001b439       ?getUndecoratedName@UnDecorator@@QAEPADPADH@Z 1001c439 f i libvcruntime:undname.obj
 0001:0001b52e       ?getVCallThunkType@UnDecorator@@CA?AVDName@@XZ 1001c52e f i libvcruntime:undname.obj
 0001:0001b586       ?getVbTableType@UnDecorator@@CA?AVDName@@ABV2@@Z 1001c586 f i libvcruntime:undname.obj
 0001:0001b5a0       ?getVdispMapType@UnDecorator@@CA?AVDName@@ABV2@@Z 1001c5a0 f i libvcruntime:undname.obj
 0001:0001b609       ?getVfTableType@UnDecorator@@CA?AVDName@@ABV2@@Z 1001c609 f i libvcruntime:undname.obj
 0001:0001b7c4       ?getZName@UnDecorator@@CA?AVDName@@_N0@Z 1001c7c4 f   libvcruntime:undname.obj
 0001:0001ba42       ?haveTemplateParameters@UnDecorator@@SAHXZ 1001ca42 f i libvcruntime:undname.obj
 0001:0001ba4f       ?isArray@DName@@QBEHXZ     1001ca4f f i libvcruntime:undname.obj
 0001:0001ba5b       ?isComArray@DName@@QBEHXZ  1001ca5b f i libvcruntime:undname.obj
 0001:0001ba67       ?isEmpty@DName@@QBEHXZ     1001ca67 f i libvcruntime:undname.obj
 0001:0001ba71       ?isFull@Replicator@@QBEHXZ 1001ca71 f i libvcruntime:undname.obj
 0001:0001ba7c       ?isNoTE@DName@@QBEHXZ      1001ca7c f i libvcruntime:undname.obj
 0001:0001ba88       ?isPinPtr@DName@@QBEHXZ    1001ca88 f i libvcruntime:undname.obj
 0001:0001ba94       ?isPtrRef@DName@@QBEHXZ    1001ca94 f i libvcruntime:undname.obj
 0001:0001baa0       ?isUDC@DName@@QBEHXZ       1001caa0 f i libvcruntime:undname.obj
 0001:0001bab5       ?isUDTThunk@DName@@QBEHXZ  1001cab5 f i libvcruntime:undname.obj
 0001:0001baca       ?isVCallThunk@DName@@QBEHXZ 1001caca f i libvcruntime:undname.obj
 0001:0001bad6       ?isValid@DName@@QBEHXZ     1001cad6 f i libvcruntime:undname.obj
 0001:0001bae2       ?length@DName@@QBEHXZ      1001cae2 f i libvcruntime:undname.obj
 0001:0001bb08       ?length@DNameStatusNode@@UBEHXZ 1001cb08 f i libvcruntime:undname.obj
 0001:0001bb0c       ?length@charNode@@UBEHXZ   1001cb0c f i libvcruntime:undname.obj
 0001:0001bb10       ?length@pDNameNode@@UBEHXZ 1001cb10 f i libvcruntime:undname.obj
 0001:0001bb21       ?length@pairNode@@UBEHXZ   1001cb21 f i libvcruntime:undname.obj
 0001:0001bb78       ?length@pcharNode@@UBEHXZ  1001cb78 f i libvcruntime:undname.obj
 0001:0001bb7c       ?make@DNameStatusNode@@SAPBV1@W4DNameStatus@@@Z 1001cb7c f i libvcruntime:undname.obj
 0001:0001bb9f       ?parseDecoratedName@UnDecorator@@CA?AVDName@@XZ 1001cb9f f   libvcruntime:undname.obj
 0001:0001bcc8       ?setIsArray@DName@@QAEXXZ  1001ccc8 f i libvcruntime:undname.obj
 0001:0001bcd2       ?setIsComArray@DName@@QAEXXZ 1001ccd2 f i libvcruntime:undname.obj
 0001:0001bcdc       ?setIsNoTE@DName@@QAEXXZ   1001ccdc f i libvcruntime:undname.obj
 0001:0001bce6       ?setIsPinPtr@DName@@QAEXXZ 1001cce6 f i libvcruntime:undname.obj
 0001:0001bcf0       ?setIsUDC@DName@@QAEXXZ    1001ccf0 f i libvcruntime:undname.obj
 0001:0001bd00       ?setIsVCallThunk@DName@@QAEXXZ 1001cd00 f i libvcruntime:undname.obj
 0001:0001bd0a       ?setPtrRef@DName@@QAEAAV1@XZ 1001cd0a f i libvcruntime:undname.obj
 0001:0001bd16       ?status@DName@@QBE?AW4DNameStatus@@XZ 1001cd16 f i libvcruntime:undname.obj
 0001:0001bd9b       ___unDName                 1001cd9b f   libvcruntime:undname.obj
 0001:0001bdc6       ___unDNameEx               1001cdc6 f   libvcruntime:undname.obj
 0001:0001be8c       __vsprintf_s_l             1001ce8c f i libvcruntime:undname.obj
 0001:0001bec4       _sprintf_s                 1001cec4 f i libvcruntime:undname.obj
 0001:0001bee7       _unDNameGenerateCHPE       1001cee7 f   libvcruntime:undname.obj
 0001:0001bf5a       ??$?RU__vcrt_ptd@@@__crt_internal_free_policy@@QBEXQBU__vcrt_ptd@@@Z 1001cf5a f i libvcruntime:per_thread_data.obj
 0001:0001bf6e       ??0?$__crt_unique_heap_ptr@U__vcrt_ptd@@U__crt_internal_free_policy@@@@QAE@QAU__vcrt_ptd@@@Z 1001cf6e f i libvcruntime:per_thread_data.obj
 0001:0001bf91       ??1?$__crt_unique_heap_ptr@U__vcrt_ptd@@U__crt_internal_free_policy@@@@QAE@XZ 1001cf91 f i libvcruntime:per_thread_data.obj
 0001:0001bfb0       ??B?$__crt_unique_heap_ptr@U__vcrt_ptd@@U__crt_internal_free_policy@@@@QBE_NXZ 1001cfb0 f i libvcruntime:per_thread_data.obj
 0001:0001bfb7       ?detach@?$__crt_unique_heap_ptr@U__vcrt_ptd@@U__crt_internal_free_policy@@@@QAEPAU__vcrt_ptd@@XZ 1001cfb7 f i libvcruntime:per_thread_data.obj
 0001:0001bfbd       ?get@?$__crt_unique_heap_ptr@U__vcrt_ptd@@U__crt_internal_free_policy@@@@QBEPAU__vcrt_ptd@@XZ 1001cfbd f i libvcruntime:per_thread_data.obj
 0001:0001bfc0       ?is_valid@?$__crt_unique_heap_ptr@U__vcrt_ptd@@U__crt_internal_free_policy@@@@QBE_NXZ 1001cfc0 f i libvcruntime:per_thread_data.obj
 0001:0001bfc7       ?release@?$__crt_unique_heap_ptr@U__vcrt_ptd@@U__crt_internal_free_policy@@@@QAEXXZ 1001cfc7 f i libvcruntime:per_thread_data.obj
 0001:0001bffb       ___vcrt_freefls@4          1001cffb f   libvcruntime:per_thread_data.obj
 0001:0001c01e       ___vcrt_freeptd            1001d01e f   libvcruntime:per_thread_data.obj
 0001:0001c061       ___vcrt_getptd             1001d061 f   libvcruntime:per_thread_data.obj
 0001:0001c072       ___vcrt_getptd_noexit      1001d072 f   libvcruntime:per_thread_data.obj
 0001:0001c128       ___vcrt_getptd_noinit      1001d128 f   libvcruntime:per_thread_data.obj
 0001:0001c16c       ___vcrt_initialize_ptd     1001d16c f   libvcruntime:per_thread_data.obj
 0001:0001c1ab       ___vcrt_uninitialize_ptd   1001d1ab f   libvcruntime:per_thread_data.obj
 0001:0001c1cc       ___vcrt_initialize_locks   1001d1cc f   libvcruntime:locks.obj
 0001:0001c217       ___vcrt_lock               1001d217 f   libvcruntime:locks.obj
 0001:0001c231       ___vcrt_uninitialize_locks 1001d231 f   libvcruntime:locks.obj
 0001:0001c26b       ___vcrt_unlock             1001d26b f   libvcruntime:locks.obj
 0001:0001c285       ??$?BX@__crt_fast_encoded_nullptr_t@@QBEPAXXZ 1001d285 f i libvcruntime:winapi_downlevel.obj
 0001:0001c28b       ??$__crt_fast_decode_pointer@PAX@@YAPAXQAX@Z 1001d28b f i libvcruntime:winapi_downlevel.obj
 0001:0001c2a4       ??$__crt_fast_encode_pointer@PAX@@YAPAXQAX@Z 1001d2a4 f i libvcruntime:winapi_downlevel.obj
 0001:0001c2c8       ??$__crt_interlocked_exchange_pointer@UHINSTANCE__@@PAU1@@@YAPAUHINSTANCE__@@PDSAU0@QAU0@@Z 1001d2c8 f i libvcruntime:winapi_downlevel.obj
 0001:0001c2d8       ??$__crt_interlocked_exchange_pointer@UHINSTANCE__@@PAX@@YAPAUHINSTANCE__@@PDSAU0@QAX@Z 1001d2d8 f i libvcruntime:winapi_downlevel.obj
 0001:0001c2e8       ??$__crt_interlocked_exchange_pointer@XPAX@@YAPAXPDSAXQAX@Z 1001d2e8 f i libvcruntime:winapi_downlevel.obj
 0001:0001c2f8       ??$__crt_interlocked_read_pointer@UHINSTANCE__@@@@YAPAUHINSTANCE__@@PDSAU0@@Z 1001d2f8 f i libvcruntime:winapi_downlevel.obj
 0001:0001c304       ??$__crt_interlocked_read_pointer@X@@YAPAXPDSAX@Z 1001d304 f i libvcruntime:winapi_downlevel.obj
 0001:0001c310       ?__crt_fast_encode_pointer@@YA?AU__crt_fast_encoded_nullptr_t@@$$T@Z 1001d310 f i libvcruntime:winapi_downlevel.obj
 0001:0001c643       ___vcrt_FlsAlloc           1001d643 f   libvcruntime:winapi_downlevel.obj
 0001:0001c68c       ___vcrt_FlsFree            1001d68c f   libvcruntime:winapi_downlevel.obj
 0001:0001c6d5       ___vcrt_FlsGetValue        1001d6d5 f   libvcruntime:winapi_downlevel.obj
 0001:0001c71e       ___vcrt_FlsSetValue        1001d71e f   libvcruntime:winapi_downlevel.obj
 0001:0001c76b       ___vcrt_InitializeCriticalSectionEx 1001d76b f   libvcruntime:winapi_downlevel.obj
 0001:0001c7c3       ___vcrt_initialize_winapi_thunks 1001d7c3 f   libvcruntime:winapi_downlevel.obj
 0001:0001c7f6       ___vcrt_uninitialize_winapi_thunks 1001d7f6 f   libvcruntime:winapi_downlevel.obj
 0001:0001c834       ??$?B$$A6AXXZ@__crt_fast_encoded_nullptr_t@@QBEP6AXXZXZ 1001d834 f i libvcruntime:purevirt_data.obj
 0001:0001c83a       ??$__crt_fast_encode_pointer@P6AXXZ@@YAP6AXXZQ6AXXZ@Z 1001d83a f i libvcruntime:purevirt_data.obj
 0001:0001c85e       ___vcrt_initialize_pure_virtual_call_handler 1001d85e f   libvcruntime:purevirt_data.obj
 0001:0001c870       __global_unwind2           1001d870 f   libvcruntime:exsup.obj
 0001:0001c8d6       __local_unwind2            1001d8d6 f   libvcruntime:exsup.obj
 0001:0001c95a       __abnormal_termination     1001d95a f   libvcruntime:exsup.obj
 0001:0001c980       __NLG_Notify1              1001d980 f   libvcruntime:exsup.obj
 0001:0001c98c       __NLG_Notify               1001d98c f   libvcruntime:exsup.obj
 0001:0001c9a3       __NLG_Dispatch             1001d9a3     libvcruntime:exsup.obj
 0001:0001c9a3       __NLG_Dispatch2            1001d9a3     libvcruntime:exsup.obj
 0001:0001c9ab       __NLG_Call                 1001d9ab f   libvcruntime:exsup.obj
 0001:0001c9ad       __NLG_Return2              1001d9ad     libvcruntime:exsup.obj
 0001:0001c9fd       ??$__crt_fast_decode_pointer@P6AXXZ@@YAP6AXXZQ6AXXZ@Z 1001d9fd f i libvcruntime:purevirt.obj
 0001:0001ca16       ??$__crt_interlocked_exchange_pointer@$$A6AXXZP6AXXZ@@YAP6AXXZPDS6AXXZQ6AXXZ@Z 1001da16 f i libvcruntime:purevirt.obj
 0001:0001ca26       ??$__crt_interlocked_read_pointer@$$A6AXXZ@@YAP6AXXZPDS6AXXZ@Z 1001da26 f i libvcruntime:purevirt.obj
 0001:0001ca32       __get_purecall_handler     1001da32 f   libvcruntime:purevirt.obj
 0001:0001ca4c       __purecall                 1001da4c f   libvcruntime:purevirt.obj
 0001:0001ca6f       __set_purecall_handler     1001da6f f   libvcruntime:purevirt.obj
 0001:0001ca9d       ??$?0AAViterator@TryBlockMap@__FrameHandler3@@AAV012@$0A@@?$pair@Viterator@TryBlockMap@__FrameHandler3@@V123@@std@@QAE@AAViterator@TryBlockMap@__FrameHandler3@@0@Z 1001da9d f i libvcruntime:trnsctrl.obj
 0001:0001caca       ??$forward@AAViterator@TryBlockMap@__FrameHandler3@@@std@@YAAAViterator@TryBlockMap@__FrameHandler3@@AAV123@@Z 1001daca f i libvcruntime:trnsctrl.obj
 0001:0001cad4       ??0iterator@TryBlockMap@__FrameHandler3@@QAE@AAV12@I@Z 1001dad4 f i libvcruntime:trnsctrl.obj
 0001:0001caed       ?GetRangeOfTrysToCheck@__FrameHandler3@@SA?AU?$pair@Viterator@TryBlockMap@__FrameHandler3@@V123@@std@@AAVTryBlockMap@1@HH@Z 1001daed f   libvcruntime:trnsctrl.obj
 0001:0001cb8f       ?_CallCatchBlock2@@YAPAXPAUEHRegistrationNode@@PBU_s_FuncInfo@@PAXHK@Z 1001db8f f   libvcruntime:trnsctrl.obj
 0001:0001cc04       ?_CallSETranslator@@YAHPAUEHExceptionRecord@@PAUEHRegistrationNode@@PAX2PBU_s_FuncInfo@@H1@Z 1001dc04 f   libvcruntime:trnsctrl.obj
 0001:0001cd15       ?_JumpToContinuation@@YGXPAXPAUEHRegistrationNode@@@Z 1001dd15 f   libvcruntime:trnsctrl.obj
 0001:0001cd51       ?_UnwindNestedFrames@@YGXPAUEHRegistrationNode@@PAUEHExceptionRecord@@@Z 1001dd51 f   libvcruntime:trnsctrl.obj
 0001:0001cdb8       ?getFuncInfo@TryBlockMap@__FrameHandler3@@QAEPBU_s_FuncInfo@@XZ 1001ddb8 f i libvcruntime:trnsctrl.obj
 0001:0001cdbb       __CatchGuardHandler        1001ddbb f   libvcruntime:trnsctrl.obj
 0001:0001cdf8       __CreateFrameInfo          1001ddf8 f   libvcruntime:trnsctrl.obj
 0001:0001ce25       __FindAndUnlinkFrame       1001de25 f   libvcruntime:trnsctrl.obj
 0001:0001ce7b       __TranslatorGuardHandler   1001de7b f   libvcruntime:trnsctrl.obj
 0001:0001cf3f       ___CxxFrameHandler         1001df3f f   libvcruntime:trnsctrl.obj
 0001:0001cf82       ___CxxFrameHandler2        1001df82 f   libvcruntime:trnsctrl.obj
 0001:0001cfc5       ___CxxFrameHandler3        1001dfc5 f   libvcruntime:trnsctrl.obj
 0001:0001d008       ___CxxLongjmpUnwind@4      1001e008 f   libvcruntime:trnsctrl.obj
 0001:0001d8e9       ??$TypeMatchHelper@V__FrameHandler3@@@@YAHPBU_s_HandlerType@@PBU_s_CatchableType@@PBU_s_ThrowInfo@@@Z 1001e8e9 f i libvcruntime:frame.obj
 0001:0001d99a       ??$__InternalCxxFrameHandler@V__FrameHandler3@@@@YA?AW4_EXCEPTION_DISPOSITION@@PAUEHExceptionRecord@@PAUEHRegistrationNode@@PAU_CONTEXT@@PAXPBU_s_FuncInfo@@H1E@Z 1001e99a f i libvcruntime:frame.obj
 0001:0001dadc       ??0HandlerMap@__FrameHandler3@@QAE@PBU_s_TryBlockMapEntry@@PAX@Z 1001eadc f i libvcruntime:frame.obj
 0001:0001daf8       ??0TryBlockMap@__FrameHandler3@@QAE@PBU_s_FuncInfo@@PAX@Z 1001eaf8 f i libvcruntime:frame.obj
 0001:0001db11       ??0bad_exception@std@@QAE@ABV01@@Z 1001eb11 f i libvcruntime:frame.obj
 0001:0001db32       ??0bad_exception@std@@QAE@XZ 1001eb32 f i libvcruntime:frame.obj
 0001:0001db50       ??0exception@std@@QAE@ABV01@@Z 1001eb50 f i libvcruntime:frame.obj
 0001:0001db87       ??0exception@std@@QAE@QBDH@Z 1001eb87 f i libvcruntime:frame.obj
 0001:0001dbab       ??0iterator@HandlerMap@__FrameHandler3@@QAE@AAV12@I@Z 1001ebab f i libvcruntime:frame.obj
 0001:0001dbc4       ??1bad_exception@std@@UAE@XZ 1001ebc4 f i libvcruntime:frame.obj
 0001:0001dbd9       ??1exception@std@@UAE@XZ   1001ebd9 f i libvcruntime:frame.obj
 0001:0001dbee       ??8iterator@HandlerMap@__FrameHandler3@@QBE_NABV012@@Z 1001ebee f i libvcruntime:frame.obj
 0001:0001dc05       ??8type_info@@QBE_NABV0@@Z 1001ec05 f i libvcruntime:frame.obj
 0001:0001dc2b       ??9iterator@HandlerMap@__FrameHandler3@@QBE_NABV012@@Z 1001ec2b f i libvcruntime:frame.obj
 0001:0001dc42       ??Diterator@HandlerMap@__FrameHandler3@@QAEPBU_s_HandlerType@@XZ 1001ec42 f i libvcruntime:frame.obj
 0001:0001dc51       ??Diterator@TryBlockMap@__FrameHandler3@@QAEPBU_s_TryBlockMapEntry@@XZ 1001ec51 f i libvcruntime:frame.obj
 0001:0001dc60       ??Eiterator@HandlerMap@__FrameHandler3@@QAEAAV012@XZ 1001ec60 f i libvcruntime:frame.obj
 0001:0001dc66       ??Eiterator@TryBlockMap@__FrameHandler3@@QAEAAV012@XZ 1001ec66 f i libvcruntime:frame.obj
 0001:0001dc6c       ??Miterator@TryBlockMap@__FrameHandler3@@QBE_NABV012@@Z 1001ec6c f i libvcruntime:frame.obj
 0001:0001dc83       ??_Ebad_exception@std@@UAEPAXI@Z 1001ec83 f i libvcruntime:frame.obj
 0001:0001dc83       ??_Gbad_exception@std@@UAEPAXI@Z 1001ec83 f i libvcruntime:frame.obj
 0001:0001dcbb       ??_Eexception@std@@UAEPAXI@Z 1001ecbb f i libvcruntime:frame.obj
 0001:0001dcbb       ??_Gexception@std@@UAEPAXI@Z 1001ecbb f i libvcruntime:frame.obj
 0001:0001dcf3       ?BuildCatchObject@__FrameHandler3@@SAXPAUEHExceptionRecord@@PAXPBU_s_HandlerType@@PBU_s_CatchableType@@@Z 1001ecf3 f   libvcruntime:frame.obj
 0001:0001dcf8       ?BuildCatchObjectHelper@__FrameHandler3@@SAHPAUEHExceptionRecord@@PAXPBU_s_HandlerType@@PBU_s_CatchableType@@@Z 1001ecf8 f   libvcruntime:frame.obj
 0001:0001dfdc       ?FrameUnwindToEmptyState@__FrameHandler3@@SAXPAUEHRegistrationNode@@PAXPBU_s_FuncInfo@@@Z 1001efdc f   libvcruntime:frame.obj
 0001:0001dffa       ?FrameUnwindToState@__FrameHandler3@@SAXPAUEHRegistrationNode@@PAXPBU_s_FuncInfo@@H@Z 1001effa f   libvcruntime:frame.obj
 0001:0001e11c       ?GetMaxState@__FrameHandler3@@SAHPAXPBU_s_FuncInfo@@@Z 1001f11c f i libvcruntime:frame.obj
 0001:0001e230       ?TypeMatch@__FrameHandler3@@SAHPBU_s_HandlerType@@PBU_s_CatchableType@@PBU_s_ThrowInfo@@@Z 1001f230 f   libvcruntime:frame.obj
 0001:0001e23b       ?_CallMemberFunction1@@YGXQAX00@Z 1001f23b f i libvcruntime:frame.obj
 0001:0001e24f       ?_CallMemberFunction2@@YGXQAX00H@Z 1001f24f f i libvcruntime:frame.obj
 0001:0001e266       ?_ValidateExecute@@YA_NP6GHXZ@Z 1001f266 f i libvcruntime:frame.obj
 0001:0001e275       ?_ValidateRead@@YA_NPBXI@Z 1001f275 f i libvcruntime:frame.obj
 0001:0001e284       ?_ValidateWrite@@YA_NPAXI@Z 1001f284 f i libvcruntime:frame.obj
 0001:0001e293       ?begin@HandlerMap@__FrameHandler3@@QAE?AViterator@12@XZ 1001f293 f i libvcruntime:frame.obj
 0001:0001e2a7       ?end@HandlerMap@__FrameHandler3@@QAE?AViterator@12@XZ 1001f2a7 f i libvcruntime:frame.obj
 0001:0001e2bc       ?getESTypes@__FrameHandler3@@SAPBU_s_ESTypeList@@PBU_s_FuncInfo@@@Z 1001f2bc f i libvcruntime:frame.obj
 0001:0001e2c9       ?getLastEntry@HandlerMap@__FrameHandler3@@QAEPBU_s_HandlerType@@XZ 1001f2c9 f i libvcruntime:frame.obj
 0001:0001e2da       ?getMagicNum@__FrameHandler3@@SAIPBU_s_FuncInfo@@@Z 1001f2da f i libvcruntime:frame.obj
 0001:0001e2ec       ?getNumTryBlocks@TryBlockMap@__FrameHandler3@@QAEIXZ 1001f2ec f i libvcruntime:frame.obj
 0001:0001e2f2       ?isEHs@__FrameHandler3@@SA_NPBU_s_FuncInfo@@@Z 1001f2f2 f i libvcruntime:frame.obj
 0001:0001e302       ?isNoExcept@__FrameHandler3@@SA_NPBU_s_FuncInfo@@@Z 1001f302 f i libvcruntime:frame.obj
 0001:0001e316       ?what@exception@std@@UBEPBDXZ 1001f316 f i libvcruntime:frame.obj
 0001:0001e326       ___BuildCatchObject        1001f326 f   libvcruntime:frame.obj
 0001:0001e32b       ___BuildCatchObjectHelper  1001f32b f   libvcruntime:frame.obj
 0001:0001e336       ___TypeMatch               1001f336 f   libvcruntime:frame.obj
 0001:0001e341       ___vcrt_EncodePointer      1001f341 f i libvcruntime:frame.obj
 0001:0001e360       __CallSettingFrame@12      1001f360 f   libvcruntime:lowhelpr.obj
 0001:0001e387       __NLG_Return               1001f387     libvcruntime:lowhelpr.obj
 0001:0001e3d8       __get_unexpected           1001f3d8 f   libvcruntime:unexpected.obj
 0001:0001e3ee       _set_unexpected            1001f3ee f   libvcruntime:unexpected.obj
 0001:0001e413       _unexpected                1001f413 f   libvcruntime:unexpected.obj
 0001:0001e437       ?GetCurrentState@__FrameHandler3@@SAHPAUEHRegistrationNode@@PAXPBU_s_FuncInfo@@@Z 1001f437 f   libvcruntime:ehstate.obj
 0001:0001e45b       ?SetState@__FrameHandler3@@SAXPAUEHRegistrationNode@@PBU_s_FuncInfo@@H@Z 1001f45b f   libvcruntime:ehstate.obj
 0001:0001e46c       ___DestructExceptionObject 1001f46c f   libvcruntime:ehhelpers.obj
 0001:0001e534       ?_CallMemberFunction0@@YGXQAX0@Z 1001f534 f i libvcruntime:ehhelpers.obj
 0001:0001e544       ?raw_name@type_info@@QBEPBDXZ 1001f544 f i libvcruntime:ehhelpers.obj
 0001:0001e548       __IsExceptionObjectToBeDestroyed 1001f548 f   libvcruntime:ehhelpers.obj
 0001:0001e577       __SetWinRTOutOfMemoryExceptionCallback 1001f577 f   libvcruntime:ehhelpers.obj
 0001:0001e587       ___AdjustPointer           1001f587 f   libvcruntime:ehhelpers.obj
 0001:0001e5b5       ___FrameUnwindFilter       1001f5b5 f   libvcruntime:ehhelpers.obj
 0001:0001e60b       ___GetPlatformExceptionInfo 1001f60b f   libvcruntime:ehhelpers.obj
 0001:0001e66a       ___current_exception       1001f66a f   libvcruntime:ehhelpers.obj
 0001:0001e675       ___current_exception_context 1001f675 f   libvcruntime:ehhelpers.obj
 0001:0001e680       ___processing_throw        1001f680 f   libvcruntime:ehhelpers.obj
 0001:0001e68b       ___std_terminate           1001f68b f   libvcruntime:ehhelpers.obj
 0001:0001e690       __is_exception_typeof      1001f690 f   libvcruntime:ehhelpers.obj
 0001:0001e75d       ??$?RD@__crt_public_free_policy@@QBEXQBD@Z 1001f75d f i libvcruntime:std_exception.obj
 0001:0001e771       ??0?$__crt_unique_heap_ptr@DU__crt_public_free_policy@@@@QAE@QAD@Z 1001f771 f i libvcruntime:std_exception.obj
 0001:0001e782       ??1?$__crt_unique_heap_ptr@DU__crt_public_free_policy@@@@QAE@XZ 1001f782 f i libvcruntime:std_exception.obj
 0001:0001e796       ??B?$__crt_unique_heap_ptr@DU__crt_public_free_policy@@@@QBE_NXZ 1001f796 f i libvcruntime:std_exception.obj
 0001:0001e79d       ?detach@?$__crt_unique_heap_ptr@DU__crt_public_free_policy@@@@QAEPADXZ 1001f79d f i libvcruntime:std_exception.obj
 0001:0001e7a3       ?get@?$__crt_unique_heap_ptr@DU__crt_public_free_policy@@@@QBEPADXZ 1001f7a3 f i libvcruntime:std_exception.obj
 0001:0001e7a6       ?is_valid@?$__crt_unique_heap_ptr@DU__crt_public_free_policy@@@@QBE_NXZ 1001f7a6 f i libvcruntime:std_exception.obj
 0001:0001e7ad       ?release@?$__crt_unique_heap_ptr@DU__crt_public_free_policy@@@@QAEXXZ 1001f7ad f i libvcruntime:std_exception.obj
 0001:0001e7c1       ___std_exception_copy      1001f7c1 f   libvcruntime:std_exception.obj
 0001:0001e83c       ___std_exception_destroy   1001f83c f   libvcruntime:std_exception.obj
 0001:0001e862       __CxxThrowException@8      1001f862 f   libvcruntime:throw.obj
 0001:0001e8ea       _malloc                    1001f8ea f   libucrt:malloc.obj
 0001:0001e8f7       _calloc                    1001f8f7 f   libucrt:calloc.obj
 0001:0001e904       _free                      1001f904 f   libucrt:free.obj
 0001:0001e928       ??$__crt_interlocked_read@J@@YAJPDJ@Z 1001f928 f i libucrt:assert.obj
 0001:0001e937       ??$__vcrt_va_start_verify_argument_type@QBD@@YAXXZ 1001f937 f i libucrt:assert.obj
 0001:0001e938       ??$__vcrt_va_start_verify_argument_type@QB_W@@YAXXZ 1001f938 f i libucrt:assert.obj
 0001:0001f8da       ??$ftprintf@PAU_iobuf@@PBDABQBDABQBDABI@?$__crt_char_traits@D@@SAH$$QAPAU_iobuf@@$$QAPBDABQBD2ABI@Z 100208da f i libucrt:assert.obj
 0001:0001f90c       ??$ftprintf@PAU_iobuf@@PB_WABQB_WABQB_WABI@?$__crt_char_traits@_W@@SAH$$QAPAU_iobuf@@$$QAPB_WABQB_W2ABI@Z 1002090c f i libucrt:assert.obj
 0001:0001f93e       ??$get_module_file_name@AAPAUHINSTANCE__@@AAY0BAF@DK@?$__crt_char_traits@D@@SAKAAPAUHINSTANCE__@@AAY0BAF@D$$QAK@Z 1002093e f i libucrt:assert.obj
 0001:0001f961       ??$get_module_file_name@AAPAUHINSTANCE__@@AAY0BAF@_WK@?$__crt_char_traits@_W@@SAKAAPAUHINSTANCE__@@AAY0BAF@_W$$QAK@Z 10020961 f i libucrt:assert.obj
 0001:0001f981       ??$itot_s@ABIPADIH@?$__crt_char_traits@D@@SAHABI$$QAPAD$$QAI$$QAH@Z 10020981 f i libucrt:assert.obj
 0001:0001f9ac       ??$itot_s@ABIPA_WIH@?$__crt_char_traits@_W@@SAHABI$$QAPA_W$$QAI$$QAH@Z 100209ac f i libucrt:assert.obj
 0001:0001f9d7       ??$show_message_box@AAY0CEA@DPBDJ@?$__crt_char_traits@D@@SAHAAY0CEA@D$$QAPBD$$QAJ@Z 100209d7 f i libucrt:assert.obj
 0001:0001f9fa       ??$show_message_box@AAY0CEA@_WPB_WJ@?$__crt_char_traits@_W@@SAHAAY0CEA@_W$$QAPB_W$$QAJ@Z 100209fa f i libucrt:assert.obj
 0001:0001fa1d       ??$tcscat_s@ABQADABIAAPAD@?$__crt_char_traits@D@@SAHABQADABIAAPAD@Z 10020a1d f i libucrt:assert.obj
 0001:0001fa42       ??$tcscat_s@ABQADABIABQBD@?$__crt_char_traits@D@@SAHABQADABIABQBD@Z 10020a42 f i libucrt:assert.obj
 0001:0001fa67       ??$tcscat_s@ABQADABIPBD@?$__crt_char_traits@D@@SAHABQADABI$$QAPBD@Z 10020a67 f i libucrt:assert.obj
 0001:0001fa8c       ??$tcscat_s@ABQA_WABIAAPA_W@?$__crt_char_traits@_W@@SAHABQA_WABIAAPA_W@Z 10020a8c f i libucrt:assert.obj
 0001:0001fab1       ??$tcscat_s@ABQA_WABIABQB_W@?$__crt_char_traits@_W@@SAHABQA_WABIABQB_W@Z 10020ab1 f i libucrt:assert.obj
 0001:0001fad6       ??$tcscat_s@ABQA_WABIPB_W@?$__crt_char_traits@_W@@SAHABQA_WABI$$QAPB_W@Z 10020ad6 f i libucrt:assert.obj
 0001:0001fafb       ??$tcscpy_s@AAY0BAF@DIPBD@?$__crt_char_traits@D@@SAHAAY0BAF@D$$QAI$$QAPBD@Z 10020afb f i libucrt:assert.obj
 0001:0001fb1e       ??$tcscpy_s@AAY0BAF@_WIPB_W@?$__crt_char_traits@_W@@SAHAAY0BAF@_W$$QAI$$QAPB_W@Z 10020b1e f i libucrt:assert.obj
 0001:0001fb41       ??$tcscpy_s@ABQADABIPBD@?$__crt_char_traits@D@@SAHABQADABI$$QAPBD@Z 10020b41 f i libucrt:assert.obj
 0001:0001fb66       ??$tcscpy_s@ABQA_WABIPB_W@?$__crt_char_traits@_W@@SAHABQA_WABI$$QAPB_W@Z 10020b66 f i libucrt:assert.obj
 0001:0001fb8b       ??$tcslen@AAY0BAF@D@?$__crt_char_traits@D@@SAIAAY0BAF@D@Z 10020b8b f i libucrt:assert.obj
 0001:0001fba6       ??$tcslen@AAY0BAF@_W@?$__crt_char_traits@_W@@SAIAAY0BAF@_W@Z 10020ba6 f i libucrt:assert.obj
 0001:0001fbc9       ??$tcslen@ABQAD@?$__crt_char_traits@D@@SAIABQAD@Z 10020bc9 f i libucrt:assert.obj
 0001:0001fbe7       ??$tcslen@ABQA_W@?$__crt_char_traits@_W@@SAIABQA_W@Z 10020be7 f i libucrt:assert.obj
 0001:0001fc0c       ??$tcslen@ABQBD@?$__crt_char_traits@D@@SAIABQBD@Z 10020c0c f i libucrt:assert.obj
 0001:0001fc2a       ??$tcslen@ABQB_W@?$__crt_char_traits@_W@@SAIABQB_W@Z 10020c2a f i libucrt:assert.obj
 0001:0001fc4f       ??$tcsncat_s@ABQADABIAAPBDI@?$__crt_char_traits@D@@SAHABQADABIAAPBD$$QAI@Z 10020c4f f i libucrt:assert.obj
 0001:0001fc7a       ??$tcsncat_s@ABQADABIABQBDABI@?$__crt_char_traits@D@@SAHABQADABIABQBD1@Z 10020c7a f i libucrt:assert.obj
 0001:0001fca5       ??$tcsncat_s@ABQADABIPBDI@?$__crt_char_traits@D@@SAHABQADABI$$QAPBD$$QAI@Z 10020ca5 f i libucrt:assert.obj
 0001:0001fcd0       ??$tcsncat_s@ABQA_WABIAAPB_WI@?$__crt_char_traits@_W@@SAHABQA_WABIAAPB_W$$QAI@Z 10020cd0 f i libucrt:assert.obj
 0001:0001fcfb       ??$tcsncat_s@ABQA_WABIABQB_WABI@?$__crt_char_traits@_W@@SAHABQA_WABIABQB_W1@Z 10020cfb f i libucrt:assert.obj
 0001:0001fd26       ??$tcsncat_s@ABQA_WABIPB_WI@?$__crt_char_traits@_W@@SAHABQA_WABI$$QAPB_W$$QAI@Z 10020d26 f i libucrt:assert.obj
 0001:0001fd51       ??0__crt_stdio_stream@@QAE@QAU_iobuf@@@Z 10020d51 f i libucrt:assert.obj
 0001:0001fe97       ?get_flags@__crt_stdio_stream@@QBEJXZ 10020e97 f i libucrt:assert.obj
 0001:0001fee5       ?has_any_buffer@__crt_stdio_stream@@QBE_NXZ 10020ee5 f i libucrt:assert.obj
 0001:0001fef6       ?has_any_of@__crt_stdio_stream@@QBE_NJ@Z 10020ef6 f i libucrt:assert.obj
 0001:0001ff0f       __assert                   10020f0f f   libucrt:assert.obj
 0001:0001ff69       __invoke_watson_if_error   10020f69 f i libucrt:assert.obj
 0001:0001ff93       __vfwprintf_l              10020f93 f i libucrt:assert.obj
 0001:0001ffc1       __vswprintf_c_l            10020fc1 f i libucrt:assert.obj
 0001:0001fffb       __wassert                  10020ffb f   libucrt:assert.obj
 0001:00020055       _fwprintf                  10021055 f i libucrt:assert.obj
 0001:00020117       _swprintf                  10021117 f i libucrt:assert.obj
 0001:0002013c       _realloc                   1002113c f   libucrt:realloc.obj
 0001:00020149       ??$?B$$A6GXPAXK0@Z@__crt_fast_encoded_nullptr_t@@QBEP6GXPAXK0@ZXZ 10021149 f i libucrt:exit.obj
 0001:000201ec       ??$__crt_fast_decode_pointer@P6GXPAXK0@Z@@YAP6GXPAXK0@ZQ6GX0K0@Z@Z 100211ec f i libucrt:exit.obj
 0001:00020207       ??$__crt_fast_encode_pointer@P6GXPAXK0@Z@@YAP6GXPAXK0@ZQ6GX0K0@Z@Z 10021207 f i libucrt:exit.obj
 0001:0002022d       ??$__crt_get_proc_address@P6GXI@Z@@YAP6GXI@ZQAUHINSTANCE__@@QBD@Z 1002122d f i libucrt:exit.obj
 0001:00020293       ??0?$__crt_unique_handle_t@U__crt_hmodule_traits@@@@QAE@QAUHINSTANCE__@@@Z 10021293 f i libucrt:exit.obj
 0001:000202a7       ??1?$__crt_unique_handle_t@U__crt_hmodule_traits@@@@QAE@XZ 100212a7 f i libucrt:exit.obj
 0001:000203ec       ?__acrt_select_exit_lock@@YA?AW4__acrt_lock_id@@XZ 100213ec f i libucrt:exit.obj
 0001:00020407       ?close@?$__crt_unique_handle_t@U__crt_hmodule_traits@@@@QAEXXZ 10021407 f i libucrt:exit.obj
 0001:00020423       ?close@__crt_hmodule_traits@@SA_NPAUHINSTANCE__@@@Z 10021423 f i libucrt:exit.obj
 0001:0002050e       ?get@?$__crt_unique_handle_t@U__crt_hmodule_traits@@@@QBEPAUHINSTANCE__@@XZ 1002150e f i libucrt:exit.obj
 0001:00020511       ?get_address_of@?$__crt_unique_handle_t@U__crt_hmodule_traits@@@@QAEPAPAUHINSTANCE__@@XZ 10021511 f i libucrt:exit.obj
 0001:00020514       ?get_invalid_value@__crt_hmodule_traits@@SAPAUHINSTANCE__@@XZ 10021514 f i libucrt:exit.obj
 0001:00020615       __Exit                     10021615 f   libucrt:exit.obj
 0001:00020630       ___acrt_initialize_thread_local_exit_callback 10021630 f   libucrt:exit.obj
 0001:00020642       __c_exit                   10021642 f   libucrt:exit.obj
 0001:00020654       __cexit                    10021654 f   libucrt:exit.obj
 0001:00020666       __exit                     10021666 f   libucrt:exit.obj
 0001:00020681       __is_c_termination_complete 10021681 f   libucrt:exit.obj
 0001:00020687       __register_thread_local_exe_atexit_callback 10021687 f   libucrt:exit.obj
 0001:000206cd       _exit                      100216cd f   libucrt:exit.obj
 0001:000206e8       _quick_exit                100216e8 f   libucrt:exit.obj
 0001:00020710       _strncat                   10021710 f   libucrt:strncat.obj
 0001:000208a0       _strncpy                   100218a0 f   libucrt:strncpy.obj
 0001:00020a0d       ??$?RPAU__crt_stdio_stream_data@@@__crt_internal_free_policy@@QBEXQBQAU__crt_stdio_stream_data@@@Z 10021a0d f i libucrt:_file.obj
 0001:00020a23       ??0?$__crt_unique_heap_ptr@PAU__crt_stdio_stream_data@@U__crt_internal_free_policy@@@@QAE@QAPAU__crt_stdio_stream_data@@@Z 10021a23 f i libucrt:_file.obj
 0001:00020a37       ??1?$__crt_unique_heap_ptr@PAU__crt_stdio_stream_data@@U__crt_internal_free_policy@@@@QAE@XZ 10021a37 f i libucrt:_file.obj
 0001:00020a4d       ??C__crt_stdio_stream@@QBEPAU__crt_stdio_stream_data@@XZ 10021a4d f i libucrt:_file.obj
 0001:00020a50       ?detach@?$__crt_unique_heap_ptr@PAU__crt_stdio_stream_data@@U__crt_internal_free_policy@@@@QAEPAPAU__crt_stdio_stream_data@@XZ 10021a50 f i libucrt:_file.obj
 0001:00020a56       ?release@?$__crt_unique_heap_ptr@PAU__crt_stdio_stream_data@@U__crt_internal_free_policy@@@@QAEXXZ 10021a56 f i libucrt:_file.obj
 0001:00020a6c       ___acrt_initialize_stdio   10021a6c f   libucrt:_file.obj
 0001:00020b66       ___acrt_iob_func           10021b66 f   libucrt:_file.obj
 0001:00020b7a       ___acrt_uninitialize_stdio 10021b7a f   libucrt:_file.obj
 0001:00020bd9       __get_stream_buffer_pointers 10021bd9 f   libucrt:_file.obj
 0001:00020c30       __lock_file                10021c30 f   libucrt:_file.obj
 0001:00020c49       __unlock_file              10021c49 f   libucrt:_file.obj
 0001:00020c62       ?is_in_use@__crt_stdio_stream@@QBE_NXZ 10021c62 f i libucrt:fclose.obj
 0001:00020c6f       ?is_string_backed@__crt_stdio_stream@@QBE_NXZ 10021c6f f i libucrt:fclose.obj
 0001:00020c7c       ?public_stream@__crt_stdio_stream@@QBEPAU_iobuf@@XZ 10021c7c f i libucrt:fclose.obj
 0001:00020c7f       ?valid@__crt_stdio_stream@@QBE_NXZ 10021c7f f i libucrt:fclose.obj
 0001:00020c86       __fclose_nolock            10021c86 f   libucrt:fclose.obj
 0001:00020d19       _fclose                    10021d19 f   libucrt:fclose.obj
 0001:0002100f       ??$open_file@ABQBDABQBDABHPAU_iobuf@@@?$__crt_char_traits@D@@SAPAU_iobuf@@ABQBD0ABH$$QAPAU1@@Z 1002200f f i libucrt:fopen.obj
 0001:0002103a       ??$open_file@ABQB_WABQB_WABHPAU_iobuf@@@?$__crt_char_traits@_W@@SAPAU_iobuf@@ABQB_W0ABH$$QAPAU1@@Z 1002203a f i libucrt:fopen.obj
 0001:00021065       ?unlock@__crt_stdio_stream@@QBEXXZ 10022065 f i libucrt:fopen.obj
 0001:00021070       __fsopen                   10022070 f   libucrt:fopen.obj
 0001:0002107d       __wfopen                   1002207d f   libucrt:fopen.obj
 0001:00021099       __wfopen_s                 10022099 f   libucrt:fopen.obj
 0001:000210f1       __wfsopen                  100220f1 f   libucrt:fopen.obj
 0001:000210fe       _fopen                     100220fe f   libucrt:fopen.obj
 0001:0002111a       _fopen_s                   1002211a f   libucrt:fopen.obj
 0001:00021172       ?__acrt_stdio_reset_buffer@@YAXV__crt_stdio_stream@@@Z 10022172 f i libucrt:fread.obj
 0001:0002118d       ?set_flags@__crt_stdio_stream@@QBE_NJ@Z 1002218d f i libucrt:fread.obj
 0001:000211ba       __fread_nolock             100221ba f   libucrt:fread.obj
 0001:000211de       __fread_nolock_s           100221de f   libucrt:fread.obj
 0001:0002142d       _fread                     1002242d f   libucrt:fread.obj
 0001:00021451       _fread_s                   10022451 f   libucrt:fread.obj
 0001:00021696       ??0__acrt_stdio_temporary_buffering_guard@@QAE@QAU_iobuf@@@Z 10022696 f i libucrt:fwrite.obj
 0001:000216bb       ??1__acrt_stdio_temporary_buffering_guard@@QAE@XZ 100226bb f i libucrt:fwrite.obj
 0001:00021739       ?has_big_buffer@__crt_stdio_stream@@QBE_NXZ 10022739 f i libucrt:fwrite.obj
 0001:00021746       __fwrite_nolock            10022746 f   libucrt:fwrite.obj
 0001:0002191f       _fwrite                    1002291f f   libucrt:fwrite.obj
 0001:00021a42       ??$__acrt_mbs_to_wcs_cp@U__crt_win32_buffer_internal_dynamic_resizing@@@@YAHQBDAAV?$__crt_win32_buffer@_WU__crt_win32_buffer_internal_dynamic_resizing@@@@I@Z 10022a42 f i libucrt:unlink.obj
 0001:00021a68       ??0?$__crt_win32_buffer@_WU__crt_win32_buffer_internal_dynamic_resizing@@@@QAE@XZ 10022a68 f i libucrt:unlink.obj
 0001:00021a83       ??0_LocaleUpdate@@QAE@QAU__crt_locale_pointers@@@Z 10022a83 f i libucrt:unlink.obj
 0001:00021b26       ??1?$__crt_win32_buffer@_WU__crt_win32_buffer_internal_dynamic_resizing@@@@QAE@XZ 10022b26 f i libucrt:unlink.obj
 0001:00021b2b       ??1_LocaleUpdate@@QAE@XZ   10022b2b f i libucrt:unlink.obj
 0001:00021b68       ?GetLocaleT@_LocaleUpdate@@QAEPAU__crt_locale_pointers@@XZ 10022b68 f i libucrt:unlink.obj
 0001:00021b6c       ?__acrt_get_utf8_acp_compatibility_codepage@@YAIXZ 10022b6c f i libucrt:unlink.obj
 0001:00021bbd       ?_deallocate@?$__crt_win32_buffer@_WU__crt_win32_buffer_internal_dynamic_resizing@@@@AAEXXZ 10022bbd f i libucrt:unlink.obj
 0001:00021bdd       ?allocate@?$__crt_win32_buffer@_WU__crt_win32_buffer_internal_dynamic_resizing@@@@QAEHI@Z 10022bdd f i libucrt:unlink.obj
 0001:00021c2b       ?allocate@__crt_win32_buffer_internal_dynamic_resizing@@SAHQAPAXIABV__crt_win32_buffer_empty_debug_info@@@Z 10022c2b f i libucrt:unlink.obj
 0001:00021c51       ?capacity@?$__crt_win32_buffer@_WU__crt_win32_buffer_internal_dynamic_resizing@@@@QBEIXZ 10022c51 f i libucrt:unlink.obj
 0001:00021c55       ?data@?$__crt_win32_buffer@_WU__crt_win32_buffer_internal_dynamic_resizing@@@@QAEPA_WXZ 10022c55 f i libucrt:unlink.obj
 0001:00021c59       ?deallocate@__crt_win32_buffer_internal_dynamic_resizing@@SAXQAXABV__crt_win32_buffer_empty_debug_info@@@Z 10022c59 f i libucrt:unlink.obj
 0001:00021c6d       ?debug_info@?$__crt_win32_buffer@_WU__crt_win32_buffer_internal_dynamic_resizing@@@@QBEABV__crt_win32_buffer_empty_debug_info@@XZ 10022c6d f i libucrt:unlink.obj
 0001:00021c70       ?size@?$__crt_win32_buffer@_WU__crt_win32_buffer_internal_dynamic_resizing@@@@QAEXI@Z 10022c70 f i libucrt:unlink.obj
 0001:00021c82       ___acrt_locale_changed     10022c82 f i libucrt:unlink.obj
 0001:00021c8f       __unlink                   10022c8f f   libucrt:unlink.obj
 0001:00021c9c       _remove                    10022c9c f   libucrt:unlink.obj
 0001:00021d23       ?has_all_of@__crt_stdio_stream@@QBE_NJ@Z 10022d23 f i libucrt:rewind.obj
 0001:00021d3f       ?unset_flags@__crt_stdio_stream@@QBE_NJ@Z 10022d3f f i libucrt:rewind.obj
 0001:00021d72       _rewind                    10022d72 f   libucrt:rewind.obj
 0001:00021e64       ??$?0ABV?$stream_output_adapter@D@__crt_stdio_output@@AB_KABQBDABQAU__crt_locale_pointers@@ABQAD@?$format_validation_base@DV?$stream_output_adapter@D@__crt_stdio_output@@@__crt_stdio_output@@IAE@ABV?$stream_output_adapter@D@1@AB_KABQBDABQAU__crt_locale_pointers@@ABQAD@Z 10022e64 f i libucrt:output.obj
 0001:00021e8f       ??$?0ABV?$stream_output_adapter@D@__crt_stdio_output@@AB_KABQBDABQAU__crt_locale_pointers@@ABQAD@?$positional_parameter_base@DV?$stream_output_adapter@D@__crt_stdio_output@@@__crt_stdio_output@@IAE@ABV?$stream_output_adapter@D@1@AB_KABQBDABQAU__crt_locale_pointers@@ABQAD@Z 10022e8f f i libucrt:output.obj
 0001:00021ee9       ??$?0ABV?$stream_output_adapter@D@__crt_stdio_output@@AB_KABQBDABQAU__crt_locale_pointers@@ABQAD@?$standard_base@DV?$stream_output_adapter@D@__crt_stdio_output@@@__crt_stdio_output@@IAE@ABV?$stream_output_adapter@D@1@AB_KABQBDABQAU__crt_locale_pointers@@ABQAD@Z 10022ee9 f i libucrt:output.obj
 0001:00021f2b       ??$?0ABV?$stream_output_adapter@_W@__crt_stdio_output@@AB_KABQB_WABQAU__crt_locale_pointers@@ABQAD@?$format_validation_base@_WV?$stream_output_adapter@_W@__crt_stdio_output@@@__crt_stdio_output@@IAE@ABV?$stream_output_adapter@_W@1@AB_KABQB_WABQAU__crt_locale_pointers@@ABQAD@Z 10022f2b f i libucrt:output.obj
 0001:00021f56       ??$?0ABV?$stream_output_adapter@_W@__crt_stdio_output@@AB_KABQB_WABQAU__crt_locale_pointers@@ABQAD@?$positional_parameter_base@_WV?$stream_output_adapter@_W@__crt_stdio_output@@@__crt_stdio_output@@IAE@ABV?$stream_output_adapter@_W@1@AB_KABQB_WABQAU__crt_locale_pointers@@ABQAD@Z 10022f56 f i libucrt:output.obj
 0001:00021fb0       ??$?0ABV?$stream_output_adapter@_W@__crt_stdio_output@@AB_KABQB_WABQAU__crt_locale_pointers@@ABQAD@?$standard_base@_WV?$stream_output_adapter@_W@__crt_stdio_output@@@__crt_stdio_output@@IAE@ABV?$stream_output_adapter@_W@1@AB_KABQB_WABQAU__crt_locale_pointers@@ABQAD@Z 10022fb0 f i libucrt:output.obj
 0001:00021ff2       ??$?0ABV?$string_output_adapter@D@__crt_stdio_output@@AB_KABQBDABQAU__crt_locale_pointers@@ABQAD@?$format_validation_base@DV?$string_output_adapter@D@__crt_stdio_output@@@__crt_stdio_output@@IAE@ABV?$string_output_adapter@D@1@AB_KABQBDABQAU__crt_locale_pointers@@ABQAD@Z 10022ff2 f i libucrt:output.obj
 0001:0002201d       ??$?0ABV?$string_output_adapter@D@__crt_stdio_output@@AB_KABQBDABQAU__crt_locale_pointers@@ABQAD@?$positional_parameter_base@DV?$string_output_adapter@D@__crt_stdio_output@@@__crt_stdio_output@@IAE@ABV?$string_output_adapter@D@1@AB_KABQBDABQAU__crt_locale_pointers@@ABQAD@Z 1002301d f i libucrt:output.obj
 0001:00022077       ??$?0ABV?$string_output_adapter@D@__crt_stdio_output@@AB_KABQBDABQAU__crt_locale_pointers@@ABQAD@?$standard_base@DV?$string_output_adapter@D@__crt_stdio_output@@@__crt_stdio_output@@IAE@ABV?$string_output_adapter@D@1@AB_KABQBDABQAU__crt_locale_pointers@@ABQAD@Z 10023077 f i libucrt:output.obj
 0001:000220b9       ??$?0ABV?$string_output_adapter@_W@__crt_stdio_output@@AB_KABQB_WABQAU__crt_locale_pointers@@ABQAD@?$format_validation_base@_WV?$string_output_adapter@_W@__crt_stdio_output@@@__crt_stdio_output@@IAE@ABV?$string_output_adapter@_W@1@AB_KABQB_WABQAU__crt_locale_pointers@@ABQAD@Z 100230b9 f i libucrt:output.obj
 0001:000220e4       ??$?0ABV?$string_output_adapter@_W@__crt_stdio_output@@AB_KABQB_WABQAU__crt_locale_pointers@@ABQAD@?$positional_parameter_base@_WV?$string_output_adapter@_W@__crt_stdio_output@@@__crt_stdio_output@@IAE@ABV?$string_output_adapter@_W@1@AB_KABQB_WABQAU__crt_locale_pointers@@ABQAD@Z 100230e4 f i libucrt:output.obj
 0001:0002213e       ??$?0ABV?$string_output_adapter@_W@__crt_stdio_output@@AB_KABQB_WABQAU__crt_locale_pointers@@ABQAD@?$standard_base@_WV?$string_output_adapter@_W@__crt_stdio_output@@@__crt_stdio_output@@IAE@ABV?$string_output_adapter@_W@1@AB_KABQB_WABQAU__crt_locale_pointers@@ABQAD@Z 1002313e f i libucrt:output.obj
 0001:00023764       ??$count@D@formatting_buffer@__crt_stdio_output@@QBEIXZ 10024764 f i libucrt:output.obj
 0001:00023782       ??$count@_W@formatting_buffer@__crt_stdio_output@@QBEIXZ 10024782 f i libucrt:output.obj
 0001:000237a1       ??$data@D@formatting_buffer@__crt_stdio_output@@QAEPADXZ 100247a1 f i libucrt:output.obj
 0001:000237b1       ??$data@_W@formatting_buffer@__crt_stdio_output@@QAEPA_WXZ 100247b1 f i libucrt:output.obj
 0001:000237c1       ??$ensure_buffer_is_big_enough@D@formatting_buffer@__crt_stdio_output@@QAE_NI@Z 100247c1 f i libucrt:output.obj
 0001:0002385f       ??$ensure_buffer_is_big_enough@_W@formatting_buffer@__crt_stdio_output@@QAE_NI@Z 1002485f f i libucrt:output.obj
 0001:000238ff       ??$extract_argument_from_va_list@C_J@?$positional_parameter_base@DV?$stream_output_adapter@D@__crt_stdio_output@@@__crt_stdio_output@@IAE_NAA_J@Z 100248ff f i libucrt:output.obj
 0001:00023996       ??$extract_argument_from_va_list@C_J@?$positional_parameter_base@DV?$string_output_adapter@D@__crt_stdio_output@@@__crt_stdio_output@@IAE_NAA_J@Z 10024996 f i libucrt:output.obj
 0001:00023a2d       ??$extract_argument_from_va_list@C_J@?$positional_parameter_base@_WV?$stream_output_adapter@_W@__crt_stdio_output@@@__crt_stdio_output@@IAE_NAA_J@Z 10024a2d f i libucrt:output.obj
 0001:00023ac4       ??$extract_argument_from_va_list@C_J@?$positional_parameter_base@_WV?$string_output_adapter@_W@__crt_stdio_output@@@__crt_stdio_output@@IAE_NAA_J@Z 10024ac4 f i libucrt:output.obj
 0001:00023b5b       ??$extract_argument_from_va_list@C_J@?$standard_base@DV?$stream_output_adapter@D@__crt_stdio_output@@@__crt_stdio_output@@IAE_NAA_J@Z 10024b5b f i libucrt:output.obj
 0001:00023b81       ??$extract_argument_from_va_list@C_J@?$standard_base@DV?$string_output_adapter@D@__crt_stdio_output@@@__crt_stdio_output@@IAE_NAA_J@Z 10024b81 f i libucrt:output.obj
 0001:00023ba7       ??$extract_argument_from_va_list@C_J@?$standard_base@_WV?$stream_output_adapter@_W@__crt_stdio_output@@@__crt_stdio_output@@IAE_NAA_J@Z 10024ba7 f i libucrt:output.obj
 0001:00023bcd       ??$extract_argument_from_va_list@C_J@?$standard_base@_WV?$string_output_adapter@_W@__crt_stdio_output@@@__crt_stdio_output@@IAE_NAA_J@Z 10024bcd f i libucrt:output.obj
 0001:00023bf3       ??$extract_argument_from_va_list@E_J@?$positional_parameter_base@DV?$stream_output_adapter@D@__crt_stdio_output@@@__crt_stdio_output@@IAE_NAA_J@Z 10024bf3 f i libucrt:output.obj
 0001:00023c8a       ??$extract_argument_from_va_list@E_J@?$positional_parameter_base@DV?$string_output_adapter@D@__crt_stdio_output@@@__crt_stdio_output@@IAE_NAA_J@Z 10024c8a f i libucrt:output.obj
 0001:00023d21       ??$extract_argument_from_va_list@E_J@?$positional_parameter_base@_WV?$stream_output_adapter@_W@__crt_stdio_output@@@__crt_stdio_output@@IAE_NAA_J@Z 10024d21 f i libucrt:output.obj
 0001:00023db8       ??$extract_argument_from_va_list@E_J@?$positional_parameter_base@_WV?$string_output_adapter@_W@__crt_stdio_output@@@__crt_stdio_output@@IAE_NAA_J@Z 10024db8 f i libucrt:output.obj
 0001:00023e4f       ??$extract_argument_from_va_list@E_J@?$standard_base@DV?$stream_output_adapter@D@__crt_stdio_output@@@__crt_stdio_output@@IAE_NAA_J@Z 10024e4f f i libucrt:output.obj
 0001:00023e75       ??$extract_argument_from_va_list@E_J@?$standard_base@DV?$string_output_adapter@D@__crt_stdio_output@@@__crt_stdio_output@@IAE_NAA_J@Z 10024e75 f i libucrt:output.obj
 0001:00023e9b       ??$extract_argument_from_va_list@E_J@?$standard_base@_WV?$stream_output_adapter@_W@__crt_stdio_output@@@__crt_stdio_output@@IAE_NAA_J@Z 10024e9b f i libucrt:output.obj
 0001:00023ec1       ??$extract_argument_from_va_list@E_J@?$standard_base@_WV?$string_output_adapter@_W@__crt_stdio_output@@@__crt_stdio_output@@IAE_NAA_J@Z 10024ec1 f i libucrt:output.obj
 0001:00023ee7       ??$extract_argument_from_va_list@F_J@?$positional_parameter_base@DV?$stream_output_adapter@D@__crt_stdio_output@@@__crt_stdio_output@@IAE_NAA_J@Z 10024ee7 f i libucrt:output.obj
 0001:00023f7e       ??$extract_argument_from_va_list@F_J@?$positional_parameter_base@DV?$string_output_adapter@D@__crt_stdio_output@@@__crt_stdio_output@@IAE_NAA_J@Z 10024f7e f i libucrt:output.obj
 0001:00024015       ??$extract_argument_from_va_list@F_J@?$positional_parameter_base@_WV?$stream_output_adapter@_W@__crt_stdio_output@@@__crt_stdio_output@@IAE_NAA_J@Z 10025015 f i libucrt:output.obj
 0001:000240ac       ??$extract_argument_from_va_list@F_J@?$positional_parameter_base@_WV?$string_output_adapter@_W@__crt_stdio_output@@@__crt_stdio_output@@IAE_NAA_J@Z 100250ac f i libucrt:output.obj
 0001:00024143       ??$extract_argument_from_va_list@F_J@?$standard_base@DV?$stream_output_adapter@D@__crt_stdio_output@@@__crt_stdio_output@@IAE_NAA_J@Z 10025143 f i libucrt:output.obj
 0001:00024169       ??$extract_argument_from_va_list@F_J@?$standard_base@DV?$string_output_adapter@D@__crt_stdio_output@@@__crt_stdio_output@@IAE_NAA_J@Z 10025169 f i libucrt:output.obj
 0001:0002418f       ??$extract_argument_from_va_list@F_J@?$standard_base@_WV?$stream_output_adapter@_W@__crt_stdio_output@@@__crt_stdio_output@@IAE_NAA_J@Z 1002518f f i libucrt:output.obj
 0001:000241b5       ??$extract_argument_from_va_list@F_J@?$standard_base@_WV?$string_output_adapter@_W@__crt_stdio_output@@@__crt_stdio_output@@IAE_NAA_J@Z 100251b5 f i libucrt:output.obj
 0001:000241db       ??$extract_argument_from_va_list@GD@?$positional_parameter_base@DV?$stream_output_adapter@D@__crt_stdio_output@@@__crt_stdio_output@@IAE_NAAD@Z 100251db f i libucrt:output.obj
 0001:00024271       ??$extract_argument_from_va_list@GD@?$positional_parameter_base@DV?$string_output_adapter@D@__crt_stdio_output@@@__crt_stdio_output@@IAE_NAAD@Z 10025271 f i libucrt:output.obj
 0001:00024307       ??$extract_argument_from_va_list@GD@?$standard_base@DV?$stream_output_adapter@D@__crt_stdio_output@@@__crt_stdio_output@@IAE_NAAD@Z 10025307 f i libucrt:output.obj
 0001:00024327       ??$extract_argument_from_va_list@GD@?$standard_base@DV?$string_output_adapter@D@__crt_stdio_output@@@__crt_stdio_output@@IAE_NAAD@Z 10025327 f i libucrt:output.obj
 0001:00024347       ??$extract_argument_from_va_list@G_J@?$positional_parameter_base@DV?$stream_output_adapter@D@__crt_stdio_output@@@__crt_stdio_output@@IAE_NAA_J@Z 10025347 f i libucrt:output.obj
 0001:000243de       ??$extract_argument_from_va_list@G_J@?$positional_parameter_base@DV?$string_output_adapter@D@__crt_stdio_output@@@__crt_stdio_output@@IAE_NAA_J@Z 100253de f i libucrt:output.obj
 0001:00024475       ??$extract_argument_from_va_list@G_J@?$positional_parameter_base@_WV?$stream_output_adapter@_W@__crt_stdio_output@@@__crt_stdio_output@@IAE_NAA_J@Z 10025475 f i libucrt:output.obj
 0001:0002450c       ??$extract_argument_from_va_list@G_J@?$positional_parameter_base@_WV?$string_output_adapter@_W@__crt_stdio_output@@@__crt_stdio_output@@IAE_NAA_J@Z 1002550c f i libucrt:output.obj
 0001:000245a3       ??$extract_argument_from_va_list@G_J@?$standard_base@DV?$stream_output_adapter@D@__crt_stdio_output@@@__crt_stdio_output@@IAE_NAA_J@Z 100255a3 f i libucrt:output.obj
 0001:000245c9       ??$extract_argument_from_va_list@G_J@?$standard_base@DV?$string_output_adapter@D@__crt_stdio_output@@@__crt_stdio_output@@IAE_NAA_J@Z 100255c9 f i libucrt:output.obj
 0001:000245ef       ??$extract_argument_from_va_list@G_J@?$standard_base@_WV?$stream_output_adapter@_W@__crt_stdio_output@@@__crt_stdio_output@@IAE_NAA_J@Z 100255ef f i libucrt:output.obj
 0001:00024615       ??$extract_argument_from_va_list@G_J@?$standard_base@_WV?$string_output_adapter@_W@__crt_stdio_output@@@__crt_stdio_output@@IAE_NAA_J@Z 10025615 f i libucrt:output.obj
 0001:0002463b       ??$extract_argument_from_va_list@H_J@?$positional_parameter_base@DV?$stream_output_adapter@D@__crt_stdio_output@@@__crt_stdio_output@@IAE_NAA_J@Z 1002563b f i libucrt:output.obj
 0001:000246cf       ??$extract_argument_from_va_list@H_J@?$positional_parameter_base@DV?$string_output_adapter@D@__crt_stdio_output@@@__crt_stdio_output@@IAE_NAA_J@Z 100256cf f i libucrt:output.obj
 0001:00024763       ??$extract_argument_from_va_list@H_J@?$positional_parameter_base@_WV?$stream_output_adapter@_W@__crt_stdio_output@@@__crt_stdio_output@@IAE_NAA_J@Z 10025763 f i libucrt:output.obj
 0001:000247f7       ??$extract_argument_from_va_list@H_J@?$positional_parameter_base@_WV?$string_output_adapter@_W@__crt_stdio_output@@@__crt_stdio_output@@IAE_NAA_J@Z 100257f7 f i libucrt:output.obj
 0001:0002488b       ??$extract_argument_from_va_list@H_J@?$standard_base@DV?$stream_output_adapter@D@__crt_stdio_output@@@__crt_stdio_output@@IAE_NAA_J@Z 1002588b f i libucrt:output.obj
 0001:000248b0       ??$extract_argument_from_va_list@H_J@?$standard_base@DV?$string_output_adapter@D@__crt_stdio_output@@@__crt_stdio_output@@IAE_NAA_J@Z 100258b0 f i libucrt:output.obj
 0001:000248d5       ??$extract_argument_from_va_list@H_J@?$standard_base@_WV?$stream_output_adapter@_W@__crt_stdio_output@@@__crt_stdio_output@@IAE_NAA_J@Z 100258d5 f i libucrt:output.obj
 0001:000248fa       ??$extract_argument_from_va_list@H_J@?$standard_base@_WV?$string_output_adapter@_W@__crt_stdio_output@@@__crt_stdio_output@@IAE_NAA_J@Z 100258fa f i libucrt:output.obj
 0001:0002491f       ??$extract_argument_from_va_list@I_J@?$positional_parameter_base@DV?$stream_output_adapter@D@__crt_stdio_output@@@__crt_stdio_output@@IAE_NAA_J@Z 1002591f f i libucrt:output.obj
 0001:000249bf       ??$extract_argument_from_va_list@I_J@?$positional_parameter_base@DV?$string_output_adapter@D@__crt_stdio_output@@@__crt_stdio_output@@IAE_NAA_J@Z 100259bf f i libucrt:output.obj
 0001:00024a5f       ??$extract_argument_from_va_list@I_J@?$positional_parameter_base@_WV?$stream_output_adapter@_W@__crt_stdio_output@@@__crt_stdio_output@@IAE_NAA_J@Z 10025a5f f i libucrt:output.obj
 0001:00024aff       ??$extract_argument_from_va_list@I_J@?$positional_parameter_base@_WV?$string_output_adapter@_W@__crt_stdio_output@@@__crt_stdio_output@@IAE_NAA_J@Z 10025aff f i libucrt:output.obj
 0001:00024b9f       ??$extract_argument_from_va_list@I_J@?$standard_base@DV?$stream_output_adapter@D@__crt_stdio_output@@@__crt_stdio_output@@IAE_NAA_J@Z 10025b9f f i libucrt:output.obj
 0001:00024bc4       ??$extract_argument_from_va_list@I_J@?$standard_base@DV?$string_output_adapter@D@__crt_stdio_output@@@__crt_stdio_output@@IAE_NAA_J@Z 10025bc4 f i libucrt:output.obj
 0001:00024be9       ??$extract_argument_from_va_list@I_J@?$standard_base@_WV?$stream_output_adapter@_W@__crt_stdio_output@@@__crt_stdio_output@@IAE_NAA_J@Z 10025be9 f i libucrt:output.obj
 0001:00024c0e       ??$extract_argument_from_va_list@I_J@?$standard_base@_WV?$string_output_adapter@_W@__crt_stdio_output@@@__crt_stdio_output@@IAE_NAA_J@Z 10025c0e f i libucrt:output.obj
 0001:00024c33       ??$extract_argument_from_va_list@PADPAD@?$positional_parameter_base@DV?$stream_output_adapter@D@__crt_stdio_output@@@__crt_stdio_output@@IAE_NAAPAD@Z 10025c33 f i libucrt:output.obj
 0001:00024cc9       ??$extract_argument_from_va_list@PADPAD@?$positional_parameter_base@DV?$string_output_adapter@D@__crt_stdio_output@@@__crt_stdio_output@@IAE_NAAPAD@Z 10025cc9 f i libucrt:output.obj
 0001:00024d5f       ??$extract_argument_from_va_list@PADPAD@?$positional_parameter_base@_WV?$stream_output_adapter@_W@__crt_stdio_output@@@__crt_stdio_output@@IAE_NAAPAD@Z 10025d5f f i libucrt:output.obj
 0001:00024df5       ??$extract_argument_from_va_list@PADPAD@?$positional_parameter_base@_WV?$string_output_adapter@_W@__crt_stdio_output@@@__crt_stdio_output@@IAE_NAAPAD@Z 10025df5 f i libucrt:output.obj
 0001:00024e8b       ??$extract_argument_from_va_list@PADPAD@?$standard_base@DV?$stream_output_adapter@D@__crt_stdio_output@@@__crt_stdio_output@@IAE_NAAPAD@Z 10025e8b f i libucrt:output.obj
 0001:00024eab       ??$extract_argument_from_va_list@PADPAD@?$standard_base@DV?$string_output_adapter@D@__crt_stdio_output@@@__crt_stdio_output@@IAE_NAAPAD@Z 10025eab f i libucrt:output.obj
 0001:00024ecb       ??$extract_argument_from_va_list@PADPAD@?$standard_base@_WV?$stream_output_adapter@_W@__crt_stdio_output@@@__crt_stdio_output@@IAE_NAAPAD@Z 10025ecb f i libucrt:output.obj
 0001:00024eeb       ??$extract_argument_from_va_list@PADPAD@?$standard_base@_WV?$string_output_adapter@_W@__crt_stdio_output@@@__crt_stdio_output@@IAE_NAAPAD@Z 10025eeb f i libucrt:output.obj
 0001:000252e3       ??$extract_argument_from_va_list@PAXPAX@?$positional_parameter_base@DV?$stream_output_adapter@D@__crt_stdio_output@@@__crt_stdio_output@@IAE_NAAPAX@Z 100262e3 f i libucrt:output.obj
 0001:00025379       ??$extract_argument_from_va_list@PAXPAX@?$positional_parameter_base@DV?$string_output_adapter@D@__crt_stdio_output@@@__crt_stdio_output@@IAE_NAAPAX@Z 10026379 f i libucrt:output.obj
 0001:0002540f       ??$extract_argument_from_va_list@PAXPAX@?$positional_parameter_base@_WV?$stream_output_adapter@_W@__crt_stdio_output@@@__crt_stdio_output@@IAE_NAAPAX@Z 1002640f f i libucrt:output.obj
 0001:000254a5       ??$extract_argument_from_va_list@PAXPAX@?$positional_parameter_base@_WV?$string_output_adapter@_W@__crt_stdio_output@@@__crt_stdio_output@@IAE_NAAPAX@Z 100264a5 f i libucrt:output.obj
 0001:0002553b       ??$extract_argument_from_va_list@PAXPAX@?$standard_base@DV?$stream_output_adapter@D@__crt_stdio_output@@@__crt_stdio_output@@IAE_NAAPAX@Z 1002653b f i libucrt:output.obj
 0001:0002555b       ??$extract_argument_from_va_list@PAXPAX@?$standard_base@DV?$string_output_adapter@D@__crt_stdio_output@@@__crt_stdio_output@@IAE_NAAPAX@Z 1002655b f i libucrt:output.obj
 0001:0002557b       ??$extract_argument_from_va_list@PAXPAX@?$standard_base@_WV?$stream_output_adapter@_W@__crt_stdio_output@@@__crt_stdio_output@@IAE_NAAPAX@Z 1002657b f i libucrt:output.obj
 0001:0002559b       ??$extract_argument_from_va_list@PAXPAX@?$standard_base@_WV?$string_output_adapter@_W@__crt_stdio_output@@@__crt_stdio_output@@IAE_NAAPAX@Z 1002659b f i libucrt:output.obj
 0001:000255bb       ??$extract_argument_from_va_list@U_CRT_DOUBLE@@U1@@?$positional_parameter_base@DV?$stream_output_adapter@D@__crt_stdio_output@@@__crt_stdio_output@@IAE_NAAU_CRT_DOUBLE@@@Z 100265bb f i libucrt:output.obj
 0001:00025662       ??$extract_argument_from_va_list@U_CRT_DOUBLE@@U1@@?$positional_parameter_base@DV?$string_output_adapter@D@__crt_stdio_output@@@__crt_stdio_output@@IAE_NAAU_CRT_DOUBLE@@@Z 10026662 f i libucrt:output.obj
 0001:00025709       ??$extract_argument_from_va_list@U_CRT_DOUBLE@@U1@@?$positional_parameter_base@_WV?$stream_output_adapter@_W@__crt_stdio_output@@@__crt_stdio_output@@IAE_NAAU_CRT_DOUBLE@@@Z 10026709 f i libucrt:output.obj
 0001:000257b0       ??$extract_argument_from_va_list@U_CRT_DOUBLE@@U1@@?$positional_parameter_base@_WV?$string_output_adapter@_W@__crt_stdio_output@@@__crt_stdio_output@@IAE_NAAU_CRT_DOUBLE@@@Z 100267b0 f i libucrt:output.obj
 0001:00025857       ??$extract_argument_from_va_list@U_CRT_DOUBLE@@U1@@?$standard_base@DV?$stream_output_adapter@D@__crt_stdio_output@@@__crt_stdio_output@@IAE_NAAU_CRT_DOUBLE@@@Z 10026857 f i libucrt:output.obj
 0001:0002587f       ??$extract_argument_from_va_list@U_CRT_DOUBLE@@U1@@?$standard_base@DV?$string_output_adapter@D@__crt_stdio_output@@@__crt_stdio_output@@IAE_NAAU_CRT_DOUBLE@@@Z 1002687f f i libucrt:output.obj
 0001:000258a7       ??$extract_argument_from_va_list@U_CRT_DOUBLE@@U1@@?$standard_base@_WV?$stream_output_adapter@_W@__crt_stdio_output@@@__crt_stdio_output@@IAE_NAAU_CRT_DOUBLE@@@Z 100268a7 f i libucrt:output.obj
 0001:000258cf       ??$extract_argument_from_va_list@U_CRT_DOUBLE@@U1@@?$standard_base@_WV?$string_output_adapter@_W@__crt_stdio_output@@@__crt_stdio_output@@IAE_NAAU_CRT_DOUBLE@@@Z 100268cf f i libucrt:output.obj
 0001:000258f7       ??$extract_argument_from_va_list@_J_J@?$positional_parameter_base@DV?$stream_output_adapter@D@__crt_stdio_output@@@__crt_stdio_output@@IAE_NAA_J@Z 100268f7 f i libucrt:output.obj
 0001:0002599e       ??$extract_argument_from_va_list@_J_J@?$positional_parameter_base@DV?$string_output_adapter@D@__crt_stdio_output@@@__crt_stdio_output@@IAE_NAA_J@Z 1002699e f i libucrt:output.obj
 0001:00025a45       ??$extract_argument_from_va_list@_J_J@?$positional_parameter_base@_WV?$stream_output_adapter@_W@__crt_stdio_output@@@__crt_stdio_output@@IAE_NAA_J@Z 10026a45 f i libucrt:output.obj
 0001:00025aec       ??$extract_argument_from_va_list@_J_J@?$positional_parameter_base@_WV?$string_output_adapter@_W@__crt_stdio_output@@@__crt_stdio_output@@IAE_NAA_J@Z 10026aec f i libucrt:output.obj
 0001:00025b93       ??$extract_argument_from_va_list@_J_J@?$standard_base@DV?$stream_output_adapter@D@__crt_stdio_output@@@__crt_stdio_output@@IAE_NAA_J@Z 10026b93 f i libucrt:output.obj
 0001:00025bbb       ??$extract_argument_from_va_list@_J_J@?$standard_base@DV?$string_output_adapter@D@__crt_stdio_output@@@__crt_stdio_output@@IAE_NAA_J@Z 10026bbb f i libucrt:output.obj
 0001:00025be3       ??$extract_argument_from_va_list@_J_J@?$standard_base@_WV?$stream_output_adapter@_W@__crt_stdio_output@@@__crt_stdio_output@@IAE_NAA_J@Z 10026be3 f i libucrt:output.obj
 0001:00025c0b       ??$extract_argument_from_va_list@_J_J@?$standard_base@_WV?$string_output_adapter@_W@__crt_stdio_output@@@__crt_stdio_output@@IAE_NAA_J@Z 10026c0b f i libucrt:output.obj
 0001:00025c33       ??$extract_argument_from_va_list@_K_J@?$positional_parameter_base@DV?$stream_output_adapter@D@__crt_stdio_output@@@__crt_stdio_output@@IAE_NAA_J@Z 10026c33 f i libucrt:output.obj
 0001:00025cda       ??$extract_argument_from_va_list@_K_J@?$positional_parameter_base@DV?$string_output_adapter@D@__crt_stdio_output@@@__crt_stdio_output@@IAE_NAA_J@Z 10026cda f i libucrt:output.obj
 0001:00025d81       ??$extract_argument_from_va_list@_K_J@?$positional_parameter_base@_WV?$stream_output_adapter@_W@__crt_stdio_output@@@__crt_stdio_output@@IAE_NAA_J@Z 10026d81 f i libucrt:output.obj
 0001:00025e28       ??$extract_argument_from_va_list@_K_J@?$positional_parameter_base@_WV?$string_output_adapter@_W@__crt_stdio_output@@@__crt_stdio_output@@IAE_NAA_J@Z 10026e28 f i libucrt:output.obj
 0001:00025ecf       ??$extract_argument_from_va_list@_K_J@?$standard_base@DV?$stream_output_adapter@D@__crt_stdio_output@@@__crt_stdio_output@@IAE_NAA_J@Z 10026ecf f i libucrt:output.obj
 0001:00025ef7       ??$extract_argument_from_va_list@_K_J@?$standard_base@DV?$string_output_adapter@D@__crt_stdio_output@@@__crt_stdio_output@@IAE_NAA_J@Z 10026ef7 f i libucrt:output.obj
 0001:00025f1f       ??$extract_argument_from_va_list@_K_J@?$standard_base@_WV?$stream_output_adapter@_W@__crt_stdio_output@@@__crt_stdio_output@@IAE_NAA_J@Z 10026f1f f i libucrt:output.obj
 0001:00025f47       ??$extract_argument_from_va_list@_K_J@?$standard_base@_WV?$string_output_adapter@_W@__crt_stdio_output@@@__crt_stdio_output@@IAE_NAA_J@Z 10026f47 f i libucrt:output.obj
 0001:00025f6f       ??$extract_argument_from_va_list@_W_W@?$positional_parameter_base@DV?$stream_output_adapter@D@__crt_stdio_output@@@__crt_stdio_output@@IAE_NAA_W@Z 10026f6f f i libucrt:output.obj
 0001:0002600a       ??$extract_argument_from_va_list@_W_W@?$positional_parameter_base@DV?$string_output_adapter@D@__crt_stdio_output@@@__crt_stdio_output@@IAE_NAA_W@Z 1002700a f i libucrt:output.obj
 0001:000260a5       ??$extract_argument_from_va_list@_W_W@?$positional_parameter_base@_WV?$stream_output_adapter@_W@__crt_stdio_output@@@__crt_stdio_output@@IAE_NAA_W@Z 100270a5 f i libucrt:output.obj
 0001:00026140       ??$extract_argument_from_va_list@_W_W@?$positional_parameter_base@_WV?$string_output_adapter@_W@__crt_stdio_output@@@__crt_stdio_output@@IAE_NAA_W@Z 10027140 f i libucrt:output.obj
 0001:000261db       ??$extract_argument_from_va_list@_W_W@?$standard_base@DV?$stream_output_adapter@D@__crt_stdio_output@@@__crt_stdio_output@@IAE_NAA_W@Z 100271db f i libucrt:output.obj
 0001:000261fe       ??$extract_argument_from_va_list@_W_W@?$standard_base@DV?$string_output_adapter@D@__crt_stdio_output@@@__crt_stdio_output@@IAE_NAA_W@Z 100271fe f i libucrt:output.obj
 0001:00026221       ??$extract_argument_from_va_list@_W_W@?$standard_base@_WV?$stream_output_adapter@_W@__crt_stdio_output@@@__crt_stdio_output@@IAE_NAA_W@Z 10027221 f i libucrt:output.obj
 0001:00026244       ??$extract_argument_from_va_list@_W_W@?$standard_base@_WV?$string_output_adapter@_W@__crt_stdio_output@@@__crt_stdio_output@@IAE_NAA_W@Z 10027244 f i libucrt:output.obj
 0001:00026267       ??$get_parameter_type@D@?$positional_parameter_base@DV?$stream_output_adapter@D@__crt_stdio_output@@@__crt_stdio_output@@CA?AW4parameter_type@01@PAD@Z 10027267 f i libucrt:output.obj
 0001:0002626b       ??$get_parameter_type@D@?$positional_parameter_base@DV?$string_output_adapter@D@__crt_stdio_output@@@__crt_stdio_output@@CA?AW4parameter_type@01@PAD@Z 1002726b f i libucrt:output.obj
 0001:0002626f       ??$get_parameter_type@D@?$positional_parameter_base@_WV?$stream_output_adapter@_W@__crt_stdio_output@@@__crt_stdio_output@@CA?AW4parameter_type@01@PAD@Z 1002726f f i libucrt:output.obj
 0001:00026273       ??$get_parameter_type@D@?$positional_parameter_base@_WV?$string_output_adapter@_W@__crt_stdio_output@@@__crt_stdio_output@@CA?AW4parameter_type@01@PAD@Z 10027273 f i libucrt:output.obj
 0001:00026287       ??$get_parameter_type@X@?$positional_parameter_base@DV?$stream_output_adapter@D@__crt_stdio_output@@@__crt_stdio_output@@CA?AW4parameter_type@01@PAX@Z 10027287 f i libucrt:output.obj
 0001:0002628b       ??$get_parameter_type@X@?$positional_parameter_base@DV?$string_output_adapter@D@__crt_stdio_output@@@__crt_stdio_output@@CA?AW4parameter_type@01@PAX@Z 1002728b f i libucrt:output.obj
 0001:0002628f       ??$get_parameter_type@X@?$positional_parameter_base@_WV?$stream_output_adapter@_W@__crt_stdio_output@@@__crt_stdio_output@@CA?AW4parameter_type@01@PAX@Z 1002728f f i libucrt:output.obj
 0001:00026293       ??$get_parameter_type@X@?$positional_parameter_base@_WV?$string_output_adapter@_W@__crt_stdio_output@@@__crt_stdio_output@@CA?AW4parameter_type@01@PAX@Z 10027293 f i libucrt:output.obj
 0001:00026297       ??$is_character_specifier@D@?$positional_parameter_base@DV?$stream_output_adapter@D@__crt_stdio_output@@@__crt_stdio_output@@CA_ND@Z 10027297 f i libucrt:output.obj
 0001:000262b5       ??$is_character_specifier@D@?$positional_parameter_base@DV?$string_output_adapter@D@__crt_stdio_output@@@__crt_stdio_output@@CA_ND@Z 100272b5 f i libucrt:output.obj
 0001:000262d3       ??$is_character_specifier@_W@?$positional_parameter_base@_WV?$stream_output_adapter@_W@__crt_stdio_output@@@__crt_stdio_output@@CA_N_W@Z 100272d3 f i libucrt:output.obj
 0001:000262f4       ??$is_character_specifier@_W@?$positional_parameter_base@_WV?$string_output_adapter@_W@__crt_stdio_output@@@__crt_stdio_output@@CA_N_W@Z 100272f4 f i libucrt:output.obj
 0001:00026315       ??$is_integral_specifier@D@?$positional_parameter_base@DV?$stream_output_adapter@D@__crt_stdio_output@@@__crt_stdio_output@@CA_ND@Z 10027315 f i libucrt:output.obj
 0001:0002634c       ??$is_integral_specifier@D@?$positional_parameter_base@DV?$string_output_adapter@D@__crt_stdio_output@@@__crt_stdio_output@@CA_ND@Z 1002734c f i libucrt:output.obj
 0001:00026383       ??$is_integral_specifier@_W@?$positional_parameter_base@_WV?$stream_output_adapter@_W@__crt_stdio_output@@@__crt_stdio_output@@CA_N_W@Z 10027383 f i libucrt:output.obj
 0001:000263cc       ??$is_integral_specifier@_W@?$positional_parameter_base@_WV?$string_output_adapter@_W@__crt_stdio_output@@@__crt_stdio_output@@CA_N_W@Z 100273cc f i libucrt:output.obj
 0001:00026415       ??$is_pointer_specifier@D@?$positional_parameter_base@DV?$stream_output_adapter@D@__crt_stdio_output@@@__crt_stdio_output@@CA_ND@Z 10027415 f i libucrt:output.obj
 0001:00026426       ??$is_pointer_specifier@D@?$positional_parameter_base@DV?$string_output_adapter@D@__crt_stdio_output@@@__crt_stdio_output@@CA_ND@Z 10027426 f i libucrt:output.obj
 0001:00026437       ??$is_pointer_specifier@_W@?$positional_parameter_base@_WV?$stream_output_adapter@_W@__crt_stdio_output@@@__crt_stdio_output@@CA_N_W@Z 10027437 f i libucrt:output.obj
 0001:00026449       ??$is_pointer_specifier@_W@?$positional_parameter_base@_WV?$string_output_adapter@_W@__crt_stdio_output@@@__crt_stdio_output@@CA_N_W@Z 10027449 f i libucrt:output.obj
 0001:0002645b       ??$is_string_specifier@D@?$positional_parameter_base@DV?$stream_output_adapter@D@__crt_stdio_output@@@__crt_stdio_output@@CA_ND@Z 1002745b f i libucrt:output.obj
 0001:00026479       ??$is_string_specifier@D@?$positional_parameter_base@DV?$string_output_adapter@D@__crt_stdio_output@@@__crt_stdio_output@@CA_ND@Z 10027479 f i libucrt:output.obj
 0001:00026497       ??$is_string_specifier@_W@?$positional_parameter_base@_WV?$stream_output_adapter@_W@__crt_stdio_output@@@__crt_stdio_output@@CA_N_W@Z 10027497 f i libucrt:output.obj
 0001:000264b8       ??$is_string_specifier@_W@?$positional_parameter_base@_WV?$string_output_adapter@_W@__crt_stdio_output@@@__crt_stdio_output@@CA_N_W@Z 100274b8 f i libucrt:output.obj
 0001:000264d9       ??$is_wide_character_specifier@D@__crt_stdio_output@@YA_N_KDW4length_modifier@0@@Z 100274d9 f i libucrt:output.obj
 0001:00026516       ??$is_wide_character_specifier@_W@__crt_stdio_output@@YA_N_K_WW4length_modifier@0@@Z 10027516 f i libucrt:output.obj
 0001:00026577       ??$peek_va_arg@C@__crt_stdio_output@@YACPAD@Z 10027577 f i libucrt:output.obj
 0001:00026586       ??$peek_va_arg@E@__crt_stdio_output@@YAEPAD@Z 10027586 f i libucrt:output.obj
 0001:00026595       ??$peek_va_arg@F@__crt_stdio_output@@YAFPAD@Z 10027595 f i libucrt:output.obj
 0001:000265a5       ??$peek_va_arg@G@__crt_stdio_output@@YAGPAD@Z 100275a5 f i libucrt:output.obj
 0001:000265b5       ??$peek_va_arg@H@__crt_stdio_output@@YAHPAD@Z 100275b5 f i libucrt:output.obj
 0001:000265c4       ??$peek_va_arg@I@__crt_stdio_output@@YAIPAD@Z 100275c4 f i libucrt:output.obj
 0001:000265d3       ??$peek_va_arg@PAD@__crt_stdio_output@@YAPADPAD@Z 100275d3 f i libucrt:output.obj
 0001:0002661e       ??$peek_va_arg@PAX@__crt_stdio_output@@YAPAXPAD@Z 1002761e f i libucrt:output.obj
 0001:0002662d       ??$peek_va_arg@U_CRT_DOUBLE@@@__crt_stdio_output@@YA?AU_CRT_DOUBLE@@PAD@Z 1002762d f i libucrt:output.obj
 0001:0002663f       ??$peek_va_arg@_J@__crt_stdio_output@@YA_JPAD@Z 1002763f f i libucrt:output.obj
 0001:00026651       ??$peek_va_arg@_K@__crt_stdio_output@@YA_KPAD@Z 10027651 f i libucrt:output.obj
 0001:00026663       ??$peek_va_arg@_W@__crt_stdio_output@@YA_WPAD@Z 10027663 f i libucrt:output.obj
 0001:00026673       ??$puttc_nolock@ABDPAU_iobuf@@@?$__crt_char_traits@D@@SAHABD$$QAPAU_iobuf@@@Z 10027673 f i libucrt:output.obj
 0001:00026693       ??$puttc_nolock@AB_WPAU_iobuf@@@?$__crt_char_traits@_W@@SAGAB_W$$QAPAU_iobuf@@@Z 10027693 f i libucrt:output.obj
 0001:000266b3       ??$read_va_arg@C@__crt_stdio_output@@YACAAPAD@Z 100276b3 f i libucrt:output.obj
 0001:000266c9       ??$read_va_arg@E@__crt_stdio_output@@YAEAAPAD@Z 100276c9 f i libucrt:output.obj
 0001:000266df       ??$read_va_arg@F@__crt_stdio_output@@YAFAAPAD@Z 100276df f i libucrt:output.obj
 0001:000266f6       ??$read_va_arg@G@__crt_stdio_output@@YAGAAPAD@Z 100276f6 f i libucrt:output.obj
 0001:0002670d       ??$read_va_arg@H@__crt_stdio_output@@YAHAAPAD@Z 1002770d f i libucrt:output.obj
 0001:00026723       ??$read_va_arg@I@__crt_stdio_output@@YAIAAPAD@Z 10027723 f i libucrt:output.obj
 0001:00026739       ??$read_va_arg@PAD@__crt_stdio_output@@YAPADAAPAD@Z 10027739 f i libucrt:output.obj
 0001:00026857       ??$read_va_arg@PAX@__crt_stdio_output@@YAPAXAAPAD@Z 10027857 f i libucrt:output.obj
 0001:0002686d       ??$read_va_arg@U_CRT_DOUBLE@@@__crt_stdio_output@@YA?AU_CRT_DOUBLE@@AAPAD@Z 1002786d f i libucrt:output.obj
 0001:00026888       ??$read_va_arg@_J@__crt_stdio_output@@YA_JAAPAD@Z 10027888 f i libucrt:output.obj
 0001:000268a2       ??$read_va_arg@_K@__crt_stdio_output@@YA_KAAPAD@Z 100278a2 f i libucrt:output.obj
 0001:000268bc       ??$read_va_arg@_W@__crt_stdio_output@@YA_WAAPAD@Z 100278bc f i libucrt:output.obj
 0001:000268d3       ??$scratch_count@D@formatting_buffer@__crt_stdio_output@@QBEIXZ 100278d3 f i libucrt:output.obj
 0001:000268d8       ??$scratch_data@D@formatting_buffer@__crt_stdio_output@@QAEPADXZ 100278d8 f i libucrt:output.obj
 0001:000268fd       ??$tcstol@AAPBDPAPADH@?$__crt_char_traits@D@@SAJAAPBD$$QAPAPAD$$QAH@Z 100278fd f i libucrt:output.obj
 0001:00026922       ??$tcstol@AAPB_WPAPA_WH@?$__crt_char_traits@_W@@SAJAAPB_W$$QAPAPA_W$$QAH@Z 10027922 f i libucrt:output.obj
 0001:00026947       ??$tcstol@PBDPAPADH@?$__crt_char_traits@D@@SAJ$$QAPBD$$QAPAPAD$$QAH@Z 10027947 f i libucrt:output.obj
 0001:0002696c       ??$tcstol@PB_WPAPA_WH@?$__crt_char_traits@_W@@SAJ$$QAPB_W$$QAPAPA_W$$QAH@Z 1002796c f i libucrt:output.obj
 0001:00026991       ??$type_case_integer_parse_into_buffer@I@?$output_processor@DV?$stream_output_adapter@D@__crt_stdio_output@@V?$format_validation_base@DV?$stream_output_adapter@D@__crt_stdio_output@@@2@@__crt_stdio_output@@AAEXII_N@Z 10027991 f i libucrt:output.obj
 0001:00026a20       ??$type_case_integer_parse_into_buffer@I@?$output_processor@DV?$stream_output_adapter@D@__crt_stdio_output@@V?$positional_parameter_base@DV?$stream_output_adapter@D@__crt_stdio_output@@@2@@__crt_stdio_output@@AAEXII_N@Z 10027a20 f i libucrt:output.obj
 0001:00026aaf       ??$type_case_integer_parse_into_buffer@I@?$output_processor@DV?$stream_output_adapter@D@__crt_stdio_output@@V?$standard_base@DV?$stream_output_adapter@D@__crt_stdio_output@@@2@@__crt_stdio_output@@AAEXII_N@Z 10027aaf f i libucrt:output.obj
 0001:00026b3e       ??$type_case_integer_parse_into_buffer@I@?$output_processor@DV?$string_output_adapter@D@__crt_stdio_output@@V?$format_validation_base@DV?$string_output_adapter@D@__crt_stdio_output@@@2@@__crt_stdio_output@@AAEXII_N@Z 10027b3e f i libucrt:output.obj
 0001:00026bcd       ??$type_case_integer_parse_into_buffer@I@?$output_processor@DV?$string_output_adapter@D@__crt_stdio_output@@V?$positional_parameter_base@DV?$string_output_adapter@D@__crt_stdio_output@@@2@@__crt_stdio_output@@AAEXII_N@Z 10027bcd f i libucrt:output.obj
 0001:00026c5c       ??$type_case_integer_parse_into_buffer@I@?$output_processor@DV?$string_output_adapter@D@__crt_stdio_output@@V?$standard_base@DV?$string_output_adapter@D@__crt_stdio_output@@@2@@__crt_stdio_output@@AAEXII_N@Z 10027c5c f i libucrt:output.obj
 0001:00026ceb       ??$type_case_integer_parse_into_buffer@I@?$output_processor@_WV?$stream_output_adapter@_W@__crt_stdio_output@@V?$format_validation_base@_WV?$stream_output_adapter@_W@__crt_stdio_output@@@2@@__crt_stdio_output@@AAEXII_N@Z 10027ceb f i libucrt:output.obj
 0001:00026d8b       ??$type_case_integer_parse_into_buffer@I@?$output_processor@_WV?$stream_output_adapter@_W@__crt_stdio_output@@V?$positional_parameter_base@_WV?$stream_output_adapter@_W@__crt_stdio_output@@@2@@__crt_stdio_output@@AAEXII_N@Z 10027d8b f i libucrt:output.obj
 0001:00026e2b       ??$type_case_integer_parse_into_buffer@I@?$output_processor@_WV?$stream_output_adapter@_W@__crt_stdio_output@@V?$standard_base@_WV?$stream_output_adapter@_W@__crt_stdio_output@@@2@@__crt_stdio_output@@AAEXII_N@Z 10027e2b f i libucrt:output.obj
 0001:00026ecb       ??$type_case_integer_parse_into_buffer@I@?$output_processor@_WV?$string_output_adapter@_W@__crt_stdio_output@@V?$format_validation_base@_WV?$string_output_adapter@_W@__crt_stdio_output@@@2@@__crt_stdio_output@@AAEXII_N@Z 10027ecb f i libucrt:output.obj
 0001:00026f6b       ??$type_case_integer_parse_into_buffer@I@?$output_processor@_WV?$string_output_adapter@_W@__crt_stdio_output@@V?$positional_parameter_base@_WV?$string_output_adapter@_W@__crt_stdio_output@@@2@@__crt_stdio_output@@AAEXII_N@Z 10027f6b f i libucrt:output.obj
 0001:0002700b       ??$type_case_integer_parse_into_buffer@I@?$output_processor@_WV?$string_output_adapter@_W@__crt_stdio_output@@V?$standard_base@_WV?$string_output_adapter@_W@__crt_stdio_output@@@2@@__crt_stdio_output@@AAEXII_N@Z 1002800b f i libucrt:output.obj
 0001:000270ab       ??$type_case_integer_parse_into_buffer@_K@?$output_processor@DV?$stream_output_adapter@D@__crt_stdio_output@@V?$format_validation_base@DV?$stream_output_adapter@D@__crt_stdio_output@@@2@@__crt_stdio_output@@AAEX_KI_N@Z 100280ab f i libucrt:output.obj
 0001:0002715d       ??$type_case_integer_parse_into_buffer@_K@?$output_processor@DV?$stream_output_adapter@D@__crt_stdio_output@@V?$positional_parameter_base@DV?$stream_output_adapter@D@__crt_stdio_output@@@2@@__crt_stdio_output@@AAEX_KI_N@Z 1002815d f i libucrt:output.obj
 0001:0002720f       ??$type_case_integer_parse_into_buffer@_K@?$output_processor@DV?$stream_output_adapter@D@__crt_stdio_output@@V?$standard_base@DV?$stream_output_adapter@D@__crt_stdio_output@@@2@@__crt_stdio_output@@AAEX_KI_N@Z 1002820f f i libucrt:output.obj
 0001:000272c1       ??$type_case_integer_parse_into_buffer@_K@?$output_processor@DV?$string_output_adapter@D@__crt_stdio_output@@V?$format_validation_base@DV?$string_output_adapter@D@__crt_stdio_output@@@2@@__crt_stdio_output@@AAEX_KI_N@Z 100282c1 f i libucrt:output.obj
 0001:00027373       ??$type_case_integer_parse_into_buffer@_K@?$output_processor@DV?$string_output_adapter@D@__crt_stdio_output@@V?$positional_parameter_base@DV?$string_output_adapter@D@__crt_stdio_output@@@2@@__crt_stdio_output@@AAEX_KI_N@Z 10028373 f i libucrt:output.obj
 0001:00027425       ??$type_case_integer_parse_into_buffer@_K@?$output_processor@DV?$string_output_adapter@D@__crt_stdio_output@@V?$standard_base@DV?$string_output_adapter@D@__crt_stdio_output@@@2@@__crt_stdio_output@@AAEX_KI_N@Z 10028425 f i libucrt:output.obj
 0001:000274d7       ??$type_case_integer_parse_into_buffer@_K@?$output_processor@_WV?$stream_output_adapter@_W@__crt_stdio_output@@V?$format_validation_base@_WV?$stream_output_adapter@_W@__crt_stdio_output@@@2@@__crt_stdio_output@@AAEX_KI_N@Z 100284d7 f i libucrt:output.obj
 0001:0002759a       ??$type_case_integer_parse_into_buffer@_K@?$output_processor@_WV?$stream_output_adapter@_W@__crt_stdio_output@@V?$positional_parameter_base@_WV?$stream_output_adapter@_W@__crt_stdio_output@@@2@@__crt_stdio_output@@AAEX_KI_N@Z 1002859a f i libucrt:output.obj
 0001:0002765d       ??$type_case_integer_parse_into_buffer@_K@?$output_processor@_WV?$stream_output_adapter@_W@__crt_stdio_output@@V?$standard_base@_WV?$stream_output_adapter@_W@__crt_stdio_output@@@2@@__crt_stdio_output@@AAEX_KI_N@Z 1002865d f i libucrt:output.obj
 0001:00027720       ??$type_case_integer_parse_into_buffer@_K@?$output_processor@_WV?$string_output_adapter@_W@__crt_stdio_output@@V?$format_validation_base@_WV?$string_output_adapter@_W@__crt_stdio_output@@@2@@__crt_stdio_output@@AAEX_KI_N@Z 10028720 f i libucrt:output.obj
 0001:000277e3       ??$type_case_integer_parse_into_buffer@_K@?$output_processor@_WV?$string_output_adapter@_W@__crt_stdio_output@@V?$positional_parameter_base@_WV?$string_output_adapter@_W@__crt_stdio_output@@@2@@__crt_stdio_output@@AAEX_KI_N@Z 100287e3 f i libucrt:output.obj
 0001:000278a6       ??$type_case_integer_parse_into_buffer@_K@?$output_processor@_WV?$string_output_adapter@_W@__crt_stdio_output@@V?$standard_base@_WV?$string_output_adapter@_W@__crt_stdio_output@@@2@@__crt_stdio_output@@AAEX_KI_N@Z 100288a6 f i libucrt:output.obj
 0001:00027969       ??$write_multiple_characters@V?$stream_output_adapter@D@__crt_stdio_output@@D@__crt_stdio_output@@YAXABV?$stream_output_adapter@D@0@DHQAH@Z 10028969 f i libucrt:output.obj
 0001:000279b2       ??$write_multiple_characters@V?$stream_output_adapter@_W@__crt_stdio_output@@D@__crt_stdio_output@@YAXABV?$stream_output_adapter@_W@0@DHQAH@Z 100289b2 f i libucrt:output.obj
 0001:00027a02       ??$write_multiple_characters@V?$string_output_adapter@D@__crt_stdio_output@@D@__crt_stdio_output@@YAXABV?$string_output_adapter@D@0@DHQAH@Z 10028a02 f i libucrt:output.obj
 0001:00027a39       ??$write_multiple_characters@V?$string_output_adapter@_W@__crt_stdio_output@@D@__crt_stdio_output@@YAXABV?$string_output_adapter@_W@0@DHQAH@Z 10028a39 f i libucrt:output.obj
 0001:00027caa       ??0?$common_data@D@__crt_stdio_output@@IAE@XZ 10028caa f i libucrt:output.obj
 0001:00027d02       ??0?$common_data@_W@__crt_stdio_output@@IAE@XZ 10028d02 f i libucrt:output.obj
 0001:00027d61       ??0?$output_adapter_data@DV?$stream_output_adapter@D@__crt_stdio_output@@@__crt_stdio_output@@IAE@ABV?$stream_output_adapter@D@1@_KQBDQAU__crt_locale_pointers@@QAD@Z 10028d61 f i libucrt:output.obj
 0001:00027dac       ??0?$output_adapter_data@DV?$string_output_adapter@D@__crt_stdio_output@@@__crt_stdio_output@@IAE@ABV?$string_output_adapter@D@1@_KQBDQAU__crt_locale_pointers@@QAD@Z 10028dac f i libucrt:output.obj
 0001:00027df7       ??0?$output_adapter_data@_WV?$stream_output_adapter@_W@__crt_stdio_output@@@__crt_stdio_output@@IAE@ABV?$stream_output_adapter@_W@1@_KQB_WQAU__crt_locale_pointers@@QAD@Z 10028df7 f i libucrt:output.obj
 0001:00027e42       ??0?$output_adapter_data@_WV?$string_output_adapter@_W@__crt_stdio_output@@@__crt_stdio_output@@IAE@ABV?$string_output_adapter@_W@1@_KQB_WQAU__crt_locale_pointers@@QAD@Z 10028e42 f i libucrt:output.obj
 0001:00027e8d       ??0?$output_processor@DV?$stream_output_adapter@D@__crt_stdio_output@@V?$format_validation_base@DV?$stream_output_adapter@D@__crt_stdio_output@@@2@@__crt_stdio_output@@QAE@ABV?$stream_output_adapter@D@1@_KQBDQAU__crt_locale_pointers@@QAD@Z 10028e8d f i libucrt:output.obj
 0001:00027ec5       ??0?$output_processor@DV?$stream_output_adapter@D@__crt_stdio_output@@V?$positional_parameter_base@DV?$stream_output_adapter@D@__crt_stdio_output@@@2@@__crt_stdio_output@@QAE@ABV?$stream_output_adapter@D@1@_KQBDQAU__crt_locale_pointers@@QAD@Z 10028ec5 f i libucrt:output.obj
 0001:00027ef5       ??0?$output_processor@DV?$stream_output_adapter@D@__crt_stdio_output@@V?$standard_base@DV?$stream_output_adapter@D@__crt_stdio_output@@@2@@__crt_stdio_output@@QAE@ABV?$stream_output_adapter@D@1@_KQBDQAU__crt_locale_pointers@@QAD@Z 10028ef5 f i libucrt:output.obj
 0001:00027f2d       ??0?$output_processor@DV?$string_output_adapter@D@__crt_stdio_output@@V?$format_validation_base@DV?$string_output_adapter@D@__crt_stdio_output@@@2@@__crt_stdio_output@@QAE@ABV?$string_output_adapter@D@1@_KQBDQAU__crt_locale_pointers@@QAD@Z 10028f2d f i libucrt:output.obj
 0001:00027f65       ??0?$output_processor@DV?$string_output_adapter@D@__crt_stdio_output@@V?$positional_parameter_base@DV?$string_output_adapter@D@__crt_stdio_output@@@2@@__crt_stdio_output@@QAE@ABV?$string_output_adapter@D@1@_KQBDQAU__crt_locale_pointers@@QAD@Z 10028f65 f i libucrt:output.obj
 0001:00027f95       ??0?$output_processor@DV?$string_output_adapter@D@__crt_stdio_output@@V?$standard_base@DV?$string_output_adapter@D@__crt_stdio_output@@@2@@__crt_stdio_output@@QAE@ABV?$string_output_adapter@D@1@_KQBDQAU__crt_locale_pointers@@QAD@Z 10028f95 f i libucrt:output.obj
 0001:00027fcd       ??0?$output_processor@_WV?$stream_output_adapter@_W@__crt_stdio_output@@V?$format_validation_base@_WV?$stream_output_adapter@_W@__crt_stdio_output@@@2@@__crt_stdio_output@@QAE@ABV?$stream_output_adapter@_W@1@_KQB_WQAU__crt_locale_pointers@@QAD@Z 10028fcd f i libucrt:output.obj
 0001:00028005       ??0?$output_processor@_WV?$stream_output_adapter@_W@__crt_stdio_output@@V?$positional_parameter_base@_WV?$stream_output_adapter@_W@__crt_stdio_output@@@2@@__crt_stdio_output@@QAE@ABV?$stream_output_adapter@_W@1@_KQB_WQAU__crt_locale_pointers@@QAD@Z 10029005 f i libucrt:output.obj
 0001:00028035       ??0?$output_processor@_WV?$stream_output_adapter@_W@__crt_stdio_output@@V?$standard_base@_WV?$stream_output_adapter@_W@__crt_stdio_output@@@2@@__crt_stdio_output@@QAE@ABV?$stream_output_adapter@_W@1@_KQB_WQAU__crt_locale_pointers@@QAD@Z 10029035 f i libucrt:output.obj
 0001:0002806d       ??0?$output_processor@_WV?$string_output_adapter@_W@__crt_stdio_output@@V?$format_validation_base@_WV?$string_output_adapter@_W@__crt_stdio_output@@@2@@__crt_stdio_output@@QAE@ABV?$string_output_adapter@_W@1@_KQB_WQAU__crt_locale_pointers@@QAD@Z 1002906d f i libucrt:output.obj
 0001:000280a5       ??0?$output_processor@_WV?$string_output_adapter@_W@__crt_stdio_output@@V?$positional_parameter_base@_WV?$string_output_adapter@_W@__crt_stdio_output@@@2@@__crt_stdio_output@@QAE@ABV?$string_output_adapter@_W@1@_KQB_WQAU__crt_locale_pointers@@QAD@Z 100290a5 f i libucrt:output.obj
 0001:000280d5       ??0?$output_processor@_WV?$string_output_adapter@_W@__crt_stdio_output@@V?$standard_base@_WV?$string_output_adapter@_W@__crt_stdio_output@@@2@@__crt_stdio_output@@QAE@ABV?$string_output_adapter@_W@1@_KQB_WQAU__crt_locale_pointers@@QAD@Z 100290d5 f i libucrt:output.obj
 0001:0002810d       ??0?$stream_output_adapter@D@__crt_stdio_output@@QAE@QAU_iobuf@@@Z 1002910d f i libucrt:output.obj
 0001:00028121       ??0?$stream_output_adapter@_W@__crt_stdio_output@@QAE@QAU_iobuf@@@Z 10029121 f i libucrt:output.obj
 0001:00028135       ??0?$string_output_adapter@D@__crt_stdio_output@@QAE@QAU?$string_output_adapter_context@D@1@@Z 10029135 f i libucrt:output.obj
 0001:00028149       ??0?$string_output_adapter@_W@__crt_stdio_output@@QAE@QAU?$string_output_adapter_context@_W@1@@Z 10029149 f i libucrt:output.obj
 0001:0002815d       ??0__crt_deferred_errno_cache@@QAE@XZ 1002915d f i libucrt:output.obj
 0001:00028163       ??0__crt_errno_guard@@QAE@QAH@Z 10029163 f i libucrt:output.obj
 0001:00028181       ??0formatting_buffer@__crt_stdio_output@@QAE@XZ 10029181 f i libucrt:output.obj
 0001:00028196       ??1?$common_data@D@__crt_stdio_output@@QAE@XZ 10029196 f i libucrt:output.obj
 0001:000281a0       ??1?$common_data@_W@__crt_stdio_output@@QAE@XZ 100291a0 f i libucrt:output.obj
 0001:000281aa       ??1?$format_validation_base@DV?$stream_output_adapter@D@__crt_stdio_output@@@__crt_stdio_output@@QAE@XZ 100291aa f i libucrt:output.obj
 0001:000281b4       ??1?$format_validation_base@DV?$string_output_adapter@D@__crt_stdio_output@@@__crt_stdio_output@@QAE@XZ 100291b4 f i libucrt:output.obj
 0001:000281be       ??1?$format_validation_base@_WV?$stream_output_adapter@_W@__crt_stdio_output@@@__crt_stdio_output@@QAE@XZ 100291be f i libucrt:output.obj
 0001:000281c8       ??1?$format_validation_base@_WV?$string_output_adapter@_W@__crt_stdio_output@@@__crt_stdio_output@@QAE@XZ 100291c8 f i libucrt:output.obj
 0001:000281d2       ??1?$output_adapter_data@DV?$stream_output_adapter@D@__crt_stdio_output@@@__crt_stdio_output@@QAE@XZ 100291d2 f i libucrt:output.obj
 0001:000281dc       ??1?$output_adapter_data@DV?$string_output_adapter@D@__crt_stdio_output@@@__crt_stdio_output@@QAE@XZ 100291dc f i libucrt:output.obj
 0001:000281e6       ??1?$output_adapter_data@_WV?$stream_output_adapter@_W@__crt_stdio_output@@@__crt_stdio_output@@QAE@XZ 100291e6 f i libucrt:output.obj
 0001:000281f0       ??1?$output_adapter_data@_WV?$string_output_adapter@_W@__crt_stdio_output@@@__crt_stdio_output@@QAE@XZ 100291f0 f i libucrt:output.obj
 0001:000281fa       ??1?$output_processor@DV?$stream_output_adapter@D@__crt_stdio_output@@V?$format_validation_base@DV?$stream_output_adapter@D@__crt_stdio_output@@@2@@__crt_stdio_output@@QAE@XZ 100291fa f i libucrt:output.obj
 0001:00028204       ??1?$output_processor@DV?$stream_output_adapter@D@__crt_stdio_output@@V?$positional_parameter_base@DV?$stream_output_adapter@D@__crt_stdio_output@@@2@@__crt_stdio_output@@QAE@XZ 10029204 f i libucrt:output.obj
 0001:0002820e       ??1?$output_processor@DV?$stream_output_adapter@D@__crt_stdio_output@@V?$standard_base@DV?$stream_output_adapter@D@__crt_stdio_output@@@2@@__crt_stdio_output@@QAE@XZ 1002920e f i libucrt:output.obj
 0001:00028218       ??1?$output_processor@DV?$string_output_adapter@D@__crt_stdio_output@@V?$format_validation_base@DV?$string_output_adapter@D@__crt_stdio_output@@@2@@__crt_stdio_output@@QAE@XZ 10029218 f i libucrt:output.obj
 0001:00028222       ??1?$output_processor@DV?$string_output_adapter@D@__crt_stdio_output@@V?$positional_parameter_base@DV?$string_output_adapter@D@__crt_stdio_output@@@2@@__crt_stdio_output@@QAE@XZ 10029222 f i libucrt:output.obj
 0001:0002822c       ??1?$output_processor@DV?$string_output_adapter@D@__crt_stdio_output@@V?$standard_base@DV?$string_output_adapter@D@__crt_stdio_output@@@2@@__crt_stdio_output@@QAE@XZ 1002922c f i libucrt:output.obj
 0001:00028236       ??1?$output_processor@_WV?$stream_output_adapter@_W@__crt_stdio_output@@V?$format_validation_base@_WV?$stream_output_adapter@_W@__crt_stdio_output@@@2@@__crt_stdio_output@@QAE@XZ 10029236 f i libucrt:output.obj
 0001:00028240       ??1?$output_processor@_WV?$stream_output_adapter@_W@__crt_stdio_output@@V?$positional_parameter_base@_WV?$stream_output_adapter@_W@__crt_stdio_output@@@2@@__crt_stdio_output@@QAE@XZ 10029240 f i libucrt:output.obj
 0001:0002824a       ??1?$output_processor@_WV?$stream_output_adapter@_W@__crt_stdio_output@@V?$standard_base@_WV?$stream_output_adapter@_W@__crt_stdio_output@@@2@@__crt_stdio_output@@QAE@XZ 1002924a f i libucrt:output.obj
 0001:00028254       ??1?$output_processor@_WV?$string_output_adapter@_W@__crt_stdio_output@@V?$format_validation_base@_WV?$string_output_adapter@_W@__crt_stdio_output@@@2@@__crt_stdio_output@@QAE@XZ 10029254 f i libucrt:output.obj
 0001:0002825e       ??1?$output_processor@_WV?$string_output_adapter@_W@__crt_stdio_output@@V?$positional_parameter_base@_WV?$string_output_adapter@_W@__crt_stdio_output@@@2@@__crt_stdio_output@@QAE@XZ 1002925e f i libucrt:output.obj
 0001:00028268       ??1?$output_processor@_WV?$string_output_adapter@_W@__crt_stdio_output@@V?$standard_base@_WV?$string_output_adapter@_W@__crt_stdio_output@@@2@@__crt_stdio_output@@QAE@XZ 10029268 f i libucrt:output.obj
 0001:00028272       ??1?$positional_parameter_base@DV?$stream_output_adapter@D@__crt_stdio_output@@@__crt_stdio_output@@QAE@XZ 10029272 f i libucrt:output.obj
 0001:0002827c       ??1?$positional_parameter_base@DV?$string_output_adapter@D@__crt_stdio_output@@@__crt_stdio_output@@QAE@XZ 1002927c f i libucrt:output.obj
 0001:00028286       ??1?$positional_parameter_base@_WV?$stream_output_adapter@_W@__crt_stdio_output@@@__crt_stdio_output@@QAE@XZ 10029286 f i libucrt:output.obj
 0001:00028290       ??1?$positional_parameter_base@_WV?$string_output_adapter@_W@__crt_stdio_output@@@__crt_stdio_output@@QAE@XZ 10029290 f i libucrt:output.obj
 0001:0002829a       ??1?$standard_base@DV?$stream_output_adapter@D@__crt_stdio_output@@@__crt_stdio_output@@QAE@XZ 1002929a f i libucrt:output.obj
 0001:000282a4       ??1?$standard_base@DV?$string_output_adapter@D@__crt_stdio_output@@@__crt_stdio_output@@QAE@XZ 100292a4 f i libucrt:output.obj
 0001:000282ae       ??1?$standard_base@_WV?$stream_output_adapter@_W@__crt_stdio_output@@@__crt_stdio_output@@QAE@XZ 100292ae f i libucrt:output.obj
 0001:000282b8       ??1?$standard_base@_WV?$string_output_adapter@_W@__crt_stdio_output@@@__crt_stdio_output@@QAE@XZ 100292b8 f i libucrt:output.obj
 0001:000282c2       ??1__crt_errno_guard@@QAE@XZ 100292c2 f i libucrt:output.obj
 0001:000282d7       ??1formatting_buffer@__crt_stdio_output@@QAE@XZ 100292d7 f i libucrt:output.obj
 0001:000282f7       ??4?$__crt_unique_heap_ptr@DU__crt_internal_free_policy@@@@QAEAAV0@$$QAV0@@Z 100292f7 f i libucrt:output.obj
 0001:000289d2       ?adjust_hexit@?$output_processor@DV?$stream_output_adapter@D@__crt_stdio_output@@V?$format_validation_base@DV?$stream_output_adapter@D@__crt_stdio_output@@@2@@__crt_stdio_output@@CADH_N@Z 100299d2 f i libucrt:output.obj
 0001:000289eb       ?adjust_hexit@?$output_processor@DV?$stream_output_adapter@D@__crt_stdio_output@@V?$positional_parameter_base@DV?$stream_output_adapter@D@__crt_stdio_output@@@2@@__crt_stdio_output@@CADH_N@Z 100299eb f i libucrt:output.obj
 0001:00028a04       ?adjust_hexit@?$output_processor@DV?$stream_output_adapter@D@__crt_stdio_output@@V?$standard_base@DV?$stream_output_adapter@D@__crt_stdio_output@@@2@@__crt_stdio_output@@CADH_N@Z 10029a04 f i libucrt:output.obj
 0001:00028a1d       ?adjust_hexit@?$output_processor@DV?$string_output_adapter@D@__crt_stdio_output@@V?$format_validation_base@DV?$string_output_adapter@D@__crt_stdio_output@@@2@@__crt_stdio_output@@CADH_N@Z 10029a1d f i libucrt:output.obj
 0001:00028a36       ?adjust_hexit@?$output_processor@DV?$string_output_adapter@D@__crt_stdio_output@@V?$positional_parameter_base@DV?$string_output_adapter@D@__crt_stdio_output@@@2@@__crt_stdio_output@@CADH_N@Z 10029a36 f i libucrt:output.obj
 0001:00028a4f       ?adjust_hexit@?$output_processor@DV?$string_output_adapter@D@__crt_stdio_output@@V?$standard_base@DV?$string_output_adapter@D@__crt_stdio_output@@@2@@__crt_stdio_output@@CADH_N@Z 10029a4f f i libucrt:output.obj
 0001:00028a68       ?adjust_hexit@?$output_processor@_WV?$stream_output_adapter@_W@__crt_stdio_output@@V?$format_validation_base@_WV?$stream_output_adapter@_W@__crt_stdio_output@@@2@@__crt_stdio_output@@CADH_N@Z 10029a68 f i libucrt:output.obj
 0001:00028a81       ?adjust_hexit@?$output_processor@_WV?$stream_output_adapter@_W@__crt_stdio_output@@V?$positional_parameter_base@_WV?$stream_output_adapter@_W@__crt_stdio_output@@@2@@__crt_stdio_output@@CADH_N@Z 10029a81 f i libucrt:output.obj
 0001:00028a9a       ?adjust_hexit@?$output_processor@_WV?$stream_output_adapter@_W@__crt_stdio_output@@V?$standard_base@_WV?$stream_output_adapter@_W@__crt_stdio_output@@@2@@__crt_stdio_output@@CADH_N@Z 10029a9a f i libucrt:output.obj
 0001:00028ab3       ?adjust_hexit@?$output_processor@_WV?$string_output_adapter@_W@__crt_stdio_output@@V?$format_validation_base@_WV?$string_output_adapter@_W@__crt_stdio_output@@@2@@__crt_stdio_output@@CADH_N@Z 10029ab3 f i libucrt:output.obj
 0001:00028acc       ?adjust_hexit@?$output_processor@_WV?$string_output_adapter@_W@__crt_stdio_output@@V?$positional_parameter_base@_WV?$string_output_adapter@_W@__crt_stdio_output@@@2@@__crt_stdio_output@@CADH_N@Z 10029acc f i libucrt:output.obj
 0001:00028ae5       ?adjust_hexit@?$output_processor@_WV?$string_output_adapter@_W@__crt_stdio_output@@V?$standard_base@_WV?$string_output_adapter@_W@__crt_stdio_output@@@2@@__crt_stdio_output@@CADH_N@Z 10029ae5 f i libucrt:output.obj
 0001:00028afe       ?advance_to_next_pass@?$positional_parameter_base@DV?$stream_output_adapter@D@__crt_stdio_output@@@__crt_stdio_output@@IAE_NXZ 10029afe f i libucrt:output.obj
 0001:00028b5d       ?advance_to_next_pass@?$positional_parameter_base@DV?$string_output_adapter@D@__crt_stdio_output@@@__crt_stdio_output@@IAE_NXZ 10029b5d f i libucrt:output.obj
 0001:00028bbc       ?advance_to_next_pass@?$positional_parameter_base@_WV?$stream_output_adapter@_W@__crt_stdio_output@@@__crt_stdio_output@@IAE_NXZ 10029bbc f i libucrt:output.obj
 0001:00028c1b       ?advance_to_next_pass@?$positional_parameter_base@_WV?$string_output_adapter@_W@__crt_stdio_output@@@__crt_stdio_output@@IAE_NXZ 10029c1b f i libucrt:output.obj
 0001:00028c7a       ?advance_to_next_pass@?$standard_base@DV?$stream_output_adapter@D@__crt_stdio_output@@@__crt_stdio_output@@IAE_NXZ 10029c7a f i libucrt:output.obj
 0001:00028c8f       ?advance_to_next_pass@?$standard_base@DV?$string_output_adapter@D@__crt_stdio_output@@@__crt_stdio_output@@IAE_NXZ 10029c8f f i libucrt:output.obj
 0001:00028ca4       ?advance_to_next_pass@?$standard_base@_WV?$stream_output_adapter@_W@__crt_stdio_output@@@__crt_stdio_output@@IAE_NXZ 10029ca4 f i libucrt:output.obj
 0001:00028cb9       ?advance_to_next_pass@?$standard_base@_WV?$string_output_adapter@_W@__crt_stdio_output@@@__crt_stdio_output@@IAE_NXZ 10029cb9 f i libucrt:output.obj
 0001:00028cce       ?crop_zeroes@__crt_stdio_output@@YAXPADQAU__crt_locale_pointers@@@Z 10029cce f i libucrt:output.obj
 0001:00028d46       ?find_next_state@?$output_processor@DV?$stream_output_adapter@D@__crt_stdio_output@@V?$format_validation_base@DV?$stream_output_adapter@D@__crt_stdio_output@@@2@@__crt_stdio_output@@ABE?AW4state@2@DW432@@Z 10029d46 f i libucrt:output.obj
 0001:00028d98       ?find_next_state@?$output_processor@DV?$stream_output_adapter@D@__crt_stdio_output@@V?$positional_parameter_base@DV?$stream_output_adapter@D@__crt_stdio_output@@@2@@__crt_stdio_output@@ABE?AW4state@2@DW432@@Z 10029d98 f i libucrt:output.obj
 0001:00028dea       ?find_next_state@?$output_processor@DV?$stream_output_adapter@D@__crt_stdio_output@@V?$standard_base@DV?$stream_output_adapter@D@__crt_stdio_output@@@2@@__crt_stdio_output@@ABE?AW4state@2@DW432@@Z 10029dea f i libucrt:output.obj
 0001:00028e38       ?find_next_state@?$output_processor@DV?$string_output_adapter@D@__crt_stdio_output@@V?$format_validation_base@DV?$string_output_adapter@D@__crt_stdio_output@@@2@@__crt_stdio_output@@ABE?AW4state@2@DW432@@Z 10029e38 f i libucrt:output.obj
 0001:00028e8a       ?find_next_state@?$output_processor@DV?$string_output_adapter@D@__crt_stdio_output@@V?$positional_parameter_base@DV?$string_output_adapter@D@__crt_stdio_output@@@2@@__crt_stdio_output@@ABE?AW4state@2@DW432@@Z 10029e8a f i libucrt:output.obj
 0001:00028edc       ?find_next_state@?$output_processor@DV?$string_output_adapter@D@__crt_stdio_output@@V?$standard_base@DV?$string_output_adapter@D@__crt_stdio_output@@@2@@__crt_stdio_output@@ABE?AW4state@2@DW432@@Z 10029edc f i libucrt:output.obj
 0001:00028f2a       ?find_next_state@?$output_processor@_WV?$stream_output_adapter@_W@__crt_stdio_output@@V?$format_validation_base@_WV?$stream_output_adapter@_W@__crt_stdio_output@@@2@@__crt_stdio_output@@ABE?AW4state@2@_WW432@@Z 10029f2a f i libucrt:output.obj
 0001:00028f7f       ?find_next_state@?$output_processor@_WV?$stream_output_adapter@_W@__crt_stdio_output@@V?$positional_parameter_base@_WV?$stream_output_adapter@_W@__crt_stdio_output@@@2@@__crt_stdio_output@@ABE?AW4state@2@_WW432@@Z 10029f7f f i libucrt:output.obj
 0001:00028fd4       ?find_next_state@?$output_processor@_WV?$stream_output_adapter@_W@__crt_stdio_output@@V?$standard_base@_WV?$stream_output_adapter@_W@__crt_stdio_output@@@2@@__crt_stdio_output@@ABE?AW4state@2@_WW432@@Z 10029fd4 f i libucrt:output.obj
 0001:00029025       ?find_next_state@?$output_processor@_WV?$string_output_adapter@_W@__crt_stdio_output@@V?$format_validation_base@_WV?$string_output_adapter@_W@__crt_stdio_output@@@2@@__crt_stdio_output@@ABE?AW4state@2@_WW432@@Z 1002a025 f i libucrt:output.obj
 0001:0002907a       ?find_next_state@?$output_processor@_WV?$string_output_adapter@_W@__crt_stdio_output@@V?$positional_parameter_base@_WV?$string_output_adapter@_W@__crt_stdio_output@@@2@@__crt_stdio_output@@ABE?AW4state@2@_WW432@@Z 1002a07a f i libucrt:output.obj
 0001:000290cf       ?find_next_state@?$output_processor@_WV?$string_output_adapter@_W@__crt_stdio_output@@V?$standard_base@_WV?$string_output_adapter@_W@__crt_stdio_output@@@2@@__crt_stdio_output@@ABE?AW4state@2@_WW432@@Z 1002a0cf f i libucrt:output.obj
 0001:00029120       ?force_decimal_point@__crt_stdio_output@@YAXPADQAU__crt_locale_pointers@@@Z 1002a120 f i libucrt:output.obj
 0001:00029193       ?get@__crt_deferred_errno_cache@@QAEAAHXZ 1002a193 f i libucrt:output.obj
 0001:000291ac       ?get_parameter_type@?$positional_parameter_base@DV?$stream_output_adapter@D@__crt_stdio_output@@@__crt_stdio_output@@CA?AW4parameter_type@12@F@Z 1002a1ac f i libucrt:output.obj
 0001:000291b0       ?get_parameter_type@?$positional_parameter_base@DV?$stream_output_adapter@D@__crt_stdio_output@@@__crt_stdio_output@@CA?AW4parameter_type@12@G@Z 1002a1b0 f i libucrt:output.obj
 0001:000291b4       ?get_parameter_type@?$positional_parameter_base@DV?$stream_output_adapter@D@__crt_stdio_output@@@__crt_stdio_output@@CA?AW4parameter_type@12@H@Z 1002a1b4 f i libucrt:output.obj
 0001:000291b8       ?get_parameter_type@?$positional_parameter_base@DV?$stream_output_adapter@D@__crt_stdio_output@@@__crt_stdio_output@@CA?AW4parameter_type@12@I@Z 1002a1b8 f i libucrt:output.obj
 0001:000291bc       ?get_parameter_type@?$positional_parameter_base@DV?$stream_output_adapter@D@__crt_stdio_output@@@__crt_stdio_output@@CA?AW4parameter_type@12@U_CRT_DOUBLE@@@Z 1002a1bc f i libucrt:output.obj
 0001:000291c0       ?get_parameter_type@?$positional_parameter_base@DV?$stream_output_adapter@D@__crt_stdio_output@@@__crt_stdio_output@@CA?AW4parameter_type@12@_J@Z 1002a1c0 f i libucrt:output.obj
 0001:000291c4       ?get_parameter_type@?$positional_parameter_base@DV?$stream_output_adapter@D@__crt_stdio_output@@@__crt_stdio_output@@CA?AW4parameter_type@12@_K@Z 1002a1c4 f i libucrt:output.obj
 0001:000291c8       ?get_parameter_type@?$positional_parameter_base@DV?$stream_output_adapter@D@__crt_stdio_output@@@__crt_stdio_output@@CA?AW4parameter_type@12@_W@Z 1002a1c8 f i libucrt:output.obj
 0001:000291cc       ?get_parameter_type@?$positional_parameter_base@DV?$string_output_adapter@D@__crt_stdio_output@@@__crt_stdio_output@@CA?AW4parameter_type@12@F@Z 1002a1cc f i libucrt:output.obj
 0001:000291d0       ?get_parameter_type@?$positional_parameter_base@DV?$string_output_adapter@D@__crt_stdio_output@@@__crt_stdio_output@@CA?AW4parameter_type@12@G@Z 1002a1d0 f i libucrt:output.obj
 0001:000291d4       ?get_parameter_type@?$positional_parameter_base@DV?$string_output_adapter@D@__crt_stdio_output@@@__crt_stdio_output@@CA?AW4parameter_type@12@H@Z 1002a1d4 f i libucrt:output.obj
 0001:000291d8       ?get_parameter_type@?$positional_parameter_base@DV?$string_output_adapter@D@__crt_stdio_output@@@__crt_stdio_output@@CA?AW4parameter_type@12@I@Z 1002a1d8 f i libucrt:output.obj
 0001:000291dc       ?get_parameter_type@?$positional_parameter_base@DV?$string_output_adapter@D@__crt_stdio_output@@@__crt_stdio_output@@CA?AW4parameter_type@12@U_CRT_DOUBLE@@@Z 1002a1dc f i libucrt:output.obj
 0001:000291e0       ?get_parameter_type@?$positional_parameter_base@DV?$string_output_adapter@D@__crt_stdio_output@@@__crt_stdio_output@@CA?AW4parameter_type@12@_J@Z 1002a1e0 f i libucrt:output.obj
 0001:000291e4       ?get_parameter_type@?$positional_parameter_base@DV?$string_output_adapter@D@__crt_stdio_output@@@__crt_stdio_output@@CA?AW4parameter_type@12@_K@Z 1002a1e4 f i libucrt:output.obj
 0001:000291e8       ?get_parameter_type@?$positional_parameter_base@DV?$string_output_adapter@D@__crt_stdio_output@@@__crt_stdio_output@@CA?AW4parameter_type@12@_W@Z 1002a1e8 f i libucrt:output.obj
 0001:000291ec       ?get_parameter_type@?$positional_parameter_base@_WV?$stream_output_adapter@_W@__crt_stdio_output@@@__crt_stdio_output@@CA?AW4parameter_type@12@F@Z 1002a1ec f i libucrt:output.obj
 0001:000291f0       ?get_parameter_type@?$positional_parameter_base@_WV?$stream_output_adapter@_W@__crt_stdio_output@@@__crt_stdio_output@@CA?AW4parameter_type@12@G@Z 1002a1f0 f i libucrt:output.obj
 0001:000291f4       ?get_parameter_type@?$positional_parameter_base@_WV?$stream_output_adapter@_W@__crt_stdio_output@@@__crt_stdio_output@@CA?AW4parameter_type@12@H@Z 1002a1f4 f i libucrt:output.obj
 0001:000291f8       ?get_parameter_type@?$positional_parameter_base@_WV?$stream_output_adapter@_W@__crt_stdio_output@@@__crt_stdio_output@@CA?AW4parameter_type@12@I@Z 1002a1f8 f i libucrt:output.obj
 0001:000291fc       ?get_parameter_type@?$positional_parameter_base@_WV?$stream_output_adapter@_W@__crt_stdio_output@@@__crt_stdio_output@@CA?AW4parameter_type@12@U_CRT_DOUBLE@@@Z 1002a1fc f i libucrt:output.obj
 0001:00029200       ?get_parameter_type@?$positional_parameter_base@_WV?$stream_output_adapter@_W@__crt_stdio_output@@@__crt_stdio_output@@CA?AW4parameter_type@12@_J@Z 1002a200 f i libucrt:output.obj
 0001:00029204       ?get_parameter_type@?$positional_parameter_base@_WV?$stream_output_adapter@_W@__crt_stdio_output@@@__crt_stdio_output@@CA?AW4parameter_type@12@_K@Z 1002a204 f i libucrt:output.obj
 0001:00029208       ?get_parameter_type@?$positional_parameter_base@_WV?$stream_output_adapter@_W@__crt_stdio_output@@@__crt_stdio_output@@CA?AW4parameter_type@12@_W@Z 1002a208 f i libucrt:output.obj
 0001:0002920c       ?get_parameter_type@?$positional_parameter_base@_WV?$string_output_adapter@_W@__crt_stdio_output@@@__crt_stdio_output@@CA?AW4parameter_type@12@F@Z 1002a20c f i libucrt:output.obj
 0001:00029210       ?get_parameter_type@?$positional_parameter_base@_WV?$string_output_adapter@_W@__crt_stdio_output@@@__crt_stdio_output@@CA?AW4parameter_type@12@G@Z 1002a210 f i libucrt:output.obj
 0001:00029214       ?get_parameter_type@?$positional_parameter_base@_WV?$string_output_adapter@_W@__crt_stdio_output@@@__crt_stdio_output@@CA?AW4parameter_type@12@H@Z 1002a214 f i libucrt:output.obj
 0001:00029218       ?get_parameter_type@?$positional_parameter_base@_WV?$string_output_adapter@_W@__crt_stdio_output@@@__crt_stdio_output@@CA?AW4parameter_type@12@I@Z 1002a218 f i libucrt:output.obj
 0001:0002921c       ?get_parameter_type@?$positional_parameter_base@_WV?$string_output_adapter@_W@__crt_stdio_output@@@__crt_stdio_output@@CA?AW4parameter_type@12@U_CRT_DOUBLE@@@Z 1002a21c f i libucrt:output.obj
 0001:00029220       ?get_parameter_type@?$positional_parameter_base@_WV?$string_output_adapter@_W@__crt_stdio_output@@@__crt_stdio_output@@CA?AW4parameter_type@12@_J@Z 1002a220 f i libucrt:output.obj
 0001:00029224       ?get_parameter_type@?$positional_parameter_base@_WV?$string_output_adapter@_W@__crt_stdio_output@@@__crt_stdio_output@@CA?AW4parameter_type@12@_K@Z 1002a224 f i libucrt:output.obj
 0001:00029228       ?get_parameter_type@?$positional_parameter_base@_WV?$string_output_adapter@_W@__crt_stdio_output@@@__crt_stdio_output@@CA?AW4parameter_type@12@_W@Z 1002a228 f i libucrt:output.obj
 0001:0002922c       ?has_flag@?$output_processor@DV?$stream_output_adapter@D@__crt_stdio_output@@V?$format_validation_base@DV?$stream_output_adapter@D@__crt_stdio_output@@@2@@__crt_stdio_output@@ABE_NI@Z 1002a22c f i libucrt:output.obj
 0001:00029242       ?has_flag@?$output_processor@DV?$stream_output_adapter@D@__crt_stdio_output@@V?$positional_parameter_base@DV?$stream_output_adapter@D@__crt_stdio_output@@@2@@__crt_stdio_output@@ABE_NI@Z 1002a242 f i libucrt:output.obj
 0001:00029258       ?has_flag@?$output_processor@DV?$stream_output_adapter@D@__crt_stdio_output@@V?$standard_base@DV?$stream_output_adapter@D@__crt_stdio_output@@@2@@__crt_stdio_output@@ABE_NI@Z 1002a258 f i libucrt:output.obj
 0001:0002926e       ?has_flag@?$output_processor@DV?$string_output_adapter@D@__crt_stdio_output@@V?$format_validation_base@DV?$string_output_adapter@D@__crt_stdio_output@@@2@@__crt_stdio_output@@ABE_NI@Z 1002a26e f i libucrt:output.obj
 0001:00029284       ?has_flag@?$output_processor@DV?$string_output_adapter@D@__crt_stdio_output@@V?$positional_parameter_base@DV?$string_output_adapter@D@__crt_stdio_output@@@2@@__crt_stdio_output@@ABE_NI@Z 1002a284 f i libucrt:output.obj
 0001:0002929a       ?has_flag@?$output_processor@DV?$string_output_adapter@D@__crt_stdio_output@@V?$standard_base@DV?$string_output_adapter@D@__crt_stdio_output@@@2@@__crt_stdio_output@@ABE_NI@Z 1002a29a f i libucrt:output.obj
 0001:000292b0       ?has_flag@?$output_processor@_WV?$stream_output_adapter@_W@__crt_stdio_output@@V?$format_validation_base@_WV?$stream_output_adapter@_W@__crt_stdio_output@@@2@@__crt_stdio_output@@ABE_NI@Z 1002a2b0 f i libucrt:output.obj
 0001:000292c6       ?has_flag@?$output_processor@_WV?$stream_output_adapter@_W@__crt_stdio_output@@V?$positional_parameter_base@_WV?$stream_output_adapter@_W@__crt_stdio_output@@@2@@__crt_stdio_output@@ABE_NI@Z 1002a2c6 f i libucrt:output.obj
 0001:000292dc       ?has_flag@?$output_processor@_WV?$stream_output_adapter@_W@__crt_stdio_output@@V?$standard_base@_WV?$stream_output_adapter@_W@__crt_stdio_output@@@2@@__crt_stdio_output@@ABE_NI@Z 1002a2dc f i libucrt:output.obj
 0001:000292f2       ?has_flag@?$output_processor@_WV?$string_output_adapter@_W@__crt_stdio_output@@V?$format_validation_base@_WV?$string_output_adapter@_W@__crt_stdio_output@@@2@@__crt_stdio_output@@ABE_NI@Z 1002a2f2 f i libucrt:output.obj
 0001:00029308       ?has_flag@?$output_processor@_WV?$string_output_adapter@_W@__crt_stdio_output@@V?$positional_parameter_base@_WV?$string_output_adapter@_W@__crt_stdio_output@@@2@@__crt_stdio_output@@ABE_NI@Z 1002a308 f i libucrt:output.obj
 0001:0002931e       ?has_flag@?$output_processor@_WV?$string_output_adapter@_W@__crt_stdio_output@@V?$standard_base@_WV?$string_output_adapter@_W@__crt_stdio_output@@@2@@__crt_stdio_output@@ABE_NI@Z 1002a31e f i libucrt:output.obj
 0001:00029334       ?is_positional_parameter_reappearance_consistent@?$positional_parameter_base@DV?$stream_output_adapter@D@__crt_stdio_output@@@__crt_stdio_output@@AAE_NABUparameter_data@12@W4parameter_type@12@DW4length_modifier@2@@Z 1002a334 f i libucrt:output.obj
 0001:00029494       ?is_positional_parameter_reappearance_consistent@?$positional_parameter_base@DV?$string_output_adapter@D@__crt_stdio_output@@@__crt_stdio_output@@AAE_NABUparameter_data@12@W4parameter_type@12@DW4length_modifier@2@@Z 1002a494 f i libucrt:output.obj
 0001:000295f4       ?is_positional_parameter_reappearance_consistent@?$positional_parameter_base@_WV?$stream_output_adapter@_W@__crt_stdio_output@@@__crt_stdio_output@@AAE_NABUparameter_data@12@W4parameter_type@12@_WW4length_modifier@2@@Z 1002a5f4 f i libucrt:output.obj
 0001:00029753       ?is_positional_parameter_reappearance_consistent@?$positional_parameter_base@_WV?$string_output_adapter@_W@__crt_stdio_output@@@__crt_stdio_output@@AAE_NABUparameter_data@12@W4parameter_type@12@_WW4length_modifier@2@@Z 1002a753 f i libucrt:output.obj
 0001:000298b2       ?narrow_null_string@?$output_processor@DV?$stream_output_adapter@D@__crt_stdio_output@@V?$format_validation_base@DV?$stream_output_adapter@D@__crt_stdio_output@@@2@@__crt_stdio_output@@CAPADXZ 1002a8b2 f i libucrt:output.obj
 0001:000298b8       ?narrow_null_string@?$output_processor@DV?$stream_output_adapter@D@__crt_stdio_output@@V?$positional_parameter_base@DV?$stream_output_adapter@D@__crt_stdio_output@@@2@@__crt_stdio_output@@CAPADXZ 1002a8b8 f i libucrt:output.obj
 0001:000298be       ?narrow_null_string@?$output_processor@DV?$stream_output_adapter@D@__crt_stdio_output@@V?$standard_base@DV?$stream_output_adapter@D@__crt_stdio_output@@@2@@__crt_stdio_output@@CAPADXZ 1002a8be f i libucrt:output.obj
 0001:000298c4       ?narrow_null_string@?$output_processor@DV?$string_output_adapter@D@__crt_stdio_output@@V?$format_validation_base@DV?$string_output_adapter@D@__crt_stdio_output@@@2@@__crt_stdio_output@@CAPADXZ 1002a8c4 f i libucrt:output.obj
 0001:000298ca       ?narrow_null_string@?$output_processor@DV?$string_output_adapter@D@__crt_stdio_output@@V?$positional_parameter_base@DV?$string_output_adapter@D@__crt_stdio_output@@@2@@__crt_stdio_output@@CAPADXZ 1002a8ca f i libucrt:output.obj
 0001:000298d0       ?narrow_null_string@?$output_processor@DV?$string_output_adapter@D@__crt_stdio_output@@V?$standard_base@DV?$string_output_adapter@D@__crt_stdio_output@@@2@@__crt_stdio_output@@CAPADXZ 1002a8d0 f i libucrt:output.obj
 0001:000298d6       ?narrow_null_string@?$output_processor@_WV?$stream_output_adapter@_W@__crt_stdio_output@@V?$format_validation_base@_WV?$stream_output_adapter@_W@__crt_stdio_output@@@2@@__crt_stdio_output@@CAPADXZ 1002a8d6 f i libucrt:output.obj
 0001:000298dc       ?narrow_null_string@?$output_processor@_WV?$stream_output_adapter@_W@__crt_stdio_output@@V?$positional_parameter_base@_WV?$stream_output_adapter@_W@__crt_stdio_output@@@2@@__crt_stdio_output@@CAPADXZ 1002a8dc f i libucrt:output.obj
 0001:000298e2       ?narrow_null_string@?$output_processor@_WV?$stream_output_adapter@_W@__crt_stdio_output@@V?$standard_base@_WV?$stream_output_adapter@_W@__crt_stdio_output@@@2@@__crt_stdio_output@@CAPADXZ 1002a8e2 f i libucrt:output.obj
 0001:000298e8       ?narrow_null_string@?$output_processor@_WV?$string_output_adapter@_W@__crt_stdio_output@@V?$format_validation_base@_WV?$string_output_adapter@_W@__crt_stdio_output@@@2@@__crt_stdio_output@@CAPADXZ 1002a8e8 f i libucrt:output.obj
 0001:000298ee       ?narrow_null_string@?$output_processor@_WV?$string_output_adapter@_W@__crt_stdio_output@@V?$positional_parameter_base@_WV?$string_output_adapter@_W@__crt_stdio_output@@@2@@__crt_stdio_output@@CAPADXZ 1002a8ee f i libucrt:output.obj
 0001:000298f4       ?narrow_null_string@?$output_processor@_WV?$string_output_adapter@_W@__crt_stdio_output@@V?$standard_base@_WV?$string_output_adapter@_W@__crt_stdio_output@@@2@@__crt_stdio_output@@CAPADXZ 1002a8f4 f i libucrt:output.obj
 0001:000298fa       ?parse_int_from_format_string@?$output_processor@DV?$stream_output_adapter@D@__crt_stdio_output@@V?$format_validation_base@DV?$stream_output_adapter@D@__crt_stdio_output@@@2@@__crt_stdio_output@@AAE_NQAH@Z 1002a8fa f i libucrt:output.obj
 0001:0002998d       ?parse_int_from_format_string@?$output_processor@DV?$stream_output_adapter@D@__crt_stdio_output@@V?$positional_parameter_base@DV?$stream_output_adapter@D@__crt_stdio_output@@@2@@__crt_stdio_output@@AAE_NQAH@Z 1002a98d f i libucrt:output.obj
 0001:00029a20       ?parse_int_from_format_string@?$output_processor@DV?$stream_output_adapter@D@__crt_stdio_output@@V?$standard_base@DV?$stream_output_adapter@D@__crt_stdio_output@@@2@@__crt_stdio_output@@AAE_NQAH@Z 1002aa20 f i libucrt:output.obj
 0001:00029ab3       ?parse_int_from_format_string@?$output_processor@DV?$string_output_adapter@D@__crt_stdio_output@@V?$format_validation_base@DV?$string_output_adapter@D@__crt_stdio_output@@@2@@__crt_stdio_output@@AAE_NQAH@Z 1002aab3 f i libucrt:output.obj
 0001:00029b46       ?parse_int_from_format_string@?$output_processor@DV?$string_output_adapter@D@__crt_stdio_output@@V?$positional_parameter_base@DV?$string_output_adapter@D@__crt_stdio_output@@@2@@__crt_stdio_output@@AAE_NQAH@Z 1002ab46 f i libucrt:output.obj
 0001:00029bd9       ?parse_int_from_format_string@?$output_processor@DV?$string_output_adapter@D@__crt_stdio_output@@V?$standard_base@DV?$string_output_adapter@D@__crt_stdio_output@@@2@@__crt_stdio_output@@AAE_NQAH@Z 1002abd9 f i libucrt:output.obj
 0001:00029c6c       ?parse_int_from_format_string@?$output_processor@_WV?$stream_output_adapter@_W@__crt_stdio_output@@V?$format_validation_base@_WV?$stream_output_adapter@_W@__crt_stdio_output@@@2@@__crt_stdio_output@@AAE_NQAH@Z 1002ac6c f i libucrt:output.obj
 0001:00029d02       ?parse_int_from_format_string@?$output_processor@_WV?$stream_output_adapter@_W@__crt_stdio_output@@V?$positional_parameter_base@_WV?$stream_output_adapter@_W@__crt_stdio_output@@@2@@__crt_stdio_output@@AAE_NQAH@Z 1002ad02 f i libucrt:output.obj
 0001:00029d98       ?parse_int_from_format_string@?$output_processor@_WV?$stream_output_adapter@_W@__crt_stdio_output@@V?$standard_base@_WV?$stream_output_adapter@_W@__crt_stdio_output@@@2@@__crt_stdio_output@@AAE_NQAH@Z 1002ad98 f i libucrt:output.obj
 0001:00029e2e       ?parse_int_from_format_string@?$output_processor@_WV?$string_output_adapter@_W@__crt_stdio_output@@V?$format_validation_base@_WV?$string_output_adapter@_W@__crt_stdio_output@@@2@@__crt_stdio_output@@AAE_NQAH@Z 1002ae2e f i libucrt:output.obj
 0001:00029ec4       ?parse_int_from_format_string@?$output_processor@_WV?$string_output_adapter@_W@__crt_stdio_output@@V?$positional_parameter_base@_WV?$string_output_adapter@_W@__crt_stdio_output@@@2@@__crt_stdio_output@@AAE_NQAH@Z 1002aec4 f i libucrt:output.obj
 0001:00029f5a       ?parse_int_from_format_string@?$output_processor@_WV?$string_output_adapter@_W@__crt_stdio_output@@V?$standard_base@_WV?$string_output_adapter@_W@__crt_stdio_output@@@2@@__crt_stdio_output@@AAE_NQAH@Z 1002af5a f i libucrt:output.obj
 0001:00029ff0       ?process@?$output_processor@DV?$stream_output_adapter@D@__crt_stdio_output@@V?$format_validation_base@DV?$stream_output_adapter@D@__crt_stdio_output@@@2@@__crt_stdio_output@@QAEHXZ 1002aff0 f i libucrt:output.obj
 0001:0002a162       ?process@?$output_processor@DV?$stream_output_adapter@D@__crt_stdio_output@@V?$positional_parameter_base@DV?$stream_output_adapter@D@__crt_stdio_output@@@2@@__crt_stdio_output@@QAEHXZ 1002b162 f i libucrt:output.obj
 0001:0002a315       ?process@?$output_processor@DV?$stream_output_adapter@D@__crt_stdio_output@@V?$standard_base@DV?$stream_output_adapter@D@__crt_stdio_output@@@2@@__crt_stdio_output@@QAEHXZ 1002b315 f i libucrt:output.obj
 0001:0002a478       ?process@?$output_processor@DV?$string_output_adapter@D@__crt_stdio_output@@V?$format_validation_base@DV?$string_output_adapter@D@__crt_stdio_output@@@2@@__crt_stdio_output@@QAEHXZ 1002b478 f i libucrt:output.obj
 0001:0002a5ea       ?process@?$output_processor@DV?$string_output_adapter@D@__crt_stdio_output@@V?$positional_parameter_base@DV?$string_output_adapter@D@__crt_stdio_output@@@2@@__crt_stdio_output@@QAEHXZ 1002b5ea f i libucrt:output.obj
 0001:0002a79d       ?process@?$output_processor@DV?$string_output_adapter@D@__crt_stdio_output@@V?$standard_base@DV?$string_output_adapter@D@__crt_stdio_output@@@2@@__crt_stdio_output@@QAEHXZ 1002b79d f i libucrt:output.obj
 0001:0002a900       ?process@?$output_processor@_WV?$stream_output_adapter@_W@__crt_stdio_output@@V?$format_validation_base@_WV?$stream_output_adapter@_W@__crt_stdio_output@@@2@@__crt_stdio_output@@QAEHXZ 1002b900 f i libucrt:output.obj
 0001:0002aa7c       ?process@?$output_processor@_WV?$stream_output_adapter@_W@__crt_stdio_output@@V?$positional_parameter_base@_WV?$stream_output_adapter@_W@__crt_stdio_output@@@2@@__crt_stdio_output@@QAEHXZ 1002ba7c f i libucrt:output.obj
 0001:0002ac34       ?process@?$output_processor@_WV?$stream_output_adapter@_W@__crt_stdio_output@@V?$standard_base@_WV?$stream_output_adapter@_W@__crt_stdio_output@@@2@@__crt_stdio_output@@QAEHXZ 1002bc34 f i libucrt:output.obj
 0001:0002ad9c       ?process@?$output_processor@_WV?$string_output_adapter@_W@__crt_stdio_output@@V?$format_validation_base@_WV?$string_output_adapter@_W@__crt_stdio_output@@@2@@__crt_stdio_output@@QAEHXZ 1002bd9c f i libucrt:output.obj
 0001:0002af18       ?process@?$output_processor@_WV?$string_output_adapter@_W@__crt_stdio_output@@V?$positional_parameter_base@_WV?$string_output_adapter@_W@__crt_stdio_output@@@2@@__crt_stdio_output@@QAEHXZ 1002bf18 f i libucrt:output.obj
 0001:0002b0d0       ?process@?$output_processor@_WV?$string_output_adapter@_W@__crt_stdio_output@@V?$standard_base@_WV?$string_output_adapter@_W@__crt_stdio_output@@@2@@__crt_stdio_output@@QAEHXZ 1002c0d0 f i libucrt:output.obj
 0001:0002b238       ?set_flag@?$output_processor@DV?$stream_output_adapter@D@__crt_stdio_output@@V?$format_validation_base@DV?$stream_output_adapter@D@__crt_stdio_output@@@2@@__crt_stdio_output@@AAEXI@Z 1002c238 f i libucrt:output.obj
 0001:0002b24a       ?set_flag@?$output_processor@DV?$stream_output_adapter@D@__crt_stdio_output@@V?$positional_parameter_base@DV?$stream_output_adapter@D@__crt_stdio_output@@@2@@__crt_stdio_output@@AAEXI@Z 1002c24a f i libucrt:output.obj
 0001:0002b25c       ?set_flag@?$output_processor@DV?$stream_output_adapter@D@__crt_stdio_output@@V?$standard_base@DV?$stream_output_adapter@D@__crt_stdio_output@@@2@@__crt_stdio_output@@AAEXI@Z 1002c25c f i libucrt:output.obj
 0001:0002b26e       ?set_flag@?$output_processor@DV?$string_output_adapter@D@__crt_stdio_output@@V?$format_validation_base@DV?$string_output_adapter@D@__crt_stdio_output@@@2@@__crt_stdio_output@@AAEXI@Z 1002c26e f i libucrt:output.obj
 0001:0002b280       ?set_flag@?$output_processor@DV?$string_output_adapter@D@__crt_stdio_output@@V?$positional_parameter_base@DV?$string_output_adapter@D@__crt_stdio_output@@@2@@__crt_stdio_output@@AAEXI@Z 1002c280 f i libucrt:output.obj
 0001:0002b292       ?set_flag@?$output_processor@DV?$string_output_adapter@D@__crt_stdio_output@@V?$standard_base@DV?$string_output_adapter@D@__crt_stdio_output@@@2@@__crt_stdio_output@@AAEXI@Z 1002c292 f i libucrt:output.obj
 0001:0002b2a4       ?set_flag@?$output_processor@_WV?$stream_output_adapter@_W@__crt_stdio_output@@V?$format_validation_base@_WV?$stream_output_adapter@_W@__crt_stdio_output@@@2@@__crt_stdio_output@@AAEXI@Z 1002c2a4 f i libucrt:output.obj
 0001:0002b2b6       ?set_flag@?$output_processor@_WV?$stream_output_adapter@_W@__crt_stdio_output@@V?$positional_parameter_base@_WV?$stream_output_adapter@_W@__crt_stdio_output@@@2@@__crt_stdio_output@@AAEXI@Z 1002c2b6 f i libucrt:output.obj
 0001:0002b2c8       ?set_flag@?$output_processor@_WV?$stream_output_adapter@_W@__crt_stdio_output@@V?$standard_base@_WV?$stream_output_adapter@_W@__crt_stdio_output@@@2@@__crt_stdio_output@@AAEXI@Z 1002c2c8 f i libucrt:output.obj
 0001:0002b2da       ?set_flag@?$output_processor@_WV?$string_output_adapter@_W@__crt_stdio_output@@V?$format_validation_base@_WV?$string_output_adapter@_W@__crt_stdio_output@@@2@@__crt_stdio_output@@AAEXI@Z 1002c2da f i libucrt:output.obj
 0001:0002b2ec       ?set_flag@?$output_processor@_WV?$string_output_adapter@_W@__crt_stdio_output@@V?$positional_parameter_base@_WV?$string_output_adapter@_W@__crt_stdio_output@@@2@@__crt_stdio_output@@AAEXI@Z 1002c2ec f i libucrt:output.obj
 0001:0002b2fe       ?set_flag@?$output_processor@_WV?$string_output_adapter@_W@__crt_stdio_output@@V?$standard_base@_WV?$string_output_adapter@_W@__crt_stdio_output@@@2@@__crt_stdio_output@@AAEXI@Z 1002c2fe f i libucrt:output.obj
 0001:0002b310       ?should_format@?$positional_parameter_base@DV?$stream_output_adapter@D@__crt_stdio_output@@@__crt_stdio_output@@IAE_NXZ 1002c310 f i libucrt:output.obj
 0001:0002b32b       ?should_format@?$positional_parameter_base@DV?$string_output_adapter@D@__crt_stdio_output@@@__crt_stdio_output@@IAE_NXZ 1002c32b f i libucrt:output.obj
 0001:0002b346       ?should_format@?$positional_parameter_base@_WV?$stream_output_adapter@_W@__crt_stdio_output@@@__crt_stdio_output@@IAE_NXZ 1002c346 f i libucrt:output.obj
 0001:0002b361       ?should_format@?$positional_parameter_base@_WV?$string_output_adapter@_W@__crt_stdio_output@@@__crt_stdio_output@@IAE_NXZ 1002c361 f i libucrt:output.obj
 0001:0002b37c       ?should_format@?$standard_base@DV?$stream_output_adapter@D@__crt_stdio_output@@@__crt_stdio_output@@IAE_NXZ 1002c37c f i libucrt:output.obj
 0001:0002b37f       ?should_format@?$standard_base@DV?$string_output_adapter@D@__crt_stdio_output@@@__crt_stdio_output@@IAE_NXZ 1002c37f f i libucrt:output.obj
 0001:0002b382       ?should_format@?$standard_base@_WV?$stream_output_adapter@_W@__crt_stdio_output@@@__crt_stdio_output@@IAE_NXZ 1002c382 f i libucrt:output.obj
 0001:0002b385       ?should_format@?$standard_base@_WV?$string_output_adapter@_W@__crt_stdio_output@@@__crt_stdio_output@@IAE_NXZ 1002c385 f i libucrt:output.obj
 0001:0002b388       ?should_skip_normal_state_processing@?$positional_parameter_base@DV?$stream_output_adapter@D@__crt_stdio_output@@@__crt_stdio_output@@IAE_NXZ 1002c388 f i libucrt:output.obj
 0001:0002b3ba       ?should_skip_normal_state_processing@?$positional_parameter_base@DV?$string_output_adapter@D@__crt_stdio_output@@@__crt_stdio_output@@IAE_NXZ 1002c3ba f i libucrt:output.obj
 0001:0002b3ec       ?should_skip_normal_state_processing@?$positional_parameter_base@_WV?$stream_output_adapter@_W@__crt_stdio_output@@@__crt_stdio_output@@IAE_NXZ 1002c3ec f i libucrt:output.obj
 0001:0002b41e       ?should_skip_normal_state_processing@?$positional_parameter_base@_WV?$string_output_adapter@_W@__crt_stdio_output@@@__crt_stdio_output@@IAE_NXZ 1002c41e f i libucrt:output.obj
 0001:0002b450       ?should_skip_normal_state_processing@?$standard_base@DV?$stream_output_adapter@D@__crt_stdio_output@@@__crt_stdio_output@@IAE_NXZ 1002c450 f i libucrt:output.obj
 0001:0002b453       ?should_skip_normal_state_processing@?$standard_base@DV?$string_output_adapter@D@__crt_stdio_output@@@__crt_stdio_output@@IAE_NXZ 1002c453 f i libucrt:output.obj
 0001:0002b456       ?should_skip_normal_state_processing@?$standard_base@_WV?$stream_output_adapter@_W@__crt_stdio_output@@@__crt_stdio_output@@IAE_NXZ 1002c456 f i libucrt:output.obj
 0001:0002b459       ?should_skip_normal_state_processing@?$standard_base@_WV?$string_output_adapter@_W@__crt_stdio_output@@@__crt_stdio_output@@IAE_NXZ 1002c459 f i libucrt:output.obj
 0001:0002b45c       ?should_skip_type_state_output@?$positional_parameter_base@DV?$stream_output_adapter@D@__crt_stdio_output@@@__crt_stdio_output@@IBE_NXZ 1002c45c f i libucrt:output.obj
 0001:0002b478       ?should_skip_type_state_output@?$positional_parameter_base@DV?$string_output_adapter@D@__crt_stdio_output@@@__crt_stdio_output@@IBE_NXZ 1002c478 f i libucrt:output.obj
 0001:0002b494       ?should_skip_type_state_output@?$positional_parameter_base@_WV?$stream_output_adapter@_W@__crt_stdio_output@@@__crt_stdio_output@@IBE_NXZ 1002c494 f i libucrt:output.obj
 0001:0002b4b0       ?should_skip_type_state_output@?$positional_parameter_base@_WV?$string_output_adapter@_W@__crt_stdio_output@@@__crt_stdio_output@@IBE_NXZ 1002c4b0 f i libucrt:output.obj
 0001:0002b4cc       ?should_skip_type_state_output@?$standard_base@DV?$stream_output_adapter@D@__crt_stdio_output@@@__crt_stdio_output@@IBE_NXZ 1002c4cc f i libucrt:output.obj
 0001:0002b4cf       ?should_skip_type_state_output@?$standard_base@DV?$string_output_adapter@D@__crt_stdio_output@@@__crt_stdio_output@@IBE_NXZ 1002c4cf f i libucrt:output.obj
 0001:0002b4d2       ?should_skip_type_state_output@?$standard_base@_WV?$stream_output_adapter@_W@__crt_stdio_output@@@__crt_stdio_output@@IBE_NXZ 1002c4d2 f i libucrt:output.obj
 0001:0002b4d5       ?should_skip_type_state_output@?$standard_base@_WV?$string_output_adapter@_W@__crt_stdio_output@@@__crt_stdio_output@@IBE_NXZ 1002c4d5 f i libucrt:output.obj
 0001:0002b4d8       ?state_case_dot@?$output_processor@DV?$stream_output_adapter@D@__crt_stdio_output@@V?$format_validation_base@DV?$stream_output_adapter@D@__crt_stdio_output@@@2@@__crt_stdio_output@@AAE_NXZ 1002c4d8 f i libucrt:output.obj
 0001:0002b4df       ?state_case_dot@?$output_processor@DV?$stream_output_adapter@D@__crt_stdio_output@@V?$positional_parameter_base@DV?$stream_output_adapter@D@__crt_stdio_output@@@2@@__crt_stdio_output@@AAE_NXZ 1002c4df f i libucrt:output.obj
 0001:0002b4e6       ?state_case_dot@?$output_processor@DV?$stream_output_adapter@D@__crt_stdio_output@@V?$standard_base@DV?$stream_output_adapter@D@__crt_stdio_output@@@2@@__crt_stdio_output@@AAE_NXZ 1002c4e6 f i libucrt:output.obj
 0001:0002b4ed       ?state_case_dot@?$output_processor@DV?$string_output_adapter@D@__crt_stdio_output@@V?$format_validation_base@DV?$string_output_adapter@D@__crt_stdio_output@@@2@@__crt_stdio_output@@AAE_NXZ 1002c4ed f i libucrt:output.obj
 0001:0002b4f4       ?state_case_dot@?$output_processor@DV?$string_output_adapter@D@__crt_stdio_output@@V?$positional_parameter_base@DV?$string_output_adapter@D@__crt_stdio_output@@@2@@__crt_stdio_output@@AAE_NXZ 1002c4f4 f i libucrt:output.obj
 0001:0002b4fb       ?state_case_dot@?$output_processor@DV?$string_output_adapter@D@__crt_stdio_output@@V?$standard_base@DV?$string_output_adapter@D@__crt_stdio_output@@@2@@__crt_stdio_output@@AAE_NXZ 1002c4fb f i libucrt:output.obj
 0001:0002b502       ?state_case_dot@?$output_processor@_WV?$stream_output_adapter@_W@__crt_stdio_output@@V?$format_validation_base@_WV?$stream_output_adapter@_W@__crt_stdio_output@@@2@@__crt_stdio_output@@AAE_NXZ 1002c502 f i libucrt:output.obj
 0001:0002b509       ?state_case_dot@?$output_processor@_WV?$stream_output_adapter@_W@__crt_stdio_output@@V?$positional_parameter_base@_WV?$stream_output_adapter@_W@__crt_stdio_output@@@2@@__crt_stdio_output@@AAE_NXZ 1002c509 f i libucrt:output.obj
 0001:0002b510       ?state_case_dot@?$output_processor@_WV?$stream_output_adapter@_W@__crt_stdio_output@@V?$standard_base@_WV?$stream_output_adapter@_W@__crt_stdio_output@@@2@@__crt_stdio_output@@AAE_NXZ 1002c510 f i libucrt:output.obj
 0001:0002b517       ?state_case_dot@?$output_processor@_WV?$string_output_adapter@_W@__crt_stdio_output@@V?$format_validation_base@_WV?$string_output_adapter@_W@__crt_stdio_output@@@2@@__crt_stdio_output@@AAE_NXZ 1002c517 f i libucrt:output.obj
 0001:0002b51e       ?state_case_dot@?$output_processor@_WV?$string_output_adapter@_W@__crt_stdio_output@@V?$positional_parameter_base@_WV?$string_output_adapter@_W@__crt_stdio_output@@@2@@__crt_stdio_output@@AAE_NXZ 1002c51e f i libucrt:output.obj
 0001:0002b525       ?state_case_dot@?$output_processor@_WV?$string_output_adapter@_W@__crt_stdio_output@@V?$standard_base@_WV?$string_output_adapter@_W@__crt_stdio_output@@@2@@__crt_stdio_output@@AAE_NXZ 1002c525 f i libucrt:output.obj
 0001:0002b52c       ?state_case_flag@?$output_processor@DV?$stream_output_adapter@D@__crt_stdio_output@@V?$format_validation_base@DV?$stream_output_adapter@D@__crt_stdio_output@@@2@@__crt_stdio_output@@AAE_NXZ 1002c52c f i libucrt:output.obj
 0001:0002b578       ?state_case_flag@?$output_processor@DV?$stream_output_adapter@D@__crt_stdio_output@@V?$positional_parameter_base@DV?$stream_output_adapter@D@__crt_stdio_output@@@2@@__crt_stdio_output@@AAE_NXZ 1002c578 f i libucrt:output.obj
 0001:0002b5c4       ?state_case_flag@?$output_processor@DV?$stream_output_adapter@D@__crt_stdio_output@@V?$standard_base@DV?$stream_output_adapter@D@__crt_stdio_output@@@2@@__crt_stdio_output@@AAE_NXZ 1002c5c4 f i libucrt:output.obj
 0001:0002b610       ?state_case_flag@?$output_processor@DV?$string_output_adapter@D@__crt_stdio_output@@V?$format_validation_base@DV?$string_output_adapter@D@__crt_stdio_output@@@2@@__crt_stdio_output@@AAE_NXZ 1002c610 f i libucrt:output.obj
 0001:0002b65c       ?state_case_flag@?$output_processor@DV?$string_output_adapter@D@__crt_stdio_output@@V?$positional_parameter_base@DV?$string_output_adapter@D@__crt_stdio_output@@@2@@__crt_stdio_output@@AAE_NXZ 1002c65c f i libucrt:output.obj
 0001:0002b6a8       ?state_case_flag@?$output_processor@DV?$string_output_adapter@D@__crt_stdio_output@@V?$standard_base@DV?$string_output_adapter@D@__crt_stdio_output@@@2@@__crt_stdio_output@@AAE_NXZ 1002c6a8 f i libucrt:output.obj
 0001:0002b6f4       ?state_case_flag@?$output_processor@_WV?$stream_output_adapter@_W@__crt_stdio_output@@V?$format_validation_base@_WV?$stream_output_adapter@_W@__crt_stdio_output@@@2@@__crt_stdio_output@@AAE_NXZ 1002c6f4 f i libucrt:output.obj
 0001:0002b740       ?state_case_flag@?$output_processor@_WV?$stream_output_adapter@_W@__crt_stdio_output@@V?$positional_parameter_base@_WV?$stream_output_adapter@_W@__crt_stdio_output@@@2@@__crt_stdio_output@@AAE_NXZ 1002c740 f i libucrt:output.obj
 0001:0002b78c       ?state_case_flag@?$output_processor@_WV?$stream_output_adapter@_W@__crt_stdio_output@@V?$standard_base@_WV?$stream_output_adapter@_W@__crt_stdio_output@@@2@@__crt_stdio_output@@AAE_NXZ 1002c78c f i libucrt:output.obj
 0001:0002b7d8       ?state_case_flag@?$output_processor@_WV?$string_output_adapter@_W@__crt_stdio_output@@V?$format_validation_base@_WV?$string_output_adapter@_W@__crt_stdio_output@@@2@@__crt_stdio_output@@AAE_NXZ 1002c7d8 f i libucrt:output.obj
 0001:0002b824       ?state_case_flag@?$output_processor@_WV?$string_output_adapter@_W@__crt_stdio_output@@V?$positional_parameter_base@_WV?$string_output_adapter@_W@__crt_stdio_output@@@2@@__crt_stdio_output@@AAE_NXZ 1002c824 f i libucrt:output.obj
 0001:0002b870       ?state_case_flag@?$output_processor@_WV?$string_output_adapter@_W@__crt_stdio_output@@V?$standard_base@_WV?$string_output_adapter@_W@__crt_stdio_output@@@2@@__crt_stdio_output@@AAE_NXZ 1002c870 f i libucrt:output.obj
 0001:0002b8bc       ?state_case_normal@?$output_processor@DV?$stream_output_adapter@D@__crt_stdio_output@@V?$format_validation_base@DV?$stream_output_adapter@D@__crt_stdio_output@@@2@@__crt_stdio_output@@AAE_NXZ 1002c8bc f i libucrt:output.obj
 0001:0002b8e2       ?state_case_normal@?$output_processor@DV?$stream_output_adapter@D@__crt_stdio_output@@V?$positional_parameter_base@DV?$stream_output_adapter@D@__crt_stdio_output@@@2@@__crt_stdio_output@@AAE_NXZ 1002c8e2 f i libucrt:output.obj
 0001:0002b91f       ?state_case_normal@?$output_processor@DV?$stream_output_adapter@D@__crt_stdio_output@@V?$standard_base@DV?$stream_output_adapter@D@__crt_stdio_output@@@2@@__crt_stdio_output@@AAE_NXZ 1002c91f f i libucrt:output.obj
 0001:0002b945       ?state_case_normal@?$output_processor@DV?$string_output_adapter@D@__crt_stdio_output@@V?$format_validation_base@DV?$string_output_adapter@D@__crt_stdio_output@@@2@@__crt_stdio_output@@AAE_NXZ 1002c945 f i libucrt:output.obj
 0001:0002b96b       ?state_case_normal@?$output_processor@DV?$string_output_adapter@D@__crt_stdio_output@@V?$positional_parameter_base@DV?$string_output_adapter@D@__crt_stdio_output@@@2@@__crt_stdio_output@@AAE_NXZ 1002c96b f i libucrt:output.obj
 0001:0002b9a8       ?state_case_normal@?$output_processor@DV?$string_output_adapter@D@__crt_stdio_output@@V?$standard_base@DV?$string_output_adapter@D@__crt_stdio_output@@@2@@__crt_stdio_output@@AAE_NXZ 1002c9a8 f i libucrt:output.obj
 0001:0002b9ce       ?state_case_normal@?$output_processor@_WV?$stream_output_adapter@_W@__crt_stdio_output@@V?$format_validation_base@_WV?$stream_output_adapter@_W@__crt_stdio_output@@@2@@__crt_stdio_output@@AAE_NXZ 1002c9ce f i libucrt:output.obj
 0001:0002b9f4       ?state_case_normal@?$output_processor@_WV?$stream_output_adapter@_W@__crt_stdio_output@@V?$positional_parameter_base@_WV?$stream_output_adapter@_W@__crt_stdio_output@@@2@@__crt_stdio_output@@AAE_NXZ 1002c9f4 f i libucrt:output.obj
 0001:0002ba31       ?state_case_normal@?$output_processor@_WV?$stream_output_adapter@_W@__crt_stdio_output@@V?$standard_base@_WV?$stream_output_adapter@_W@__crt_stdio_output@@@2@@__crt_stdio_output@@AAE_NXZ 1002ca31 f i libucrt:output.obj
 0001:0002ba57       ?state_case_normal@?$output_processor@_WV?$string_output_adapter@_W@__crt_stdio_output@@V?$format_validation_base@_WV?$string_output_adapter@_W@__crt_stdio_output@@@2@@__crt_stdio_output@@AAE_NXZ 1002ca57 f i libucrt:output.obj
 0001:0002ba7d       ?state_case_normal@?$output_processor@_WV?$string_output_adapter@_W@__crt_stdio_output@@V?$positional_parameter_base@_WV?$string_output_adapter@_W@__crt_stdio_output@@@2@@__crt_stdio_output@@AAE_NXZ 1002ca7d f i libucrt:output.obj
 0001:0002baba       ?state_case_normal@?$output_processor@_WV?$string_output_adapter@_W@__crt_stdio_output@@V?$standard_base@_WV?$string_output_adapter@_W@__crt_stdio_output@@@2@@__crt_stdio_output@@AAE_NXZ 1002caba f i libucrt:output.obj
 0001:0002bae0       ?state_case_normal_common@?$output_processor@DV?$stream_output_adapter@D@__crt_stdio_output@@V?$format_validation_base@DV?$stream_output_adapter@D@__crt_stdio_output@@@2@@__crt_stdio_output@@AAE_NXZ 1002cae0 f i libucrt:output.obj
 0001:0002bb2b       ?state_case_normal_common@?$output_processor@DV?$stream_output_adapter@D@__crt_stdio_output@@V?$positional_parameter_base@DV?$stream_output_adapter@D@__crt_stdio_output@@@2@@__crt_stdio_output@@AAE_NXZ 1002cb2b f i libucrt:output.obj
 0001:0002bb76       ?state_case_normal_common@?$output_processor@DV?$stream_output_adapter@D@__crt_stdio_output@@V?$standard_base@DV?$stream_output_adapter@D@__crt_stdio_output@@@2@@__crt_stdio_output@@AAE_NXZ 1002cb76 f i libucrt:output.obj
 0001:0002bbc1       ?state_case_normal_common@?$output_processor@DV?$string_output_adapter@D@__crt_stdio_output@@V?$format_validation_base@DV?$string_output_adapter@D@__crt_stdio_output@@@2@@__crt_stdio_output@@AAE_NXZ 1002cbc1 f i libucrt:output.obj
 0001:0002bbf5       ?state_case_normal_common@?$output_processor@DV?$string_output_adapter@D@__crt_stdio_output@@V?$positional_parameter_base@DV?$string_output_adapter@D@__crt_stdio_output@@@2@@__crt_stdio_output@@AAE_NXZ 1002cbf5 f i libucrt:output.obj
 0001:0002bc29       ?state_case_normal_common@?$output_processor@DV?$string_output_adapter@D@__crt_stdio_output@@V?$standard_base@DV?$string_output_adapter@D@__crt_stdio_output@@@2@@__crt_stdio_output@@AAE_NXZ 1002cc29 f i libucrt:output.obj
 0001:0002bc5d       ?state_case_normal_common@?$output_processor@_WV?$stream_output_adapter@_W@__crt_stdio_output@@V?$format_validation_base@_WV?$stream_output_adapter@_W@__crt_stdio_output@@@2@@__crt_stdio_output@@AAE_NXZ 1002cc5d f i libucrt:output.obj
 0001:0002bc91       ?state_case_normal_common@?$output_processor@_WV?$stream_output_adapter@_W@__crt_stdio_output@@V?$positional_parameter_base@_WV?$stream_output_adapter@_W@__crt_stdio_output@@@2@@__crt_stdio_output@@AAE_NXZ 1002cc91 f i libucrt:output.obj
 0001:0002bcc5       ?state_case_normal_common@?$output_processor@_WV?$stream_output_adapter@_W@__crt_stdio_output@@V?$standard_base@_WV?$stream_output_adapter@_W@__crt_stdio_output@@@2@@__crt_stdio_output@@AAE_NXZ 1002ccc5 f i libucrt:output.obj
 0001:0002bcf9       ?state_case_normal_common@?$output_processor@_WV?$string_output_adapter@_W@__crt_stdio_output@@V?$format_validation_base@_WV?$string_output_adapter@_W@__crt_stdio_output@@@2@@__crt_stdio_output@@AAE_NXZ 1002ccf9 f i libucrt:output.obj
 0001:0002bd1a       ?state_case_normal_common@?$output_processor@_WV?$string_output_adapter@_W@__crt_stdio_output@@V?$positional_parameter_base@_WV?$string_output_adapter@_W@__crt_stdio_output@@@2@@__crt_stdio_output@@AAE_NXZ 1002cd1a f i libucrt:output.obj
 0001:0002bd3b       ?state_case_normal_common@?$output_processor@_WV?$string_output_adapter@_W@__crt_stdio_output@@V?$standard_base@_WV?$string_output_adapter@_W@__crt_stdio_output@@@2@@__crt_stdio_output@@AAE_NXZ 1002cd3b f i libucrt:output.obj
 0001:0002bd5c       ?state_case_normal_tchar@?$output_processor@DV?$stream_output_adapter@D@__crt_stdio_output@@V?$format_validation_base@DV?$stream_output_adapter@D@__crt_stdio_output@@@2@@__crt_stdio_output@@AAE_ND@Z 1002cd5c f i libucrt:output.obj
 0001:0002bdd6       ?state_case_normal_tchar@?$output_processor@DV?$stream_output_adapter@D@__crt_stdio_output@@V?$positional_parameter_base@DV?$stream_output_adapter@D@__crt_stdio_output@@@2@@__crt_stdio_output@@AAE_ND@Z 1002cdd6 f i libucrt:output.obj
 0001:0002be50       ?state_case_normal_tchar@?$output_processor@DV?$stream_output_adapter@D@__crt_stdio_output@@V?$standard_base@DV?$stream_output_adapter@D@__crt_stdio_output@@@2@@__crt_stdio_output@@AAE_ND@Z 1002ce50 f i libucrt:output.obj
 0001:0002beca       ?state_case_normal_tchar@?$output_processor@DV?$string_output_adapter@D@__crt_stdio_output@@V?$format_validation_base@DV?$string_output_adapter@D@__crt_stdio_output@@@2@@__crt_stdio_output@@AAE_ND@Z 1002ceca f i libucrt:output.obj
 0001:0002bf39       ?state_case_normal_tchar@?$output_processor@DV?$string_output_adapter@D@__crt_stdio_output@@V?$positional_parameter_base@DV?$string_output_adapter@D@__crt_stdio_output@@@2@@__crt_stdio_output@@AAE_ND@Z 1002cf39 f i libucrt:output.obj
 0001:0002bfa8       ?state_case_normal_tchar@?$output_processor@DV?$string_output_adapter@D@__crt_stdio_output@@V?$standard_base@DV?$string_output_adapter@D@__crt_stdio_output@@@2@@__crt_stdio_output@@AAE_ND@Z 1002cfa8 f i libucrt:output.obj
 0001:0002c017       ?state_case_normal_tchar@?$output_processor@_WV?$stream_output_adapter@_W@__crt_stdio_output@@V?$format_validation_base@_WV?$stream_output_adapter@_W@__crt_stdio_output@@@2@@__crt_stdio_output@@AAE_N_W@Z 1002d017 f i libucrt:output.obj
 0001:0002c022       ?state_case_normal_tchar@?$output_processor@_WV?$stream_output_adapter@_W@__crt_stdio_output@@V?$positional_parameter_base@_WV?$stream_output_adapter@_W@__crt_stdio_output@@@2@@__crt_stdio_output@@AAE_N_W@Z 1002d022 f i libucrt:output.obj
 0001:0002c02d       ?state_case_normal_tchar@?$output_processor@_WV?$stream_output_adapter@_W@__crt_stdio_output@@V?$standard_base@_WV?$stream_output_adapter@_W@__crt_stdio_output@@@2@@__crt_stdio_output@@AAE_N_W@Z 1002d02d f i libucrt:output.obj
 0001:0002c038       ?state_case_normal_tchar@?$output_processor@_WV?$string_output_adapter@_W@__crt_stdio_output@@V?$format_validation_base@_WV?$string_output_adapter@_W@__crt_stdio_output@@@2@@__crt_stdio_output@@AAE_N_W@Z 1002d038 f i libucrt:output.obj
 0001:0002c043       ?state_case_normal_tchar@?$output_processor@_WV?$string_output_adapter@_W@__crt_stdio_output@@V?$positional_parameter_base@_WV?$string_output_adapter@_W@__crt_stdio_output@@@2@@__crt_stdio_output@@AAE_N_W@Z 1002d043 f i libucrt:output.obj
 0001:0002c04e       ?state_case_normal_tchar@?$output_processor@_WV?$string_output_adapter@_W@__crt_stdio_output@@V?$standard_base@_WV?$string_output_adapter@_W@__crt_stdio_output@@@2@@__crt_stdio_output@@AAE_N_W@Z 1002d04e f i libucrt:output.obj
 0001:0002c059       ?state_case_percent@?$output_processor@DV?$stream_output_adapter@D@__crt_stdio_output@@V?$format_validation_base@DV?$stream_output_adapter@D@__crt_stdio_output@@@2@@__crt_stdio_output@@AAE_NXZ 1002d059 f i libucrt:output.obj
 0001:0002c077       ?state_case_percent@?$output_processor@DV?$stream_output_adapter@D@__crt_stdio_output@@V?$positional_parameter_base@DV?$stream_output_adapter@D@__crt_stdio_output@@@2@@__crt_stdio_output@@AAE_NXZ 1002d077 f i libucrt:output.obj
 0001:0002c095       ?state_case_percent@?$output_processor@DV?$stream_output_adapter@D@__crt_stdio_output@@V?$standard_base@DV?$stream_output_adapter@D@__crt_stdio_output@@@2@@__crt_stdio_output@@AAE_NXZ 1002d095 f i libucrt:output.obj
 0001:0002c0b3       ?state_case_percent@?$output_processor@DV?$string_output_adapter@D@__crt_stdio_output@@V?$format_validation_base@DV?$string_output_adapter@D@__crt_stdio_output@@@2@@__crt_stdio_output@@AAE_NXZ 1002d0b3 f i libucrt:output.obj
 0001:0002c0d1       ?state_case_percent@?$output_processor@DV?$string_output_adapter@D@__crt_stdio_output@@V?$positional_parameter_base@DV?$string_output_adapter@D@__crt_stdio_output@@@2@@__crt_stdio_output@@AAE_NXZ 1002d0d1 f i libucrt:output.obj
 0001:0002c0ef       ?state_case_percent@?$output_processor@DV?$string_output_adapter@D@__crt_stdio_output@@V?$standard_base@DV?$string_output_adapter@D@__crt_stdio_output@@@2@@__crt_stdio_output@@AAE_NXZ 1002d0ef f i libucrt:output.obj
 0001:0002c10d       ?state_case_percent@?$output_processor@_WV?$stream_output_adapter@_W@__crt_stdio_output@@V?$format_validation_base@_WV?$stream_output_adapter@_W@__crt_stdio_output@@@2@@__crt_stdio_output@@AAE_NXZ 1002d10d f i libucrt:output.obj
 0001:0002c12b       ?state_case_percent@?$output_processor@_WV?$stream_output_adapter@_W@__crt_stdio_output@@V?$positional_parameter_base@_WV?$stream_output_adapter@_W@__crt_stdio_output@@@2@@__crt_stdio_output@@AAE_NXZ 1002d12b f i libucrt:output.obj
 0001:0002c149       ?state_case_percent@?$output_processor@_WV?$stream_output_adapter@_W@__crt_stdio_output@@V?$standard_base@_WV?$stream_output_adapter@_W@__crt_stdio_output@@@2@@__crt_stdio_output@@AAE_NXZ 1002d149 f i libucrt:output.obj
 0001:0002c167       ?state_case_percent@?$output_processor@_WV?$string_output_adapter@_W@__crt_stdio_output@@V?$format_validation_base@_WV?$string_output_adapter@_W@__crt_stdio_output@@@2@@__crt_stdio_output@@AAE_NXZ 1002d167 f i libucrt:output.obj
 0001:0002c185       ?state_case_percent@?$output_processor@_WV?$string_output_adapter@_W@__crt_stdio_output@@V?$positional_parameter_base@_WV?$string_output_adapter@_W@__crt_stdio_output@@@2@@__crt_stdio_output@@AAE_NXZ 1002d185 f i libucrt:output.obj
 0001:0002c1a3       ?state_case_percent@?$output_processor@_WV?$string_output_adapter@_W@__crt_stdio_output@@V?$standard_base@_WV?$string_output_adapter@_W@__crt_stdio_output@@@2@@__crt_stdio_output@@AAE_NXZ 1002d1a3 f i libucrt:output.obj
 0001:0002c1c1       ?state_case_precision@?$output_processor@DV?$stream_output_adapter@D@__crt_stdio_output@@V?$format_validation_base@DV?$stream_output_adapter@D@__crt_stdio_output@@@2@@__crt_stdio_output@@AAE_NXZ 1002d1c1 f i libucrt:output.obj
 0001:0002c1f0       ?state_case_precision@?$output_processor@DV?$stream_output_adapter@D@__crt_stdio_output@@V?$positional_parameter_base@DV?$stream_output_adapter@D@__crt_stdio_output@@@2@@__crt_stdio_output@@AAE_NXZ 1002d1f0 f i libucrt:output.obj
 0001:0002c238       ?state_case_precision@?$output_processor@DV?$stream_output_adapter@D@__crt_stdio_output@@V?$standard_base@DV?$stream_output_adapter@D@__crt_stdio_output@@@2@@__crt_stdio_output@@AAE_NXZ 1002d238 f i libucrt:output.obj
 0001:0002c267       ?state_case_precision@?$output_processor@DV?$string_output_adapter@D@__crt_stdio_output@@V?$format_validation_base@DV?$string_output_adapter@D@__crt_stdio_output@@@2@@__crt_stdio_output@@AAE_NXZ 1002d267 f i libucrt:output.obj
 0001:0002c296       ?state_case_precision@?$output_processor@DV?$string_output_adapter@D@__crt_stdio_output@@V?$positional_parameter_base@DV?$string_output_adapter@D@__crt_stdio_output@@@2@@__crt_stdio_output@@AAE_NXZ 1002d296 f i libucrt:output.obj
 0001:0002c2de       ?state_case_precision@?$output_processor@DV?$string_output_adapter@D@__crt_stdio_output@@V?$standard_base@DV?$string_output_adapter@D@__crt_stdio_output@@@2@@__crt_stdio_output@@AAE_NXZ 1002d2de f i libucrt:output.obj
 0001:0002c30d       ?state_case_precision@?$output_processor@_WV?$stream_output_adapter@_W@__crt_stdio_output@@V?$format_validation_base@_WV?$stream_output_adapter@_W@__crt_stdio_output@@@2@@__crt_stdio_output@@AAE_NXZ 1002d30d f i libucrt:output.obj
 0001:0002c33d       ?state_case_precision@?$output_processor@_WV?$stream_output_adapter@_W@__crt_stdio_output@@V?$positional_parameter_base@_WV?$stream_output_adapter@_W@__crt_stdio_output@@@2@@__crt_stdio_output@@AAE_NXZ 1002d33d f i libucrt:output.obj
 0001:0002c386       ?state_case_precision@?$output_processor@_WV?$stream_output_adapter@_W@__crt_stdio_output@@V?$standard_base@_WV?$stream_output_adapter@_W@__crt_stdio_output@@@2@@__crt_stdio_output@@AAE_NXZ 1002d386 f i libucrt:output.obj
 0001:0002c3b6       ?state_case_precision@?$output_processor@_WV?$string_output_adapter@_W@__crt_stdio_output@@V?$format_validation_base@_WV?$string_output_adapter@_W@__crt_stdio_output@@@2@@__crt_stdio_output@@AAE_NXZ 1002d3b6 f i libucrt:output.obj
 0001:0002c3e6       ?state_case_precision@?$output_processor@_WV?$string_output_adapter@_W@__crt_stdio_output@@V?$positional_parameter_base@_WV?$string_output_adapter@_W@__crt_stdio_output@@@2@@__crt_stdio_output@@AAE_NXZ 1002d3e6 f i libucrt:output.obj
 0001:0002c42f       ?state_case_precision@?$output_processor@_WV?$string_output_adapter@_W@__crt_stdio_output@@V?$standard_base@_WV?$string_output_adapter@_W@__crt_stdio_output@@@2@@__crt_stdio_output@@AAE_NXZ 1002d42f f i libucrt:output.obj
 0001:0002c45f       ?state_case_size@?$output_processor@DV?$stream_output_adapter@D@__crt_stdio_output@@V?$format_validation_base@DV?$stream_output_adapter@D@__crt_stdio_output@@@2@@__crt_stdio_output@@AAE_NXZ 1002d45f f i libucrt:output.obj
 0001:0002c60f       ?state_case_size@?$output_processor@DV?$stream_output_adapter@D@__crt_stdio_output@@V?$positional_parameter_base@DV?$stream_output_adapter@D@__crt_stdio_output@@@2@@__crt_stdio_output@@AAE_NXZ 1002d60f f i libucrt:output.obj
 0001:0002c7bf       ?state_case_size@?$output_processor@DV?$stream_output_adapter@D@__crt_stdio_output@@V?$standard_base@DV?$stream_output_adapter@D@__crt_stdio_output@@@2@@__crt_stdio_output@@AAE_NXZ 1002d7bf f i libucrt:output.obj
 0001:0002c96f       ?state_case_size@?$output_processor@DV?$string_output_adapter@D@__crt_stdio_output@@V?$format_validation_base@DV?$string_output_adapter@D@__crt_stdio_output@@@2@@__crt_stdio_output@@AAE_NXZ 1002d96f f i libucrt:output.obj
 0001:0002cb1f       ?state_case_size@?$output_processor@DV?$string_output_adapter@D@__crt_stdio_output@@V?$positional_parameter_base@DV?$string_output_adapter@D@__crt_stdio_output@@@2@@__crt_stdio_output@@AAE_NXZ 1002db1f f i libucrt:output.obj
 0001:0002cccf       ?state_case_size@?$output_processor@DV?$string_output_adapter@D@__crt_stdio_output@@V?$standard_base@DV?$string_output_adapter@D@__crt_stdio_output@@@2@@__crt_stdio_output@@AAE_NXZ 1002dccf f i libucrt:output.obj
 0001:0002ce7f       ?state_case_size@?$output_processor@_WV?$stream_output_adapter@_W@__crt_stdio_output@@V?$format_validation_base@_WV?$stream_output_adapter@_W@__crt_stdio_output@@@2@@__crt_stdio_output@@AAE_NXZ 1002de7f f i libucrt:output.obj
 0001:0002d047       ?state_case_size@?$output_processor@_WV?$stream_output_adapter@_W@__crt_stdio_output@@V?$positional_parameter_base@_WV?$stream_output_adapter@_W@__crt_stdio_output@@@2@@__crt_stdio_output@@AAE_NXZ 1002e047 f i libucrt:output.obj
 0001:0002d20f       ?state_case_size@?$output_processor@_WV?$stream_output_adapter@_W@__crt_stdio_output@@V?$standard_base@_WV?$stream_output_adapter@_W@__crt_stdio_output@@@2@@__crt_stdio_output@@AAE_NXZ 1002e20f f i libucrt:output.obj
 0001:0002d3d7       ?state_case_size@?$output_processor@_WV?$string_output_adapter@_W@__crt_stdio_output@@V?$format_validation_base@_WV?$string_output_adapter@_W@__crt_stdio_output@@@2@@__crt_stdio_output@@AAE_NXZ 1002e3d7 f i libucrt:output.obj
 0001:0002d59f       ?state_case_size@?$output_processor@_WV?$string_output_adapter@_W@__crt_stdio_output@@V?$positional_parameter_base@_WV?$string_output_adapter@_W@__crt_stdio_output@@@2@@__crt_stdio_output@@AAE_NXZ 1002e59f f i libucrt:output.obj
 0001:0002d767       ?state_case_size@?$output_processor@_WV?$string_output_adapter@_W@__crt_stdio_output@@V?$standard_base@_WV?$string_output_adapter@_W@__crt_stdio_output@@@2@@__crt_stdio_output@@AAE_NXZ 1002e767 f i libucrt:output.obj
 0001:0002d92f       ?state_case_type@?$output_processor@DV?$stream_output_adapter@D@__crt_stdio_output@@V?$format_validation_base@DV?$stream_output_adapter@D@__crt_stdio_output@@@2@@__crt_stdio_output@@AAE_NXZ 1002e92f f i libucrt:output.obj
 0001:0002dbe2       ?state_case_type@?$output_processor@DV?$stream_output_adapter@D@__crt_stdio_output@@V?$positional_parameter_base@DV?$stream_output_adapter@D@__crt_stdio_output@@@2@@__crt_stdio_output@@AAE_NXZ 1002ebe2 f i libucrt:output.obj
 0001:0002dea3       ?state_case_type@?$output_processor@DV?$stream_output_adapter@D@__crt_stdio_output@@V?$standard_base@DV?$stream_output_adapter@D@__crt_stdio_output@@@2@@__crt_stdio_output@@AAE_NXZ 1002eea3 f i libucrt:output.obj
 0001:0002e156       ?state_case_type@?$output_processor@DV?$string_output_adapter@D@__crt_stdio_output@@V?$format_validation_base@DV?$string_output_adapter@D@__crt_stdio_output@@@2@@__crt_stdio_output@@AAE_NXZ 1002f156 f i libucrt:output.obj
 0001:0002e409       ?state_case_type@?$output_processor@DV?$string_output_adapter@D@__crt_stdio_output@@V?$positional_parameter_base@DV?$string_output_adapter@D@__crt_stdio_output@@@2@@__crt_stdio_output@@AAE_NXZ 1002f409 f i libucrt:output.obj
 0001:0002e6ca       ?state_case_type@?$output_processor@DV?$string_output_adapter@D@__crt_stdio_output@@V?$standard_base@DV?$string_output_adapter@D@__crt_stdio_output@@@2@@__crt_stdio_output@@AAE_NXZ 1002f6ca f i libucrt:output.obj
 0001:0002e97d       ?state_case_type@?$output_processor@_WV?$stream_output_adapter@_W@__crt_stdio_output@@V?$format_validation_base@_WV?$stream_output_adapter@_W@__crt_stdio_output@@@2@@__crt_stdio_output@@AAE_NXZ 1002f97d f i libucrt:output.obj
 0001:0002ec7d       ?state_case_type@?$output_processor@_WV?$stream_output_adapter@_W@__crt_stdio_output@@V?$positional_parameter_base@_WV?$stream_output_adapter@_W@__crt_stdio_output@@@2@@__crt_stdio_output@@AAE_NXZ 1002fc7d f i libucrt:output.obj
 0001:0002ef90       ?state_case_type@?$output_processor@_WV?$stream_output_adapter@_W@__crt_stdio_output@@V?$standard_base@_WV?$stream_output_adapter@_W@__crt_stdio_output@@@2@@__crt_stdio_output@@AAE_NXZ 1002ff90 f i libucrt:output.obj
 0001:0002f290       ?state_case_type@?$output_processor@_WV?$string_output_adapter@_W@__crt_stdio_output@@V?$format_validation_base@_WV?$string_output_adapter@_W@__crt_stdio_output@@@2@@__crt_stdio_output@@AAE_NXZ 10030290 f i libucrt:output.obj
 0001:0002f590       ?state_case_type@?$output_processor@_WV?$string_output_adapter@_W@__crt_stdio_output@@V?$positional_parameter_base@_WV?$string_output_adapter@_W@__crt_stdio_output@@@2@@__crt_stdio_output@@AAE_NXZ 10030590 f i libucrt:output.obj
 0001:0002f8a3       ?state_case_type@?$output_processor@_WV?$string_output_adapter@_W@__crt_stdio_output@@V?$standard_base@_WV?$string_output_adapter@_W@__crt_stdio_output@@@2@@__crt_stdio_output@@AAE_NXZ 100308a3 f i libucrt:output.obj
 0001:0002fba3       ?state_case_width@?$output_processor@DV?$stream_output_adapter@D@__crt_stdio_output@@V?$format_validation_base@DV?$stream_output_adapter@D@__crt_stdio_output@@@2@@__crt_stdio_output@@AAE_NXZ 10030ba3 f i libucrt:output.obj
 0001:0002fbd8       ?state_case_width@?$output_processor@DV?$stream_output_adapter@D@__crt_stdio_output@@V?$positional_parameter_base@DV?$stream_output_adapter@D@__crt_stdio_output@@@2@@__crt_stdio_output@@AAE_NXZ 10030bd8 f i libucrt:output.obj
 0001:0002fc28       ?state_case_width@?$output_processor@DV?$stream_output_adapter@D@__crt_stdio_output@@V?$standard_base@DV?$stream_output_adapter@D@__crt_stdio_output@@@2@@__crt_stdio_output@@AAE_NXZ 10030c28 f i libucrt:output.obj
 0001:0002fc5d       ?state_case_width@?$output_processor@DV?$string_output_adapter@D@__crt_stdio_output@@V?$format_validation_base@DV?$string_output_adapter@D@__crt_stdio_output@@@2@@__crt_stdio_output@@AAE_NXZ 10030c5d f i libucrt:output.obj
 0001:0002fc92       ?state_case_width@?$output_processor@DV?$string_output_adapter@D@__crt_stdio_output@@V?$positional_parameter_base@DV?$string_output_adapter@D@__crt_stdio_output@@@2@@__crt_stdio_output@@AAE_NXZ 10030c92 f i libucrt:output.obj
 0001:0002fce2       ?state_case_width@?$output_processor@DV?$string_output_adapter@D@__crt_stdio_output@@V?$standard_base@DV?$string_output_adapter@D@__crt_stdio_output@@@2@@__crt_stdio_output@@AAE_NXZ 10030ce2 f i libucrt:output.obj
 0001:0002fd17       ?state_case_width@?$output_processor@_WV?$stream_output_adapter@_W@__crt_stdio_output@@V?$format_validation_base@_WV?$stream_output_adapter@_W@__crt_stdio_output@@@2@@__crt_stdio_output@@AAE_NXZ 10030d17 f i libucrt:output.obj
 0001:0002fd4e       ?state_case_width@?$output_processor@_WV?$stream_output_adapter@_W@__crt_stdio_output@@V?$positional_parameter_base@_WV?$stream_output_adapter@_W@__crt_stdio_output@@@2@@__crt_stdio_output@@AAE_NXZ 10030d4e f i libucrt:output.obj
 0001:0002fd9f       ?state_case_width@?$output_processor@_WV?$stream_output_adapter@_W@__crt_stdio_output@@V?$standard_base@_WV?$stream_output_adapter@_W@__crt_stdio_output@@@2@@__crt_stdio_output@@AAE_NXZ 10030d9f f i libucrt:output.obj
 0001:0002fdd6       ?state_case_width@?$output_processor@_WV?$string_output_adapter@_W@__crt_stdio_output@@V?$format_validation_base@_WV?$string_output_adapter@_W@__crt_stdio_output@@@2@@__crt_stdio_output@@AAE_NXZ 10030dd6 f i libucrt:output.obj
 0001:0002fe0d       ?state_case_width@?$output_processor@_WV?$string_output_adapter@_W@__crt_stdio_output@@V?$positional_parameter_base@_WV?$string_output_adapter@_W@__crt_stdio_output@@@2@@__crt_stdio_output@@AAE_NXZ 10030e0d f i libucrt:output.obj
 0001:0002fe5e       ?state_case_width@?$output_processor@_WV?$string_output_adapter@_W@__crt_stdio_output@@V?$standard_base@_WV?$string_output_adapter@_W@__crt_stdio_output@@@2@@__crt_stdio_output@@AAE_NXZ 10030e5e f i libucrt:output.obj
 0001:0002fe95       ?state_count@?$format_validation_base@DV?$stream_output_adapter@D@__crt_stdio_output@@@__crt_stdio_output@@KAIXZ 10030e95 f i libucrt:output.obj
 0001:0002fe99       ?state_count@?$format_validation_base@DV?$string_output_adapter@D@__crt_stdio_output@@@__crt_stdio_output@@KAIXZ 10030e99 f i libucrt:output.obj
 0001:0002fe9d       ?state_count@?$format_validation_base@_WV?$stream_output_adapter@_W@__crt_stdio_output@@@__crt_stdio_output@@KAIXZ 10030e9d f i libucrt:output.obj
 0001:0002fea1       ?state_count@?$format_validation_base@_WV?$string_output_adapter@_W@__crt_stdio_output@@@__crt_stdio_output@@KAIXZ 10030ea1 f i libucrt:output.obj
 0001:0002fea5       ?state_count@?$standard_base@DV?$stream_output_adapter@D@__crt_stdio_output@@@__crt_stdio_output@@KAIXZ 10030ea5 f i libucrt:output.obj
 0001:0002fea9       ?state_count@?$standard_base@DV?$string_output_adapter@D@__crt_stdio_output@@@__crt_stdio_output@@KAIXZ 10030ea9 f i libucrt:output.obj
 0001:0002fead       ?state_count@?$standard_base@_WV?$stream_output_adapter@_W@__crt_stdio_output@@@__crt_stdio_output@@KAIXZ 10030ead f i libucrt:output.obj
 0001:0002feb1       ?state_count@?$standard_base@_WV?$string_output_adapter@_W@__crt_stdio_output@@@__crt_stdio_output@@KAIXZ 10030eb1 f i libucrt:output.obj
 0001:0002feb5       ?state_transition_table@?$format_validation_base@DV?$stream_output_adapter@D@__crt_stdio_output@@@__crt_stdio_output@@KAPBEXZ 10030eb5 f i libucrt:output.obj
 0001:0002febb       ?state_transition_table@?$format_validation_base@DV?$string_output_adapter@D@__crt_stdio_output@@@__crt_stdio_output@@KAPBEXZ 10030ebb f i libucrt:output.obj
 0001:0002fec1       ?state_transition_table@?$format_validation_base@_WV?$stream_output_adapter@_W@__crt_stdio_output@@@__crt_stdio_output@@KAPBEXZ 10030ec1 f i libucrt:output.obj
 0001:0002fec7       ?state_transition_table@?$format_validation_base@_WV?$string_output_adapter@_W@__crt_stdio_output@@@__crt_stdio_output@@KAPBEXZ 10030ec7 f i libucrt:output.obj
 0001:0002fecd       ?state_transition_table@?$standard_base@DV?$stream_output_adapter@D@__crt_stdio_output@@@__crt_stdio_output@@KAPBEXZ 10030ecd f i libucrt:output.obj
 0001:0002fed3       ?state_transition_table@?$standard_base@DV?$string_output_adapter@D@__crt_stdio_output@@@__crt_stdio_output@@KAPBEXZ 10030ed3 f i libucrt:output.obj
 0001:0002fed9       ?state_transition_table@?$standard_base@_WV?$stream_output_adapter@_W@__crt_stdio_output@@@__crt_stdio_output@@KAPBEXZ 10030ed9 f i libucrt:output.obj
 0001:0002fedf       ?state_transition_table@?$standard_base@_WV?$string_output_adapter@_W@__crt_stdio_output@@@__crt_stdio_output@@KAPBEXZ 10030edf f i libucrt:output.obj
 0001:0002fee5       ?tchar_string@?$common_data@D@__crt_stdio_output@@IAEAAPADD@Z 10030ee5 f i libucrt:output.obj
 0001:0002feeb       ?tchar_string@?$common_data@D@__crt_stdio_output@@IAEAAPADXZ 10030eeb f i libucrt:output.obj
 0001:0002feef       ?tchar_string@?$common_data@_W@__crt_stdio_output@@IAEAAPA_WXZ 10030eef f i libucrt:output.obj
 0001:0002fef3       ?tchar_string@?$common_data@_W@__crt_stdio_output@@IAEAAPA_W_W@Z 10030ef3 f i libucrt:output.obj
 0001:0002fef9       ?to_integer_size@__crt_stdio_output@@YAIW4length_modifier@1@@Z 10030ef9 f i libucrt:output.obj
 0001:0002ff6c       ?type_case_X@?$output_processor@DV?$stream_output_adapter@D@__crt_stdio_output@@V?$format_validation_base@DV?$stream_output_adapter@D@__crt_stdio_output@@@2@@__crt_stdio_output@@AAE_NXZ 10030f6c f i libucrt:output.obj
 0001:0002ff78       ?type_case_X@?$output_processor@DV?$stream_output_adapter@D@__crt_stdio_output@@V?$positional_parameter_base@DV?$stream_output_adapter@D@__crt_stdio_output@@@2@@__crt_stdio_output@@AAE_NXZ 10030f78 f i libucrt:output.obj
 0001:0002ff84       ?type_case_X@?$output_processor@DV?$stream_output_adapter@D@__crt_stdio_output@@V?$standard_base@DV?$stream_output_adapter@D@__crt_stdio_output@@@2@@__crt_stdio_output@@AAE_NXZ 10030f84 f i libucrt:output.obj
 0001:0002ff90       ?type_case_X@?$output_processor@DV?$string_output_adapter@D@__crt_stdio_output@@V?$format_validation_base@DV?$string_output_adapter@D@__crt_stdio_output@@@2@@__crt_stdio_output@@AAE_NXZ 10030f90 f i libucrt:output.obj
 0001:0002ff9c       ?type_case_X@?$output_processor@DV?$string_output_adapter@D@__crt_stdio_output@@V?$positional_parameter_base@DV?$string_output_adapter@D@__crt_stdio_output@@@2@@__crt_stdio_output@@AAE_NXZ 10030f9c f i libucrt:output.obj
 0001:0002ffa8       ?type_case_X@?$output_processor@DV?$string_output_adapter@D@__crt_stdio_output@@V?$standard_base@DV?$string_output_adapter@D@__crt_stdio_output@@@2@@__crt_stdio_output@@AAE_NXZ 10030fa8 f i libucrt:output.obj
 0001:0002ffb4       ?type_case_X@?$output_processor@_WV?$stream_output_adapter@_W@__crt_stdio_output@@V?$format_validation_base@_WV?$stream_output_adapter@_W@__crt_stdio_output@@@2@@__crt_stdio_output@@AAE_NXZ 10030fb4 f i libucrt:output.obj
 0001:0002ffc0       ?type_case_X@?$output_processor@_WV?$stream_output_adapter@_W@__crt_stdio_output@@V?$positional_parameter_base@_WV?$stream_output_adapter@_W@__crt_stdio_output@@@2@@__crt_stdio_output@@AAE_NXZ 10030fc0 f i libucrt:output.obj
 0001:0002ffcc       ?type_case_X@?$output_processor@_WV?$stream_output_adapter@_W@__crt_stdio_output@@V?$standard_base@_WV?$stream_output_adapter@_W@__crt_stdio_output@@@2@@__crt_stdio_output@@AAE_NXZ 10030fcc f i libucrt:output.obj
 0001:0002ffd8       ?type_case_X@?$output_processor@_WV?$string_output_adapter@_W@__crt_stdio_output@@V?$format_validation_base@_WV?$string_output_adapter@_W@__crt_stdio_output@@@2@@__crt_stdio_output@@AAE_NXZ 10030fd8 f i libucrt:output.obj
 0001:0002ffe4       ?type_case_X@?$output_processor@_WV?$string_output_adapter@_W@__crt_stdio_output@@V?$positional_parameter_base@_WV?$string_output_adapter@_W@__crt_stdio_output@@@2@@__crt_stdio_output@@AAE_NXZ 10030fe4 f i libucrt:output.obj
 0001:0002fff0       ?type_case_X@?$output_processor@_WV?$string_output_adapter@_W@__crt_stdio_output@@V?$standard_base@_WV?$string_output_adapter@_W@__crt_stdio_output@@@2@@__crt_stdio_output@@AAE_NXZ 10030ff0 f i libucrt:output.obj
 0001:0002fffc       ?type_case_Z@?$output_processor@DV?$stream_output_adapter@D@__crt_stdio_output@@V?$format_validation_base@DV?$stream_output_adapter@D@__crt_stdio_output@@@2@@__crt_stdio_output@@AAE_NXZ 10030ffc f i libucrt:output.obj
 0001:00030075       ?type_case_Z@?$output_processor@DV?$stream_output_adapter@D@__crt_stdio_output@@V?$positional_parameter_base@DV?$stream_output_adapter@D@__crt_stdio_output@@@2@@__crt_stdio_output@@AAE_NXZ 10031075 f i libucrt:output.obj
 0001:0003018b       ?type_case_Z@?$output_processor@DV?$stream_output_adapter@D@__crt_stdio_output@@V?$standard_base@DV?$stream_output_adapter@D@__crt_stdio_output@@@2@@__crt_stdio_output@@AAE_NXZ 1003118b f i libucrt:output.obj
 0001:00030204       ?type_case_Z@?$output_processor@DV?$string_output_adapter@D@__crt_stdio_output@@V?$format_validation_base@DV?$string_output_adapter@D@__crt_stdio_output@@@2@@__crt_stdio_output@@AAE_NXZ 10031204 f i libucrt:output.obj
 0001:0003027d       ?type_case_Z@?$output_processor@DV?$string_output_adapter@D@__crt_stdio_output@@V?$positional_parameter_base@DV?$string_output_adapter@D@__crt_stdio_output@@@2@@__crt_stdio_output@@AAE_NXZ 1003127d f i libucrt:output.obj
 0001:00030393       ?type_case_Z@?$output_processor@DV?$string_output_adapter@D@__crt_stdio_output@@V?$standard_base@DV?$string_output_adapter@D@__crt_stdio_output@@@2@@__crt_stdio_output@@AAE_NXZ 10031393 f i libucrt:output.obj
 0001:0003040c       ?type_case_Z@?$output_processor@_WV?$stream_output_adapter@_W@__crt_stdio_output@@V?$format_validation_base@_WV?$stream_output_adapter@_W@__crt_stdio_output@@@2@@__crt_stdio_output@@AAE_NXZ 1003140c f i libucrt:output.obj
 0001:00030485       ?type_case_Z@?$output_processor@_WV?$stream_output_adapter@_W@__crt_stdio_output@@V?$positional_parameter_base@_WV?$stream_output_adapter@_W@__crt_stdio_output@@@2@@__crt_stdio_output@@AAE_NXZ 10031485 f i libucrt:output.obj
 0001:0003059b       ?type_case_Z@?$output_processor@_WV?$stream_output_adapter@_W@__crt_stdio_output@@V?$standard_base@_WV?$stream_output_adapter@_W@__crt_stdio_output@@@2@@__crt_stdio_output@@AAE_NXZ 1003159b f i libucrt:output.obj
 0001:00030614       ?type_case_Z@?$output_processor@_WV?$string_output_adapter@_W@__crt_stdio_output@@V?$format_validation_base@_WV?$string_output_adapter@_W@__crt_stdio_output@@@2@@__crt_stdio_output@@AAE_NXZ 10031614 f i libucrt:output.obj
 0001:0003068d       ?type_case_Z@?$output_processor@_WV?$string_output_adapter@_W@__crt_stdio_output@@V?$positional_parameter_base@_WV?$string_output_adapter@_W@__crt_stdio_output@@@2@@__crt_stdio_output@@AAE_NXZ 1003168d f i libucrt:output.obj
 0001:000307a3       ?type_case_Z@?$output_processor@_WV?$string_output_adapter@_W@__crt_stdio_output@@V?$standard_base@_WV?$string_output_adapter@_W@__crt_stdio_output@@@2@@__crt_stdio_output@@AAE_NXZ 100317a3 f i libucrt:output.obj
 0001:0003081c       ?type_case_a@?$output_processor@DV?$stream_output_adapter@D@__crt_stdio_output@@V?$format_validation_base@DV?$stream_output_adapter@D@__crt_stdio_output@@@2@@__crt_stdio_output@@AAE_NXZ 1003181c f i libucrt:output.obj
 0001:000309cb       ?type_case_a@?$output_processor@DV?$stream_output_adapter@D@__crt_stdio_output@@V?$positional_parameter_base@DV?$stream_output_adapter@D@__crt_stdio_output@@@2@@__crt_stdio_output@@AAE_NXZ 100319cb f i libucrt:output.obj
 0001:00030ba1       ?type_case_a@?$output_processor@DV?$stream_output_adapter@D@__crt_stdio_output@@V?$standard_base@DV?$stream_output_adapter@D@__crt_stdio_output@@@2@@__crt_stdio_output@@AAE_NXZ 10031ba1 f i libucrt:output.obj
 0001:00030d50       ?type_case_a@?$output_processor@DV?$string_output_adapter@D@__crt_stdio_output@@V?$format_validation_base@DV?$string_output_adapter@D@__crt_stdio_output@@@2@@__crt_stdio_output@@AAE_NXZ 10031d50 f i libucrt:output.obj
 0001:00030eff       ?type_case_a@?$output_processor@DV?$string_output_adapter@D@__crt_stdio_output@@V?$positional_parameter_base@DV?$string_output_adapter@D@__crt_stdio_output@@@2@@__crt_stdio_output@@AAE_NXZ 10031eff f i libucrt:output.obj
 0001:000310d5       ?type_case_a@?$output_processor@DV?$string_output_adapter@D@__crt_stdio_output@@V?$standard_base@DV?$string_output_adapter@D@__crt_stdio_output@@@2@@__crt_stdio_output@@AAE_NXZ 100320d5 f i libucrt:output.obj
 0001:00031284       ?type_case_a@?$output_processor@_WV?$stream_output_adapter@_W@__crt_stdio_output@@V?$format_validation_base@_WV?$stream_output_adapter@_W@__crt_stdio_output@@@2@@__crt_stdio_output@@AAE_NXZ 10032284 f i libucrt:output.obj
 0001:0003144e       ?type_case_a@?$output_processor@_WV?$stream_output_adapter@_W@__crt_stdio_output@@V?$positional_parameter_base@_WV?$stream_output_adapter@_W@__crt_stdio_output@@@2@@__crt_stdio_output@@AAE_NXZ 1003244e f i libucrt:output.obj
 0001:0003163f       ?type_case_a@?$output_processor@_WV?$stream_output_adapter@_W@__crt_stdio_output@@V?$standard_base@_WV?$stream_output_adapter@_W@__crt_stdio_output@@@2@@__crt_stdio_output@@AAE_NXZ 1003263f f i libucrt:output.obj
 0001:00031809       ?type_case_a@?$output_processor@_WV?$string_output_adapter@_W@__crt_stdio_output@@V?$format_validation_base@_WV?$string_output_adapter@_W@__crt_stdio_output@@@2@@__crt_stdio_output@@AAE_NXZ 10032809 f i libucrt:output.obj
 0001:000319d3       ?type_case_a@?$output_processor@_WV?$string_output_adapter@_W@__crt_stdio_output@@V?$positional_parameter_base@_WV?$string_output_adapter@_W@__crt_stdio_output@@@2@@__crt_stdio_output@@AAE_NXZ 100329d3 f i libucrt:output.obj
 0001:00031bc4       ?type_case_a@?$output_processor@_WV?$string_output_adapter@_W@__crt_stdio_output@@V?$standard_base@_WV?$string_output_adapter@_W@__crt_stdio_output@@@2@@__crt_stdio_output@@AAE_NXZ 10032bc4 f i libucrt:output.obj
 0001:00031d8e       ?type_case_c@?$output_processor@DV?$stream_output_adapter@D@__crt_stdio_output@@V?$format_validation_base@DV?$stream_output_adapter@D@__crt_stdio_output@@@2@@__crt_stdio_output@@AAE_NXZ 10032d8e f i libucrt:output.obj
 0001:00031d98       ?type_case_c@?$output_processor@DV?$stream_output_adapter@D@__crt_stdio_output@@V?$positional_parameter_base@DV?$stream_output_adapter@D@__crt_stdio_output@@@2@@__crt_stdio_output@@AAE_NXZ 10032d98 f i libucrt:output.obj
 0001:00031da2       ?type_case_c@?$output_processor@DV?$stream_output_adapter@D@__crt_stdio_output@@V?$standard_base@DV?$stream_output_adapter@D@__crt_stdio_output@@@2@@__crt_stdio_output@@AAE_NXZ 10032da2 f i libucrt:output.obj
 0001:00031dac       ?type_case_c@?$output_processor@DV?$string_output_adapter@D@__crt_stdio_output@@V?$format_validation_base@DV?$string_output_adapter@D@__crt_stdio_output@@@2@@__crt_stdio_output@@AAE_NXZ 10032dac f i libucrt:output.obj
 0001:00031db6       ?type_case_c@?$output_processor@DV?$string_output_adapter@D@__crt_stdio_output@@V?$positional_parameter_base@DV?$string_output_adapter@D@__crt_stdio_output@@@2@@__crt_stdio_output@@AAE_NXZ 10032db6 f i libucrt:output.obj
 0001:00031dc0       ?type_case_c@?$output_processor@DV?$string_output_adapter@D@__crt_stdio_output@@V?$standard_base@DV?$string_output_adapter@D@__crt_stdio_output@@@2@@__crt_stdio_output@@AAE_NXZ 10032dc0 f i libucrt:output.obj
 0001:00031dca       ?type_case_c@?$output_processor@_WV?$stream_output_adapter@_W@__crt_stdio_output@@V?$format_validation_base@_WV?$stream_output_adapter@_W@__crt_stdio_output@@@2@@__crt_stdio_output@@AAE_NXZ 10032dca f i libucrt:output.obj
 0001:00031dd4       ?type_case_c@?$output_processor@_WV?$stream_output_adapter@_W@__crt_stdio_output@@V?$positional_parameter_base@_WV?$stream_output_adapter@_W@__crt_stdio_output@@@2@@__crt_stdio_output@@AAE_NXZ 10032dd4 f i libucrt:output.obj
 0001:00031dde       ?type_case_c@?$output_processor@_WV?$stream_output_adapter@_W@__crt_stdio_output@@V?$standard_base@_WV?$stream_output_adapter@_W@__crt_stdio_output@@@2@@__crt_stdio_output@@AAE_NXZ 10032dde f i libucrt:output.obj
 0001:00031de8       ?type_case_c@?$output_processor@_WV?$string_output_adapter@_W@__crt_stdio_output@@V?$format_validation_base@_WV?$string_output_adapter@_W@__crt_stdio_output@@@2@@__crt_stdio_output@@AAE_NXZ 10032de8 f i libucrt:output.obj
 0001:00031df2       ?type_case_c@?$output_processor@_WV?$string_output_adapter@_W@__crt_stdio_output@@V?$positional_parameter_base@_WV?$string_output_adapter@_W@__crt_stdio_output@@@2@@__crt_stdio_output@@AAE_NXZ 10032df2 f i libucrt:output.obj
 0001:00031dfc       ?type_case_c@?$output_processor@_WV?$string_output_adapter@_W@__crt_stdio_output@@V?$standard_base@_WV?$string_output_adapter@_W@__crt_stdio_output@@@2@@__crt_stdio_output@@AAE_NXZ 10032dfc f i libucrt:output.obj
 0001:00031e06       ?type_case_c_tchar@?$output_processor@DV?$stream_output_adapter@D@__crt_stdio_output@@V?$format_validation_base@DV?$stream_output_adapter@D@__crt_stdio_output@@@2@@__crt_stdio_output@@AAE_ND@Z 10032e06 f i libucrt:output.obj
 0001:00031eba       ?type_case_c_tchar@?$output_processor@DV?$stream_output_adapter@D@__crt_stdio_output@@V?$positional_parameter_base@DV?$stream_output_adapter@D@__crt_stdio_output@@@2@@__crt_stdio_output@@AAE_ND@Z 10032eba f i libucrt:output.obj
 0001:00031faa       ?type_case_c_tchar@?$output_processor@DV?$stream_output_adapter@D@__crt_stdio_output@@V?$standard_base@DV?$stream_output_adapter@D@__crt_stdio_output@@@2@@__crt_stdio_output@@AAE_ND@Z 10032faa f i libucrt:output.obj
 0001:0003205e       ?type_case_c_tchar@?$output_processor@DV?$string_output_adapter@D@__crt_stdio_output@@V?$format_validation_base@DV?$string_output_adapter@D@__crt_stdio_output@@@2@@__crt_stdio_output@@AAE_ND@Z 1003305e f i libucrt:output.obj
 0001:00032112       ?type_case_c_tchar@?$output_processor@DV?$string_output_adapter@D@__crt_stdio_output@@V?$positional_parameter_base@DV?$string_output_adapter@D@__crt_stdio_output@@@2@@__crt_stdio_output@@AAE_ND@Z 10033112 f i libucrt:output.obj
 0001:00032202       ?type_case_c_tchar@?$output_processor@DV?$string_output_adapter@D@__crt_stdio_output@@V?$standard_base@DV?$string_output_adapter@D@__crt_stdio_output@@@2@@__crt_stdio_output@@AAE_ND@Z 10033202 f i libucrt:output.obj
 0001:000322b6       ?type_case_c_tchar@?$output_processor@_WV?$stream_output_adapter@_W@__crt_stdio_output@@V?$format_validation_base@_WV?$stream_output_adapter@_W@__crt_stdio_output@@@2@@__crt_stdio_output@@AAE_N_W@Z 100332b6 f i libucrt:output.obj
 0001:00032374       ?type_case_c_tchar@?$output_processor@_WV?$stream_output_adapter@_W@__crt_stdio_output@@V?$positional_parameter_base@_WV?$stream_output_adapter@_W@__crt_stdio_output@@@2@@__crt_stdio_output@@AAE_N_W@Z 10033374 f i libucrt:output.obj
 0001:0003244e       ?type_case_c_tchar@?$output_processor@_WV?$stream_output_adapter@_W@__crt_stdio_output@@V?$standard_base@_WV?$stream_output_adapter@_W@__crt_stdio_output@@@2@@__crt_stdio_output@@AAE_N_W@Z 1003344e f i libucrt:output.obj
 0001:0003250c       ?type_case_c_tchar@?$output_processor@_WV?$string_output_adapter@_W@__crt_stdio_output@@V?$format_validation_base@_WV?$string_output_adapter@_W@__crt_stdio_output@@@2@@__crt_stdio_output@@AAE_N_W@Z 1003350c f i libucrt:output.obj
 0001:000325ca       ?type_case_c_tchar@?$output_processor@_WV?$string_output_adapter@_W@__crt_stdio_output@@V?$positional_parameter_base@_WV?$string_output_adapter@_W@__crt_stdio_output@@@2@@__crt_stdio_output@@AAE_N_W@Z 100335ca f i libucrt:output.obj
 0001:000326a4       ?type_case_c_tchar@?$output_processor@_WV?$string_output_adapter@_W@__crt_stdio_output@@V?$standard_base@_WV?$string_output_adapter@_W@__crt_stdio_output@@@2@@__crt_stdio_output@@AAE_N_W@Z 100336a4 f i libucrt:output.obj
 0001:00032762       ?type_case_d@?$output_processor@DV?$stream_output_adapter@D@__crt_stdio_output@@V?$format_validation_base@DV?$stream_output_adapter@D@__crt_stdio_output@@@2@@__crt_stdio_output@@AAE_NXZ 10033762 f i libucrt:output.obj
 0001:00032773       ?type_case_d@?$output_processor@DV?$stream_output_adapter@D@__crt_stdio_output@@V?$positional_parameter_base@DV?$stream_output_adapter@D@__crt_stdio_output@@@2@@__crt_stdio_output@@AAE_NXZ 10033773 f i libucrt:output.obj
 0001:00032784       ?type_case_d@?$output_processor@DV?$stream_output_adapter@D@__crt_stdio_output@@V?$standard_base@DV?$stream_output_adapter@D@__crt_stdio_output@@@2@@__crt_stdio_output@@AAE_NXZ 10033784 f i libucrt:output.obj
 0001:00032795       ?type_case_d@?$output_processor@DV?$string_output_adapter@D@__crt_stdio_output@@V?$format_validation_base@DV?$string_output_adapter@D@__crt_stdio_output@@@2@@__crt_stdio_output@@AAE_NXZ 10033795 f i libucrt:output.obj
 0001:000327a6       ?type_case_d@?$output_processor@DV?$string_output_adapter@D@__crt_stdio_output@@V?$positional_parameter_base@DV?$string_output_adapter@D@__crt_stdio_output@@@2@@__crt_stdio_output@@AAE_NXZ 100337a6 f i libucrt:output.obj
 0001:000327b7       ?type_case_d@?$output_processor@DV?$string_output_adapter@D@__crt_stdio_output@@V?$standard_base@DV?$string_output_adapter@D@__crt_stdio_output@@@2@@__crt_stdio_output@@AAE_NXZ 100337b7 f i libucrt:output.obj
 0001:000327c8       ?type_case_d@?$output_processor@_WV?$stream_output_adapter@_W@__crt_stdio_output@@V?$format_validation_base@_WV?$stream_output_adapter@_W@__crt_stdio_output@@@2@@__crt_stdio_output@@AAE_NXZ 100337c8 f i libucrt:output.obj
 0001:000327d9       ?type_case_d@?$output_processor@_WV?$stream_output_adapter@_W@__crt_stdio_output@@V?$positional_parameter_base@_WV?$stream_output_adapter@_W@__crt_stdio_output@@@2@@__crt_stdio_output@@AAE_NXZ 100337d9 f i libucrt:output.obj
 0001:000327ea       ?type_case_d@?$output_processor@_WV?$stream_output_adapter@_W@__crt_stdio_output@@V?$standard_base@_WV?$stream_output_adapter@_W@__crt_stdio_output@@@2@@__crt_stdio_output@@AAE_NXZ 100337ea f i libucrt:output.obj
 0001:000327fb       ?type_case_d@?$output_processor@_WV?$string_output_adapter@_W@__crt_stdio_output@@V?$format_validation_base@_WV?$string_output_adapter@_W@__crt_stdio_output@@@2@@__crt_stdio_output@@AAE_NXZ 100337fb f i libucrt:output.obj
 0001:0003280c       ?type_case_d@?$output_processor@_WV?$string_output_adapter@_W@__crt_stdio_output@@V?$positional_parameter_base@_WV?$string_output_adapter@_W@__crt_stdio_output@@@2@@__crt_stdio_output@@AAE_NXZ 1003380c f i libucrt:output.obj
 0001:0003281d       ?type_case_d@?$output_processor@_WV?$string_output_adapter@_W@__crt_stdio_output@@V?$standard_base@_WV?$string_output_adapter@_W@__crt_stdio_output@@@2@@__crt_stdio_output@@AAE_NXZ 1003381d f i libucrt:output.obj
 0001:0003282e       ?type_case_integer@?$output_processor@DV?$stream_output_adapter@D@__crt_stdio_output@@V?$format_validation_base@DV?$stream_output_adapter@D@__crt_stdio_output@@@2@@__crt_stdio_output@@AAE_NI_N@Z 1003382e f i libucrt:output.obj
 0001:000329d5       ?type_case_integer@?$output_processor@DV?$stream_output_adapter@D@__crt_stdio_output@@V?$positional_parameter_base@DV?$stream_output_adapter@D@__crt_stdio_output@@@2@@__crt_stdio_output@@AAE_NI_N@Z 100339d5 f i libucrt:output.obj
 0001:00032bb8       ?type_case_integer@?$output_processor@DV?$stream_output_adapter@D@__crt_stdio_output@@V?$standard_base@DV?$stream_output_adapter@D@__crt_stdio_output@@@2@@__crt_stdio_output@@AAE_NI_N@Z 10033bb8 f i libucrt:output.obj
 0001:00032d5f       ?type_case_integer@?$output_processor@DV?$string_output_adapter@D@__crt_stdio_output@@V?$format_validation_base@DV?$string_output_adapter@D@__crt_stdio_output@@@2@@__crt_stdio_output@@AAE_NI_N@Z 10033d5f f i libucrt:output.obj
 0001:00032f06       ?type_case_integer@?$output_processor@DV?$string_output_adapter@D@__crt_stdio_output@@V?$positional_parameter_base@DV?$string_output_adapter@D@__crt_stdio_output@@@2@@__crt_stdio_output@@AAE_NI_N@Z 10033f06 f i libucrt:output.obj
 0001:000330e9       ?type_case_integer@?$output_processor@DV?$string_output_adapter@D@__crt_stdio_output@@V?$standard_base@DV?$string_output_adapter@D@__crt_stdio_output@@@2@@__crt_stdio_output@@AAE_NI_N@Z 100340e9 f i libucrt:output.obj
 0001:00033290       ?type_case_integer@?$output_processor@_WV?$stream_output_adapter@_W@__crt_stdio_output@@V?$format_validation_base@_WV?$stream_output_adapter@_W@__crt_stdio_output@@@2@@__crt_stdio_output@@AAE_NI_N@Z 10034290 f i libucrt:output.obj
 0001:0003343c       ?type_case_integer@?$output_processor@_WV?$stream_output_adapter@_W@__crt_stdio_output@@V?$positional_parameter_base@_WV?$stream_output_adapter@_W@__crt_stdio_output@@@2@@__crt_stdio_output@@AAE_NI_N@Z 1003443c f i libucrt:output.obj
 0001:00033624       ?type_case_integer@?$output_processor@_WV?$stream_output_adapter@_W@__crt_stdio_output@@V?$standard_base@_WV?$stream_output_adapter@_W@__crt_stdio_output@@@2@@__crt_stdio_output@@AAE_NI_N@Z 10034624 f i libucrt:output.obj
 0001:000337d0       ?type_case_integer@?$output_processor@_WV?$string_output_adapter@_W@__crt_stdio_output@@V?$format_validation_base@_WV?$string_output_adapter@_W@__crt_stdio_output@@@2@@__crt_stdio_output@@AAE_NI_N@Z 100347d0 f i libucrt:output.obj
 0001:0003397c       ?type_case_integer@?$output_processor@_WV?$string_output_adapter@_W@__crt_stdio_output@@V?$positional_parameter_base@_WV?$string_output_adapter@_W@__crt_stdio_output@@@2@@__crt_stdio_output@@AAE_NI_N@Z 1003497c f i libucrt:output.obj
 0001:00033b64       ?type_case_integer@?$output_processor@_WV?$string_output_adapter@_W@__crt_stdio_output@@V?$standard_base@_WV?$string_output_adapter@_W@__crt_stdio_output@@@2@@__crt_stdio_output@@AAE_NI_N@Z 10034b64 f i libucrt:output.obj
 0001:00033d10       ?type_case_n@?$output_processor@DV?$stream_output_adapter@D@__crt_stdio_output@@V?$format_validation_base@DV?$stream_output_adapter@D@__crt_stdio_output@@@2@@__crt_stdio_output@@AAE_NXZ 10034d10 f i libucrt:output.obj
 0001:00033da1       ?type_case_n@?$output_processor@DV?$stream_output_adapter@D@__crt_stdio_output@@V?$positional_parameter_base@DV?$stream_output_adapter@D@__crt_stdio_output@@@2@@__crt_stdio_output@@AAE_NXZ 10034da1 f i libucrt:output.obj
 0001:00033e60       ?type_case_n@?$output_processor@DV?$stream_output_adapter@D@__crt_stdio_output@@V?$standard_base@DV?$stream_output_adapter@D@__crt_stdio_output@@@2@@__crt_stdio_output@@AAE_NXZ 10034e60 f i libucrt:output.obj
 0001:00033ef1       ?type_case_n@?$output_processor@DV?$string_output_adapter@D@__crt_stdio_output@@V?$format_validation_base@DV?$string_output_adapter@D@__crt_stdio_output@@@2@@__crt_stdio_output@@AAE_NXZ 10034ef1 f i libucrt:output.obj
 0001:00033f82       ?type_case_n@?$output_processor@DV?$string_output_adapter@D@__crt_stdio_output@@V?$positional_parameter_base@DV?$string_output_adapter@D@__crt_stdio_output@@@2@@__crt_stdio_output@@AAE_NXZ 10034f82 f i libucrt:output.obj
 0001:00034041       ?type_case_n@?$output_processor@DV?$string_output_adapter@D@__crt_stdio_output@@V?$standard_base@DV?$string_output_adapter@D@__crt_stdio_output@@@2@@__crt_stdio_output@@AAE_NXZ 10035041 f i libucrt:output.obj
 0001:000340d2       ?type_case_n@?$output_processor@_WV?$stream_output_adapter@_W@__crt_stdio_output@@V?$format_validation_base@_WV?$stream_output_adapter@_W@__crt_stdio_output@@@2@@__crt_stdio_output@@AAE_NXZ 100350d2 f i libucrt:output.obj
 0001:00034163       ?type_case_n@?$output_processor@_WV?$stream_output_adapter@_W@__crt_stdio_output@@V?$positional_parameter_base@_WV?$stream_output_adapter@_W@__crt_stdio_output@@@2@@__crt_stdio_output@@AAE_NXZ 10035163 f i libucrt:output.obj
 0001:00034222       ?type_case_n@?$output_processor@_WV?$stream_output_adapter@_W@__crt_stdio_output@@V?$standard_base@_WV?$stream_output_adapter@_W@__crt_stdio_output@@@2@@__crt_stdio_output@@AAE_NXZ 10035222 f i libucrt:output.obj
 0001:000342b3       ?type_case_n@?$output_processor@_WV?$string_output_adapter@_W@__crt_stdio_output@@V?$format_validation_base@_WV?$string_output_adapter@_W@__crt_stdio_output@@@2@@__crt_stdio_output@@AAE_NXZ 100352b3 f i libucrt:output.obj
 0001:00034344       ?type_case_n@?$output_processor@_WV?$string_output_adapter@_W@__crt_stdio_output@@V?$positional_parameter_base@_WV?$string_output_adapter@_W@__crt_stdio_output@@@2@@__crt_stdio_output@@AAE_NXZ 10035344 f i libucrt:output.obj
 0001:00034403       ?type_case_n@?$output_processor@_WV?$string_output_adapter@_W@__crt_stdio_output@@V?$standard_base@_WV?$string_output_adapter@_W@__crt_stdio_output@@@2@@__crt_stdio_output@@AAE_NXZ 10035403 f i libucrt:output.obj
 0001:00034494       ?type_case_o@?$output_processor@DV?$stream_output_adapter@D@__crt_stdio_output@@V?$format_validation_base@DV?$stream_output_adapter@D@__crt_stdio_output@@@2@@__crt_stdio_output@@AAE_NXZ 10035494 f i libucrt:output.obj
 0001:000344ba       ?type_case_o@?$output_processor@DV?$stream_output_adapter@D@__crt_stdio_output@@V?$positional_parameter_base@DV?$stream_output_adapter@D@__crt_stdio_output@@@2@@__crt_stdio_output@@AAE_NXZ 100354ba f i libucrt:output.obj
 0001:000344e0       ?type_case_o@?$output_processor@DV?$stream_output_adapter@D@__crt_stdio_output@@V?$standard_base@DV?$stream_output_adapter@D@__crt_stdio_output@@@2@@__crt_stdio_output@@AAE_NXZ 100354e0 f i libucrt:output.obj
 0001:00034506       ?type_case_o@?$output_processor@DV?$string_output_adapter@D@__crt_stdio_output@@V?$format_validation_base@DV?$string_output_adapter@D@__crt_stdio_output@@@2@@__crt_stdio_output@@AAE_NXZ 10035506 f i libucrt:output.obj
 0001:0003452c       ?type_case_o@?$output_processor@DV?$string_output_adapter@D@__crt_stdio_output@@V?$positional_parameter_base@DV?$string_output_adapter@D@__crt_stdio_output@@@2@@__crt_stdio_output@@AAE_NXZ 1003552c f i libucrt:output.obj
 0001:00034552       ?type_case_o@?$output_processor@DV?$string_output_adapter@D@__crt_stdio_output@@V?$standard_base@DV?$string_output_adapter@D@__crt_stdio_output@@@2@@__crt_stdio_output@@AAE_NXZ 10035552 f i libucrt:output.obj
 0001:00034578       ?type_case_o@?$output_processor@_WV?$stream_output_adapter@_W@__crt_stdio_output@@V?$format_validation_base@_WV?$stream_output_adapter@_W@__crt_stdio_output@@@2@@__crt_stdio_output@@AAE_NXZ 10035578 f i libucrt:output.obj
 0001:0003459e       ?type_case_o@?$output_processor@_WV?$stream_output_adapter@_W@__crt_stdio_output@@V?$positional_parameter_base@_WV?$stream_output_adapter@_W@__crt_stdio_output@@@2@@__crt_stdio_output@@AAE_NXZ 1003559e f i libucrt:output.obj
 0001:000345c4       ?type_case_o@?$output_processor@_WV?$stream_output_adapter@_W@__crt_stdio_output@@V?$standard_base@_WV?$stream_output_adapter@_W@__crt_stdio_output@@@2@@__crt_stdio_output@@AAE_NXZ 100355c4 f i libucrt:output.obj
 0001:000345ea       ?type_case_o@?$output_processor@_WV?$string_output_adapter@_W@__crt_stdio_output@@V?$format_validation_base@_WV?$string_output_adapter@_W@__crt_stdio_output@@@2@@__crt_stdio_output@@AAE_NXZ 100355ea f i libucrt:output.obj
 0001:00034610       ?type_case_o@?$output_processor@_WV?$string_output_adapter@_W@__crt_stdio_output@@V?$positional_parameter_base@_WV?$string_output_adapter@_W@__crt_stdio_output@@@2@@__crt_stdio_output@@AAE_NXZ 10035610 f i libucrt:output.obj
 0001:00034636       ?type_case_o@?$output_processor@_WV?$string_output_adapter@_W@__crt_stdio_output@@V?$standard_base@_WV?$string_output_adapter@_W@__crt_stdio_output@@@2@@__crt_stdio_output@@AAE_NXZ 10035636 f i libucrt:output.obj
 0001:0003465c       ?type_case_p@?$output_processor@DV?$stream_output_adapter@D@__crt_stdio_output@@V?$format_validation_base@DV?$stream_output_adapter@D@__crt_stdio_output@@@2@@__crt_stdio_output@@AAE_NXZ 1003565c f i libucrt:output.obj
 0001:0003467a       ?type_case_p@?$output_processor@DV?$stream_output_adapter@D@__crt_stdio_output@@V?$positional_parameter_base@DV?$stream_output_adapter@D@__crt_stdio_output@@@2@@__crt_stdio_output@@AAE_NXZ 1003567a f i libucrt:output.obj
 0001:00034698       ?type_case_p@?$output_processor@DV?$stream_output_adapter@D@__crt_stdio_output@@V?$standard_base@DV?$stream_output_adapter@D@__crt_stdio_output@@@2@@__crt_stdio_output@@AAE_NXZ 10035698 f i libucrt:output.obj
 0001:000346b6       ?type_case_p@?$output_processor@DV?$string_output_adapter@D@__crt_stdio_output@@V?$format_validation_base@DV?$string_output_adapter@D@__crt_stdio_output@@@2@@__crt_stdio_output@@AAE_NXZ 100356b6 f i libucrt:output.obj
 0001:000346d4       ?type_case_p@?$output_processor@DV?$string_output_adapter@D@__crt_stdio_output@@V?$positional_parameter_base@DV?$string_output_adapter@D@__crt_stdio_output@@@2@@__crt_stdio_output@@AAE_NXZ 100356d4 f i libucrt:output.obj
 0001:000346f2       ?type_case_p@?$output_processor@DV?$string_output_adapter@D@__crt_stdio_output@@V?$standard_base@DV?$string_output_adapter@D@__crt_stdio_output@@@2@@__crt_stdio_output@@AAE_NXZ 100356f2 f i libucrt:output.obj
 0001:00034710       ?type_case_p@?$output_processor@_WV?$stream_output_adapter@_W@__crt_stdio_output@@V?$format_validation_base@_WV?$stream_output_adapter@_W@__crt_stdio_output@@@2@@__crt_stdio_output@@AAE_NXZ 10035710 f i libucrt:output.obj
 0001:0003472e       ?type_case_p@?$output_processor@_WV?$stream_output_adapter@_W@__crt_stdio_output@@V?$positional_parameter_base@_WV?$stream_output_adapter@_W@__crt_stdio_output@@@2@@__crt_stdio_output@@AAE_NXZ 1003572e f i libucrt:output.obj
 0001:0003474c       ?type_case_p@?$output_processor@_WV?$stream_output_adapter@_W@__crt_stdio_output@@V?$standard_base@_WV?$stream_output_adapter@_W@__crt_stdio_output@@@2@@__crt_stdio_output@@AAE_NXZ 1003574c f i libucrt:output.obj
 0001:0003476a       ?type_case_p@?$output_processor@_WV?$string_output_adapter@_W@__crt_stdio_output@@V?$format_validation_base@_WV?$string_output_adapter@_W@__crt_stdio_output@@@2@@__crt_stdio_output@@AAE_NXZ 1003576a f i libucrt:output.obj
 0001:00034788       ?type_case_p@?$output_processor@_WV?$string_output_adapter@_W@__crt_stdio_output@@V?$positional_parameter_base@_WV?$string_output_adapter@_W@__crt_stdio_output@@@2@@__crt_stdio_output@@AAE_NXZ 10035788 f i libucrt:output.obj
 0001:000347a6       ?type_case_p@?$output_processor@_WV?$string_output_adapter@_W@__crt_stdio_output@@V?$standard_base@_WV?$string_output_adapter@_W@__crt_stdio_output@@@2@@__crt_stdio_output@@AAE_NXZ 100357a6 f i libucrt:output.obj
 0001:000347c4       ?type_case_s@?$output_processor@DV?$stream_output_adapter@D@__crt_stdio_output@@V?$format_validation_base@DV?$stream_output_adapter@D@__crt_stdio_output@@@2@@__crt_stdio_output@@AAE_NXZ 100357c4 f i libucrt:output.obj
 0001:00034851       ?type_case_s@?$output_processor@DV?$stream_output_adapter@D@__crt_stdio_output@@V?$positional_parameter_base@DV?$stream_output_adapter@D@__crt_stdio_output@@@2@@__crt_stdio_output@@AAE_NXZ 10035851 f i libucrt:output.obj
 0001:000348ee       ?type_case_s@?$output_processor@DV?$stream_output_adapter@D@__crt_stdio_output@@V?$standard_base@DV?$stream_output_adapter@D@__crt_stdio_output@@@2@@__crt_stdio_output@@AAE_NXZ 100358ee f i libucrt:output.obj
 0001:0003497b       ?type_case_s@?$output_processor@DV?$string_output_adapter@D@__crt_stdio_output@@V?$format_validation_base@DV?$string_output_adapter@D@__crt_stdio_output@@@2@@__crt_stdio_output@@AAE_NXZ 1003597b f i libucrt:output.obj
 0001:00034a08       ?type_case_s@?$output_processor@DV?$string_output_adapter@D@__crt_stdio_output@@V?$positional_parameter_base@DV?$string_output_adapter@D@__crt_stdio_output@@@2@@__crt_stdio_output@@AAE_NXZ 10035a08 f i libucrt:output.obj
 0001:00034aa5       ?type_case_s@?$output_processor@DV?$string_output_adapter@D@__crt_stdio_output@@V?$standard_base@DV?$string_output_adapter@D@__crt_stdio_output@@@2@@__crt_stdio_output@@AAE_NXZ 10035aa5 f i libucrt:output.obj
 0001:00034b32       ?type_case_s@?$output_processor@_WV?$stream_output_adapter@_W@__crt_stdio_output@@V?$format_validation_base@_WV?$stream_output_adapter@_W@__crt_stdio_output@@@2@@__crt_stdio_output@@AAE_NXZ 10035b32 f i libucrt:output.obj
 0001:00034bc1       ?type_case_s@?$output_processor@_WV?$stream_output_adapter@_W@__crt_stdio_output@@V?$positional_parameter_base@_WV?$stream_output_adapter@_W@__crt_stdio_output@@@2@@__crt_stdio_output@@AAE_NXZ 10035bc1 f i libucrt:output.obj
 0001:00034c61       ?type_case_s@?$output_processor@_WV?$stream_output_adapter@_W@__crt_stdio_output@@V?$standard_base@_WV?$stream_output_adapter@_W@__crt_stdio_output@@@2@@__crt_stdio_output@@AAE_NXZ 10035c61 f i libucrt:output.obj
 0001:00034cf0       ?type_case_s@?$output_processor@_WV?$string_output_adapter@_W@__crt_stdio_output@@V?$format_validation_base@_WV?$string_output_adapter@_W@__crt_stdio_output@@@2@@__crt_stdio_output@@AAE_NXZ 10035cf0 f i libucrt:output.obj
 0001:00034d7f       ?type_case_s@?$output_processor@_WV?$string_output_adapter@_W@__crt_stdio_output@@V?$positional_parameter_base@_WV?$string_output_adapter@_W@__crt_stdio_output@@@2@@__crt_stdio_output@@AAE_NXZ 10035d7f f i libucrt:output.obj
 0001:00034e1f       ?type_case_s@?$output_processor@_WV?$string_output_adapter@_W@__crt_stdio_output@@V?$standard_base@_WV?$string_output_adapter@_W@__crt_stdio_output@@@2@@__crt_stdio_output@@AAE_NXZ 10035e1f f i libucrt:output.obj
 0001:00034eae       ?type_case_s_compute_narrow_string_length@?$output_processor@DV?$stream_output_adapter@D@__crt_stdio_output@@V?$format_validation_base@DV?$stream_output_adapter@D@__crt_stdio_output@@@2@@__crt_stdio_output@@ABEHHD@Z 10035eae f i libucrt:output.obj
 0001:00034ec9       ?type_case_s_compute_narrow_string_length@?$output_processor@DV?$stream_output_adapter@D@__crt_stdio_output@@V?$positional_parameter_base@DV?$stream_output_adapter@D@__crt_stdio_output@@@2@@__crt_stdio_output@@ABEHHD@Z 10035ec9 f i libucrt:output.obj
 0001:00034ee4       ?type_case_s_compute_narrow_string_length@?$output_processor@DV?$stream_output_adapter@D@__crt_stdio_output@@V?$standard_base@DV?$stream_output_adapter@D@__crt_stdio_output@@@2@@__crt_stdio_output@@ABEHHD@Z 10035ee4 f i libucrt:output.obj
 0001:00034eff       ?type_case_s_compute_narrow_string_length@?$output_processor@DV?$string_output_adapter@D@__crt_stdio_output@@V?$format_validation_base@DV?$string_output_adapter@D@__crt_stdio_output@@@2@@__crt_stdio_output@@ABEHHD@Z 10035eff f i libucrt:output.obj
 0001:00034f1a       ?type_case_s_compute_narrow_string_length@?$output_processor@DV?$string_output_adapter@D@__crt_stdio_output@@V?$positional_parameter_base@DV?$string_output_adapter@D@__crt_stdio_output@@@2@@__crt_stdio_output@@ABEHHD@Z 10035f1a f i libucrt:output.obj
 0001:00034f35       ?type_case_s_compute_narrow_string_length@?$output_processor@DV?$string_output_adapter@D@__crt_stdio_output@@V?$standard_base@DV?$string_output_adapter@D@__crt_stdio_output@@@2@@__crt_stdio_output@@ABEHHD@Z 10035f35 f i libucrt:output.obj
 0001:00034f50       ?type_case_s_compute_narrow_string_length@?$output_processor@_WV?$stream_output_adapter@_W@__crt_stdio_output@@V?$format_validation_base@_WV?$stream_output_adapter@_W@__crt_stdio_output@@@2@@__crt_stdio_output@@ABEHH_W@Z 10035f50 f i libucrt:output.obj
 0001:00034f9c       ?type_case_s_compute_narrow_string_length@?$output_processor@_WV?$stream_output_adapter@_W@__crt_stdio_output@@V?$positional_parameter_base@_WV?$stream_output_adapter@_W@__crt_stdio_output@@@2@@__crt_stdio_output@@ABEHH_W@Z 10035f9c f i libucrt:output.obj
 0001:00034fe8       ?type_case_s_compute_narrow_string_length@?$output_processor@_WV?$stream_output_adapter@_W@__crt_stdio_output@@V?$standard_base@_WV?$stream_output_adapter@_W@__crt_stdio_output@@@2@@__crt_stdio_output@@ABEHH_W@Z 10035fe8 f i libucrt:output.obj
 0001:00035034       ?type_case_s_compute_narrow_string_length@?$output_processor@_WV?$string_output_adapter@_W@__crt_stdio_output@@V?$format_validation_base@_WV?$string_output_adapter@_W@__crt_stdio_output@@@2@@__crt_stdio_output@@ABEHH_W@Z 10036034 f i libucrt:output.obj
 0001:00035080       ?type_case_s_compute_narrow_string_length@?$output_processor@_WV?$string_output_adapter@_W@__crt_stdio_output@@V?$positional_parameter_base@_WV?$string_output_adapter@_W@__crt_stdio_output@@@2@@__crt_stdio_output@@ABEHH_W@Z 10036080 f i libucrt:output.obj
 0001:000350cc       ?type_case_s_compute_narrow_string_length@?$output_processor@_WV?$string_output_adapter@_W@__crt_stdio_output@@V?$standard_base@_WV?$string_output_adapter@_W@__crt_stdio_output@@@2@@__crt_stdio_output@@ABEHH_W@Z 100360cc f i libucrt:output.obj
 0001:00035118       ?type_case_u@?$output_processor@DV?$stream_output_adapter@D@__crt_stdio_output@@V?$format_validation_base@DV?$stream_output_adapter@D@__crt_stdio_output@@@2@@__crt_stdio_output@@AAE_NXZ 10036118 f i libucrt:output.obj
 0001:00035124       ?type_case_u@?$output_processor@DV?$stream_output_adapter@D@__crt_stdio_output@@V?$positional_parameter_base@DV?$stream_output_adapter@D@__crt_stdio_output@@@2@@__crt_stdio_output@@AAE_NXZ 10036124 f i libucrt:output.obj
 0001:00035130       ?type_case_u@?$output_processor@DV?$stream_output_adapter@D@__crt_stdio_output@@V?$standard_base@DV?$stream_output_adapter@D@__crt_stdio_output@@@2@@__crt_stdio_output@@AAE_NXZ 10036130 f i libucrt:output.obj
 0001:0003513c       ?type_case_u@?$output_processor@DV?$string_output_adapter@D@__crt_stdio_output@@V?$format_validation_base@DV?$string_output_adapter@D@__crt_stdio_output@@@2@@__crt_stdio_output@@AAE_NXZ 1003613c f i libucrt:output.obj
 0001:00035148       ?type_case_u@?$output_processor@DV?$string_output_adapter@D@__crt_stdio_output@@V?$positional_parameter_base@DV?$string_output_adapter@D@__crt_stdio_output@@@2@@__crt_stdio_output@@AAE_NXZ 10036148 f i libucrt:output.obj
 0001:00035154       ?type_case_u@?$output_processor@DV?$string_output_adapter@D@__crt_stdio_output@@V?$standard_base@DV?$string_output_adapter@D@__crt_stdio_output@@@2@@__crt_stdio_output@@AAE_NXZ 10036154 f i libucrt:output.obj
 0001:00035160       ?type_case_u@?$output_processor@_WV?$stream_output_adapter@_W@__crt_stdio_output@@V?$format_validation_base@_WV?$stream_output_adapter@_W@__crt_stdio_output@@@2@@__crt_stdio_output@@AAE_NXZ 10036160 f i libucrt:output.obj
 0001:0003516c       ?type_case_u@?$output_processor@_WV?$stream_output_adapter@_W@__crt_stdio_output@@V?$positional_parameter_base@_WV?$stream_output_adapter@_W@__crt_stdio_output@@@2@@__crt_stdio_output@@AAE_NXZ 1003616c f i libucrt:output.obj
 0001:00035178       ?type_case_u@?$output_processor@_WV?$stream_output_adapter@_W@__crt_stdio_output@@V?$standard_base@_WV?$stream_output_adapter@_W@__crt_stdio_output@@@2@@__crt_stdio_output@@AAE_NXZ 10036178 f i libucrt:output.obj
 0001:00035184       ?type_case_u@?$output_processor@_WV?$string_output_adapter@_W@__crt_stdio_output@@V?$format_validation_base@_WV?$string_output_adapter@_W@__crt_stdio_output@@@2@@__crt_stdio_output@@AAE_NXZ 10036184 f i libucrt:output.obj
 0001:00035190       ?type_case_u@?$output_processor@_WV?$string_output_adapter@_W@__crt_stdio_output@@V?$positional_parameter_base@_WV?$string_output_adapter@_W@__crt_stdio_output@@@2@@__crt_stdio_output@@AAE_NXZ 10036190 f i libucrt:output.obj
 0001:0003519c       ?type_case_u@?$output_processor@_WV?$string_output_adapter@_W@__crt_stdio_output@@V?$standard_base@_WV?$string_output_adapter@_W@__crt_stdio_output@@@2@@__crt_stdio_output@@AAE_NXZ 1003619c f i libucrt:output.obj
 0001:000351a8       ?type_case_x@?$output_processor@DV?$stream_output_adapter@D@__crt_stdio_output@@V?$format_validation_base@DV?$stream_output_adapter@D@__crt_stdio_output@@@2@@__crt_stdio_output@@AAE_NXZ 100361a8 f i libucrt:output.obj
 0001:000351b4       ?type_case_x@?$output_processor@DV?$stream_output_adapter@D@__crt_stdio_output@@V?$positional_parameter_base@DV?$stream_output_adapter@D@__crt_stdio_output@@@2@@__crt_stdio_output@@AAE_NXZ 100361b4 f i libucrt:output.obj
 0001:000351c0       ?type_case_x@?$output_processor@DV?$stream_output_adapter@D@__crt_stdio_output@@V?$standard_base@DV?$stream_output_adapter@D@__crt_stdio_output@@@2@@__crt_stdio_output@@AAE_NXZ 100361c0 f i libucrt:output.obj
 0001:000351cc       ?type_case_x@?$output_processor@DV?$string_output_adapter@D@__crt_stdio_output@@V?$format_validation_base@DV?$string_output_adapter@D@__crt_stdio_output@@@2@@__crt_stdio_output@@AAE_NXZ 100361cc f i libucrt:output.obj
 0001:000351d8       ?type_case_x@?$output_processor@DV?$string_output_adapter@D@__crt_stdio_output@@V?$positional_parameter_base@DV?$string_output_adapter@D@__crt_stdio_output@@@2@@__crt_stdio_output@@AAE_NXZ 100361d8 f i libucrt:output.obj
 0001:000351e4       ?type_case_x@?$output_processor@DV?$string_output_adapter@D@__crt_stdio_output@@V?$standard_base@DV?$string_output_adapter@D@__crt_stdio_output@@@2@@__crt_stdio_output@@AAE_NXZ 100361e4 f i libucrt:output.obj
 0001:000351f0       ?type_case_x@?$output_processor@_WV?$stream_output_adapter@_W@__crt_stdio_output@@V?$format_validation_base@_WV?$stream_output_adapter@_W@__crt_stdio_output@@@2@@__crt_stdio_output@@AAE_NXZ 100361f0 f i libucrt:output.obj
 0001:000351fc       ?type_case_x@?$output_processor@_WV?$stream_output_adapter@_W@__crt_stdio_output@@V?$positional_parameter_base@_WV?$stream_output_adapter@_W@__crt_stdio_output@@@2@@__crt_stdio_output@@AAE_NXZ 100361fc f i libucrt:output.obj
 0001:00035208       ?type_case_x@?$output_processor@_WV?$stream_output_adapter@_W@__crt_stdio_output@@V?$standard_base@_WV?$stream_output_adapter@_W@__crt_stdio_output@@@2@@__crt_stdio_output@@AAE_NXZ 10036208 f i libucrt:output.obj
 0001:00035214       ?type_case_x@?$output_processor@_WV?$string_output_adapter@_W@__crt_stdio_output@@V?$format_validation_base@_WV?$string_output_adapter@_W@__crt_stdio_output@@@2@@__crt_stdio_output@@AAE_NXZ 10036214 f i libucrt:output.obj
 0001:00035220       ?type_case_x@?$output_processor@_WV?$string_output_adapter@_W@__crt_stdio_output@@V?$positional_parameter_base@_WV?$string_output_adapter@_W@__crt_stdio_output@@@2@@__crt_stdio_output@@AAE_NXZ 10036220 f i libucrt:output.obj
 0001:0003522c       ?type_case_x@?$output_processor@_WV?$string_output_adapter@_W@__crt_stdio_output@@V?$standard_base@_WV?$string_output_adapter@_W@__crt_stdio_output@@@2@@__crt_stdio_output@@AAE_NXZ 1003622c f i libucrt:output.obj
 0001:00035238       ?unset_flag@?$output_processor@DV?$stream_output_adapter@D@__crt_stdio_output@@V?$format_validation_base@DV?$stream_output_adapter@D@__crt_stdio_output@@@2@@__crt_stdio_output@@AAEXI@Z 10036238 f i libucrt:output.obj
 0001:0003524d       ?unset_flag@?$output_processor@DV?$stream_output_adapter@D@__crt_stdio_output@@V?$positional_parameter_base@DV?$stream_output_adapter@D@__crt_stdio_output@@@2@@__crt_stdio_output@@AAEXI@Z 1003624d f i libucrt:output.obj
 0001:00035262       ?unset_flag@?$output_processor@DV?$stream_output_adapter@D@__crt_stdio_output@@V?$standard_base@DV?$stream_output_adapter@D@__crt_stdio_output@@@2@@__crt_stdio_output@@AAEXI@Z 10036262 f i libucrt:output.obj
 0001:00035277       ?unset_flag@?$output_processor@DV?$string_output_adapter@D@__crt_stdio_output@@V?$format_validation_base@DV?$string_output_adapter@D@__crt_stdio_output@@@2@@__crt_stdio_output@@AAEXI@Z 10036277 f i libucrt:output.obj
 0001:0003528c       ?unset_flag@?$output_processor@DV?$string_output_adapter@D@__crt_stdio_output@@V?$positional_parameter_base@DV?$string_output_adapter@D@__crt_stdio_output@@@2@@__crt_stdio_output@@AAEXI@Z 1003628c f i libucrt:output.obj
 0001:000352a1       ?unset_flag@?$output_processor@DV?$string_output_adapter@D@__crt_stdio_output@@V?$standard_base@DV?$string_output_adapter@D@__crt_stdio_output@@@2@@__crt_stdio_output@@AAEXI@Z 100362a1 f i libucrt:output.obj
 0001:000352b6       ?unset_flag@?$output_processor@_WV?$stream_output_adapter@_W@__crt_stdio_output@@V?$format_validation_base@_WV?$stream_output_adapter@_W@__crt_stdio_output@@@2@@__crt_stdio_output@@AAEXI@Z 100362b6 f i libucrt:output.obj
 0001:000352cb       ?unset_flag@?$output_processor@_WV?$stream_output_adapter@_W@__crt_stdio_output@@V?$positional_parameter_base@_WV?$stream_output_adapter@_W@__crt_stdio_output@@@2@@__crt_stdio_output@@AAEXI@Z 100362cb f i libucrt:output.obj
 0001:000352e0       ?unset_flag@?$output_processor@_WV?$stream_output_adapter@_W@__crt_stdio_output@@V?$standard_base@_WV?$stream_output_adapter@_W@__crt_stdio_output@@@2@@__crt_stdio_output@@AAEXI@Z 100362e0 f i libucrt:output.obj
 0001:000352f5       ?unset_flag@?$output_processor@_WV?$string_output_adapter@_W@__crt_stdio_output@@V?$format_validation_base@_WV?$string_output_adapter@_W@__crt_stdio_output@@@2@@__crt_stdio_output@@AAEXI@Z 100362f5 f i libucrt:output.obj
 0001:0003530a       ?unset_flag@?$output_processor@_WV?$string_output_adapter@_W@__crt_stdio_output@@V?$positional_parameter_base@_WV?$string_output_adapter@_W@__crt_stdio_output@@@2@@__crt_stdio_output@@AAEXI@Z 1003630a f i libucrt:output.obj
 0001:0003531f       ?unset_flag@?$output_processor@_WV?$string_output_adapter@_W@__crt_stdio_output@@V?$standard_base@_WV?$string_output_adapter@_W@__crt_stdio_output@@@2@@__crt_stdio_output@@AAEXI@Z 1003631f f i libucrt:output.obj
 0001:00035334       ?update_field_width@?$positional_parameter_base@DV?$stream_output_adapter@D@__crt_stdio_output@@@__crt_stdio_output@@IAE_NXZ 10036334 f i libucrt:output.obj
 0001:00035417       ?update_field_width@?$positional_parameter_base@DV?$string_output_adapter@D@__crt_stdio_output@@@__crt_stdio_output@@IAE_NXZ 10036417 f i libucrt:output.obj
 0001:000354fa       ?update_field_width@?$positional_parameter_base@_WV?$stream_output_adapter@_W@__crt_stdio_output@@@__crt_stdio_output@@IAE_NXZ 100364fa f i libucrt:output.obj
 0001:000355de       ?update_field_width@?$positional_parameter_base@_WV?$string_output_adapter@_W@__crt_stdio_output@@@__crt_stdio_output@@IAE_NXZ 100365de f i libucrt:output.obj
 0001:000356c2       ?update_field_width@?$standard_base@DV?$stream_output_adapter@D@__crt_stdio_output@@@__crt_stdio_output@@IAE_NXZ 100366c2 f i libucrt:output.obj
 0001:000356d6       ?update_field_width@?$standard_base@DV?$string_output_adapter@D@__crt_stdio_output@@@__crt_stdio_output@@IAE_NXZ 100366d6 f i libucrt:output.obj
 0001:000356ea       ?update_field_width@?$standard_base@_WV?$stream_output_adapter@_W@__crt_stdio_output@@@__crt_stdio_output@@IAE_NXZ 100366ea f i libucrt:output.obj
 0001:000356fe       ?update_field_width@?$standard_base@_WV?$string_output_adapter@_W@__crt_stdio_output@@@__crt_stdio_output@@IAE_NXZ 100366fe f i libucrt:output.obj
 0001:00035712       ?update_precision@?$positional_parameter_base@DV?$stream_output_adapter@D@__crt_stdio_output@@@__crt_stdio_output@@IAE_NXZ 10036712 f i libucrt:output.obj
 0001:000357f5       ?update_precision@?$positional_parameter_base@DV?$string_output_adapter@D@__crt_stdio_output@@@__crt_stdio_output@@IAE_NXZ 100367f5 f i libucrt:output.obj
 0001:000358d8       ?update_precision@?$positional_parameter_base@_WV?$stream_output_adapter@_W@__crt_stdio_output@@@__crt_stdio_output@@IAE_NXZ 100368d8 f i libucrt:output.obj
 0001:000359bc       ?update_precision@?$positional_parameter_base@_WV?$string_output_adapter@_W@__crt_stdio_output@@@__crt_stdio_output@@IAE_NXZ 100369bc f i libucrt:output.obj
 0001:00035aa0       ?update_precision@?$standard_base@DV?$stream_output_adapter@D@__crt_stdio_output@@@__crt_stdio_output@@IAE_NXZ 10036aa0 f i libucrt:output.obj
 0001:00035ab4       ?update_precision@?$standard_base@DV?$string_output_adapter@D@__crt_stdio_output@@@__crt_stdio_output@@IAE_NXZ 10036ab4 f i libucrt:output.obj
 0001:00035ac8       ?update_precision@?$standard_base@_WV?$stream_output_adapter@_W@__crt_stdio_output@@@__crt_stdio_output@@IAE_NXZ 10036ac8 f i libucrt:output.obj
 0001:00035adc       ?update_precision@?$standard_base@_WV?$string_output_adapter@_W@__crt_stdio_output@@@__crt_stdio_output@@IAE_NXZ 10036adc f i libucrt:output.obj
 0001:00035af0       ?validate@?$stream_output_adapter@D@__crt_stdio_output@@QBE_NXZ 10036af0 f i libucrt:output.obj
 0001:00035b19       ?validate@?$stream_output_adapter@_W@__crt_stdio_output@@QBE_NXZ 10036b19 f i libucrt:output.obj
 0001:00035b3a       ?validate@?$string_output_adapter@D@__crt_stdio_output@@QBE_NXZ 10036b3a f i libucrt:output.obj
 0001:00035b5b       ?validate@?$string_output_adapter@_W@__crt_stdio_output@@QBE_NXZ 10036b5b f i libucrt:output.obj
 0001:00035b7c       ?validate_and_store_parameter_data@?$positional_parameter_base@DV?$stream_output_adapter@D@__crt_stdio_output@@@__crt_stdio_output@@AAE_NAAUparameter_data@12@W4parameter_type@12@DW4length_modifier@2@@Z 10036b7c f i libucrt:output.obj
 0001:00035bd9       ?validate_and_store_parameter_data@?$positional_parameter_base@DV?$string_output_adapter@D@__crt_stdio_output@@@__crt_stdio_output@@AAE_NAAUparameter_data@12@W4parameter_type@12@DW4length_modifier@2@@Z 10036bd9 f i libucrt:output.obj
 0001:00035c36       ?validate_and_store_parameter_data@?$positional_parameter_base@_WV?$stream_output_adapter@_W@__crt_stdio_output@@@__crt_stdio_output@@AAE_NAAUparameter_data@12@W4parameter_type@12@_WW4length_modifier@2@@Z 10036c36 f i libucrt:output.obj
 0001:00035c96       ?validate_and_store_parameter_data@?$positional_parameter_base@_WV?$string_output_adapter@_W@__crt_stdio_output@@@__crt_stdio_output@@AAE_NAAUparameter_data@12@W4parameter_type@12@_WW4length_modifier@2@@Z 10036c96 f i libucrt:output.obj
 0001:00035cf6       ?validate_and_update_state_at_beginning_of_format_character@?$positional_parameter_base@DV?$stream_output_adapter@D@__crt_stdio_output@@@__crt_stdio_output@@IAE_NXZ 10036cf6 f i libucrt:output.obj
 0001:00035e2e       ?validate_and_update_state_at_beginning_of_format_character@?$positional_parameter_base@DV?$string_output_adapter@D@__crt_stdio_output@@@__crt_stdio_output@@IAE_NXZ 10036e2e f i libucrt:output.obj
 0001:00035f66       ?validate_and_update_state_at_beginning_of_format_character@?$positional_parameter_base@_WV?$stream_output_adapter@_W@__crt_stdio_output@@@__crt_stdio_output@@IAE_NXZ 10036f66 f i libucrt:output.obj
 0001:000360a9       ?validate_and_update_state_at_beginning_of_format_character@?$positional_parameter_base@_WV?$string_output_adapter@_W@__crt_stdio_output@@@__crt_stdio_output@@IAE_NXZ 100370a9 f i libucrt:output.obj
 0001:000361ec       ?validate_and_update_state_at_beginning_of_format_character@?$standard_base@DV?$stream_output_adapter@D@__crt_stdio_output@@@__crt_stdio_output@@IAE_NXZ 100371ec f i libucrt:output.obj
 0001:000361ef       ?validate_and_update_state_at_beginning_of_format_character@?$standard_base@DV?$string_output_adapter@D@__crt_stdio_output@@@__crt_stdio_output@@IAE_NXZ 100371ef f i libucrt:output.obj
 0001:000361f2       ?validate_and_update_state_at_beginning_of_format_character@?$standard_base@_WV?$stream_output_adapter@_W@__crt_stdio_output@@@__crt_stdio_output@@IAE_NXZ 100371f2 f i libucrt:output.obj
 0001:000361f5       ?validate_and_update_state_at_beginning_of_format_character@?$standard_base@_WV?$string_output_adapter@_W@__crt_stdio_output@@@__crt_stdio_output@@IAE_NXZ 100371f5 f i libucrt:output.obj
 0001:000361f8       ?validate_and_update_state_at_end_of_format_string@?$format_validation_base@DV?$stream_output_adapter@D@__crt_stdio_output@@@__crt_stdio_output@@IBE_NXZ 100371f8 f i libucrt:output.obj
 0001:00036222       ?validate_and_update_state_at_end_of_format_string@?$format_validation_base@DV?$string_output_adapter@D@__crt_stdio_output@@@__crt_stdio_output@@IBE_NXZ 10037222 f i libucrt:output.obj
 0001:0003624c       ?validate_and_update_state_at_end_of_format_string@?$format_validation_base@_WV?$stream_output_adapter@_W@__crt_stdio_output@@@__crt_stdio_output@@IBE_NXZ 1003724c f i libucrt:output.obj
 0001:00036276       ?validate_and_update_state_at_end_of_format_string@?$format_validation_base@_WV?$string_output_adapter@_W@__crt_stdio_output@@@__crt_stdio_output@@IBE_NXZ 10037276 f i libucrt:output.obj
 0001:000362a0       ?validate_and_update_state_at_end_of_format_string@?$positional_parameter_base@DV?$stream_output_adapter@D@__crt_stdio_output@@@__crt_stdio_output@@IAE_NXZ 100372a0 f i libucrt:output.obj
 0001:00036346       ?validate_and_update_state_at_end_of_format_string@?$positional_parameter_base@DV?$string_output_adapter@D@__crt_stdio_output@@@__crt_stdio_output@@IAE_NXZ 10037346 f i libucrt:output.obj
 0001:000363ec       ?validate_and_update_state_at_end_of_format_string@?$positional_parameter_base@_WV?$stream_output_adapter@_W@__crt_stdio_output@@@__crt_stdio_output@@IAE_NXZ 100373ec f i libucrt:output.obj
 0001:00036492       ?validate_and_update_state_at_end_of_format_string@?$positional_parameter_base@_WV?$string_output_adapter@_W@__crt_stdio_output@@@__crt_stdio_output@@IAE_NXZ 10037492 f i libucrt:output.obj
 0001:00036538       ?validate_and_update_state_at_end_of_format_string@?$standard_base@DV?$stream_output_adapter@D@__crt_stdio_output@@@__crt_stdio_output@@IBE_NXZ 10037538 f i libucrt:output.obj
 0001:0003653b       ?validate_and_update_state_at_end_of_format_string@?$standard_base@DV?$string_output_adapter@D@__crt_stdio_output@@@__crt_stdio_output@@IBE_NXZ 1003753b f i libucrt:output.obj
 0001:0003653e       ?validate_and_update_state_at_end_of_format_string@?$standard_base@_WV?$stream_output_adapter@_W@__crt_stdio_output@@@__crt_stdio_output@@IBE_NXZ 1003753e f i libucrt:output.obj
 0001:00036541       ?validate_and_update_state_at_end_of_format_string@?$standard_base@_WV?$string_output_adapter@_W@__crt_stdio_output@@@__crt_stdio_output@@IBE_NXZ 10037541 f i libucrt:output.obj
 0001:00036544       ?validate_state_for_type_case_a@?$positional_parameter_base@DV?$stream_output_adapter@D@__crt_stdio_output@@@__crt_stdio_output@@IAE_NXZ 10037544 f i libucrt:output.obj
 0001:000365a6       ?validate_state_for_type_case_a@?$positional_parameter_base@DV?$string_output_adapter@D@__crt_stdio_output@@@__crt_stdio_output@@IAE_NXZ 100375a6 f i libucrt:output.obj
 0001:00036608       ?validate_state_for_type_case_a@?$positional_parameter_base@_WV?$stream_output_adapter@_W@__crt_stdio_output@@@__crt_stdio_output@@IAE_NXZ 10037608 f i libucrt:output.obj
 0001:0003666a       ?validate_state_for_type_case_a@?$positional_parameter_base@_WV?$string_output_adapter@_W@__crt_stdio_output@@@__crt_stdio_output@@IAE_NXZ 1003766a f i libucrt:output.obj
 0001:000366cc       ?validate_state_for_type_case_a@?$standard_base@DV?$stream_output_adapter@D@__crt_stdio_output@@@__crt_stdio_output@@IBE_NXZ 100376cc f i libucrt:output.obj
 0001:000366cf       ?validate_state_for_type_case_a@?$standard_base@DV?$string_output_adapter@D@__crt_stdio_output@@@__crt_stdio_output@@IBE_NXZ 100376cf f i libucrt:output.obj
 0001:000366d2       ?validate_state_for_type_case_a@?$standard_base@_WV?$stream_output_adapter@_W@__crt_stdio_output@@@__crt_stdio_output@@IBE_NXZ 100376d2 f i libucrt:output.obj
 0001:000366d5       ?validate_state_for_type_case_a@?$standard_base@_WV?$string_output_adapter@_W@__crt_stdio_output@@@__crt_stdio_output@@IBE_NXZ 100376d5 f i libucrt:output.obj
 0001:000366d8       ?validate_stream_is_ansi_if_required@?$__acrt_stdio_char_traits@D@@SA_NQAU_iobuf@@@Z 100376d8 f i libucrt:output.obj
 0001:0003677f       ?validate_stream_is_ansi_if_required@?$__acrt_stdio_char_traits@_W@@SA_NQAU_iobuf@@@Z 1003777f f i libucrt:output.obj
 0001:00036782       ?wide_null_string@?$output_processor@DV?$stream_output_adapter@D@__crt_stdio_output@@V?$format_validation_base@DV?$stream_output_adapter@D@__crt_stdio_output@@@2@@__crt_stdio_output@@CAPA_WXZ 10037782 f i libucrt:output.obj
 0001:00036788       ?wide_null_string@?$output_processor@DV?$stream_output_adapter@D@__crt_stdio_output@@V?$positional_parameter_base@DV?$stream_output_adapter@D@__crt_stdio_output@@@2@@__crt_stdio_output@@CAPA_WXZ 10037788 f i libucrt:output.obj
 0001:0003678e       ?wide_null_string@?$output_processor@DV?$stream_output_adapter@D@__crt_stdio_output@@V?$standard_base@DV?$stream_output_adapter@D@__crt_stdio_output@@@2@@__crt_stdio_output@@CAPA_WXZ 1003778e f i libucrt:output.obj
 0001:00036794       ?wide_null_string@?$output_processor@DV?$string_output_adapter@D@__crt_stdio_output@@V?$format_validation_base@DV?$string_output_adapter@D@__crt_stdio_output@@@2@@__crt_stdio_output@@CAPA_WXZ 10037794 f i libucrt:output.obj
 0001:0003679a       ?wide_null_string@?$output_processor@DV?$string_output_adapter@D@__crt_stdio_output@@V?$positional_parameter_base@DV?$string_output_adapter@D@__crt_stdio_output@@@2@@__crt_stdio_output@@CAPA_WXZ 1003779a f i libucrt:output.obj
 0001:000367a0       ?wide_null_string@?$output_processor@DV?$string_output_adapter@D@__crt_stdio_output@@V?$standard_base@DV?$string_output_adapter@D@__crt_stdio_output@@@2@@__crt_stdio_output@@CAPA_WXZ 100377a0 f i libucrt:output.obj
 0001:000367a6       ?wide_null_string@?$output_processor@_WV?$stream_output_adapter@_W@__crt_stdio_output@@V?$format_validation_base@_WV?$stream_output_adapter@_W@__crt_stdio_output@@@2@@__crt_stdio_output@@CAPA_WXZ 100377a6 f i libucrt:output.obj
 0001:000367ac       ?wide_null_string@?$output_processor@_WV?$stream_output_adapter@_W@__crt_stdio_output@@V?$positional_parameter_base@_WV?$stream_output_adapter@_W@__crt_stdio_output@@@2@@__crt_stdio_output@@CAPA_WXZ 100377ac f i libucrt:output.obj
 0001:000367b2       ?wide_null_string@?$output_processor@_WV?$stream_output_adapter@_W@__crt_stdio_output@@V?$standard_base@_WV?$stream_output_adapter@_W@__crt_stdio_output@@@2@@__crt_stdio_output@@CAPA_WXZ 100377b2 f i libucrt:output.obj
 0001:000367b8       ?wide_null_string@?$output_processor@_WV?$string_output_adapter@_W@__crt_stdio_output@@V?$format_validation_base@_WV?$string_output_adapter@_W@__crt_stdio_output@@@2@@__crt_stdio_output@@CAPA_WXZ 100377b8 f i libucrt:output.obj
 0001:000367be       ?wide_null_string@?$output_processor@_WV?$string_output_adapter@_W@__crt_stdio_output@@V?$positional_parameter_base@_WV?$string_output_adapter@_W@__crt_stdio_output@@@2@@__crt_stdio_output@@CAPA_WXZ 100377be f i libucrt:output.obj
 0001:000367c4       ?wide_null_string@?$output_processor@_WV?$string_output_adapter@_W@__crt_stdio_output@@V?$standard_base@_WV?$string_output_adapter@_W@__crt_stdio_output@@@2@@__crt_stdio_output@@CAPA_WXZ 100377c4 f i libucrt:output.obj
 0001:000367ca       ?write_character@?$output_adapter_common@DV?$stream_output_adapter@D@__crt_stdio_output@@@__crt_stdio_output@@QBEXDQAH@Z 100377ca f i libucrt:output.obj
 0001:000367f0       ?write_character@?$output_adapter_common@_WV?$stream_output_adapter@_W@__crt_stdio_output@@@__crt_stdio_output@@QBEX_WQAH@Z 100377f0 f i libucrt:output.obj
 0001:00036816       ?write_character@?$string_output_adapter@D@__crt_stdio_output@@QBE_NDQAH@Z 10037816 f i libucrt:output.obj
 0001:00036868       ?write_character@?$string_output_adapter@_W@__crt_stdio_output@@QBE_N_WQAH@Z 10037868 f i libucrt:output.obj
 0001:000368be       ?write_character_without_count_update@?$stream_output_adapter@D@__crt_stdio_output@@QBE_ND@Z 100378be f i libucrt:output.obj
 0001:00036900       ?write_character_without_count_update@?$stream_output_adapter@_W@__crt_stdio_output@@QBE_N_W@Z 10037900 f i libucrt:output.obj
 0001:00036946       ?write_stored_string_tchar@?$output_processor@DV?$stream_output_adapter@D@__crt_stdio_output@@V?$format_validation_base@DV?$stream_output_adapter@D@__crt_stdio_output@@@2@@__crt_stdio_output@@AAE_ND@Z 10037946 f i libucrt:output.obj
 0001:00036a19       ?write_stored_string_tchar@?$output_processor@DV?$stream_output_adapter@D@__crt_stdio_output@@V?$positional_parameter_base@DV?$stream_output_adapter@D@__crt_stdio_output@@@2@@__crt_stdio_output@@AAE_ND@Z 10037a19 f i libucrt:output.obj
 0001:00036aec       ?write_stored_string_tchar@?$output_processor@DV?$stream_output_adapter@D@__crt_stdio_output@@V?$standard_base@DV?$stream_output_adapter@D@__crt_stdio_output@@@2@@__crt_stdio_output@@AAE_ND@Z 10037aec f i libucrt:output.obj
 0001:00036bbf       ?write_stored_string_tchar@?$output_processor@DV?$string_output_adapter@D@__crt_stdio_output@@V?$format_validation_base@DV?$string_output_adapter@D@__crt_stdio_output@@@2@@__crt_stdio_output@@AAE_ND@Z 10037bbf f i libucrt:output.obj
 0001:00036c92       ?write_stored_string_tchar@?$output_processor@DV?$string_output_adapter@D@__crt_stdio_output@@V?$positional_parameter_base@DV?$string_output_adapter@D@__crt_stdio_output@@@2@@__crt_stdio_output@@AAE_ND@Z 10037c92 f i libucrt:output.obj
 0001:00036d65       ?write_stored_string_tchar@?$output_processor@DV?$string_output_adapter@D@__crt_stdio_output@@V?$standard_base@DV?$string_output_adapter@D@__crt_stdio_output@@@2@@__crt_stdio_output@@AAE_ND@Z 10037d65 f i libucrt:output.obj
 0001:00036e38       ?write_stored_string_tchar@?$output_processor@_WV?$stream_output_adapter@_W@__crt_stdio_output@@V?$format_validation_base@_WV?$stream_output_adapter@_W@__crt_stdio_output@@@2@@__crt_stdio_output@@AAE_N_W@Z 10037e38 f i libucrt:output.obj
 0001:00036ef2       ?write_stored_string_tchar@?$output_processor@_WV?$stream_output_adapter@_W@__crt_stdio_output@@V?$positional_parameter_base@_WV?$stream_output_adapter@_W@__crt_stdio_output@@@2@@__crt_stdio_output@@AAE_N_W@Z 10037ef2 f i libucrt:output.obj
 0001:00036fac       ?write_stored_string_tchar@?$output_processor@_WV?$stream_output_adapter@_W@__crt_stdio_output@@V?$standard_base@_WV?$stream_output_adapter@_W@__crt_stdio_output@@@2@@__crt_stdio_output@@AAE_N_W@Z 10037fac f i libucrt:output.obj
 0001:00037066       ?write_stored_string_tchar@?$output_processor@_WV?$string_output_adapter@_W@__crt_stdio_output@@V?$format_validation_base@_WV?$string_output_adapter@_W@__crt_stdio_output@@@2@@__crt_stdio_output@@AAE_N_W@Z 10038066 f i libucrt:output.obj
 0001:00037120       ?write_stored_string_tchar@?$output_processor@_WV?$string_output_adapter@_W@__crt_stdio_output@@V?$positional_parameter_base@_WV?$string_output_adapter@_W@__crt_stdio_output@@@2@@__crt_stdio_output@@AAE_N_W@Z 10038120 f i libucrt:output.obj
 0001:000371da       ?write_stored_string_tchar@?$output_processor@_WV?$string_output_adapter@_W@__crt_stdio_output@@V?$standard_base@_WV?$string_output_adapter@_W@__crt_stdio_output@@@2@@__crt_stdio_output@@AAE_N_W@Z 100381da f i libucrt:output.obj
 0001:00037294       ?write_string@?$stream_output_adapter@D@__crt_stdio_output@@QBEXQBDHQAHAAV__crt_deferred_errno_cache@@@Z 10038294 f i libucrt:output.obj
 0001:000372c9       ?write_string@?$stream_output_adapter@_W@__crt_stdio_output@@QBEXQB_WHQAHAAV__crt_deferred_errno_cache@@@Z 100382c9 f i libucrt:output.obj
 0001:000372fe       ?write_string@?$string_output_adapter@D@__crt_stdio_output@@QBEXQBDHQAHAAV__crt_deferred_errno_cache@@@Z 100382fe f i libucrt:output.obj
 0001:0003737e       ?write_string@?$string_output_adapter@_W@__crt_stdio_output@@QBEXQB_WHQAHAAV__crt_deferred_errno_cache@@@Z 1003837e f i libucrt:output.obj
 0001:0003740d       ?write_string_impl@?$output_adapter_common@DV?$stream_output_adapter@D@__crt_stdio_output@@@__crt_stdio_output@@IBEXQBDHQAHAAV__crt_deferred_errno_cache@@@Z 1003840d f i libucrt:output.obj
 0001:000374d5       ?write_string_impl@?$output_adapter_common@_WV?$stream_output_adapter@_W@__crt_stdio_output@@@__crt_stdio_output@@IBEXQB_WHQAHAAV__crt_deferred_errno_cache@@@Z 100384d5 f i libucrt:output.obj
 0001:000375a0       ___acrt_isleadbyte_l_noupdate 100385a0 f i libucrt:output.obj
 0001:000375c1       ___stdio_common_vfprintf   100385c1 f   libucrt:output.obj
 0001:00037667       ___stdio_common_vfprintf_p 10038667 f   libucrt:output.obj
 0001:0003770d       ___stdio_common_vfprintf_s 1003870d f   libucrt:output.obj
 0001:000377b3       ___stdio_common_vfwprintf  100387b3 f   libucrt:output.obj
 0001:00037859       ___stdio_common_vfwprintf_p 10038859 f   libucrt:output.obj
 0001:000378ff       ___stdio_common_vfwprintf_s 100388ff f   libucrt:output.obj
 0001:000379a5       ___stdio_common_vsnprintf_s 100389a5 f   libucrt:output.obj
 0001:000379d5       ___stdio_common_vsnwprintf_s 100389d5 f   libucrt:output.obj
 0001:00037a05       ___stdio_common_vsprintf   10038a05 f   libucrt:output.obj
 0001:00037a32       ___stdio_common_vsprintf_p 10038a32 f   libucrt:output.obj
 0001:00037a5f       ___stdio_common_vsprintf_s 10038a5f f   libucrt:output.obj
 0001:00037a8c       ___stdio_common_vswprintf  10038a8c f   libucrt:output.obj
 0001:00037ab9       ___stdio_common_vswprintf_p 10038ab9 f   libucrt:output.obj
 0001:00037ae6       ___stdio_common_vswprintf_s 10038ae6 f   libucrt:output.obj
 0001:00037b13       _ldexp                     10038b13 f   libucrt:ldexp.obj
 0001:00037d8c       __errcode                  10038d8c f   libucrt:fpexcept.obj
 0001:00037dcd       __except1                  10038dcd f   libucrt:fpexcept.obj
 0001:00037ece       __except2                  10038ece f   libucrt:fpexcept.obj
 0001:00038017       __handle_exc               10039017 f   libucrt:fpexcept.obj
 0001:0003827f       __handle_qnan2             1003927f f   libucrt:fpexcept.obj
 0001:0003828f       __raise_exc                1003928f f   libucrt:fpexcept.obj
 0001:000382ba       __raise_exc_ex             100392ba f   libucrt:fpexcept.obj
 0001:0003866d       __raise_excf               1003966d f   libucrt:fpexcept.obj
 0001:00038698       __set_errno_from_matherr   10039698 f   libucrt:fpexcept.obj
 0001:000386d2       __umatherr                 100396d2 f   libucrt:fpexcept.obj
 0001:0003879c       __initterm                 1003979c f   libucrt:initterm.obj
 0001:0003880f       __initterm_e               1003980f f   libucrt:initterm.obj
 0001:00038892       __seh_filter_dll           10039892 f   libucrt:exception_filter.obj
 0001:000388ba       __seh_filter_exe           100398ba f   libucrt:exception_filter.obj
 0001:00038a79       ??$?RE@__crt_internal_free_policy@@QBEXQBE@Z 10039a79 f i libucrt:argv_parsing.obj
 0001:00038a8f       ??$?RPAD@__crt_internal_free_policy@@QBEXQBQAD@Z 10039a8f f i libucrt:argv_parsing.obj
 0001:00038aa5       ??$?RPA_W@__crt_internal_free_policy@@QBEXQBQA_W@Z 10039aa5 f i libucrt:argv_parsing.obj
 0001:00038dbe       ??$get_module_file_name@$$TAAY0BAF@DH@?$__crt_char_traits@D@@SAK$$QA$$TAAY0BAF@D$$QAH@Z 10039dbe f i libucrt:argv_parsing.obj
 0001:00038de1       ??$get_module_file_name@$$TAAY0BAF@_WH@?$__crt_char_traits@_W@@SAK$$QA$$TAAY0BAF@_W$$QAH@Z 10039de1 f i libucrt:argv_parsing.obj
 0001:000391d4       ??$set_program_name@PAD@?$__crt_char_traits@D@@SAX$$QAPAD@Z 1003a1d4 f i libucrt:argv_parsing.obj
 0001:000391e9       ??$set_program_name@PA_W@?$__crt_char_traits@_W@@SAX$$QAPA_W@Z 1003a1e9 f i libucrt:argv_parsing.obj
 0001:00039226       ??0?$__crt_unique_heap_ptr@EU__crt_internal_free_policy@@@@QAE@QAE@Z 1003a226 f i libucrt:argv_parsing.obj
 0001:0003923a       ??0?$__crt_unique_heap_ptr@PADU__crt_internal_free_policy@@@@QAE@QAPAD@Z 1003a23a f i libucrt:argv_parsing.obj
 0001:0003924e       ??0?$__crt_unique_heap_ptr@PA_WU__crt_internal_free_policy@@@@QAE@QAPA_W@Z 1003a24e f i libucrt:argv_parsing.obj
 0001:00039262       ??1?$__crt_unique_heap_ptr@EU__crt_internal_free_policy@@@@QAE@XZ 1003a262 f i libucrt:argv_parsing.obj
 0001:00039278       ??1?$__crt_unique_heap_ptr@PADU__crt_internal_free_policy@@@@QAE@XZ 1003a278 f i libucrt:argv_parsing.obj
 0001:0003928e       ??1?$__crt_unique_heap_ptr@PA_WU__crt_internal_free_policy@@@@QAE@XZ 1003a28e f i libucrt:argv_parsing.obj
 0001:000392a4       ??B?$__crt_unique_heap_ptr@EU__crt_internal_free_policy@@@@QBE_NXZ 1003a2a4 f i libucrt:argv_parsing.obj
 0001:000392e1       ?detach@?$__crt_unique_heap_ptr@EU__crt_internal_free_policy@@@@QAEPAEXZ 1003a2e1 f i libucrt:argv_parsing.obj
 0001:000392e7       ?detach@?$__crt_unique_heap_ptr@PADU__crt_internal_free_policy@@@@QAEPAPADXZ 1003a2e7 f i libucrt:argv_parsing.obj
 0001:000392ed       ?detach@?$__crt_unique_heap_ptr@PA_WU__crt_internal_free_policy@@@@QAEPAPA_WXZ 1003a2ed f i libucrt:argv_parsing.obj
 0001:00039313       ?get@?$__crt_unique_heap_ptr@EU__crt_internal_free_policy@@@@QBEPAEXZ 1003a313 f i libucrt:argv_parsing.obj
 0001:00039316       ?get@?$__crt_unique_heap_ptr@PADU__crt_internal_free_policy@@@@QBEPAPADXZ 1003a316 f i libucrt:argv_parsing.obj
 0001:00039319       ?get@?$__crt_unique_heap_ptr@PA_WU__crt_internal_free_policy@@@@QBEPAPA_WXZ 1003a319 f i libucrt:argv_parsing.obj
 0001:0003931c       ?get_address_of@?$__crt_unique_heap_ptr@PADU__crt_internal_free_policy@@@@QAEPAPAPADXZ 1003a31c f i libucrt:argv_parsing.obj
 0001:0003931f       ?get_address_of@?$__crt_unique_heap_ptr@PA_WU__crt_internal_free_policy@@@@QAEPAPAPA_WXZ 1003a31f f i libucrt:argv_parsing.obj
 0001:0003933a       ?is_valid@?$__crt_unique_heap_ptr@EU__crt_internal_free_policy@@@@QBE_NXZ 1003a33a f i libucrt:argv_parsing.obj
 0001:00039341       ?release@?$__crt_unique_heap_ptr@EU__crt_internal_free_policy@@@@QAEXXZ 1003a341 f i libucrt:argv_parsing.obj
 0001:00039357       ?release@?$__crt_unique_heap_ptr@PADU__crt_internal_free_policy@@@@QAEXXZ 1003a357 f i libucrt:argv_parsing.obj
 0001:0003936d       ?release@?$__crt_unique_heap_ptr@PA_WU__crt_internal_free_policy@@@@QAEXXZ 1003a36d f i libucrt:argv_parsing.obj
 0001:000393a2       ___acrt_allocate_buffer_for_argv 1003a3a2 f   libucrt:argv_parsing.obj
 0001:00039404       __configure_narrow_argv    1003a404 f   libucrt:argv_parsing.obj
 0001:00039411       __configure_wide_argv      1003a411 f   libucrt:argv_parsing.obj
 0001:0003941e       __set_pgmptr               1003a41e f i libucrt:argv_parsing.obj
 0001:00039430       __set_wpgmptr              1003a430 f i libucrt:argv_parsing.obj
 0001:00039442       ??$?R_W@__crt_internal_free_policy@@QBEXQB_W@Z 1003a442 f i libucrt:environment_initialization.obj
 0001:00039928       ??$get_environment_from_os@$$V@?$__crt_char_traits@D@@SAPADXZ 1003a928 f i libucrt:environment_initialization.obj
 0001:0003992d       ??$get_environment_from_os@$$V@?$__crt_char_traits@_W@@SAPA_WXZ 1003a92d f i libucrt:environment_initialization.obj
 0001:00039a7e       ??$set_variable_in_environment_nolock@PADH@?$__crt_char_traits@D@@SAH$$QAPAD$$QAH@Z 1003aa7e f i libucrt:environment_initialization.obj
 0001:00039a9c       ??$set_variable_in_environment_nolock@PA_WH@?$__crt_char_traits@_W@@SAH$$QAPA_W$$QAH@Z 1003aa9c f i libucrt:environment_initialization.obj
 0001:00039aba       ??$tcscpy_s@PADABIAAPAD@?$__crt_char_traits@D@@SAH$$QAPADABIAAPAD@Z 1003aaba f i libucrt:environment_initialization.obj
 0001:00039adf       ??$tcscpy_s@PA_WABIAAPA_W@?$__crt_char_traits@_W@@SAH$$QAPA_WABIAAPA_W@Z 1003aadf f i libucrt:environment_initialization.obj
 0001:00039b04       ??$tcslen@AAPAD@?$__crt_char_traits@D@@SAIAAPAD@Z 1003ab04 f i libucrt:environment_initialization.obj
 0001:00039b22       ??$tcslen@AAPA_W@?$__crt_char_traits@_W@@SAIAAPA_W@Z 1003ab22 f i libucrt:environment_initialization.obj
 0001:00039b47       ??$uninitialize@A6AXAAPAPAD@Z@?$dual_state_global@PAPAD@__crt_state_management@@QAEXA6AXAAPAPAD@Z@Z 1003ab47 f i libucrt:environment_initialization.obj
 0001:00039b97       ??$uninitialize@A6AXAAPAPA_W@Z@?$dual_state_global@PAPA_W@__crt_state_management@@QAEXA6AXAAPAPA_W@Z@Z 1003ab97 f i libucrt:environment_initialization.obj
 0001:00039c29       ??0?$__crt_unique_heap_ptr@_WU__crt_internal_free_policy@@@@QAE@QA_W@Z 1003ac29 f i libucrt:environment_initialization.obj
 0001:00039c3d       ??1?$__crt_unique_heap_ptr@_WU__crt_internal_free_policy@@@@QAE@XZ 1003ac3d f i libucrt:environment_initialization.obj
 0001:00039c53       ??B?$__crt_unique_heap_ptr@PADU__crt_internal_free_policy@@@@QBE_NXZ 1003ac53 f i libucrt:environment_initialization.obj
 0001:00039c5a       ??B?$__crt_unique_heap_ptr@PA_WU__crt_internal_free_policy@@@@QBE_NXZ 1003ac5a f i libucrt:environment_initialization.obj
 0001:00039c61       ??B?$__crt_unique_heap_ptr@_WU__crt_internal_free_policy@@@@QBE_NXZ 1003ac61 f i libucrt:environment_initialization.obj
 0001:00039c68       ?__crt_compute_required_transform_buffer_count@@YAIIQBD@Z 1003ac68 f i libucrt:environment_initialization.obj
 0001:00039c8b       ?__crt_compute_required_transform_buffer_count@@YAIIQB_W@Z 1003ac8b f i libucrt:environment_initialization.obj
 0001:00039cb0       ?__crt_transform_string@@YAIIQBDQA_WI@Z 1003acb0 f i libucrt:environment_initialization.obj
 0001:00039cd6       ?__crt_transform_string@@YAIIQB_WQADI@Z 1003acd6 f i libucrt:environment_initialization.obj
 0001:00039d00       ?detach@?$__crt_unique_heap_ptr@DU__crt_internal_free_policy@@@@QAEPADXZ 1003ad00 f i libucrt:environment_initialization.obj
 0001:00039d06       ?detach@?$__crt_unique_heap_ptr@_WU__crt_internal_free_policy@@@@QAEPA_WXZ 1003ad06 f i libucrt:environment_initialization.obj
 0001:00039d0c       ?get@?$__crt_unique_heap_ptr@_WU__crt_internal_free_policy@@@@QBEPA_WXZ 1003ad0c f i libucrt:environment_initialization.obj
 0001:00039d0f       ?get_current_state_index@__crt_state_management@@YAIXZ 1003ad0f f i libucrt:environment_initialization.obj
 0001:00039d36       ?initialize@?$dual_state_global@PAPAD@__crt_state_management@@QAEXQAPAD@Z 1003ad36 f i libucrt:environment_initialization.obj
 0001:00039d65       ?initialize@?$dual_state_global@PAPA_W@__crt_state_management@@QAEXQAPA_W@Z 1003ad65 f i libucrt:environment_initialization.obj
 0001:00039d94       ?is_valid@?$__crt_unique_heap_ptr@PADU__crt_internal_free_policy@@@@QBE_NXZ 1003ad94 f i libucrt:environment_initialization.obj
 0001:00039d9b       ?is_valid@?$__crt_unique_heap_ptr@PA_WU__crt_internal_free_policy@@@@QBE_NXZ 1003ad9b f i libucrt:environment_initialization.obj
 0001:00039da2       ?is_valid@?$__crt_unique_heap_ptr@_WU__crt_internal_free_policy@@@@QBE_NXZ 1003ada2 f i libucrt:environment_initialization.obj
 0001:00039daf       ?release@?$__crt_unique_heap_ptr@_WU__crt_internal_free_policy@@@@QAEXXZ 1003adaf f i libucrt:environment_initialization.obj
 0001:00039dc5       ?value@?$dual_state_global@PAPAD@__crt_state_management@@QAEAAPAPADXZ 1003adc5 f i libucrt:environment_initialization.obj
 0001:00039dc8       ?value@?$dual_state_global@PAPA_W@__crt_state_management@@QAEAAPAPA_WXZ 1003adc8 f i libucrt:environment_initialization.obj
 0001:00039dcb       ___dcrt_get_or_create_narrow_environment_nolock 1003adcb f   libucrt:environment_initialization.obj
 0001:00039dd0       ___dcrt_get_or_create_wide_environment_nolock 1003add0 f   libucrt:environment_initialization.obj
 0001:00039dd5       ___dcrt_uninitialize_environments_nolock 1003add5 f   libucrt:environment_initialization.obj
 0001:00039e19       ___p__environ              1003ae19 f   libucrt:environment_initialization.obj
 0001:00039e1f       ___p__wenviron             1003ae1f f   libucrt:environment_initialization.obj
 0001:00039e25       __get_initial_narrow_environment 1003ae25 f   libucrt:environment_initialization.obj
 0001:00039e3e       __get_initial_wide_environment 1003ae3e f   libucrt:environment_initialization.obj
 0001:00039e57       __initialize_narrow_environment 1003ae57 f   libucrt:environment_initialization.obj
 0001:00039e5c       __initialize_wide_environment 1003ae5c f   libucrt:environment_initialization.obj
 0001:00039e61       ??$?BP6AXXZ@__crt_fast_encoded_nullptr_t@@QBEPAP6AXXZXZ 1003ae61 f i libucrt:onexit.obj
 0001:00039e7f       ??$?RP6AXXZ@__crt_internal_free_policy@@QBEXQBQ6AXXZ@Z 1003ae7f f i libucrt:onexit.obj
 0001:00039fc3       ??$__crt_fast_encode_pointer@P6AHXZ@@YAP6AHXZQ6AHXZ@Z 1003afc3 f i libucrt:onexit.obj
 0001:0003a070       ??0?$__crt_unique_heap_ptr@P6AXXZU__crt_internal_free_policy@@@@QAE@QAP6AXXZ@Z 1003b070 f i libucrt:onexit.obj
 0001:0003a084       ??1?$__crt_unique_heap_ptr@P6AXXZU__crt_internal_free_policy@@@@QAE@XZ 1003b084 f i libucrt:onexit.obj
 0001:0003a09a       ??1scoped_global_state_reset@__crt_state_management@@QAE@XZ 1003b09a f i libucrt:onexit.obj
 0001:0003a3c5       ?detach@?$__crt_unique_heap_ptr@P6AXXZU__crt_internal_free_policy@@@@QAEPAP6AXXZXZ 1003b3c5 f i libucrt:onexit.obj
 0001:0003a3cb       ?release@?$__crt_unique_heap_ptr@P6AXXZU__crt_internal_free_policy@@@@QAEXXZ 1003b3cb f i libucrt:onexit.obj
 0001:0003a3e1       __crt_at_quick_exit        1003b3e1 f   libucrt:onexit.obj
 0001:0003a3fc       __crt_atexit               1003b3fc f   libucrt:onexit.obj
 0001:0003a417       __execute_onexit_table     1003b417 f   libucrt:onexit.obj
 0001:0003a451       __initialize_onexit_table  1003b451 f   libucrt:onexit.obj
 0001:0003a49d       __register_onexit_function 1003b49d f   libucrt:onexit.obj
 0001:0003a668       ?__acrt_stdio_is_initialized@@YA_NXZ 1003b668 f i libucrt:initialization.obj
 0001:0003a675       ?initialize@?$dual_state_global@PAU__crt_locale_data@@@__crt_state_management@@QAEXQAU__crt_locale_data@@@Z 1003b675 f i libucrt:initialization.obj
 0001:0003a6a4       ___acrt_initialize         1003b6a4 f   libucrt:initialization.obj
 0001:0003a6ba       ___acrt_thread_attach      1003b6ba f   libucrt:initialization.obj
 0001:0003a6c7       ___acrt_thread_detach      1003b6c7 f   libucrt:initialization.obj
 0001:0003a6d1       ___acrt_uninitialize       1003b6d1 f   libucrt:initialization.obj
 0001:0003a70d       ___acrt_uninitialize_critical 1003b70d f   libucrt:initialization.obj
 0001:0003a73e       __get_terminate            1003b73e f   libucrt:terminate.obj
 0001:0003a754       _set_terminate             1003b754 f   libucrt:terminate.obj
 0001:0003a77c       _terminate                 1003b77c f   libucrt:terminate.obj
 0001:0003a837       _strcpy_s                  1003b837 f   libucrt:strcpy_s.obj
 0001:0003a8a7       ??$is_overflow_condition@K@__crt_strtox@@YA_NIK@Z 1003b8a7 f i libucrt:atox.obj
 0001:0003a8e4       ??$is_overflow_condition@_K@__crt_strtox@@YA_NI_K@Z 1003b8e4 f i libucrt:atox.obj
 0001:0003a935       ??$make_c_string_character_source@D$$T@__crt_strtox@@YA?AV?$c_string_character_source@D@0@QBD$$T@Z 1003b935 f i libucrt:atox.obj
 0001:0003a956       ??$make_c_string_character_source@_W$$T@__crt_strtox@@YA?AV?$c_string_character_source@_W@0@QB_W$$T@Z 1003b956 f i libucrt:atox.obj
 0001:0003a977       ??$parse_integer@KV?$c_string_character_source@D@__crt_strtox@@@__crt_strtox@@YAKQAU__crt_locale_pointers@@V?$c_string_character_source@D@0@H_N@Z 1003b977 f i libucrt:atox.obj
 0001:0003ac2a       ??$parse_integer@KV?$c_string_character_source@_W@__crt_strtox@@@__crt_strtox@@YAKQAU__crt_locale_pointers@@V?$c_string_character_source@_W@0@H_N@Z 1003bc2a f i libucrt:atox.obj
 0001:0003b3fb       ??$parse_integer@_KV?$c_string_character_source@D@__crt_strtox@@@__crt_strtox@@YA_KQAU__crt_locale_pointers@@V?$c_string_character_source@D@0@H_N@Z 1003c3fb f i libucrt:atox.obj
 0001:0003b74b       ??$parse_integer@_KV?$c_string_character_source@_W@__crt_strtox@@@__crt_strtox@@YA_KQAU__crt_locale_pointers@@V?$c_string_character_source@_W@0@H_N@Z 1003c74b f i libucrt:atox.obj
 0001:0003c018       ??$parse_integer_from_string@JD$$T@__crt_strtox@@YAJQBD$$THQAU__crt_locale_pointers@@@Z 1003d018 f i libucrt:atox.obj
 0001:0003c050       ??$parse_integer_from_string@J_W$$T@__crt_strtox@@YAJQB_W$$THQAU__crt_locale_pointers@@@Z 1003d050 f i libucrt:atox.obj
 0001:0003c088       ??$parse_integer_from_string@_JD$$T@__crt_strtox@@YA_JQBD$$THQAU__crt_locale_pointers@@@Z 1003d088 f i libucrt:atox.obj
 0001:0003c0c0       ??$parse_integer_from_string@_J_W$$T@__crt_strtox@@YA_JQB_W$$THQAU__crt_locale_pointers@@@Z 1003d0c0 f i libucrt:atox.obj
 0001:0003c0f8       ??0?$c_string_character_source@D@__crt_strtox@@QAE@QBDQAPBD@Z 1003d0f8 f i libucrt:atox.obj
 0001:0003c11b       ??0?$c_string_character_source@_W@__crt_strtox@@QAE@QB_WQAPB_W@Z 1003d11b f i libucrt:atox.obj
 0001:0003c13e       ??1?$c_string_character_source@D@__crt_strtox@@QAE@XZ 1003d13e f i libucrt:atox.obj
 0001:0003c14d       ??1?$c_string_character_source@_W@__crt_strtox@@QAE@XZ 1003d14d f i libucrt:atox.obj
 0001:0003c15c       ?get@?$c_string_character_source@D@__crt_strtox@@QAEDXZ 1003d15c f i libucrt:atox.obj
 0001:0003c166       ?get@?$c_string_character_source@_W@__crt_strtox@@QAE_WXZ 1003d166 f i libucrt:atox.obj
 0001:0003c173       ?is_space@__crt_strtox@@YA_NDQAU__crt_locale_pointers@@@Z 1003d173 f i libucrt:atox.obj
 0001:0003c198       ?is_space@__crt_strtox@@YA_N_WPAU__crt_locale_pointers@@@Z 1003d198 f i libucrt:atox.obj
 0001:0003c1b6       ?maximum_signed_value@__crt_strtox@@YAJK@Z 1003d1b6 f i libucrt:atox.obj
 0001:0003c1bc       ?maximum_signed_value@__crt_strtox@@YA_J_K@Z 1003d1bc f i libucrt:atox.obj
 0001:0003c1c7       ?minimum_signed_value@__crt_strtox@@YAJK@Z 1003d1c7 f i libucrt:atox.obj
 0001:0003c1cd       ?minimum_signed_value@__crt_strtox@@YA_J_K@Z 1003d1cd f i libucrt:atox.obj
 0001:0003c1d7       ?parse_digit@__crt_strtox@@YAID@Z 1003d1d7 f i libucrt:atox.obj
 0001:0003c21f       ?parse_digit@__crt_strtox@@YAI_W@Z 1003d21f f i libucrt:atox.obj
 0001:0003c490       ?restore_state@?$c_string_character_source@D@__crt_strtox@@QAE_NQBD@Z 1003d490 f i libucrt:atox.obj
 0001:0003c4a4       ?restore_state@?$c_string_character_source@_W@__crt_strtox@@QAE_NQB_W@Z 1003d4a4 f i libucrt:atox.obj
 0001:0003c4b8       ?save_state@?$c_string_character_source@D@__crt_strtox@@QBEPBDXZ 1003d4b8 f i libucrt:atox.obj
 0001:0003c4bb       ?save_state@?$c_string_character_source@_W@__crt_strtox@@QBEPB_WXZ 1003d4bb f i libucrt:atox.obj
 0001:0003c4be       ?unget@?$c_string_character_source@D@__crt_strtox@@QAEXD@Z 1003d4be f i libucrt:atox.obj
 0001:0003c4f1       ?unget@?$c_string_character_source@_W@__crt_strtox@@QAEX_W@Z 1003d4f1 f i libucrt:atox.obj
 0001:0003c52a       ?validate@?$c_string_character_source@D@__crt_strtox@@QBE_NXZ 1003d52a f i libucrt:atox.obj
 0001:0003c54b       ?validate@?$c_string_character_source@_W@__crt_strtox@@QBE_NXZ 1003d54b f i libucrt:atox.obj
 0001:0003c56c       ?wide_character_to_digit@__crt_strtox@@YAH_W@Z 1003d56c f i libucrt:atox.obj
 0001:0003c775       ___acrt_get_locale_data_prefix 1003d775 f i libucrt:atox.obj
 0001:0003c784       __atoi64                   1003d784 f   libucrt:atox.obj
 0001:0003c7b2       __atoi64_l                 1003d7b2 f   libucrt:atox.obj
 0001:0003c7e1       __atoi_l                   1003d7e1 f   libucrt:atox.obj
 0001:0003c810       __atol_l                   1003d810 f   libucrt:atox.obj
 0001:0003c83f       __atoll_l                  1003d83f f   libucrt:atox.obj
 0001:0003c86e       __chvalidchk_l             1003d86e f i libucrt:atox.obj
 0001:0003c89d       __ischartype_l             1003d89d f i libucrt:atox.obj
 0001:0003c8dc       __wtoi                     1003d8dc f   libucrt:atox.obj
 0001:0003c90a       __wtoi64                   1003d90a f   libucrt:atox.obj
 0001:0003c938       __wtoi64_l                 1003d938 f   libucrt:atox.obj
 0001:0003c967       __wtoi_l                   1003d967 f   libucrt:atox.obj
 0001:0003c996       __wtol                     1003d996 f   libucrt:atox.obj
 0001:0003c9c4       __wtol_l                   1003d9c4 f   libucrt:atox.obj
 0001:0003c9f3       __wtoll                    1003d9f3 f   libucrt:atox.obj
 0001:0003ca21       __wtoll_l                  1003da21 f   libucrt:atox.obj
 0001:0003ca50       _atoi                      1003da50 f   libucrt:atox.obj
 0001:0003ca7e       _atol                      1003da7e f   libucrt:atox.obj
 0001:0003caac       _atoll                     1003daac f   libucrt:atox.obj
 0001:0003cae0       _strncmp                   1003dae0 f   libucrt:strncmp.obj
 0001:0003cb76       __set_abort_behavior       1003db76 f   libucrt:abort.obj
 0001:0003cb9f       _abort                     1003db9f f   libucrt:abort.obj
 0001:0003cbf4       _wcsncmp                   1003dbf4 f   libucrt:wcsncmp.obj
 0001:0003cc3c       __malloc_base              1003dc3c f   libucrt:malloc_base.obj
 0001:0003cc9d       __calloc_base              1003dc9d f   libucrt:calloc_base.obj
 0001:0003cd17       __free_base                1003dd17 f   libucrt:free_base.obj
 0001:0003cd5f       ??$__crt_fast_decode_pointer@P6AXPB_W00II@Z@@YAP6AXPB_W00II@ZQ6AX000II@Z@Z 1003dd5f f i libucrt:invalid_parameter.obj
 0001:0003cd7a       ??$__crt_fast_encode_pointer@P6AXPB_W00II@Z@@YAP6AXPB_W00II@ZQ6AX000II@Z@Z 1003dd7a f i libucrt:invalid_parameter.obj
 0001:0003cda0       ??$initialize_from_array@$$BY00Q6AXPB_W00II@Z@?$dual_state_global@P6AXPB_W00II@Z@__crt_state_management@@QAAXAAY00Q6AXPB_W00II@Z@Z 1003dda0 f i libucrt:invalid_parameter.obj
 0001:0003cdb5       ?dangerous_get_state_array@?$dual_state_global@P6AXPB_W00II@Z@__crt_state_management@@QAEPAP6AXPB_W00II@ZXZ 1003ddb5 f i libucrt:invalid_parameter.obj
 0001:0003cdb8       ?value@?$dual_state_global@P6AXPB_W00II@Z@__crt_state_management@@QAEAAP6AXPB_W00II@ZXZ 1003ddb8 f i libucrt:invalid_parameter.obj
 0001:0003cdbb       ___acrt_call_reportfault   1003ddbb f   libucrt:invalid_parameter.obj
 0001:0003cf44       ___acrt_initialize_invalid_parameter_handler 1003df44 f   libucrt:invalid_parameter.obj
 0001:0003cf56       __get_invalid_parameter_handler 1003df56 f   libucrt:invalid_parameter.obj
 0001:0003cf6d       __get_thread_local_invalid_parameter_handler 1003df6d f   libucrt:invalid_parameter.obj
 0001:0003cf82       __invalid_parameter        1003df82 f   libucrt:invalid_parameter.obj
 0001:0003d01b       __invalid_parameter_noinfo 1003e01b f   libucrt:invalid_parameter.obj
 0001:0003d02f       __invalid_parameter_noinfo_noreturn 1003e02f f   libucrt:invalid_parameter.obj
 0001:0003d053       __invoke_watson            1003e053 f   libucrt:invalid_parameter.obj
 0001:0003d094       __set_invalid_parameter_handler 1003e094 f   libucrt:invalid_parameter.obj
 0001:0003d0d0       __set_thread_local_invalid_parameter_handler 1003e0d0 f   libucrt:invalid_parameter.obj
 0001:0003d1bb       ___acrt_report_runtime_error 1003e1bb f   libucrt:report_runtime_error.obj
 0001:0003d315       __query_app_type           1003e315 f   libucrt:report_runtime_error.obj
 0001:0003d31b       __set_app_type             1003e31b f   libucrt:report_runtime_error.obj
 0001:0003d32d       ___acrt_errno_from_os_error 1003e32d f   libucrt:errno.obj
 0001:0003d380       ___acrt_errno_map_os_error 1003e380 f   libucrt:errno.obj
 0001:0003d3ab       ___doserrno                1003e3ab f   libucrt:errno.obj
 0001:0003d3c2       __errno                    1003e3c2 f   libucrt:errno.obj
 0001:0003d3d9       __get_doserrno             1003e3d9 f   libucrt:errno.obj
 0001:0003d407       __get_errno                1003e407 f   libucrt:errno.obj
 0001:0003d435       __set_doserrno             1003e435 f   libucrt:errno.obj
 0001:0003d45e       __set_errno                1003e45e f   libucrt:errno.obj
 0001:0003da8c       __i64toa                   1003ea8c f   libucrt:xtoa.obj
 0001:0003dadf       __i64toa_s                 1003eadf f   libucrt:xtoa.obj
 0001:0003db30       __i64tow                   1003eb30 f   libucrt:xtoa.obj
 0001:0003db83       __i64tow_s                 1003eb83 f   libucrt:xtoa.obj
 0001:0003dbd4       __itoa                     1003ebd4 f   libucrt:xtoa.obj
 0001:0003dc18       __itoa_s                   1003ec18 f   libucrt:xtoa.obj
 0001:0003dc5a       __itow                     1003ec5a f   libucrt:xtoa.obj
 0001:0003dc9e       __itow_s                   1003ec9e f   libucrt:xtoa.obj
 0001:0003dce0       __ltoa                     1003ece0 f   libucrt:xtoa.obj
 0001:0003dd24       __ltoa_s                   1003ed24 f   libucrt:xtoa.obj
 0001:0003dd66       __ltow                     1003ed66 f   libucrt:xtoa.obj
 0001:0003ddaa       __ltow_s                   1003edaa f   libucrt:xtoa.obj
 0001:0003ddec       __ui64toa                  1003edec f   libucrt:xtoa.obj
 0001:0003de16       __ui64toa_s                1003ee16 f   libucrt:xtoa.obj
 0001:0003de3e       __ui64tow                  1003ee3e f   libucrt:xtoa.obj
 0001:0003de68       __ui64tow_s                1003ee68 f   libucrt:xtoa.obj
 0001:0003de90       __ultoa                    1003ee90 f   libucrt:xtoa.obj
 0001:0003deb6       __ultoa_s                  1003eeb6 f   libucrt:xtoa.obj
 0001:0003deda       __ultow                    1003eeda f   libucrt:xtoa.obj
 0001:0003df00       __ultow_s                  1003ef00 f   libucrt:xtoa.obj
 0001:0003df24       __set_error_mode           1003ef24 f   libucrt:set_error_mode.obj
 0001:0003e000       _wcscat_s                  1003f000 f   libucrt:wcscat_s.obj
 0001:0003e10a       _wcscpy_s                  1003f10a f   libucrt:wcscpy_s.obj
 0001:0003e2aa       _wcsncat_s                 1003f2aa f   libucrt:wcsncat_s.obj
 0001:0003e33a       _strcat_s                  1003f33a f   libucrt:strcat_s.obj
 0001:0003e4c1       _strncat_s                 1003f4c1 f   libucrt:strncat_s.obj
 0001:0003e4ce       ___acrt_GetModuleFileNameA 1003f4ce f   libucrt:getmodulefilenamea.obj
 0001:0003e686       ??$message_box@$$TABQBDABQBDK@?$__crt_char_traits@D@@SAH$$QA$$TABQBD1$$QAK@Z 1003f686 f i libucrt:crtmbox.obj
 0001:0003e6ae       ??$message_box@$$TABQB_WABQB_WK@?$__crt_char_traits@_W@@SAH$$QA$$TABQB_W1$$QAK@Z 1003f6ae f i libucrt:crtmbox.obj
 0001:0003e6d6       ??$message_box@PAUHWND__@@ABQBDABQBDABI@?$__crt_char_traits@D@@SAH$$QAPAUHWND__@@ABQBD1ABI@Z 1003f6d6 f i libucrt:crtmbox.obj
 0001:0003e6fe       ??$message_box@PAUHWND__@@ABQB_WABQB_WABI@?$__crt_char_traits@_W@@SAH$$QAPAUHWND__@@ABQB_W1ABI@Z 1003f6fe f i libucrt:crtmbox.obj
 0001:0003e726       ??$output_debug_string@ABQBD@?$__crt_char_traits@D@@SAXABQBD@Z 1003f726 f i libucrt:crtmbox.obj
 0001:0003e73b       ??$output_debug_string@ABQB_W@?$__crt_char_traits@_W@@SAXABQB_W@Z 1003f73b f i libucrt:crtmbox.obj
 0001:0003e751       ___acrt_show_narrow_message_box 1003f751 f   libucrt:crtmbox.obj
 0001:0003e75e       ___acrt_show_wide_message_box 1003f75e f   libucrt:crtmbox.obj
 0001:0003eabc       ??0__crt_stdio_stream@@QAE@QAU__crt_stdio_stream_data@@@Z 1003fabc f i libucrt:fflush.obj
 0001:0003ed25       ___acrt_stdio_flush_nolock 1003fd25 f   libucrt:fflush.obj
 0001:0003eda0       __fflush_nolock            1003fda0 f   libucrt:fflush.obj
 0001:0003edf8       __flushall                 1003fdf8 f   libucrt:fflush.obj
 0001:0003ee03       _fflush                    1003fe03 f   libucrt:fflush.obj
 0001:0003f06e       _setvbuf                   1004006e f   libucrt:setvbuf.obj
 0001:0003f113       ??$?B$$A6AXH@Z@__crt_fast_encoded_nullptr_t@@QBEP6AXH@ZXZ 10040113 f i libucrt:signal.obj
 0001:0003f1d3       ??$__crt_fast_decode_pointer@P6AXH@Z@@YAP6AXH@ZQ6AXH@Z@Z 100401d3 f i libucrt:signal.obj
 0001:0003f1ee       ??$__crt_fast_encode_pointer@P6AXH@Z@@YAP6AXH@ZQ6AXH@Z@Z 100401ee f i libucrt:signal.obj
 0001:0003f398       ?initialize@?$dual_state_global@P6AXH@Z@__crt_state_management@@QAEXQ6AXH@Z@Z 10040398 f i libucrt:signal.obj
 0001:0003f476       ?value@?$dual_state_global@P6AXH@Z@__crt_state_management@@QAEAAP6AXH@ZXZ 10040476 f i libucrt:signal.obj
 0001:0003f479       ___acrt_get_sigabrt_handler 10040479 f   libucrt:signal.obj
 0001:0003f4ac       ___acrt_initialize_signal_handlers 100404ac f   libucrt:signal.obj
 0001:0003f4d1       ___fpecode                 100404d1 f   libucrt:signal.obj
 0001:0003f4dc       ___pxcptinfoptrs           100404dc f   libucrt:signal.obj
 0001:0003f4e7       _raise                     100404e7 f   libucrt:signal.obj
 0001:0003f769       _signal                    10040769 f   libucrt:signal.obj
 0001:0003f986       __realloc_base             10040986 f   libucrt:realloc_base.obj
 0001:0003fa09       ___acrt_initialize_locks   10040a09 f   libucrt:locks.obj
 0001:0003fa5a       ___acrt_lock               10040a5a f   libucrt:locks.obj
 0001:0003fa76       ___acrt_uninitialize_locks 10040a76 f   libucrt:locks.obj
 0001:0003fab3       ___acrt_unlock             10040ab3 f   libucrt:locks.obj
 0001:0003facf       __lock_locales             10040acf f   libucrt:locks.obj
 0001:0003fae0       __unlock_locales           10040ae0 f   libucrt:locks.obj
 0001:0003fcfe       ___acrt_get_begin_thread_init_policy 10040cfe f   libucrt:win_policies.obj
 0001:0003fd54       ___acrt_get_developer_information_policy 10040d54 f   libucrt:win_policies.obj
 0001:0003fdaa       ___acrt_get_process_end_policy 10040daa f   libucrt:win_policies.obj
 0001:0003fde9       ___acrt_get_windowing_model_policy 10040de9 f   libucrt:win_policies.obj
 0001:0003fe6d       ??$?B$$A6GHPA_WKJ@Z@__crt_fast_encoded_nullptr_t@@QBEP6GHPA_WKJ@ZXZ 10040e6d f i libucrt:winapi_thunks.obj
 0001:0003ff67       ??$__crt_fast_decode_pointer@P6GHPA_WKJ@Z@@YAP6GHPA_WKJ@ZQ6GH0KJ@Z@Z 10040f67 f i libucrt:winapi_thunks.obj
 0001:0003ff82       ??$__crt_fast_encode_pointer@P6GHPA_WKJ@Z@@YAP6GHPA_WKJ@ZQ6GH0KJ@Z@Z 10040f82 f i libucrt:winapi_thunks.obj
 0001:000407e1       _GetCurrentThreadEffectiveToken 100417e1 f i libucrt:winapi_thunks.obj
 0001:000407e5       ___acrt_AppPolicyGetProcessTerminationMethodInternal@4 100417e5 f   libucrt:winapi_thunks.obj
 0001:00040851       ___acrt_AppPolicyGetShowDeveloperDiagnosticInternal@4 10041851 f   libucrt:winapi_thunks.obj
 0001:000408bd       ___acrt_AppPolicyGetThreadInitializationTypeInternal@4 100418bd f   libucrt:winapi_thunks.obj
 0001:00040929       ___acrt_AppPolicyGetWindowingModelInternal@4 10041929 f   libucrt:winapi_thunks.obj
 0001:00040995       ___acrt_AreFileApisANSI@0  10041995 f   libucrt:winapi_thunks.obj
 0001:000409dd       ___acrt_CompareStringEx@36 100419dd f   libucrt:winapi_thunks.obj
 0001:00040a6e       ___acrt_EnumSystemLocalesEx@16 10041a6e f   libucrt:winapi_thunks.obj
 0001:00040af2       ___acrt_FlsAlloc@4         10041af2 f   libucrt:winapi_thunks.obj
 0001:00040b5d       ___acrt_FlsFree@4          10041b5d f   libucrt:winapi_thunks.obj
 0001:00040bc8       ___acrt_FlsGetValue@4      10041bc8 f   libucrt:winapi_thunks.obj
 0001:00040c33       ___acrt_FlsSetValue@8      10041c33 f   libucrt:winapi_thunks.obj
 0001:00040ca2       ___acrt_GetDateFormatEx@28 10041ca2 f   libucrt:winapi_thunks.obj
 0001:00040d2b       ___acrt_GetEnabledXStateFeatures@0 10041d2b f   libucrt:winapi_thunks.obj
 0001:00040d8d       ___acrt_GetLocaleInfoEx@16 10041d8d f   libucrt:winapi_thunks.obj
 0001:00040df8       ___acrt_GetSystemTimePreciseAsFileTime@4 10041df8 f   libucrt:winapi_thunks.obj
 0001:00040e63       ___acrt_GetTimeFormatEx@24 10041e63 f   libucrt:winapi_thunks.obj
 0001:00040ed6       ___acrt_GetUserDefaultLocaleName@8 10041ed6 f   libucrt:winapi_thunks.obj
 0001:00040f3d       ___acrt_GetXStateFeaturesMask@8 10041f3d f   libucrt:winapi_thunks.obj
 0001:00040fa9       ___acrt_InitializeCriticalSectionEx@12 10041fa9 f   libucrt:winapi_thunks.obj
 0001:00041023       ___acrt_IsValidLocaleName@4 10042023 f   libucrt:winapi_thunks.obj
 0001:00041085       ___acrt_LCIDToLocaleName@16 10042085 f   libucrt:winapi_thunks.obj
 0001:000410f0       ___acrt_LCMapStringEx@36   100420f0 f   libucrt:winapi_thunks.obj
 0001:00041181       ___acrt_LocaleNameToLCID@8 10042181 f   libucrt:winapi_thunks.obj
 0001:000411db       ___acrt_LocateXStateFeature@12 100421db f   libucrt:winapi_thunks.obj
 0001:00041232       ___acrt_MessageBoxA@16     10042232 f   libucrt:winapi_thunks.obj
 0001:0004128d       ___acrt_MessageBoxW@16     1004228d f   libucrt:winapi_thunks.obj
 0001:000412e8       ___acrt_RoInitialize@4     100422e8 f   libucrt:winapi_thunks.obj
 0001:0004134e       ___acrt_RoUninitialize@0   1004234e f   libucrt:winapi_thunks.obj
 0001:000413a9       ___acrt_RtlGenRandom@8     100423a9 f   libucrt:winapi_thunks.obj
 0001:00041415       ___acrt_SetThreadStackGuarantee@4 10042415 f   libucrt:winapi_thunks.obj
 0001:0004147b       ___acrt_can_show_message_box 1004247b f   libucrt:winapi_thunks.obj
 0001:000414ab       ___acrt_can_use_vista_locale_apis 100424ab f   libucrt:winapi_thunks.obj
 0001:000414b8       ___acrt_can_use_xstate_apis 100424b8 f   libucrt:winapi_thunks.obj
 0001:000414c5       ___acrt_eagerly_load_locale_apis 100424c5 f   libucrt:winapi_thunks.obj
 0001:00041509       ___acrt_get_parent_window  10042509 f   libucrt:winapi_thunks.obj
 0001:000415a7       ___acrt_initialize_winapi_thunks 100425a7 f   libucrt:winapi_thunks.obj
 0001:000415f2       ___acrt_is_interactive     100425f2 f   libucrt:winapi_thunks.obj
 0001:000416c1       ___acrt_uninitialize_winapi_thunks 100426c1 f   libucrt:winapi_thunks.obj
 0001:00041704       __fcloseall                10042704 f   libucrt:closeall.obj
 0001:000417cc       ?has_crt_buffer@__crt_stdio_stream@@QBE_NXZ 100427cc f i libucrt:_freebuf.obj
 0001:000417d9       ___acrt_stdio_free_buffer_nolock 100427d9 f   libucrt:_freebuf.obj
 0001:00041a17       ___acrt_initialize_lowio   10042a17 f   libucrt:ioinit.obj
 0001:00041a82       ___acrt_uninitialize_lowio 10042a82 f   libucrt:ioinit.obj
 0001:00041cae       __close                    10042cae f   libucrt:close.obj
 0001:00041d60       __close_nolock             10042d60 f   libucrt:close.obj
 0001:00041e23       ?lowio_handle@__crt_stdio_stream@@QBEHXZ 10042e23 f i libucrt:fileno.obj
 0001:00041e29       __fileno                   10042e29 f   libucrt:fileno.obj
 0001:00041e58       ??$?RU__crt_stdio_stream_data@@@__crt_internal_free_policy@@QBEXQBU__crt_stdio_stream_data@@@Z 10042e58 f i libucrt:stream.obj
 0001:00041e6e       ??0?$__crt_unique_heap_ptr@U__crt_stdio_stream_data@@U__crt_internal_free_policy@@@@QAE@QAU__crt_stdio_stream_data@@@Z 10042e6e f i libucrt:stream.obj
 0001:00041e82       ??0__crt_stdio_stream@@QAE@XZ 10042e82 f i libucrt:stream.obj
 0001:00041e88       ??1?$__crt_unique_heap_ptr@U__crt_stdio_stream_data@@U__crt_internal_free_policy@@@@QAE@XZ 10042e88 f i libucrt:stream.obj
 0001:00041e9e       ?__acrt_stdio_allocate_stream@@YA?AV__crt_stdio_stream@@XZ 10042e9e f   libucrt:stream.obj
 0001:00041f14       ?__acrt_stdio_free_stream@@YAXV__crt_stdio_stream@@@Z 10042f14 f   libucrt:stream.obj
 0001:00041f5d       ?deallocate@__crt_stdio_stream@@QAEXXZ 10042f5d f i libucrt:stream.obj
 0001:00041f69       ?detach@?$__crt_unique_heap_ptr@U__crt_stdio_stream_data@@U__crt_internal_free_policy@@@@QAEPAU__crt_stdio_stream_data@@XZ 10042f69 f i libucrt:stream.obj
 0001:00042062       ?lock@__crt_stdio_stream@@QBEXXZ 10043062 f i libucrt:stream.obj
 0001:0004206d       ?release@?$__crt_unique_heap_ptr@U__crt_stdio_stream_data@@U__crt_internal_free_policy@@@@QAEXXZ 1004306d f i libucrt:stream.obj
 0001:00042083       ?try_allocate@__crt_stdio_stream@@QAE_NXZ 10043083 f i libucrt:stream.obj
 0001:000420ab       ??$__acrt_stdio_parse_mode@D@@YA?AU__acrt_stdio_stream_mode@@QBD@Z 100430ab f i libucrt:openfile.obj
 0001:00042365       ??$__acrt_stdio_parse_mode@_W@@YA?AU__acrt_stdio_stream_mode@@QB_W@Z 10043365 f i libucrt:openfile.obj
 0001:000427ba       ??$tcsncmp@AAPBDAAY02$$CBDI@?$__crt_char_traits@D@@SAHAAPBDAAY02$$CBD$$QAI@Z 100437ba f i libucrt:openfile.obj
 0001:000427dd       ??$tcsncmp@AAPB_WAAY02$$CB_WI@?$__crt_char_traits@_W@@SAHAAPB_WAAY02$$CB_W$$QAI@Z 100437dd f i libucrt:openfile.obj
 0001:00042800       ??$tcsnicmp@AAPBDAAY04$$CBDI@?$__crt_char_traits@D@@SAHAAPBDAAY04$$CBD$$QAI@Z 10043800 f i libucrt:openfile.obj
 0001:00042823       ??$tcsnicmp@AAPBDAAY06$$CBDI@?$__crt_char_traits@D@@SAHAAPBDAAY06$$CBD$$QAI@Z 10043823 f i libucrt:openfile.obj
 0001:00042846       ??$tcsnicmp@AAPBDAAY07$$CBDI@?$__crt_char_traits@D@@SAHAAPBDAAY07$$CBD$$QAI@Z 10043846 f i libucrt:openfile.obj
 0001:00042869       ??$tcsnicmp@AAPB_WAAY04$$CB_WI@?$__crt_char_traits@_W@@SAHAAPB_WAAY04$$CB_W$$QAI@Z 10043869 f i libucrt:openfile.obj
 0001:0004288c       ??$tcsnicmp@AAPB_WAAY06$$CB_WI@?$__crt_char_traits@_W@@SAHAAPB_WAAY06$$CB_W$$QAI@Z 1004388c f i libucrt:openfile.obj
 0001:000428af       ??$tcsnicmp@AAPB_WAAY07$$CB_WI@?$__crt_char_traits@_W@@SAHAAPB_WAAY07$$CB_W$$QAI@Z 100438af f i libucrt:openfile.obj
 0001:000428d2       ??$tsopen_s@PAHABQBDABHABHH@?$__crt_char_traits@D@@SAH$$QAPAHABQBDABH2$$QAH@Z 100438d2 f i libucrt:openfile.obj
 0001:00042904       ??$tsopen_s@PAHABQB_WABHABHH@?$__crt_char_traits@_W@@SAH$$QAPAHABQB_WABH2$$QAH@Z 10043904 f i libucrt:openfile.obj
 0001:00042936       ?__acrt_stdio_parse_mode_D@@YA_NAAU__acrt_stdio_stream_mode@@@Z 10043936 f i libucrt:openfile.obj
 0001:00042957       ?__acrt_stdio_parse_mode_N@@YA_NAAU__acrt_stdio_stream_mode@@@Z 10043957 f i libucrt:openfile.obj
 0001:0004296d       ?__acrt_stdio_parse_mode_R@@YA_NAAU__acrt_stdio_stream_mode@@AA_N@Z 1004396d f i libucrt:openfile.obj
 0001:00042992       ?__acrt_stdio_parse_mode_S@@YA_NAAU__acrt_stdio_stream_mode@@AA_N@Z 10043992 f i libucrt:openfile.obj
 0001:000429b7       ?__acrt_stdio_parse_mode_T@@YA_NAAU__acrt_stdio_stream_mode@@@Z 100439b7 f i libucrt:openfile.obj
 0001:000429dd       ?__acrt_stdio_parse_mode_b@@YA_NAAU__acrt_stdio_stream_mode@@@Z 100439dd f i libucrt:openfile.obj
 0001:00042a05       ?__acrt_stdio_parse_mode_c@@YA_NAAU__acrt_stdio_stream_mode@@AA_N@Z 10043a05 f i libucrt:openfile.obj
 0001:00042a2f       ?__acrt_stdio_parse_mode_n@@YA_NAAU__acrt_stdio_stream_mode@@AA_N@Z 10043a2f f i libucrt:openfile.obj
 0001:00042a59       ?__acrt_stdio_parse_mode_plus@@YA_NAAU__acrt_stdio_stream_mode@@AA_N@Z 10043a59 f i libucrt:openfile.obj
 0001:00042a9b       ?__acrt_stdio_parse_mode_t@@YA_NAAU__acrt_stdio_stream_mode@@@Z 10043a9b f i libucrt:openfile.obj
 0001:00042ac3       ?__acrt_stdio_parse_mode_x@@YA_NAAU__acrt_stdio_stream_mode@@@Z 10043ac3 f i libucrt:openfile.obj
 0001:00042aeb       __openfile                 10043aeb f   libucrt:openfile.obj
 0001:00042af8       __wopenfile                10043af8 f   libucrt:openfile.obj
 0001:000431cb       __read                     100441cb f   libucrt:read.obj
 0001:00043317       __read_nolock              10044317 f   libucrt:read.obj
 0001:000437b5       __utf8_no_of_trailbytes    100447b5 f i libucrt:read.obj
 0001:00043cd4       ___acrt_stdio_refill_and_read_narrow_nolock 10044cd4 f   libucrt:_filbuf.obj
 0001:00043ce1       ___acrt_stdio_refill_and_read_wide_nolock 10044ce1 f   libucrt:_filbuf.obj
 0001:00044463       __write                    10045463 f   libucrt:write.obj
 0001:00044585       __write_nolock             10045585 f   libucrt:write.obj
 0001:00044cc7       ___acrt_stdio_flush_and_write_narrow_nolock 10045cc7 f   libucrt:_flsbuf.obj
 0001:00044cd4       ___acrt_stdio_flush_and_write_wide_nolock 10045cd4 f   libucrt:_flsbuf.obj
 0001:00044ce1       ?has_temporary_buffer@__crt_stdio_stream@@QBE_NXZ 10045ce1 f i libucrt:_sftbuf.obj
 0001:00044cee       ___acrt_stdio_begin_temporary_buffering_nolock 10045cee f   libucrt:_sftbuf.obj
 0001:00044dd0       ___acrt_stdio_end_temporary_buffering_nolock 10045dd0 f   libucrt:_sftbuf.obj
 0001:00044e99       ___acrt_MultiByteToWideChar 10045e99 f   libucrt:multibytetowidechar.obj
 0001:00044f34       ??$?RU__acrt_ptd@@@__crt_internal_free_policy@@QBEXQBU__acrt_ptd@@@Z 10045f34 f i libucrt:per_thread_data.obj
 0001:000452ad       ??0?$__crt_unique_heap_ptr@U__acrt_ptd@@U__crt_internal_free_policy@@@@QAE@QAU__acrt_ptd@@@Z 100462ad f i libucrt:per_thread_data.obj
 0001:000452c1       ??0__crt_scoped_get_last_error_reset@@QAE@XZ 100462c1 f i libucrt:per_thread_data.obj
 0001:000452d6       ??1?$__crt_unique_heap_ptr@U__acrt_ptd@@U__crt_internal_free_policy@@@@QAE@XZ 100462d6 f i libucrt:per_thread_data.obj
 0001:000452ec       ??1__crt_scoped_get_last_error_reset@@QAE@XZ 100462ec f i libucrt:per_thread_data.obj
 0001:000452f7       ??B?$__crt_unique_heap_ptr@U__acrt_ptd@@U__crt_internal_free_policy@@@@QBE_NXZ 100462f7 f i libucrt:per_thread_data.obj
 0001:00045494       ?dangerous_get_state_array@?$dual_state_global@PAU__crt_locale_data@@@__crt_state_management@@QAEPAPAU__crt_locale_data@@XZ 10046494 f i libucrt:per_thread_data.obj
 0001:000455c7       ?detach@?$__crt_unique_heap_ptr@U__acrt_ptd@@U__crt_internal_free_policy@@@@QAEPAU__acrt_ptd@@XZ 100465c7 f i libucrt:per_thread_data.obj
 0001:000455cd       ?get@?$__crt_unique_heap_ptr@U__acrt_ptd@@U__crt_internal_free_policy@@@@QBEPAU__acrt_ptd@@XZ 100465cd f i libucrt:per_thread_data.obj
 0001:000455d0       ?get_current_state_index@__crt_state_management@@YAIABV__crt_scoped_get_last_error_reset@@@Z 100465d0 f i libucrt:per_thread_data.obj
 0001:00045756       ?is_valid@?$__crt_unique_heap_ptr@U__acrt_ptd@@U__crt_internal_free_policy@@@@QBE_NXZ 10046756 f i libucrt:per_thread_data.obj
 0001:0004575d       ?release@?$__crt_unique_heap_ptr@U__acrt_ptd@@U__crt_internal_free_policy@@@@QAEXXZ 1004675d f i libucrt:per_thread_data.obj
 0001:000457e9       ?value@?$dual_state_global@PAU__crt_locale_data@@@__crt_state_management@@QAEAAPAU__crt_locale_data@@XZ 100467e9 f i libucrt:per_thread_data.obj
 0001:000457ec       ___acrt_freeptd            100467ec f   libucrt:per_thread_data.obj
 0001:00045823       ___acrt_getptd             10046823 f   libucrt:per_thread_data.obj
 0001:00045907       ___acrt_getptd_head        10046907 f   libucrt:per_thread_data.obj
 0001:000459c7       ___acrt_getptd_noexit      100469c7 f   libucrt:per_thread_data.obj
 0001:00045a9f       ___acrt_initialize_ptd     10046a9f f   libucrt:per_thread_data.obj
 0001:00045ad6       ___acrt_uninitialize_ptd   10046ad6 f   libucrt:per_thread_data.obj
 0001:00045af6       ___threadhandle            10046af6 f   libucrt:per_thread_data.obj
 0001:00045afc       ___threadid                10046afc f   libucrt:per_thread_data.obj
 0001:00045b02       ?value@?$dual_state_global@PAU__crt_multibyte_data@@@__crt_state_management@@QAEAAPAU__crt_multibyte_data@@XZ 10046b02 f i libucrt:locale_update.obj
 0001:00045b05       ___acrt_update_locale_info 10046b05 f   libucrt:locale_update.obj
 0001:00045b3d       ___acrt_update_multibyte_info 10046b3d f   libucrt:locale_update.obj
 0001:00045b75       __wremove                  10046b75 f   libucrt:wunlink.obj
 0001:00045ba7       __wunlink                  10046ba7 f   libucrt:wunlink.obj
 0001:00045bb7       ??$?RU__crt_locale_data@@@__crt_internal_free_policy@@QBEXQBU__crt_locale_data@@@Z 10046bb7 f i libucrt:wsetlocale.obj
 0001:00045bcd       ??$?RU__crt_locale_pointers@@@__crt_internal_free_policy@@QBEXQBU__crt_locale_pointers@@@Z 10046bcd f i libucrt:wsetlocale.obj
 0001:00045be3       ??$?RU__crt_multibyte_data@@@__crt_internal_free_policy@@QBEXQBU__crt_multibyte_data@@@Z 10046be3 f i libucrt:wsetlocale.obj
 0001:00045eb3       ??$__vcrt_va_start_verify_argument_type@H@@YAXXZ 10046eb3 f i libucrt:wsetlocale.obj
 0001:0004603e       ??0?$__crt_unique_heap_ptr@U__crt_locale_data@@U__crt_internal_free_policy@@@@QAE@QAU__crt_locale_data@@@Z 1004703e f i libucrt:wsetlocale.obj
 0001:00046052       ??0?$__crt_unique_heap_ptr@U__crt_locale_pointers@@U__crt_internal_free_policy@@@@QAE@QAU__crt_locale_pointers@@@Z 10047052 f i libucrt:wsetlocale.obj
 0001:00046066       ??0?$__crt_unique_heap_ptr@U__crt_multibyte_data@@U__crt_internal_free_policy@@@@QAE@QAU__crt_multibyte_data@@@Z 10047066 f i libucrt:wsetlocale.obj
 0001:0004607a       ??1?$__crt_unique_heap_ptr@U__crt_locale_data@@U__crt_internal_free_policy@@@@QAE@XZ 1004707a f i libucrt:wsetlocale.obj
 0001:00046090       ??1?$__crt_unique_heap_ptr@U__crt_locale_pointers@@U__crt_internal_free_policy@@@@QAE@XZ 10047090 f i libucrt:wsetlocale.obj
 0001:000460a6       ??1?$__crt_unique_heap_ptr@U__crt_multibyte_data@@U__crt_internal_free_policy@@@@QAE@XZ 100470a6 f i libucrt:wsetlocale.obj
 0001:000460bc       ??B?$__crt_unique_heap_ptr@U__crt_locale_data@@U__crt_internal_free_policy@@@@QBE_NXZ 100470bc f i libucrt:wsetlocale.obj
 0001:000460c3       ??B?$__crt_unique_heap_ptr@U__crt_locale_pointers@@U__crt_internal_free_policy@@@@QBE_NXZ 100470c3 f i libucrt:wsetlocale.obj
 0001:000460ca       ??B?$__crt_unique_heap_ptr@U__crt_multibyte_data@@U__crt_internal_free_policy@@@@QBE_NXZ 100470ca f i libucrt:wsetlocale.obj
 0001:0004636c       ?detach@?$__crt_unique_heap_ptr@U__crt_locale_data@@U__crt_internal_free_policy@@@@QAEPAU__crt_locale_data@@XZ 1004736c f i libucrt:wsetlocale.obj
 0001:00046372       ?detach@?$__crt_unique_heap_ptr@U__crt_locale_pointers@@U__crt_internal_free_policy@@@@QAEPAU__crt_locale_pointers@@XZ 10047372 f i libucrt:wsetlocale.obj
 0001:00046378       ?detach@?$__crt_unique_heap_ptr@U__crt_multibyte_data@@U__crt_internal_free_policy@@@@QAEPAU__crt_multibyte_data@@XZ 10047378 f i libucrt:wsetlocale.obj
 0001:0004637e       ?get@?$__crt_unique_heap_ptr@U__crt_locale_data@@U__crt_internal_free_policy@@@@QBEPAU__crt_locale_data@@XZ 1004737e f i libucrt:wsetlocale.obj
 0001:00046381       ?get@?$__crt_unique_heap_ptr@U__crt_locale_pointers@@U__crt_internal_free_policy@@@@QBEPAU__crt_locale_pointers@@XZ 10047381 f i libucrt:wsetlocale.obj
 0001:00046384       ?get@?$__crt_unique_heap_ptr@U__crt_multibyte_data@@U__crt_internal_free_policy@@@@QBEPAU__crt_multibyte_data@@XZ 10047384 f i libucrt:wsetlocale.obj
 0001:00046387       ?is_valid@?$__crt_unique_heap_ptr@U__crt_locale_data@@U__crt_internal_free_policy@@@@QBE_NXZ 10047387 f i libucrt:wsetlocale.obj
 0001:0004638e       ?is_valid@?$__crt_unique_heap_ptr@U__crt_locale_pointers@@U__crt_internal_free_policy@@@@QBE_NXZ 1004738e f i libucrt:wsetlocale.obj
 0001:00046395       ?is_valid@?$__crt_unique_heap_ptr@U__crt_multibyte_data@@U__crt_internal_free_policy@@@@QBE_NXZ 10047395 f i libucrt:wsetlocale.obj
 0001:0004639c       ?release@?$__crt_unique_heap_ptr@U__crt_locale_data@@U__crt_internal_free_policy@@@@QAEXXZ 1004739c f i libucrt:wsetlocale.obj
 0001:000463b2       ?release@?$__crt_unique_heap_ptr@U__crt_locale_pointers@@U__crt_internal_free_policy@@@@QAEXXZ 100473b2 f i libucrt:wsetlocale.obj
 0001:000463c8       ?release@?$__crt_unique_heap_ptr@U__crt_multibyte_data@@U__crt_internal_free_policy@@@@QAEXXZ 100473c8 f i libucrt:wsetlocale.obj
 0001:000463de       ___acrt_copy_locale_name   100473de f   libucrt:wsetlocale.obj
 0001:0004645d       ___acrt_set_locale_changed 1004745d f   libucrt:wsetlocale.obj
 0001:0004646a       ___acrt_uninitialize_locale 1004746a f   libucrt:wsetlocale.obj
 0001:0004649d       ___lc_lctowcs              1004749d f   libucrt:wsetlocale.obj
 0001:00046529       ___lc_wcstolc              10047529 f   libucrt:wsetlocale.obj
 0001:000466c9       __configthreadlocale       100476c9 f   libucrt:wsetlocale.obj
 0001:0004677d       __create_locale            1004777d f   libucrt:wsetlocale.obj
 0001:000467fc       __expandlocale             100477fc f   libucrt:wsetlocale.obj
 0001:00046cd0       __free_locale              10047cd0 f   libucrt:wsetlocale.obj
 0001:00046db6       __get_current_locale       10047db6 f   libucrt:wsetlocale.obj
 0001:00046e7a       __wcreate_locale           10047e7a f   libucrt:wsetlocale.obj
 0001:00046fc5       __wcscats                  10047fc5 f   libucrt:wsetlocale.obj
 0001:00047016       __wsetlocale               10048016 f   libucrt:wsetlocale.obj
 0001:00047b4d       ___p___mb_cur_max          10048b4d f   libucrt:nlsdata.obj
 0001:00047fdd       __lseek                    10048fdd f   libucrt:lseek.obj
 0001:00047fea       __lseek_nolock             10048fea f   libucrt:lseek.obj
 0001:00047ff7       __lseeki64                 10048ff7 f   libucrt:lseek.obj
 0001:00048018       __lseeki64_nolock          10049018 f   libucrt:lseek.obj
 0001:00048055       ___isascii                 10049055 f i libucrt:_ctype.obj
 0001:0004806b       ___iscsym                  1004906b f i libucrt:_ctype.obj
 0001:00048095       ___iscsymf                 10049095 f i libucrt:_ctype.obj
 0001:000480bb       ___toascii                 100490bb f i libucrt:_ctype.obj
 0001:000480cb       __isalnum_l                100490cb f i libucrt:_ctype.obj
 0001:00048114       __isalpha_l                10049114 f i libucrt:_ctype.obj
 0001:0004815d       __isblank_l                1004915d f i libucrt:_ctype.obj
 0001:000481b0       __iscntrl_l                100491b0 f i libucrt:_ctype.obj
 0001:000481f6       __iscsym_l                 100491f6 f i libucrt:_ctype.obj
 0001:00048221       __iscsymf_l                10049221 f i libucrt:_ctype.obj
 0001:0004824c       __isdigit_l                1004924c f i libucrt:_ctype.obj
 0001:00048292       __isgraph_l                10049292 f i libucrt:_ctype.obj
 0001:000482db       __islower_l                100492db f i libucrt:_ctype.obj
 0001:00048321       __isprint_l                10049321 f i libucrt:_ctype.obj
 0001:0004836a       __ispunct_l                1004936a f i libucrt:_ctype.obj
 0001:000483b0       __isspace_l                100493b0 f i libucrt:_ctype.obj
 0001:000483f6       __isupper_l                100493f6 f i libucrt:_ctype.obj
 0001:0004843c       __isxdigit_l               1004943c f i libucrt:_ctype.obj
 0001:00048485       _isalnum                   10049485 f i libucrt:_ctype.obj
 0001:000484c1       _isalpha                   100494c1 f i libucrt:_ctype.obj
 0001:000484fd       _isblank                   100494fd f i libucrt:_ctype.obj
 0001:00048545       _iscntrl                   10049545 f i libucrt:_ctype.obj
 0001:0004857e       _isdigit                   1004957e f i libucrt:_ctype.obj
 0001:000485b7       _isgraph                   100495b7 f i libucrt:_ctype.obj
 0001:000485f3       _islower                   100495f3 f i libucrt:_ctype.obj
 0001:0004862c       _isprint                   1004962c f i libucrt:_ctype.obj
 0001:00048668       _ispunct                   10049668 f i libucrt:_ctype.obj
 0001:000486a1       _isspace                   100496a1 f i libucrt:_ctype.obj
 0001:000486da       _isupper                   100496da f i libucrt:_ctype.obj
 0001:00048713       _isxdigit                  10049713 f i libucrt:_ctype.obj
 0001:00048b0b       __tolower                  10049b0b f   libucrt:tolower_toupper.obj
 0001:00048b1b       __tolower_l                10049b1b f   libucrt:tolower_toupper.obj
 0001:00048b3b       __toupper                  10049b3b f   libucrt:tolower_toupper.obj
 0001:00048b4b       __toupper_l                10049b4b f   libucrt:tolower_toupper.obj
 0001:00048b6b       _tolower                   10049b6b f   libucrt:tolower_toupper.obj
 0001:00048ba7       _toupper                   10049ba7 f   libucrt:tolower_toupper.obj
 0001:00048be3       ??$make_c_string_character_source@DPAPAD@__crt_strtox@@YA?AV?$c_string_character_source@D@0@QBDQAPAD@Z 10049be3 f i libucrt:strtox.obj
 0001:00048c04       ??$make_c_string_character_source@_WPAPA_W@__crt_strtox@@YA?AV?$c_string_character_source@_W@0@QB_WQAPA_W@Z 10049c04 f i libucrt:strtox.obj
 0001:00048c25       ??$parse_integer_from_string@JDPAPAD@__crt_strtox@@YAJQBDQAPADHQAU__crt_locale_pointers@@@Z 10049c25 f i libucrt:strtox.obj
 0001:00048c5d       ??$parse_integer_from_string@J_WPAPA_W@__crt_strtox@@YAJQB_WQAPA_WHQAU__crt_locale_pointers@@@Z 10049c5d f i libucrt:strtox.obj
 0001:00048c95       ??$parse_integer_from_string@KDPAPAD@__crt_strtox@@YAKQBDQAPADHQAU__crt_locale_pointers@@@Z 10049c95 f i libucrt:strtox.obj
 0001:00048ccd       ??$parse_integer_from_string@K_WPAPA_W@__crt_strtox@@YAKQB_WQAPA_WHQAU__crt_locale_pointers@@@Z 10049ccd f i libucrt:strtox.obj
 0001:00048d05       ??$parse_integer_from_string@_JDPAPAD@__crt_strtox@@YA_JQBDQAPADHQAU__crt_locale_pointers@@@Z 10049d05 f i libucrt:strtox.obj
 0001:00048d3d       ??$parse_integer_from_string@_J_WPAPA_W@__crt_strtox@@YA_JQB_WQAPA_WHQAU__crt_locale_pointers@@@Z 10049d3d f i libucrt:strtox.obj
 0001:00048d75       ??$parse_integer_from_string@_KDPAPAD@__crt_strtox@@YA_KQBDQAPADHQAU__crt_locale_pointers@@@Z 10049d75 f i libucrt:strtox.obj
 0001:00048dad       ??$parse_integer_from_string@_K_WPAPA_W@__crt_strtox@@YA_KQB_WQAPA_WHQAU__crt_locale_pointers@@@Z 10049dad f i libucrt:strtox.obj
 0001:00048de5       __strtoi64                 10049de5 f   libucrt:strtox.obj
 0001:00048e1c       __strtoi64_l               10049e1c f   libucrt:strtox.obj
 0001:00048e54       __strtoimax_l              10049e54 f   libucrt:strtox.obj
 0001:00048e8c       __strtol_l                 10049e8c f   libucrt:strtox.obj
 0001:00048ec4       __strtoll_l                10049ec4 f   libucrt:strtox.obj
 0001:00048efc       __strtoui64                10049efc f   libucrt:strtox.obj
 0001:00048f33       __strtoui64_l              10049f33 f   libucrt:strtox.obj
 0001:00048f6b       __strtoul_l                10049f6b f   libucrt:strtox.obj
 0001:00048fa3       __strtoull_l               10049fa3 f   libucrt:strtox.obj
 0001:00048fdb       __strtoumax_l              10049fdb f   libucrt:strtox.obj
 0001:00049013       __wcstoi64                 1004a013 f   libucrt:strtox.obj
 0001:0004904a       __wcstoi64_l               1004a04a f   libucrt:strtox.obj
 0001:00049082       __wcstoimax_l              1004a082 f   libucrt:strtox.obj
 0001:000490ba       __wcstol_l                 1004a0ba f   libucrt:strtox.obj
 0001:000490f2       __wcstoll_l                1004a0f2 f   libucrt:strtox.obj
 0001:0004912a       __wcstoui64                1004a12a f   libucrt:strtox.obj
 0001:00049161       __wcstoui64_l              1004a161 f   libucrt:strtox.obj
 0001:00049199       __wcstoul_l                1004a199 f   libucrt:strtox.obj
 0001:000491d1       __wcstoull_l               1004a1d1 f   libucrt:strtox.obj
 0001:00049209       __wcstoumax_l              1004a209 f   libucrt:strtox.obj
 0001:00049241       _strtoimax                 1004a241 f   libucrt:strtox.obj
 0001:00049278       _strtol                    1004a278 f   libucrt:strtox.obj
 0001:000492af       _strtoll                   1004a2af f   libucrt:strtox.obj
 0001:000492e6       _strtoul                   1004a2e6 f   libucrt:strtox.obj
 0001:0004931d       _strtoull                  1004a31d f   libucrt:strtox.obj
 0001:00049354       _strtoumax                 1004a354 f   libucrt:strtox.obj
 0001:0004938b       _wcstoimax                 1004a38b f   libucrt:strtox.obj
 0001:000493c2       _wcstol                    1004a3c2 f   libucrt:strtox.obj
 0001:000493f9       _wcstoll                   1004a3f9 f   libucrt:strtox.obj
 0001:00049430       _wcstoul                   1004a430 f   libucrt:strtox.obj
 0001:00049467       _wcstoull                  1004a467 f   libucrt:strtox.obj
 0001:0004949e       _wcstoumax                 1004a49e f   libucrt:strtox.obj
 0001:000494d5       __mbtowc_l                 1004a4d5 f   libucrt:mbtowc.obj
 0001:0004966a       _mbtowc                    1004a66a f   libucrt:mbtowc.obj
 0001:0004968a       __wctomb_l                 1004a68a f   libucrt:wctomb.obj
 0001:000496f1       __wctomb_s_l               1004a6f1 f   libucrt:wctomb.obj
 0001:0004985c       _wctomb                    1004a85c f   libucrt:wctomb.obj
 0001:0004989d       _wctomb_s                  1004a89d f   libucrt:wctomb.obj
 0001:0004a2ba       ??1?$__crt_simd_cleanup_guard@$00@@QAE@XZ 1004b2ba f i libucrt:strnlen.obj
 0001:0004a2be       ??1?$__crt_simd_cleanup_guard@$0A@@@QAE@XZ 1004b2be f i libucrt:strnlen.obj
 0001:0004a2bf       ?compare_equals@?$__crt_simd_traits@$00E@@SA?AT__m256i@@T2@0@Z 1004b2bf f i libucrt:strnlen.obj
 0001:0004a2c4       ?compare_equals@?$__crt_simd_traits@$00G@@SA?AT__m256i@@T2@0@Z 1004b2c4 f i libucrt:strnlen.obj
 0001:0004a2c9       ?compare_equals@?$__crt_simd_traits@$0A@E@@SA?AT__m128i@@T2@0@Z 1004b2c9 f i libucrt:strnlen.obj
 0001:0004a2ce       ?compare_equals@?$__crt_simd_traits@$0A@G@@SA?AT__m128i@@T2@0@Z 1004b2ce f i libucrt:strnlen.obj
 0001:0004a2d3       ?compute_byte_mask@?$__crt_simd_pack_traits@$00@@SAHT__m256i@@@Z 1004b2d3 f i libucrt:strnlen.obj
 0001:0004a2d8       ?compute_byte_mask@?$__crt_simd_pack_traits@$0A@@@SAHT__m128i@@@Z 1004b2d8 f i libucrt:strnlen.obj
 0001:0004a2dd       ?get_zero_pack@?$__crt_simd_pack_traits@$00@@SA?AT__m256i@@XZ 1004b2dd f i libucrt:strnlen.obj
 0001:0004a2e2       ?get_zero_pack@?$__crt_simd_pack_traits@$0A@@@SA?AT__m128i@@XZ 1004b2e2 f i libucrt:strnlen.obj
 0001:0004a2e6       _strnlen                   1004b2e6 f   libucrt:strnlen.obj
 0001:0004a450       _wcslen                    1004b450 f   libucrt:strnlen.obj
 0001:0004a5c2       _wcsnlen                   1004b5c2 f   libucrt:strnlen.obj
 0001:0004a7de       ?__acrt_fp_classify@@YA?AW4__acrt_fp_class@@ABN@Z 1004b7de f i libucrt:cvt.obj
 0001:0004a858       ?__acrt_fp_is_negative@@YA_NABN@Z 1004b858 f i libucrt:cvt.obj
 0001:0004b2dd       ?strrchr@@YAPADQADH@Z      1004c2dd f i libucrt:cvt.obj
 0001:0004b2ea       ___acrt_fp_format          1004c2ea f   libucrt:cvt.obj
 0001:0004b4b2       __fputwc_nolock            1004c4b2 f   libucrt:fputwc.obj
 0001:0004b626       __fputwchar                1004c626 f   libucrt:fputwc.obj
 0001:0004b646       __putwc_nolock             1004c646 f   libucrt:fputwc.obj
 0001:0004b653       _fputwc                    1004c653 f   libucrt:fputwc.obj
 0001:0004b6e4       _putwc                     1004c6e4 f   libucrt:fputwc.obj
 0001:0004b6f1       _putwchar                  1004c6f1 f   libucrt:fputwc.obj
 0001:0004b6fe       __fputc_nolock             1004c6fe f   libucrt:fputc.obj
 0001:0004b731       __fputchar                 1004c731 f   libucrt:fputc.obj
 0001:0004b751       __putc_nolock              1004c751 f   libucrt:fputc.obj
 0001:0004b75e       _fputc                     1004c75e f   libucrt:fputc.obj
 0001:0004b89c       _putc                      1004c89c f   libucrt:fputc.obj
 0001:0004b8a9       _putchar                   1004c8a9 f   libucrt:fputc.obj
 0001:0004b8b6       __get_printf_count_output  1004c8b6 f   libucrt:printf_count_output.obj
 0001:0004b8d0       __set_printf_count_output  1004c8d0 f   libucrt:printf_count_output.obj
 0001:0004b904       __chgsign                  1004c904 f   libucrt:ieeemisc.obj
 0001:0004b93e       __chgsignf                 1004c93e f   libucrt:ieeemisc.obj
 0001:0004b969       __copysign                 1004c969 f   libucrt:ieeemisc.obj
 0001:0004b99d       __copysignf                1004c99d f   libucrt:ieeemisc.obj
 0001:0004b9c2       __finite                   1004c9c2 f   libucrt:ieeemisc.obj
 0001:0004b9e2       __fpclass                  1004c9e2 f   libucrt:ieeemisc.obj
 0001:0004baaf       __isnan                    1004caaf f   libucrt:ieeemisc.obj
 0001:0004baf2       __logb                     1004caf2 f   libucrt:ieeemisc.obj
 0001:0004bbf7       __nextafter                1004cbf7 f   libucrt:ieeemisc.obj
 0001:0004bc1d       __scalb                    1004cc1d f   libucrt:ieeemisc.obj
 0001:0004bc3d       __add_exp                  1004cc3d f   libucrt:util.obj
 0001:0004bc77       __decomp                   1004cc77 f   libucrt:util.obj
 0001:0004bd8c       __get_exp                  1004cd8c f   libucrt:util.obj
 0001:0004bdaa       __set_bexp                 1004cdaa f   libucrt:util.obj
 0001:0004bddd       __set_exp                  1004cddd f   libucrt:util.obj
 0001:0004be17       __sptype                   1004ce17 f   libucrt:util.obj
 0001:0004be8c       ___clrfp_sse2              1004ce8c f   libucrt:fpctrl.obj
 0001:0004beb5       ___ctrlfp_sse2             1004ceb5 f   libucrt:fpctrl.obj
 0001:0004befe       ___fclrf_sse2              1004cefe f   libucrt:fpctrl.obj
 0001:0004bf24       ___get_fpsr_sse2           1004cf24 f   libucrt:fpctrl.obj
 0001:0004bf49       ___set_fpsr_sse2           1004cf49 f   libucrt:fpctrl.obj
 0001:0004bfdc       ___set_statfp_sse2         1004cfdc f   libucrt:fpctrl.obj
 0001:0004bffd       ___statfp_sse2             1004cffd f   libucrt:fpctrl.obj
 0001:0004c017       __clrfp                    1004d017 f   libucrt:fpctrl.obj
 0001:0004c02e       __ctrlfp                   1004d02e f   libucrt:fpctrl.obj
 0001:0004c065       __set_statfp               1004d065 f   libucrt:fpctrl.obj
 0001:0004c0d6       __statfp                   1004d0d6 f   libucrt:fpctrl.obj
 0001:0004c0ec       ??$__crt_fast_decode_pointer@P6AHPAU_exception@@@Z@@YAP6AHPAU_exception@@@ZQ6AH0@Z@Z 1004d0ec f i libucrt:matherr.obj
 0001:0004c107       ??$__crt_fast_encode_pointer@P6AHPAU_exception@@@Z@@YAP6AHPAU_exception@@@ZQ6AH0@Z@Z 1004d107 f i libucrt:matherr.obj
 0001:0004c12d       ?initialize@?$dual_state_global@P6AHPAU_exception@@@Z@__crt_state_management@@QAEXQ6AHPAU_exception@@@Z@Z 1004d12d f i libucrt:matherr.obj
 0001:0004c15c       ?value@?$dual_state_global@P6AHPAU_exception@@@Z@__crt_state_management@@QAEAAP6AHPAU_exception@@@ZXZ 1004d15c f i libucrt:matherr.obj
 0001:0004c15f       ___acrt_has_user_matherr   1004d15f f   libucrt:matherr.obj
 0001:0004c17d       ___acrt_initialize_user_matherr 1004d17d f   libucrt:matherr.obj
 0001:0004c18f       ___acrt_invoke_user_matherr 1004d18f f   libucrt:matherr.obj
 0001:0004c1ea       ___setusermatherr          1004d1ea f   libucrt:matherr.obj
 0001:0004ccf5       ??$find_first_file_ex@ABQADW4_FINDEX_INFO_LEVELS@@PAU_WIN32_FIND_DATAA@@W4_FINDEX_SEARCH_OPS@@$$TH@?$__crt_char_traits@D@@SAPAXABQAD$$QAW4_FINDEX_INFO_LEVELS@@$$QAPAU_WIN32_FIND_DATAA@@$$QAW4_FINDEX_SEARCH_OPS@@$$QA$$T$$QAH@Z 1004dcf5 f i libucrt:argv_wildcards.obj
 0001:0004cd2d       ??$find_first_file_ex@ABQA_WW4_FINDEX_INFO_LEVELS@@PAU_WIN32_FIND_DATAW@@W4_FINDEX_SEARCH_OPS@@$$TH@?$__crt_char_traits@_W@@SAPAXABQA_W$$QAW4_FINDEX_INFO_LEVELS@@$$QAPAU_WIN32_FIND_DATAW@@$$QAW4_FINDEX_SEARCH_OPS@@$$QA$$T$$QAH@Z 1004dd2d f i libucrt:argv_wildcards.obj
 0001:0004cd62       ??$find_next_file@PAXPAU_WIN32_FIND_DATAA@@@?$__crt_char_traits@D@@SAH$$QAPAX$$QAPAU_WIN32_FIND_DATAA@@@Z 1004dd62 f i libucrt:argv_wildcards.obj
 0001:0004cd80       ??$find_next_file@PAXPAU_WIN32_FIND_DATAW@@@?$__crt_char_traits@_W@@SAH$$QAPAX$$QAPAU_WIN32_FIND_DATAW@@@Z 1004dd80 f i libucrt:argv_wildcards.obj
 0001:0004cd9c       ??$tcsncpy_s@AAPADIAAPADABI@?$__crt_char_traits@D@@SAHAAPAD$$QAI0ABI@Z 1004dd9c f i libucrt:argv_wildcards.obj
 0001:0004cdc7       ??$tcsncpy_s@AAPA_WIAAPA_WABI@?$__crt_char_traits@_W@@SAHAAPA_W$$QAI0ABI@Z 1004ddc7 f i libucrt:argv_wildcards.obj
 0001:0004cdf2       ??$tcsncpy_s@PADABIABQBDABI@?$__crt_char_traits@D@@SAH$$QAPADABIABQBD1@Z 1004ddf2 f i libucrt:argv_wildcards.obj
 0001:0004ce1d       ??$tcsncpy_s@PADIABQBDABI@?$__crt_char_traits@D@@SAH$$QAPAD$$QAIABQBDABI@Z 1004de1d f i libucrt:argv_wildcards.obj
 0001:0004ce48       ??$tcsncpy_s@PA_WABIABQB_WABI@?$__crt_char_traits@_W@@SAH$$QAPA_WABIABQB_W1@Z 1004de48 f i libucrt:argv_wildcards.obj
 0001:0004ce73       ??$tcsncpy_s@PA_WIABQB_WABI@?$__crt_char_traits@_W@@SAH$$QAPA_W$$QAIABQB_WABI@Z 1004de73 f i libucrt:argv_wildcards.obj
 0001:0004ce9e       ??$tcspbrk@AAPADAAY02$$CBD@?$__crt_char_traits@D@@SAPADAAPADAAY02$$CBD@Z 1004de9e f i libucrt:argv_wildcards.obj
 0001:0004ceb9       ??$tcspbrk@AAPA_WAAY02$$CB_W@?$__crt_char_traits@_W@@SAPA_WAAPA_WAAY02$$CB_W@Z 1004deb9 f i libucrt:argv_wildcards.obj
 0001:0004ced4       ??0?$__crt_unique_handle_t@U__crt_findfile_traits@@@@QAE@QAX@Z 1004ded4 f i libucrt:argv_wildcards.obj
 0001:0004cf08       ??1?$__crt_unique_handle_t@U__crt_findfile_traits@@@@QAE@XZ 1004df08 f i libucrt:argv_wildcards.obj
 0001:0004d0b2       ?close@?$__crt_unique_handle_t@U__crt_findfile_traits@@@@QAEXXZ 1004e0b2 f i libucrt:argv_wildcards.obj
 0001:0004d0ce       ?close@__crt_findfile_traits@@SA_NPAX@Z 1004e0ce f i libucrt:argv_wildcards.obj
 0001:0004d240       ?get@?$__crt_unique_handle_t@U__crt_findfile_traits@@@@QBEPAXXZ 1004e240 f i libucrt:argv_wildcards.obj
 0001:0004d243       ?get_invalid_value@__crt_findfile_traits@@SAPAXXZ 1004e243 f i libucrt:argv_wildcards.obj
 0001:0004d27a       ?strpbrk@@YAPADQADQBD@Z    1004e27a f i libucrt:argv_wildcards.obj
 0001:0004d287       ?wcspbrk@@YAPA_WPA_WPB_W@Z 1004e287 f i libucrt:argv_wildcards.obj
 0001:0004d294       ___acrt_expand_narrow_argv_wildcards 1004e294 f   libucrt:argv_wildcards.obj
 0001:0004d2a1       ___acrt_expand_wide_argv_wildcards 1004e2a1 f   libucrt:argv_wildcards.obj
 0001:0004d333       ??$initialize_from_array@$$BY10BAA@E@?$dual_state_global@PAE@__crt_state_management@@QAAXAAY10BAA@E@Z 1004e333 f i libucrt:mbctype.obj
 0001:0004d345       ??$initialize_from_array@$$BY10BAB@E@?$dual_state_global@PAE@__crt_state_management@@QAAXAAY10BAB@E@Z 1004e345 f i libucrt:mbctype.obj
 0001:0004d4a4       ?dangerous_get_state_array@?$dual_state_global@PAE@__crt_state_management@@QAEPAPAEXZ 1004e4a4 f i libucrt:mbctype.obj
 0001:0004d4a7       ?dangerous_get_state_array@?$dual_state_global@PAU__crt_multibyte_data@@@__crt_state_management@@QAEPAPAU__crt_multibyte_data@@XZ 1004e4a7 f i libucrt:mbctype.obj
 0001:0004d539       ?initialize@?$dual_state_global@PAU__crt_multibyte_data@@@__crt_state_management@@QAEXQAU__crt_multibyte_data@@@Z 1004e539 f i libucrt:mbctype.obj
 0001:0004da28       ?value@?$dual_state_global@PAE@__crt_state_management@@QAEAAPAEXZ 1004ea28 f i libucrt:mbctype.obj
 0001:0004da2b       ___acrt_initialize_multibyte 1004ea2b f   libucrt:mbctype.obj
 0001:0004da85       ___acrt_update_thread_multibyte_data 1004ea85 f   libucrt:mbctype.obj
 0001:0004da9c       ___p__mbcasemap            1004ea9c f   libucrt:mbctype.obj
 0001:0004daa2       ___p__mbctype              1004eaa2 f   libucrt:mbctype.obj
 0001:0004daa8       __getmbcp                  1004eaa8 f   libucrt:mbctype.obj
 0001:0004daeb       __setmbcp                  1004eaeb f   libucrt:mbctype.obj
 0001:0004db11       __setmbcp_nolock           1004eb11 f   libucrt:mbctype.obj
 0001:0004de9a       __ismbbalnum               1004ee9a f   libucrt:ismbbyte.obj
 0001:0004debb       __ismbbalnum_l             1004eebb f   libucrt:ismbbyte.obj
 0001:0004dede       __ismbbalpha               1004eede f   libucrt:ismbbyte.obj
 0001:0004deff       __ismbbalpha_l             1004eeff f   libucrt:ismbbyte.obj
 0001:0004df22       __ismbbblank               1004ef22 f   libucrt:ismbbyte.obj
 0001:0004df4d       __ismbbblank_l             1004ef4d f   libucrt:ismbbyte.obj
 0001:0004df7a       __ismbbgraph               1004ef7a f   libucrt:ismbbyte.obj
 0001:0004df9b       __ismbbgraph_l             1004ef9b f   libucrt:ismbbyte.obj
 0001:0004dfbe       __ismbbkalnum              1004efbe f   libucrt:ismbbyte.obj
 0001:0004dfdc       __ismbbkalnum_l            1004efdc f   libucrt:ismbbyte.obj
 0001:0004dffb       __ismbbkana                1004effb f   libucrt:ismbbyte.obj
 0001:0004e012       __ismbbkana_l              1004f012 f   libucrt:ismbbyte.obj
 0001:0004e077       __ismbbkprint              1004f077 f   libucrt:ismbbyte.obj
 0001:0004e095       __ismbbkprint_l            1004f095 f   libucrt:ismbbyte.obj
 0001:0004e0b4       __ismbbkpunct              1004f0b4 f   libucrt:ismbbyte.obj
 0001:0004e0d2       __ismbbkpunct_l            1004f0d2 f   libucrt:ismbbyte.obj
 0001:0004e0f1       __ismbblead                1004f0f1 f   libucrt:ismbbyte.obj
 0001:0004e10f       __ismbblead_l              1004f10f f   libucrt:ismbbyte.obj
 0001:0004e12e       __ismbbprint               1004f12e f   libucrt:ismbbyte.obj
 0001:0004e14f       __ismbbprint_l             1004f14f f   libucrt:ismbbyte.obj
 0001:0004e172       __ismbbpunct               1004f172 f   libucrt:ismbbyte.obj
 0001:0004e190       __ismbbpunct_l             1004f190 f   libucrt:ismbbyte.obj
 0001:0004e1af       __ismbbtrail               1004f1af f   libucrt:ismbbyte.obj
 0001:0004e1cd       __ismbbtrail_l             1004f1cd f   libucrt:ismbbyte.obj
 0001:0004e1ec       ___acrt_initialize_command_line 1004f1ec f   libucrt:argv_data.obj
 0001:0004e20b       ___acrt_uninitialize_command_line 1004f20b f   libucrt:argv_data.obj
 0001:0004e20e       ___p___argc                1004f20e f   libucrt:argv_data.obj
 0001:0004e214       ___p___argv                1004f214 f   libucrt:argv_data.obj
 0001:0004e21a       ___p___wargv               1004f21a f   libucrt:argv_data.obj
 0001:0004e220       ___p__acmdln               1004f220 f   libucrt:argv_data.obj
 0001:0004e226       ___p__pgmptr               1004f226 f   libucrt:argv_data.obj
 0001:0004e22c       ___p__wcmdln               1004f22c f   libucrt:argv_data.obj
 0001:0004e232       ___p__wpgmptr              1004f232 f   libucrt:argv_data.obj
 0001:0004e238       __get_pgmptr               1004f238 f   libucrt:argv_data.obj
 0001:0004e275       __get_wpgmptr              1004f275 f   libucrt:argv_data.obj
 0001:0004e330       ___acrt_WideCharToMultiByte 1004f330 f   libucrt:widechartomultibyte.obj
 0001:0004e4c2       ___dcrt_get_narrow_environment_from_os 1004f4c2 f   libucrt:get_environment_from_os.obj
 0001:0004e569       ___dcrt_get_wide_environment_from_os 1004f569 f   libucrt:get_environment_from_os.obj
 0001:0004ee6d       ??$get_or_create_environment_nolock@$$V@?$__crt_char_traits@D@@SAPAPADXZ 1004fe6d f i libucrt:setenv.obj
 0001:0004ee72       ??$get_or_create_environment_nolock@$$V@?$__crt_char_traits@_W@@SAPAPA_WXZ 1004fe72 f i libucrt:setenv.obj
 0001:0004ee77       ??$set_environment_variable@ABQADQAD@?$__crt_char_traits@D@@SAHABQAD$$QBQAD@Z 1004fe77 f i libucrt:setenv.obj
 0001:0004ee95       ??$set_environment_variable@ABQA_WQA_W@?$__crt_char_traits@_W@@SAHABQA_W$$QBQA_W@Z 1004fe95 f i libucrt:setenv.obj
 0001:0004eeb1       ??$tcschr@ABQADD@?$__crt_char_traits@D@@SAPADABQAD$$QAD@Z 1004feb1 f i libucrt:setenv.obj
 0001:0004eed1       ??$tcschr@ABQA_WD@?$__crt_char_traits@_W@@SAPA_WABQA_W$$QAD@Z 1004fed1 f i libucrt:setenv.obj
 0001:0004eef6       ??$tcscpy_s@AAPADABIAAPAD@?$__crt_char_traits@D@@SAHAAPADABI0@Z 1004fef6 f i libucrt:setenv.obj
 0001:0004ef1b       ??$tcscpy_s@AAPA_WABIAAPA_W@?$__crt_char_traits@_W@@SAHAAPA_WABI0@Z 1004ff1b f i libucrt:setenv.obj
 0001:0004ef40       ??$tcscpy_s@ABQADABIABQAD@?$__crt_char_traits@D@@SAHABQADABI0@Z 1004ff40 f i libucrt:setenv.obj
 0001:0004ef65       ??$tcscpy_s@ABQA_WABIABQA_W@?$__crt_char_traits@_W@@SAHABQA_WABI0@Z 1004ff65 f i libucrt:setenv.obj
 0001:0004ef8a       ??$tcsnicoll@ABQBDAAPADABI@?$__crt_char_traits@D@@SAHABQBDAAPADABI@Z 1004ff8a f i libucrt:setenv.obj
 0001:0004efaf       ??$tcsnicoll@ABQB_WAAPA_WABI@?$__crt_char_traits@_W@@SAHABQB_WAAPA_WABI@Z 1004ffaf f i libucrt:setenv.obj
 0001:0004eff8       ?strchr@@YAPADQADH@Z       1004fff8 f i libucrt:setenv.obj
 0001:0004f005       ?wcschr@@YAPA_WPA_W_W@Z    10050005 f i libucrt:setenv.obj
 0001:0004f012       ___dcrt_set_variable_in_narrow_environment_nolock 10050012 f   libucrt:setenv.obj
 0001:0004f01f       ___dcrt_set_variable_in_wide_environment_nolock 1005001f f   libucrt:setenv.obj
 0001:0004f02c       __recalloc                 1005002c f   libucrt:recalloc.obj
 0001:0004f039       __recalloc_base            10050039 f   libucrt:recalloc.obj
 0001:0004f0c1       ___acrt_getheap            100500c1 f   libucrt:heap_handle.obj
 0001:0004f0c7       ___acrt_initialize_heap    100500c7 f   libucrt:heap_handle.obj
 0001:0004f0dc       ___acrt_uninitialize_heap  100500dc f   libucrt:heap_handle.obj
 0001:0004f0e8       __get_heap_handle          100500e8 f   libucrt:heap_handle.obj
 0001:0004f0ee       ___acrt_execute_initializers 100500ee f   libucrt:shared_initialization.obj
 0001:0004f191       ___acrt_execute_uninitializers 10050191 f   libucrt:shared_initialization.obj
 0001:0004f1eb       ??$?B$$A6AHI@Z@__crt_fast_encoded_nullptr_t@@QBEP6AHI@ZXZ 100501eb f i libucrt:new_handler.obj
 0001:0004f209       ??$__crt_fast_decode_pointer@P6AHI@Z@@YAP6AHI@ZQ6AHI@Z@Z 10050209 f i libucrt:new_handler.obj
 0001:0004f224       ??$__crt_fast_encode_pointer@P6AHI@Z@@YAP6AHI@ZQ6AHI@Z@Z 10050224 f i libucrt:new_handler.obj
 0001:0004f24a       ?_set_new_handler@@YAP6AHI@ZH@Z 1005024a f   libucrt:new_handler.obj
 0001:0004f270       ?initialize@?$dual_state_global@P6AHI@Z@__crt_state_management@@QAEXQ6AHI@Z@Z 10050270 f i libucrt:new_handler.obj
 0001:0004f29f       ?value@?$dual_state_global@P6AHI@Z@__crt_state_management@@QAEAAP6AHI@ZXZ 1005029f f i libucrt:new_handler.obj
 0001:0004f2a2       ___acrt_initialize_new_handler 100502a2 f   libucrt:new_handler.obj
 0001:0004f2b4       __callnewh                 100502b4 f   libucrt:new_handler.obj
 0001:0004f309       __query_new_handler        10050309 f   libucrt:new_handler.obj
 0001:0004f36f       __set_new_handler          1005036f f   libucrt:new_handler.obj
 0001:0004f3e7       ___pctype_func             100503e7 f   libucrt:ctype.obj
 0001:0004f416       ___pwctype_func            10050416 f   libucrt:ctype.obj
 0001:0004f41c       __iswctype_l               1005041c f   libucrt:iswctype.obj
 0001:0004f435       _iswctype                  10050435 f   libucrt:iswctype.obj
 0001:0004f4ba       __isctype                  100504ba f   libucrt:isctype.obj
 0001:0004f4f8       __isctype_l                100504f8 f   libucrt:isctype.obj
 0001:0004f606       ?value@?$dual_state_global@J@__crt_state_management@@QAEAAJXZ 10050606 f i libucrt:new_mode.obj
 0001:0004f609       __query_new_mode           10050609 f   libucrt:new_mode.obj
 0001:0004f60f       __set_new_mode             1005060f f   libucrt:new_mode.obj
 0001:0004f748       _wcsncpy_s                 10050748 f   libucrt:wcsncpy_s.obj
 0001:0004f963       __mbstowcs_l               10050963 f   libucrt:mbstowcs.obj
 0001:0004f970       __mbstowcs_s_l             10050970 f   libucrt:mbstowcs.obj
 0001:0004fa8a       _mbstowcs                  10050a8a f   libucrt:mbstowcs.obj
 0001:0004fabe       _mbstowcs_s                10050abe f   libucrt:mbstowcs.obj
 0001:0004fae6       ___acrt_OutputDebugStringA@4 10050ae6 f   libucrt:outputdebugstringa.obj
 0001:0004fd23       __commit                   10050d23 f   libucrt:commit.obj
 0001:0004ff6d       ___acrt_DownlevelLCIDToLocaleName 10050f6d f   libucrt:lcidtoname_downlevel.obj
 0001:00050041       ___acrt_DownlevelLocaleNameToLCID 10051041 f   libucrt:lcidtoname_downlevel.obj
 0001:00050078       ??$?RU__crt_lowio_handle_data@@@__crt_internal_free_policy@@QBEXQBU__crt_lowio_handle_data@@@Z 10051078 f i libucrt:osfinfo.obj
 0001:0005008e       ??0?$__crt_unique_heap_ptr@U__crt_lowio_handle_data@@U__crt_internal_free_policy@@@@QAE@QAU__crt_lowio_handle_data@@@Z 1005108e f i libucrt:osfinfo.obj
 0001:000500a2       ??1?$__crt_unique_heap_ptr@U__crt_lowio_handle_data@@U__crt_internal_free_policy@@@@QAE@XZ 100510a2 f i libucrt:osfinfo.obj
 0001:000500b8       ??B?$__crt_unique_heap_ptr@U__crt_lowio_handle_data@@U__crt_internal_free_policy@@@@QBE_NXZ 100510b8 f i libucrt:osfinfo.obj
 0001:000500bf       ?detach@?$__crt_unique_heap_ptr@U__crt_lowio_handle_data@@U__crt_internal_free_policy@@@@QAEPAU__crt_lowio_handle_data@@XZ 100510bf f i libucrt:osfinfo.obj
 0001:000500c5       ?get@?$__crt_unique_heap_ptr@U__crt_lowio_handle_data@@U__crt_internal_free_policy@@@@QBEPAU__crt_lowio_handle_data@@XZ 100510c5 f i libucrt:osfinfo.obj
 0001:000500c8       ?is_valid@?$__crt_unique_heap_ptr@U__crt_lowio_handle_data@@U__crt_internal_free_policy@@@@QBE_NXZ 100510c8 f i libucrt:osfinfo.obj
 0001:000500cf       ?release@?$__crt_unique_heap_ptr@U__crt_lowio_handle_data@@U__crt_internal_free_policy@@@@QAEXXZ 100510cf f i libucrt:osfinfo.obj
 0001:000500e5       ___acrt_lowio_create_handle_array 100510e5 f   libucrt:osfinfo.obj
 0001:0005017d       ___acrt_lowio_destroy_handle_array 1005117d f   libucrt:osfinfo.obj
 0001:000501bf       ___acrt_lowio_ensure_fh_exists 100511bf f   libucrt:osfinfo.obj
 0001:00050278       ___acrt_lowio_lock_fh      10051278 f   libucrt:osfinfo.obj
 0001:000502a3       ___acrt_lowio_set_os_handle 100512a3 f   libucrt:osfinfo.obj
 0001:0005035c       ___acrt_lowio_unlock_fh    1005135c f   libucrt:osfinfo.obj
 0001:00050387       __alloc_osfhnd             10051387 f   libucrt:osfinfo.obj
 0001:000504d2       __free_osfhnd              100514d2 f   libucrt:osfinfo.obj
 0001:00050587       __get_osfhandle            10051587 f   libucrt:osfinfo.obj
 0001:0005060b       __open_osfhandle           1005160b f   libucrt:osfinfo.obj
 0001:0005075a       __wcsnicmp                 1005175a f   libucrt:wcsnicmp.obj
 0001:00050837       __wcsnicmp_l               10051837 f   libucrt:wcsnicmp.obj
 0001:00050973       __strnicmp                 10051973 f   libucrt:strnicmp.obj
 0001:000509fb       __strnicmp_l               100519fb f   libucrt:strnicmp.obj
 0001:00050b84       ??$__vcrt_va_start_verify_argument_type@$$CBH@@YAXXZ 10051b84 f i libucrt:open.obj
 0001:00050ef5       ??$tsopen_nolock@PAHABQAHABQBDABHABHABHABH@?$__crt_char_traits@D@@SAH$$QAPAHABQAHABQBDABH333@Z 10051ef5 f i libucrt:open.obj
 0001:00050f33       ??$tsopen_nolock@PAHABQAHABQB_WABHABHABHABH@?$__crt_char_traits@_W@@SAH$$QAPAHABQAHABQB_WABH333@Z 10051f33 f i libucrt:open.obj
 0001:00050f71       ??$tsopen_nolock@PAHPAHABQBDABHHABHH@?$__crt_char_traits@D@@SAH$$QAPAH0ABQBDABH$$QAH23@Z 10051f71 f i libucrt:open.obj
 0001:00050faf       ??$tsopen_nolock@PAHPAHABQB_WABHHABHH@?$__crt_char_traits@_W@@SAH$$QAPAH0ABQB_WABH$$QAH23@Z 10051faf f i libucrt:open.obj
 0001:000517a1       __open                     100527a1 f   libucrt:open.obj
 0001:000517bf       __sopen                    100527bf f   libucrt:open.obj
 0001:00051801       __sopen_dispatch           10052801 f   libucrt:open.obj
 0001:0005180e       __sopen_nolock             1005280e f   libucrt:open.obj
 0001:0005189a       __sopen_s                  1005289a f   libucrt:open.obj
 0001:000518c2       __wopen                    100528c2 f   libucrt:open.obj
 0001:000518e0       __wsopen                   100528e0 f   libucrt:open.obj
 0001:00051922       __wsopen_dispatch          10052922 f   libucrt:open.obj
 0001:0005192f       __wsopen_nolock            1005292f f   libucrt:open.obj
 0001:00051d26       __wsopen_s                 10052d26 f   libucrt:open.obj
 0001:00051d4e       ___p__commode              10052d4e f   libucrt:ncommode.obj
 0001:00051d54       __isatty                   10052d54 f   libucrt:isatty.obj
 0001:00051dbf       ___acrt_stdio_allocate_buffer_nolock 10052dbf f   libucrt:_getbuf.obj
 0001:00051f3b       __putwch                   10052f3b f   libucrt:putwch.obj
 0001:00051f75       __putwch_nolock            10052f75 f   libucrt:putwch.obj
 0001:00051fb6       ___acrt_add_locale_ref     10052fb6 f   libucrt:locale_refcounting.obj
 0001:00052052       ___acrt_free_locale        10053052 f   libucrt:locale_refcounting.obj
 0001:000521ee       ___acrt_locale_add_lc_time_reference 100531ee f   libucrt:locale_refcounting.obj
 0001:00052221       ___acrt_locale_free_lc_time_if_unreferenced 10053221 f   libucrt:locale_refcounting.obj
 0001:0005225d       ___acrt_locale_release_lc_time_reference 1005325d f   libucrt:locale_refcounting.obj
 0001:00052290       ___acrt_release_locale_ref 10053290 f   libucrt:locale_refcounting.obj
 0001:00052331       ___acrt_update_thread_locale_data 10053331 f   libucrt:locale_refcounting.obj
 0001:000523c5       __updatetlocinfoEx_nolock  100533c5 f   libucrt:locale_refcounting.obj
 0001:00052429       ??$?RG@__crt_internal_free_policy@@QBEXQBG@Z 10053429 f i libucrt:initctype.obj
 0001:0005243f       ??$?RJ@__crt_internal_free_policy@@QBEXQBJ@Z 1005343f f i libucrt:initctype.obj
 0001:00052455       ??0?$__crt_unique_heap_ptr@GU__crt_internal_free_policy@@@@QAE@QAG@Z 10053455 f i libucrt:initctype.obj
 0001:00052469       ??0?$__crt_unique_heap_ptr@JU__crt_internal_free_policy@@@@QAE@QAJ@Z 10053469 f i libucrt:initctype.obj
 0001:0005247d       ??1?$__crt_unique_heap_ptr@GU__crt_internal_free_policy@@@@QAE@XZ 1005347d f i libucrt:initctype.obj
 0001:00052493       ??1?$__crt_unique_heap_ptr@JU__crt_internal_free_policy@@@@QAE@XZ 10053493 f i libucrt:initctype.obj
 0001:000524a9       ?detach@?$__crt_unique_heap_ptr@GU__crt_internal_free_policy@@@@QAEPAGXZ 100534a9 f i libucrt:initctype.obj
 0001:000524af       ?detach@?$__crt_unique_heap_ptr@JU__crt_internal_free_policy@@@@QAEPAJXZ 100534af f i libucrt:initctype.obj
 0001:000524b5       ?release@?$__crt_unique_heap_ptr@GU__crt_internal_free_policy@@@@QAEXXZ 100534b5 f i libucrt:initctype.obj
 0001:000524cb       ?release@?$__crt_unique_heap_ptr@JU__crt_internal_free_policy@@@@QAEXXZ 100534cb f i libucrt:initctype.obj
 0001:000524e1       ____lc_codepage_func       100534e1 f   libucrt:initctype.obj
 0001:00052511       ____lc_collate_cp_func     10053511 f   libucrt:initctype.obj
 0001:00052541       ____lc_locale_name_func    10053541 f   libucrt:initctype.obj
 0001:00052574       ____mb_cur_max_func        10053574 f   libucrt:initctype.obj
 0001:000525a4       ____mb_cur_max_l_func      100535a4 f   libucrt:initctype.obj
 0001:000525c3       ___acrt_locale_initialize_ctype 100535c3 f   libucrt:initctype.obj
 0001:00052b04       ??$?RUlconv@@@__crt_internal_free_policy@@QBEXQBUlconv@@@Z 10053b04 f i libucrt:initmon.obj
 0001:00052b1a       ??0?$__crt_unique_heap_ptr@Ulconv@@U__crt_internal_free_policy@@@@QAE@QAUlconv@@@Z 10053b1a f i libucrt:initmon.obj
 0001:00052b2e       ??1?$__crt_unique_heap_ptr@Ulconv@@U__crt_internal_free_policy@@@@QAE@XZ 10053b2e f i libucrt:initmon.obj
 0001:00052b44       ?detach@?$__crt_unique_heap_ptr@Ulconv@@U__crt_internal_free_policy@@@@QAEPAUlconv@@XZ 10053b44 f i libucrt:initmon.obj
 0001:00052b4a       ?release@?$__crt_unique_heap_ptr@Ulconv@@U__crt_internal_free_policy@@@@QAEXXZ 10053b4a f i libucrt:initmon.obj
 0001:00052b60       ___acrt_locale_free_monetary 10053b60 f   libucrt:initmon.obj
 0001:00052c9d       ___acrt_locale_initialize_monetary 10053c9d f   libucrt:initmon.obj
 0001:0005318a       ___acrt_locale_free_numeric 1005418a f   libucrt:initnum.obj
 0001:0005320d       ___acrt_locale_initialize_numeric 1005420d f   libucrt:initnum.obj
 0001:000534e8       ??$?RU__crt_lc_time_data@@@__crt_internal_free_policy@@QBEXQBU__crt_lc_time_data@@@Z 100544e8 f i libucrt:inittime.obj
 0001:00053588       ??0?$__crt_unique_heap_ptr@U__crt_lc_time_data@@U__crt_internal_free_policy@@@@QAE@QAU__crt_lc_time_data@@@Z 10054588 f i libucrt:inittime.obj
 0001:0005359c       ??1?$__crt_unique_heap_ptr@U__crt_lc_time_data@@U__crt_internal_free_policy@@@@QAE@XZ 1005459c f i libucrt:inittime.obj
 0001:000535b2       ??B?$__crt_unique_heap_ptr@U__crt_lc_time_data@@U__crt_internal_free_policy@@@@QBE_NXZ 100545b2 f i libucrt:inittime.obj
 0001:000535b9       ?detach@?$__crt_unique_heap_ptr@U__crt_lc_time_data@@U__crt_internal_free_policy@@@@QAEPAU__crt_lc_time_data@@XZ 100545b9 f i libucrt:inittime.obj
 0001:00053605       ?get@?$__crt_unique_heap_ptr@U__crt_lc_time_data@@U__crt_internal_free_policy@@@@QBEPAU__crt_lc_time_data@@XZ 10054605 f i libucrt:inittime.obj
 0001:0005399e       ?is_valid@?$__crt_unique_heap_ptr@U__crt_lc_time_data@@U__crt_internal_free_policy@@@@QBE_NXZ 1005499e f i libucrt:inittime.obj
 0001:000539a5       ?release@?$__crt_unique_heap_ptr@U__crt_lc_time_data@@U__crt_internal_free_policy@@@@QAEXXZ 100549a5 f i libucrt:inittime.obj
 0001:000539bb       ___acrt_locale_free_time   100549bb f   libucrt:inittime.obj
 0001:00053ad8       ___acrt_locale_initialize_time 10054ad8 f   libucrt:inittime.obj
 0001:00053b71       _wcscspn                   10054b71 f   libucrt:wcscspn.obj
 0001:00053be2       _wcspbrk                   10054be2 f   libucrt:wcspbrk.obj
 0001:00053c43       __wcsicmp                  10054c43 f   libucrt:wcsicmp.obj
 0001:00053cf4       __wcsicmp_l                10054cf4 f   libucrt:wcsicmp.obj
 0001:00053e08       ??0?$__crt_scoped_stack_ptr@_W@@QAE@U?$__crt_scoped_stack_ptr_tag@_W@@@Z 10054e08 f i libucrt:getstringtypea.obj
 0001:00053e1c       ??0?$__crt_scoped_stack_ptr_tag@_W@@QAE@QA_W@Z 10054e1c f i libucrt:getstringtypea.obj
 0001:00053e30       ??1?$__crt_scoped_stack_ptr@_W@@QAE@XZ 10054e30 f i libucrt:getstringtypea.obj
 0001:00053e3b       ?get@?$__crt_scoped_stack_ptr@_W@@QBEPA_WXZ 10054e3b f i libucrt:getstringtypea.obj
 0001:00053e3e       __MallocaComputeSize       10054e3e f i libucrt:getstringtypea.obj
 0001:00053e55       __MarkAllocaS              10054e55 f i libucrt:getstringtypea.obj
 0001:00053e70       ___acrt_GetStringTypeA     10054e70 f   libucrt:getstringtypea.obj
 0001:00053fb6       __freea_crt                10054fb6 f i libucrt:getstringtypea.obj
 0001:0005490d       ___acrt_get_qualified_locale 1005590d f   libucrt:get_qualified_locale.obj
 0001:000554fb       ___acrt_get_qualified_locale_downlevel 100564fb f   libucrt:getqloc_downlevel.obj
 0001:0005576f       _localeconv                1005676f f   libucrt:localeconv.obj
 0001:000557a3       ___iswcsym                 100567a3 f i libucrt:_wctype.obj
 0001:000557d2       ___iswcsymf                100567d2 f i libucrt:_wctype.obj
 0001:00055801       __isleadbyte_l             10056801 f i libucrt:_wctype.obj
 0001:00055848       __iswalnum_l               10056848 f i libucrt:_wctype.obj
 0001:00055863       __iswalpha_l               10056863 f i libucrt:_wctype.obj
 0001:0005587e       __iswblank_l               1005687e f i libucrt:_wctype.obj
 0001:000558a2       __iswcntrl_l               100568a2 f i libucrt:_wctype.obj
 0001:000558b9       __iswcsym_l                100568b9 f i libucrt:_wctype.obj
 0001:000558e8       __iswcsymf_l               100568e8 f i libucrt:_wctype.obj
 0001:00055917       __iswdigit_l               10056917 f i libucrt:_wctype.obj
 0001:0005592e       __iswgraph_l               1005692e f i libucrt:_wctype.obj
 0001:00055949       __iswlower_l               10056949 f i libucrt:_wctype.obj
 0001:00055960       __iswprint_l               10056960 f i libucrt:_wctype.obj
 0001:0005597b       __iswpunct_l               1005697b f i libucrt:_wctype.obj
 0001:00055992       __iswspace_l               10056992 f i libucrt:_wctype.obj
 0001:000559a9       __iswupper_l               100569a9 f i libucrt:_wctype.obj
 0001:000559c0       __iswxdigit_l              100569c0 f i libucrt:_wctype.obj
 0001:000559db       _isleadbyte                100569db f i libucrt:_wctype.obj
 0001:000559f2       _iswalnum                  100569f2 f i libucrt:_wctype.obj
 0001:00055a0d       _iswalpha                  10056a0d f i libucrt:_wctype.obj
 0001:00055a28       _iswascii                  10056a28 f i libucrt:_wctype.obj
 0001:00055a41       _iswblank                  10056a41 f i libucrt:_wctype.obj
 0001:00055a65       _iswcntrl                  10056a65 f i libucrt:_wctype.obj
 0001:00055a7c       _iswdigit                  10056a7c f i libucrt:_wctype.obj
 0001:00055a93       _iswgraph                  10056a93 f i libucrt:_wctype.obj
 0001:00055aae       _iswlower                  10056aae f i libucrt:_wctype.obj
 0001:00055ac5       _iswprint                  10056ac5 f i libucrt:_wctype.obj
 0001:00055ae0       _iswpunct                  10056ae0 f i libucrt:_wctype.obj
 0001:00055af7       _iswspace                  10056af7 f i libucrt:_wctype.obj
 0001:00055b0e       _iswupper                  10056b0e f i libucrt:_wctype.obj
 0001:00055b25       _iswxdigit                 10056b25 f i libucrt:_wctype.obj
 0001:00055b40       ??B?$__crt_scoped_stack_ptr@_W@@QBE_NXZ 10056b40 f i libucrt:lcmapstringa.obj
 0001:00055dae       ___acrt_LCMapStringA       10056dae f   libucrt:lcmapstringa.obj
 0001:00055e42       ?__mbrtowc_utf8@__crt_mbstring@@YAIPA_WPBDIPAU_Mbstatet@@@Z 10056e42 f   libucrt:mbrtowc.obj
 0001:00055e94       ?__mbsrtowcs_utf8@__crt_mbstring@@YAIPA_WPAPBDIPAU_Mbstatet@@@Z 10056e94 f   libucrt:mbrtowc.obj
 0001:000563b1       _btowc                     100573b1 f   libucrt:mbrtowc.obj
 0001:00056421       _mbrlen                    10057421 f   libucrt:mbrtowc.obj
 0001:00056462       _mbrtowc                   10057462 f   libucrt:mbrtowc.obj
 0001:000564c9       _mbsrtowcs                 100574c9 f   libucrt:mbrtowc.obj
 0001:000564d6       _mbsrtowcs_s               100574d6 f   libucrt:mbrtowc.obj
 0001:000565a1       ___acrt_fp_strflt_to_string 100575a1 f   libucrt:_fptostr.obj
 0001:00057ec0       ??0big_integer@__crt_strtox@@QAE@ABU01@@Z 10058ec0 f i libucrt:cfout.obj
 0001:00057f00       ??0big_integer@__crt_strtox@@QAE@XZ 10058f00 f i libucrt:cfout.obj
 0001:00057f60       ??4big_integer@__crt_strtox@@QAEAAU01@ABU01@@Z 10058f60 f i libucrt:cfout.obj
 0001:00057fa0       ??8__crt_strtox@@YA_NABUbig_integer@0@0@Z 10058fa0 f i libucrt:cfout.obj
 0001:00057ff0       ??9__crt_strtox@@YA_NABUbig_integer@0@0@Z 10058ff0 f i libucrt:cfout.obj
 0001:00058040       ?add_carry@__crt_strtox@@YAIAAIII@Z 10059040 f i libucrt:cfout.obj
 0001:00058070       ?add_multiply_carry@__crt_strtox@@YAIAAIIII@Z 10059070 f i libucrt:cfout.obj
 0001:000580a0       ?bit_scan_reverse@__crt_strtox@@YAII@Z 100590a0 f i libucrt:cfout.obj
 0001:000580d0       ?count_sequential_high_zeroes@__crt_strtox@@YAII@Z 100590d0 f i libucrt:cfout.obj
 0001:00058100       ?divide@__crt_strtox@@YA_KAAUbig_integer@1@ABU21@@Z 10059100 f i libucrt:cfout.obj
 0001:000586b0       ?is_zero@__crt_strtox@@YA_NABUbig_integer@1@@Z 100596b0 f i libucrt:cfout.obj
 0001:000586d0       ?make_big_integer@__crt_strtox@@YA?AUbig_integer@1@_K@Z 100596d0 f i libucrt:cfout.obj
 0001:00058700       ?make_big_integer_power_of_two@__crt_strtox@@YA?AUbig_integer@1@I@Z 10059700 f i libucrt:cfout.obj
 0001:00058760       ?multiply@__crt_strtox@@YA_NAAUbig_integer@1@ABU21@@Z 10059760 f i libucrt:cfout.obj
 0001:00058b70       ?multiply@__crt_strtox@@YA_NAAUbig_integer@1@I@Z 10059b70 f i libucrt:cfout.obj
 0001:00058c70       ?multiply_64_32@__crt_strtox@@YA_K_KI@Z 10059c70 f i libucrt:cfout.obj
 0001:00058c90       ?multiply_by_power_of_ten@__crt_strtox@@YA_NAAUbig_integer@1@I@Z 10059c90 f i libucrt:cfout.obj
 0001:00059300       ?multiply_core@__crt_strtox@@YAIQAIII@Z 1005a300 f i libucrt:cfout.obj
 0001:00059350       ?shift_left@__crt_strtox@@YA_NAAUbig_integer@1@I@Z 1005a350 f i libucrt:cfout.obj
 0001:000594fb       ___acrt_fltout             1005a4fb f   libucrt:cfout.obj
 0001:0005ade6       _nextafter                 1005bde6 f   libucrt:nextafter.obj
 0001:0005af20       _qsort                     1005bf20 f   libucrt:qsort.obj
 0001:0005b551       _strncpy_s                 1005c551 f   libucrt:strncpy_s.obj
 0001:0005b560       _strpbrk                   1005c560 f   libucrt:strpbrk.obj
 0001:0005b5b0       ??$__acrt_convert_wcs_mbs@D_W$$A6AIPA_WPBDIPAU__crt_locale_pointers@@@ZU__crt_win32_buffer_internal_dynamic_resizing@@@@YAHQBDAAV?$__crt_win32_buffer@_WU__crt_win32_buffer_internal_dynamic_resizing@@@@A6AIPA_WPBDIPAU__crt_locale_pointers@@@Z4@Z 1005c5b0 f i libucrt:findfirstfileexa.obj
 0001:0005b679       ??$__acrt_mbs_to_wcs@U__crt_win32_buffer_internal_dynamic_resizing@@@@YAHQBDAAV?$__crt_win32_buffer@_WU__crt_win32_buffer_internal_dynamic_resizing@@@@PAU__crt_locale_pointers@@@Z 1005c679 f i libucrt:findfirstfileexa.obj
 0001:0005b69d       ?set_to_nullptr@?$__crt_win32_buffer@_WU__crt_win32_buffer_internal_dynamic_resizing@@@@QAEXXZ 1005c69d f i libucrt:findfirstfileexa.obj
 0001:0005b6b9       ___acrt_FindFirstFileExA   1005c6b9 f   libucrt:findfirstfileexa.obj
 0001:0005b738       ??$?0$0BAE@@?$__crt_win32_buffer@DU__crt_win32_buffer_no_resizing@@@@QAE@AAY0BAE@D@Z 1005c738 f i libucrt:findnextfilea.obj
 0001:0005b767       ??$?0$0O@@?$__crt_win32_buffer@DU__crt_win32_buffer_no_resizing@@@@QAE@AAY0O@D@Z 1005c767 f i libucrt:findnextfilea.obj
 0001:0005b794       ??$__acrt_convert_wcs_mbs@_WD$$A6AIPADPB_WIPAU__crt_locale_pointers@@@ZU__crt_win32_buffer_no_resizing@@@@YAHQB_WAAV?$__crt_win32_buffer@DU__crt_win32_buffer_no_resizing@@@@A6AIPADPB_WIPAU__crt_locale_pointers@@@Z4@Z 1005c794 f i libucrt:findnextfilea.obj
 0001:0005b85e       ??$__acrt_wcs_to_mbs@U__crt_win32_buffer_no_resizing@@@@YAHQB_WAAV?$__crt_win32_buffer@DU__crt_win32_buffer_no_resizing@@@@PAU__crt_locale_pointers@@@Z 1005c85e f i libucrt:findnextfilea.obj
 0001:0005b882       ??1?$__crt_win32_buffer@DU__crt_win32_buffer_no_resizing@@@@QAE@XZ 1005c882 f i libucrt:findnextfilea.obj
 0001:0005b88f       ?_deallocate@?$__crt_win32_buffer@DU__crt_win32_buffer_no_resizing@@@@AAEXXZ 1005c88f f i libucrt:findnextfilea.obj
 0001:0005b89c       ?allocate@?$__crt_win32_buffer@DU__crt_win32_buffer_no_resizing@@@@QAEHI@Z 1005c89c f i libucrt:findnextfilea.obj
 0001:0005b8cc       ?allocate@__crt_win32_buffer_no_resizing@@SAHQAPAXIABV__crt_win32_buffer_empty_debug_info@@@Z 1005c8cc f i libucrt:findnextfilea.obj
 0001:0005b8dc       ?capacity@?$__crt_win32_buffer@DU__crt_win32_buffer_no_resizing@@@@QBEIXZ 1005c8dc f i libucrt:findnextfilea.obj
 0001:0005b8e0       ?data@?$__crt_win32_buffer@DU__crt_win32_buffer_no_resizing@@@@QAEPADXZ 1005c8e0 f i libucrt:findnextfilea.obj
 0001:0005b8e4       ?deallocate@__crt_win32_buffer_no_resizing@@SAXQAXABV__crt_win32_buffer_empty_debug_info@@@Z 1005c8e4 f i libucrt:findnextfilea.obj
 0001:0005b8e5       ?debug_info@?$__crt_win32_buffer@DU__crt_win32_buffer_no_resizing@@@@QBEABV__crt_win32_buffer_empty_debug_info@@XZ 1005c8e5 f i libucrt:findnextfilea.obj
 0001:0005b8e8       ?set_to_nullptr@?$__crt_win32_buffer@DU__crt_win32_buffer_no_resizing@@@@QAEXXZ 1005c8e8 f i libucrt:findnextfilea.obj
 0001:0005b901       ?size@?$__crt_win32_buffer@DU__crt_win32_buffer_no_resizing@@@@QAEXI@Z 1005c901 f i libucrt:findnextfilea.obj
 0001:0005b913       ___acrt_FindNextFileA      1005c913 f   libucrt:findnextfilea.obj
 0001:0005baa4       __mbsdec                   1005caa4 f   libucrt:mbsdec.obj
 0001:0005bac0       __mbsdec_l                 1005cac0 f   libucrt:mbsdec.obj
 0001:0005bb84       __wcsnicoll                1005cb84 f   libucrt:wcsnicol.obj
 0001:0005bc7c       __wcsnicoll_l              1005cc7c f   libucrt:wcsnicol.obj
 0001:0005bde1       __strnicoll                1005cde1 f   libucrt:strnicol.obj
 0001:0005be14       __strnicoll_l              1005ce14 f   libucrt:strnicol.obj
 0001:0005bf10       ___acrt_SetEnvironmentVariableA 1005cf10 f   libucrt:setenvironmentvariablea.obj
 0001:0005bfdf       __msize                    1005cfdf f   libucrt:msize.obj
 0001:0005bfec       __msize_base               1005cfec f   libucrt:msize.obj
 0001:0005c02b       ___acrt_GetStringTypeW     1005d02b f   libucrt:getstringtypew.obj
 0001:0005c04a       __towlower_l               1005d04a f   libucrt:towlower.obj
 0001:0005c145       _towlower                  1005d145 f   libucrt:towlower.obj
 0001:0005c160       ___ascii_strnicmp          1005d160 f   libucrt:_strnicm.obj
 0001:0005c1d9       ??$__crt_interlocked_read@H@@YAHPDH@Z 1005d1d9 f i libucrt:setmode.obj
 0001:0005c1e8       ?value@?$dual_state_global@H@__crt_state_management@@QAEAAHXZ 1005d1e8 f i libucrt:setmode.obj
 0001:0005c1eb       __get_fmode                1005d1eb f   libucrt:setmode.obj
 0001:0005c222       __set_fmode                1005d222 f   libucrt:setmode.obj
 0001:0005c26e       __setmode                  1005d26e f   libucrt:setmode.obj
 0001:0005c3b6       __setmode_nolock           1005d3b6 f   libucrt:setmode.obj
 0001:0005c647       __chsize                   1005d647 f   libucrt:chsize.obj
 0001:0005c66a       __chsize_nolock            1005d66a f   libucrt:chsize.obj
 0001:0005c85f       __chsize_s                 1005d85f f   libucrt:chsize.obj
 0001:0005c937       __umask                    1005d937 f   libucrt:umask.obj
 0001:0005c965       __umask_s                  1005d965 f   libucrt:umask.obj
 0001:0005ca88       ___dcrt_lowio_ensure_console_output_initialized 1005da88 f   libucrt:initcon.obj
 0001:0005caae       ___dcrt_terminate_console_output 1005daae f   libucrt:initcon.obj
 0001:0005caca       ___dcrt_write_console      1005daca f   libucrt:initcon.obj
 0001:0005cc4d       ___acrt_GetLocaleInfoA     1005dc4d f   libucrt:getlocaleinfoa.obj
 0001:0005ce6b       ___strncnt                 1005de6b f   libucrt:strncnt.obj
 0001:0005ce8e       ?__mbrtoc32_utf8@__crt_mbstring@@YAIPA_UPBDIPAU_Mbstatet@@@Z 1005de8e f   libucrt:mbrtoc32.obj
 0001:0005d0af       ?reset_and_return@__crt_mbstring@@YAIIPAU_Mbstatet@@@Z 1005e0af f i libucrt:mbrtoc32.obj
 0001:0005d0c8       ?return_illegal_sequence@__crt_mbstring@@YAIPAU_Mbstatet@@@Z 1005e0c8 f i libucrt:mbrtoc32.obj
 0001:0005d0ee       _mbrtoc32                  1005e0ee f   libucrt:mbrtoc32.obj
 0001:0005d0fb       _fegetenv                  1005e0fb f   libucrt:fegetenv.obj
 0001:0005d11f       _fesetenv                  1005e11f f   libucrt:fesetenv.obj
 0001:0005d17f       _feholdexcept              1005e17f f   libucrt:feholdexcept.obj
 0001:0005d1f0       __CIlog10                  1005e1f0 f   libucrt:log10_impl.obj
 0001:0005d22b       __CIlog10_default          1005e22b f   libucrt:log10_impl.obj
 0001:0005d23f       __log10_default            1005e23f     libucrt:log10_impl.obj
 0001:0005d350       _ceil                      1005e350 f   libucrt:ceil_pentium4.obj
 0001:0005d390       __ceil_pentium4            1005e390 f   libucrt:ceil_pentium4.obj
 0001:0005d4b4       _nexttoward                1005e4b4 f   libucrt:nexttoward.obj
 0001:0005d9fc       __wcstombs_l               1005e9fc f   libucrt:wcstombs.obj
 0001:0005da09       __wcstombs_s_l             1005ea09 f   libucrt:wcstombs.obj
 0001:0005db09       _wcstombs                  1005eb09 f   libucrt:wcstombs.obj
 0001:0005db29       _wcstombs_s                1005eb29 f   libucrt:wcstombs.obj
 0001:0005db51       ___acrt_CompareStringW     1005eb51 f   libucrt:comparestringw.obj
 0001:0005dee8       ___acrt_CompareStringA     1005eee8 f   libucrt:comparestringa.obj
 0001:0005df42       ___acrt_LCMapStringW       1005ef42 f   libucrt:lcmapstringw.obj
 0001:0005df8f       ___p__fmode                1005ef8f f   libucrt:txtmode.obj
 0001:0005df95       ??$__acrt_fenv_shift_bits@W4__acrt_fenv_abstract_control@@@@YA?AW4__acrt_fenv_abstract_control@@W40@0I@Z 1005ef95 f i libucrt:_fenvutils.obj
 0001:0005dfab       ??$__acrt_fenv_shift_bits@W4__acrt_fenv_abstract_status@@@@YA?AW4__acrt_fenv_abstract_status@@W40@0I@Z 1005efab f i libucrt:_fenvutils.obj
 0001:0005dfc1       ??$__acrt_fenv_translate_bit@W4__acrt_fenv_abstract_control@@W4__acrt_fenv_machine_sse_control@@@@YA?AW4__acrt_fenv_abstract_control@@W4__acrt_fenv_machine_sse_control@@0W40@1@Z 1005efc1 f i libucrt:_fenvutils.obj
 0001:0005dfdf       ??$__acrt_fenv_translate_bit@W4__acrt_fenv_abstract_control@@W4__acrt_fenv_machine_x87_control@@@@YA?AW4__acrt_fenv_abstract_control@@W4__acrt_fenv_machine_x87_control@@0W40@1@Z 1005efdf f i libucrt:_fenvutils.obj
 0001:0005dffd       ??$__acrt_fenv_translate_bit@W4__acrt_fenv_abstract_status@@W4__acrt_fenv_machine_sse_status@@@@YA?AW4__acrt_fenv_abstract_status@@W4__acrt_fenv_machine_sse_status@@0W40@1@Z 1005effd f i libucrt:_fenvutils.obj
 0001:0005e017       ??$__acrt_fenv_translate_bit@W4__acrt_fenv_abstract_status@@W4__acrt_fenv_machine_x87_status@@@@YA?AW4__acrt_fenv_abstract_status@@W4__acrt_fenv_machine_x87_status@@0W40@1@Z 1005f017 f i libucrt:_fenvutils.obj
 0001:0005e031       ??$__acrt_fenv_translate_bit@W4__acrt_fenv_machine_sse_control@@W4__acrt_fenv_abstract_control@@@@YA?AW4__acrt_fenv_machine_sse_control@@W4__acrt_fenv_abstract_control@@0W40@1@Z 1005f031 f i libucrt:_fenvutils.obj
 0001:0005e04d       ??$__acrt_fenv_translate_bit@W4__acrt_fenv_machine_sse_status@@W4__acrt_fenv_abstract_status@@@@YA?AW4__acrt_fenv_machine_sse_status@@W4__acrt_fenv_abstract_status@@0W40@1@Z 1005f04d f i libucrt:_fenvutils.obj
 0001:0005e067       ??$__acrt_fenv_translate_bit@W4__acrt_fenv_machine_x87_control@@W4__acrt_fenv_abstract_control@@@@YA?AW4__acrt_fenv_machine_x87_control@@W4__acrt_fenv_abstract_control@@0W40@1@Z 1005f067 f i libucrt:_fenvutils.obj
 0001:0005e083       ??$__acrt_fenv_translate_bit@W4__acrt_fenv_machine_x87_status@@W4__acrt_fenv_abstract_status@@@@YA?AW4__acrt_fenv_machine_x87_status@@W4__acrt_fenv_abstract_status@@0W40@1@Z 1005f083 f i libucrt:_fenvutils.obj
 0001:0005e09d       ??$__acrt_fenv_unshift_bits@W4__acrt_fenv_abstract_control@@@@YA?AW4__acrt_fenv_abstract_control@@W40@0I@Z 1005f09d f i libucrt:_fenvutils.obj
 0001:0005e0b3       ??$__acrt_fenv_unshift_bits@W4__acrt_fenv_abstract_status@@@@YA?AW4__acrt_fenv_abstract_status@@W40@0I@Z 1005f0b3 f i libucrt:_fenvutils.obj
 0001:0005e6de       ??I@YA?AW4__acrt_fenv_abstract_control@@W40@0@Z 1005f6de f i libucrt:_fenvutils.obj
 0001:0005e6ee       ??I@YA?AW4__acrt_fenv_abstract_status@@W40@0@Z 1005f6ee f i libucrt:_fenvutils.obj
 0001:0005e6fe       ??I@YA?AW4__acrt_fenv_machine_sse_control@@W40@0@Z 1005f6fe f i libucrt:_fenvutils.obj
 0001:0005e70e       ??I@YA?AW4__acrt_fenv_machine_sse_status@@W40@0@Z 1005f70e f i libucrt:_fenvutils.obj
 0001:0005e71e       ??I@YA?AW4__acrt_fenv_machine_x87_control@@W40@0@Z 1005f71e f i libucrt:_fenvutils.obj
 0001:0005e72e       ??I@YA?AW4__acrt_fenv_machine_x87_status@@W40@0@Z 1005f72e f i libucrt:_fenvutils.obj
 0001:0005e73e       ??U@YA?AW4__acrt_fenv_abstract_control@@W40@0@Z 1005f73e f i libucrt:_fenvutils.obj
 0001:0005e74e       ??U@YA?AW4__acrt_fenv_abstract_status@@W40@0@Z 1005f74e f i libucrt:_fenvutils.obj
 0001:0005e75e       ??U@YA?AW4__acrt_fenv_machine_sse_control@@W40@0@Z 1005f75e f i libucrt:_fenvutils.obj
 0001:0005e76e       ??U@YA?AW4__acrt_fenv_machine_x87_control@@W40@0@Z 1005f76e f i libucrt:_fenvutils.obj
 0001:0005e77e       ??_5@YAAAW4__acrt_fenv_abstract_control@@AAW40@W40@@Z 1005f77e f i libucrt:_fenvutils.obj
 0001:0005e790       ??_5@YAAAW4__acrt_fenv_abstract_status@@AAW40@W40@@Z 1005f790 f i libucrt:_fenvutils.obj
 0001:0005e7a2       ??_5@YAAAW4__acrt_fenv_machine_sse_control@@AAW40@W40@@Z 1005f7a2 f i libucrt:_fenvutils.obj
 0001:0005e7b7       ??_5@YAAAW4__acrt_fenv_machine_sse_status@@AAW40@W40@@Z 1005f7b7 f i libucrt:_fenvutils.obj
 0001:0005e7c9       ??_5@YAAAW4__acrt_fenv_machine_x87_control@@AAW40@W40@@Z 1005f7c9 f i libucrt:_fenvutils.obj
 0001:0005e7de       ??_5@YAAAW4__acrt_fenv_machine_x87_status@@AAW40@W40@@Z 1005f7de f i libucrt:_fenvutils.obj
 0001:0005e7f0       ?__acrt_fenv_shift_abstract_sse_control@@YA?AW4__acrt_fenv_abstract_control@@W41@@Z 1005f7f0 f i libucrt:_fenvutils.obj
 0001:0005e814       ?__acrt_fenv_shift_abstract_sse_status@@YA?AW4__acrt_fenv_abstract_status@@W41@@Z 1005f814 f i libucrt:_fenvutils.obj
 0001:0005e828       ?__acrt_fenv_shift_abstract_x87_control@@YA?AW4__acrt_fenv_abstract_control@@W41@@Z 1005f828 f i libucrt:_fenvutils.obj
 0001:0005e84c       ?__acrt_fenv_shift_abstract_x87_status@@YA?AW4__acrt_fenv_abstract_status@@W41@@Z 1005f84c f i libucrt:_fenvutils.obj
 0001:0005e860       ?__acrt_fenv_unshift_abstract_sse_control@@YA?AW4__acrt_fenv_abstract_control@@W41@@Z 1005f860 f i libucrt:_fenvutils.obj
 0001:0005e886       ?__acrt_fenv_unshift_abstract_sse_status@@YA?AW4__acrt_fenv_abstract_status@@W41@@Z 1005f886 f i libucrt:_fenvutils.obj
 0001:0005e89a       ?__acrt_fenv_unshift_abstract_x87_control@@YA?AW4__acrt_fenv_abstract_control@@W41@@Z 1005f89a f i libucrt:_fenvutils.obj
 0001:0005e8c0       ?__acrt_fenv_unshift_abstract_x87_status@@YA?AW4__acrt_fenv_abstract_status@@W41@@Z 1005f8c0 f i libucrt:_fenvutils.obj
 0001:0005ef77       ___acrt_fenv_expand_round_control 1005ff77 f   libucrt:_fenvutils.obj
 0001:0005efba       ___acrt_fenv_get_common_round_control 1005ffba f   libucrt:_fenvutils.obj
 0001:0005efe4       ___acrt_fenv_get_control   1005ffe4 f   libucrt:_fenvutils.obj
 0001:0005f086       ___acrt_fenv_get_fp_status_word_from_exception_mask 10060086 f   libucrt:_fenvutils.obj
 0001:0005f0a6       ___acrt_fenv_get_status    100600a6 f   libucrt:_fenvutils.obj
 0001:0005f198       ___acrt_fenv_set_control   10060198 f   libucrt:_fenvutils.obj
 0001:0005f21c       ___acrt_fenv_set_status    1006021c f   libucrt:_fenvutils.obj
 0001:0005f4e8       ___control87_2             100604e8 f   libucrt:ieee87.obj
 0001:0005fab4       ___fpreset_sse2            10060ab4 f   libucrt:ieee87.obj
 0001:0005fcfd       __clearfp                  10060cfd f   libucrt:ieee87.obj
 0001:0005fe15       __control87                10060e15 f   libucrt:ieee87.obj
 0001:000601d3       __controlfp                100611d3 f   libucrt:ieee87.obj
 0001:000601f3       __fpreset                  100611f3 f   libucrt:ieee87.obj
 0001:000602f6       __set_controlfp            100612f6 f   libucrt:ieee87.obj
 0001:0006038c       __statusfp                 1006138c f   libucrt:ieee87.obj
 0001:00060450       __statusfp2                10061450 f   libucrt:ieee87.obj
 0001:000604ce       ___acrt_initialize_sse2    100614ce f   libucrt:mathfcns.obj
 0001:000604e2       __set_SSE2_enable          100614e2 f   libucrt:mathfcns.obj
 0001:00060510       __CIlog10_pentium4         10061510 f   libucrt:log10_pentium4.obj
 0001:00060528       __log10_pentium4           10061528     libucrt:log10_pentium4.obj
 0001:00060870       __fFEXP                    10061870 f   libucrt:87tran.obj
 0001:000608c7       __rtinfpopse               100618c7     libucrt:87tran.obj
 0001:000608c9       __rtinfnpopse              100618c9     libucrt:87tran.obj
 0001:000608d9       __fFLN                     100618d9     libucrt:87tran.obj
 0001:0006098e       __rtinfpop                 1006198e     libucrt:87tran.obj
 0001:00060990       __rtinfnpop                10061990     libucrt:87tran.obj
 0001:000609a0       __rtforexpinf              100619a0 f   libucrt:87tran.obj
 0001:000609ad       __ffexpm1                  100619ad     libucrt:87tran.obj
 0001:00060ae0       __trandisp1                10061ae0 f   libucrt:87disp.obj
 0001:00060b55       __trandisp2                10061b55 f   libucrt:87disp.obj
 0001:00060bef       __rttospopde               10061bef     libucrt:87disp.obj
 0001:00060bf4       __rttospop                 10061bf4     libucrt:87disp.obj
 0001:00060c00       __rtnospop                 10061c00 f   libucrt:87disp.obj
 0001:00060c10       __rttosnpop                10061c10 f   libucrt:87disp.obj
 0001:00060c11       __rtnospopde               10061c11     libucrt:87disp.obj
 0001:00060c18       __rtzeropop                10061c18     libucrt:87disp.obj
 0001:00060c1a       __rtzeronpop               10061c1a     libucrt:87disp.obj
 0001:00060c20       __rtzerospop               10061c20 f   libucrt:87disp.obj
 0001:00060c2d       __rtonepop                 10061c2d     libucrt:87disp.obj
 0001:00060c30       __rtonenpop                10061c30 f   libucrt:87disp.obj
 0001:00060c40       __tosnan1                  10061c40 f   libucrt:87disp.obj
 0001:00060c70       __nosnan2                  10061c70 f   libucrt:87disp.obj
 0001:00060c80       __tosnan2                  10061c80 f   libucrt:87disp.obj
 0001:00060cb0       __nan2                     10061cb0 f   libucrt:87disp.obj
 0001:00060cf0       __rtindfpop                10061cf0 f   libucrt:87disp.obj
 0001:00060cf2       __rtindfnpop               10061cf2     libucrt:87disp.obj
 0001:00060d03       __rttosnpopde              10061d03     libucrt:87disp.obj
 0001:00060d10       __rtatan2inf               10061d10 f   libucrt:87disp.obj
 0001:00060d2d       __rtchsifneg               10061d2d     libucrt:87disp.obj
 0001:00060dc9       ___setfflag                10061dc9 f   libucrt:fp_flags.obj
 0001:00060df0       __twoToTOS                 10061df0 f   libucrt:common.obj
 0001:00060e05       __load_CW                  10061e05 f   libucrt:common.obj
 0001:00060e1c       __convertTOStoQNaN         10061e1c f   libucrt:common.obj
 0001:00060e35       __fload_withFB             10061e35 f   libucrt:common.obj
 0001:00060e78       __checkTOS_withFB          10061e78 f   libucrt:common.obj
 0001:00060e8e       __fast_exit                10061e8e f   libucrt:common.obj
 0001:00060e9b       __math_exit                10061e9b f   libucrt:common.obj
 0001:00060ec5       __check_overflow_exit      10061ec5 f   libucrt:common.obj
 0001:00060ed9       __check_range_exit         10061ed9 f   libucrt:common.obj
 0001:00060fe0       __startTwoArgErrorHandling 10061fe0 f   libucrt:genexcep.obj
 0001:00060ff7       __startOneArgErrorHandling 10061ff7 f   libucrt:genexcep.obj
 0001:00061047       ___libm_error_support      10062047 f   libucrt:libm_error.obj
 0001:000612e5       ___libm_setusermatherr     100622e5 f   libucrt:libm_error.obj
 0001:00061315       __ceil_default             10062315 f   libucrt:ceil.obj
 0001:00061492       __d_int                    10062492 f   libucrt:_test.obj
 0001:000615dc       __dtest                    100625dc f   libucrt:_test.obj
 0001:00061659       __fd_int                   10062659 f   libucrt:_test.obj
 0001:0006175b       __fdtest                   1006275b f   libucrt:_test.obj
 0001:000617bc       __fperrraise               100627bc f   libucrt:_test.obj
 0001:000617e7       __ld_int                   100627e7 f   libucrt:_test.obj
 0001:000617f4       __ldtest                   100627f4 f   libucrt:_test.obj
 0001:00061801       ?__wcsrtombs_utf8@__crt_mbstring@@YAIPADPAPB_WIPAU_Mbstatet@@@Z 10062801 f   libucrt:wcrtomb.obj
 0001:00061cab       _wcrtomb                   10062cab f   libucrt:wcrtomb.obj
 0001:00061ce8       _wcrtomb_s                 10062ce8 f   libucrt:wcrtomb.obj
 0001:00061d7f       _wcsrtombs                 10062d7f f   libucrt:wcrtomb.obj
 0001:00061d8c       _wcsrtombs_s               10062d8c f   libucrt:wcrtomb.obj
 0001:00061e4b       _wctob                     10062e4b f   libucrt:wcrtomb.obj
 0001:00061ebf       __controlfp_s              10062ebf f   libucrt:contrlfp.obj
 0001:00061f35       __d_inttype                10062f35 f   libucrt:powhlp.obj
 0001:00061fb9       __powhlp                   10062fb9 f   libucrt:powhlp.obj
 0001:0006212e       __87except                 1006312e f   libucrt:87except.obj
 0001:0006227a       __frnd                     1006327a f   libucrt:frnd.obj
 0001:00062295       ??_4@YAAAW4__acrt_fenv_abstract_status@@AAW40@W40@@Z 10063295 f i libucrt:fegetexceptflag.obj
 0001:000622a7       _fegetexceptflag           100632a7 f   libucrt:fegetexceptflag.obj
 0001:000622e4       ??S@YA?AW4__acrt_fenv_abstract_status@@W40@@Z 100632e4 f i libucrt:fesetexceptflag.obj
 0001:000622f3       _fesetexceptflag           100632f3 f   libucrt:fesetexceptflag.obj
 0001:00062362       ?__c16rtomb_utf8@__crt_mbstring@@YAIPAD_SPAU_Mbstatet@@@Z 10063362 f   libucrt:c16rtomb.obj
 0001:000624ba       _c16rtomb                  100634ba f   libucrt:c16rtomb.obj
 0001:000624c7       _fetestexcept              100634c7 f   libucrt:fetestexcept.obj
 0001:000624f1       ?__c32rtomb_utf8@__crt_mbstring@@YAIPAD_UPAU_Mbstatet@@@Z 100634f1 f   libucrt:c32rtomb.obj
 0001:000625cb       _c32rtomb                  100635cb f   libucrt:c32rtomb.obj
 0001:000625e0       __FindPESection            100635e0 f   LIBCMT:pesect.obj
 0001:00062640       __IsNonwritableInCurrentImage 10063640 f   LIBCMT:pesect.obj
 0001:00062730       __ValidateImageBase        10063730 f   LIBCMT:pesect.obj
 0001:0006276f       __EH_epilog3               1006376f f   LIBCMT:ehprolg3.obj
 0001:00062789       __EH_epilog3_GS            10063789 f   LIBCMT:ehprolg3.obj
 0001:0006279e       __EH_epilog3_catch_GS      1006379e f   LIBCMT:ehprolg3.obj
 0001:000627b3       __EH_prolog3               100637b3 f   LIBCMT:ehprolg3.obj
 0001:000627f4       __EH_prolog3_GS            100637f4 f   LIBCMT:ehprolg3.obj
 0001:00062838       __EH_prolog3_catch         10063838 f   LIBCMT:ehprolg3.obj
 0001:0006287c       __EH_prolog3_catch_GS      1006387c f   LIBCMT:ehprolg3.obj
 0001:000628d0       __aulldvrm                 100638d0 f   LIBCMT:ulldvrm.obj
 0001:0006298a       ??1type_info@@UAE@XZ       1006398a f   LIBCMT:std_type_info_static.obj
 0001:00062991       ??_Gtype_info@@UAEPAXI@Z   10063991 f i LIBCMT:std_type_info_static.obj
 0001:00062991       ??_Etype_info@@UAEPAXI@Z   10063991 f i LIBCMT:std_type_info_static.obj
 0001:000629bc       ??3@YAXPAXI@Z              100639bc f   LIBCMT:delete_scalar_size.obj
 0001:000629d0       __SEH_prolog4_GS           100639d0 f   LIBCMT:sehprolg4gs.obj
 0001:00062a19       __SEH_epilog4_GS           10063a19 f   LIBCMT:sehprolg4gs.obj
 0001:00062a40       __allmul                   10063a40 f   LIBCMT:llmul.obj
 0001:00062a90       __alloca_probe             10063a90 f   LIBCMT:chkstk.obj
 0001:00062a90       __chkstk                   10063a90 f   LIBCMT:chkstk.obj
 0001:00062ad0       __alldvrm                  10063ad0 f   LIBCMT:lldvrm.obj
 0001:00062bf0       __aullshr                  10063bf0 f   LIBCMT:ullshr.obj
 0001:00062c20       __alloca_probe_16          10063c20 f   LIBCMT:alloca16.obj
 0001:00062c36       __alloca_probe_8           10063c36     LIBCMT:alloca16.obj
 0001:00062c60       __allshl                   10063c60 f   LIBCMT:llshl.obj
 0001:00062c90       __ftol2_sse                10063c90 f   LIBCMT:ftol2.obj
 0001:00062c99       __ftol2_pentium4           10063c99 f   LIBCMT:ftol2.obj
 0001:00062cac       __ftol2_sse_excpt          10063cac f   LIBCMT:ftol2.obj
 0001:00062cd0       __ftol2                    10063cd0 f   LIBCMT:ftol2.obj
 0001:00062d72       __initialize_default_precision 10063d72 f   LIBCMT:default_precision.obj
 0001:00062d9b       ??3@YAXPAX@Z               10063d9b f   LIBCMT:delete_scalar.obj
 0001:00062da0       _InterlockedPushEntrySList@8 10063da0 f   kernel32:KERNEL32.dll
 0001:00062da6       _InterlockedFlushSList@4   10063da6 f   kernel32:KERNEL32.dll
 0001:00062dac       _RtlUnwind@16              10063dac f   kernel32:KERNEL32.dll
 0001:00062db2       _GetLastError@0            10063db2 f   kernel32:KERNEL32.dll
 0001:00062db8       _SetLastError@4            10063db8 f   kernel32:KERNEL32.dll
 0001:00062dbe       _EnterCriticalSection@4    10063dbe f   kernel32:KERNEL32.dll
 0001:00062dc4       _LeaveCriticalSection@4    10063dc4 f   kernel32:KERNEL32.dll
 0001:00062dca       _DeleteCriticalSection@4   10063dca f   kernel32:KERNEL32.dll
 0001:00062dd0       _InitializeCriticalSectionAndSpinCount@8 10063dd0 f   kernel32:KERNEL32.dll
 0001:00062dd6       _TlsAlloc@0                10063dd6 f   kernel32:KERNEL32.dll
 0001:00062ddc       _TlsGetValue@4             10063ddc f   kernel32:KERNEL32.dll
 0001:00062de2       _TlsSetValue@8             10063de2 f   kernel32:KERNEL32.dll
 0001:00062de8       _TlsFree@4                 10063de8 f   kernel32:KERNEL32.dll
 0001:00062dee       _FreeLibrary@4             10063dee f   kernel32:KERNEL32.dll
 0001:00062df4       _LoadLibraryExW@12         10063df4 f   kernel32:KERNEL32.dll
 0001:00062dfa       _EncodePointer@4           10063dfa f   kernel32:KERNEL32.dll
 0001:00062e00       _RaiseException@16         10063e00 f   kernel32:KERNEL32.dll
 0001:00062e06       _GetStdHandle@4            10063e06 f   kernel32:KERNEL32.dll
 0001:00062e0c       _GetFileType@4             10063e0c f   kernel32:KERNEL32.dll
 0001:00062e12       _GetModuleFileNameW@12     10063e12 f   kernel32:KERNEL32.dll
 0001:00062e18       _GetModuleHandleExW@12     10063e18 f   kernel32:KERNEL32.dll
 0001:00062e1e       _WriteConsoleW@20          10063e1e f   kernel32:KERNEL32.dll
 0001:00062e24       _ExitProcess@4             10063e24 f   kernel32:KERNEL32.dll
 0001:00062e2a       _HeapAlloc@12              10063e2a f   kernel32:KERNEL32.dll
 0001:00062e30       _HeapFree@12               10063e30 f   kernel32:KERNEL32.dll
 0001:00062e36       _WriteFile@20              10063e36 f   kernel32:KERNEL32.dll
 0001:00062e3c       _OutputDebugStringW@4      10063e3c f   kernel32:KERNEL32.dll
 0001:00062e42       _SetConsoleCtrlHandler@8   10063e42 f   kernel32:KERNEL32.dll
 0001:00062e48       _HeapReAlloc@16            10063e48 f   kernel32:KERNEL32.dll
 0001:00062e4e       _GetDateFormatW@24         10063e4e f   kernel32:KERNEL32.dll
 0001:00062e54       _GetTimeFormatW@24         10063e54 f   kernel32:KERNEL32.dll
 0001:00062e5a       _CompareStringW@24         10063e5a f   kernel32:KERNEL32.dll
 0001:00062e60       _LCMapStringW@24           10063e60 f   kernel32:KERNEL32.dll
 0001:00062e66       _GetLocaleInfoW@16         10063e66 f   kernel32:KERNEL32.dll
 0001:00062e6c       _IsValidLocale@8           10063e6c f   kernel32:KERNEL32.dll
 0001:00062e72       _GetUserDefaultLCID@0      10063e72 f   kernel32:KERNEL32.dll
 0001:00062e78       _EnumSystemLocalesW@8      10063e78 f   kernel32:KERNEL32.dll
 0001:00062e7e       _CloseHandle@4             10063e7e f   kernel32:KERNEL32.dll
 0001:00062e84       _ReadFile@20               10063e84 f   kernel32:KERNEL32.dll
 0001:00062e8a       _GetConsoleMode@8          10063e8a f   kernel32:KERNEL32.dll
 0001:00062e90       _ReadConsoleW@20           10063e90 f   kernel32:KERNEL32.dll
 0001:00062e96       _GetConsoleCP@0            10063e96 f   kernel32:KERNEL32.dll
 0001:00062e9c       _MultiByteToWideChar@24    10063e9c f   kernel32:KERNEL32.dll
 0001:00062ea2       _GetCurrentThread@0        10063ea2 f   kernel32:KERNEL32.dll
 0001:00062ea8       _DeleteFileW@4             10063ea8 f   kernel32:KERNEL32.dll
 0001:00062eae       _SetFilePointerEx@20       10063eae f   kernel32:KERNEL32.dll
 0001:00062eb4       _FindClose@4               10063eb4 f   kernel32:KERNEL32.dll
 0001:00062eba       _FindFirstFileExW@24       10063eba f   kernel32:KERNEL32.dll
 0001:00062ec0       _FindNextFileW@8           10063ec0 f   kernel32:KERNEL32.dll
 0001:00062ec6       _IsValidCodePage@4         10063ec6 f   kernel32:KERNEL32.dll
 0001:00062ecc       _GetACP@0                  10063ecc f   kernel32:KERNEL32.dll
 0001:00062ed2       _GetOEMCP@0                10063ed2 f   kernel32:KERNEL32.dll
 0001:00062ed8       _GetCPInfo@8               10063ed8 f   kernel32:KERNEL32.dll
 0001:00062ede       _GetCommandLineA@0         10063ede f   kernel32:KERNEL32.dll
 0001:00062ee4       _GetCommandLineW@0         10063ee4 f   kernel32:KERNEL32.dll
 0001:00062eea       _WideCharToMultiByte@32    10063eea f   kernel32:KERNEL32.dll
 0001:00062ef0       _GetEnvironmentStringsW@0  10063ef0 f   kernel32:KERNEL32.dll
 0001:00062ef6       _FreeEnvironmentStringsW@4 10063ef6 f   kernel32:KERNEL32.dll
 0001:00062efc       _SetEnvironmentVariableW@8 10063efc f   kernel32:KERNEL32.dll
 0001:00062f02       _GetProcessHeap@0          10063f02 f   kernel32:KERNEL32.dll
 0001:00062f08       _FlushFileBuffers@4        10063f08 f   kernel32:KERNEL32.dll
 0001:00062f0e       _SetStdHandle@8            10063f0e f   kernel32:KERNEL32.dll
 0001:00062f14       _CreateFileW@28            10063f14 f   kernel32:KERNEL32.dll
 0001:00062f1a       _GetStringTypeW@16         10063f1a f   kernel32:KERNEL32.dll
 0001:00062f20       _HeapSize@12               10063f20 f   kernel32:KERNEL32.dll
 0001:00062f26       _SetEndOfFile@4            10063f26 f   kernel32:KERNEL32.dll
 0001:00062f2c       _DecodePointer@4           10063f2c f   kernel32:KERNEL32.dll
 0001:00063063       _memcmp                    10064063 f   libvcruntime:memcmp.obj
 0001:00065550       _strrchr                   10066550 f   libvcruntime:strrchr.obj
 0001:000656d4       _wcschr                    100666d4 f   libvcruntime:wcschr.obj
 0002:00000000       ___xc_a                    1006b000     LIBCMT:initializers.obj
 0002:00000104       ___xc_z                    1006b104     LIBCMT:initializers.obj
 0002:00000208       ___xi_a                    1006b208     LIBCMT:initializers.obj
 0002:0000030c       ___acrt_stdio_initializer  1006b30c     libucrt:stdio_initializer.obj
 0002:00000310       ___acrt_multibyte_initializer 1006b310     libucrt:multibyte_initializer.obj
 0002:00000314       ___acrt_tran_sse2_initializer 1006b314     libucrt:sse2_initializer.obj
 0002:0000041c       ___xi_z                    1006b41c     LIBCMT:initializers.obj
 0002:00000520       ___xp_a                    1006b520     LIBCMT:initializers.obj
 0002:00000624       ___acrt_locale_terminator  1006b624     libucrt:locale_initializer.obj
 0002:00000628       ___dcrt_console_output_terminator 1006b628     libucrt:console_output_initializer.obj
 0002:00000730       ___acrt_stdio_terminator   1006b730     libucrt:stdio_initializer.obj
 0002:00000834       ___xp_z                    1006b834     LIBCMT:initializers.obj
 0002:00000938       ___xt_a                    1006b938     LIBCMT:initializers.obj
 0002:00000a3c       ___xt_z                    1006ba3c     LIBCMT:initializers.obj
 0002:00000b40       _slrttestmdl_M             1006bb40     slrttestmdl.obj
 0002:00000b44       ??_C@_06JFOKFOED@CSTATE@   1006bb44     slrttestmdl.obj
 0002:00000b4c       ??_C@_0BI@KLKNELJH@slrttestmdl?1Integrator1@ 1006bb4c     slrttestmdl.obj
 0002:00000b68       ??_C@_0BH@CNKIMOBF@slrttestmdl?1Integrator@ 1006bb68     slrttestmdl.obj
 0002:00000b83       ??_C@_00CNPNBAHC@@         1006bb83     slrttestmdl.obj
 0002:00000b84       ??_C@_0BE@MOCFCMEK@slrttestmdl?1Outport@ 1006bb84     slrttestmdl.obj
 0002:00000b9c       ??_C@_04GDMNHCBG@ode4@     1006bb9c     slrttestmdl.obj
 0002:00000ba4       ??_C@_04EPKDLPPB@tout@     1006bba4     slrttestmdl.obj
 0002:00000bac       ??_C@_04IKFDFCPA@xout@     1006bbac     slrttestmdl.obj
 0002:00000bb4       ??_C@_03HBFGMJOD@rt_@      1006bbb4     slrttestmdl.obj
 0002:00000bb8       ??_C@_04LHDDHLEA@yout@     1006bbb8     slrttestmdl.obj
 0002:00000bc0       __real@3f30624dd2f1a9fc    1006bbc0     slrttestmdl.obj
 0002:00000bd0       __real@3fc5555555555555    1006bbd0     slrttestmdl.obj
 0002:00000be0       __real@3fc999999999999a    1006bbe0     slrttestmdl.obj
 0002:00000bf0       __real@3fe0000000000000    1006bbf0     slrttestmdl.obj
 0002:00000c00       __real@3ff0000000000000    1006bc00     slrttestmdl.obj
 0002:00000c10       __real@41f0000000000000    1006bc10     slrttestmdl.obj
 0002:00000c20       __real@4330000000000000    1006bc20     slrttestmdl.obj
 0002:00000c30       __real@8000000000000000    1006bc30     slrttestmdl.obj
 0002:00000c40       __xmm@00000007000000070000000900000002 1006bc40     slrttestmdl.obj
 0002:00000c60       __xmm@3f30624dd2f1a9fc0000000000000000 1006bc60     slrttestmdl.obj
 0002:00000c80       __xmm@41f00000000000000000000000000000 1006bc80     slrttestmdl.obj
 0002:00000ca0       __xmm@80000000000000008000000000000000 1006bca0     slrttestmdl.obj
 0002:00000f0c       ??_C@_04OMOMKKFL@Gain@     1006bf0c     slrttestmdl_capi.obj
 0002:00000f14       ??_C@_05DKAIGDGE@Gain1@    1006bf14     slrttestmdl_capi.obj
 0002:00000f1c       ??_C@_05BBCFDAKH@Gain2@    1006bf1c     slrttestmdl_capi.obj
 0002:00000f24       ??_C@_0L@NFGBEBEC@Integrator@ 1006bf24     slrttestmdl_capi.obj
 0002:00000f34       ??_C@_0M@FOFKEGEP@Integrator1@ 1006bf34     slrttestmdl_capi.obj
 0002:00000f44       ??_C@_0BB@DGFEMKP@Signal?5Generator@ 1006bf44     slrttestmdl_capi.obj
 0002:00000f58       ??_C@_03IFGKDPPO@Sum@      1006bf58     slrttestmdl_capi.obj
 0002:00000f5c       ??_C@_0BB@CFEOEMDC@InitialCondition@ 1006bf5c     slrttestmdl_capi.obj
 0002:00000f70       ??_C@_09IHLJOMI@Amplitude@ 1006bf70     slrttestmdl_capi.obj
 0002:00000f7c       ??_C@_09OGDICNME@Frequency@ 1006bf7c     slrttestmdl_capi.obj
 0002:00000f88       ??_C@_06BNJCAIGJ@double@   1006bf88     slrttestmdl_capi.obj
 0002:00000f90       ??_C@_06CNMIJIPB@real_T@   1006bf90     slrttestmdl_capi.obj
 0002:00000f98       ??_C@_05KNFBNCOH@float@    1006bf98     slrttestmdl_capi.obj
 0002:00000fa0       _serialfifoground          1006bfa0     xpc_datatype_ground.obj
 0002:00000fac       _bcmsg1553ground           1006bfac     xpc_datatype_ground.obj
 0002:00000fbc       _bcstatground              1006bfbc     xpc_datatype_ground.obj
 0002:00000fd4       _bmmsg1553ground           1006bfd4     xpc_datatype_ground.obj
 0002:00001010       ??_C@_0BI@INNPNFJN@Memory?5Allocation?5Error@ 1006c010     rtw_modelmap_utils.obj
 0002:00001030       ??_C@_1FG@HMJFKDEC@?$AAD?$AA?3?$AA?2?$AAM?$AAA?$AAT?$AAL?$AAA?$AAB?$AA?$HO?$AA1?$AA?2?$AAr?$AAt?$AAw@ 1006c030     rtw_modelmap_utils.obj
 0002:00001098       ??_C@_1CI@OEAJCJND@?$AAj?$AA?5?$AA?$DN?$AA?$DN?$AA?5?$AAe?$AAn?$AAc?$AAo?$AAd?$AAe?$AAd?$AAP?$AAa?$AAt@ 1006c098     rtw_modelmap_utils.obj
 0002:000010c8       ??_C@_1DC@NFAOIFKB@?$AAe?$AAn?$AAc?$AAo?$AAd?$AAe?$AAd?$AAP?$AAa?$AAt?$AAh?$AA?$FL?$AAj?$AA?9?$AA1@ 1006c0c8     rtw_modelmap_utils.obj
 0002:00001104       ??_C@_1DI@FLNJGPEE@?$AAs?$AAi?$AAg?$AAC?$AAo?$AAm?$AAp?$AAl?$AAe?$AAx?$AAi?$AAt?$AAy?$AA?$FL?$AA?$CK@ 1006c104     rtw_modelmap_utils.obj
 0002:00001148       ??_C@_1KI@OFELMGBG@?$AA?$CI?$AA?$CI?$AA?$CI?$AAd?$AAa?$AAt?$AAa?$AAT?$AAy?$AAp?$AAe?$AAM?$AAa?$AAp?$AA?$CJ@ 1006c148     rtw_modelmap_utils.obj
 0002:00001214       ??_C@_1DA@ILCMPHNE@?$AAf?$AAu?$AAl?$AAl?$AAP?$AAa?$AAt?$AAh?$AA?5?$AA?$CB?$AA?$DN?$AA?5?$AA?$CI?$AA?$CI?$AAv@ 1006c214     rtw_modelmap_utils.obj
 0002:00001250       ??_C@_1CI@OEPPFCCA@?$AAp?$AAa?$AAt?$AAh?$AA?5?$AA?$CB?$AA?$DN?$AA?5?$AA?$CI?$AA?$CI?$AAv?$AAo?$AAi?$AAd?$AA?5@ 1006c250     rtw_modelmap_utils.obj
 0002:00001280       ??_C@_1FK@GLJIMFHB@?$AA?$CI?$AA?$CI?$AAm?$AAm?$AAi?$AA?$CJ?$AA?9?$AA?$DO?$AAI?$AAn?$AAs?$AAt?$AAa?$AAn?$AAc@ 1006c280     rtw_modelmap_utils.obj
 0002:000012ec       ??_C@_1DG@HPCJGNCE@?$AAm?$AAm?$AAi?$AAP?$AAa?$AAt?$AAh?$AA?$FL?$AAp?$AAa?$AAt?$AAh?$AAL?$AAe?$AAn@ 1006c2ec     rtw_modelmap_utils.obj
 0002:0000132c       ??_C@_1DM@DBAOGGOO@?$AAm?$AAm?$AAi?$AAP?$AAa?$AAt?$AAh?$AA?$FL?$AAm?$AAm?$AAi?$AAP?$AAa?$AAt?$AAh@ 1006c32c     rtw_modelmap_utils.obj
 0002:00001374       ??_C@_1DC@LHIAKAFE@?$AAb?$AAl?$AAo?$AAc?$AAk?$AAP?$AAa?$AAt?$AAh?$AA?5?$AA?$CB?$AA?$DN?$AA?5?$AA?$CI?$AA?$CI@ 1006c374     rtw_modelmap_utils.obj
 0002:000013b0       ??_C@_1GI@KIEJKPGC@?$AAf?$AAu?$AAl?$AAl?$AAS?$AAt?$AAa?$AAt?$AAe?$AAB?$AAl?$AAo?$AAc?$AAk?$AAP@ 1006c3b0     rtw_modelmap_utils.obj
 0002:00001430       ??_C@_1EE@DNPIBJHC@?$AA?$CI?$AA?$CI?$AAd?$AAi?$AAm?$AAM?$AAa?$AAp?$AA?$CJ?$AA?$FL?$AA?$CI?$AAm?$AAa?$AAp?$AAI@ 1006c430     rtw_modelmap_utils.obj
 0002:00001484       ??_C@_06FAENGAMN@DSTATE@   1006c484     rtw_modelmap_utils.obj
 0002:0000148c       ??_C@_1BI@LEBJNOGG@?$AAc?$AAs?$AAv?$AAI?$AAd?$AAx?$AA?5?$AA?$DO?$AA?$DN?$AA?5?$AA0@ 1006c48c     rtw_modelmap_utils.obj
 0002:000014a8       ??_C@_1BA@KDMGHCHP@?$AAT?$AAI?$AAD?$AA?$DN?$AA?$DN?$AA?9?$AA1@ 1006c4a8     rtw_modelmap_utils.obj
 0002:000014bc       ??_C@_1DM@DHGKBPCE@?$AAs?$AAi?$AAg?$AAP?$AAa?$AAt?$AAh?$AA?$FL?$AAs?$AAi?$AAg?$AAP?$AAa?$AAt?$AAh@ 1006c4bc     rtw_modelmap_utils.obj
 0002:00001508       __real@bff0000000000000    1006c508     rtw_modelmap_utils.obj
 0002:00001d78       ??_C@_0DJ@FHKINPLE@Unexpected?5itemKind?5?$DN?5DATA_ITEM@ 1006cd78     rt_logging.obj
 0002:00001dbc       ??_C@_0DA@IEHFPFCJ@Unexpected?5itemKind?$DN?$CFd?5in?5rt_Pr@ 1006cdbc     rt_logging.obj
 0002:00001df8       ??_C@_0DA@IFLHJPBO@Unexpected?5itemKind?$DN?$CFd?5in?5rt_Pr@ 1006cdf8     rt_logging.obj
 0002:00001e34       ??_C@_0DA@IAPIIJJL@Unexpected?5itemKind?$DN?$CFd?5in?5rt_Pr@ 1006ce34     rt_logging.obj
 0002:00001e70       ??_C@_0BE@LCIGPJIG@MATLAB?55?40?5MAT?9file@ 1006ce70     rt_logging.obj
 0002:00001e88       ??_C@_0FB@PCJEAJIB@?$CK?$CK?$CK?5Log?5variable?5?$CFs?5has?5wrapped@ 1006ce88     rt_logging.obj
 0002:00001ef0       ??_C@_0MG@NKMLMOGF@?$CK?$CK?$CK?5To?5avoid?5wrapping?0?5explicit@ 1006cef0     rt_logging.obj
 0002:00001fe0       ??_C@_0N@IPAEOLLP@_rtw_tmw?4tmw@ 1006cfe0     rt_logging.obj
 0002:00001ff0       ??_C@_04HDOCAJNK@?$CFs?$CFs@ 1006cff0     rt_logging.obj
 0002:00001ff8       ??_C@_03ELIABIOC@w?$CLb@   1006cff8     rt_logging.obj
 0002:00001ffc       ??_C@_0BF@JPILDDFA@?$CK?$CK?$CK?5Error?5opening?5?$CFs@ 1006cffc     rt_logging.obj
 0002:00002018       ??_C@_0BK@EEMDELA@unable?5to?5open?5data?5file?6@ 1006d018     rt_logging.obj
 0002:00002038       ??_C@_04CGFJFPFD@none@     1006d038     rt_logging.obj
 0002:00002040       ??_C@_0EE@LCGFPNON@?$CK?$CK?$CK?5Error?5creating?5signals?5stru@ 1006d040     rt_logging.obj
 0002:00002094       ??_C@_0CE@NHECEDMK@?$CK?$CK?$CK?5Error?5creating?5log?5variable@ 1006d094     rt_logging.obj
 0002:000020c0       ??_C@_0DB@IOCGKAGH@?$CK?$CK?$CK?5Errors?5occurred?5when?5starti@ 1006d0c0     rt_logging.obj
 0002:000020fc       ??_C@_0BO@BBLOGEBK@?$CK?$CK?$CK?5Memory?5allocation?5error?4?6@ 1006d0fc     rt_logging.obj
 0002:00002120       ??_C@_0N@LGFBAGEL@?5?$CIreal?5part?$CJ@ 1006d120     rt_logging.obj
 0002:00002130       ??_C@_0KH@CGNMHNFE@?5?5?5?5varName?5?5?5?5?5?5?5?5?5?5?$DN?5?$CFs?$CFs?6?5?5?5@ 1006d130     rt_logging.obj
 0002:000021f8       ??_C@_0LE@OALKKEFM@?5?5?5?5varName?5?5?5?5?5?5?5?5?5?5?$DN?5?$CFs?5?$CIcomp@ 1006d1f8     rt_logging.obj
 0002:000022d0       ??_C@_0KF@JDDLEOKO@?5?5?5?5varName?5?5?5?5?5?5?5?5?5?5?$DN?5?$CFs?6?5?5?5?5n@ 1006d2d0     rt_logging.obj
 0002:00002398       ??_C@_0DP@HPDMIOFM@?$CK?$CK?$CK?5Using?5a?5default?5buffer?5of?5s@ 1006d398     rt_logging.obj
 0002:000023e8       ??_C@_0KE@JEFOLKNF@?6?$CK?$CK?$CK?5Memory?5required?5to?5log?5var@ 1006d3e8     rt_logging.obj
 0002:000024b0       ??_C@_0JP@DKLMHCBI@?$CK?$CK?$CK?5Details?3?6?5?5?5?5?5?5?5varName?5?5?5?5@ 1006d4b0     rt_logging.obj
 0002:00002570       ??_C@_0CM@CAMILBED@?$CK?$CK?$CK?5Error?5allocating?5memory?5for@ 1006d570     rt_logging.obj
 0002:000025a4       ??_C@_0DF@BBCNMOPM@?$CK?$CK?$CK?5Error?5allocating?5memory?5for@ 1006d5a4     rt_logging.obj
 0002:000025e8       ??_C@_0JP@DBCLPCCI@?$CK?$CK?$CK?5Details?3?6?5?5?5?5?5?5?5varName?5?5?5?5@ 1006d5e8     rt_logging.obj
 0002:000026a8       ??_C@_0FK@DPGAOBGA@?$CK?$CK?$CK?5Error?5allocating?5memory?5for@ 1006d6a8     rt_logging.obj
 0002:00002714       ??_C@_0BI@GGDNPHLJ@?$CK?$CK?$CK?5Error?5writing?5to?5?$CFs@ 1006d714     rt_logging.obj
 0002:00002730       ??_C@_0CB@IBGJGELG@?$CK?$CK?$CK?5Error?5writing?5?$CFs?5due?5to?3?5?$CFs@ 1006d730     rt_logging.obj
 0002:00002758       ??_C@_0CN@FLMCHCPB@?$CK?$CK?$CK?5Error?5writing?5log?5variable?5@ 1006d758     rt_logging.obj
 0002:00002790       ??_C@_0DH@GAJCNOJP@?$CK?$CK?$CK?5Error?5writing?5structure?5log@ 1006d790     rt_logging.obj
 0002:000027d4       ??_C@_0BD@POEALECL@?$CK?$CK?5created?5?$CFs?5?$CK?$CK?6?6@ 1006d7d4     rt_logging.obj
 0002:000027f0       __real@4020000000000000    1006d7f0     rt_logging.obj
 0002:00002800       __real@41dfffffffc00000    1006d800     rt_logging.obj
 0002:00002810       __real@41efffffffe00000    1006d810     rt_logging.obj
 0002:00002820       __real@bfbf9add3afd2773    1006d820     rt_logging.obj
 0002:00002830       __real@c000000000000000    1006d830     rt_logging.obj
 0002:00002840       __xmm@20202020202020202020202020202020 1006d840     rt_logging.obj
 0002:00002854       _ptsetfilename             1006d854     xpctarget.obj
 0002:00002858       _xmlfile                   1006d858     xpctarget.obj
 0002:00002860       ??_C@_0M@ONGJAENG@slrttestmdl@ 1006d860     xpctarget.obj
 0002:00002870       ??_C@_0L@CHBJKKFC@xpceSetVar@ 1006d870     xpctarget.obj
 0002:00002880       ??_C@_03LADEHNAB@6?46@     1006d880     xpctarget.obj
 0002:00002888       __real@3fb999999999999a    1006d888     xpctarget.obj
 0002:00002898       __real@40af400000000000    1006d898     xpctarget.obj
 0002:000028a8       _slrttestmdl_BIOMAP        1006d8a8     appmappingData.obj
 0002:00002908       _slrttestmdl_LBLMAP        1006d908     appmappingData.obj
 0002:00002968       _slrttestmdl_SIDMAP        1006d968     appmappingData.obj
 0002:000029c8       _slrttestmdl_SBIO          1006d9c8     appmappingData.obj
 0002:000029e8       _slrttestmdl_SLBL          1006d9e8     appmappingData.obj
 0002:00002a08       _slrttestmdl_PTIDSMAP      1006da08     appmappingData.obj
 0002:00002a48       _slrttestmdl_PTNAMESMAP    1006da48     appmappingData.obj
 0002:00002a88       _slrttestmdl_SPTMAP        1006da88     appmappingData.obj
 0002:00002aa8       _slrttestmdl_dtmap         1006daa8     appmappingData.obj
 0002:00002ab8       _appInfo                   1006dab8     appmappingData.obj
 0002:00002b7c       ??_C@_0CC@DMFKNLL@VendorId?5?$DN?50x?$CFx?0?5DeviceId?5?$DN?50x?$CF@ 1006db7c     xpcruntime:xpcimports.obj
 0002:00002ba4       ??_C@_0DH@OHCBLNMG@Subsystem?5Device?5ID?5?$DN?50x?$CFx?6Subs@ 1006dba4     xpcruntime:xpcimports.obj
 0002:00002be8       ??_C@_0BD@MMMMEFCM@Class?5Code?5?$DN?50x?$CFx?6@ 1006dbe8     xpcruntime:xpcimports.obj
 0002:00002c00       ??_C@_0BE@OLDDDNHM@InterruptLine?5?$DN?5?$CFd?6@ 1006dc00     xpcruntime:xpcimports.obj
 0002:00002c18       ??_C@_0BF@OLKLEKBD@bus?5?$DN?5?$CFd?0?5slot?5?$DN?5?$CFd?6@ 1006dc18     xpcruntime:xpcimports.obj
 0002:00002c34       ??_C@_0CE@DGLLGDFH@?5?5?5?5Phys?5?5?5Virtual?5?5?5Length?5IO?1@ 1006dc34     xpcruntime:xpcimports.obj
 0002:00002c60       ??_C@_0BI@FEOPLEMG@?$CF08x?5?$CF08x?5?$CF08x?5?5?5?5?5?5?$CFc?6@ 1006dc60     xpcruntime:xpcimports.obj
 0002:00002c7c       ??_C@_0BB@BNNCEDPC@rl32eScopeExists@ 1006dc7c     xpcruntime:xpcimports.obj
 0002:00002c90       ??_C@_0BM@FJBFEGFG@rl32eScopeExists?5not?5found?6@ 1006dc90     xpcruntime:xpcimports.obj
 0002:00002cb4       ??_C@_0O@BNNGKJEA@rl32eDefScope@ 1006dcb4     xpcruntime:xpcimports.obj
 0002:00002cc4       ??_C@_0BJ@CDNOENKA@rl32eDefScope?5not?5found?6@ 1006dcc4     xpcruntime:xpcimports.obj
 0002:00002ce4       ??_C@_0P@CKNKILDP@rl32eAddSignal@ 1006dce4     xpcruntime:xpcimports.obj
 0002:00002cf8       ??_C@_0BK@GMJAJBAI@rl32eAddSignal?5not?5found?6@ 1006dcf8     xpcruntime:xpcimports.obj
 0002:00002d18       ??_C@_0BB@LDMIHGCE@rl32eGetSignalNo@ 1006dd18     xpcruntime:xpcimports.obj
 0002:00002d2c       ??_C@_0BM@LGAMBAID@rl32eGetSignalNo?5not?5found?6@ 1006dd2c     xpcruntime:xpcimports.obj
 0002:00002d50       ??_C@_0O@CFDGALBP@rl32eSetScope@ 1006dd50     xpcruntime:xpcimports.obj
 0002:00002d60       ??_C@_0BJ@JCLHHIN@rl32eSetScope?5not?5found?6@ 1006dd60     xpcruntime:xpcimports.obj
 0002:00002d80       ??_C@_0P@IKMCBMHH@xpceFSScopeSet@ 1006dd80     xpcruntime:xpcimports.obj
 0002:00002d94       ??_C@_0BK@JODJPNNH@xpceFSScopeSet?5not?5found?6@ 1006dd94     xpcruntime:xpcimports.obj
 0002:00002db4       ??_C@_0BE@DLACEEJM@rl32eSetTargetScope@ 1006ddb4     xpcruntime:xpcimports.obj
 0002:00002dcc       ??_C@_0BP@JCHFMKPJ@rl32eSetTargetScope?5not?5found?6@ 1006ddcc     xpcruntime:xpcimports.obj
 0002:00002df4       ??_C@_0BJ@LIDLNDHC@rl32eSetTargetScopeSigFt@ 1006ddf4     xpcruntime:xpcimports.obj
 0002:00002e14       ??_C@_0CE@JLGHCFHI@rl32eSetTargetScopeSigFt?5not?5fo@ 1006de14     xpcruntime:xpcimports.obj
 0002:00002e40       ??_C@_0BI@JAPOIDNG@rl32eRestartAcquisition@ 1006de40     xpcruntime:xpcimports.obj
 0002:00002e5c       ??_C@_0CD@LLBEFFBO@rl32eRestartAcquisition?5not?5fou@ 1006de5c     xpcruntime:xpcimports.obj
 0002:00002e88       ??_C@_0P@IEIIADJB@xpceScopeAcqOK@ 1006de88     xpcruntime:xpcimports.obj
 0002:00002e9c       ??_C@_0BK@NJCKNFPN@xpceScopeAcqOK?5not?5found?6@ 1006de9c     xpcruntime:xpcimports.obj
 0002:00002ebc       ??_C@_0BA@IJINKAHF@xpceRegisterISR@ 1006debc     xpcruntime:xpcimports.obj
 0002:00002ed0       ??_C@_0BL@NNDLOEJE@xpceRegisterISR?5not?5found?6@ 1006ded0     xpcruntime:xpcimports.obj
 0002:00002ef0       ??_C@_0BC@NLBADGKF@xpceDeRegisterISR@ 1006def0     xpcruntime:xpcimports.obj
 0002:00002f08       ??_C@_0BN@DCAIKFFD@xpceDeRegisterISR?5not?5found?6@ 1006df08     xpcruntime:xpcimports.obj
 0002:00002f2c       ??_C@_07JPMEPILD@xpcInpB@  1006df2c     xpcruntime:xpcimports.obj
 0002:00002f38       ??_C@_0BD@PGABEJOL@xpcInpB?5not?5found?6@ 1006df38     xpcruntime:xpcimports.obj
 0002:00002f50       ??_C@_07KIHBBOKH@xpcInpW@  1006df50     xpcruntime:xpcimports.obj
 0002:00002f5c       ??_C@_0BD@FPCJFMCC@xpcInpW?5not?5found?6@ 1006df5c     xpcruntime:xpcimports.obj
 0002:00002f74       ??_C@_08KDIAJBOP@xpcInpDW@ 1006df74     xpcruntime:xpcimports.obj
 0002:00002f80       ??_C@_0BE@PIELDNIL@xpcInpDW?5not?5found?6@ 1006df80     xpcruntime:xpcimports.obj
 0002:00002f98       ??_C@_08PJFMOIGO@xpcOutpB@ 1006df98     xpcruntime:xpcimports.obj
 0002:00002fa4       ??_C@_0BE@HCKNCEKF@xpcOutpB?5not?5found?6@ 1006dfa4     xpcruntime:xpcimports.obj
 0002:00002fbc       ??_C@_08MOOJAOHK@xpcOutpW@ 1006dfbc     xpcruntime:xpcimports.obj
 0002:00002fc8       ??_C@_0BE@NLIFDBGM@xpcOutpW?5not?5found?6@ 1006dfc8     xpcruntime:xpcimports.obj
 0002:00002fe0       ??_C@_09FLIEKHJG@xpcOutpDW@ 1006dfe0     xpcruntime:xpcimports.obj
 0002:00002fec       ??_C@_0BF@GJKLPNHB@xpcOutpDW?5not?5found?6@ 1006dfec     xpcruntime:xpcimports.obj
 0002:00003008       ??_C@_0BH@EHOLELHH@xpcReserveMemoryRegion@ 1006e008     xpcruntime:xpcimports.obj
 0002:00003024       ??_C@_0CC@KAAAGPI@xpcReserveMemoryRegion?5not?5foun@ 1006e024     xpcruntime:xpcimports.obj
 0002:0000304c       ??_C@_0BA@JGPMHGAF@rl32eShowPCIDev@ 1006e04c     xpcruntime:xpcimports.obj
 0002:00003060       ??_C@_0BL@DDFFLNHI@rl32eShowPCIDev?5not?5found?6@ 1006e060     xpcruntime:xpcimports.obj
 0002:00003080       ??_C@_0BB@KBCOJPFB@rl32eShowPCIInfo@ 1006e080     xpcruntime:xpcimports.obj
 0002:00003094       ??_C@_0BM@IFDMAGLO@rl32eShowPCIInfo?5not?5found?6@ 1006e094     xpcruntime:xpcimports.obj
 0002:000030b8       ??_C@_0BA@BGPAADB@rl32eGetPCIInfo@ 1006e0b8     xpcruntime:xpcimports.obj
 0002:000030cc       ??_C@_0BL@IGOMLDCK@rl32eGetPCIInfo?5not?5found?6@ 1006e0cc     xpcruntime:xpcimports.obj
 0002:000030ec       ??_C@_0BG@NJPFKFDP@rl32eGetPCIInfoAtSlot@ 1006e0ec     xpcruntime:xpcimports.obj
 0002:00003108       ??_C@_0CB@BBKIPMLA@rl32eGetPCIInfoAtSlot?5not?5found@ 1006e108     xpcruntime:xpcimports.obj
 0002:00003130       ??_C@_0BH@OKBOPNFG@xpceAssignPCIInterrupt@ 1006e130     xpcruntime:xpcimports.obj
 0002:0000314c       ??_C@_0CC@CDNDNJBJ@xpceAssignPCIInterrupt?5not?5foun@ 1006e14c     xpcruntime:xpcimports.obj
 0002:00003174       ??_C@_0BD@PCKOKHO@xpceGetSignalValue@ 1006e174     xpcruntime:xpcimports.obj
 0002:0000318c       ??_C@_0BO@GCBDJHMB@xpceGetSignalValue?5not?5found?6@ 1006e18c     xpcruntime:xpcimports.obj
 0002:000031b0       ??_C@_0BB@BJONJAGA@xpceSetParameter@ 1006e1b0     xpcruntime:xpcimports.obj
 0002:000031c4       ??_C@_0BM@BJIKDLHA@xpceSetParameter?5not?5found?6@ 1006e1c4     xpcruntime:xpcimports.obj
 0002:000031e8       ??_C@_0BB@GNFDFMCM@xpceGetParameter@ 1006e1e8     xpcruntime:xpcimports.obj
 0002:000031fc       ??_C@_0BM@POHNKBC@xpceGetParameter?5not?5found?6@ 1006e1fc     xpcruntime:xpcimports.obj
 0002:00003220       ??_C@_0BB@CEIJLFCD@xpceGetParamDims@ 1006e220     xpcruntime:xpcimports.obj
 0002:00003234       ??_C@_0BM@OABDBKAO@xpceGetParamDims?5not?5found?6@ 1006e234     xpcruntime:xpcimports.obj
 0002:00003258       ??_C@_0L@OCBLLHBM@xpceGetTET@ 1006e258     xpcruntime:xpcimports.obj
 0002:00003268       ??_C@_0BG@HNOFBOB@xpceGetTET?5not?5found?6@ 1006e268     xpcruntime:xpcimports.obj
 0002:00003284       ??_C@_0P@OKGNGAGH@xpcIsModelInit@ 1006e284     xpcruntime:xpcimports.obj
 0002:00003298       ??_C@_0BK@DHEMLBIM@xpcIsModelInit?5not?5found?6@ 1006e298     xpcruntime:xpcimports.obj
 0002:000032b8       ??_C@_0BH@KJJLCAOJ@xpcAllocPhysicalMemory@ 1006e2b8     xpcruntime:xpcimports.obj
 0002:000032d4       ??_C@_0CC@MOJPNHKL@xpcAllocPhysicalMemory?5not?5foun@ 1006e2d4     xpcruntime:xpcimports.obj
 0002:000032fc       ??_C@_0BG@CBNPGAEL@xpcFreePhysicalMemory@ 1006e2fc     xpcruntime:xpcimports.obj
 0002:00003318       ??_C@_0CB@PKJEBPOG@xpcFreePhysicalMemory?5not?5found@ 1006e318     xpcruntime:xpcimports.obj
 0002:00003340       ??_C@_0BC@JGKNLICL@xpcGetElapsedTime@ 1006e340     xpcruntime:xpcimports.obj
 0002:00003358       ??_C@_0BN@OEOAHCIO@xpcGetElapsedTime?5not?5found?6@ 1006e358     xpcruntime:xpcimports.obj
 0002:0000337c       ??_C@_0M@ICBLMODA@xpcBusyWait@ 1006e37c     xpcruntime:xpcimports.obj
 0002:0000338c       ??_C@_0BH@FBOPECBI@xpcBusyWait?5not?5found?6@ 1006e38c     xpcruntime:xpcimports.obj
 0002:000033a8       ??_C@_0N@LKKJEKKA@TBCreateSpin@ 1006e3a8     xpcruntime:xpcimports.obj
 0002:000033b8       ??_C@_0BI@FHKMLKOE@TBCreateSpin?5not?5found?6@ 1006e3b8     xpcruntime:xpcimports.obj
 0002:000033d4       ??_C@_0N@HOAJHNBD@TBDeleteSpin@ 1006e3d4     xpcruntime:xpcimports.obj
 0002:000033e4       ??_C@_0BI@BKCPAAG@TBDeleteSpin?5not?5found?6@ 1006e3e4     xpcruntime:xpcimports.obj
 0002:00003400       ??_C@_0P@DAHDDBJG@TBTakeSpinFast@ 1006e400     xpcruntime:xpcimports.obj
 0002:00003414       ??_C@_0BK@NKAIBHGB@TBTakeSpinFast?5not?5found?6@ 1006e414     xpcruntime:xpcimports.obj
 0002:00003434       ??_C@_0P@FKNAAELA@TBGiveSpinFast@ 1006e434     xpcruntime:xpcimports.obj
 0002:00003448       ??_C@_0BK@KGPJBJND@TBGiveSpinFast?5not?5found?6@ 1006e448     xpcruntime:xpcimports.obj
 0002:00003468       ??_C@_0BE@IIGBFDHK@xpceCreateSemaphore@ 1006e468     xpcruntime:xpcimports.obj
 0002:00003480       ??_C@_0BP@KFBAFFKJ@xpceCreateSemaphore?5not?5found?6@ 1006e480     xpcruntime:xpcimports.obj
 0002:000034a8       ??_C@_0BC@IFNIONKJ@xpceWaitSemaphore@ 1006e4a8     xpcruntime:xpcimports.obj
 0002:000034c0       ??_C@_0BN@NMFAADIO@xpceWaitSemaphore?5not?5found?6@ 1006e4c0     xpcruntime:xpcimports.obj
 0002:000034e4       ??_C@_0BE@NNDIOBKE@xpceSignalSemaphore@ 1006e4e4     xpcruntime:xpcimports.obj
 0002:000034fc       ??_C@_0BP@LBANMHJP@xpceSignalSemaphore?5not?5found?6@ 1006e4fc     xpcruntime:xpcimports.obj
 0002:00003524       ??_C@_0BE@MEBEKOIM@xpceDeleteSemaphore@ 1006e524     xpcruntime:xpcimports.obj
 0002:0000353c       ??_C@_0BP@OFNCKOJH@xpceDeleteSemaphore?5not?5found?6@ 1006e53c     xpcruntime:xpcimports.obj
 0002:00003564       ??_C@_0BD@MFNDMBOF@FindUsbVideoDevice@ 1006e564     xpcruntime:xpcimports.obj
 0002:0000357c       ??_C@_0BO@POKLDHMI@FindUsbVideoDevice?5not?5found?6@ 1006e57c     xpcruntime:xpcimports.obj
 0002:000035a0       ??_C@_0BA@PLPAPNAB@GetVideoConfigs@ 1006e5a0     xpcruntime:xpcimports.obj
 0002:000035b4       ??_C@_0BL@DALDHKHC@GetVideoConfigs?5not?5found?6@ 1006e5b4     xpcruntime:xpcimports.obj
 0002:000035d4       ??_C@_0L@GBAEMHMH@StartVideo@ 1006e5d4     xpcruntime:xpcimports.obj
 0002:000035e4       ??_C@_0BG@HDCELEBP@StartVideo?5not?5found?6@ 1006e5e4     xpcruntime:xpcimports.obj
 0002:00003600       ??_C@_0BA@FDNPOCLN@ReadFrameBuffer@ 1006e600     xpcruntime:xpcimports.obj
 0002:00003614       ??_C@_0BL@JHGHPNBI@ReadFrameBuffer?5not?5found?6@ 1006e614     xpcruntime:xpcimports.obj
 0002:00003634       ??_C@_09FAHCLKAG@StopVideo@ 1006e634     xpcruntime:xpcimports.obj
 0002:00003640       ??_C@_0BF@NKGKKADL@StopVideo?5not?5found?6@ 1006e640     xpcruntime:xpcimports.obj
 0002:0000365c       ??_C@_0O@MCPKDLLL@ConvertUImage@ 1006e65c     xpcruntime:xpcimports.obj
 0002:0000366c       ??_C@_0BJ@PHJKOAFL@ConvertUImage?5not?5found?6@ 1006e66c     xpcruntime:xpcimports.obj
 0002:0000368c       ??_C@_0BD@NKCBPBJJ@CreateVideoDisplay@ 1006e68c     xpcruntime:xpcimports.obj
 0002:000036a4       ??_C@_0BO@HPPLLNFP@CreateVideoDisplay?5not?5found?6@ 1006e6a4     xpcruntime:xpcimports.obj
 0002:000036c8       ??_C@_0BE@KJCKGPHA@DestroyVideoDisplay@ 1006e6c8     xpcruntime:xpcimports.obj
 0002:000036e0       ??_C@_0BP@FMGLJAIJ@DestroyVideoDisplay?5not?5found?6@ 1006e6e0     xpcruntime:xpcimports.obj
 0002:00003708       ??_C@_0BC@HCMIMIDN@StartVideoDisplay@ 1006e708     xpcruntime:xpcimports.obj
 0002:00003720       ??_C@_0BN@EFIEBGOO@StartVideoDisplay?5not?5found?6@ 1006e720     xpcruntime:xpcimports.obj
 0002:00003744       ??_C@_0BB@JBBLMILG@StopVideoDisplay@ 1006e744     xpcruntime:xpcimports.obj
 0002:00003758       ??_C@_0BM@DBJBPLEL@StopVideoDisplay?5not?5found?6@ 1006e758     xpcruntime:xpcimports.obj
 0002:0000377c       ??_C@_0M@MFJEGMHC@StreamVideo@ 1006e77c     xpcruntime:xpcimports.obj
 0002:0000378c       ??_C@_0BH@OINCDMLA@StreamVideo?5not?5found?6@ 1006e78c     xpcruntime:xpcimports.obj
 0002:000037a8       ??_C@_0N@IGGLCIGE@xpceaddEvent@ 1006e7a8     xpcruntime:xpcimports.obj
 0002:000037b8       ??_C@_0BI@NHJNFMKH@xpceaddEvent?5not?5found?6@ 1006e7b8     xpcruntime:xpcimports.obj
 0002:000037d4       ??_C@_0BB@HDPOIJAB@xpceDAQPostEvent@ 1006e7d4     xpcruntime:xpcimports.obj
 0002:000037e8       ??_C@_0BM@IHANBKGN@xpceDAQPostEvent?5not?5found?6@ 1006e7e8     xpcruntime:xpcimports.obj
 0002:0000380c       ??_C@_0BH@MBACMOD@xpceDAQUpdateTimeStamp@ 1006e80c     xpcruntime:xpcimports.obj
 0002:00003828       ??_C@_0CC@DAKBBINL@xpceDAQUpdateTimeStamp?5not?5foun@ 1006e828     xpcruntime:xpcimports.obj
 0002:00003850       ??_C@_0BN@HJOHIFOM@xpceGetIntTimerGranularityNS@ 1006e850     xpcruntime:xpcimports.obj
 0002:00003874       ??_C@_0CI@OADDPMKB@xpceGetIntTimerGranularityNS?5no@ 1006e874     xpcruntime:xpcimports.obj
 0002:000038a4       ??_C@_0BG@CCHICKPN@slrteSetStepSizeDelta@ 1006e8a4     xpcruntime:xpcimports.obj
 0002:000038c0       ??_C@_0CB@MKHINEIJ@slrteSetStepSizeDelta?5not?5found@ 1006e8c0     xpcruntime:xpcimports.obj
 0002:000038e8       ??_C@_0BI@CLNBLDKJ@slrteGetCurrentStepSize@ 1006e8e8     xpcruntime:xpcimports.obj
 0002:00003904       ??_C@_0CD@GIOJPGJA@slrteGetCurrentStepSize?5not?5fou@ 1006e904     xpcruntime:xpcimports.obj
 0002:00003930       ??_C@_0BE@FCLCBOC@registerPTPTimeRead@ 1006e930     xpcruntime:xpcimports.obj
 0002:00003948       ??_C@_0BP@LHPKAJIP@registerPTPTimeRead?5not?5found?6@ 1006e948     xpcruntime:xpcimports.obj
 0002:00003970       ??_C@_0BG@KIGCDDJI@unRegisterPTPTimeRead@ 1006e970     xpcruntime:xpcimports.obj
 0002:0000398c       ??_C@_0CB@MLFFBFCM@unRegisterPTPTimeRead?5not?5found@ 1006e98c     xpcruntime:xpcimports.obj
 0002:000039b4       ??_C@_0BB@IPMDDBHK@slTestInitialize@ 1006e9b4     xpcruntime:xpcimports.obj
 0002:000039c8       ??_C@_0BM@LAJFCCJH@slTestInitialize?5not?5found?6@ 1006e9c8     xpcruntime:xpcimports.obj
 0002:000039ec       ??_C@_0BF@OOMPMEBC@slTestLogAssessments@ 1006e9ec     xpcruntime:xpcimports.obj
 0002:00003a08       ??_C@_0CA@FGJCEBAG@slTestLogAssessments?5not?5found?6@ 1006ea08     xpcruntime:xpcimports.obj
 0002:00003a30       ??_C@_0BB@HJHKONHO@slTestEvalOnFail@ 1006ea30     xpcruntime:xpcimports.obj
 0002:00003a44       ??_C@_0BM@JIKCFFNJ@slTestEvalOnFail?5not?5found?6@ 1006ea44     xpcruntime:xpcimports.obj
 0002:00003a68       ??_C@_0BA@LBHLABFP@slTestTerminate@ 1006ea68     xpcruntime:xpcimports.obj
 0002:00003a7c       ??_C@_0BL@EMFGKAPA@slTestTerminate?5not?5found?6@ 1006ea7c     xpcruntime:xpcimports.obj
 0002:00003a9c       ??_C@_0BE@JPNPBBEO@slTestRegAssessment@ 1006ea9c     xpcruntime:xpcimports.obj
 0002:00003ab4       ??_C@_0BP@FBDEJJJH@slTestRegAssessment?5not?5found?6@ 1006eab4     xpcruntime:xpcimports.obj
 0002:00003adc       ??_C@_0O@NCLGDNIB@slrteSetupMSI@ 1006eadc     xpcruntime:xpcimports.obj
 0002:00003aec       ??_C@_0BJ@HEFMECLM@slrteSetupMSI?5not?5found?6@ 1006eaec     xpcruntime:xpcimports.obj
 0002:00003b0c       ??_C@_0BH@BPOLALHD@slrtGetCRBScratchSpace@ 1006eb0c     xpcruntime:xpcimports.obj
 0002:00003b28       ??_C@_0CC@KCKAJKKJ@slrtGetCRBScratchSpace?5not?5foun@ 1006eb28     xpcruntime:xpcimports.obj
 0002:00003b50       ??_C@_0BC@MKFDAKOL@slrtGetSgCRBSpace@ 1006eb50     xpcruntime:xpcimports.obj
 0002:00003b68       ??_C@_0BN@JDPHPLHL@slrtGetSgCRBSpace?5not?5found?6@ 1006eb68     xpcruntime:xpcimports.obj
 0002:00003b8c       ??_C@_0P@EPAPKLIF@slrtfsOpenFile@ 1006eb8c     xpcruntime:xpcimports.obj
 0002:00003ba0       ??_C@_0BK@FIHCBOHG@slrtfsOpenFile?5not?5found?6@ 1006eba0     xpcruntime:xpcimports.obj
 0002:00003bc0       ??_C@_0BA@LILAFDDL@slrtfsCloseFile@ 1006ebc0     xpcruntime:xpcimports.obj
 0002:00003bd4       ??_C@_0BL@DEGHJFIB@slrtfsCloseFile?5not?5found?6@ 1006ebd4     xpcruntime:xpcimports.obj
 0002:00003bf4       ??_C@_0BC@OKMJDIEH@slrtfsWriteToFile@ 1006ebf4     xpcruntime:xpcimports.obj
 0002:00003c0c       ??_C@_0BN@KCFLCLAH@slrtfsWriteToFile?5not?5found?6@ 1006ec0c     xpcruntime:xpcimports.obj
 0002:00003c30       ??_C@_0BK@GIPNFFFF@slrtfsGetFileErrorMessage@ 1006ec30     xpcruntime:xpcimports.obj
 0002:00003c50       ??_C@_0CF@BCBLMKLE@slrtfsGetFileErrorMessage?5not?5f@ 1006ec50     xpcruntime:xpcimports.obj
 0002:00003c7c       ??_C@_0BD@ICBOKMK@slrtfsGetFileError@ 1006ec7c     xpcruntime:xpcimports.obj
 0002:00003c94       ??_C@_0BO@FNBANAE@slrtfsGetFileError?5not?5found?6@ 1006ec94     xpcruntime:xpcimports.obj
 0002:00003cb8       ??_C@_0BE@PPAJMHJP@slrtfsOpenFileAsync@ 1006ecb8     xpcruntime:xpcimports.obj
 0002:00003cd0       ??_C@_0BP@HKBMMJOK@slrtfsOpenFileAsync?5not?5found?6@ 1006ecd0     xpcruntime:xpcimports.obj
 0002:00003cf8       ??_C@_0BF@IGNDIBPF@slrtfsCloseFileAsync@ 1006ecf8     xpcruntime:xpcimports.obj
 0002:00003d14       ??_C@_0CA@GJPFDBKN@slrtfsCloseFileAsync?5not?5found?6@ 1006ed14     xpcruntime:xpcimports.obj
 0002:00003d3c       ??_C@_0BE@IOLEBNB@slrtfsGetFileStatus@ 1006ed3c     xpcruntime:xpcimports.obj
 0002:00003d54       ??_C@_0BP@PEFHDGHL@slrtfsGetFileStatus?5not?5found?6@ 1006ed54     xpcruntime:xpcimports.obj
 0002:00003d7c       ??_C@_0M@HKIJIMG@slrtfsFread@ 1006ed7c     xpcruntime:xpcimports.obj
 0002:00003d8c       ??_C@_0BH@OOKBGONO@slrtfsFread?5not?5found?6@ 1006ed8c     xpcruntime:xpcimports.obj
 0002:00003da8       ??_C@_0BE@OGCMPLAP@slrtGetDefaultDrive@ 1006eda8     xpcruntime:xpcimports.obj
 0002:00003dc0       ??_C@_0BP@HKFGLHOE@slrtGetDefaultDrive?5not?5found?6@ 1006edc0     xpcruntime:xpcimports.obj
 0002:00003de8       ??_C@_0N@NAJIKFFI@slrtLogEvent@ 1006ede8     xpcruntime:xpcimports.obj
 0002:00003df8       ??_C@_0BI@NKCEACND@slrtLogEvent?5not?5found?6@ 1006edf8     xpcruntime:xpcimports.obj
 0002:00003e14       ??_C@_0N@IDKFJOHI@getlasterror@ 1006ee14     xpcruntime:xpcimports.obj
 0002:00003e24       ??_C@_0BI@MIHMCHGL@getlasterror?5not?5found?6@ 1006ee24     xpcruntime:xpcimports.obj
 0002:00003e40       ??_C@_0P@OKHGKJKN@geterrorstring@ 1006ee40     xpcruntime:xpcimports.obj
 0002:00003e54       ??_C@_0BK@NOHFDMLP@geterrorstring?5not?5found?6@ 1006ee54     xpcruntime:xpcimports.obj
 0002:00003e74       ??_C@_0BD@HNFFKMGJ@slrtGetCPUTCelsius@ 1006ee74     xpcruntime:xpcimports.obj
 0002:00003e8c       ??_C@_0BO@LHBFKLIH@slrtGetCPUTCelsius?5not?5found?6@ 1006ee8c     xpcruntime:xpcimports.obj
 0002:00003eb0       ??_C@_0M@OONCNCLM@slrtWarning@ 1006eeb0     xpcruntime:xpcimports.obj
 0002:00003ec0       ??_C@_0BH@ICKGIEMB@slrtWarning?5not?5found?6@ 1006eec0     xpcruntime:xpcimports.obj
 0002:00003edc       ??_C@_0N@EAAOMIIE@isUsedByRTIP@ 1006eedc     xpcruntime:xpcimports.obj
 0002:00003eec       ??_C@_0BI@GNHHHICK@isUsedByRTIP?5not?5found?6@ 1006eeec     xpcruntime:xpcimports.obj
 0002:00003f08       ??_C@_0BC@HLDKJAG@SetIPTASKPriority@ 1006ef08     xpcruntime:xpcimports.obj
 0002:00003f20       ??_C@_0BN@OGKMHHAE@SetIPTASKPriority?5not?5found?6@ 1006ef20     xpcruntime:xpcimports.obj
 0002:00003f44       ??_C@_0O@LHENMBDD@OpenInterface@ 1006ef44     xpcruntime:xpcimports.obj
 0002:00003f54       ??_C@_0BJ@PFGDBKHB@OpenInterface?5not?5found?6@ 1006ef54     xpcruntime:xpcimports.obj
 0002:00003f74       ??_C@_0P@IINFELKD@CloseInterface@ 1006ef74     xpcruntime:xpcimports.obj
 0002:00003f88       ??_C@_0BK@PAPDNDBK@CloseInterface?5not?5found?6@ 1006ef88     xpcruntime:xpcimports.obj
 0002:00003fa8       ??_C@_05LEFIAAOI@SetIP@    1006efa8     xpcruntime:xpcimports.obj
 0002:00003fb0       ??_C@_0BB@CGLIBAMM@SetIP?5not?5found?6@ 1006efb0     xpcruntime:xpcimports.obj
 0002:00003fc4       ??_C@_0BA@HIJJHHMD@AddGatewayRoute@ 1006efc4     xpcruntime:xpcimports.obj
 0002:00003fd8       ??_C@_0BL@BFCFMDMN@AddGatewayRoute?5not?5found?6@ 1006efd8     xpcruntime:xpcimports.obj
 0002:00003ff8       ??_C@_0M@PHMABFPI@DeleteRoute@ 1006eff8     xpcruntime:xpcimports.obj
 0002:00004008       ??_C@_0BH@JPJGLLID@DeleteRoute?5not?5found?6@ 1006f008     xpcruntime:xpcimports.obj
 0002:00004024       ??_C@_0BA@FCDIMKIJ@GetHostTarIPAdd@ 1006f024     xpcruntime:xpcimports.obj
 0002:00004038       ??_C@_0BL@MBKDGKBO@GetHostTarIPAdd?5not?5found?6@ 1006f038     xpcruntime:xpcimports.obj
 0002:00004058       ??_C@_0M@HPMIPIBI@GetDCUUsage@ 1006f058     xpcruntime:xpcimports.obj
 0002:00004068       ??_C@_0BH@EBLJKCJC@GetDCUUsage?5not?5found?6@ 1006f068     xpcruntime:xpcimports.obj
 0002:00004084       ??_C@_06MPKMECK@accept@    1006f084     xpcruntime:xpcimports.obj
 0002:0000408c       ??_C@_0BC@GBGIEMNO@accept?5not?5found?6@ 1006f08c     xpcruntime:xpcimports.obj
 0002:000040a4       ??_C@_04NPNJNMMP@bind@     1006f0a4     xpcruntime:xpcimports.obj
 0002:000040ac       ??_C@_0BA@DAJNENLO@bind?5not?5found?6@ 1006f0ac     xpcruntime:xpcimports.obj
 0002:000040c0       ??_C@_0L@CKHNIFCM@setsockopt@ 1006f0c0     xpcruntime:xpcimports.obj
 0002:000040d0       ??_C@_0BG@MFIIOMFE@setsockopt?5not?5found?6@ 1006f0d0     xpcruntime:xpcimports.obj
 0002:000040ec       ??_C@_0M@ODDJDCDK@closesocket@ 1006f0ec     xpcruntime:xpcimports.obj
 0002:000040fc       ??_C@_0BH@JHGHMIL@closesocket?5not?5found?6@ 1006f0fc     xpcruntime:xpcimports.obj
 0002:00004118       ??_C@_07KAIBNCHO@connect@  1006f118     xpcruntime:xpcimports.obj
 0002:00004124       ??_C@_0BD@MKLLMBM@connect?5not?5found?6@ 1006f124     xpcruntime:xpcimports.obj
 0002:0000413c       ??_C@_0M@PBPOCKDG@ioctlsocket@ 1006f13c     xpcruntime:xpcimports.obj
 0002:0000414c       ??_C@_0BH@NFCNHHIH@ioctlsocket?5not?5found?6@ 1006f14c     xpcruntime:xpcimports.obj
 0002:00004168       ??_C@_06OODDLKLE@listen@   1006f168     xpcruntime:xpcimports.obj
 0002:00004170       ??_C@_0BC@NHBILEKI@listen?5not?5found?6@ 1006f170     xpcruntime:xpcimports.obj
 0002:00004188       ??_C@_08HMBBGFHE@recvfrom@ 1006f188     xpcruntime:xpcimports.obj
 0002:00004194       ??_C@_0BE@BJAJFFLF@recvfrom?5not?5found?6@ 1006f194     xpcruntime:xpcimports.obj
 0002:000041ac       ??_C@_06MEPBGKEC@sendto@   1006f1ac     xpcruntime:xpcimports.obj
 0002:000041b4       ??_C@_0BC@BHPIMDJO@sendto?5not?5found?6@ 1006f1b4     xpcruntime:xpcimports.obj
 0002:000041cc       ??_C@_09JKBDEEOB@inet_addr@ 1006f1cc     xpcruntime:xpcimports.obj
 0002:000041d8       ??_C@_0BF@HKJPGECN@inet_addr?5not?5found?6@ 1006f1d8     xpcruntime:xpcimports.obj
 0002:000041f4       ??_C@_06HBELJPBO@socket@   1006f1f4     xpcruntime:xpcimports.obj
 0002:000041fc       ??_C@_0BC@NAGFFJGA@socket?5not?5found?6@ 1006f1fc     xpcruntime:xpcimports.obj
 0002:00004214       ??_C@_09ICJIFGNC@GetSocket@ 1006f214     xpcruntime:xpcimports.obj
 0002:00004220       ??_C@_0BF@KDBCKMOJ@GetSocket?5not?5found?6@ 1006f220     xpcruntime:xpcimports.obj
 0002:0000423c       ??_C@_0P@KJEGJMJI@GetSocketState@ 1006f23c     xpcruntime:xpcimports.obj
 0002:00004250       ??_C@_0BK@IALBJHEB@GetSocketState?5not?5found?6@ 1006f250     xpcruntime:xpcimports.obj
 0002:00004270       ??_C@_0L@MEAJHNHB@SocketSend@ 1006f270     xpcruntime:xpcimports.obj
 0002:00004280       ??_C@_0BG@EOCMBFJA@SocketSend?5not?5found?6@ 1006f280     xpcruntime:xpcimports.obj
 0002:0000429c       ??_C@_0O@PFPCLEMF@SocketReceive@ 1006f29c     xpcruntime:xpcimports.obj
 0002:000042ac       ??_C@_0BJ@HIBADDFO@SocketReceive?5not?5found?6@ 1006f2ac     xpcruntime:xpcimports.obj
 0002:000042cc       ??_C@_0BD@OOGFNAIK@CreateServerSocket@ 1006f2cc     xpcruntime:xpcimports.obj
 0002:000042e4       ??_C@_0BO@GKIJHIPH@CreateServerSocket?5not?5found?6@ 1006f2e4     xpcruntime:xpcimports.obj
 0002:00004308       ??_C@_0BB@KGHJGFFO@OpenServerListen@ 1006f308     xpcruntime:xpcimports.obj
 0002:0000431c       ??_C@_0BM@NFMMLIO@OpenServerListen?5not?5found?6@ 1006f31c     xpcruntime:xpcimports.obj
 0002:00004340       ??_C@_0BE@BAJLDJAH@ConnectServerSocket@ 1006f340     xpcruntime:xpcimports.obj
 0002:00004358       ??_C@_0BP@KJNODIKE@ConnectServerSocket?5not?5found?6@ 1006f358     xpcruntime:xpcimports.obj
 0002:00004380       ??_C@_0BC@PLKKJDIM@CloseServerSocket@ 1006f380     xpcruntime:xpcimports.obj
 0002:00004398       ??_C@_0BN@KEJEPNMB@CloseServerSocket?5not?5found?6@ 1006f398     xpcruntime:xpcimports.obj
 0002:000043bc       ??_C@_0BD@MCLPKCPP@CreateClientSocket@ 1006f3bc     xpcruntime:xpcimports.obj
 0002:000043d4       ??_C@_0BO@DILAGPFN@CreateClientSocket?5not?5found?6@ 1006f3d4     xpcruntime:xpcimports.obj
 0002:000043f8       ??_C@_0BB@DAPKNNLG@BindClientSocket@ 1006f3f8     xpcruntime:xpcimports.obj
 0002:0000440c       ??_C@_0BM@LLLMMDFN@BindClientSocket?5not?5found?6@ 1006f40c     xpcruntime:xpcimports.obj
 0002:00004430       ??_C@_0BE@DMEBELHC@ConnectClientSocket@ 1006f430     xpcruntime:xpcimports.obj
 0002:00004448       ??_C@_0BP@PLOHCPAO@ConnectClientSocket?5not?5found?6@ 1006f448     xpcruntime:xpcimports.obj
 0002:00004470       ??_C@_0BC@NHHAOBPJ@CloseClientSocket@ 1006f470     xpcruntime:xpcimports.obj
 0002:00004488       ??_C@_0BN@PGKNOKGL@CloseClientSocket?5not?5found?6@ 1006f488     xpcruntime:xpcimports.obj
 0002:0000455c       __pDefaultRawDllMain       1006f55c     LIBCMT:dll_dllmain.obj
 0002:0000455c       __pRawDllMain              1006f55c     LIBCMT:dll_dllmain.obj
 0002:00004750       ??_C@_08EHJDFFNH@__based?$CI@ 1006f750     libvcruntime:undname.obj
 0002:0000475c       ??_C@_07KOLFKCDI@__cdecl@  1006f75c     libvcruntime:undname.obj
 0002:00004768       ??_C@_08GHMPAG@__pascal@   1006f768     libvcruntime:undname.obj
 0002:00004774       ??_C@_09IFJBGAPI@__stdcall@ 1006f774     libvcruntime:undname.obj
 0002:00004780       ??_C@_0L@NPHFGOKO@__thiscall@ 1006f780     libvcruntime:undname.obj
 0002:00004790       ??_C@_0L@JMKHOMEK@__fastcall@ 1006f790     libvcruntime:undname.obj
 0002:000047a0       ??_C@_0N@BCKKPABJ@__vectorcall@ 1006f7a0     libvcruntime:undname.obj
 0002:000047b0       ??_C@_09HIJEGCPM@__clrcall@ 1006f7b0     libvcruntime:undname.obj
 0002:000047bc       ??_C@_06GHPCKEAG@__eabi@   1006f7bc     libvcruntime:undname.obj
 0002:000047c4       ??_C@_09IOPIDJLG@__swift_1@ 1006f7c4     libvcruntime:undname.obj
 0002:000047d0       ??_C@_09KFNFGKHF@__swift_2@ 1006f7d0     libvcruntime:undname.obj
 0002:000047dc       ??_C@_07JOMMBBKO@__ptr64@  1006f7dc     libvcruntime:undname.obj
 0002:000047e8       ??_C@_0L@PILCLIHE@__restrict@ 1006f7e8     libvcruntime:undname.obj
 0002:000047f8       ??_C@_0M@GFIIJFMG@__unaligned@ 1006f7f8     libvcruntime:undname.obj
 0002:00004808       ??_C@_09DHDLOLLB@restrict?$CI@ 1006f808     libvcruntime:undname.obj
 0002:00004814       ??_C@_04NIHEBCM@?5new@     1006f814     libvcruntime:undname.obj
 0002:0000481c       ??_C@_07FPCDHGMM@?5delete@ 1006f81c     libvcruntime:undname.obj
 0002:00004828       ??_C@_01NEMOKFLO@?$DN@     1006f828     libvcruntime:undname.obj
 0002:0000482c       ??_C@_02GPIOPFAK@?$DO?$DO@ 1006f82c     libvcruntime:undname.obj
 0002:00004830       ??_C@_02FODMEDOG@?$DM?$DM@ 1006f830     libvcruntime:undname.obj
 0002:00004834       ??_C@_01DCLJPIOD@?$CB@     1006f834     libvcruntime:undname.obj
 0002:00004838       ??_C@_02EGOFBIJA@?$DN?$DN@ 1006f838     libvcruntime:undname.obj
 0002:0000483c       ??_C@_02FDNJECIE@?$CB?$DN@ 1006f83c     libvcruntime:undname.obj
 0002:00004840       ??_C@_02GPECMEKF@?$FL?$FN@ 1006f840     libvcruntime:undname.obj
 0002:00004844       ??_C@_08LHJFAFGD@operator@ 1006f844     libvcruntime:undname.obj
 0002:00004850       ??_C@_02HBOOOICD@?9?$DO@   1006f850     libvcruntime:undname.obj
 0002:00004854       ??_C@_01NBENCBCI@?$CK@     1006f854     libvcruntime:undname.obj
 0002:00004858       ??_C@_02ECNGHCIF@?$CL?$CL@ 1006f858     libvcruntime:undname.obj
 0002:0000485c       ??_C@_02BAABKJLB@?9?9@     1006f85c     libvcruntime:undname.obj
 0002:00004860       ??_C@_01JOAMLHOP@?9@       1006f860     libvcruntime:undname.obj
 0002:00004864       ??_C@_01MIFGBAGJ@?$CL@     1006f864     libvcruntime:undname.obj
 0002:00004868       ??_C@_01HNPIGOCE@?$CG@     1006f868     libvcruntime:undname.obj
 0002:0000486c       ??_C@_03MNHNFDLC@?9?$DO?$CK@ 1006f86c     libvcruntime:undname.obj
 0002:00004870       ??_C@_01KMDKNFGN@?1@       1006f870     libvcruntime:undname.obj
 0002:00004874       ??_C@_01FGNFDNOH@?$CF@     1006f874     libvcruntime:undname.obj
 0002:00004878       ??_C@_01MNNFJEPP@?$DM@     1006f878     libvcruntime:undname.obj
 0002:0000487c       ??_C@_02EHCHHCKH@?$DM?$DN@ 1006f87c     libvcruntime:undname.obj
 0002:00004880       ??_C@_01PPODPGHN@?$DO@     1006f880     libvcruntime:undname.obj
 0002:00004884       ??_C@_02EEKDKGMJ@?$DO?$DN@ 1006f884     libvcruntime:undname.obj
 0002:00004888       ??_C@_01IHBHIGKO@?0@       1006f888     libvcruntime:undname.obj
 0002:0000488c       ??_C@_02HCKGKOFO@?$CI?$CJ@ 1006f88c     libvcruntime:undname.obj
 0002:00004890       ??_C@_01PJKLJHI@?$HO@      1006f890     libvcruntime:undname.obj
 0002:00004894       ??_C@_01JKBOJNNK@?$FO@     1006f894     libvcruntime:undname.obj
 0002:00004898       ??_C@_01DNKMNLPK@?$HM@     1006f898     libvcruntime:undname.obj
 0002:0000489c       ??_C@_02PPKAJPJL@?$CG?$CG@ 1006f89c     libvcruntime:undname.obj
 0002:000048a0       ??_C@_02NONPIBCD@?$HM?$HM@ 1006f8a0     libvcruntime:undname.obj
 0002:000048a4       ??_C@_02FPIMKNGF@?$CK?$DN@ 1006f8a4     libvcruntime:undname.obj
 0002:000048a8       ??_C@_02FOEOMHFC@?$CL?$DN@ 1006f8a8     libvcruntime:undname.obj
 0002:000048ac       ??_C@_02FKMDLLOA@?9?$DN@   1006f8ac     libvcruntime:undname.obj
 0002:000048b0       ??_C@_02FJEHGPIO@?1?$DN@   1006f8b0     libvcruntime:undname.obj
 0002:000048b4       ??_C@_02FENAOKFI@?$CF?$DN@ 1006f8b4     libvcruntime:undname.obj
 0002:000048b8       ??_C@_03IKFCCPFF@?$DO?$DO?$DN@ 1006f8b8     libvcruntime:undname.obj
 0002:000048bc       ??_C@_03CDNPDDLA@?$DM?$DM?$DN@ 1006f8bc     libvcruntime:undname.obj
 0002:000048c0       ??_C@_02FGJGFEAB@?$CG?$DN@ 1006f8c0     libvcruntime:undname.obj
 0002:000048c4       ??_C@_02DHLNPPGH@?$HM?$DN@ 1006f8c4     libvcruntime:undname.obj
 0002:000048c8       ??_C@_02MHEGNOJ@?$FO?$DN@  1006f8c8     libvcruntime:undname.obj
 0002:000048cc       ??_C@_09IFPLHPGF@?$GAvftable?8@ 1006f8cc     libvcruntime:undname.obj
 0002:000048d8       ??_C@_09BLBHBJP@?$GAvbtable?8@ 1006f8d8     libvcruntime:undname.obj
 0002:000048e4       ??_C@_07FEEIOKP@?$GAvcall?8@ 1006f8e4     libvcruntime:undname.obj
 0002:000048f0       ??_C@_08LLFFHHDJ@?$GAtypeof?8@ 1006f8f0     libvcruntime:undname.obj
 0002:000048fc       ??_C@_0BF@KDPPACIK@?$GAlocal?5static?5guard?8@ 1006f8fc     libvcruntime:undname.obj
 0002:00004918       ??_C@_08OBABFOLI@?$GAstring?8@ 1006f918     libvcruntime:undname.obj
 0002:00004924       ??_C@_0BD@JDLKDPAB@?$GAvbase?5destructor?8@ 1006f924     libvcruntime:undname.obj
 0002:0000493c       ??_C@_0BN@DEGPLNFK@?$GAvector?5deleting?5destructor?8@ 1006f93c     libvcruntime:undname.obj
 0002:00004960       ??_C@_0BO@OBMKPJIG@?$GAdefault?5constructor?5closure?8@ 1006f960     libvcruntime:undname.obj
 0002:00004984       ??_C@_0BN@IMDCHIKM@?$GAscalar?5deleting?5destructor?8@ 1006f984     libvcruntime:undname.obj
 0002:000049a8       ??_C@_0BO@PFGOCPJJ@?$GAvector?5constructor?5iterator?8@ 1006f9a8     libvcruntime:undname.obj
 0002:000049cc       ??_C@_0BN@LFPFMEDL@?$GAvector?5destructor?5iterator?8@ 1006f9cc     libvcruntime:undname.obj
 0002:000049f0       ??_C@_0CE@IKBNEHA@?$GAvector?5vbase?5constructor?5itera@ 1006f9f0     libvcruntime:undname.obj
 0002:00004a1c       ??_C@_0BL@NILFHHPC@?$GAvirtual?5displacement?5map?8@ 1006fa1c     libvcruntime:undname.obj
 0002:00004a3c       ??_C@_0CB@JONCMFFK@?$GAeh?5vector?5constructor?5iterator@ 1006fa3c     libvcruntime:undname.obj
 0002:00004a64       ??_C@_0CA@GCEOPDGL@?$GAeh?5vector?5destructor?5iterator?8@ 1006fa64     libvcruntime:undname.obj
 0002:00004a8c       ??_C@_0CH@OOJPLCPH@?$GAeh?5vector?5vbase?5constructor?5it@ 1006fa8c     libvcruntime:undname.obj
 0002:00004abc       ??_C@_0BL@LLKPOHJI@?$GAcopy?5constructor?5closure?8@ 1006fabc     libvcruntime:undname.obj
 0002:00004adc       ??_C@_0BA@KBCDOMBN@?$GAudt?5returning?8@ 1006fadc     libvcruntime:undname.obj
 0002:00004af0       ??_C@_03KLGMFNMG@?$GAEH@   1006faf0     libvcruntime:undname.obj
 0002:00004af4       ??_C@_05KHLCHHI@?$GARTTI@  1006faf4     libvcruntime:undname.obj
 0002:00004afc       ??_C@_0BA@KKLDJDLB@?$GAlocal?5vftable?8@ 1006fafc     libvcruntime:undname.obj
 0002:00004b10       ??_C@_0CE@IIHCMGGL@?$GAlocal?5vftable?5constructor?5clos@ 1006fb10     libvcruntime:undname.obj
 0002:00004b3c       ??_C@_06FHBGPFGH@?5new?$FL?$FN@ 1006fb3c     libvcruntime:undname.obj
 0002:00004b44       ??_C@_09LBNFPBCA@?5delete?$FL?$FN@ 1006fb44     libvcruntime:undname.obj
 0002:00004b50       ??_C@_0P@HJKNJFNN@?$GAomni?5callsig?8@ 1006fb50     libvcruntime:undname.obj
 0002:00004b64       ??_C@_0BL@CNOONJFP@?$GAplacement?5delete?5closure?8@ 1006fb64     libvcruntime:undname.obj
 0002:00004b84       ??_C@_0BN@CKNJLHMB@?$GAplacement?5delete?$FL?$FN?5closure?8@ 1006fb84     libvcruntime:undname.obj
 0002:00004ba8       ??_C@_0CG@CFDHKGGD@?$GAmanaged?5vector?5constructor?5ite@ 1006fba8     libvcruntime:undname.obj
 0002:00004bd8       ??_C@_0CF@IMGKMJNO@?$GAmanaged?5vector?5destructor?5iter@ 1006fbd8     libvcruntime:undname.obj
 0002:00004c04       ??_C@_0CG@HLDDJMAG@?$GAeh?5vector?5copy?5constructor?5ite@ 1006fc04     libvcruntime:undname.obj
 0002:00004c34       ??_C@_0CM@FCBBDIGB@?$GAeh?5vector?5vbase?5copy?5construct@ 1006fc34     libvcruntime:undname.obj
 0002:00004c68       ??_C@_0BL@CLIPGLGB@?$GAdynamic?5initializer?5for?5?8@ 1006fc68     libvcruntime:undname.obj
 0002:00004c88       ??_C@_0CB@PDBIFEP@?$GAdynamic?5atexit?5destructor?5for?5@ 1006fc88     libvcruntime:undname.obj
 0002:00004cb0       ??_C@_0CD@CGAJBKEJ@?$GAvector?5copy?5constructor?5iterat@ 1006fcb0     libvcruntime:undname.obj
 0002:00004cdc       ??_C@_0CJ@GJELGAMM@?$GAvector?5vbase?5copy?5constructor?5@ 1006fcdc     libvcruntime:undname.obj
 0002:00004d10       ??_C@_0CL@FGIJHLCE@?$GAmanaged?5vector?5copy?5constructo@ 1006fd10     libvcruntime:undname.obj
 0002:00004d44       ??_C@_0BM@PMGGMLDN@?$GAlocal?5static?5thread?5guard?8@ 1006fd44     libvcruntime:undname.obj
 0002:00004d68       ??_C@_0N@BDNMDMOL@operator?5?$CC?$CC?5@ 1006fd68     libvcruntime:undname.obj
 0002:00004d78       ??_C@_0BC@GGEBGALA@operator?5co_await@ 1006fd78     libvcruntime:undname.obj
 0002:00004d90       ??_C@_0BC@DAFEJGAK@?5Type?5Descriptor?8@ 1006fd90     libvcruntime:undname.obj
 0002:00004da8       ??_C@_0BM@LDKODKLH@?5Base?5Class?5Descriptor?5at?5?$CI@ 1006fda8     libvcruntime:undname.obj
 0002:00004dcc       ??_C@_0BD@LGICGFMM@?5Base?5Class?5Array?8@ 1006fdcc     libvcruntime:undname.obj
 0002:00004de4       ??_C@_0BN@MECKDCOJ@?5Class?5Hierarchy?5Descriptor?8@ 1006fde4     libvcruntime:undname.obj
 0002:00004e08       ??_C@_0BK@CFCOFLF@?5Complete?5Object?5Locator?8@ 1006fe08     libvcruntime:undname.obj
 0002:00004e28       ??_C@_04HEJADOOB@CV?3?5@   1006fe28     libvcruntime:undname.obj
 0002:00004e30       ??_C@_02MOLJINC@?3?3@      1006fe30     libvcruntime:undname.obj
 0002:00004e34       ??_C@_0BE@JAEOCHPE@template?9parameter?9@ 1006fe34     libvcruntime:undname.obj
 0002:00004e4c       ??_C@_0O@KHGCOMHP@generic?9type?9@ 1006fe4c     libvcruntime:undname.obj
 0002:00004e5c       ??_C@_01NLNLIGKH@?$GA@     1006fe5c     libvcruntime:undname.obj
 0002:00004e60       ??_C@_01GEODFPGF@?8@       1006fe60     libvcruntime:undname.obj
 0002:00004e64       ??_C@_0BG@JNJLAMPM@?$GAanonymous?5namespace?8@ 1006fe64     libvcruntime:undname.obj
 0002:00004e80       ??_C@_02OHHJMEON@?8?8@     1006fe80     libvcruntime:undname.obj
 0002:00004e84       ??_C@_0BN@IBLMMFAP@?$GAnon?9type?9template?9parameter@ 1006fe84     libvcruntime:undname.obj
 0002:00004ea8       ??_C@_04GKJNKENE@void@     1006fea8     libvcruntime:undname.obj
 0002:00004eb0       ??_C@_0BE@EODMJLIF@?$GAtemplate?9parameter@ 1006feb0     libvcruntime:undname.obj
 0002:00004ec8       ??_C@_03KHICJKCI@?4?4?4@   1006fec8     libvcruntime:undname.obj
 0002:00004ecc       ??_C@_04HIBGFPH@NULL@      1006fecc     libvcruntime:undname.obj
 0002:00004ed4       ??_C@_02DPKJAMEF@?$CFd@    1006fed4     libvcruntime:undname.obj
 0002:00004ed8       ??_C@_0BK@IHCCFNEL@?$GAtemplate?9type?9parameter?9@ 1006fed8     libvcruntime:undname.obj
 0002:00004ef8       ??_C@_0BK@OFCNNNKO@?$GAgeneric?9class?9parameter?9@ 1006fef8     libvcruntime:undname.obj
 0002:00004f18       ??_C@_0BL@NGJBLFIL@?$GAgeneric?9method?9parameter?9@ 1006ff18     libvcruntime:undname.obj
 0002:00004f38       ??_C@_03OPGICMGF@?$HN?8?5@ 1006ff38     libvcruntime:undname.obj
 0002:00004f3c       ??_C@_02IGFCGPIL@?$HN?8@   1006ff3c     libvcruntime:undname.obj
 0002:00004f40       ??_C@_01CLKCMJKC@?5@       1006ff40     libvcruntime:undname.obj
 0002:00004f44       ??_C@_0N@CBHHHENL@?$GAvtordispex?$HL@ 1006ff44     libvcruntime:undname.obj
 0002:00004f54       ??_C@_0L@GHPFDFH@?$GAvtordisp?$HL@ 1006ff54     libvcruntime:undname.obj
 0002:00004f64       ??_C@_0L@HNGCOGAE@?$GAadjustor?$HL@ 1006ff64     libvcruntime:undname.obj
 0002:00004f74       ??_C@_0CB@KJDOOODE@?$GAlocal?5static?5destructor?5helper@ 1006ff74     libvcruntime:undname.obj
 0002:00004f9c       ??_C@_0DB@ILEFOCIJ@?$GAtemplate?5static?5data?5member?5co@ 1006ff9c     libvcruntime:undname.obj
 0002:00004fd8       ??_C@_0DA@HGFJFBBE@?$GAtemplate?5static?5data?5member?5de@ 1006ffd8     libvcruntime:undname.obj
 0002:00005014       ??_C@_07PGOEDBHP@static?5@ 10070014     libvcruntime:undname.obj
 0002:00005020       ??_C@_08NIEOINHE@virtual?5@ 10070020     libvcruntime:undname.obj
 0002:0000502c       ??_C@_09LAPHOOG@private?3?5@ 1007002c     libvcruntime:undname.obj
 0002:00005038       ??_C@_0M@GAIFPFIP@protected?3?5@ 10070038     libvcruntime:undname.obj
 0002:00005048       ??_C@_08GPDDCMKI@public?3?5@ 10070048     libvcruntime:undname.obj
 0002:00005054       ??_C@_08KJLFOPNE@?$FLthunk?$FN?3@ 10070054     libvcruntime:undname.obj
 0002:00005060       ??_C@_0M@DHNBOJMP@extern?5?$CCC?$CC?5@ 10070060     libvcruntime:undname.obj
 0002:00005070       ??_C@_02KCKGHPCA@?$CJ?5@   10070070     libvcruntime:undname.obj
 0002:00005074       ??_C@_05CIHEBHNO@char?5@   10070074     libvcruntime:undname.obj
 0002:0000507c       ??_C@_06EHJMALKF@short?5@  1007007c     libvcruntime:undname.obj
 0002:00005084       ??_C@_04LAHKHJMA@int?5@    10070084     libvcruntime:undname.obj
 0002:0000508c       ??_C@_05CJIMAING@long?5@   1007008c     libvcruntime:undname.obj
 0002:00005094       ??_C@_09EBBEKKIH@unsigned?5@ 10070094     libvcruntime:undname.obj
 0002:000050a0       ??_C@_05BEFAKPML@void?5@   100700a0     libvcruntime:undname.obj
 0002:000050a8       ??_C@_08PABEKFH@volatile@  100700a8     libvcruntime:undname.obj
 0002:000050b4       ??_C@_0BA@LKIJLKPP@std?3?3nullptr_t?5@ 100700b4     libvcruntime:undname.obj
 0002:000050c8       ??_C@_0P@GCOCNKDM@std?3?3nullptr_t@ 100700c8     libvcruntime:undname.obj
 0002:000050dc       ??_C@_0L@EGPHHEKN@?$DMellipsis?$DO@ 100700dc     libvcruntime:undname.obj
 0002:000050ec       ??_C@_04EENFHACM@?0?4?4?4@ 100700ec     libvcruntime:undname.obj
 0002:000050f4       ??_C@_0M@ELJOJFFH@?0?$DMellipsis?$DO@ 100700f4     libvcruntime:undname.obj
 0002:00005104       ??_C@_09DNHFEOJI@?5noexcept@ 10070104     libvcruntime:undname.obj
 0002:00005110       ??_C@_03PBJBJNON@cpu@      10070110     libvcruntime:undname.obj
 0002:00005114       ??_C@_03DCBBJBAA@amp@      10070114     libvcruntime:undname.obj
 0002:00005118       ??_C@_02KEGNLNML@?0?5@     10070118     libvcruntime:undname.obj
 0002:0000511c       ??_C@_04ENMBGAPA@char@     1007011c     libvcruntime:undname.obj
 0002:00005124       ??_C@_05BFKKPKCG@short@    10070124     libvcruntime:undname.obj
 0002:0000512c       ??_C@_03JBIPMCLC@int@      1007012c     libvcruntime:undname.obj
 0002:00005130       ??_C@_04GOKPGOLB@long@     10070130     libvcruntime:undname.obj
 0002:00005138       ??_C@_04DDKJGDCM@bool@     10070138     libvcruntime:undname.obj
 0002:00005140       ??_C@_06EBGKOKIG@__int8@   10070140     libvcruntime:undname.obj
 0002:00005148       ??_C@_07ICFHOGAF@__int16@  10070148     libvcruntime:undname.obj
 0002:00005154       ??_C@_07OFLPPHGP@__int32@  10070154     libvcruntime:undname.obj
 0002:00005160       ??_C@_07LFCOJCAC@__int64@  10070160     libvcruntime:undname.obj
 0002:0000516c       ??_C@_08GAHOLHEO@__int128@ 1007016c     libvcruntime:undname.obj
 0002:00005178       ??_C@_09EEKGDCPH@?$DMunknown?$DO@ 10070178     libvcruntime:undname.obj
 0002:00005184       ??_C@_08HBIPOFJB@char16_t@ 10070184     libvcruntime:undname.obj
 0002:00005190       ??_C@_08IECNCBKG@char32_t@ 10070190     libvcruntime:undname.obj
 0002:0000519c       ??_C@_07CLGGIAMF@wchar_t@  1007019c     libvcruntime:undname.obj
 0002:000051a8       ??_C@_06GCICPBLB@__w64?5@  100701a8     libvcruntime:undname.obj
 0002:000051b0       ??_C@_07NFANNNEC@UNKNOWN@  100701b0     libvcruntime:undname.obj
 0002:000051bc       ??_C@_07EDHNAJHC@signed?5@ 100701bc     libvcruntime:undname.obj
 0002:000051c8       ??_C@_05BNCCCJPP@const@    100701c8     libvcruntime:undname.obj
 0002:000051d0       ??_C@_09EFNPDFFP@?5volatile@ 100701d0     libvcruntime:undname.obj
 0002:000051dc       ??_C@_0P@GCIFDJCJ@?$GAunknown?5ecsu?8@ 100701dc     libvcruntime:undname.obj
 0002:000051f0       ??_C@_06MOJHIBMG@union?5@  100701f0     libvcruntime:undname.obj
 0002:000051f8       ??_C@_07DIBCDNGL@struct?5@ 100701f8     libvcruntime:undname.obj
 0002:00005204       ??_C@_06LJBABKPM@class?5@  10070204     libvcruntime:undname.obj
 0002:0000520c       ??_C@_08KOFANOFK@coclass?5@ 1007020c     libvcruntime:undname.obj
 0002:00005218       ??_C@_0N@DLIEFKNA@cointerface?5@ 10070218     libvcruntime:undname.obj
 0002:00005228       ??_C@_05LJGMCFOG@enum?5@   10070228     libvcruntime:undname.obj
 0002:00005230       ??_C@_09GAIEOBLP@volatile?5@ 10070230     libvcruntime:undname.obj
 0002:0000523c       ??_C@_06LIJLOJAG@const?5@  1007023c     libvcruntime:undname.obj
 0002:00005244       ??_C@_02KJPKDIBN@?$CG?5@   10070244     libvcruntime:undname.obj
 0002:00005248       ??_C@_03PCKGMOPB@?$CG?$CG?5@ 10070248     libvcruntime:undname.obj
 0002:0000524c       ??_C@_0M@EALIELKG@cli?3?3array?$DM@ 1007024c     libvcruntime:undname.obj
 0002:0000525c       ??_C@_0O@GKABPPIF@cli?3?3pin_ptr?$DM@ 1007025c     libvcruntime:undname.obj
 0002:0000526c       ??_C@_02GOGNNPBN@?$CJ?$FL@ 1007026c     libvcruntime:undname.obj
 0002:00005270       ??_C@_06EEGAIFAK@?$HLflat?$HN@ 10070270     libvcruntime:undname.obj
 0002:00005278       ??_C@_05JIBOFOHK@?$HLfor?5@ 10070278     libvcruntime:undname.obj
 0002:00005280       ??_C@_02MDINNEEG@s?5@      10070280     libvcruntime:undname.obj
 0002:00005288       ??_7DNameNode@@6B@         10070288     libvcruntime:undname.obj
 0002:0000529c       ??_7charNode@@6B@          1007029c     libvcruntime:undname.obj
 0002:000052b0       ??_7pcharNode@@6B@         100702b0     libvcruntime:undname.obj
 0002:000052c4       ??_7pDNameNode@@6B@        100702c4     libvcruntime:undname.obj
 0002:000052d8       ??_7DNameStatusNode@@6B@   100702d8     libvcruntime:undname.obj
 0002:000052ec       ??_7pairNode@@6B@          100702ec     libvcruntime:undname.obj
 0002:000052fc       ??_C@_04OKOHEJBO@?5?$DP?$DP?5@ 100702fc     libvcruntime:undname.obj
 0002:00005304       ?nodes@?1??make@DNameStatusNode@@SAPBV2@W4DNameStatus@@@Z@4QBV2@B 10070304     libvcruntime:undname.obj
 0002:00005350       ??_C@_1DM@KHCHBNEB@?$AAa?$AAp?$AAi?$AA?9?$AAm?$AAs?$AA?9?$AAw?$AAi?$AAn?$AA?9?$AAc?$AAo?$AAr?$AAe@ 10070350     libvcruntime:winapi_downlevel.obj
 0002:00005398       ??_C@_1DK@LPPGFMPP@?$AAa?$AAp?$AAi?$AA?9?$AAm?$AAs?$AA?9?$AAw?$AAi?$AAn?$AA?9?$AAc?$AAo?$AAr?$AAe@ 10070398     libvcruntime:winapi_downlevel.obj
 0002:000053e0       ??_C@_1BC@GDMECMAK@?$AAk?$AAe?$AAr?$AAn?$AAe?$AAl?$AA3?$AA2@ 100703e0     libvcruntime:winapi_downlevel.obj
 0002:000053f8       ??_C@_1BA@PFFKHIOG@?$AAa?$AAp?$AAi?$AA?9?$AAm?$AAs?$AA?9@ 100703f8     libvcruntime:winapi_downlevel.obj
 0002:0000540c       ??_C@_1BA@IAIFMGEF@?$AAe?$AAx?$AAt?$AA?9?$AAm?$AAs?$AA?9@ 1007040c     libvcruntime:winapi_downlevel.obj
 0002:0000542c       ??_C@_08KNHFBNJ@FlsAlloc@  1007042c     libvcruntime:winapi_downlevel.obj
 0002:00005444       ??_C@_07PEJMOBNF@FlsFree@  10070444     libvcruntime:winapi_downlevel.obj
 0002:0000545c       ??_C@_0M@GDNOONDI@FlsGetValue@ 1007045c     libvcruntime:winapi_downlevel.obj
 0002:00005478       ??_C@_0M@JCPCPOEF@FlsSetValue@ 10070478     libvcruntime:winapi_downlevel.obj
 0002:00005494       ??_C@_0BM@HCFOFFN@InitializeCriticalSectionEx@ 10070494     libvcruntime:winapi_downlevel.obj
 0002:000054bc       ??_7exception@std@@6B@     100704bc     libvcruntime:frame.obj
 0002:000054c8       ??_C@_0BC@EOODALEL@Unknown?5exception@ 100704c8     libvcruntime:frame.obj
 0002:000054e4       ??_7bad_exception@std@@6B@ 100704e4     libvcruntime:frame.obj
 0002:000054f0       ??_C@_0O@DPKOEFFH@bad?5exception@ 100704f0     libvcruntime:frame.obj
 0002:00005500       __pDestructExceptionObject 10070500     libvcruntime:ehhelpers.obj
 0002:0000552c       ??_C@_0CK@CFPGFGGO@Assertion?5failed?3?5?$CFTs?0?5file?5?$CFTs?0@ 1007052c     libucrt:assert.obj
 0002:00005560       ??_C@_1FE@LHBLIKM@?$AAA?$AAs?$AAs?$AAe?$AAr?$AAt?$AAi?$AAo?$AAn?$AA?5?$AAf?$AAa?$AAi?$AAl?$AAe?$AAd?$AA?3?$AA?5?$AA?$CF?$AAT?$AAs?$AA?0?$AA?5?$AAf?$AAi?$AAl?$AAe?$AA?5?$AA?$CF?$AAT?$AAs?$AA?0@ 10070560     libucrt:assert.obj
 0002:000055c4       ??_C@_0CF@GOGNBNAK@Microsoft?5Visual?5C?$CL?$CL?5Runtime?5Lib@ 100705c4     libucrt:assert.obj
 0002:000055f0       ??_C@_1EK@MBDPDCGA@?$AAM?$AAi?$AAc?$AAr?$AAo?$AAs?$AAo?$AAf?$AAt?$AA?5?$AAV?$AAi?$AAs?$AAu?$AAa?$AAl?$AA?5?$AAC?$AA?$CL?$AA?$CL?$AA?5?$AAR?$AAu?$AAn?$AAt?$AAi?$AAm?$AAe?$AA?5?$AAL?$AAi?$AAb@ 100705f0     libucrt:assert.obj
 0002:00005648       ??_C@_0BC@LAIDCHCH@Assertion?5failed?$CB?$AA@ 10070648     libucrt:assert.obj
 0002:00005660       ??_C@_1CE@OJBNHDMO@?$AAA?$AAs?$AAs?$AAe?$AAr?$AAt?$AAi?$AAo?$AAn?$AA?5?$AAf?$AAa?$AAi?$AAl?$AAe?$AAd?$AA?$CB?$AA?$AA@ 10070660     libucrt:assert.obj
 0002:0000568c       ??_C@_09KLGCKDOD@Program?3?5?$AA@ 1007068c     libucrt:assert.obj
 0002:00005698       ??_C@_1BE@PHKBBGE@?$AAP?$AAr?$AAo?$AAg?$AAr?$AAa?$AAm?$AA?3?$AA?5?$AA?$AA@ 10070698     libucrt:assert.obj
 0002:000056b0       ??_C@_06IGPBOHMJ@File?3?5?$AA@ 100706b0     libucrt:assert.obj
 0002:000056b8       ??_C@_1O@HEMHKNDC@?$AAF?$AAi?$AAl?$AAe?$AA?3?$AA?5?$AA?$AA@ 100706b8     libucrt:assert.obj
 0002:000056c8       ??_C@_06FIEBOLOH@Line?3?5?$AA@ 100706c8     libucrt:assert.obj
 0002:000056d0       ??_C@_1O@KCAFKHJE@?$AAL?$AAi?$AAn?$AAe?$AA?3?$AA?5?$AA?$AA@ 100706d0     libucrt:assert.obj
 0002:000056e0       ??_C@_0N@MEECIJGN@Expression?3?5?$AA@ 100706e0     libucrt:assert.obj
 0002:000056f0       ??_C@_1BK@PEDCIPMA@?$AAE?$AAx?$AAp?$AAr?$AAe?$AAs?$AAs?$AAi?$AAo?$AAn?$AA?3?$AA?5?$AA?$AA@ 100706f0     libucrt:assert.obj
 0002:00005710       ??_C@_0HA@OJHAGA@For?5information?5on?5how?5your?5prog@ 10070710     libucrt:assert.obj
 0002:00005798       ??_C@_1OA@EGMLFBHJ@?$AAF?$AAo?$AAr?$AA?5?$AAi?$AAn?$AAf?$AAo?$AAr?$AAm?$AAa?$AAt?$AAi?$AAo?$AAn?$AA?5?$AAo?$AAn?$AA?5?$AAh?$AAo?$AAw?$AA?5?$AAy?$AAo?$AAu?$AAr?$AA?5?$AAp?$AAr?$AAo?$AAg@ 10070798     libucrt:assert.obj
 0002:000058a4       ??_C@_0DN@EBBNMLME@?$CIPress?5Retry?5to?5debug?5the?5applic@ 100708a4     libucrt:assert.obj
 0002:000058f0       ??_C@_1HK@POCJMFGK@?$AA?$CI?$AAP?$AAr?$AAe?$AAs?$AAs?$AA?5?$AAR?$AAe?$AAt?$AAr?$AAy?$AA?5?$AAt?$AAo?$AA?5?$AAd?$AAe?$AAb?$AAu?$AAg?$AA?5?$AAt?$AAh?$AAe?$AA?5?$AAa?$AAp?$AAp?$AAl?$AAi?$AAc@ 100708f0     libucrt:assert.obj
 0002:00005984       ??_C@_03KHICJKCI@?4?4?4?$AA@ 10070984     libucrt:assert.obj
 0002:00005988       ??_C@_17LGKOMLJ@?$AA?4?$AA?4?$AA?4?$AA?$AA@ 10070988     libucrt:assert.obj
 0002:00005994       ??_C@_01EEMJAFIK@?6?$AA@   10070994     libucrt:assert.obj
 0002:00005998       ??_C@_13LBAGMAIH@?$AA?6?$AA?$AA@ 10070998     libucrt:assert.obj
 0002:0000599c       ??_C@_02PHMGELLB@?6?6?$AA@ 1007099c     libucrt:assert.obj
 0002:000059a0       ??_C@_15IABLJNFO@?$AA?6?$AA?6?$AA?$AA@ 100709a0     libucrt:assert.obj
 0002:000059a8       ??_C@_0BH@DNAGHKFM@?$DMprogram?5name?5unknown?$DO?$AA@ 100709a8     libucrt:assert.obj
 0002:000059c4       ??_C@_1CO@EAEJAADC@?$AA?$DM?$AAp?$AAr?$AAo?$AAg?$AAr?$AAa?$AAm?$AA?5?$AAn?$AAa?$AAm?$AAe?$AA?5?$AAu?$AAn?$AAk?$AAn?$AAo?$AAw?$AAn?$AA?$DO?$AA?$AA@ 100709c4     libucrt:assert.obj
 0002:000059fc       _RtlNtPathSeperatorString  100709fc     libucrt:exit.obj
 0002:00005a08       ??_C@_13FPGAJAPJ@?$AA?2?$AA?$AA@ 10070a08     libucrt:exit.obj
 0002:00005a0c       _RtlDosPathSeperatorsString 10070a0c     libucrt:exit.obj
 0002:00005a18       ??_C@_15MNCACJLI@?$AA?2?$AA?1?$AA?$AA@ 10070a18     libucrt:exit.obj
 0002:00005a20       _RtlAlternateDosPathSeperatorString 10070a20     libucrt:exit.obj
 0002:00005a2c       ??_C@_13CGOKJPIL@?$AA?1?$AA?$AA@ 10070a2c     libucrt:exit.obj
 0002:00005a30       ??_C@_1BI@BGOHAHKC@?$AAm?$AAs?$AAc?$AAo?$AAr?$AAe?$AAe?$AA?4?$AAd?$AAl?$AAl?$AA?$AA@ 10070a30     libucrt:exit.obj
 0002:00005a4c       ??_C@_0P@MIGLKIOC@CorExitProcess?$AA@ 10070a4c     libucrt:exit.obj
 0002:00005a60       _standard_lookup_table     10070a60     libucrt:output.obj
 0002:00005ad0       _format_validation_lookup_table 10070ad0     libucrt:output.obj
 0002:00005b40       ??_C@_1O@CEDCILHN@?$AA?$CI?$AAn?$AAu?$AAl?$AAl?$AA?$CJ?$AA?$AA@ 10070b40     libucrt:output.obj
 0002:00005b50       ??_C@_06OJHGLDPL@?$CInull?$CJ?$AA@ 10070b50     libucrt:output.obj
 0002:00005b58       __real@0000000000000000    10070b58     libucrt:ldexp.obj
 0002:00005c80       ??_C@_03KHJOGHMM@exp?$AA@  10070c80     libucrt:fpexcept.obj
 0002:00005c84       ??_C@_03JGHBODFD@pow?$AA@  10070c84     libucrt:fpexcept.obj
 0002:00005c88       ??_C@_03MGHMBJCF@log?$AA@  10070c88     libucrt:fpexcept.obj
 0002:00005c8c       ??_C@_05HGHHAHAP@log10?$AA@ 10070c8c     libucrt:fpexcept.obj
 0002:00005c94       ??_C@_04COOMCNPB@sinh?$AA@ 10070c94     libucrt:fpexcept.obj
 0002:00005c9c       ??_C@_04HPJJNFIM@cosh?$AA@ 10070c9c     libucrt:fpexcept.obj
 0002:00005ca4       ??_C@_04FJHINJAO@tanh?$AA@ 10070ca4     libucrt:fpexcept.obj
 0002:00005cac       ??_C@_04FIHNOPOL@asin?$AA@ 10070cac     libucrt:fpexcept.obj
 0002:00005cb4       ??_C@_04PDIFKINK@acos?$AA@ 10070cb4     libucrt:fpexcept.obj
 0002:00005cbc       ??_C@_04MLLJIGOK@atan?$AA@ 10070cbc     libucrt:fpexcept.obj
 0002:00005cc4       ??_C@_05KNGEOGJB@atan2?$AA@ 10070cc4     libucrt:fpexcept.obj
 0002:00005ccc       ??_C@_04EIAKFFMI@sqrt?$AA@ 10070ccc     libucrt:fpexcept.obj
 0002:00005cd4       ??_C@_03BLEJJJBH@sin?$AA@  10070cd4     libucrt:fpexcept.obj
 0002:00005cd8       ??_C@_03LALBNOCG@cos?$AA@  10070cd8     libucrt:fpexcept.obj
 0002:00005cdc       ??_C@_03IIINPABG@tan?$AA@  10070cdc     libucrt:fpexcept.obj
 0002:00005ce0       ??_C@_04GFPJNGEK@ceil?$AA@ 10070ce0     libucrt:fpexcept.obj
 0002:00005ce8       ??_C@_05PBJFFIGL@floor?$AA@ 10070ce8     libucrt:fpexcept.obj
 0002:00005cf0       ??_C@_04ODHECPBC@fabs?$AA@ 10070cf0     libucrt:fpexcept.obj
 0002:00005cf8       ??_C@_04EHEDPDJG@modf?$AA@ 10070cf8     libucrt:fpexcept.obj
 0002:00005d00       ??_C@_05CEJMAHNP@ldexp?$AA@ 10070d00     libucrt:fpexcept.obj
 0002:00005d08       ??_C@_05KBKMEMPO@_cabs?$AA@ 10070d08     libucrt:fpexcept.obj
 0002:00005d10       ??_C@_06MEIMCGCF@_hypot?$AA@ 10070d10     libucrt:fpexcept.obj
 0002:00005d18       ??_C@_04KEPJIHGP@fmod?$AA@ 10070d18     libucrt:fpexcept.obj
 0002:00005d20       ??_C@_05GKKHEGJL@frexp?$AA@ 10070d20     libucrt:fpexcept.obj
 0002:00005d28       ??_C@_03MJLDFKDL@_y0?$AA@  10070d28     libucrt:fpexcept.obj
 0002:00005d2c       ??_C@_03NAKIGLHK@_y1?$AA@  10070d2c     libucrt:fpexcept.obj
 0002:00005d30       ??_C@_03ONILCKOB@_yn?$AA@  10070d30     libucrt:fpexcept.obj
 0002:00005d34       ??_C@_05JGDBENOH@_logb?$AA@ 10070d34     libucrt:fpexcept.obj
 0002:00005d3c       ??_C@_0L@KDOEJCKC@_nextafter?$AA@ 10070d3c     libucrt:fpexcept.obj
 0002:00005d50       ___acrt_exception_action_table 10070d50     libucrt:exception_filter.obj
 0002:00005dfc       ___acrt_signal_action_table_count 10070dfc     libucrt:exception_filter.obj
 0002:00005e00       ___acrt_signal_action_table_size 10070e00     libucrt:exception_filter.obj
 0002:00005e04       ___acrt_signal_action_first_fpe_index 10070e04     libucrt:exception_filter.obj
 0002:00005e08       ___acrt_signal_action_fpe_count 10070e08     libucrt:exception_filter.obj
 0002:00005eac       __Fenv1                    10070eac     libucrt:atox.obj
 0002:00005eb8       ??_C@_1DE@JNGNBFGO@?$AAR?$AAu?$AAn?$AAt?$AAi?$AAm?$AAe?$AA?5?$AAE?$AAr?$AAr?$AAo?$AAr?$AA?$CB?$AA?6?$AA?6?$AAP?$AAr?$AAo?$AAg?$AAr?$AAa?$AAm?$AA?3?$AA?5?$AA?$AA@ 10070eb8     libucrt:report_runtime_error.obj
 0002:00006100       ??_C@_1EA@JGEFHKEI@?$AAa?$AAp?$AAi?$AA?9?$AAm?$AAs?$AA?9?$AAw?$AAi?$AAn?$AA?9?$AAc?$AAo?$AAr?$AAe?$AA?9?$AAd?$AAa?$AAt?$AAe?$AAt?$AAi?$AAm?$AAe?$AA?9?$AAl?$AA1?$AA?9?$AA1?$AA?9?$AA1?$AA?$AA@ 10071100     libucrt:winapi_thunks.obj
 0002:0000614c       ??_C@_1DM@KHCHBNEB@?$AAa?$AAp?$AAi?$AA?9?$AAm?$AAs?$AA?9?$AAw?$AAi?$AAn?$AA?9?$AAc?$AAo?$AAr?$AAe?$AA?9?$AAf?$AAi?$AAb?$AAe?$AAr?$AAs?$AA?9?$AAl?$AA1?$AA?9?$AA1?$AA?9?$AA1?$AA?$AA@ 1007114c     libucrt:winapi_thunks.obj
 0002:00006194       ??_C@_1DI@IJCEHOCB@?$AAa?$AAp?$AAi?$AA?9?$AAm?$AAs?$AA?9?$AAw?$AAi?$AAn?$AA?9?$AAc?$AAo?$AAr?$AAe?$AA?9?$AAf?$AAi?$AAl?$AAe?$AA?9?$AAl?$AA1?$AA?9?$AA2?$AA?9?$AA2?$AA?$AA@ 10071194     libucrt:winapi_thunks.obj
 0002:000061d8       ??_C@_1EI@MPIAOHOC@?$AAa?$AAp?$AAi?$AA?9?$AAm?$AAs?$AA?9?$AAw?$AAi?$AAn?$AA?9?$AAc?$AAo?$AAr?$AAe?$AA?9?$AAl?$AAo?$AAc?$AAa?$AAl?$AAi?$AAz?$AAa?$AAt?$AAi?$AAo?$AAn?$AA?9?$AAl?$AA1?$AA?9@ 100711d8     libucrt:winapi_thunks.obj
 0002:00006230       ??_C@_1FK@FPHCKFIE@?$AAa?$AAp?$AAi?$AA?9?$AAm?$AAs?$AA?9?$AAw?$AAi?$AAn?$AA?9?$AAc?$AAo?$AAr?$AAe?$AA?9?$AAl?$AAo?$AAc?$AAa?$AAl?$AAi?$AAz?$AAa?$AAt?$AAi?$AAo?$AAn?$AA?9?$AAo?$AAb?$AAs@ 10071230     libucrt:winapi_thunks.obj
 0002:000062a0       ??_C@_1EM@DILCGIIO@?$AAa?$AAp?$AAi?$AA?9?$AAm?$AAs?$AA?9?$AAw?$AAi?$AAn?$AA?9?$AAc?$AAo?$AAr?$AAe?$AA?9?$AAp?$AAr?$AAo?$AAc?$AAe?$AAs?$AAs?$AAt?$AAh?$AAr?$AAe?$AAa?$AAd?$AAs?$AA?9?$AAl@ 100712a0     libucrt:winapi_thunks.obj
 0002:000062fc       ??_C@_1DM@LNCGDDPN@?$AAa?$AAp?$AAi?$AA?9?$AAm?$AAs?$AA?9?$AAw?$AAi?$AAn?$AA?9?$AAc?$AAo?$AAr?$AAe?$AA?9?$AAs?$AAt?$AAr?$AAi?$AAn?$AAg?$AA?9?$AAl?$AA1?$AA?9?$AA1?$AA?9?$AA0?$AA?$AA@ 100712fc     libucrt:winapi_thunks.obj
 0002:00006344       ??_C@_1DK@LPPGFMPP@?$AAa?$AAp?$AAi?$AA?9?$AAm?$AAs?$AA?9?$AAw?$AAi?$AAn?$AA?9?$AAc?$AAo?$AAr?$AAe?$AA?9?$AAs?$AAy?$AAn?$AAc?$AAh?$AA?9?$AAl?$AA1?$AA?9?$AA2?$AA?9?$AA0?$AA?$AA@ 10071344     libucrt:winapi_thunks.obj
 0002:0000638c       ??_C@_1DO@FPAPJEMD@?$AAa?$AAp?$AAi?$AA?9?$AAm?$AAs?$AA?9?$AAw?$AAi?$AAn?$AA?9?$AAc?$AAo?$AAr?$AAe?$AA?9?$AAs?$AAy?$AAs?$AAi?$AAn?$AAf?$AAo?$AA?9?$AAl?$AA1?$AA?9?$AA2?$AA?9?$AA1?$AA?$AA@ 1007138c     libucrt:winapi_thunks.obj
 0002:000063d8       ??_C@_1DK@NDHNAHIO@?$AAa?$AAp?$AAi?$AA?9?$AAm?$AAs?$AA?9?$AAw?$AAi?$AAn?$AA?9?$AAc?$AAo?$AAr?$AAe?$AA?9?$AAw?$AAi?$AAn?$AAr?$AAt?$AA?9?$AAl?$AA1?$AA?9?$AA1?$AA?9?$AA0?$AA?$AA@ 100713d8     libucrt:winapi_thunks.obj
 0002:00006420       ??_C@_1DM@KGHDGBCM@?$AAa?$AAp?$AAi?$AA?9?$AAm?$AAs?$AA?9?$AAw?$AAi?$AAn?$AA?9?$AAc?$AAo?$AAr?$AAe?$AA?9?$AAx?$AAs?$AAt?$AAa?$AAt?$AAe?$AA?9?$AAl?$AA2?$AA?9?$AA1?$AA?9?$AA0?$AA?$AA@ 10071420     libucrt:winapi_thunks.obj
 0002:00006468       ??_C@_1EO@IJIOEFOH@?$AAa?$AAp?$AAi?$AA?9?$AAm?$AAs?$AA?9?$AAw?$AAi?$AAn?$AA?9?$AAr?$AAt?$AAc?$AAo?$AAr?$AAe?$AA?9?$AAn?$AAt?$AAu?$AAs?$AAe?$AAr?$AA?9?$AAw?$AAi?$AAn?$AAd?$AAo?$AAw?$AA?9@ 10071468     libucrt:winapi_thunks.obj
 0002:000064c8       ??_C@_1FG@HHGEKANL@?$AAa?$AAp?$AAi?$AA?9?$AAm?$AAs?$AA?9?$AAw?$AAi?$AAn?$AA?9?$AAs?$AAe?$AAc?$AAu?$AAr?$AAi?$AAt?$AAy?$AA?9?$AAs?$AAy?$AAs?$AAt?$AAe?$AAm?$AAf?$AAu?$AAn?$AAc?$AAt?$AAi@ 100714c8     libucrt:winapi_thunks.obj
 0002:00006530       ??_C@_1EG@DBIOJECG@?$AAe?$AAx?$AAt?$AA?9?$AAm?$AAs?$AA?9?$AAw?$AAi?$AAn?$AA?9?$AAn?$AAt?$AAu?$AAs?$AAe?$AAr?$AA?9?$AAd?$AAi?$AAa?$AAl?$AAo?$AAg?$AAb?$AAo?$AAx?$AA?9?$AAl?$AA1?$AA?9?$AA1@ 10071530     libucrt:winapi_thunks.obj
 0002:00006588       ??_C@_1EO@FIHMJCLF@?$AAe?$AAx?$AAt?$AA?9?$AAm?$AAs?$AA?9?$AAw?$AAi?$AAn?$AA?9?$AAn?$AAt?$AAu?$AAs?$AAe?$AAr?$AA?9?$AAw?$AAi?$AAn?$AAd?$AAo?$AAw?$AAs?$AAt?$AAa?$AAt?$AAi?$AAo?$AAn?$AA?9@ 10071588     libucrt:winapi_thunks.obj
 0002:000065e8       ??_C@_1BC@DNHGCMLG@?$AAa?$AAd?$AAv?$AAa?$AAp?$AAi?$AA3?$AA2?$AA?$AA@ 100715e8     libucrt:winapi_thunks.obj
 0002:00006600       ??_C@_1BC@GDMECMAK@?$AAk?$AAe?$AAr?$AAn?$AAe?$AAl?$AA3?$AA2?$AA?$AA@ 10071600     libucrt:winapi_thunks.obj
 0002:00006618       ??_C@_1M@OAIMIKLP@?$AAn?$AAt?$AAd?$AAl?$AAl?$AA?$AA@ 10071618     libucrt:winapi_thunks.obj
 0002:00006628       ??_C@_1EG@DPGNFKGC@?$AAa?$AAp?$AAi?$AA?9?$AAm?$AAs?$AA?9?$AAw?$AAi?$AAn?$AA?9?$AAa?$AAp?$AAp?$AAm?$AAo?$AAd?$AAe?$AAl?$AA?9?$AAr?$AAu?$AAn?$AAt?$AAi?$AAm?$AAe?$AA?9?$AAl?$AA1?$AA?9?$AA1@ 10071628     libucrt:winapi_thunks.obj
 0002:0000667c       ??_C@_1O@BCCLBEOE@?$AAu?$AAs?$AAe?$AAr?$AA3?$AA2?$AA?$AA@ 1007167c     libucrt:winapi_thunks.obj
 0002:0000668c       ??_C@_1BA@PFFKHIOG@?$AAa?$AAp?$AAi?$AA?9?$AAm?$AAs?$AA?9?$AA?$AA@ 1007168c     libucrt:winapi_thunks.obj
 0002:000066a0       ??_C@_1BA@IAIFMGEF@?$AAe?$AAx?$AAt?$AA?9?$AAm?$AAs?$AA?9?$AA?$AA@ 100716a0     libucrt:winapi_thunks.obj
 0002:000066b8       ??_C@_0BA@FHFNEAED@AreFileApisANSI?$AA@ 100716b8     libucrt:winapi_thunks.obj
 0002:000066d8       ??_C@_0BA@IHGNDAEB@CompareStringEx?$AA@ 100716d8     libucrt:winapi_thunks.obj
 0002:000066f8       ??_C@_0BE@LJANKFHF@EnumSystemLocalesEx?$AA@ 100716f8     libucrt:winapi_thunks.obj
 0002:0000671c       ??_C@_08KNHFBNJ@FlsAlloc?$AA@ 1007171c     libucrt:winapi_thunks.obj
 0002:00006734       ??_C@_07PEJMOBNF@FlsFree?$AA@ 10071734     libucrt:winapi_thunks.obj
 0002:0000674c       ??_C@_0M@GDNOONDI@FlsGetValue?$AA@ 1007174c     libucrt:winapi_thunks.obj
 0002:00006768       ??_C@_0M@JCPCPOEF@FlsSetValue?$AA@ 10071768     libucrt:winapi_thunks.obj
 0002:00006784       ??_C@_0BA@HNOPNCHB@GetActiveWindow?$AA@ 10071784     libucrt:winapi_thunks.obj
 0002:000067a4       ??_C@_0BA@EPCJIIPD@GetDateFormatEx?$AA@ 100717a4     libucrt:winapi_thunks.obj
 0002:000067c4       ??_C@_0BJ@DIBIJBHA@GetEnabledXStateFeatures?$AA@ 100717c4     libucrt:winapi_thunks.obj
 0002:000067f0       ??_C@_0BD@HHGDFDBJ@GetLastActivePopup?$AA@ 100717f0     libucrt:winapi_thunks.obj
 0002:00006814       ??_C@_0BA@ONOKGCMP@GetLocaleInfoEx?$AA@ 10071814     libucrt:winapi_thunks.obj
 0002:00006834       ??_C@_0BI@DFKBFLJE@GetProcessWindowStation?$AA@ 10071834     libucrt:winapi_thunks.obj
 0002:00006854       ??_C@_0BP@FPNJPEJC@GetSystemTimePreciseAsFileTime?$AA@ 10071854     libucrt:winapi_thunks.obj
 0002:00006888       ??_C@_0BA@CIJJKCJJ@GetTimeFormatEx?$AA@ 10071888     libucrt:winapi_thunks.obj
 0002:000068a8       ??_C@_0BJ@PBCCBIPI@GetUserDefaultLocaleName?$AA@ 100718a8     libucrt:winapi_thunks.obj
 0002:000068d4       ??_C@_0BK@DEKFELLI@GetUserObjectInformationW?$AA@ 100718d4     libucrt:winapi_thunks.obj
 0002:00006900       ??_C@_0BG@IKLDMBLM@GetXStateFeaturesMask?$AA@ 10071900     libucrt:winapi_thunks.obj
 0002:00006928       ??_C@_0BM@HCFOFFN@InitializeCriticalSectionEx?$AA@ 10071928     libucrt:winapi_thunks.obj
 0002:00006958       ??_C@_0BC@CELBKLLA@IsValidLocaleName?$AA@ 10071958     libucrt:winapi_thunks.obj
 0002:0000697c       ??_C@_0O@KKBNKAPF@LCMapStringEx?$AA@ 1007197c     libucrt:winapi_thunks.obj
 0002:00006998       ??_C@_0BB@CDHDDLLP@LCIDToLocaleName?$AA@ 10071998     libucrt:winapi_thunks.obj
 0002:000069b8       ??_C@_0BB@HBDEELFH@LocaleNameToLCID?$AA@ 100719b8     libucrt:winapi_thunks.obj
 0002:000069d8       ??_C@_0BE@KINNKFDA@LocateXStateFeature?$AA@ 100719d8     libucrt:winapi_thunks.obj
 0002:000069fc       ??_C@_0M@CHKKJDAI@MessageBoxA?$AA@ 100719fc     libucrt:winapi_thunks.obj
 0002:00006a18       ??_C@_0M@DLDCCGNP@MessageBoxW?$AA@ 10071a18     libucrt:winapi_thunks.obj
 0002:00006a2c       ??_C@_0N@PPOMPGGK@RoInitialize?$AA@ 10071a2c     libucrt:winapi_thunks.obj
 0002:00006a40       ??_C@_0P@LLFHBIJD@RoUninitialize?$AA@ 10071a40     libucrt:winapi_thunks.obj
 0002:00006a58       ??_C@_0CF@OJOFEIGO@AppPolicyGetProcessTerminationMe@ 10071a58     libucrt:winapi_thunks.obj
 0002:00006a88       ??_C@_0CF@NNDFDCOC@AppPolicyGetThreadInitialization@ 10071a88     libucrt:winapi_thunks.obj
 0002:00006ab8       ??_C@_0CE@OICFMIKE@AppPolicyGetShowDeveloperDiagnos@ 10071ab8     libucrt:winapi_thunks.obj
 0002:00006ae8       ??_C@_0BL@ODDJNEDA@AppPolicyGetWindowingModel?$AA@ 10071ae8     libucrt:winapi_thunks.obj
 0002:00006b14       ??_C@_0BI@BKLFFAPO@SetThreadStackGuarantee?$AA@ 10071b14     libucrt:winapi_thunks.obj
 0002:00006b3c       ??_C@_0BC@JEAENNKH@SystemFunction036?$AA@ 10071b3c     libucrt:winapi_thunks.obj
 0002:00006b54       ?ccs@?1???$__acrt_stdio_parse_mode@D@@YA?AU__acrt_stdio_stream_mode@@QBD@Z@4QBDB 10071b54     libucrt:openfile.obj
 0002:00006b58       ?utf8_encoding@?1???$__acrt_stdio_parse_mode@D@@YA?AU__acrt_stdio_stream_mode@@QBD@Z@4QBDB 10071b58     libucrt:openfile.obj
 0002:00006b60       ?utf16_encoding@?1???$__acrt_stdio_parse_mode@D@@YA?AU__acrt_stdio_stream_mode@@QBD@Z@4QBDB 10071b60     libucrt:openfile.obj
 0002:00006b6c       ?unicode_encoding@?1???$__acrt_stdio_parse_mode@D@@YA?AU__acrt_stdio_stream_mode@@QBD@Z@4QBDB 10071b6c     libucrt:openfile.obj
 0002:00006b74       ?ccs@?1???$__acrt_stdio_parse_mode@_W@@YA?AU__acrt_stdio_stream_mode@@QB_W@Z@4QB_WB 10071b74     libucrt:openfile.obj
 0002:00006b7c       ?utf8_encoding@?1???$__acrt_stdio_parse_mode@_W@@YA?AU__acrt_stdio_stream_mode@@QB_W@Z@4QB_WB 10071b7c     libucrt:openfile.obj
 0002:00006b88       ?utf16_encoding@?1???$__acrt_stdio_parse_mode@_W@@YA?AU__acrt_stdio_stream_mode@@QB_W@Z@4QB_WB 10071b88     libucrt:openfile.obj
 0002:00006b9c       ?unicode_encoding@?1???$__acrt_stdio_parse_mode@_W@@YA?AU__acrt_stdio_stream_mode@@QB_W@Z@4QB_WB 10071b9c     libucrt:openfile.obj
 0002:00006c48       ___lc_category             10071c48     libucrt:wsetlocale.obj
 0002:00006ca0       ??_C@_1O@GIFLHMA@?$AAL?$AAC?$AA_?$AAA?$AAL?$AAL?$AA?$AA@ 10071ca0     libucrt:wsetlocale.obj
 0002:00006cb0       ??_C@_1BG@PPOMIBNJ@?$AAL?$AAC?$AA_?$AAC?$AAO?$AAL?$AAL?$AAA?$AAT?$AAE?$AA?$AA@ 10071cb0     libucrt:wsetlocale.obj
 0002:00006ccc       ??_C@_1BC@FFJGAPJM@?$AAL?$AAC?$AA_?$AAC?$AAT?$AAY?$AAP?$AAE?$AA?$AA@ 10071ccc     libucrt:wsetlocale.obj
 0002:00006ce4       ??_C@_1BI@PCKFNJFB@?$AAL?$AAC?$AA_?$AAM?$AAO?$AAN?$AAE?$AAT?$AAA?$AAR?$AAY?$AA?$AA@ 10071ce4     libucrt:wsetlocale.obj
 0002:00006d00       ??_C@_1BG@ENIEDKID@?$AAL?$AAC?$AA_?$AAN?$AAU?$AAM?$AAE?$AAR?$AAI?$AAC?$AA?$AA@ 10071d00     libucrt:wsetlocale.obj
 0002:00006d1c       ??_C@_1BA@HAAOMIIG@?$AAL?$AAC?$AA_?$AAT?$AAI?$AAM?$AAE?$AA?$AA@ 10071d1c     libucrt:wsetlocale.obj
 0002:00006d30       ??_C@_15NBPDDFIP@?$AA?$DN?$AA?$DL?$AA?$AA@ 10071d30     libucrt:wsetlocale.obj
 0002:00006d38       ??_C@_13PJJBFPED@?$AA?$DL?$AA?$AA@ 10071d38     libucrt:wsetlocale.obj
 0002:00006d3c       ??_C@_13NMPKAAJP@?$AA?$DN?$AA?$AA@ 10071d3c     libucrt:wsetlocale.obj
 0002:00006d40       ??_C@_13FHBKNHDA@?$AAC?$AA?$AA@ 10071d40     libucrt:wsetlocale.obj
 0002:00006d44       ??_C@_19MPDNHKDG@?$AAu?$AAt?$AAf?$AA8?$AA?$AA@ 10071d44     libucrt:wsetlocale.obj
 0002:00006d50       ??_C@_1M@FPEIIFAM@?$AAu?$AAt?$AAf?$AA?9?$AA8?$AA?$AA@ 10071d50     libucrt:wsetlocale.obj
 0002:00006d60       ??_C@_17MBJJLFDM@?$AA_?$AA?4?$AA?0?$AA?$AA@ 10071d60     libucrt:wsetlocale.obj
 0002:00006d6c       ??_C@_13ENNFDPBH@?$AA_?$AA?$AA@ 10071d6c     libucrt:wsetlocale.obj
 0002:00006d70       ??_C@_13JOFGPIOO@?$AA?4?$AA?$AA@ 10071d70     libucrt:wsetlocale.obj
 0002:00006d78       ___lc_time_c               10071d78     libucrt:nlsdata.obj
 0002:00006f24       ??_C@_03KOEHGMDN@Sun?$AA@  10071f24     libucrt:nlsdata.obj
 0002:00006f28       ??_C@_03PDAGKDH@Mon?$AA@   10071f28     libucrt:nlsdata.obj
 0002:00006f2c       ??_C@_03NAGEINEP@Tue?$AA@  10071f2c     libucrt:nlsdata.obj
 0002:00006f30       ??_C@_03MHOMLAJA@Wed?$AA@  10071f30     libucrt:nlsdata.obj
 0002:00006f34       ??_C@_03IOFIKPDN@Thu?$AA@  10071f34     libucrt:nlsdata.obj
 0002:00006f38       ??_C@_03IDIOELNC@Fri?$AA@  10071f38     libucrt:nlsdata.obj
 0002:00006f3c       ??_C@_03FEFJNEK@Sat?$AA@   10071f3c     libucrt:nlsdata.obj
 0002:00006f40       ??_C@_06OOPIFAJ@Sunday?$AA@ 10071f40     libucrt:nlsdata.obj
 0002:00006f48       ??_C@_06JLEDEDGH@Monday?$AA@ 10071f48     libucrt:nlsdata.obj
 0002:00006f50       ??_C@_07BAAGCFCM@Tuesday?$AA@ 10071f50     libucrt:nlsdata.obj
 0002:00006f5c       ??_C@_09DLIGFAKA@Wednesday?$AA@ 10071f5c     libucrt:nlsdata.obj
 0002:00006f68       ??_C@_08HACCIKIA@Thursday?$AA@ 10071f68     libucrt:nlsdata.obj
 0002:00006f74       ??_C@_06JECMNKMI@Friday?$AA@ 10071f74     libucrt:nlsdata.obj
 0002:00006f7c       ??_C@_08INBOOONO@Saturday?$AA@ 10071f7c     libucrt:nlsdata.obj
 0002:00006f88       ??_C@_03JIHJHPIE@Jan?$AA@  10071f88     libucrt:nlsdata.obj
 0002:00006f8c       ??_C@_03HJBDCHOM@Feb?$AA@  10071f8c     libucrt:nlsdata.obj
 0002:00006f90       ??_C@_03ODNJBKGA@Mar?$AA@  10071f90     libucrt:nlsdata.obj
 0002:00006f94       ??_C@_03LEOLGMJP@Apr?$AA@  10071f94     libucrt:nlsdata.obj
 0002:00006f98       ??_C@_03CNMDKL@May?$AA@    10071f98     libucrt:nlsdata.obj
 0002:00006f9c       ??_C@_03IDFGHECI@Jun?$AA@  10071f9c     libucrt:nlsdata.obj
 0002:00006fa0       ??_C@_03LBGABGKK@Jul?$AA@  10071fa0     libucrt:nlsdata.obj
 0002:00006fa4       ??_C@_03IFJFEIGA@Aug?$AA@  10071fa4     libucrt:nlsdata.obj
 0002:00006fa8       ??_C@_03GGCAPAJC@Sep?$AA@  10071fa8     libucrt:nlsdata.obj
 0002:00006fac       ??_C@_03BMAOKBAD@Oct?$AA@  10071fac     libucrt:nlsdata.obj
 0002:00006fb0       ??_C@_03JPJOFNIA@Nov?$AA@  10071fb0     libucrt:nlsdata.obj
 0002:00006fb4       ??_C@_03MKABNOCG@Dec?$AA@  10071fb4     libucrt:nlsdata.obj
 0002:00006fb8       ??_C@_07CGJPFGJA@January?$AA@ 10071fb8     libucrt:nlsdata.obj
 0002:00006fc4       ??_C@_08GNJGEPFN@February?$AA@ 10071fc4     libucrt:nlsdata.obj
 0002:00006fd0       ??_C@_05HPCKOFNC@March?$AA@ 10071fd0     libucrt:nlsdata.obj
 0002:00006fd8       ??_C@_05DMJDNLEJ@April?$AA@ 10071fd8     libucrt:nlsdata.obj
 0002:00006fe0       ??_C@_04CNLMGBGM@June?$AA@ 10071fe0     libucrt:nlsdata.obj
 0002:00006fe8       ??_C@_04MIEPOIFP@July?$AA@ 10071fe8     libucrt:nlsdata.obj
 0002:00006ff0       ??_C@_06LBBHFDDG@August?$AA@ 10071ff0     libucrt:nlsdata.obj
 0002:00006ff8       ??_C@_09BHHEALKD@September?$AA@ 10071ff8     libucrt:nlsdata.obj
 0002:00007004       ??_C@_07JJNFCEND@October?$AA@ 10072004     libucrt:nlsdata.obj
 0002:00007010       ??_C@_08HCHEGEOA@November?$AA@ 10072010     libucrt:nlsdata.obj
 0002:0000701c       ??_C@_08EDHMEBNP@December?$AA@ 1007201c     libucrt:nlsdata.obj
 0002:00007028       ??_C@_02DEDBPAFC@AM?$AA@   10072028     libucrt:nlsdata.obj
 0002:0000702c       ??_C@_02CJNFDJBF@PM?$AA@   1007202c     libucrt:nlsdata.obj
 0002:00007030       ??_C@_08BPBNCDIB@MM?1dd?1yy?$AA@ 10072030     libucrt:nlsdata.obj
 0002:0000703c       ??_C@_0BE@CKGJFCPC@dddd?0?5MMMM?5dd?0?5yyyy?$AA@ 1007203c     libucrt:nlsdata.obj
 0002:00007054       ??_C@_08JCCMCCIL@HH?3mm?3ss?$AA@ 10072054     libucrt:nlsdata.obj
 0002:00007060       ??_C@_17MBGCMIPB@?$AAS?$AAu?$AAn?$AA?$AA@ 10072060     libucrt:nlsdata.obj
 0002:0000706c       ??_C@_17KBOMKBF@?$AAM?$AAo?$AAn?$AA?$AA@ 1007206c     libucrt:nlsdata.obj
 0002:00007078       ??_C@_17BMKGEGOJ@?$AAT?$AAu?$AAe?$AA?$AA@ 10072078     libucrt:nlsdata.obj
 0002:00007084       ??_C@_17CJEDCEPE@?$AAW?$AAe?$AAd?$AA?$AA@ 10072084     libucrt:nlsdata.obj
 0002:00007090       ??_C@_17PDPHAADD@?$AAT?$AAh?$AAu?$AA?$AA@ 10072090     libucrt:nlsdata.obj
 0002:0000709c       ??_C@_17HFOLPPLP@?$AAF?$AAr?$AAi?$AA?$AA@ 1007209c     libucrt:nlsdata.obj
 0002:000070a8       ??_C@_17GGIBDPIH@?$AAS?$AAa?$AAt?$AA?$AA@ 100720a8     libucrt:nlsdata.obj
 0002:000070b4       ??_C@_1O@IHNHDHPB@?$AAS?$AAu?$AAn?$AAd?$AAa?$AAy?$AA?$AA@ 100720b4     libucrt:nlsdata.obj
 0002:000070c4       ??_C@_1O@MMNBFLIA@?$AAM?$AAo?$AAn?$AAd?$AAa?$AAy?$AA?$AA@ 100720c4     libucrt:nlsdata.obj
 0002:000070d4       ??_C@_1BA@ENFBFFEK@?$AAT?$AAu?$AAe?$AAs?$AAd?$AAa?$AAy?$AA?$AA@ 100720d4     libucrt:nlsdata.obj
 0002:000070e8       ??_C@_1BE@EBOGMDOH@?$AAW?$AAe?$AAd?$AAn?$AAe?$AAs?$AAd?$AAa?$AAy?$AA?$AA@ 100720e8     libucrt:nlsdata.obj
 0002:00007100       ??_C@_1BC@HHMNLIHE@?$AAT?$AAh?$AAu?$AAr?$AAs?$AAd?$AAa?$AAy?$AA?$AA@ 10072100     libucrt:nlsdata.obj
 0002:00007118       ??_C@_1O@PDICJHAG@?$AAF?$AAr?$AAi?$AAd?$AAa?$AAy?$AA?$AA@ 10072118     libucrt:nlsdata.obj
 0002:00007128       ??_C@_1BC@ENMNNPAJ@?$AAS?$AAa?$AAt?$AAu?$AAr?$AAd?$AAa?$AAy?$AA?$AA@ 10072128     libucrt:nlsdata.obj
 0002:00007140       ??_C@_17DKNBKCHM@?$AAJ?$AAa?$AAn?$AA?$AA@ 10072140     libucrt:nlsdata.obj
 0002:0000714c       ??_C@_17LMDJEKJN@?$AAF?$AAe?$AAb?$AA?$AA@ 1007214c     libucrt:nlsdata.obj
 0002:00007158       ??_C@_17CKNLEDEC@?$AAM?$AAa?$AAr?$AA?$AA@ 10072158     libucrt:nlsdata.obj
 0002:00007164       ??_C@_17LFPOIHDD@?$AAA?$AAp?$AAr?$AA?$AA@ 10072164     libucrt:nlsdata.obj
 0002:00007170       ??_C@_17PNNKMEED@?$AAM?$AAa?$AAy?$AA?$AA@ 10072170     libucrt:nlsdata.obj
 0002:0000717c       ??_C@_17KCJGOCPB@?$AAJ?$AAu?$AAn?$AA?$AA@ 1007217c     libucrt:nlsdata.obj
 0002:00007188       ??_C@_17IJPCKHK@?$AAJ?$AAu?$AAl?$AA?$AA@ 10072188     libucrt:nlsdata.obj
 0002:00007194       ??_C@_17ICPELBCN@?$AAA?$AAu?$AAg?$AA?$AA@ 10072194     libucrt:nlsdata.obj
 0002:000071a0       ??_C@_17HCHCOKMG@?$AAS?$AAe?$AAp?$AA?$AA@ 100721a0     libucrt:nlsdata.obj
 0002:000071ac       ??_C@_17FNLKOI@?$AAO?$AAc?$AAt?$AA?$AA@ 100721ac     libucrt:nlsdata.obj
 0002:000071b8       ??_C@_17BBDMLCIG@?$AAN?$AAo?$AAv?$AA?$AA@ 100721b8     libucrt:nlsdata.obj
 0002:000071c4       ??_C@_17EGKACKIF@?$AAD?$AAe?$AAc?$AA?$AA@ 100721c4     libucrt:nlsdata.obj
 0002:000071d0       ??_C@_1BA@EFMEIEBA@?$AAJ?$AAa?$AAn?$AAu?$AAa?$AAr?$AAy?$AA?$AA@ 100721d0     libucrt:nlsdata.obj
 0002:000071e4       ??_C@_1BC@JGDDFFAM@?$AAF?$AAe?$AAb?$AAr?$AAu?$AAa?$AAr?$AAy?$AA?$AA@ 100721e4     libucrt:nlsdata.obj
 0002:000071fc       ??_C@_1M@IKEENEDF@?$AAM?$AAa?$AAr?$AAc?$AAh?$AA?$AA@ 100721fc     libucrt:nlsdata.obj
 0002:0000720c       ??_C@_1M@GJNLMHFD@?$AAA?$AAp?$AAr?$AAi?$AAl?$AA?$AA@ 1007220c     libucrt:nlsdata.obj
 0002:0000721c       ??_C@_19EPFLPGAP@?$AAJ?$AAu?$AAn?$AAe?$AA?$AA@ 1007221c     libucrt:nlsdata.obj
 0002:00007228       ??_C@_19BIFMLPCD@?$AAJ?$AAu?$AAl?$AAy?$AA?$AA@ 10072228     libucrt:nlsdata.obj
 0002:00007234       ??_C@_1O@PAHLKOAC@?$AAA?$AAu?$AAg?$AAu?$AAs?$AAt?$AA?$AA@ 10072234     libucrt:nlsdata.obj
 0002:00007244       ??_C@_1BE@DKAAMBJL@?$AAS?$AAe?$AAp?$AAt?$AAe?$AAm?$AAb?$AAe?$AAr?$AA?$AA@ 10072244     libucrt:nlsdata.obj
 0002:0000725c       ??_C@_1BA@EPANDLNG@?$AAO?$AAc?$AAt?$AAo?$AAb?$AAe?$AAr?$AA?$AA@ 1007225c     libucrt:nlsdata.obj
 0002:00007270       ??_C@_1BC@BGLIFPF@?$AAN?$AAo?$AAv?$AAe?$AAm?$AAb?$AAe?$AAr?$AA?$AA@ 10072270     libucrt:nlsdata.obj
 0002:00007288       ??_C@_1BC@FEMKIFH@?$AAD?$AAe?$AAc?$AAe?$AAm?$AAb?$AAe?$AAr?$AA?$AA@ 10072288     libucrt:nlsdata.obj
 0002:000072a0       ??_C@_15ODEHAHHF@?$AAA?$AAM?$AA?$AA@ 100722a0     libucrt:nlsdata.obj
 0002:000072a8       ??_C@_15CLMNNGEL@?$AAP?$AAM?$AA?$AA@ 100722a8     libucrt:nlsdata.obj
 0002:000072b0       ??_C@_1BC@IEBCMHCM@?$AAM?$AAM?$AA?1?$AAd?$AAd?$AA?1?$AAy?$AAy?$AA?$AA@ 100722b0     libucrt:nlsdata.obj
 0002:000072c8       ??_C@_1CI@KNAKOEBC@?$AAd?$AAd?$AAd?$AAd?$AA?0?$AA?5?$AAM?$AAM?$AAM?$AAM?$AA?5?$AAd?$AAd?$AA?0?$AA?5?$AAy?$AAy?$AAy?$AAy?$AA?$AA@ 100722c8     libucrt:nlsdata.obj
 0002:000072f8       ??_C@_1BC@GDGBMEMK@?$AAH?$AAH?$AA?3?$AAm?$AAm?$AA?3?$AAs?$AAs?$AA?$AA@ 100722f8     libucrt:nlsdata.obj
 0002:00007310       ??_C@_1M@BMHNFIME@?$AAe?$AAn?$AA?9?$AAU?$AAS?$AA?$AA@ 10072310     libucrt:nlsdata.obj
 0002:00007320       ??_C@_03OEIAHPBN@INF?$AA@  10072320     libucrt:cvt.obj
 0002:00007324       ??_C@_03OJHLLCGB@inf?$AA@  10072324     libucrt:cvt.obj
 0002:00007328       ??_C@_03LKNCIKJB@NAN?$AA@  10072328     libucrt:cvt.obj
 0002:0000732c       ??_C@_03LHCJEHON@nan?$AA@  1007232c     libucrt:cvt.obj
 0002:00007330       ??_C@_09OFJJIMPC@NAN?$CISNAN?$CJ?$AA@ 10072330     libucrt:cvt.obj
 0002:0000733c       ??_C@_09IPFBKMDL@nan?$CIsnan?$CJ?$AA@ 1007233c     libucrt:cvt.obj
 0002:00007348       ??_C@_08IKHNHAJ@NAN?$CIIND?$CJ?$AA@ 10072348     libucrt:cvt.obj
 0002:00007354       ??_C@_08OFCDMILK@nan?$CIind?$CJ?$AA@ 10072354     libucrt:cvt.obj
 0002:00007360       ??_C@_05KLBDPFGC@e?$CL000?$AA@ 10072360     libucrt:cvt.obj
 0002:00007368       __d_inf                    10072368     libucrt:util.obj
 0002:00007378       __d_ind                    10072378     libucrt:util.obj
 0002:00007388       __d_max                    10072388     libucrt:util.obj
 0002:00007398       __d_min                    10072398     libucrt:util.obj
 0002:000073a8       __d_mzero                  100723a8     libucrt:util.obj
 0002:000073e8       ??_C@_1M@HPNHIDJI@?$AAj?$AAa?$AA?9?$AAJ?$AAP?$AA?$AA@ 100723e8     libucrt:mbctype.obj
 0002:000073f8       ??_C@_1M@BIBDDEMK@?$AAz?$AAh?$AA?9?$AAC?$AAN?$AA?$AA@ 100723f8     libucrt:mbctype.obj
 0002:00007408       ??_C@_1M@JLOOOEGK@?$AAk?$AAo?$AA?9?$AAK?$AAR?$AA?$AA@ 10072408     libucrt:mbctype.obj
 0002:00007418       ??_C@_1M@CLNBBOPM@?$AAz?$AAh?$AA?9?$AAT?$AAW?$AA?$AA@ 10072418     libucrt:mbctype.obj
 0002:00007428       ___newctype                10072428     libucrt:ctype.obj
 0002:000077c8       ___newclmap                100727c8     libucrt:ctype.obj
 0002:00007998       ___newcumap                10072998     libucrt:ctype.obj
 0002:00007b68       __wctype                   10072b68     libucrt:ctype.obj
 0002:00008664       ??_C@_15EMKDOKLE@?$AAa?$AAr?$AA?$AA@ 10073664     libucrt:lcidtoname_downlevel.obj
 0002:0000866c       ??_C@_15KNPADPLH@?$AAb?$AAg?$AA?$AA@ 1007366c     libucrt:lcidtoname_downlevel.obj
 0002:00008674       ??_C@_15EDMHLDMO@?$AAc?$AAa?$AA?$AA@ 10073674     libucrt:lcidtoname_downlevel.obj
 0002:0000867c       ??_C@_1O@BPEAJADD@?$AAz?$AAh?$AA?9?$AAC?$AAH?$AAS?$AA?$AA@ 1007367c     libucrt:lcidtoname_downlevel.obj
 0002:0000868c       ??_C@_15LJNHCMNK@?$AAc?$AAs?$AA?$AA@ 1007368c     libucrt:lcidtoname_downlevel.obj
 0002:00008694       ??_C@_15FOMCIDHG@?$AAd?$AAa?$AA?$AA@ 10073694     libucrt:lcidtoname_downlevel.obj
 0002:0000869c       ??_C@_15NBKABECB@?$AAd?$AAe?$AA?$AA@ 1007369c     libucrt:lcidtoname_downlevel.obj
 0002:000086a4       ??_C@_15GHPEIIAO@?$AAe?$AAl?$AA?$AA@ 100736a4     libucrt:lcidtoname_downlevel.obj
 0002:000086ac       ??_C@_15MNPNEAIF@?$AAe?$AAn?$AA?$AA@ 100736ac     libucrt:lcidtoname_downlevel.obj
 0002:000086b4       ??_C@_15GPIOMPMH@?$AAe?$AAs?$AA?$AA@ 100736b4     libucrt:lcidtoname_downlevel.obj
 0002:000086bc       ??_C@_15NGLOAKJC@?$AAf?$AAi?$AA?$AA@ 100736bc     libucrt:lcidtoname_downlevel.obj
 0002:000086c4       ??_C@_15FBKGNKAM@?$AAf?$AAr?$AA?$AA@ 100736c4     libucrt:lcidtoname_downlevel.obj
 0002:000086cc       ??_C@_15KGGCNEFK@?$AAh?$AAe?$AA?$AA@ 100736cc     libucrt:lcidtoname_downlevel.obj
 0002:000086d4       ??_C@_15PGHLIDMF@?$AAh?$AAu?$AA?$AA@ 100736d4     libucrt:lcidtoname_downlevel.obj
 0002:000086dc       ??_C@_15BIEMAPLM@?$AAi?$AAs?$AA?$AA@ 100736dc     libucrt:lcidtoname_downlevel.obj
 0002:000086e4       ??_C@_15IFJLDHAF@?$AAi?$AAt?$AA?$AA@ 100736e4     libucrt:lcidtoname_downlevel.obj
 0002:000086ec       ??_C@_15GEMIOCAG@?$AAj?$AAa?$AA?$AA@ 100736ec     libucrt:lcidtoname_downlevel.obj
 0002:000086f4       ??_C@_15EPELEGJA@?$AAk?$AAo?$AA?$AA@ 100736f4     libucrt:lcidtoname_downlevel.obj
 0002:000086fc       ??_C@_15NDDHIMN@?$AAn?$AAl?$AA?$AA@ 100736fc     libucrt:lcidtoname_downlevel.obj
 0002:00008704       ??_C@_15BPIGNHCD@?$AAn?$AAo?$AA?$AA@ 10073704     libucrt:lcidtoname_downlevel.obj
 0002:0000870c       ??_C@_15DEOPBLCG@?$AAp?$AAl?$AA?$AA@ 1007370c     libucrt:lcidtoname_downlevel.obj
 0002:00008714       ??_C@_15KBECGEFG@?$AAp?$AAt?$AA?$AA@ 10073714     libucrt:lcidtoname_downlevel.obj
 0002:0000871c       ??_C@_15GLJCBFMD@?$AAr?$AAo?$AA?$AA@ 1007371c     libucrt:lcidtoname_downlevel.obj
 0002:00008724       ??_C@_15FEDGKCDI@?$AAr?$AAu?$AA?$AA@ 10073724     libucrt:lcidtoname_downlevel.obj
 0002:0000872c       ??_C@_15GLKMLLHM@?$AAh?$AAr?$AA?$AA@ 1007372c     libucrt:lcidtoname_downlevel.obj
 0002:00008734       ??_C@_15CPKMFBDB@?$AAs?$AAk?$AA?$AA@ 10073734     libucrt:lcidtoname_downlevel.obj
 0002:0000873c       ??_C@_15BAAIOGMK@?$AAs?$AAq?$AA?$AA@ 1007373c     libucrt:lcidtoname_downlevel.obj
 0002:00008744       ??_C@_15INNPNOHD@?$AAs?$AAv?$AA?$AA@ 10073744     libucrt:lcidtoname_downlevel.obj
 0002:0000874c       ??_C@_15CABMMOGH@?$AAt?$AAh?$AA?$AA@ 1007374c     libucrt:lcidtoname_downlevel.obj
 0002:00008754       ??_C@_15BPLIHJJM@?$AAt?$AAr?$AA?$AA@ 10073754     libucrt:lcidtoname_downlevel.obj
 0002:0000875c       ??_C@_15NEOEKKDJ@?$AAu?$AAr?$AA?$AA@ 1007375c     libucrt:lcidtoname_downlevel.obj
 0002:00008764       ??_C@_15NFICGAJK@?$AAi?$AAd?$AA?$AA@ 10073764     libucrt:lcidtoname_downlevel.obj
 0002:0000876c       ??_C@_15PJPFLCCM@?$AAu?$AAk?$AA?$AA@ 1007376c     libucrt:lcidtoname_downlevel.obj
 0002:00008774       ??_C@_15HPJPHDM@?$AAb?$AAe?$AA?$AA@ 10073774     libucrt:lcidtoname_downlevel.obj
 0002:0000877c       ??_C@_15LCHLGJII@?$AAs?$AAl?$AA?$AA@ 1007377c     libucrt:lcidtoname_downlevel.obj
 0002:00008784       ??_C@_15PCFJPHHO@?$AAe?$AAt?$AA?$AA@ 10073784     libucrt:lcidtoname_downlevel.obj
 0002:0000878c       ??_C@_15HPFPGODN@?$AAl?$AAv?$AA?$AA@ 1007378c     libucrt:lcidtoname_downlevel.obj
 0002:00008794       ??_C@_15NFFGKGLG@?$AAl?$AAt?$AA?$AA@ 10073794     libucrt:lcidtoname_downlevel.obj
 0002:0000879c       ??_C@_15BDAKCCHN@?$AAf?$AAa?$AA?$AA@ 1007379c     libucrt:lcidtoname_downlevel.obj
 0002:000087a4       ??_C@_15NFGIAIAJ@?$AAv?$AAi?$AA?$AA@ 100737a4     libucrt:lcidtoname_downlevel.obj
 0002:000087ac       ??_C@_15LMKNDMHN@?$AAh?$AAy?$AA?$AA@ 100737ac     libucrt:lcidtoname_downlevel.obj
 0002:000087b4       ??_C@_15IJBHMCFL@?$AAa?$AAz?$AA?$AA@ 100737b4     libucrt:lcidtoname_downlevel.obj
 0002:000087bc       ??_C@_15EKOFJABL@?$AAe?$AAu?$AA?$AA@ 100737bc     libucrt:lcidtoname_downlevel.obj
 0002:000087c4       ??_C@_15BGHADCNK@?$AAm?$AAk?$AA?$AA@ 100737c4     libucrt:lcidtoname_downlevel.obj
 0002:000087cc       ??_C@_15JDNICKHM@?$AAa?$AAf?$AA?$AA@ 100737cc     libucrt:lcidtoname_downlevel.obj
 0002:000087d4       ??_C@_15KPJEDBKD@?$AAk?$AAa?$AA?$AA@ 100737d4     libucrt:lcidtoname_downlevel.obj
 0002:000087dc       ??_C@_15PDNFFFEO@?$AAf?$AAo?$AA?$AA@ 100737dc     libucrt:lcidtoname_downlevel.obj
 0002:000087e4       ??_C@_15OMLEGLOC@?$AAh?$AAi?$AA?$AA@ 100737e4     libucrt:lcidtoname_downlevel.obj
 0002:000087ec       ??_C@_15IDNNENKK@?$AAm?$AAs?$AA?$AA@ 100737ec     libucrt:lcidtoname_downlevel.obj
 0002:000087f4       ??_C@_15MACJNBMH@?$AAk?$AAk?$AA?$AA@ 100737f4     libucrt:lcidtoname_downlevel.obj
 0002:000087fc       ??_C@_15DKDJEOND@?$AAk?$AAy?$AA?$AA@ 100737fc     libucrt:lcidtoname_downlevel.obj
 0002:00008804       ??_C@_15DFGDLJBG@?$AAs?$AAw?$AA?$AA@ 10073804     libucrt:lcidtoname_downlevel.obj
 0002:0000880c       ??_C@_15BBFAICNG@?$AAu?$AAz?$AA?$AA@ 1007380c     libucrt:lcidtoname_downlevel.obj
 0002:00008814       ??_C@_15DKNDCGEA@?$AAt?$AAt?$AA?$AA@ 10073814     libucrt:lcidtoname_downlevel.obj
 0002:0000881c       ??_C@_15MGIFMDPL@?$AAp?$AAa?$AA?$AA@ 1007381c     libucrt:lcidtoname_downlevel.obj
 0002:00008824       ??_C@_15HCNDBBA@?$AAg?$AAu?$AA?$AA@ 10073824     libucrt:lcidtoname_downlevel.obj
 0002:0000882c       ??_C@_15FNBEIBON@?$AAt?$AAa?$AA?$AA@ 1007382c     libucrt:lcidtoname_downlevel.obj
 0002:00008834       ??_C@_15NCHGBGLK@?$AAt?$AAe?$AA?$AA@ 10073834     libucrt:lcidtoname_downlevel.obj
 0002:0000883c       ??_C@_15PHPHCBPF@?$AAk?$AAn?$AA?$AA@ 1007383c     libucrt:lcidtoname_downlevel.obj
 0002:00008844       ??_C@_15DLGBCKMP@?$AAm?$AAr?$AA?$AA@ 10073844     libucrt:lcidtoname_downlevel.obj
 0002:0000884c       ??_C@_15EABBLBFF@?$AAs?$AAa?$AA?$AA@ 1007384c     libucrt:lcidtoname_downlevel.obj
 0002:00008854       ??_C@_15CBKOMCOI@?$AAm?$AAn?$AA?$AA@ 10073854     libucrt:lcidtoname_downlevel.obj
 0002:0000885c       ??_C@_15CKDMCJAF@?$AAg?$AAl?$AA?$AA@ 1007385c     libucrt:lcidtoname_downlevel.obj
 0002:00008864       ??_C@_17CNJFBPG@?$AAk?$AAo?$AAk?$AA?$AA@ 10073864     libucrt:lcidtoname_downlevel.obj
 0002:00008870       ??_C@_17FFBJICPL@?$AAs?$AAy?$AAr?$AA?$AA@ 10073870     libucrt:lcidtoname_downlevel.obj
 0002:0000887c       ??_C@_17KPNDCPAF@?$AAd?$AAi?$AAv?$AA?$AA@ 1007387c     libucrt:lcidtoname_downlevel.obj
 0002:00008888       ??_C@_11LOCGONAA@?$AA?$AA@ 10073888     libucrt:lcidtoname_downlevel.obj
 0002:0000888c       ??_C@_1M@OKAHONE@?$AAa?$AAr?$AA?9?$AAS?$AAA?$AA?$AA@ 1007388c     libucrt:lcidtoname_downlevel.obj
 0002:0000889c       ??_C@_1M@FFFIGIGK@?$AAb?$AAg?$AA?9?$AAB?$AAG?$AA?$AA@ 1007389c     libucrt:lcidtoname_downlevel.obj
 0002:000088ac       ??_C@_1M@BJNKEDC@?$AAc?$AAa?$AA?9?$AAE?$AAS?$AA?$AA@ 100738ac     libucrt:lcidtoname_downlevel.obj
 0002:000088bc       ??_C@_1M@IJJHFJHA@?$AAc?$AAs?$AA?9?$AAC?$AAZ?$AA?$AA@ 100738bc     libucrt:lcidtoname_downlevel.obj
 0002:000088cc       ??_C@_1M@CLPEOBGI@?$AAd?$AAa?$AA?9?$AAD?$AAK?$AA?$AA@ 100738cc     libucrt:lcidtoname_downlevel.obj
 0002:000088dc       ??_C@_1M@MCMADGCB@?$AAd?$AAe?$AA?9?$AAD?$AAE?$AA?$AA@ 100738dc     libucrt:lcidtoname_downlevel.obj
 0002:000088ec       ??_C@_1M@OOCKEMAM@?$AAe?$AAl?$AA?9?$AAG?$AAR?$AA?$AA@ 100738ec     libucrt:lcidtoname_downlevel.obj
 0002:000088fc       ??_C@_1M@DDNJFGID@?$AAf?$AAi?$AA?9?$AAF?$AAI?$AA?$AA@ 100738fc     libucrt:lcidtoname_downlevel.obj
 0002:0000890c       ??_C@_1M@GLIPPMAC@?$AAf?$AAr?$AA?9?$AAF?$AAR?$AA?$AA@ 1007390c     libucrt:lcidtoname_downlevel.obj
 0002:0000891c       ??_C@_1M@GFMCHPE@?$AAh?$AAe?$AA?9?$AAI?$AAL?$AA?$AA@ 1007391c     libucrt:lcidtoname_downlevel.obj
 0002:0000892c       ??_C@_1M@MHLPGNKM@?$AAh?$AAu?$AA?9?$AAH?$AAU?$AA?$AA@ 1007392c     libucrt:lcidtoname_downlevel.obj
 0002:0000893c       ??_C@_1M@LPDDNNPN@?$AAi?$AAs?$AA?9?$AAI?$AAS?$AA?$AA@ 1007393c     libucrt:lcidtoname_downlevel.obj
 0002:0000894c       ??_C@_1M@MADIPODN@?$AAi?$AAt?$AA?9?$AAI?$AAT?$AA?$AA@ 1007394c     libucrt:lcidtoname_downlevel.obj
 0002:0000895c       ??_C@_1M@IHBJJGG@?$AAn?$AAl?$AA?9?$AAN?$AAL?$AA?$AA@ 1007395c     libucrt:lcidtoname_downlevel.obj
 0002:0000896c       ??_C@_1M@EANAGDL@?$AAn?$AAb?$AA?9?$AAN?$AAO?$AA?$AA@ 1007396c     libucrt:lcidtoname_downlevel.obj
 0002:0000897c       ??_C@_1M@NEIEMEGP@?$AAp?$AAl?$AA?9?$AAP?$AAL?$AA?$AA@ 1007397c     libucrt:lcidtoname_downlevel.obj
 0002:0000898c       ??_C@_1M@BOCFIGEP@?$AAp?$AAt?$AA?9?$AAB?$AAR?$AA?$AA@ 1007398c     libucrt:lcidtoname_downlevel.obj
 0002:0000899c       ??_C@_1M@IMPFOPBG@?$AAr?$AAo?$AA?9?$AAR?$AAO?$AA?$AA@ 1007399c     libucrt:lcidtoname_downlevel.obj
 0002:000089ac       ??_C@_1M@IDNNEJMM@?$AAr?$AAu?$AA?9?$AAR?$AAU?$AA?$AA@ 100739ac     libucrt:lcidtoname_downlevel.obj
 0002:000089bc       ??_C@_1M@LILEEOGM@?$AAh?$AAr?$AA?9?$AAH?$AAR?$AA?$AA@ 100739bc     libucrt:lcidtoname_downlevel.obj
 0002:000089cc       ??_C@_1M@FKIFEHPB@?$AAs?$AAk?$AA?9?$AAS?$AAK?$AA?$AA@ 100739cc     libucrt:lcidtoname_downlevel.obj
 0002:000089dc       ??_C@_1M@LJMAMNPJ@?$AAs?$AAq?$AA?9?$AAA?$AAL?$AA?$AA@ 100739dc     libucrt:lcidtoname_downlevel.obj
 0002:000089ec       ??_C@_1M@GIAKDKJK@?$AAs?$AAv?$AA?9?$AAS?$AAE?$AA?$AA@ 100739ec     libucrt:lcidtoname_downlevel.obj
 0002:000089fc       ??_C@_1M@MKJKIKCL@?$AAt?$AAh?$AA?9?$AAT?$AAH?$AA?$AA@ 100739fc     libucrt:lcidtoname_downlevel.obj
 0002:00008a0c       ??_C@_1M@MFLCCMPB@?$AAt?$AAr?$AA?9?$AAT?$AAR?$AA?$AA@ 10073a0c     libucrt:lcidtoname_downlevel.obj
 0002:00008a1c       ??_C@_1M@OIJHDKJN@?$AAu?$AAr?$AA?9?$AAP?$AAK?$AA?$AA@ 10073a1c     libucrt:lcidtoname_downlevel.obj
 0002:00008a2c       ??_C@_1M@LHIPCIEK@?$AAi?$AAd?$AA?9?$AAI?$AAD?$AA?$AA@ 10073a2c     libucrt:lcidtoname_downlevel.obj
 0002:00008a3c       ??_C@_1M@MFMOBGI@?$AAu?$AAk?$AA?9?$AAU?$AAA?$AA?$AA@ 10073a3c     libucrt:lcidtoname_downlevel.obj
 0002:00008a4c       ??_C@_1M@OBGLJIPL@?$AAb?$AAe?$AA?9?$AAB?$AAY?$AA?$AA@ 10073a4c     libucrt:lcidtoname_downlevel.obj
 0002:00008a5c       ??_C@_1M@BCFAJEAD@?$AAs?$AAl?$AA?9?$AAS?$AAI?$AA?$AA@ 10073a5c     libucrt:lcidtoname_downlevel.obj
 0002:00008a6c       ??_C@_1M@FKFFEDDN@?$AAe?$AAt?$AA?9?$AAE?$AAE?$AA?$AA@ 10073a6c     libucrt:lcidtoname_downlevel.obj
 0002:00008a7c       ??_C@_1M@KGKKAACI@?$AAl?$AAv?$AA?9?$AAL?$AAV?$AA?$AA@ 10073a7c     libucrt:lcidtoname_downlevel.obj
 0002:00008a8c       ??_C@_1M@IFGBIJO@?$AAl?$AAt?$AA?9?$AAL?$AAT?$AA?$AA@ 10073a8c     libucrt:lcidtoname_downlevel.obj
 0002:00008a9c       ??_C@_1M@FGEAHEDM@?$AAf?$AAa?$AA?9?$AAI?$AAR?$AA?$AA@ 10073a9c     libucrt:lcidtoname_downlevel.obj
 0002:00008aac       ??_C@_1M@KBMAIBFN@?$AAv?$AAi?$AA?9?$AAV?$AAN?$AA?$AA@ 10073aac     libucrt:lcidtoname_downlevel.obj
 0002:00008abc       ??_C@_1M@GPCBKDJK@?$AAh?$AAy?$AA?9?$AAA?$AAM?$AA?$AA@ 10073abc     libucrt:lcidtoname_downlevel.obj
 0002:00008acc       ??_C@_1BG@BECMDDJB@?$AAa?$AAz?$AA?9?$AAA?$AAZ?$AA?9?$AAL?$AAa?$AAt?$AAn?$AA?$AA@ 10073acc     libucrt:lcidtoname_downlevel.obj
 0002:00008ae8       ??_C@_1M@MAOFCAEA@?$AAe?$AAu?$AA?9?$AAE?$AAS?$AA?$AA@ 10073ae8     libucrt:lcidtoname_downlevel.obj
 0002:00008af8       ??_C@_1M@IGHABKPI@?$AAm?$AAk?$AA?9?$AAM?$AAK?$AA?$AA@ 10073af8     libucrt:lcidtoname_downlevel.obj
 0002:00008b08       ??_C@_1M@IAIGNEJG@?$AAt?$AAn?$AA?9?$AAZ?$AAA?$AA?$AA@ 10073b08     libucrt:lcidtoname_downlevel.obj
 0002:00008b18       ??_C@_1M@IIJCOJFA@?$AAx?$AAh?$AA?9?$AAZ?$AAA?$AA?$AA@ 10073b18     libucrt:lcidtoname_downlevel.obj
 0002:00008b28       ??_C@_1M@LGPJHNJH@?$AAz?$AAu?$AA?9?$AAZ?$AAA?$AA?$AA@ 10073b28     libucrt:lcidtoname_downlevel.obj
 0002:00008b38       ??_C@_1M@HOKAOIO@?$AAa?$AAf?$AA?9?$AAZ?$AAA?$AA?$AA@ 10073b38     libucrt:lcidtoname_downlevel.obj
 0002:00008b48       ??_C@_1M@DPCLHLIE@?$AAk?$AAa?$AA?9?$AAG?$AAE?$AA?$AA@ 10073b48     libucrt:lcidtoname_downlevel.obj
 0002:00008b58       ??_C@_1M@BLKMHJBI@?$AAf?$AAo?$AA?9?$AAF?$AAO?$AA?$AA@ 10073b58     libucrt:lcidtoname_downlevel.obj
 0002:00008b68       ??_C@_1M@LGGJAPPB@?$AAh?$AAi?$AA?9?$AAI?$AAN?$AA?$AA@ 10073b68     libucrt:lcidtoname_downlevel.obj
 0002:00008b78       ??_C@_1M@FIKPIHFE@?$AAm?$AAt?$AA?9?$AAM?$AAT?$AA?$AA@ 10073b78     libucrt:lcidtoname_downlevel.obj
 0002:00008b88       ??_C@_1M@HEGGPBFA@?$AAs?$AAe?$AA?9?$AAN?$AAO?$AA?$AA@ 10073b88     libucrt:lcidtoname_downlevel.obj
 0002:00008b98       ??_C@_1M@EIBJEEPA@?$AAm?$AAs?$AA?9?$AAM?$AAY?$AA?$AA@ 10073b98     libucrt:lcidtoname_downlevel.obj
 0002:00008ba8       ??_C@_1M@FHLBGMPP@?$AAk?$AAk?$AA?9?$AAK?$AAZ?$AA?$AA@ 10073ba8     libucrt:lcidtoname_downlevel.obj
 0002:00008bb8       ??_C@_1M@NGJJLCGI@?$AAk?$AAy?$AA?9?$AAK?$AAG?$AA?$AA@ 10073bb8     libucrt:lcidtoname_downlevel.obj
 0002:00008bc8       ??_C@_1M@GIENNBFC@?$AAs?$AAw?$AA?9?$AAK?$AAE?$AA?$AA@ 10073bc8     libucrt:lcidtoname_downlevel.obj
 0002:00008bd8       ??_C@_1BG@NDGMJIMJ@?$AAu?$AAz?$AA?9?$AAU?$AAZ?$AA?9?$AAL?$AAa?$AAt?$AAn?$AA?$AA@ 10073bd8     libucrt:lcidtoname_downlevel.obj
 0002:00008bf4       ??_C@_1M@IDCCIHBC@?$AAt?$AAt?$AA?9?$AAR?$AAU?$AA?$AA@ 10073bf4     libucrt:lcidtoname_downlevel.obj
 0002:00008c04       ??_C@_1M@LOICPMOJ@?$AAb?$AAn?$AA?9?$AAI?$AAN?$AA?$AA@ 10073c04     libucrt:lcidtoname_downlevel.obj
 0002:00008c14       ??_C@_1M@KPKKNEAH@?$AAp?$AAa?$AA?9?$AAI?$AAN?$AA?$AA@ 10073c14     libucrt:lcidtoname_downlevel.obj
 0002:00008c24       ??_C@_1M@PJGPPBOG@?$AAg?$AAu?$AA?9?$AAI?$AAN?$AA?$AA@ 10073c24     libucrt:lcidtoname_downlevel.obj
 0002:00008c34       ??_C@_1M@KMKMOPHI@?$AAt?$AAa?$AA?9?$AAI?$AAN?$AA?$AA@ 10073c34     libucrt:lcidtoname_downlevel.obj
 0002:00008c44       ??_C@_1M@KFEHEPAC@?$AAt?$AAe?$AA?9?$AAI?$AAN?$AA?$AA@ 10073c44     libucrt:lcidtoname_downlevel.obj
 0002:00008c54       ??_C@_1M@CDCLMGHI@?$AAk?$AAn?$AA?9?$AAI?$AAN?$AA?$AA@ 10073c54     libucrt:lcidtoname_downlevel.obj
 0002:00008c64       ??_C@_1M@MIODLDKF@?$AAm?$AAl?$AA?9?$AAI?$AAN?$AA?$AA@ 10073c64     libucrt:lcidtoname_downlevel.obj
 0002:00008c74       ??_C@_1M@PBIEACPO@?$AAm?$AAr?$AA?9?$AAI?$AAN?$AA?$AA@ 10073c74     libucrt:lcidtoname_downlevel.obj
 0002:00008c84       ??_C@_1M@NIDEAGPH@?$AAs?$AAa?$AA?9?$AAI?$AAN?$AA?$AA@ 10073c84     libucrt:lcidtoname_downlevel.obj
 0002:00008c94       ??_C@_1M@FHIHCBIO@?$AAm?$AAn?$AA?9?$AAM?$AAN?$AA?$AA@ 10073c94     libucrt:lcidtoname_downlevel.obj
 0002:00008ca4       ??_C@_1M@JAIJPENP@?$AAc?$AAy?$AA?9?$AAG?$AAB?$AA?$AA@ 10073ca4     libucrt:lcidtoname_downlevel.obj
 0002:00008cb4       ??_C@_1M@PHGFBEPN@?$AAg?$AAl?$AA?9?$AAE?$AAS?$AA?$AA@ 10073cb4     libucrt:lcidtoname_downlevel.obj
 0002:00008cc4       ??_C@_1O@KPIPDNCP@?$AAk?$AAo?$AAk?$AA?9?$AAI?$AAN?$AA?$AA@ 10073cc4     libucrt:lcidtoname_downlevel.obj
 0002:00008cd4       ??_C@_1O@KNHJLDJA@?$AAs?$AAy?$AAr?$AA?9?$AAS?$AAY?$AA?$AA@ 10073cd4     libucrt:lcidtoname_downlevel.obj
 0002:00008ce4       ??_C@_1O@MKEKBLAH@?$AAd?$AAi?$AAv?$AA?9?$AAM?$AAV?$AA?$AA@ 10073ce4     libucrt:lcidtoname_downlevel.obj
 0002:00008cf4       ??_C@_1O@OHDCKDDF@?$AAq?$AAu?$AAz?$AA?9?$AAB?$AAO?$AA?$AA@ 10073cf4     libucrt:lcidtoname_downlevel.obj
 0002:00008d04       ??_C@_1M@LEPJNLFD@?$AAn?$AAs?$AA?9?$AAZ?$AAA?$AA?$AA@ 10073d04     libucrt:lcidtoname_downlevel.obj
 0002:00008d14       ??_C@_1M@OMLEIIJB@?$AAm?$AAi?$AA?9?$AAN?$AAZ?$AA?$AA@ 10073d14     libucrt:lcidtoname_downlevel.obj
 0002:00008d24       ??_C@_1M@PMPEAILG@?$AAa?$AAr?$AA?9?$AAI?$AAQ?$AA?$AA@ 10073d24     libucrt:lcidtoname_downlevel.obj
 0002:00008d34       ??_C@_1M@CNKPNOEE@?$AAd?$AAe?$AA?9?$AAC?$AAH?$AA?$AA@ 10073d34     libucrt:lcidtoname_downlevel.obj
 0002:00008d44       ??_C@_1M@LKMGMLKO@?$AAe?$AAn?$AA?9?$AAG?$AAB?$AA?$AA@ 10073d44     libucrt:lcidtoname_downlevel.obj
 0002:00008d54       ??_C@_1M@PGKJFFGL@?$AAe?$AAs?$AA?9?$AAM?$AAX?$AA?$AA@ 10073d54     libucrt:lcidtoname_downlevel.obj
 0002:00008d64       ??_C@_1M@DNNANBDC@?$AAf?$AAr?$AA?9?$AAB?$AAE?$AA?$AA@ 10073d64     libucrt:lcidtoname_downlevel.obj
 0002:00008d74       ??_C@_1M@HLGMDFHM@?$AAi?$AAt?$AA?9?$AAC?$AAH?$AA?$AA@ 10073d74     libucrt:lcidtoname_downlevel.obj
 0002:00008d84       ??_C@_1M@CLLBGJH@?$AAn?$AAl?$AA?9?$AAB?$AAE?$AA?$AA@ 10073d84     libucrt:lcidtoname_downlevel.obj
 0002:00008d94       ??_C@_1M@BODBOGLF@?$AAn?$AAn?$AA?9?$AAN?$AAO?$AA?$AA@ 10073d94     libucrt:lcidtoname_downlevel.obj
 0002:00008da4       ??_C@_1M@HFFAHKAD@?$AAp?$AAt?$AA?9?$AAP?$AAT?$AA?$AA@ 10073da4     libucrt:lcidtoname_downlevel.obj
 0002:00008db4       ??_C@_1BG@LNOAKHIE@?$AAs?$AAr?$AA?9?$AAS?$AAP?$AA?9?$AAL?$AAa?$AAt?$AAn?$AA?$AA@ 10073db4     libucrt:lcidtoname_downlevel.obj
 0002:00008dd0       ??_C@_1M@HBMHBGAK@?$AAs?$AAv?$AA?9?$AAF?$AAI?$AA?$AA@ 10073dd0     libucrt:lcidtoname_downlevel.obj
 0002:00008de0       ??_C@_1BG@DGCJGJBE@?$AAa?$AAz?$AA?9?$AAA?$AAZ?$AA?9?$AAC?$AAy?$AAr?$AAl?$AA?$AA@ 10073de0     libucrt:lcidtoname_downlevel.obj
 0002:00008dfc       ??_C@_1M@KEJDAAHB@?$AAs?$AAe?$AA?9?$AAS?$AAE?$AA?$AA@ 10073dfc     libucrt:lcidtoname_downlevel.obj
 0002:00008e0c       ??_C@_1M@HEIBJJAD@?$AAm?$AAs?$AA?9?$AAB?$AAN?$AA?$AA@ 10073e0c     libucrt:lcidtoname_downlevel.obj
 0002:00008e1c       ??_C@_1BG@PBGJMCEM@?$AAu?$AAz?$AA?9?$AAU?$AAZ?$AA?9?$AAC?$AAy?$AAr?$AAl?$AA?$AA@ 10073e1c     libucrt:lcidtoname_downlevel.obj
 0002:00008e38       ??_C@_1O@LAOBCMDF@?$AAq?$AAu?$AAz?$AA?9?$AAE?$AAC?$AA?$AA@ 10073e38     libucrt:lcidtoname_downlevel.obj
 0002:00008e48       ??_C@_1M@POEEMAIO@?$AAa?$AAr?$AA?9?$AAE?$AAG?$AA?$AA@ 10073e48     libucrt:lcidtoname_downlevel.obj
 0002:00008e58       ??_C@_1M@EFAKDEDL@?$AAz?$AAh?$AA?9?$AAH?$AAK?$AA?$AA@ 10073e58     libucrt:lcidtoname_downlevel.obj
 0002:00008e68       ??_C@_1M@HKKIJHGI@?$AAd?$AAe?$AA?9?$AAA?$AAT?$AA?$AA@ 10073e68     libucrt:lcidtoname_downlevel.obj
 0002:00008e78       ??_C@_1M@KBFBEHJF@?$AAe?$AAn?$AA?9?$AAA?$AAU?$AA?$AA@ 10073e78     libucrt:lcidtoname_downlevel.obj
 0002:00008e88       ??_C@_1M@MNPLFAAH@?$AAe?$AAs?$AA?9?$AAE?$AAS?$AA?$AA@ 10073e88     libucrt:lcidtoname_downlevel.obj
 0002:00008e98       ??_C@_1M@HJOOJFMA@?$AAf?$AAr?$AA?9?$AAC?$AAA?$AA?$AA@ 10073e98     libucrt:lcidtoname_downlevel.obj
 0002:00008ea8       ??_C@_1BG@JPOFPNAB@?$AAs?$AAr?$AA?9?$AAS?$AAP?$AA?9?$AAC?$AAy?$AAr?$AAl?$AA?$AA@ 10073ea8     libucrt:lcidtoname_downlevel.obj
 0002:00008ec4       ??_C@_1M@LNFOCMOB@?$AAs?$AAe?$AA?9?$AAF?$AAI?$AA?$AA@ 10073ec4     libucrt:lcidtoname_downlevel.obj
 0002:00008ed4       ??_C@_1O@MGJBOAMB@?$AAq?$AAu?$AAz?$AA?9?$AAP?$AAE?$AA?$AA@ 10073ed4     libucrt:lcidtoname_downlevel.obj
 0002:00008ee4       ??_C@_1M@GJINLBOK@?$AAa?$AAr?$AA?9?$AAL?$AAY?$AA?$AA@ 10073ee4     libucrt:lcidtoname_downlevel.obj
 0002:00008ef4       ??_C@_1M@GGMNHJNL@?$AAz?$AAh?$AA?9?$AAS?$AAG?$AA?$AA@ 10073ef4     libucrt:lcidtoname_downlevel.obj
 0002:00008f04       ??_C@_1M@HOIKODND@?$AAd?$AAe?$AA?9?$AAL?$AAU?$AA?$AA@ 10073f04     libucrt:lcidtoname_downlevel.obj
 0002:00008f14       ??_C@_1M@DDOCCGFG@?$AAe?$AAn?$AA?9?$AAC?$AAA?$AA?$AA@ 10073f14     libucrt:lcidtoname_downlevel.obj
 0002:00008f24       ??_C@_1M@BNOEMJLF@?$AAe?$AAs?$AA?9?$AAG?$AAT?$AA?$AA@ 10073f24     libucrt:lcidtoname_downlevel.obj
 0002:00008f34       ??_C@_1M@EOGNKEK@?$AAf?$AAr?$AA?9?$AAC?$AAH?$AA?$AA@ 10073f34     libucrt:lcidtoname_downlevel.obj
 0002:00008f44       ??_C@_1M@FLIDJFHL@?$AAh?$AAr?$AA?9?$AAB?$AAA?$AA?$AA@ 10073f44     libucrt:lcidtoname_downlevel.obj
 0002:00008f54       ??_C@_1O@FMCELNAJ@?$AAs?$AAm?$AAj?$AA?9?$AAN?$AAO?$AA?$AA@ 10073f54     libucrt:lcidtoname_downlevel.obj
 0002:00008f64       ??_C@_1M@JHGLJMGJ@?$AAa?$AAr?$AA?9?$AAD?$AAZ?$AA?$AA@ 10073f64     libucrt:lcidtoname_downlevel.obj
 0002:00008f74       ??_C@_1M@JKKFDCNP@?$AAz?$AAh?$AA?9?$AAM?$AAO?$AA?$AA@ 10073f74     libucrt:lcidtoname_downlevel.obj
 0002:00008f84       ??_C@_1M@GEEFALPE@?$AAd?$AAe?$AA?9?$AAL?$AAI?$AA?$AA@ 10073f84     libucrt:lcidtoname_downlevel.obj
 0002:00008f94       ??_C@_1M@IGEOFBG@?$AAe?$AAn?$AA?9?$AAN?$AAZ?$AA?$AA@ 10073f94     libucrt:lcidtoname_downlevel.obj
 0002:00008fa4       ??_C@_1M@KDBONEHP@?$AAe?$AAs?$AA?9?$AAC?$AAR?$AA?$AA@ 10073fa4     libucrt:lcidtoname_downlevel.obj
 0002:00008fb4       ??_C@_1M@FHMDOHNN@?$AAf?$AAr?$AA?9?$AAL?$AAU?$AA?$AA@ 10073fb4     libucrt:lcidtoname_downlevel.obj
 0002:00008fc4       ??_C@_1BG@NFKKMAFG@?$AAb?$AAs?$AA?9?$AAB?$AAA?$AA?9?$AAL?$AAa?$AAt?$AAn?$AA?$AA@ 10073fc4     libucrt:lcidtoname_downlevel.obj
 0002:00008fe0       ??_C@_1O@IMNBEMCI@?$AAs?$AAm?$AAj?$AA?9?$AAS?$AAE?$AA?$AA@ 10073fe0     libucrt:lcidtoname_downlevel.obj
 0002:00008ff0       ??_C@_1M@DHHMBNDP@?$AAa?$AAr?$AA?9?$AAM?$AAA?$AA?$AA@ 10073ff0     libucrt:lcidtoname_downlevel.obj
 0002:00009000       ??_C@_1M@BNBLJCGH@?$AAe?$AAn?$AA?9?$AAI?$AAE?$AA?$AA@ 10074000     libucrt:lcidtoname_downlevel.obj
 0002:00009010       ??_C@_1M@GEPAFMDL@?$AAe?$AAs?$AA?9?$AAP?$AAA?$AA?$AA@ 10074010     libucrt:lcidtoname_downlevel.obj
 0002:00009020       ??_C@_1M@OJONDMDL@?$AAf?$AAr?$AA?9?$AAM?$AAC?$AA?$AA@ 10074020     libucrt:lcidtoname_downlevel.obj
 0002:00009030       ??_C@_1BG@OBCNFJB@?$AAs?$AAr?$AA?9?$AAB?$AAA?$AA?9?$AAL?$AAa?$AAt?$AAn?$AA?$AA@ 10074030     libucrt:lcidtoname_downlevel.obj
 0002:0000904c       ??_C@_1O@KEMEEGPO@?$AAs?$AAm?$AAa?$AA?9?$AAN?$AAO?$AA?$AA@ 1007404c     libucrt:lcidtoname_downlevel.obj
 0002:0000905c       ??_C@_1M@ELMGFODK@?$AAa?$AAr?$AA?9?$AAT?$AAN?$AA?$AA@ 1007405c     libucrt:lcidtoname_downlevel.obj
 0002:0000906c       ??_C@_1M@BHDLHFAF@?$AAe?$AAn?$AA?9?$AAZ?$AAA?$AA?$AA@ 1007406c     libucrt:lcidtoname_downlevel.obj
 0002:0000907c       ??_C@_1M@BMGIGLIF@?$AAe?$AAs?$AA?9?$AAD?$AAO?$AA?$AA@ 1007407c     libucrt:lcidtoname_downlevel.obj
 0002:0000908c       ??_C@_1BG@CMBHIPBE@?$AAs?$AAr?$AA?9?$AAB?$AAA?$AA?9?$AAC?$AAy?$AAr?$AAl?$AA?$AA@ 1007408c     libucrt:lcidtoname_downlevel.obj
 0002:000090a8       ??_C@_1O@HEDBLHNP@?$AAs?$AAm?$AAa?$AA?9?$AAS?$AAE?$AA?$AA@ 100740a8     libucrt:lcidtoname_downlevel.obj
 0002:000090b8       ??_C@_1M@DAGCADIM@?$AAa?$AAr?$AA?9?$AAO?$AAM?$AA?$AA@ 100740b8     libucrt:lcidtoname_downlevel.obj
 0002:000090c8       ??_C@_1M@FODLMICG@?$AAe?$AAn?$AA?9?$AAJ?$AAM?$AA?$AA@ 100740c8     libucrt:lcidtoname_downlevel.obj
 0002:000090d8       ??_C@_1M@DNMLCIHB@?$AAe?$AAs?$AA?9?$AAV?$AAE?$AA?$AA@ 100740d8     libucrt:lcidtoname_downlevel.obj
 0002:000090e8       ??_C@_1O@EOKHMKJK@?$AAs?$AAm?$AAs?$AA?9?$AAF?$AAI?$AA?$AA@ 100740e8     libucrt:lcidtoname_downlevel.obj
 0002:000090f8       ??_C@_1M@CAFJMKOF@?$AAa?$AAr?$AA?9?$AAY?$AAE?$AA?$AA@ 100740f8     libucrt:lcidtoname_downlevel.obj
 0002:00009108       ??_C@_1M@CBFHIJLI@?$AAe?$AAn?$AA?9?$AAC?$AAB?$AA?$AA@ 10074108     libucrt:lcidtoname_downlevel.obj
 0002:00009118       ??_C@_1M@BGNFLDN@?$AAe?$AAs?$AA?9?$AAC?$AAO?$AA?$AA@ 10074118     libucrt:lcidtoname_downlevel.obj
 0002:00009128       ??_C@_1O@JMPHMAMC@?$AAs?$AAm?$AAn?$AA?9?$AAF?$AAI?$AA?$AA@ 10074128     libucrt:lcidtoname_downlevel.obj
 0002:00009138       ??_C@_1M@JLANABKE@?$AAa?$AAr?$AA?9?$AAS?$AAY?$AA?$AA@ 10074138     libucrt:lcidtoname_downlevel.obj
 0002:00009148       ??_C@_1M@HPKGCFGN@?$AAe?$AAn?$AA?9?$AAB?$AAZ?$AA?$AA@ 10074148     libucrt:lcidtoname_downlevel.obj
 0002:00009158       ??_C@_1M@OLJCMLGM@?$AAe?$AAs?$AA?9?$AAP?$AAE?$AA?$AA@ 10074158     libucrt:lcidtoname_downlevel.obj
 0002:00009168       ??_C@_1M@MKKGFKLE@?$AAa?$AAr?$AA?9?$AAJ?$AAO?$AA?$AA@ 10074168     libucrt:lcidtoname_downlevel.obj
 0002:00009178       ??_C@_1M@EKPGLDNI@?$AAe?$AAn?$AA?9?$AAT?$AAT?$AA?$AA@ 10074178     libucrt:lcidtoname_downlevel.obj
 0002:00009188       ??_C@_1M@OONGHFHE@?$AAe?$AAs?$AA?9?$AAA?$AAR?$AA?$AA@ 10074188     libucrt:lcidtoname_downlevel.obj
 0002:00009198       ??_C@_1M@OOJFGBHE@?$AAa?$AAr?$AA?9?$AAL?$AAB?$AA?$AA@ 10074198     libucrt:lcidtoname_downlevel.obj
 0002:000091a8       ??_C@_1M@GCEJHNEG@?$AAe?$AAn?$AA?9?$AAZ?$AAW?$AA?$AA@ 100741a8     libucrt:lcidtoname_downlevel.obj
 0002:000091b8       ??_C@_1M@JNOCAHJI@?$AAe?$AAs?$AA?9?$AAE?$AAC?$AA?$AA@ 100741b8     libucrt:lcidtoname_downlevel.obj
 0002:000091c8       ??_C@_1M@JEFHPGGB@?$AAa?$AAr?$AA?9?$AAK?$AAW?$AA?$AA@ 100741c8     libucrt:lcidtoname_downlevel.obj
 0002:000091d8       ??_C@_1M@MLKIBJOJ@?$AAe?$AAn?$AA?9?$AAP?$AAH?$AA?$AA@ 100741d8     libucrt:lcidtoname_downlevel.obj
 0002:000091e8       ??_C@_1M@BDNIPEND@?$AAe?$AAs?$AA?9?$AAC?$AAL?$AA?$AA@ 100741e8     libucrt:lcidtoname_downlevel.obj
 0002:000091f8       ??_C@_1M@MPNMEKBD@?$AAa?$AAr?$AA?9?$AAA?$AAE?$AA?$AA@ 100741f8     libucrt:lcidtoname_downlevel.obj
 0002:00009208       ??_C@_1M@KBJALCPI@?$AAe?$AAs?$AA?9?$AAU?$AAY?$AA?$AA@ 10074208     libucrt:lcidtoname_downlevel.obj
 0002:00009218       ??_C@_1M@LLCCOAGA@?$AAa?$AAr?$AA?9?$AAB?$AAH?$AA?$AA@ 10074218     libucrt:lcidtoname_downlevel.obj
 0002:00009228       ??_C@_1M@PBFNCDEL@?$AAe?$AAs?$AA?9?$AAP?$AAY?$AA?$AA@ 10074228     libucrt:lcidtoname_downlevel.obj
 0002:00009238       ??_C@_1M@EDGINPNP@?$AAa?$AAr?$AA?9?$AAQ?$AAA?$AA?$AA@ 10074238     libucrt:lcidtoname_downlevel.obj
 0002:00009248       ??_C@_1M@MKDBIIJI@?$AAe?$AAs?$AA?9?$AAB?$AAO?$AA?$AA@ 10074248     libucrt:lcidtoname_downlevel.obj
 0002:00009258       ??_C@_1M@CPKKEBLD@?$AAe?$AAs?$AA?9?$AAS?$AAV?$AA?$AA@ 10074258     libucrt:lcidtoname_downlevel.obj
 0002:00009268       ??_C@_1M@NDBGMMJL@?$AAe?$AAs?$AA?9?$AAH?$AAN?$AA?$AA@ 10074268     libucrt:lcidtoname_downlevel.obj
 0002:00009278       ??_C@_1M@JIJIBHDP@?$AAe?$AAs?$AA?9?$AAN?$AAI?$AA?$AA@ 10074278     libucrt:lcidtoname_downlevel.obj
 0002:00009288       ??_C@_1M@CGFMKEEK@?$AAe?$AAs?$AA?9?$AAP?$AAR?$AA?$AA@ 10074288     libucrt:lcidtoname_downlevel.obj
 0002:00009298       ??_C@_1O@ICJHKIIK@?$AAz?$AAh?$AA?9?$AAC?$AAH?$AAT?$AA?$AA@ 10074298     libucrt:lcidtoname_downlevel.obj
 0002:000092a8       ??_C@_15CLNEJCE@?$AAs?$AAr?$AA?$AA@ 100742a8     libucrt:lcidtoname_downlevel.obj
 0002:00009b3c       ??_C@_1M@KAHEKEIG@?$AAa?$AAf?$AA?9?$AAz?$AAa?$AA?$AA@ 10074b3c     libucrt:lcidtoname_downlevel.obj
 0002:00009b4c       ??_C@_1M@GIECOABL@?$AAa?$AAr?$AA?9?$AAa?$AAe?$AA?$AA@ 10074b4c     libucrt:lcidtoname_downlevel.obj
 0002:00009b5c       ??_C@_1M@BMLMEKGI@?$AAa?$AAr?$AA?9?$AAb?$AAh?$AA?$AA@ 10074b5c     libucrt:lcidtoname_downlevel.obj
 0002:00009b6c       ??_C@_1M@DAPFDGGB@?$AAa?$AAr?$AA?9?$AAd?$AAz?$AA?$AA@ 10074b6c     libucrt:lcidtoname_downlevel.obj
 0002:00009b7c       ??_C@_1M@FJNKGKIG@?$AAa?$AAr?$AA?9?$AAe?$AAg?$AA?$AA@ 10074b7c     libucrt:lcidtoname_downlevel.obj
 0002:00009b8c       ??_C@_1M@FLGKKCLO@?$AAa?$AAr?$AA?9?$AAi?$AAq?$AA?$AA@ 10074b8c     libucrt:lcidtoname_downlevel.obj
 0002:00009b9c       ??_C@_1M@GNDIPALM@?$AAa?$AAr?$AA?9?$AAj?$AAo?$AA?$AA@ 10074b9c     libucrt:lcidtoname_downlevel.obj
 0002:00009bac       ??_C@_1M@DDMJFMGJ@?$AAa?$AAr?$AA?9?$AAk?$AAw?$AA?$AA@ 10074bac     libucrt:lcidtoname_downlevel.obj
 0002:00009bbc       ??_C@_1M@EJALMLHM@?$AAa?$AAr?$AA?9?$AAl?$AAb?$AA?$AA@ 10074bbc     libucrt:lcidtoname_downlevel.obj
 0002:00009bcc       ??_C@_1M@MOBDBLOC@?$AAa?$AAr?$AA?9?$AAl?$AAy?$AA?$AA@ 10074bcc     libucrt:lcidtoname_downlevel.obj
 0002:00009bdc       ??_C@_1M@JAOCLHDH@?$AAa?$AAr?$AA?9?$AAm?$AAa?$AA?$AA@ 10074bdc     libucrt:lcidtoname_downlevel.obj
 0002:00009bec       ??_C@_1M@JHPMKJIE@?$AAa?$AAr?$AA?9?$AAo?$AAm?$AA?$AA@ 10074bec     libucrt:lcidtoname_downlevel.obj
 0002:00009bfc       ??_C@_1M@OEPGHFNH@?$AAa?$AAr?$AA?9?$AAq?$AAa?$AA?$AA@ 10074bfc     libucrt:lcidtoname_downlevel.obj
 0002:00009c0c       ??_C@_1M@KJDONENM@?$AAa?$AAr?$AA?9?$AAs?$AAa?$AA?$AA@ 10074c0c     libucrt:lcidtoname_downlevel.obj
 0002:00009c1c       ??_C@_1M@DMJDKLKM@?$AAa?$AAr?$AA?9?$AAs?$AAy?$AA?$AA@ 10074c1c     libucrt:lcidtoname_downlevel.obj
 0002:00009c2c       ??_C@_1M@OMFIPEDC@?$AAa?$AAr?$AA?9?$AAt?$AAn?$AA?$AA@ 10074c2c     libucrt:lcidtoname_downlevel.obj
 0002:00009c3c       ??_C@_1M@IHMHGAON@?$AAa?$AAr?$AA?9?$AAy?$AAe?$AA?$AA@ 10074c3c     libucrt:lcidtoname_downlevel.obj
 0002:00009c4c       ??_C@_1BG@KDCPGJGB@?$AAa?$AAz?$AA?9?$AAa?$AAz?$AA?9?$AAc?$AAy?$AAr?$AAl?$AA?$AA@ 10074c4c     libucrt:lcidtoname_downlevel.obj
 0002:00009c68       ??_C@_1BG@IBCKDDOE@?$AAa?$AAz?$AA?9?$AAa?$AAz?$AA?9?$AAl?$AAa?$AAt?$AAn?$AA?$AA@ 10074c68     libucrt:lcidtoname_downlevel.obj
 0002:00009c84       ??_C@_1M@EGPFDCPD@?$AAb?$AAe?$AA?9?$AAb?$AAy?$AA?$AA@ 10074c84     libucrt:lcidtoname_downlevel.obj
 0002:00009c94       ??_C@_1M@PCMGMCGC@?$AAb?$AAg?$AA?9?$AAb?$AAg?$AA?$AA@ 10074c94     libucrt:lcidtoname_downlevel.obj
 0002:00009ca4       ??_C@_1M@BJBMFGOB@?$AAb?$AAn?$AA?9?$AAi?$AAn?$AA?$AA@ 10074ca4     libucrt:lcidtoname_downlevel.obj
 0002:00009cb4       ??_C@_1BG@EAKMMACD@?$AAb?$AAs?$AA?9?$AAb?$AAa?$AA?9?$AAl?$AAa?$AAt?$AAn?$AA?$AA@ 10074cb4     libucrt:lcidtoname_downlevel.obj
 0002:00009cd0       ??_C@_1M@KGADAODK@?$AAc?$AAa?$AA?9?$AAe?$AAs?$AA?$AA@ 10074cd0     libucrt:lcidtoname_downlevel.obj
 0002:00009ce0       ??_C@_1M@COAJPDHI@?$AAc?$AAs?$AA?9?$AAc?$AAz?$AA?$AA@ 10074ce0     libucrt:lcidtoname_downlevel.obj
 0002:00009cf0       ??_C@_1M@DHBHFONH@?$AAc?$AAy?$AA?9?$AAg?$AAb?$AA?$AA@ 10074cf0     libucrt:lcidtoname_downlevel.obj
 0002:00009d00       ??_C@_1M@IMGKELGA@?$AAd?$AAa?$AA?9?$AAd?$AAk?$AA?$AA@ 10074d00     libucrt:lcidtoname_downlevel.obj
 0002:00009d10       ??_C@_1M@NNDGDNGA@?$AAd?$AAe?$AA?9?$AAa?$AAt?$AA?$AA@ 10074d10     libucrt:lcidtoname_downlevel.obj
 0002:00009d20       ??_C@_1M@IKDBHEEM@?$AAd?$AAe?$AA?9?$AAc?$AAh?$AA?$AA@ 10074d20     libucrt:lcidtoname_downlevel.obj
 0002:00009d30       ??_C@_1M@GFFOJMCJ@?$AAd?$AAe?$AA?9?$AAd?$AAe?$AA?$AA@ 10074d30     libucrt:lcidtoname_downlevel.obj
 0002:00009d40       ??_C@_1M@MDNLKBPM@?$AAd?$AAe?$AA?9?$AAl?$AAi?$AA?$AA@ 10074d40     libucrt:lcidtoname_downlevel.obj
 0002:00009d50       ??_C@_1M@NJBEEJNL@?$AAd?$AAe?$AA?9?$AAl?$AAu?$AA?$AA@ 10074d50     libucrt:lcidtoname_downlevel.obj
 0002:00009d60       ??_C@_1O@GNNELBAP@?$AAd?$AAi?$AAv?$AA?9?$AAm?$AAv?$AA?$AA@ 10074d60     libucrt:lcidtoname_downlevel.obj
 0002:00009d70       ??_C@_1M@EJLEOGAE@?$AAe?$AAl?$AA?9?$AAg?$AAr?$AA?$AA@ 10074d70     libucrt:lcidtoname_downlevel.obj
 0002:00009d80       ??_C@_1M@GMPONJN@?$AAe?$AAn?$AA?9?$AAa?$AAu?$AA?$AA@ 10074d80     libucrt:lcidtoname_downlevel.obj
 0002:00009d90       ??_C@_1M@NIDIIPGF@?$AAe?$AAn?$AA?9?$AAb?$AAz?$AA?$AA@ 10074d90     libucrt:lcidtoname_downlevel.obj
 0002:00009da0       ??_C@_1M@JEHMIMFO@?$AAe?$AAn?$AA?9?$AAc?$AAa?$AA?$AA@ 10074da0     libucrt:lcidtoname_downlevel.obj
 0002:00009db0       ??_C@_1M@IGMJCDLA@?$AAe?$AAn?$AA?9?$AAc?$AAb?$AA?$AA@ 10074db0     libucrt:lcidtoname_downlevel.obj
 0002:00009dc0       ??_C@_1M@BNFIGBKG@?$AAe?$AAn?$AA?9?$AAg?$AAb?$AA?$AA@ 10074dc0     libucrt:lcidtoname_downlevel.obj
 0002:00009dd0       ??_C@_1M@LKIFDIGP@?$AAe?$AAn?$AA?9?$AAi?$AAe?$AA?$AA@ 10074dd0     libucrt:lcidtoname_downlevel.obj
 0002:00009de0       ??_C@_1M@PJKFGCCO@?$AAe?$AAn?$AA?9?$AAj?$AAm?$AA?$AA@ 10074de0     libucrt:lcidtoname_downlevel.obj
 0002:00009df0       ??_C@_1M@KPPKEPBO@?$AAe?$AAn?$AA?9?$AAn?$AAz?$AA?$AA@ 10074df0     libucrt:lcidtoname_downlevel.obj
 0002:00009e00       ??_C@_1M@GMDGLDOB@?$AAe?$AAn?$AA?9?$AAp?$AAh?$AA?$AA@ 10074e00     libucrt:lcidtoname_downlevel.obj
 0002:00009e10       ??_C@_1M@ONGIBJNA@?$AAe?$AAn?$AA?9?$AAt?$AAt?$AA?$AA@ 10074e10     libucrt:lcidtoname_downlevel.obj
 0002:00009e20       ??_C@_1M@LLODPCMM@?$AAe?$AAn?$AA?9?$AAu?$AAs?$AA?$AA@ 10074e20     libucrt:lcidtoname_downlevel.obj
 0002:00009e30       ??_C@_1M@LAKFNPAN@?$AAe?$AAn?$AA?9?$AAz?$AAa?$AA?$AA@ 10074e30     libucrt:lcidtoname_downlevel.obj
 0002:00009e40       ??_C@_1M@MFNHNHEO@?$AAe?$AAn?$AA?9?$AAz?$AAw?$AA?$AA@ 10074e40     libucrt:lcidtoname_downlevel.obj
 0002:00009e50       ??_C@_1M@EJEINPHM@?$AAe?$AAs?$AA?9?$AAa?$AAr?$AA?$AA@ 10074e50     libucrt:lcidtoname_downlevel.obj
 0002:00009e60       ??_C@_1M@GNKPCCJA@?$AAe?$AAs?$AA?9?$AAb?$AAo?$AA?$AA@ 10074e60     libucrt:lcidtoname_downlevel.obj
 0002:00009e70       ??_C@_1M@LEEGFONL@?$AAe?$AAs?$AA?9?$AAc?$AAl?$AA?$AA@ 10074e70     libucrt:lcidtoname_downlevel.obj
 0002:00009e80       ??_C@_1M@KGPDPBDF@?$AAe?$AAs?$AA?9?$AAc?$AAo?$AA?$AA@ 10074e80     libucrt:lcidtoname_downlevel.obj
 0002:00009e90       ??_C@_1M@EIAHOHH@?$AAe?$AAs?$AA?9?$AAc?$AAr?$AA?$AA@ 10074e90     libucrt:lcidtoname_downlevel.obj
 0002:00009ea0       ??_C@_1M@LLPGMBIN@?$AAe?$AAs?$AA?9?$AAd?$AAo?$AA?$AA@ 10074ea0     libucrt:lcidtoname_downlevel.obj
 0002:00009eb0       ??_C@_1M@DKHMKNJA@?$AAe?$AAs?$AA?9?$AAe?$AAc?$AA?$AA@ 10074eb0     libucrt:lcidtoname_downlevel.obj
 0002:00009ec0       ??_C@_1M@GKGFPKAP@?$AAe?$AAs?$AA?9?$AAe?$AAs?$AA?$AA@ 10074ec0     libucrt:lcidtoname_downlevel.obj
 0002:00009ed0       ??_C@_1M@LKHKGDLN@?$AAe?$AAs?$AA?9?$AAg?$AAt?$AA?$AA@ 10074ed0     libucrt:lcidtoname_downlevel.obj
 0002:00009ee0       ??_C@_1M@HEIIGGJD@?$AAe?$AAs?$AA?9?$AAh?$AAn?$AA?$AA@ 10074ee0     libucrt:lcidtoname_downlevel.obj
 0002:00009ef0       ??_C@_1M@FBDHPPGD@?$AAe?$AAs?$AA?9?$AAm?$AAx?$AA?$AA@ 10074ef0     libucrt:lcidtoname_downlevel.obj
 0002:00009f00       ??_C@_1M@DPAGLNDH@?$AAe?$AAs?$AA?9?$AAn?$AAi?$AA?$AA@ 10074f00     libucrt:lcidtoname_downlevel.obj
 0002:00009f10       ??_C@_1M@MDGOPGDD@?$AAe?$AAs?$AA?9?$AAp?$AAa?$AA?$AA@ 10074f10     libucrt:lcidtoname_downlevel.obj
 0002:00009f20       ??_C@_1M@EMAMGBGE@?$AAe?$AAs?$AA?9?$AAp?$AAe?$AA?$AA@ 10074f20     libucrt:lcidtoname_downlevel.obj
 0002:00009f30       ??_C@_1M@IBMCAOEC@?$AAe?$AAs?$AA?9?$AAp?$AAr?$AA?$AA@ 10074f30     libucrt:lcidtoname_downlevel.obj
 0002:00009f40       ??_C@_1M@FGMDIJED@?$AAe?$AAs?$AA?9?$AAp?$AAy?$AA?$AA@ 10074f40     libucrt:lcidtoname_downlevel.obj
 0002:00009f50       ??_C@_1M@IIDEOLLL@?$AAe?$AAs?$AA?9?$AAs?$AAv?$AA?$AA@ 10074f50     libucrt:lcidtoname_downlevel.obj
 0002:00009f60       ??_C@_1M@GAOBIPA@?$AAe?$AAs?$AA?9?$AAu?$AAy?$AA?$AA@ 10074f60     libucrt:lcidtoname_downlevel.obj
 0002:00009f70       ??_C@_1M@JKFFICHJ@?$AAe?$AAs?$AA?9?$AAv?$AAe?$AA?$AA@ 10074f70     libucrt:lcidtoname_downlevel.obj
 0002:00009f80       ??_C@_1M@PNMLOJDF@?$AAe?$AAt?$AA?9?$AAe?$AAe?$AA?$AA@ 10074f80     libucrt:lcidtoname_downlevel.obj
 0002:00009f90       ??_C@_1M@GHHLIKEI@?$AAe?$AAu?$AA?9?$AAe?$AAs?$AA?$AA@ 10074f90     libucrt:lcidtoname_downlevel.obj
 0002:00009fa0       ??_C@_1M@PBNONODE@?$AAf?$AAa?$AA?9?$AAi?$AAr?$AA?$AA@ 10074fa0     libucrt:lcidtoname_downlevel.obj
 0002:00009fb0       ??_C@_1M@JEEHPMIL@?$AAf?$AAi?$AA?9?$AAf?$AAi?$AA?$AA@ 10074fb0     libucrt:lcidtoname_downlevel.obj
 0002:00009fc0       ??_C@_1M@LMDCNDBA@?$AAf?$AAo?$AA?9?$AAf?$AAo?$AA?$AA@ 10074fc0     libucrt:lcidtoname_downlevel.obj
 0002:00009fd0       ??_C@_1M@JKEOHLDK@?$AAf?$AAr?$AA?9?$AAb?$AAe?$AA?$AA@ 10074fd0     libucrt:lcidtoname_downlevel.obj
 0002:00009fe0       ??_C@_1M@NOHADPMI@?$AAf?$AAr?$AA?9?$AAc?$AAa?$AA?$AA@ 10074fe0     libucrt:lcidtoname_downlevel.obj
 0002:00009ff0       ??_C@_1M@KDHIHAEC@?$AAf?$AAr?$AA?9?$AAc?$AAh?$AA?$AA@ 10074ff0     libucrt:lcidtoname_downlevel.obj
 0002:0000a000       ??_C@_1M@MMBBFGAK@?$AAf?$AAr?$AA?9?$AAf?$AAr?$AA?$AA@ 10075000     libucrt:lcidtoname_downlevel.obj
 0002:0000a010       ??_C@_1M@PAFNENNF@?$AAf?$AAr?$AA?9?$AAl?$AAu?$AA?$AA@ 10075010     libucrt:lcidtoname_downlevel.obj
 0002:0000a020       ??_C@_1M@EOHDJGDD@?$AAf?$AAr?$AA?9?$AAm?$AAc?$AA?$AA@ 10075020     libucrt:lcidtoname_downlevel.obj
 0002:0000a030       ??_C@_1M@FAPLLOPF@?$AAg?$AAl?$AA?9?$AAe?$AAs?$AA?$AA@ 10075030     libucrt:lcidtoname_downlevel.obj
 0002:0000a040       ??_C@_1M@FOPBFLOO@?$AAg?$AAu?$AA?9?$AAi?$AAn?$AA?$AA@ 10075040     libucrt:lcidtoname_downlevel.obj
 0002:0000a050       ??_C@_1M@KBMCINPM@?$AAh?$AAe?$AA?9?$AAi?$AAl?$AA?$AA@ 10075050     libucrt:lcidtoname_downlevel.obj
 0002:0000a060       ??_C@_1M@BBPHKFPJ@?$AAh?$AAi?$AA?9?$AAi?$AAn?$AA?$AA@ 10075060     libucrt:lcidtoname_downlevel.obj
 0002:0000a070       ??_C@_1M@PMBNDPHD@?$AAh?$AAr?$AA?9?$AAb?$AAa?$AA?$AA@ 10075070     libucrt:lcidtoname_downlevel.obj
 0002:0000a080       ??_C@_1M@BPCKOEGE@?$AAh?$AAr?$AA?9?$AAh?$AAr?$AA?$AA@ 10075080     libucrt:lcidtoname_downlevel.obj
 0002:0000a090       ??_C@_1M@GACBMHKE@?$AAh?$AAu?$AA?9?$AAh?$AAu?$AA?$AA@ 10075090     libucrt:lcidtoname_downlevel.obj
 0002:0000a0a0       ??_C@_1M@MILPAJJC@?$AAh?$AAy?$AA?9?$AAa?$AAm?$AA?$AA@ 100750a0     libucrt:lcidtoname_downlevel.obj
 0002:0000a0b0       ??_C@_1M@BABBICEC@?$AAi?$AAd?$AA?9?$AAi?$AAd?$AA?$AA@ 100750b0     libucrt:lcidtoname_downlevel.obj
 0002:0000a0c0       ??_C@_1M@BIKNHHPF@?$AAi?$AAs?$AA?9?$AAi?$AAs?$AA?$AA@ 100750c0     libucrt:lcidtoname_downlevel.obj
 0002:0000a0d0       ??_C@_1M@NMPCJPHE@?$AAi?$AAt?$AA?9?$AAc?$AAh?$AA?$AA@ 100750d0     libucrt:lcidtoname_downlevel.obj
 0002:0000a0e0       ??_C@_1M@GHKGFEDF@?$AAi?$AAt?$AA?9?$AAi?$AAt?$AA?$AA@ 100750e0     libucrt:lcidtoname_downlevel.obj
 0002:0000a0f0       ??_C@_1M@NIEJCJJA@?$AAj?$AAa?$AA?9?$AAj?$AAp?$AA?$AA@ 100750f0     libucrt:lcidtoname_downlevel.obj
 0002:0000a100       ??_C@_1M@JILFNBIM@?$AAk?$AAa?$AA?9?$AAg?$AAe?$AA?$AA@ 10075100     libucrt:lcidtoname_downlevel.obj
 0002:0000a110       ??_C@_1M@PACPMGPH@?$AAk?$AAk?$AA?9?$AAk?$AAz?$AA?$AA@ 10075110     libucrt:lcidtoname_downlevel.obj
 0002:0000a120       ??_C@_1M@IELFGMHA@?$AAk?$AAn?$AA?9?$AAi?$AAn?$AA?$AA@ 10075120     libucrt:lcidtoname_downlevel.obj
 0002:0000a130       ??_C@_1O@IBBJHCH@?$AAk?$AAo?$AAk?$AA?9?$AAi?$AAn?$AA?$AA@ 10075130     libucrt:lcidtoname_downlevel.obj
 0002:0000a140       ??_C@_1M@DMHAEOGC@?$AAk?$AAo?$AA?9?$AAk?$AAr?$AA?$AA@ 10075140     libucrt:lcidtoname_downlevel.obj
 0002:0000a150       ??_C@_1M@HBAHBIGA@?$AAk?$AAy?$AA?9?$AAk?$AAg?$AA?$AA@ 10075150     libucrt:lcidtoname_downlevel.obj
 0002:0000a160       ??_C@_1M@KPMILCJG@?$AAl?$AAt?$AA?9?$AAl?$AAt?$AA?$AA@ 10075160     libucrt:lcidtoname_downlevel.obj
 0002:0000a170       ??_C@_1M@BDEKKCA@?$AAl?$AAv?$AA?9?$AAl?$AAv?$AA?$AA@ 10075170     libucrt:lcidtoname_downlevel.obj
 0002:0000a180       ??_C@_1M@ELCKCCJJ@?$AAm?$AAi?$AA?9?$AAn?$AAz?$AA?$AA@ 10075180     libucrt:lcidtoname_downlevel.obj
 0002:0000a190       ??_C@_1M@CBOOLAPA@?$AAm?$AAk?$AA?9?$AAm?$AAk?$AA?$AA@ 10075190     libucrt:lcidtoname_downlevel.obj
 0002:0000a1a0       ??_C@_1M@GPHNBJKN@?$AAm?$AAl?$AA?9?$AAi?$AAn?$AA?$AA@ 100751a0     libucrt:lcidtoname_downlevel.obj
 0002:0000a1b0       ??_C@_1M@PABJILIG@?$AAm?$AAn?$AA?9?$AAm?$AAn?$AA?$AA@ 100751b0     libucrt:lcidtoname_downlevel.obj
 0002:0000a1c0       ??_C@_1M@FGBKKIPG@?$AAm?$AAr?$AA?9?$AAi?$AAn?$AA?$AA@ 100751c0     libucrt:lcidtoname_downlevel.obj
 0002:0000a1d0       ??_C@_1M@NDBPDDAL@?$AAm?$AAs?$AA?9?$AAb?$AAn?$AA?$AA@ 100751d0     libucrt:lcidtoname_downlevel.obj
 0002:0000a1e0       ??_C@_1M@OPIHOOPI@?$AAm?$AAs?$AA?9?$AAm?$AAy?$AA?$AA@ 100751e0     libucrt:lcidtoname_downlevel.obj
 0002:0000a1f0       ??_C@_1M@PPDBCNFM@?$AAm?$AAt?$AA?9?$AAm?$AAt?$AA?$AA@ 100751f0     libucrt:lcidtoname_downlevel.obj
 0002:0000a200       ??_C@_1M@KDJDKMDD@?$AAn?$AAb?$AA?9?$AAn?$AAo?$AA?$AA@ 10075200     libucrt:lcidtoname_downlevel.obj
 0002:0000a210       ??_C@_1M@KFCFLMJP@?$AAn?$AAl?$AA?9?$AAb?$AAe?$AA?$AA@ 10075210     libucrt:lcidtoname_downlevel.obj
 0002:0000a220       ??_C@_1M@KPOPDDGO@?$AAn?$AAl?$AA?9?$AAn?$AAl?$AA?$AA@ 10075220     libucrt:lcidtoname_downlevel.obj
 0002:0000a230       ??_C@_1M@LJKPEMLN@?$AAn?$AAn?$AA?9?$AAn?$AAo?$AA?$AA@ 10075230     libucrt:lcidtoname_downlevel.obj
 0002:0000a240       ??_C@_1M@BDGHHBFL@?$AAn?$AAs?$AA?9?$AAz?$AAa?$AA?$AA@ 10075240     libucrt:lcidtoname_downlevel.obj
 0002:0000a250       ??_C@_1M@IDEHOAP@?$AAp?$AAa?$AA?9?$AAi?$AAn?$AA?$AA@ 10075250     libucrt:lcidtoname_downlevel.obj
 0002:0000a260       ??_C@_1M@HDBKGOGH@?$AAp?$AAl?$AA?9?$AAp?$AAl?$AA?$AA@ 10075260     libucrt:lcidtoname_downlevel.obj
 0002:0000a270       ??_C@_1M@LJLLCMEH@?$AAp?$AAt?$AA?9?$AAb?$AAr?$AA?$AA@ 10075270     libucrt:lcidtoname_downlevel.obj
 0002:0000a280       ??_C@_1M@NCMONAAL@?$AAp?$AAt?$AA?9?$AAp?$AAt?$AA?$AA@ 10075280     libucrt:lcidtoname_downlevel.obj
 0002:0000a290       ??_C@_1O@EAKMAJDN@?$AAq?$AAu?$AAz?$AA?9?$AAb?$AAo?$AA?$AA@ 10075290     libucrt:lcidtoname_downlevel.obj
 0002:0000a2a0       ??_C@_1O@BHHPIGDN@?$AAq?$AAu?$AAz?$AA?9?$AAe?$AAc?$AA?$AA@ 100752a0     libucrt:lcidtoname_downlevel.obj
 0002:0000a2b0       ??_C@_1O@GBAPEKMJ@?$AAq?$AAu?$AAz?$AA?9?$AAp?$AAe?$AA?$AA@ 100752b0     libucrt:lcidtoname_downlevel.obj
 0002:0000a2c0       ??_C@_1M@CLGLEFBO@?$AAr?$AAo?$AA?9?$AAr?$AAo?$AA?$AA@ 100752c0     libucrt:lcidtoname_downlevel.obj
 0002:0000a2d0       ??_C@_1M@CEEDODME@?$AAr?$AAu?$AA?9?$AAr?$AAu?$AA?$AA@ 100752d0     libucrt:lcidtoname_downlevel.obj
 0002:0000a2e0       ??_C@_1M@HPKKKMPP@?$AAs?$AAa?$AA?9?$AAi?$AAn?$AA?$AA@ 100752e0     libucrt:lcidtoname_downlevel.obj
 0002:0000a2f0       ??_C@_1M@BKMAIGOJ@?$AAs?$AAe?$AA?9?$AAf?$AAi?$AA?$AA@ 100752f0     libucrt:lcidtoname_downlevel.obj
 0002:0000a300       ??_C@_1M@NDPIFLFI@?$AAs?$AAe?$AA?9?$AAn?$AAo?$AA?$AA@ 10075300     libucrt:lcidtoname_downlevel.obj
 0002:0000a310       ??_C@_1M@DANKKHJ@?$AAs?$AAe?$AA?9?$AAs?$AAe?$AA?$AA@ 10075310     libucrt:lcidtoname_downlevel.obj
 0002:0000a320       ??_C@_1M@PNBLONPJ@?$AAs?$AAk?$AA?9?$AAs?$AAk?$AA?$AA@ 10075320     libucrt:lcidtoname_downlevel.obj
 0002:0000a330       ??_C@_1M@LFMODOAL@?$AAs?$AAl?$AA?9?$AAs?$AAi?$AA?$AA@ 10075330     libucrt:lcidtoname_downlevel.obj
 0002:0000a340       ??_C@_1O@DFKOMPG@?$AAs?$AAm?$AAa?$AA?9?$AAn?$AAo?$AA?$AA@ 10075340     libucrt:lcidtoname_downlevel.obj
 0002:0000a350       ??_C@_1O@NDKPBNNH@?$AAs?$AAm?$AAa?$AA?9?$AAs?$AAe?$AA?$AA@ 10075350     libucrt:lcidtoname_downlevel.obj
 0002:0000a360       ??_C@_1O@PLLKBHAB@?$AAs?$AAm?$AAj?$AA?9?$AAn?$AAo?$AA?$AA@ 10075360     libucrt:lcidtoname_downlevel.obj
 0002:0000a370       ??_C@_1O@CLEPOGCA@?$AAs?$AAm?$AAj?$AA?9?$AAs?$AAe?$AA?$AA@ 10075370     libucrt:lcidtoname_downlevel.obj
 0002:0000a380       ??_C@_1O@DLGJGKMK@?$AAs?$AAm?$AAn?$AA?9?$AAf?$AAi?$AA?$AA@ 10075380     libucrt:lcidtoname_downlevel.obj
 0002:0000a390       ??_C@_1O@OJDJGAJC@?$AAs?$AAm?$AAs?$AA?9?$AAf?$AAi?$AA?$AA@ 10075390     libucrt:lcidtoname_downlevel.obj
 0002:0000a3a0       ??_C@_1M@BOFOGHPB@?$AAs?$AAq?$AA?9?$AAa?$AAl?$AA?$AA@ 100753a0     libucrt:lcidtoname_downlevel.obj
 0002:0000a3b0       ??_C@_1BG@LJBBIPGB@?$AAs?$AAr?$AA?9?$AAb?$AAa?$AA?9?$AAc?$AAy?$AAr?$AAl?$AA?$AA@ 100753b0     libucrt:lcidtoname_downlevel.obj
 0002:0000a3cc       ??_C@_1BG@JLBENFOE@?$AAs?$AAr?$AA?9?$AAb?$AAa?$AA?9?$AAl?$AAa?$AAt?$AAn?$AA?$AA@ 100753cc     libucrt:lcidtoname_downlevel.obj
 0002:0000a3e8       ??_C@_1BG@KODPNHE@?$AAs?$AAr?$AA?9?$AAs?$AAp?$AA?9?$AAc?$AAy?$AAr?$AAl?$AA?$AA@ 100753e8     libucrt:lcidtoname_downlevel.obj
 0002:0000a404       ??_C@_1BG@CIOGKHPB@?$AAs?$AAr?$AA?9?$AAs?$AAp?$AA?9?$AAl?$AAa?$AAt?$AAn?$AA?$AA@ 10075404     libucrt:lcidtoname_downlevel.obj
 0002:0000a420       ??_C@_1M@NGFJLMAC@?$AAs?$AAv?$AA?9?$AAf?$AAi?$AA?$AA@ 10075420     libucrt:lcidtoname_downlevel.obj
 0002:0000a430       ??_C@_1M@MPJEJAJC@?$AAs?$AAv?$AA?9?$AAs?$AAe?$AA?$AA@ 10075430     libucrt:lcidtoname_downlevel.obj
 0002:0000a440       ??_C@_1M@MPNDHLFK@?$AAs?$AAw?$AA?9?$AAk?$AAe?$AA?$AA@ 10075440     libucrt:lcidtoname_downlevel.obj
 0002:0000a450       ??_C@_1O@KOHBJJI@?$AAs?$AAy?$AAr?$AA?9?$AAs?$AAy?$AA?$AA@ 10075450     libucrt:lcidtoname_downlevel.obj
 0002:0000a460       ??_C@_1M@LDCEFHA@?$AAt?$AAa?$AA?9?$AAi?$AAn?$AA?$AA@ 10075460     libucrt:lcidtoname_downlevel.obj
 0002:0000a470       ??_C@_1M@CNJOFAK@?$AAt?$AAe?$AA?9?$AAi?$AAn?$AA?$AA@ 10075470     libucrt:lcidtoname_downlevel.obj
 0002:0000a480       ??_C@_1M@GNAECACD@?$AAt?$AAh?$AA?9?$AAt?$AAh?$AA?$AA@ 10075480     libucrt:lcidtoname_downlevel.obj
 0002:0000a490       ??_C@_1M@CHBIHOJO@?$AAt?$AAn?$AA?9?$AAz?$AAa?$AA?$AA@ 10075490     libucrt:lcidtoname_downlevel.obj
 0002:0000a4a0       ??_C@_1M@GCCMIGPJ@?$AAt?$AAr?$AA?9?$AAt?$AAr?$AA?$AA@ 100754a0     libucrt:lcidtoname_downlevel.obj
 0002:0000a4b0       ??_C@_1M@CELMCNBK@?$AAt?$AAt?$AA?9?$AAr?$AAu?$AA?$AA@ 100754b0     libucrt:lcidtoname_downlevel.obj
 0002:0000a4c0       ??_C@_1M@KLMCELGA@?$AAu?$AAk?$AA?9?$AAu?$AAa?$AA?$AA@ 100754c0     libucrt:lcidtoname_downlevel.obj
 0002:0000a4d0       ??_C@_1M@EPAJJAJF@?$AAu?$AAr?$AA?9?$AAp?$AAk?$AA?$AA@ 100754d0     libucrt:lcidtoname_downlevel.obj
 0002:0000a4e0       ??_C@_1BG@GEGPMCDJ@?$AAu?$AAz?$AA?9?$AAu?$AAz?$AA?9?$AAc?$AAy?$AAr?$AAl?$AA?$AA@ 100754e0     libucrt:lcidtoname_downlevel.obj
 0002:0000a4fc       ??_C@_1BG@EGGKJILM@?$AAu?$AAz?$AA?9?$AAu?$AAz?$AA?9?$AAl?$AAa?$AAt?$AAn?$AA?$AA@ 100754fc     libucrt:lcidtoname_downlevel.obj
 0002:0000a518       ??_C@_1M@GFOCLFF@?$AAv?$AAi?$AA?9?$AAv?$AAn?$AA?$AA@ 10075518     libucrt:lcidtoname_downlevel.obj
 0002:0000a528       ??_C@_1M@CPAMEDFI@?$AAx?$AAh?$AA?9?$AAz?$AAa?$AA?$AA@ 10075528     libucrt:lcidtoname_downlevel.obj
 0002:0000a538       ??_C@_1O@EBKIFIGN@?$AAz?$AAh?$AA?9?$AAc?$AAh?$AAs?$AA?$AA@ 10075538     libucrt:lcidtoname_downlevel.obj
 0002:0000a548       ??_C@_1O@NMHPGANE@?$AAz?$AAh?$AA?9?$AAc?$AAh?$AAt?$AA?$AA@ 10075548     libucrt:lcidtoname_downlevel.obj
 0002:0000a558       ??_C@_1M@LPINJOMC@?$AAz?$AAh?$AA?9?$AAc?$AAn?$AA?$AA@ 10075558     libucrt:lcidtoname_downlevel.obj
 0002:0000a568       ??_C@_1M@OCJEJODD@?$AAz?$AAh?$AA?9?$AAh?$AAk?$AA?$AA@ 10075568     libucrt:lcidtoname_downlevel.obj
 0002:0000a578       ??_C@_1M@DNDLJINH@?$AAz?$AAh?$AA?9?$AAm?$AAo?$AA?$AA@ 10075578     libucrt:lcidtoname_downlevel.obj
 0002:0000a588       ??_C@_1M@MBFDNDND@?$AAz?$AAh?$AA?9?$AAs?$AAg?$AA?$AA@ 10075588     libucrt:lcidtoname_downlevel.obj
 0002:0000a598       ??_C@_1M@IMEPLEPE@?$AAz?$AAh?$AA?9?$AAt?$AAw?$AA?$AA@ 10075598     libucrt:lcidtoname_downlevel.obj
 0002:0000a5a8       ??_C@_1M@BBGHNHJP@?$AAz?$AAu?$AA?9?$AAz?$AAa?$AA?$AA@ 100755a8     libucrt:lcidtoname_downlevel.obj
 0002:0000a5b8       ___acrt_rg_language        100755b8     libucrt:get_qualified_locale.obj
 0002:0000a960       ___acrt_rg_language_count  10075960     libucrt:get_qualified_locale.obj
 0002:0000a968       ___acrt_rg_country         10075968     libucrt:get_qualified_locale.obj
 0002:0000aab4       ___acrt_rg_country_count   10075ab4     libucrt:get_qualified_locale.obj
 0002:0000aab8       ??_C@_1BC@LLOKLNP@?$AAa?$AAm?$AAe?$AAr?$AAi?$AAc?$AAa?$AAn?$AA?$AA@ 10075ab8     libucrt:get_qualified_locale.obj
 0002:0000aad0       ??_C@_1CC@HEIGCDGG@?$AAa?$AAm?$AAe?$AAr?$AAi?$AAc?$AAa?$AAn?$AA?5?$AAe?$AAn?$AAg?$AAl?$AAi?$AAs?$AAh?$AA?$AA@ 10075ad0     libucrt:get_qualified_locale.obj
 0002:0000aaf8       ??_C@_1CC@IHCNOMIN@?$AAa?$AAm?$AAe?$AAr?$AAi?$AAc?$AAa?$AAn?$AA?9?$AAe?$AAn?$AAg?$AAl?$AAi?$AAs?$AAh?$AA?$AA@ 10075af8     libucrt:get_qualified_locale.obj
 0002:0000ab20       ??_C@_1BG@GKAGPCGG@?$AAa?$AAu?$AAs?$AAt?$AAr?$AAa?$AAl?$AAi?$AAa?$AAn?$AA?$AA@ 10075b20     libucrt:get_qualified_locale.obj
 0002:0000ab3c       ??_C@_1BA@GMENCENF@?$AAb?$AAe?$AAl?$AAg?$AAi?$AAa?$AAn?$AA?$AA@ 10075b3c     libucrt:get_qualified_locale.obj
 0002:0000ab50       ??_C@_1BC@PJMIIAAN@?$AAc?$AAa?$AAn?$AAa?$AAd?$AAi?$AAa?$AAn?$AA?$AA@ 10075b50     libucrt:get_qualified_locale.obj
 0002:0000ab68       ??_C@_17NOIMNFBF@?$AAc?$AAh?$AAh?$AA?$AA@ 10075b68     libucrt:get_qualified_locale.obj
 0002:0000ab74       ??_C@_17GGDALCHA@?$AAc?$AAh?$AAi?$AA?$AA@ 10075b74     libucrt:get_qualified_locale.obj
 0002:0000ab80       ??_C@_1BA@NPNJKIBL@?$AAc?$AAh?$AAi?$AAn?$AAe?$AAs?$AAe?$AA?$AA@ 10075b80     libucrt:get_qualified_locale.obj
