 homing_ldm_aggiornat_slrt

 Timestamp is 61bb4d1c (Thu Dec 16 15:28:44 2021)

 Preferred load address is 10000000

 Start         Length     Name                   Class
 0001:00000000 0006eb84H .text$mn                CODE
 0001:0006eb84 00001085H .text$x                 CODE
 0002:00000000 00000104H .CRT$XCA                DATA
 0002:00000104 00000104H .CRT$XCZ                DATA
 0002:00000208 00000104H .CRT$XIA                DATA
 0002:0000030c 00000110H .CRT$XIC                DATA
 0002:0000041c 00000104H .CRT$XIZ                DATA
 0002:00000520 00000104H .CRT$XPA                DATA
 0002:00000624 0000010cH .CRT$XPX                DATA
 0002:00000730 00000104H .CRT$XPXA               DATA
 0002:00000834 00000104H .CRT$XPZ                DATA
 0002:00000938 00000104H .CRT$XTA                DATA
 0002:00000a3c 00000104H .CRT$XTZ                DATA
 0002:00000b40 0000fdacH .rdata                  DATA
 0002:000108ec 00000444H .rdata$r                DATA
 0002:00010d30 00000128H .rdata$sxdata           DATA
 0002:00010e58 00000238H .rdata$zzzdbg           DATA
 0002:00011090 00000104H .rtc$IAA                DATA
 0002:00011194 00000104H .rtc$IZZ                DATA
 0002:00011298 00000104H .rtc$TAA                DATA
 0002:0001139c 00000104H .rtc$TZZ                DATA
 0002:000114a0 00000ce0H .xdata$x                DATA
 0002:00012180 000001f0H .edata                  DATA
 0003:00000000 00029654H .data                   DATA
 0003:00029654 0000024cH .data$r                 DATA
 0003:000298a0 00035d94H .bss                    DATA
 0004:00000000 000001b4H .idata$5                DATA
 0004:000001b4 00000014H .idata$2                DATA
 0004:000001c8 00000014H .idata$3                DATA
 0004:000001dc 000001b4H .idata$4                DATA
 0004:00000390 000007a2H .idata$6                DATA
 0005:00000000 00000104H .00cfg                  DATA

  Address         Publics by Value              Rva+Base       Lib:Object

 0000:00000000       ___hybrid_code_map         00000000     <absolute>
 0000:00000000       ___dynamic_value_reloc_table 00000000     <absolute>
 0000:00000000       ___guard_iat_count         00000000     <absolute>
 0000:00000000       ___hybrid_auxiliary_iat    00000000     <absolute>
 0000:00000000       ___guard_iat_table         00000000     <absolute>
 0000:00000000       ___enclave_config          00000000     <absolute>
 0000:00000000       ___guard_longjmp_count     00000000     <absolute>
 0000:00000000       ___guard_fids_count        00000000     <absolute>
 0000:00000000       ___hybrid_code_map_count   00000000     <absolute>
 0000:00000000       ___guard_fids_table        00000000     <absolute>
 0000:00000000       ___guard_longjmp_table     00000000     <absolute>
 0000:00000000       ___volatile_metadata       00000000     <absolute>
 0000:00000000       __except_list              00000000     <absolute>
 0000:00000008       ___safe_se_handler_count   00000008     <absolute>
 0000:00000100       ___guard_flags             00000100     <absolute>
 0000:00000000       ___ImageBase               10000000     <linker-defined>
 0001:00006500       _MdlInitialize             10007500 f   homing_ldm_aggiornat.obj
 0001:00006510       _MdlInitializeSampleTimes  10007510 f   homing_ldm_aggiornat.obj
 0001:00006520       _MdlInitializeSizes        10007520 f   homing_ldm_aggiornat.obj
 0001:00006530       _MdlOutputs                10007530 f   homing_ldm_aggiornat.obj
 0001:00006540       _MdlStart                  10007540 f   homing_ldm_aggiornat.obj
 0001:00006790       _MdlTerminate              10007790 f   homing_ldm_aggiornat.obj
 0001:00006840       _MdlUpdate                 10007840 f   homing_ldm_aggiornat.obj
 0001:00006a50       _homing_ldm_aggiornat      10007a50 f   homing_ldm_aggiornat.obj
 0001:00009cc0       _rt_mxCreateCharMatrixFromStrings 1000acc0 f   rt_matrx.obj
 0001:00009e20       _rt_mxCreateDoubleMatrix   1000ae20 f   rt_matrx.obj
 0001:00009e80       _rt_mxCreateNumericArray   1000ae80 f   rt_matrx.obj
 0001:00009ef0       _rt_mxCreateString         1000aef0 f   rt_matrx.obj
 0001:00009f80       _rt_mxDuplicateArray       1000af80 f   rt_matrx.obj
 0001:00009fe0       _rt_mxGetDimensions        1000afe0 f   rt_matrx.obj
 0001:0000a020       _rt_mxGetEps               1000b020 f   rt_matrx.obj
 0001:0000a030       _rt_mxGetString            1000b030 f   rt_matrx.obj
 0001:0000a0b0       _rtPrintfNoOp              1000b0b0 f   rt_printf.obj
 0001:0000a0c0       _homing_ldm_aggiornat_GetCAPIStaticMap 1000b0c0 f   homing_ldm_aggiornat_capi.obj
 0001:0000a0d0       _homing_ldm_aggiornat_InitializeDataMapInfo 1000b0d0 f   homing_ldm_aggiornat_capi.obj
 0001:0000a160       _rtGetInf                  1000b160 f   rtGetInf.obj
 0001:0000a190       _rtGetInfF                 1000b190 f   rtGetInf.obj
 0001:0000a1b0       _rtGetMinusInf             1000b1b0 f   rtGetInf.obj
 0001:0000a1e0       _rtGetMinusInfF            1000b1e0 f   rtGetInf.obj
 0001:0000a200       _rtGetNaN                  1000b200 f   rtGetNaN.obj
 0001:0000a230       _rtGetNaNF                 1000b230 f   rtGetNaN.obj
 0001:0000a250       _rtIsInf                   1000b250 f   rt_nonfinite.obj
 0001:0000a290       _rtIsInfF                  1000b290 f   rt_nonfinite.obj
 0001:0000a2d0       _rtIsNaN                   1000b2d0 f   rt_nonfinite.obj
 0001:0000a2e0       _rtIsNaNF                  1000b2e0 f   rt_nonfinite.obj
 0001:0000a2f0       _rt_InitInfAndNaN          1000b2f0 f   rt_nonfinite.obj
 0001:0000a350       _rt_CleanUpForStateLogWithMMI 1000b350 f   rt_logging_mmi.obj
 0001:0000a460       _rt_FillStateSigInfoFromMMI 1000b460 f   rt_logging_mmi.obj
 0001:0000a800       _rtwCAPI_CountSysRan       1000b800 f   rtw_modelmap_utils.obj
 0001:0000a8a0       _rtwCAPI_EncodePath        1000b8a0 f   rtw_modelmap_utils.obj
 0001:0000a9b0       _rtwCAPI_FillSysRan        1000b9b0 f   rtw_modelmap_utils.obj
 0001:0000aaa0       _rtwCAPI_FreeFullPaths     1000baa0 f   rtw_modelmap_utils.obj
 0001:0000ab30       _rtwCAPI_GetFullStateBlockPath 1000bb30 f   rtw_modelmap_utils.obj
 0001:0000acc0       _rtwCAPI_GetNumContStateRecords 1000bcc0 f   rtw_modelmap_utils.obj
 0001:0000ad80       _rtwCAPI_GetNumSigLogRecords 1000bd80 f   rtw_modelmap_utils.obj
 0001:0000add0       _rtwCAPI_GetNumSigLogRecordsForRTWLogging 1000bdd0 f   rtw_modelmap_utils.obj
 0001:0000ae70       _rtwCAPI_GetNumStateRecords 1000be70 f   rtw_modelmap_utils.obj
 0001:0000aec0       _rtwCAPI_GetNumStateRecordsForRTWLogging 1000bec0 f   rtw_modelmap_utils.obj
 0001:0000af60       _rtwCAPI_GetSigAddrFromMap 1000bf60 f   rtw_modelmap_utils.obj
 0001:0000b020       _rtwCAPI_GetSigLogRecordInfo 1000c020 f   rtw_modelmap_utils.obj
 0001:0000b450       _rtwCAPI_GetStateRecordInfo 1000c450 f   rtw_modelmap_utils.obj
 0001:0000b910       _rtwCAPI_GetStateWidth     1000c910 f   rtw_modelmap_utils.obj
 0001:0000b970       _rtwCAPI_HasStates         1000c970 f   rtw_modelmap_utils.obj
 0001:0000b9d0       _rtwCAPI_UpdateFullPaths   1000c9d0 f   rtw_modelmap_utils.obj
 0001:0000bbb0       ___local_stdio_printf_options 1000cbb0 f i rt_logging.obj
 0001:0000bbc0       __vfprintf_l               1000cbc0 f i rt_logging.obj
 0001:0000bbf0       __vsnprintf_l              1000cbf0 f i rt_logging.obj
 0001:0000bc30       __vsprintf_l               1000cc30 f i rt_logging.obj
 0001:0000bc70       _fprintf                   1000cc70 f i rt_logging.obj
 0001:0000c170       _printf                    1000d170 f i rt_logging.obj
 0001:0000c1b0       _rt_CreateLogVar           1000d1b0 f   rt_logging.obj
 0001:0000c240       _rt_CreateLogVarWithConvert 1000d240 f   rt_logging.obj
 0001:0000cb70       _rt_CreateStructLogVar     1000db70 f   rt_logging.obj
 0001:0000d8f0       _rt_GetMxIdFromDTypeId     1000e8f0 f   rt_logging.obj
 0001:0000d920       _rt_GetMxIdFromDTypeIdForRSim 1000e920 f   rt_logging.obj
 0001:000104b0       _rt_StartDataLogging       100114b0 f   rt_logging.obj
 0001:00010970       _rt_StartDataLoggingWithStartTime 10011970 f   rt_logging.obj
 0001:00010de0       _rt_StopDataLogging        10011de0 f   rt_logging.obj
 0001:00010e00       _rt_StopDataLoggingImpl    10011e00 f   rt_logging.obj
 0001:00011220       _rt_UpdateLogVar           10012220 f   rt_logging.obj
 0001:000123b0       _rt_UpdateStructLogVar     100133b0 f   rt_logging.obj
 0001:00012440       _rt_UpdateTXXFYLogVars     10013440 f   rt_logging.obj
 0001:00012770       _rt_UpdateTXYLogVars       10013770 f   rt_logging.obj
 0001:000129b0       _sprintf                   100139b0 f i rt_logging.obj
 0001:000129f0       _DllMain@12                100139f0 f   xpctarget.obj
 0001:00012a00       _SLRTSetErrorStatus        10013a00 f   xpctarget.obj
 0001:00012a20       _changeStepSize            10013a20 f   xpctarget.obj
 0001:00012a90       _getDLMVersion             10013a90 f   xpctarget.obj
 0001:00012aa0       _getRefMdlPath             10013aa0 f   xpctarget.obj
 0001:00012b20       _getRefMdlSignalNumber     10013b20 f   xpctarget.obj
 0001:00012bd0       _getrlmdlinfo              10013bd0 f   xpctarget.obj
 0001:00012db0       _homing_ldm_aggiornat_ChangeStepSize 10013db0 f   xpctarget.obj
 0001:00012e20       _updateDiscreteEvents      10013e20 f   xpctarget.obj
 0001:00012e30       _getNumRef                 10013e30 f   appmappingData.obj
 0001:00012e40       _vprintf                   10013e40 f i legacy_stdio.obj
 0001:00012e80       _danipcim                  10013e80 f   danipcim.obj
 0001:00013640       _dinipcim                  10014640 f   dinipcim.obj
 0001:00013a00       _donipcim                  10014a00 f   donipcim.obj
 0001:00013f10       _encnipcim                 10014f10 f   encnipcim.obj
 0001:000145d0       _niMIdentify               100155d0 f   xpcionim.obj
 0001:00014740       _niM_AISetup               10015740 f   xpcionim.obj
 0001:00014b50       _niM_AO_Setup              10015b50 f   xpcionim.obj
 0001:00014ce0       _niM_Cont_Pulse_Train_Generation 10015ce0 f   xpcionim.obj
 0001:00014e20       _niM_Counter_Reset_All     10015e20 f   xpcionim.obj
 0001:00014ed0       _niM_CtrArm                10015ed0 f   xpcionim.obj
 0001:00014ef0       _niM_CtrDisarm             10015ef0 f   xpcionim.obj
 0001:00014f10       _niM_CtrReadArm            10015f10 f   xpcionim.obj
 0001:00014f30       _niM_CtrReadDisarm         10015f30 f   xpcionim.obj
 0001:00014f50       _niM_PeriodConfigure       10015f50 f   xpcionim.obj
 0001:000150d0       _niM_Private_Data          100160d0 f   xpcionim.obj
 0001:000156b0       _niM_SetPFIFilter          100166b0 f   xpcionim.obj
 0001:00015730       _niM_SetPFI_DO             10016730 f   xpcionim.obj
 0001:00015770       _niM_SetPFI_Select         10016770 f   xpcionim.obj
 0001:000157f0       _niM_aiConfigureChannel    100167f0 f   xpcionim.obj
 0001:00015860       _niM_aiGetScalingCoefficients 10016860 f   xpcionim.obj
 0001:00015a30       _niM_aiPolynomialScaler    10016a30 f   xpcionim.obj
 0001:00015b60       _niM_analogTriggerReset    10016b60 f   xpcionim.obj
 0001:00015bb0       _niM_aoConfigureDAC        10016bb0 f   xpcionim.obj
 0001:00015c00       _niM_aoGetScalingCoefficients 10016c00 f   xpcionim.obj
 0001:00015cb0       _niM_aoLinearScaler        10016cb0 f   xpcionim.obj
 0001:00015ce0       _niM_configureTimebase     10016ce0 f   xpcionim.obj
 0001:00015d00       _niM_eepromReadMSeries     10016d00 f   xpcionim.obj
 0001:00015dd0       _niM_pllReset              10016dd0 f   xpcionim.obj
 0001:00015e00       _niM_resetCtr              10016e00 f   xpcionim.obj
 0001:00015e20       _niM_whichBank             10016e20 f   xpcionim.obj
 0001:00015e60       _niMconfig                 10016e60 f   xpcionim.obj
 0001:00015f00       _GetPCIDeviceFull          10016f00 f   xpcruntime:xpcimports.obj
 0001:00015f40       _ShowPCIDevice             10016f40 f   xpcruntime:xpcimports.obj
 0001:00016720       _xpcGetPciConfigAtSlot     10017720 f   xpcruntime:xpcimports.obj
 0001:00016a30       _xpcInitProcs              10017a30 f   xpcruntime:xpcimports.obj
 0001:00017d90       _xpceuploadevent           10018d90 f   xpcruntime:xpcimports.obj
 0001:00017da0       __ftoui3                   10018da0 f   LIBCMT:ftol3.obj
 0001:00017daf       __ftoul3                   10018daf f   LIBCMT:ftol3.obj
 0001:00017dbe       __ftol3                    10018dbe f   LIBCMT:ftol3.obj
 0001:00017dcb       __ftol3_NaN                10018dcb f   LIBCMT:ftol3.obj
 0001:00017de3       __ftol3_work               10018de3 f   LIBCMT:ftol3.obj
 0001:00017e69       __ftol3_common             10018e69 f   LIBCMT:ftol3.obj
 0001:00017f2b       __ftol3_arg_error          10018f2b f   LIBCMT:ftol3.obj
 0001:00017f3d       __ftol3_except             10018f3d f   LIBCMT:ftol3.obj
 0001:00017f81       __dtoui3                   10018f81 f   LIBCMT:ftol3.obj
 0001:00017f90       __dtoul3                   10018f90 f   LIBCMT:ftol3.obj
 0001:00017f9f       __dtol3                    10018f9f f   LIBCMT:ftol3.obj
 0001:00017fac       __dtol3_NaN                10018fac f   LIBCMT:ftol3.obj
 0001:00017fc9       __dtol3_work               10018fc9 f   LIBCMT:ftol3.obj
 0001:000180b0       __ultod3                   100190b0 f   LIBCMT:ftol3.obj
 0001:000180f0       __ltod3                    100190f0 f   LIBCMT:ftol3.obj
 0001:000181f4       ___raise_securityfailure   100191f4 f   LIBCMT:gs_report.obj
 0001:00018226       ___report_gsfailure        10019226 f   LIBCMT:gs_report.obj
 0001:0001835d       ___report_rangecheckfailure 1001935d f   LIBCMT:gs_report.obj
 0001:0001836c       ___report_securityfailure  1001936c f   LIBCMT:gs_report.obj
 0001:0001846d       ___report_securityfailureEx 1001946d f   LIBCMT:gs_report.obj
 0001:000185c6       @__security_check_cookie@4 100195c6 f   LIBCMT:secchk.obj
 0001:000185db       ___isa_available_init      100195db f   LIBCMT:cpu_disp.obj
 0001:00018bbc       __CRT_INIT@12              10019bbc f   LIBCMT:dll_dllmain.obj
 0001:00018bc7       __DllMainCRTStartup@12     10019bc7 f   LIBCMT:dll_dllmain.obj
 0001:00018c52       ___security_init_cookie    10019c52 f   LIBCMT:gs_support.obj
 0001:00018caf       ?__scrt_initialize_type_info@@YAXXZ 10019caf f   LIBCMT:tncleanup.obj
 0001:00018cbe       ?__scrt_uninitialize_type_info@@YAXXZ 10019cbe f   LIBCMT:tncleanup.obj
 0001:00018ccd       ___local_stdio_scanf_options 10019ccd f i LIBCMT:default_local_stdio_options.obj
 0001:00018cd3       ___scrt_initialize_default_local_stdio_options 10019cd3 f   LIBCMT:default_local_stdio_options.obj
 0001:00018cf7       ??$__crt_fast_decode_pointer@PAP6AXXZ@@YAPAP6AXXZQAP6AXXZ@Z 10019cf7 f i LIBCMT:utility.obj
 0001:00018d10       ??$__crt_fast_encode_pointer@PAP6AXXZ@@YAPAP6AXXZQAP6AXXZ@Z 10019d10 f i LIBCMT:utility.obj
 0001:00018d34       ?__crt_rotate_pointer_value@@YAIIH@Z 10019d34 f i LIBCMT:utility.obj
 0001:00018d44       ?configure_argv@__scrt_narrow_argv_policy@@SAHXZ 10019d44 f i LIBCMT:utility.obj
 0001:00018da9       ?initialize_environment@__scrt_narrow_environment_policy@@SAHXZ 10019da9 f i LIBCMT:utility.obj
 0001:00018def       _NtCurrentTeb              10019def f i LIBCMT:utility.obj
 0001:00018df6       ___scrt_acquire_startup_lock 10019df6 f   LIBCMT:utility.obj
 0001:00018e34       ___scrt_dllmain_after_initialize_c 10019e34 f   LIBCMT:utility.obj
 0001:00018e69       ___scrt_dllmain_before_initialize_c 10019e69 f   LIBCMT:utility.obj
 0001:00018e7a       ___scrt_dllmain_crt_thread_attach 10019e7a f   LIBCMT:utility.obj
 0001:00018ea0       ___scrt_dllmain_crt_thread_detach 10019ea0 f   LIBCMT:utility.obj
 0001:00018eb0       ___scrt_dllmain_exception_filter 10019eb0 f   LIBCMT:utility.obj
 0001:00018ef1       ___scrt_dllmain_uninitialize_c 10019ef1 f   LIBCMT:utility.obj
 0001:00018f1c       ___scrt_dllmain_uninitialize_critical 10019f1c f   LIBCMT:utility.obj
 0001:00018f2c       ___scrt_initialize_crt     10019f2c f   LIBCMT:utility.obj
 0001:00018f73       ___scrt_initialize_onexit_tables 10019f73 f   LIBCMT:utility.obj
 0001:00019041       ___scrt_is_nonwritable_in_current_image 1001a041 f   LIBCMT:utility.obj
 0001:000190fa       ___scrt_release_startup_lock 1001a0fa f   LIBCMT:utility.obj
 0001:0001911e       ___scrt_uninitialize_crt   1001a11e f   LIBCMT:utility.obj
 0001:00019150       __onexit                   1001a150 f   LIBCMT:utility.obj
 0001:00019199       _at_quick_exit             1001a199 f   LIBCMT:utility.obj
 0001:000191d6       _atexit                    1001a1d6 f   LIBCMT:utility.obj
 0001:000191f0       ___scrt_get_dyn_tls_init_callback 1001a1f0 f   LIBCMT:dyn_tls_init.obj
 0001:000191f6       ___scrt_fastfail           1001a1f6 f   LIBCMT:utility_desktop.obj
 0001:00019356       ___scrt_get_show_window_mode 1001a356 f   LIBCMT:utility_desktop.obj
 0001:00019393       ___scrt_initialize_mta     1001a393 f   LIBCMT:utility_desktop.obj
 0001:00019398       ___scrt_initialize_winrt   1001a398 f   LIBCMT:utility_desktop.obj
 0001:0001939b       ___scrt_is_managed_app     1001a39b f   LIBCMT:utility_desktop.obj
 0001:000193ee       ___scrt_set_unhandled_exception_filter 1001a3ee f   LIBCMT:utility_desktop.obj
 0001:000193fd       ___scrt_exe_initialize_mta 1001a3fd f   LIBCMT:utility_desktop.obj
 0001:000193fd       ___scrt_stub_for_initialize_mta 1001a3fd f   LIBCMT:utility_desktop.obj
 0001:00019400       ___scrt_unhandled_exception_filter@4 1001a400 f   LIBCMT:utility_desktop.obj
 0001:00019451       __crt_debugger_hook        1001a451 f   LIBCMT:utility_desktop.obj
 0001:0001945b       __RTC_Initialize           1001a45b f   LIBCMT:initsect.obj
 0001:00019492       __RTC_Terminate            1001a492 f   LIBCMT:initsect.obj
 0001:000194d0       __SEH_prolog4              1001a4d0 f   LIBCMT:sehprolg4.obj
 0001:00019516       __SEH_epilog4              1001a516 f   LIBCMT:sehprolg4.obj
 0001:00019541       @_guard_check_icall_nop@4  1001a541 f i LIBCMT:guard_support.obj
 0001:00019542       _ReadNoFence               1001a542 f i LIBCMT:guard_support.obj
 0001:0001954e       _ReadPointerNoFence        1001a54e f i LIBCMT:guard_support.obj
 0001:0001955a       __guard_icall_checks_enforced 1001a55a f i LIBCMT:guard_support.obj
 0001:00019570       __get_startup_argv_mode    1001a570 f   LIBCMT:argv_mode.obj
 0001:00019574       ___scrt_is_ucrt_dll_in_use 1001a574 f   LIBCMT:ucrt_detection.obj
 0001:00019583       _GetModuleHandleA@4        1001a583 f   kernel32:KERNEL32.dll
 0001:00019589       _GetProcAddress@8          1001a589 f   kernel32:KERNEL32.dll
 0001:0001958f       _UnhandledExceptionFilter@4 1001a58f f   kernel32:KERNEL32.dll
 0001:00019595       _SetUnhandledExceptionFilter@4 1001a595 f   kernel32:KERNEL32.dll
 0001:0001959b       _GetCurrentProcess@0       1001a59b f   kernel32:KERNEL32.dll
 0001:000195a1       _TerminateProcess@8        1001a5a1 f   kernel32:KERNEL32.dll
 0001:000195a7       _IsProcessorFeaturePresent@4 1001a5a7 f   kernel32:KERNEL32.dll
 0001:000195ad       _QueryPerformanceCounter@4 1001a5ad f   kernel32:KERNEL32.dll
 0001:000195b3       _GetCurrentProcessId@0     1001a5b3 f   kernel32:KERNEL32.dll
 0001:000195b9       _GetCurrentThreadId@0      1001a5b9 f   kernel32:KERNEL32.dll
 0001:000195bf       _GetSystemTimeAsFileTime@4 1001a5bf f   kernel32:KERNEL32.dll
 0001:000195c5       _InitializeSListHead@4     1001a5c5 f   kernel32:KERNEL32.dll
 0001:000195cb       _IsDebuggerPresent@0       1001a5cb f   kernel32:KERNEL32.dll
 0001:000195d1       _GetStartupInfoW@4         1001a5d1 f   kernel32:KERNEL32.dll
 0001:000195d7       _GetModuleHandleW@4        1001a5d7 f   kernel32:KERNEL32.dll
 0001:000195e0       _memcpy                    1001a5e0 f   libvcruntime:memcpy.obj
 0001:00019cc0       _memset                    1001acc0 f   libvcruntime:memset.obj
 0001:00019e70       _strchr                    1001ae70 f   libvcruntime:strchr.obj
 0001:00019ede       ___from_strstr_to_strchr   1001aede     libvcruntime:strchr.obj
 0001:00019ff0       _memmove                   1001aff0 f   libvcruntime:memmove.obj
 0001:0001a710       __except_handler4          1001b710 f   libvcruntime:chandler4.obj
 0001:0001a8cc       ??$?RD@__crt_internal_free_policy@@QBEXQBD@Z 1001b8cc f i libvcruntime:std_type_info.obj
 0001:0001a8e0       ??$?RX@__crt_internal_free_policy@@QBEXQBX@Z 1001b8e0 f i libvcruntime:std_type_info.obj
 0001:0001a8f4       ??$__crt_interlocked_compare_exchange_pointer@$$CBDPAD$$T@@YAPBDPDSBDQAD$$T@Z 1001b8f4 f i libvcruntime:std_type_info.obj
 0001:0001a90a       ??$__crt_interlocked_read_pointer@$$CBD@@YAPBDPDSBD@Z 1001b90a f i libvcruntime:std_type_info.obj
 0001:0001a916       ??0?$__crt_unique_heap_ptr@DU__crt_internal_free_policy@@@@QAE@QAD@Z 1001b916 f i libvcruntime:std_type_info.obj
 0001:0001a927       ??0?$__crt_unique_heap_ptr@XU__crt_internal_free_policy@@@@QAE@QAX@Z 1001b927 f i libvcruntime:std_type_info.obj
 0001:0001a938       ??1?$__crt_unique_heap_ptr@DU__crt_internal_free_policy@@@@QAE@XZ 1001b938 f i libvcruntime:std_type_info.obj
 0001:0001a94c       ??1?$__crt_unique_heap_ptr@XU__crt_internal_free_policy@@@@QAE@XZ 1001b94c f i libvcruntime:std_type_info.obj
 0001:0001a96c       ??B?$__crt_unique_heap_ptr@DU__crt_internal_free_policy@@@@QBE_NXZ 1001b96c f i libvcruntime:std_type_info.obj
 0001:0001a973       ??B?$__crt_unique_heap_ptr@XU__crt_internal_free_policy@@@@QBE_NXZ 1001b973 f i libvcruntime:std_type_info.obj
 0001:0001a9a2       ?__crt_interlocked_read_32@@YAHPDH@Z 1001b9a2 f i libvcruntime:std_type_info.obj
 0001:0001a9ae       ?detach@?$__crt_unique_heap_ptr@XU__crt_internal_free_policy@@@@QAEPAXXZ 1001b9ae f i libvcruntime:std_type_info.obj
 0001:0001a9b4       ?get@?$__crt_unique_heap_ptr@DU__crt_internal_free_policy@@@@QBEPADXZ 1001b9b4 f i libvcruntime:std_type_info.obj
 0001:0001a9b7       ?get@?$__crt_unique_heap_ptr@XU__crt_internal_free_policy@@@@QBEPAXXZ 1001b9b7 f i libvcruntime:std_type_info.obj
 0001:0001a9ba       ?is_valid@?$__crt_unique_heap_ptr@DU__crt_internal_free_policy@@@@QBE_NXZ 1001b9ba f i libvcruntime:std_type_info.obj
 0001:0001a9c1       ?is_valid@?$__crt_unique_heap_ptr@XU__crt_internal_free_policy@@@@QBE_NXZ 1001b9c1 f i libvcruntime:std_type_info.obj
 0001:0001a9c8       ?release@?$__crt_unique_heap_ptr@DU__crt_internal_free_policy@@@@QAEXXZ 1001b9c8 f i libvcruntime:std_type_info.obj
 0001:0001a9dc       ?release@?$__crt_unique_heap_ptr@XU__crt_internal_free_policy@@@@QAEXXZ 1001b9dc f i libvcruntime:std_type_info.obj
 0001:0001a9f0       ___std_type_info_compare   1001b9f0 f   libvcruntime:std_type_info.obj
 0001:0001aa3b       ___std_type_info_destroy_list 1001ba3b f   libvcruntime:std_type_info.obj
 0001:0001aa66       ___std_type_info_hash      1001ba66 f   libvcruntime:std_type_info.obj
 0001:0001aa95       ___std_type_info_name      1001ba95 f   libvcruntime:std_type_info.obj
 0001:0001ab88       ___vcrt_initialize         1001bb88 f   libvcruntime:initialization.obj
 0001:0001abbb       ___vcrt_thread_attach      1001bbbb f   libvcruntime:initialization.obj
 0001:0001abc8       ___vcrt_thread_detach      1001bbc8 f   libvcruntime:initialization.obj
 0001:0001abd5       ___vcrt_uninitialize       1001bbd5 f   libvcruntime:initialization.obj
 0001:0001abfb       ___vcrt_uninitialize_critical 1001bbfb f   libvcruntime:initialization.obj
 0001:0001ac10       __local_unwind4            1001bc10 f   libvcruntime:exsup4.obj
 0001:0001ace8       __seh_longjmp_unwind4@4    1001bce8 f   libvcruntime:exsup4.obj
 0001:0001ad10       @_EH4_CallFilterFunc@8     1001bd10 f   libvcruntime:exsup4.obj
 0001:0001ad28       @_EH4_TransferToHandler@8  1001bd28 f   libvcruntime:exsup4.obj
 0001:0001ad44       @_EH4_GlobalUnwind2@8      1001bd44 f   libvcruntime:exsup4.obj
 0001:0001ad60       @_EH4_LocalUnwind@16       1001bd60 f   libvcruntime:exsup4.obj
 0001:0001addd       ___except_validate_context_record 1001bddd f   libvcruntime:jbcxrval.obj
 0001:0001ae19       ___except_validate_jump_buffer 1001be19 f   libvcruntime:jbcxrval.obj
 0001:0001ae51       ___except_validate_jump_buffer_common 1001be51 f i libvcruntime:jbcxrval.obj
 0001:0001ae98       ??0Block@_HeapManager@@QAE@XZ 1001be98 f i libvcruntime:undname.obj
 0001:0001ae9e       ??0DName@@QAE@AAPBDD@Z     1001be9e f   libvcruntime:undname.obj
 0001:0001af7c       ??0DName@@QAE@ABV0@@Z      1001bf7c f i libvcruntime:undname.obj
 0001:0001af97       ??0DName@@QAE@D@Z          1001bf97 f   libvcruntime:undname.obj
 0001:0001afc5       ??0DName@@QAE@PAV0@@Z      1001bfc5 f   libvcruntime:undname.obj
 0001:0001b01f       ??0DName@@QAE@PBD@Z        1001c01f f   libvcruntime:undname.obj
 0001:0001b05e       ??0DName@@QAE@W4DNameStatus@@@Z 1001c05e f   libvcruntime:undname.obj
 0001:0001b0ae       ??0DName@@QAE@XZ           1001c0ae f i libvcruntime:undname.obj
 0001:0001b0ba       ??0DName@@QAE@_J@Z         1001c0ba f   libvcruntime:undname.obj
 0001:0001b169       ??0DName@@QAE@_K@Z         1001c169 f   libvcruntime:undname.obj
 0001:0001b1e8       ??0DNameNode@@IAE@XZ       1001c1e8 f i libvcruntime:undname.obj
 0001:0001b1f3       ??0Replicator@@QAE@XZ      1001c1f3 f i libvcruntime:undname.obj
 0001:0001b204       ??0UnDecorator@@QAE@PBDP6APADJ@ZK@Z 1001c204 f i libvcruntime:undname.obj
 0001:0001b263       ??0charNode@@QAE@D@Z       1001c263 f i libvcruntime:undname.obj
 0001:0001b27d       ??0pDNameNode@@QAE@PAVDName@@@Z 1001c27d f   libvcruntime:undname.obj
 0001:0001b2af       ??0pairNode@@QAE@PBVDNameNode@@0@Z 1001c2af f i libvcruntime:undname.obj
 0001:0001b2d5       ??0pcharNode@@QAE@PBDH@Z   1001c2d5 f   libvcruntime:undname.obj
 0001:0001b34b       ??2@YAPAXIAAV_HeapManager@@H@Z 1001c34b f i libvcruntime:undname.obj
 0001:0001b365       ??4DName@@QAEAAV0@ABV0@@Z  1001c365 f   libvcruntime:undname.obj
 0001:0001b380       ??4DName@@QAEAAV0@D@Z      1001c380 f i libvcruntime:undname.obj
 0001:0001b3ae       ??4DName@@QAEAAV0@PAV0@@Z  1001c3ae f   libvcruntime:undname.obj
 0001:0001b400       ??4DName@@QAEAAV0@PBD@Z    1001c400 f   libvcruntime:undname.obj
 0001:0001b435       ??4DName@@QAEAAV0@W4DNameStatus@@@Z 1001c435 f   libvcruntime:undname.obj
 0001:0001b473       ??AReplicator@@QBE?AVDName@@H@Z 1001c473 f   libvcruntime:undname.obj
 0001:0001b4ca       ??H@YA?AVDName@@DABV0@@Z   1001c4ca f i libvcruntime:undname.obj
 0001:0001b4f4       ??H@YA?AVDName@@PBDABV0@@Z 1001c4f4 f i libvcruntime:undname.obj
 0001:0001b51e       ??H@YA?AVDName@@W4DNameStatus@@ABV0@@Z 1001c51e f i libvcruntime:undname.obj
 0001:0001b548       ??HDName@@QBE?AV0@ABV0@@Z  1001c548 f   libvcruntime:undname.obj
 0001:0001b572       ??HDName@@QBE?AV0@D@Z      1001c572 f   libvcruntime:undname.obj
 0001:0001b59c       ??HDName@@QBE?AV0@PAV0@@Z  1001c59c f   libvcruntime:undname.obj
 0001:0001b5c6       ??HDName@@QBE?AV0@PBD@Z    1001c5c6 f   libvcruntime:undname.obj
 0001:0001b5f0       ??HDName@@QBE?AV0@W4DNameStatus@@@Z 1001c5f0 f   libvcruntime:undname.obj
 0001:0001b61a       ??YDName@@QAEAAV0@ABV0@@Z  1001c61a f   libvcruntime:undname.obj
 0001:0001b66b       ??YDName@@QAEAAV0@D@Z      1001c66b f   libvcruntime:undname.obj
 0001:0001b6cf       ??YDName@@QAEAAV0@PAV0@@Z  1001c6cf f   libvcruntime:undname.obj
 0001:0001b74d       ??YDName@@QAEAAV0@PBD@Z    1001c74d f   libvcruntime:undname.obj
 0001:0001b7c6       ??YDName@@QAEAAV0@W4DNameStatus@@@Z 1001c7c6 f   libvcruntime:undname.obj
 0001:0001b816       ??YReplicator@@QAEAAV0@ABVDName@@@Z 1001c816 f   libvcruntime:undname.obj
 0001:0001b872       ??_5DName@@QAEAAV0@ABV0@@Z 1001c872 f   libvcruntime:undname.obj
 0001:0001b895       ?Constructor@_HeapManager@@QAEXP6APAXI@ZP6AXPAX@Z@Z 1001c895 f i libvcruntime:undname.obj
 0001:0001b8b9       ?Destructor@_HeapManager@@QAEXXZ 1001c8b9 f i libvcruntime:undname.obj
 0001:0001b8ff       ?UScore@UnDecorator@@SAPBDW4Tokens@@@Z 1001c8ff f   libvcruntime:undname.obj
 0001:0001b925       ?append@DName@@AAEXPBVDNameNode@@@Z 1001c925 f   libvcruntime:undname.obj
 0001:0001b97c       ?composeDeclaration@UnDecorator@@CA?AVDName@@ABV2@@Z 1001c97c f i libvcruntime:undname.obj
 0001:0001c990       ?doAccessSpecifiers@UnDecorator@@SAHXZ 1001d990 f i libvcruntime:undname.obj
 0001:0001c9a1       ?doAllocationLanguage@UnDecorator@@SAHXZ 1001d9a1 f i libvcruntime:undname.obj
 0001:0001c9b2       ?doAllocationModel@UnDecorator@@SAHXZ 1001d9b2 f i libvcruntime:undname.obj
 0001:0001c9c3       ?doEcsu@UnDecorator@@SAHXZ 1001d9c3 f i libvcruntime:undname.obj
 0001:0001c9d4       ?doEllipsis@UnDecorator@@SAHXZ 1001d9d4 f i libvcruntime:undname.obj
 0001:0001c9e5       ?doFunctionReturns@UnDecorator@@SAHXZ 1001d9e5 f i libvcruntime:undname.obj
 0001:0001c9f6       ?doMSKeywords@UnDecorator@@SAHXZ 1001d9f6 f i libvcruntime:undname.obj
 0001:0001ca06       ?doMemberTypes@UnDecorator@@SAHXZ 1001da06 f i libvcruntime:undname.obj
 0001:0001ca17       ?doNameOnly@UnDecorator@@SAHXZ 1001da17 f i libvcruntime:undname.obj
 0001:0001ca24       ?doNoIdentCharCheck@UnDecorator@@SAHXZ 1001da24 f i libvcruntime:undname.obj
 0001:0001ca31       ?doPchar@DName@@AAEXPBDH@Z 1001da31 f   libvcruntime:undname.obj
 0001:0001cad8       ?doPtr64@UnDecorator@@SAHXZ 1001dad8 f i libvcruntime:undname.obj
 0001:0001cae9       ?doRestrictionSpec@UnDecorator@@SAHXZ 1001dae9 f i libvcruntime:undname.obj
 0001:0001cafa       ?doThisTypes@UnDecorator@@SAHXZ 1001dafa f i libvcruntime:undname.obj
 0001:0001cb10       ?doThrowTypes@UnDecorator@@SAHXZ 1001db10 f i libvcruntime:undname.obj
 0001:0001cb21       ?doTypeOnly@UnDecorator@@SAHXZ 1001db21 f i libvcruntime:undname.obj
 0001:0001cb2e       ?doUnderScore@UnDecorator@@SAHXZ 1001db2e f i libvcruntime:undname.obj
 0001:0001cb3b       ?getArgumentList@UnDecorator@@CA?AVDName@@XZ 1001db3b f   libvcruntime:undname.obj
 0001:0001cc6e       ?getArgumentTypes@UnDecorator@@CA?AVDName@@XZ 1001dc6e f   libvcruntime:undname.obj
 0001:0001cd6a       ?getArrayType@UnDecorator@@CA?AVDName@@ABV2@@Z 1001dd6a f i libvcruntime:undname.obj
 0001:0001cf87       ?getBasedType@UnDecorator@@CA?AVDName@@XZ 1001df87 f   libvcruntime:undname.obj
 0001:0001d045       ?getBasicDataType@UnDecorator@@CA?AVDName@@ABV2@@Z 1001e045 f   libvcruntime:undname.obj
 0001:0001d51b       ?getCHPEName@UnDecorator@@QAEPADPADH@Z 1001e51b f i libvcruntime:undname.obj
 0001:0001d631       ?getCallIndex@UnDecorator@@CA?AVDName@@XZ 1001e631 f i libvcruntime:undname.obj
 0001:0001d64a       ?getCallingConvention@UnDecorator@@CA?AVDName@@XZ 1001e64a f   libvcruntime:undname.obj
 0001:0001d751       ?getDataIndirectType@UnDecorator@@CA?AVDName@@ABV2@PBD0H@Z 1001e751 f   libvcruntime:undname.obj
 0001:0001deb5       ?getDataIndirectType@UnDecorator@@CA?AVDName@@XZ 1001eeb5 f i libvcruntime:undname.obj
 0001:0001def3       ?getDataType@UnDecorator@@CA?AVDName@@PAV2@@Z 1001eef3 f   libvcruntime:undname.obj
 0001:0001dfe9       ?getDecoratedName@UnDecorator@@CA?AVDName@@XZ 1001efe9 f   libvcruntime:undname.obj
 0001:0001e2bb       ?getDimension@UnDecorator@@CA?AVDName@@_N@Z 1001f2bb f   libvcruntime:undname.obj
 0001:0001e421       ?getDispatchTarget@UnDecorator@@CA?AVDName@@XZ 1001f421 f   libvcruntime:undname.obj
 0001:0001e48a       ?getDisplacement@UnDecorator@@CA?AVDName@@XZ 1001f48a f i libvcruntime:undname.obj
 0001:0001e4a3       ?getECSUDataType@UnDecorator@@CA?AVDName@@XZ 1001f4a3 f   libvcruntime:undname.obj
 0001:0001e601       ?getECSUName@UnDecorator@@CA?AVDName@@XZ 1001f601 f i libvcruntime:undname.obj
 0001:0001e616       ?getEnumType@UnDecorator@@CA?AVDName@@XZ 1001f616 f i libvcruntime:undname.obj
 0001:0001e742       ?getExtendedDataIndirectType@UnDecorator@@CA?AVDName@@AAPBDAA_NH@Z 1001f742 f   libvcruntime:undname.obj
 0001:0001e966       ?getExternalDataType@UnDecorator@@CA?AVDName@@ABV2@@Z 1001f966 f i libvcruntime:undname.obj
 0001:0001e9e6       ?getFunctionIndirectType@UnDecorator@@CA?AVDName@@ABV2@@Z 1001f9e6 f   libvcruntime:undname.obj
 0001:0001eeb4       ?getGuardNumber@UnDecorator@@CA?AVDName@@XZ 1001feb4 f i libvcruntime:undname.obj
 0001:0001eecd       ?getLastChar@DName@@QBEDXZ 1001fecd f i libvcruntime:undname.obj
 0001:0001eef5       ?getLastChar@DNameStatusNode@@UBEDXZ 1001fef5 f i libvcruntime:undname.obj
 0001:0001ef04       ?getLastChar@charNode@@UBEDXZ 1001ff04 f i libvcruntime:undname.obj
 0001:0001ef08       ?getLastChar@pDNameNode@@UBEDXZ 1001ff08 f i libvcruntime:undname.obj
 0001:0001ef19       ?getLastChar@pairNode@@UBEDXZ 1001ff19 f i libvcruntime:undname.obj
 0001:0001ef5b       ?getLastChar@pcharNode@@UBEDXZ 1001ff5b f i libvcruntime:undname.obj
 0001:0001ef71       ?getLexicalFrame@UnDecorator@@CA?AVDName@@XZ 1001ff71 f i libvcruntime:undname.obj
 0001:0001efbf       ?getMemory@_HeapManager@@QAEPAXIH@Z 1001ffbf f   libvcruntime:undname.obj
 0001:0001f067       ?getNoexcept@UnDecorator@@CA?AVDName@@XZ 10020067 f   libvcruntime:undname.obj
 0001:0001f0bd       ?getNumberOfDimensions@UnDecorator@@CAHXZ 100200bd f   libvcruntime:undname.obj
 0001:0001f136       ?getOperatorName@UnDecorator@@CA?AVDName@@_NPA_N@Z 10020136 f i libvcruntime:undname.obj
 0001:0001f924       ?getPointerType@UnDecorator@@CA?AVDName@@ABV2@0@Z 10020924 f i libvcruntime:undname.obj
 0001:0001f949       ?getPointerTypeArray@UnDecorator@@CA?AVDName@@ABV2@0@Z 10020949 f i libvcruntime:undname.obj
 0001:0001f96e       ?getPrimaryDataType@UnDecorator@@CA?AVDName@@ABV2@@Z 1002096e f   libvcruntime:undname.obj
 0001:0001fbcb       ?getPtrRefDataType@UnDecorator@@CA?AVDName@@ABV2@H@Z 10020bcb f   libvcruntime:undname.obj
 0001:0001fd3e       ?getPtrRefType@UnDecorator@@CA?AVDName@@ABV2@0PBD@Z 10020d3e f   libvcruntime:undname.obj
 0001:0001fe76       ?getReferenceType@UnDecorator@@CA?AVDName@@ABV2@0PBD@Z 10020e76 f i libvcruntime:undname.obj
 0001:0001fe99       ?getRestrictionSpec@UnDecorator@@CA?AVDName@@XZ 10020e99 f   libvcruntime:undname.obj
 0001:0001ffd0       ?getReturnType@UnDecorator@@CA?AVDName@@PAV2@@Z 10020fd0 f   libvcruntime:undname.obj
 0001:0002000a       ?getScope@UnDecorator@@CA?AVDName@@XZ 1002100a f   libvcruntime:undname.obj
 0001:00020483       ?getScopedName@UnDecorator@@CA?AVDName@@XZ 10021483 f   libvcruntime:undname.obj
 0001:0002058c       ?getSignedDimension@UnDecorator@@CA?AVDName@@XZ 1002158c f   libvcruntime:undname.obj
 0001:000205f1       ?getStorageConvention@UnDecorator@@CA?AVDName@@XZ 100215f1 f i libvcruntime:undname.obj
 0001:00020606       ?getString@DName@@QBEPADPAD0@Z 10021606 f i libvcruntime:undname.obj
 0001:0002063e       ?getString@DName@@QBEPADPADH@Z 1002163e f i libvcruntime:undname.obj
 0001:000206a9       ?getString@DNameStatusNode@@UBEPADPAD0@Z 100216a9 f i libvcruntime:undname.obj
 0001:000206d9       ?getString@charNode@@UBEPADPAD0@Z 100216d9 f i libvcruntime:undname.obj
 0001:000206f3       ?getString@pDNameNode@@UBEPADPAD0@Z 100216f3 f i libvcruntime:undname.obj
 0001:0002070f       ?getString@pairNode@@UBEPADPAD0@Z 1002170f f i libvcruntime:undname.obj
 0001:00020766       ?getString@pcharNode@@UBEPADPAD0@Z 10021766 f i libvcruntime:undname.obj
 0001:00020787       ?getStringEncoding@UnDecorator@@CA?AVDName@@PBDH@Z 10021787 f   libvcruntime:undname.obj
 0001:00020863       ?getStringHelper@@YAPADPADPBD1H@Z 10021863 f i libvcruntime:undname.obj
 0001:000208a7       ?getSymbolName@UnDecorator@@CA?AVDName@@XZ 100218a7 f i libvcruntime:undname.obj
 0001:00020901       ?getTemplateArgumentList@UnDecorator@@CA?AVDName@@XZ 10021901 f   libvcruntime:undname.obj
 0001:00020c45       ?getTemplateConstant@UnDecorator@@CA?AVDName@@XZ 10021c45 f   libvcruntime:undname.obj
 0001:00021043       ?getTemplateName@UnDecorator@@CA?AVDName@@_N@Z 10022043 f   libvcruntime:undname.obj
 0001:000211fd       ?getThisType@UnDecorator@@CA?AVDName@@XZ 100221fd f i libvcruntime:undname.obj
 0001:0002123c       ?getThrowTypes@UnDecorator@@CA?AVDName@@XZ 1002223c f   libvcruntime:undname.obj
 0001:00021267       ?getTypeEncoding@UnDecorator@@CAHXZ 10022267 f i libvcruntime:undname.obj
 0001:00021659       ?getUndecoratedName@UnDecorator@@QAEPADPADH@Z 10022659 f i libvcruntime:undname.obj
 0001:0002174e       ?getVCallThunkType@UnDecorator@@CA?AVDName@@XZ 1002274e f i libvcruntime:undname.obj
 0001:000217a6       ?getVbTableType@UnDecorator@@CA?AVDName@@ABV2@@Z 100227a6 f i libvcruntime:undname.obj
 0001:000217c0       ?getVdispMapType@UnDecorator@@CA?AVDName@@ABV2@@Z 100227c0 f i libvcruntime:undname.obj
 0001:00021829       ?getVfTableType@UnDecorator@@CA?AVDName@@ABV2@@Z 10022829 f i libvcruntime:undname.obj
 0001:000219e4       ?getZName@UnDecorator@@CA?AVDName@@_N0@Z 100229e4 f   libvcruntime:undname.obj
 0001:00021c62       ?haveTemplateParameters@UnDecorator@@SAHXZ 10022c62 f i libvcruntime:undname.obj
 0001:00021c6f       ?isArray@DName@@QBEHXZ     10022c6f f i libvcruntime:undname.obj
 0001:00021c7b       ?isComArray@DName@@QBEHXZ  10022c7b f i libvcruntime:undname.obj
 0001:00021c87       ?isEmpty@DName@@QBEHXZ     10022c87 f i libvcruntime:undname.obj
 0001:00021c91       ?isFull@Replicator@@QBEHXZ 10022c91 f i libvcruntime:undname.obj
 0001:00021c9c       ?isNoTE@DName@@QBEHXZ      10022c9c f i libvcruntime:undname.obj
 0001:00021ca8       ?isPinPtr@DName@@QBEHXZ    10022ca8 f i libvcruntime:undname.obj
 0001:00021cb4       ?isPtrRef@DName@@QBEHXZ    10022cb4 f i libvcruntime:undname.obj
 0001:00021cc0       ?isUDC@DName@@QBEHXZ       10022cc0 f i libvcruntime:undname.obj
 0001:00021cd5       ?isUDTThunk@DName@@QBEHXZ  10022cd5 f i libvcruntime:undname.obj
 0001:00021cea       ?isVCallThunk@DName@@QBEHXZ 10022cea f i libvcruntime:undname.obj
 0001:00021cf6       ?isValid@DName@@QBEHXZ     10022cf6 f i libvcruntime:undname.obj
 0001:00021d02       ?length@DName@@QBEHXZ      10022d02 f i libvcruntime:undname.obj
 0001:00021d28       ?length@DNameStatusNode@@UBEHXZ 10022d28 f i libvcruntime:undname.obj
 0001:00021d2c       ?length@charNode@@UBEHXZ   10022d2c f i libvcruntime:undname.obj
 0001:00021d30       ?length@pDNameNode@@UBEHXZ 10022d30 f i libvcruntime:undname.obj
 0001:00021d41       ?length@pairNode@@UBEHXZ   10022d41 f i libvcruntime:undname.obj
 0001:00021d98       ?length@pcharNode@@UBEHXZ  10022d98 f i libvcruntime:undname.obj
 0001:00021d9c       ?make@DNameStatusNode@@SAPBV1@W4DNameStatus@@@Z 10022d9c f i libvcruntime:undname.obj
 0001:00021dbf       ?parseDecoratedName@UnDecorator@@CA?AVDName@@XZ 10022dbf f   libvcruntime:undname.obj
 0001:00021ee8       ?setIsArray@DName@@QAEXXZ  10022ee8 f i libvcruntime:undname.obj
 0001:00021ef2       ?setIsComArray@DName@@QAEXXZ 10022ef2 f i libvcruntime:undname.obj
 0001:00021efc       ?setIsNoTE@DName@@QAEXXZ   10022efc f i libvcruntime:undname.obj
 0001:00021f06       ?setIsPinPtr@DName@@QAEXXZ 10022f06 f i libvcruntime:undname.obj
 0001:00021f10       ?setIsUDC@DName@@QAEXXZ    10022f10 f i libvcruntime:undname.obj
 0001:00021f20       ?setIsVCallThunk@DName@@QAEXXZ 10022f20 f i libvcruntime:undname.obj
 0001:00021f2a       ?setPtrRef@DName@@QAEAAV1@XZ 10022f2a f i libvcruntime:undname.obj
 0001:00021f36       ?status@DName@@QBE?AW4DNameStatus@@XZ 10022f36 f i libvcruntime:undname.obj
 0001:00021fbb       ___unDName                 10022fbb f   libvcruntime:undname.obj
 0001:00021fe6       ___unDNameEx               10022fe6 f   libvcruntime:undname.obj
 0001:000220ac       __vsprintf_s_l             100230ac f i libvcruntime:undname.obj
 0001:000220e4       _sprintf_s                 100230e4 f i libvcruntime:undname.obj
 0001:00022107       _unDNameGenerateCHPE       10023107 f   libvcruntime:undname.obj
 0001:0002217a       ??$?RU__vcrt_ptd@@@__crt_internal_free_policy@@QBEXQBU__vcrt_ptd@@@Z 1002317a f i libvcruntime:per_thread_data.obj
 0001:0002218e       ??0?$__crt_unique_heap_ptr@U__vcrt_ptd@@U__crt_internal_free_policy@@@@QAE@QAU__vcrt_ptd@@@Z 1002318e f i libvcruntime:per_thread_data.obj
 0001:000221b1       ??1?$__crt_unique_heap_ptr@U__vcrt_ptd@@U__crt_internal_free_policy@@@@QAE@XZ 100231b1 f i libvcruntime:per_thread_data.obj
 0001:000221d0       ??B?$__crt_unique_heap_ptr@U__vcrt_ptd@@U__crt_internal_free_policy@@@@QBE_NXZ 100231d0 f i libvcruntime:per_thread_data.obj
 0001:000221d7       ?detach@?$__crt_unique_heap_ptr@U__vcrt_ptd@@U__crt_internal_free_policy@@@@QAEPAU__vcrt_ptd@@XZ 100231d7 f i libvcruntime:per_thread_data.obj
 0001:000221dd       ?get@?$__crt_unique_heap_ptr@U__vcrt_ptd@@U__crt_internal_free_policy@@@@QBEPAU__vcrt_ptd@@XZ 100231dd f i libvcruntime:per_thread_data.obj
 0001:000221e0       ?is_valid@?$__crt_unique_heap_ptr@U__vcrt_ptd@@U__crt_internal_free_policy@@@@QBE_NXZ 100231e0 f i libvcruntime:per_thread_data.obj
 0001:000221e7       ?release@?$__crt_unique_heap_ptr@U__vcrt_ptd@@U__crt_internal_free_policy@@@@QAEXXZ 100231e7 f i libvcruntime:per_thread_data.obj
 0001:0002221b       ___vcrt_freefls@4          1002321b f   libvcruntime:per_thread_data.obj
 0001:0002223e       ___vcrt_freeptd            1002323e f   libvcruntime:per_thread_data.obj
 0001:00022281       ___vcrt_getptd             10023281 f   libvcruntime:per_thread_data.obj
 0001:00022292       ___vcrt_getptd_noexit      10023292 f   libvcruntime:per_thread_data.obj
 0001:00022348       ___vcrt_getptd_noinit      10023348 f   libvcruntime:per_thread_data.obj
 0001:0002238c       ___vcrt_initialize_ptd     1002338c f   libvcruntime:per_thread_data.obj
 0001:000223cb       ___vcrt_uninitialize_ptd   100233cb f   libvcruntime:per_thread_data.obj
 0001:000223ec       ___vcrt_initialize_locks   100233ec f   libvcruntime:locks.obj
 0001:00022437       ___vcrt_lock               10023437 f   libvcruntime:locks.obj
 0001:00022451       ___vcrt_uninitialize_locks 10023451 f   libvcruntime:locks.obj
 0001:0002248b       ___vcrt_unlock             1002348b f   libvcruntime:locks.obj
 0001:000224a5       ??$?BX@__crt_fast_encoded_nullptr_t@@QBEPAXXZ 100234a5 f i libvcruntime:winapi_downlevel.obj
 0001:000224ab       ??$__crt_fast_decode_pointer@PAX@@YAPAXQAX@Z 100234ab f i libvcruntime:winapi_downlevel.obj
 0001:000224c4       ??$__crt_fast_encode_pointer@PAX@@YAPAXQAX@Z 100234c4 f i libvcruntime:winapi_downlevel.obj
 0001:000224e8       ??$__crt_interlocked_exchange_pointer@UHINSTANCE__@@PAU1@@@YAPAUHINSTANCE__@@PDSAU0@QAU0@@Z 100234e8 f i libvcruntime:winapi_downlevel.obj
 0001:000224f8       ??$__crt_interlocked_exchange_pointer@UHINSTANCE__@@PAX@@YAPAUHINSTANCE__@@PDSAU0@QAX@Z 100234f8 f i libvcruntime:winapi_downlevel.obj
 0001:00022508       ??$__crt_interlocked_exchange_pointer@XPAX@@YAPAXPDSAXQAX@Z 10023508 f i libvcruntime:winapi_downlevel.obj
 0001:00022518       ??$__crt_interlocked_read_pointer@UHINSTANCE__@@@@YAPAUHINSTANCE__@@PDSAU0@@Z 10023518 f i libvcruntime:winapi_downlevel.obj
 0001:00022524       ??$__crt_interlocked_read_pointer@X@@YAPAXPDSAX@Z 10023524 f i libvcruntime:winapi_downlevel.obj
 0001:00022530       ?__crt_fast_encode_pointer@@YA?AU__crt_fast_encoded_nullptr_t@@$$T@Z 10023530 f i libvcruntime:winapi_downlevel.obj
 0001:00022863       ___vcrt_FlsAlloc           10023863 f   libvcruntime:winapi_downlevel.obj
 0001:000228ac       ___vcrt_FlsFree            100238ac f   libvcruntime:winapi_downlevel.obj
 0001:000228f5       ___vcrt_FlsGetValue        100238f5 f   libvcruntime:winapi_downlevel.obj
 0001:0002293e       ___vcrt_FlsSetValue        1002393e f   libvcruntime:winapi_downlevel.obj
 0001:0002298b       ___vcrt_InitializeCriticalSectionEx 1002398b f   libvcruntime:winapi_downlevel.obj
 0001:000229e3       ___vcrt_initialize_winapi_thunks 100239e3 f   libvcruntime:winapi_downlevel.obj
 0001:00022a16       ___vcrt_uninitialize_winapi_thunks 10023a16 f   libvcruntime:winapi_downlevel.obj
 0001:00022a54       ??$?B$$A6AXXZ@__crt_fast_encoded_nullptr_t@@QBEP6AXXZXZ 10023a54 f i libvcruntime:purevirt_data.obj
 0001:00022a5a       ??$__crt_fast_encode_pointer@P6AXXZ@@YAP6AXXZQ6AXXZ@Z 10023a5a f i libvcruntime:purevirt_data.obj
 0001:00022a7e       ___vcrt_initialize_pure_virtual_call_handler 10023a7e f   libvcruntime:purevirt_data.obj
 0001:00022a90       __global_unwind2           10023a90 f   libvcruntime:exsup.obj
 0001:00022af6       __local_unwind2            10023af6 f   libvcruntime:exsup.obj
 0001:00022b7a       __abnormal_termination     10023b7a f   libvcruntime:exsup.obj
 0001:00022ba0       __NLG_Notify1              10023ba0 f   libvcruntime:exsup.obj
 0001:00022bac       __NLG_Notify               10023bac f   libvcruntime:exsup.obj
 0001:00022bc3       __NLG_Dispatch             10023bc3     libvcruntime:exsup.obj
 0001:00022bc3       __NLG_Dispatch2            10023bc3     libvcruntime:exsup.obj
 0001:00022bcb       __NLG_Call                 10023bcb f   libvcruntime:exsup.obj
 0001:00022bcd       __NLG_Return2              10023bcd     libvcruntime:exsup.obj
 0001:00022c1d       ??$__crt_fast_decode_pointer@P6AXXZ@@YAP6AXXZQ6AXXZ@Z 10023c1d f i libvcruntime:purevirt.obj
 0001:00022c36       ??$__crt_interlocked_exchange_pointer@$$A6AXXZP6AXXZ@@YAP6AXXZPDS6AXXZQ6AXXZ@Z 10023c36 f i libvcruntime:purevirt.obj
 0001:00022c46       ??$__crt_interlocked_read_pointer@$$A6AXXZ@@YAP6AXXZPDS6AXXZ@Z 10023c46 f i libvcruntime:purevirt.obj
 0001:00022c52       __get_purecall_handler     10023c52 f   libvcruntime:purevirt.obj
 0001:00022c6c       __purecall                 10023c6c f   libvcruntime:purevirt.obj
 0001:00022c8f       __set_purecall_handler     10023c8f f   libvcruntime:purevirt.obj
 0001:00022cbd       ??$?0AAViterator@TryBlockMap@__FrameHandler3@@AAV012@$0A@@?$pair@Viterator@TryBlockMap@__FrameHandler3@@V123@@std@@QAE@AAViterator@TryBlockMap@__FrameHandler3@@0@Z 10023cbd f i libvcruntime:trnsctrl.obj
 0001:00022cea       ??$forward@AAViterator@TryBlockMap@__FrameHandler3@@@std@@YAAAViterator@TryBlockMap@__FrameHandler3@@AAV123@@Z 10023cea f i libvcruntime:trnsctrl.obj
 0001:00022cf4       ??0iterator@TryBlockMap@__FrameHandler3@@QAE@AAV12@I@Z 10023cf4 f i libvcruntime:trnsctrl.obj
 0001:00022d0d       ?GetRangeOfTrysToCheck@__FrameHandler3@@SA?AU?$pair@Viterator@TryBlockMap@__FrameHandler3@@V123@@std@@AAVTryBlockMap@1@HH@Z 10023d0d f   libvcruntime:trnsctrl.obj
 0001:00022daf       ?_CallCatchBlock2@@YAPAXPAUEHRegistrationNode@@PBU_s_FuncInfo@@PAXHK@Z 10023daf f   libvcruntime:trnsctrl.obj
 0001:00022e24       ?_CallSETranslator@@YAHPAUEHExceptionRecord@@PAUEHRegistrationNode@@PAX2PBU_s_FuncInfo@@H1@Z 10023e24 f   libvcruntime:trnsctrl.obj
 0001:00022f35       ?_JumpToContinuation@@YGXPAXPAUEHRegistrationNode@@@Z 10023f35 f   libvcruntime:trnsctrl.obj
 0001:00022f71       ?_UnwindNestedFrames@@YGXPAUEHRegistrationNode@@PAUEHExceptionRecord@@@Z 10023f71 f   libvcruntime:trnsctrl.obj
 0001:00022fd8       ?getFuncInfo@TryBlockMap@__FrameHandler3@@QAEPBU_s_FuncInfo@@XZ 10023fd8 f i libvcruntime:trnsctrl.obj
 0001:00022fdb       __CatchGuardHandler        10023fdb f   libvcruntime:trnsctrl.obj
 0001:00023018       __CreateFrameInfo          10024018 f   libvcruntime:trnsctrl.obj
 0001:00023045       __FindAndUnlinkFrame       10024045 f   libvcruntime:trnsctrl.obj
 0001:0002309b       __TranslatorGuardHandler   1002409b f   libvcruntime:trnsctrl.obj
 0001:0002315f       ___CxxFrameHandler         1002415f f   libvcruntime:trnsctrl.obj
 0001:000231a2       ___CxxFrameHandler2        100241a2 f   libvcruntime:trnsctrl.obj
 0001:000231e5       ___CxxFrameHandler3        100241e5 f   libvcruntime:trnsctrl.obj
 0001:00023228       ___CxxLongjmpUnwind@4      10024228 f   libvcruntime:trnsctrl.obj
 0001:00023b09       ??$TypeMatchHelper@V__FrameHandler3@@@@YAHPBU_s_HandlerType@@PBU_s_CatchableType@@PBU_s_ThrowInfo@@@Z 10024b09 f i libvcruntime:frame.obj
 0001:00023bba       ??$__InternalCxxFrameHandler@V__FrameHandler3@@@@YA?AW4_EXCEPTION_DISPOSITION@@PAUEHExceptionRecord@@PAUEHRegistrationNode@@PAU_CONTEXT@@PAXPBU_s_FuncInfo@@H1E@Z 10024bba f i libvcruntime:frame.obj
 0001:00023cfc       ??0HandlerMap@__FrameHandler3@@QAE@PBU_s_TryBlockMapEntry@@PAX@Z 10024cfc f i libvcruntime:frame.obj
 0001:00023d18       ??0TryBlockMap@__FrameHandler3@@QAE@PBU_s_FuncInfo@@PAX@Z 10024d18 f i libvcruntime:frame.obj
 0001:00023d31       ??0bad_exception@std@@QAE@ABV01@@Z 10024d31 f i libvcruntime:frame.obj
 0001:00023d52       ??0bad_exception@std@@QAE@XZ 10024d52 f i libvcruntime:frame.obj
 0001:00023d70       ??0exception@std@@QAE@ABV01@@Z 10024d70 f i libvcruntime:frame.obj
 0001:00023da7       ??0exception@std@@QAE@QBDH@Z 10024da7 f i libvcruntime:frame.obj
 0001:00023dcb       ??0iterator@HandlerMap@__FrameHandler3@@QAE@AAV12@I@Z 10024dcb f i libvcruntime:frame.obj
 0001:00023de4       ??1bad_exception@std@@UAE@XZ 10024de4 f i libvcruntime:frame.obj
 0001:00023df9       ??1exception@std@@UAE@XZ   10024df9 f i libvcruntime:frame.obj
 0001:00023e0e       ??8iterator@HandlerMap@__FrameHandler3@@QBE_NABV012@@Z 10024e0e f i libvcruntime:frame.obj
 0001:00023e25       ??8type_info@@QBE_NABV0@@Z 10024e25 f i libvcruntime:frame.obj
 0001:00023e4b       ??9iterator@HandlerMap@__FrameHandler3@@QBE_NABV012@@Z 10024e4b f i libvcruntime:frame.obj
 0001:00023e62       ??Diterator@HandlerMap@__FrameHandler3@@QAEPBU_s_HandlerType@@XZ 10024e62 f i libvcruntime:frame.obj
 0001:00023e71       ??Diterator@TryBlockMap@__FrameHandler3@@QAEPBU_s_TryBlockMapEntry@@XZ 10024e71 f i libvcruntime:frame.obj
 0001:00023e80       ??Eiterator@HandlerMap@__FrameHandler3@@QAEAAV012@XZ 10024e80 f i libvcruntime:frame.obj
 0001:00023e86       ??Eiterator@TryBlockMap@__FrameHandler3@@QAEAAV012@XZ 10024e86 f i libvcruntime:frame.obj
 0001:00023e8c       ??Miterator@TryBlockMap@__FrameHandler3@@QBE_NABV012@@Z 10024e8c f i libvcruntime:frame.obj
 0001:00023ea3       ??_Gbad_exception@std@@UAEPAXI@Z 10024ea3 f i libvcruntime:frame.obj
 0001:00023ea3       ??_Ebad_exception@std@@UAEPAXI@Z 10024ea3 f i libvcruntime:frame.obj
 0001:00023edb       ??_Gexception@std@@UAEPAXI@Z 10024edb f i libvcruntime:frame.obj
 0001:00023edb       ??_Eexception@std@@UAEPAXI@Z 10024edb f i libvcruntime:frame.obj
 0001:00023f13       ?BuildCatchObject@__FrameHandler3@@SAXPAUEHExceptionRecord@@PAXPBU_s_HandlerType@@PBU_s_CatchableType@@@Z 10024f13 f   libvcruntime:frame.obj
 0001:00023f18       ?BuildCatchObjectHelper@__FrameHandler3@@SAHPAUEHExceptionRecord@@PAXPBU_s_HandlerType@@PBU_s_CatchableType@@@Z 10024f18 f   libvcruntime:frame.obj
 0001:000241fc       ?FrameUnwindToEmptyState@__FrameHandler3@@SAXPAUEHRegistrationNode@@PAXPBU_s_FuncInfo@@@Z 100251fc f   libvcruntime:frame.obj
 0001:0002421a       ?FrameUnwindToState@__FrameHandler3@@SAXPAUEHRegistrationNode@@PAXPBU_s_FuncInfo@@H@Z 1002521a f   libvcruntime:frame.obj
 0001:0002433c       ?GetMaxState@__FrameHandler3@@SAHPAXPBU_s_FuncInfo@@@Z 1002533c f i libvcruntime:frame.obj
 0001:00024450       ?TypeMatch@__FrameHandler3@@SAHPBU_s_HandlerType@@PBU_s_CatchableType@@PBU_s_ThrowInfo@@@Z 10025450 f   libvcruntime:frame.obj
 0001:0002445b       ?_CallMemberFunction1@@YGXQAX00@Z 1002545b f i libvcruntime:frame.obj
 0001:0002446f       ?_CallMemberFunction2@@YGXQAX00H@Z 1002546f f i libvcruntime:frame.obj
 0001:00024486       ?_ValidateExecute@@YA_NP6GHXZ@Z 10025486 f i libvcruntime:frame.obj
 0001:00024495       ?_ValidateRead@@YA_NPBXI@Z 10025495 f i libvcruntime:frame.obj
 0001:000244a4       ?_ValidateWrite@@YA_NPAXI@Z 100254a4 f i libvcruntime:frame.obj
 0001:000244b3       ?begin@HandlerMap@__FrameHandler3@@QAE?AViterator@12@XZ 100254b3 f i libvcruntime:frame.obj
 0001:000244c7       ?end@HandlerMap@__FrameHandler3@@QAE?AViterator@12@XZ 100254c7 f i libvcruntime:frame.obj
 0001:000244dc       ?getESTypes@__FrameHandler3@@SAPBU_s_ESTypeList@@PBU_s_FuncInfo@@@Z 100254dc f i libvcruntime:frame.obj
 0001:000244e9       ?getLastEntry@HandlerMap@__FrameHandler3@@QAEPBU_s_HandlerType@@XZ 100254e9 f i libvcruntime:frame.obj
 0001:000244fa       ?getMagicNum@__FrameHandler3@@SAIPBU_s_FuncInfo@@@Z 100254fa f i libvcruntime:frame.obj
 0001:0002450c       ?getNumTryBlocks@TryBlockMap@__FrameHandler3@@QAEIXZ 1002550c f i libvcruntime:frame.obj
 0001:00024512       ?isEHs@__FrameHandler3@@SA_NPBU_s_FuncInfo@@@Z 10025512 f i libvcruntime:frame.obj
 0001:00024522       ?isNoExcept@__FrameHandler3@@SA_NPBU_s_FuncInfo@@@Z 10025522 f i libvcruntime:frame.obj
 0001:00024536       ?what@exception@std@@UBEPBDXZ 10025536 f i libvcruntime:frame.obj
 0001:00024546       ___BuildCatchObject        10025546 f   libvcruntime:frame.obj
 0001:0002454b       ___BuildCatchObjectHelper  1002554b f   libvcruntime:frame.obj
 0001:00024556       ___TypeMatch               10025556 f   libvcruntime:frame.obj
 0001:00024561       ___vcrt_EncodePointer      10025561 f i libvcruntime:frame.obj
 0001:00024580       __CallSettingFrame@12      10025580 f   libvcruntime:lowhelpr.obj
 0001:000245a7       __NLG_Return               100255a7     libvcruntime:lowhelpr.obj
 0001:000245f8       __get_unexpected           100255f8 f   libvcruntime:unexpected.obj
 0001:0002460e       _set_unexpected            1002560e f   libvcruntime:unexpected.obj
 0001:00024633       _unexpected                10025633 f   libvcruntime:unexpected.obj
 0001:00024657       ?GetCurrentState@__FrameHandler3@@SAHPAUEHRegistrationNode@@PAXPBU_s_FuncInfo@@@Z 10025657 f   libvcruntime:ehstate.obj
 0001:0002467b       ?SetState@__FrameHandler3@@SAXPAUEHRegistrationNode@@PBU_s_FuncInfo@@H@Z 1002567b f   libvcruntime:ehstate.obj
 0001:0002468c       ___DestructExceptionObject 1002568c f   libvcruntime:ehhelpers.obj
 0001:00024754       ?_CallMemberFunction0@@YGXQAX0@Z 10025754 f i libvcruntime:ehhelpers.obj
 0001:00024764       ?raw_name@type_info@@QBEPBDXZ 10025764 f i libvcruntime:ehhelpers.obj
 0001:00024768       __IsExceptionObjectToBeDestroyed 10025768 f   libvcruntime:ehhelpers.obj
 0001:00024797       __SetWinRTOutOfMemoryExceptionCallback 10025797 f   libvcruntime:ehhelpers.obj
 0001:000247a7       ___AdjustPointer           100257a7 f   libvcruntime:ehhelpers.obj
 0001:000247d5       ___FrameUnwindFilter       100257d5 f   libvcruntime:ehhelpers.obj
 0001:0002482b       ___GetPlatformExceptionInfo 1002582b f   libvcruntime:ehhelpers.obj
 0001:0002488a       ___current_exception       1002588a f   libvcruntime:ehhelpers.obj
 0001:00024895       ___current_exception_context 10025895 f   libvcruntime:ehhelpers.obj
 0001:000248a0       ___processing_throw        100258a0 f   libvcruntime:ehhelpers.obj
 0001:000248ab       ___std_terminate           100258ab f   libvcruntime:ehhelpers.obj
 0001:000248b0       __is_exception_typeof      100258b0 f   libvcruntime:ehhelpers.obj
 0001:0002497d       ??$?RD@__crt_public_free_policy@@QBEXQBD@Z 1002597d f i libvcruntime:std_exception.obj
 0001:00024991       ??0?$__crt_unique_heap_ptr@DU__crt_public_free_policy@@@@QAE@QAD@Z 10025991 f i libvcruntime:std_exception.obj
 0001:000249a2       ??1?$__crt_unique_heap_ptr@DU__crt_public_free_policy@@@@QAE@XZ 100259a2 f i libvcruntime:std_exception.obj
 0001:000249b6       ??B?$__crt_unique_heap_ptr@DU__crt_public_free_policy@@@@QBE_NXZ 100259b6 f i libvcruntime:std_exception.obj
 0001:000249bd       ?detach@?$__crt_unique_heap_ptr@DU__crt_public_free_policy@@@@QAEPADXZ 100259bd f i libvcruntime:std_exception.obj
 0001:000249c3       ?get@?$__crt_unique_heap_ptr@DU__crt_public_free_policy@@@@QBEPADXZ 100259c3 f i libvcruntime:std_exception.obj
 0001:000249c6       ?is_valid@?$__crt_unique_heap_ptr@DU__crt_public_free_policy@@@@QBE_NXZ 100259c6 f i libvcruntime:std_exception.obj
 0001:000249cd       ?release@?$__crt_unique_heap_ptr@DU__crt_public_free_policy@@@@QAEXXZ 100259cd f i libvcruntime:std_exception.obj
 0001:000249e1       ___std_exception_copy      100259e1 f   libvcruntime:std_exception.obj
 0001:00024a5c       ___std_exception_destroy   10025a5c f   libvcruntime:std_exception.obj
 0001:00024a82       __CxxThrowException@8      10025a82 f   libvcruntime:throw.obj
 0001:00024b0a       _malloc                    10025b0a f   libucrt:malloc.obj
 0001:00024b17       _calloc                    10025b17 f   libucrt:calloc.obj
 0001:00024b24       _free                      10025b24 f   libucrt:free.obj
 0001:00024b48       ??$__crt_interlocked_read@J@@YAJPDJ@Z 10025b48 f i libucrt:assert.obj
 0001:00024b57       ??$__vcrt_va_start_verify_argument_type@QBD@@YAXXZ 10025b57 f i libucrt:assert.obj
 0001:00024b58       ??$__vcrt_va_start_verify_argument_type@QB_W@@YAXXZ 10025b58 f i libucrt:assert.obj
 0001:00025afa       ??$ftprintf@PAU_iobuf@@PBDABQBDABQBDABI@?$__crt_char_traits@D@@SAH$$QAPAU_iobuf@@$$QAPBDABQBD2ABI@Z 10026afa f i libucrt:assert.obj
 0001:00025b2c       ??$ftprintf@PAU_iobuf@@PB_WABQB_WABQB_WABI@?$__crt_char_traits@_W@@SAH$$QAPAU_iobuf@@$$QAPB_WABQB_W2ABI@Z 10026b2c f i libucrt:assert.obj
 0001:00025b5e       ??$get_module_file_name@AAPAUHINSTANCE__@@AAY0BAF@DK@?$__crt_char_traits@D@@SAKAAPAUHINSTANCE__@@AAY0BAF@D$$QAK@Z 10026b5e f i libucrt:assert.obj
 0001:00025b81       ??$get_module_file_name@AAPAUHINSTANCE__@@AAY0BAF@_WK@?$__crt_char_traits@_W@@SAKAAPAUHINSTANCE__@@AAY0BAF@_W$$QAK@Z 10026b81 f i libucrt:assert.obj
 0001:00025ba1       ??$itot_s@ABIPADIH@?$__crt_char_traits@D@@SAHABI$$QAPAD$$QAI$$QAH@Z 10026ba1 f i libucrt:assert.obj
 0001:00025bcc       ??$itot_s@ABIPA_WIH@?$__crt_char_traits@_W@@SAHABI$$QAPA_W$$QAI$$QAH@Z 10026bcc f i libucrt:assert.obj
 0001:00025bf7       ??$show_message_box@AAY0CEA@DPBDJ@?$__crt_char_traits@D@@SAHAAY0CEA@D$$QAPBD$$QAJ@Z 10026bf7 f i libucrt:assert.obj
 0001:00025c1a       ??$show_message_box@AAY0CEA@_WPB_WJ@?$__crt_char_traits@_W@@SAHAAY0CEA@_W$$QAPB_W$$QAJ@Z 10026c1a f i libucrt:assert.obj
 0001:00025c3d       ??$tcscat_s@ABQADABIAAPAD@?$__crt_char_traits@D@@SAHABQADABIAAPAD@Z 10026c3d f i libucrt:assert.obj
 0001:00025c62       ??$tcscat_s@ABQADABIABQBD@?$__crt_char_traits@D@@SAHABQADABIABQBD@Z 10026c62 f i libucrt:assert.obj
 0001:00025c87       ??$tcscat_s@ABQADABIPBD@?$__crt_char_traits@D@@SAHABQADABI$$QAPBD@Z 10026c87 f i libucrt:assert.obj
 0001:00025cac       ??$tcscat_s@ABQA_WABIAAPA_W@?$__crt_char_traits@_W@@SAHABQA_WABIAAPA_W@Z 10026cac f i libucrt:assert.obj
 0001:00025cd1       ??$tcscat_s@ABQA_WABIABQB_W@?$__crt_char_traits@_W@@SAHABQA_WABIABQB_W@Z 10026cd1 f i libucrt:assert.obj
 0001:00025cf6       ??$tcscat_s@ABQA_WABIPB_W@?$__crt_char_traits@_W@@SAHABQA_WABI$$QAPB_W@Z 10026cf6 f i libucrt:assert.obj
 0001:00025d1b       ??$tcscpy_s@AAY0BAF@DIPBD@?$__crt_char_traits@D@@SAHAAY0BAF@D$$QAI$$QAPBD@Z 10026d1b f i libucrt:assert.obj
 0001:00025d3e       ??$tcscpy_s@AAY0BAF@_WIPB_W@?$__crt_char_traits@_W@@SAHAAY0BAF@_W$$QAI$$QAPB_W@Z 10026d3e f i libucrt:assert.obj
 0001:00025d61       ??$tcscpy_s@ABQADABIPBD@?$__crt_char_traits@D@@SAHABQADABI$$QAPBD@Z 10026d61 f i libucrt:assert.obj
 0001:00025d86       ??$tcscpy_s@ABQA_WABIPB_W@?$__crt_char_traits@_W@@SAHABQA_WABI$$QAPB_W@Z 10026d86 f i libucrt:assert.obj
 0001:00025dab       ??$tcslen@AAY0BAF@D@?$__crt_char_traits@D@@SAIAAY0BAF@D@Z 10026dab f i libucrt:assert.obj
 0001:00025dc6       ??$tcslen@AAY0BAF@_W@?$__crt_char_traits@_W@@SAIAAY0BAF@_W@Z 10026dc6 f i libucrt:assert.obj
 0001:00025de9       ??$tcslen@ABQAD@?$__crt_char_traits@D@@SAIABQAD@Z 10026de9 f i libucrt:assert.obj
 0001:00025e07       ??$tcslen@ABQA_W@?$__crt_char_traits@_W@@SAIABQA_W@Z 10026e07 f i libucrt:assert.obj
 0001:00025e2c       ??$tcslen@ABQBD@?$__crt_char_traits@D@@SAIABQBD@Z 10026e2c f i libucrt:assert.obj
 0001:00025e4a       ??$tcslen@ABQB_W@?$__crt_char_traits@_W@@SAIABQB_W@Z 10026e4a f i libucrt:assert.obj
 0001:00025e6f       ??$tcsncat_s@ABQADABIAAPBDI@?$__crt_char_traits@D@@SAHABQADABIAAPBD$$QAI@Z 10026e6f f i libucrt:assert.obj
 0001:00025e9a       ??$tcsncat_s@ABQADABIABQBDABI@?$__crt_char_traits@D@@SAHABQADABIABQBD1@Z 10026e9a f i libucrt:assert.obj
 0001:00025ec5       ??$tcsncat_s@ABQADABIPBDI@?$__crt_char_traits@D@@SAHABQADABI$$QAPBD$$QAI@Z 10026ec5 f i libucrt:assert.obj
 0001:00025ef0       ??$tcsncat_s@ABQA_WABIAAPB_WI@?$__crt_char_traits@_W@@SAHABQA_WABIAAPB_W$$QAI@Z 10026ef0 f i libucrt:assert.obj
 0001:00025f1b       ??$tcsncat_s@ABQA_WABIABQB_WABI@?$__crt_char_traits@_W@@SAHABQA_WABIABQB_W1@Z 10026f1b f i libucrt:assert.obj
 0001:00025f46       ??$tcsncat_s@ABQA_WABIPB_WI@?$__crt_char_traits@_W@@SAHABQA_WABI$$QAPB_W$$QAI@Z 10026f46 f i libucrt:assert.obj
 0001:00025f71       ??0__crt_stdio_stream@@QAE@QAU_iobuf@@@Z 10026f71 f i libucrt:assert.obj
 0001:000260b7       ?get_flags@__crt_stdio_stream@@QBEJXZ 100270b7 f i libucrt:assert.obj
 0001:00026105       ?has_any_buffer@__crt_stdio_stream@@QBE_NXZ 10027105 f i libucrt:assert.obj
 0001:00026116       ?has_any_of@__crt_stdio_stream@@QBE_NJ@Z 10027116 f i libucrt:assert.obj
 0001:0002612f       __assert                   1002712f f   libucrt:assert.obj
 0001:00026189       __invoke_watson_if_error   10027189 f i libucrt:assert.obj
 0001:000261b3       __vfwprintf_l              100271b3 f i libucrt:assert.obj
 0001:000261e1       __vswprintf_c_l            100271e1 f i libucrt:assert.obj
 0001:0002621b       __wassert                  1002721b f   libucrt:assert.obj
 0001:00026275       _fwprintf                  10027275 f i libucrt:assert.obj
 0001:00026337       _swprintf                  10027337 f i libucrt:assert.obj
 0001:0002635c       _realloc                   1002735c f   libucrt:realloc.obj
 0001:00026369       ??$?B$$A6GXPAXK0@Z@__crt_fast_encoded_nullptr_t@@QBEP6GXPAXK0@ZXZ 10027369 f i libucrt:exit.obj
 0001:0002640c       ??$__crt_fast_decode_pointer@P6GXPAXK0@Z@@YAP6GXPAXK0@ZQ6GX0K0@Z@Z 1002740c f i libucrt:exit.obj
 0001:00026427       ??$__crt_fast_encode_pointer@P6GXPAXK0@Z@@YAP6GXPAXK0@ZQ6GX0K0@Z@Z 10027427 f i libucrt:exit.obj
 0001:0002644d       ??$__crt_get_proc_address@P6GXI@Z@@YAP6GXI@ZQAUHINSTANCE__@@QBD@Z 1002744d f i libucrt:exit.obj
 0001:000264b3       ??0?$__crt_unique_handle_t@U__crt_hmodule_traits@@@@QAE@QAUHINSTANCE__@@@Z 100274b3 f i libucrt:exit.obj
 0001:000264c7       ??1?$__crt_unique_handle_t@U__crt_hmodule_traits@@@@QAE@XZ 100274c7 f i libucrt:exit.obj
 0001:0002660c       ?__acrt_select_exit_lock@@YA?AW4__acrt_lock_id@@XZ 1002760c f i libucrt:exit.obj
 0001:00026627       ?close@?$__crt_unique_handle_t@U__crt_hmodule_traits@@@@QAEXXZ 10027627 f i libucrt:exit.obj
 0001:00026643       ?close@__crt_hmodule_traits@@SA_NPAUHINSTANCE__@@@Z 10027643 f i libucrt:exit.obj
 0001:0002672e       ?get@?$__crt_unique_handle_t@U__crt_hmodule_traits@@@@QBEPAUHINSTANCE__@@XZ 1002772e f i libucrt:exit.obj
 0001:00026731       ?get_address_of@?$__crt_unique_handle_t@U__crt_hmodule_traits@@@@QAEPAPAUHINSTANCE__@@XZ 10027731 f i libucrt:exit.obj
 0001:00026734       ?get_invalid_value@__crt_hmodule_traits@@SAPAUHINSTANCE__@@XZ 10027734 f i libucrt:exit.obj
 0001:00026835       __Exit                     10027835 f   libucrt:exit.obj
 0001:00026850       ___acrt_initialize_thread_local_exit_callback 10027850 f   libucrt:exit.obj
 0001:00026862       __c_exit                   10027862 f   libucrt:exit.obj
 0001:00026874       __cexit                    10027874 f   libucrt:exit.obj
 0001:00026886       __exit                     10027886 f   libucrt:exit.obj
 0001:000268a1       __is_c_termination_complete 100278a1 f   libucrt:exit.obj
 0001:000268a7       __register_thread_local_exe_atexit_callback 100278a7 f   libucrt:exit.obj
 0001:000268ed       _exit                      100278ed f   libucrt:exit.obj
 0001:00026908       _quick_exit                10027908 f   libucrt:exit.obj
 0001:00026930       _strncat                   10027930 f   libucrt:strncat.obj
 0001:00026ac0       _strncpy                   10027ac0 f   libucrt:strncpy.obj
 0001:00026c2d       ??$?RPAU__crt_stdio_stream_data@@@__crt_internal_free_policy@@QBEXQBQAU__crt_stdio_stream_data@@@Z 10027c2d f i libucrt:_file.obj
 0001:00026c43       ??0?$__crt_unique_heap_ptr@PAU__crt_stdio_stream_data@@U__crt_internal_free_policy@@@@QAE@QAPAU__crt_stdio_stream_data@@@Z 10027c43 f i libucrt:_file.obj
 0001:00026c57       ??1?$__crt_unique_heap_ptr@PAU__crt_stdio_stream_data@@U__crt_internal_free_policy@@@@QAE@XZ 10027c57 f i libucrt:_file.obj
 0001:00026c6d       ??C__crt_stdio_stream@@QBEPAU__crt_stdio_stream_data@@XZ 10027c6d f i libucrt:_file.obj
 0001:00026c70       ?detach@?$__crt_unique_heap_ptr@PAU__crt_stdio_stream_data@@U__crt_internal_free_policy@@@@QAEPAPAU__crt_stdio_stream_data@@XZ 10027c70 f i libucrt:_file.obj
 0001:00026c76       ?release@?$__crt_unique_heap_ptr@PAU__crt_stdio_stream_data@@U__crt_internal_free_policy@@@@QAEXXZ 10027c76 f i libucrt:_file.obj
 0001:00026c8c       ___acrt_initialize_stdio   10027c8c f   libucrt:_file.obj
 0001:00026d86       ___acrt_iob_func           10027d86 f   libucrt:_file.obj
 0001:00026d9a       ___acrt_uninitialize_stdio 10027d9a f   libucrt:_file.obj
 0001:00026df9       __get_stream_buffer_pointers 10027df9 f   libucrt:_file.obj
 0001:00026e50       __lock_file                10027e50 f   libucrt:_file.obj
 0001:00026e69       __unlock_file              10027e69 f   libucrt:_file.obj
 0001:00026e82       ?is_in_use@__crt_stdio_stream@@QBE_NXZ 10027e82 f i libucrt:fclose.obj
 0001:00026e8f       ?is_string_backed@__crt_stdio_stream@@QBE_NXZ 10027e8f f i libucrt:fclose.obj
 0001:00026e9c       ?public_stream@__crt_stdio_stream@@QBEPAU_iobuf@@XZ 10027e9c f i libucrt:fclose.obj
 0001:00026e9f       ?valid@__crt_stdio_stream@@QBE_NXZ 10027e9f f i libucrt:fclose.obj
 0001:00026ea6       __fclose_nolock            10027ea6 f   libucrt:fclose.obj
 0001:00026f39       _fclose                    10027f39 f   libucrt:fclose.obj
 0001:0002722f       ??$open_file@ABQBDABQBDABHPAU_iobuf@@@?$__crt_char_traits@D@@SAPAU_iobuf@@ABQBD0ABH$$QAPAU1@@Z 1002822f f i libucrt:fopen.obj
 0001:0002725a       ??$open_file@ABQB_WABQB_WABHPAU_iobuf@@@?$__crt_char_traits@_W@@SAPAU_iobuf@@ABQB_W0ABH$$QAPAU1@@Z 1002825a f i libucrt:fopen.obj
 0001:00027285       ?unlock@__crt_stdio_stream@@QBEXXZ 10028285 f i libucrt:fopen.obj
 0001:00027290       __fsopen                   10028290 f   libucrt:fopen.obj
 0001:0002729d       __wfopen                   1002829d f   libucrt:fopen.obj
 0001:000272b9       __wfopen_s                 100282b9 f   libucrt:fopen.obj
 0001:00027311       __wfsopen                  10028311 f   libucrt:fopen.obj
 0001:0002731e       _fopen                     1002831e f   libucrt:fopen.obj
 0001:0002733a       _fopen_s                   1002833a f   libucrt:fopen.obj
 0001:00027392       ?__acrt_stdio_reset_buffer@@YAXV__crt_stdio_stream@@@Z 10028392 f i libucrt:fread.obj
 0001:000273ad       ?set_flags@__crt_stdio_stream@@QBE_NJ@Z 100283ad f i libucrt:fread.obj
 0001:000273da       __fread_nolock             100283da f   libucrt:fread.obj
 0001:000273fe       __fread_nolock_s           100283fe f   libucrt:fread.obj
 0001:0002764d       _fread                     1002864d f   libucrt:fread.obj
 0001:00027671       _fread_s                   10028671 f   libucrt:fread.obj
 0001:000278b6       ??0__acrt_stdio_temporary_buffering_guard@@QAE@QAU_iobuf@@@Z 100288b6 f i libucrt:fwrite.obj
 0001:000278db       ??1__acrt_stdio_temporary_buffering_guard@@QAE@XZ 100288db f i libucrt:fwrite.obj
 0001:00027959       ?has_big_buffer@__crt_stdio_stream@@QBE_NXZ 10028959 f i libucrt:fwrite.obj
 0001:00027966       __fwrite_nolock            10028966 f   libucrt:fwrite.obj
 0001:00027b3f       _fwrite                    10028b3f f   libucrt:fwrite.obj
 0001:00027c62       ??$__acrt_mbs_to_wcs_cp@U__crt_win32_buffer_internal_dynamic_resizing@@@@YAHQBDAAV?$__crt_win32_buffer@_WU__crt_win32_buffer_internal_dynamic_resizing@@@@I@Z 10028c62 f i libucrt:unlink.obj
 0001:00027c88       ??0?$__crt_win32_buffer@_WU__crt_win32_buffer_internal_dynamic_resizing@@@@QAE@XZ 10028c88 f i libucrt:unlink.obj
 0001:00027ca3       ??0_LocaleUpdate@@QAE@QAU__crt_locale_pointers@@@Z 10028ca3 f i libucrt:unlink.obj
 0001:00027d46       ??1?$__crt_win32_buffer@_WU__crt_win32_buffer_internal_dynamic_resizing@@@@QAE@XZ 10028d46 f i libucrt:unlink.obj
 0001:00027d4b       ??1_LocaleUpdate@@QAE@XZ   10028d4b f i libucrt:unlink.obj
 0001:00027d88       ?GetLocaleT@_LocaleUpdate@@QAEPAU__crt_locale_pointers@@XZ 10028d88 f i libucrt:unlink.obj
 0001:00027d8c       ?__acrt_get_utf8_acp_compatibility_codepage@@YAIXZ 10028d8c f i libucrt:unlink.obj
 0001:00027ddd       ?_deallocate@?$__crt_win32_buffer@_WU__crt_win32_buffer_internal_dynamic_resizing@@@@AAEXXZ 10028ddd f i libucrt:unlink.obj
 0001:00027dfd       ?allocate@?$__crt_win32_buffer@_WU__crt_win32_buffer_internal_dynamic_resizing@@@@QAEHI@Z 10028dfd f i libucrt:unlink.obj
 0001:00027e4b       ?allocate@__crt_win32_buffer_internal_dynamic_resizing@@SAHQAPAXIABV__crt_win32_buffer_empty_debug_info@@@Z 10028e4b f i libucrt:unlink.obj
 0001:00027e71       ?capacity@?$__crt_win32_buffer@_WU__crt_win32_buffer_internal_dynamic_resizing@@@@QBEIXZ 10028e71 f i libucrt:unlink.obj
 0001:00027e75       ?data@?$__crt_win32_buffer@_WU__crt_win32_buffer_internal_dynamic_resizing@@@@QAEPA_WXZ 10028e75 f i libucrt:unlink.obj
 0001:00027e79       ?deallocate@__crt_win32_buffer_internal_dynamic_resizing@@SAXQAXABV__crt_win32_buffer_empty_debug_info@@@Z 10028e79 f i libucrt:unlink.obj
 0001:00027e8d       ?debug_info@?$__crt_win32_buffer@_WU__crt_win32_buffer_internal_dynamic_resizing@@@@QBEABV__crt_win32_buffer_empty_debug_info@@XZ 10028e8d f i libucrt:unlink.obj
 0001:00027e90       ?size@?$__crt_win32_buffer@_WU__crt_win32_buffer_internal_dynamic_resizing@@@@QAEXI@Z 10028e90 f i libucrt:unlink.obj
 0001:00027ea2       ___acrt_locale_changed     10028ea2 f i libucrt:unlink.obj
 0001:00027eaf       __unlink                   10028eaf f   libucrt:unlink.obj
 0001:00027ebc       _remove                    10028ebc f   libucrt:unlink.obj
 0001:00027f43       ?has_all_of@__crt_stdio_stream@@QBE_NJ@Z 10028f43 f i libucrt:rewind.obj
 0001:00027f5f       ?unset_flags@__crt_stdio_stream@@QBE_NJ@Z 10028f5f f i libucrt:rewind.obj
 0001:00027f92       _rewind                    10028f92 f   libucrt:rewind.obj
 0001:00028084       ??$?0ABV?$stream_output_adapter@D@__crt_stdio_output@@AB_KABQBDABQAU__crt_locale_pointers@@ABQAD@?$format_validation_base@DV?$stream_output_adapter@D@__crt_stdio_output@@@__crt_stdio_output@@IAE@ABV?$stream_output_adapter@D@1@AB_KABQBDABQAU__crt_locale_pointers@@ABQAD@Z 10029084 f i libucrt:output.obj
 0001:000280af       ??$?0ABV?$stream_output_adapter@D@__crt_stdio_output@@AB_KABQBDABQAU__crt_locale_pointers@@ABQAD@?$positional_parameter_base@DV?$stream_output_adapter@D@__crt_stdio_output@@@__crt_stdio_output@@IAE@ABV?$stream_output_adapter@D@1@AB_KABQBDABQAU__crt_locale_pointers@@ABQAD@Z 100290af f i libucrt:output.obj
 0001:00028109       ??$?0ABV?$stream_output_adapter@D@__crt_stdio_output@@AB_KABQBDABQAU__crt_locale_pointers@@ABQAD@?$standard_base@DV?$stream_output_adapter@D@__crt_stdio_output@@@__crt_stdio_output@@IAE@ABV?$stream_output_adapter@D@1@AB_KABQBDABQAU__crt_locale_pointers@@ABQAD@Z 10029109 f i libucrt:output.obj
 0001:0002814b       ??$?0ABV?$stream_output_adapter@_W@__crt_stdio_output@@AB_KABQB_WABQAU__crt_locale_pointers@@ABQAD@?$format_validation_base@_WV?$stream_output_adapter@_W@__crt_stdio_output@@@__crt_stdio_output@@IAE@ABV?$stream_output_adapter@_W@1@AB_KABQB_WABQAU__crt_locale_pointers@@ABQAD@Z 1002914b f i libucrt:output.obj
 0001:00028176       ??$?0ABV?$stream_output_adapter@_W@__crt_stdio_output@@AB_KABQB_WABQAU__crt_locale_pointers@@ABQAD@?$positional_parameter_base@_WV?$stream_output_adapter@_W@__crt_stdio_output@@@__crt_stdio_output@@IAE@ABV?$stream_output_adapter@_W@1@AB_KABQB_WABQAU__crt_locale_pointers@@ABQAD@Z 10029176 f i libucrt:output.obj
 0001:000281d0       ??$?0ABV?$stream_output_adapter@_W@__crt_stdio_output@@AB_KABQB_WABQAU__crt_locale_pointers@@ABQAD@?$standard_base@_WV?$stream_output_adapter@_W@__crt_stdio_output@@@__crt_stdio_output@@IAE@ABV?$stream_output_adapter@_W@1@AB_KABQB_WABQAU__crt_locale_pointers@@ABQAD@Z 100291d0 f i libucrt:output.obj
 0001:00028212       ??$?0ABV?$string_output_adapter@D@__crt_stdio_output@@AB_KABQBDABQAU__crt_locale_pointers@@ABQAD@?$format_validation_base@DV?$string_output_adapter@D@__crt_stdio_output@@@__crt_stdio_output@@IAE@ABV?$string_output_adapter@D@1@AB_KABQBDABQAU__crt_locale_pointers@@ABQAD@Z 10029212 f i libucrt:output.obj
 0001:0002823d       ??$?0ABV?$string_output_adapter@D@__crt_stdio_output@@AB_KABQBDABQAU__crt_locale_pointers@@ABQAD@?$positional_parameter_base@DV?$string_output_adapter@D@__crt_stdio_output@@@__crt_stdio_output@@IAE@ABV?$string_output_adapter@D@1@AB_KABQBDABQAU__crt_locale_pointers@@ABQAD@Z 1002923d f i libucrt:output.obj
 0001:00028297       ??$?0ABV?$string_output_adapter@D@__crt_stdio_output@@AB_KABQBDABQAU__crt_locale_pointers@@ABQAD@?$standard_base@DV?$string_output_adapter@D@__crt_stdio_output@@@__crt_stdio_output@@IAE@ABV?$string_output_adapter@D@1@AB_KABQBDABQAU__crt_locale_pointers@@ABQAD@Z 10029297 f i libucrt:output.obj
 0001:000282d9       ??$?0ABV?$string_output_adapter@_W@__crt_stdio_output@@AB_KABQB_WABQAU__crt_locale_pointers@@ABQAD@?$format_validation_base@_WV?$string_output_adapter@_W@__crt_stdio_output@@@__crt_stdio_output@@IAE@ABV?$string_output_adapter@_W@1@AB_KABQB_WABQAU__crt_locale_pointers@@ABQAD@Z 100292d9 f i libucrt:output.obj
 0001:00028304       ??$?0ABV?$string_output_adapter@_W@__crt_stdio_output@@AB_KABQB_WABQAU__crt_locale_pointers@@ABQAD@?$positional_parameter_base@_WV?$string_output_adapter@_W@__crt_stdio_output@@@__crt_stdio_output@@IAE@ABV?$string_output_adapter@_W@1@AB_KABQB_WABQAU__crt_locale_pointers@@ABQAD@Z 10029304 f i libucrt:output.obj
 0001:0002835e       ??$?0ABV?$string_output_adapter@_W@__crt_stdio_output@@AB_KABQB_WABQAU__crt_locale_pointers@@ABQAD@?$standard_base@_WV?$string_output_adapter@_W@__crt_stdio_output@@@__crt_stdio_output@@IAE@ABV?$string_output_adapter@_W@1@AB_KABQB_WABQAU__crt_locale_pointers@@ABQAD@Z 1002935e f i libucrt:output.obj
 0001:00029984       ??$count@D@formatting_buffer@__crt_stdio_output@@QBEIXZ 1002a984 f i libucrt:output.obj
 0001:000299a2       ??$count@_W@formatting_buffer@__crt_stdio_output@@QBEIXZ 1002a9a2 f i libucrt:output.obj
 0001:000299c1       ??$data@D@formatting_buffer@__crt_stdio_output@@QAEPADXZ 1002a9c1 f i libucrt:output.obj
 0001:000299d1       ??$data@_W@formatting_buffer@__crt_stdio_output@@QAEPA_WXZ 1002a9d1 f i libucrt:output.obj
 0001:000299e1       ??$ensure_buffer_is_big_enough@D@formatting_buffer@__crt_stdio_output@@QAE_NI@Z 1002a9e1 f i libucrt:output.obj
 0001:00029a7f       ??$ensure_buffer_is_big_enough@_W@formatting_buffer@__crt_stdio_output@@QAE_NI@Z 1002aa7f f i libucrt:output.obj
 0001:00029b1f       ??$extract_argument_from_va_list@C_J@?$positional_parameter_base@DV?$stream_output_adapter@D@__crt_stdio_output@@@__crt_stdio_output@@IAE_NAA_J@Z 1002ab1f f i libucrt:output.obj
 0001:00029bb6       ??$extract_argument_from_va_list@C_J@?$positional_parameter_base@DV?$string_output_adapter@D@__crt_stdio_output@@@__crt_stdio_output@@IAE_NAA_J@Z 1002abb6 f i libucrt:output.obj
 0001:00029c4d       ??$extract_argument_from_va_list@C_J@?$positional_parameter_base@_WV?$stream_output_adapter@_W@__crt_stdio_output@@@__crt_stdio_output@@IAE_NAA_J@Z 1002ac4d f i libucrt:output.obj
 0001:00029ce4       ??$extract_argument_from_va_list@C_J@?$positional_parameter_base@_WV?$string_output_adapter@_W@__crt_stdio_output@@@__crt_stdio_output@@IAE_NAA_J@Z 1002ace4 f i libucrt:output.obj
 0001:00029d7b       ??$extract_argument_from_va_list@C_J@?$standard_base@DV?$stream_output_adapter@D@__crt_stdio_output@@@__crt_stdio_output@@IAE_NAA_J@Z 1002ad7b f i libucrt:output.obj
 0001:00029da1       ??$extract_argument_from_va_list@C_J@?$standard_base@DV?$string_output_adapter@D@__crt_stdio_output@@@__crt_stdio_output@@IAE_NAA_J@Z 1002ada1 f i libucrt:output.obj
 0001:00029dc7       ??$extract_argument_from_va_list@C_J@?$standard_base@_WV?$stream_output_adapter@_W@__crt_stdio_output@@@__crt_stdio_output@@IAE_NAA_J@Z 1002adc7 f i libucrt:output.obj
 0001:00029ded       ??$extract_argument_from_va_list@C_J@?$standard_base@_WV?$string_output_adapter@_W@__crt_stdio_output@@@__crt_stdio_output@@IAE_NAA_J@Z 1002aded f i libucrt:output.obj
 0001:00029e13       ??$extract_argument_from_va_list@E_J@?$positional_parameter_base@DV?$stream_output_adapter@D@__crt_stdio_output@@@__crt_stdio_output@@IAE_NAA_J@Z 1002ae13 f i libucrt:output.obj
 0001:00029eaa       ??$extract_argument_from_va_list@E_J@?$positional_parameter_base@DV?$string_output_adapter@D@__crt_stdio_output@@@__crt_stdio_output@@IAE_NAA_J@Z 1002aeaa f i libucrt:output.obj
 0001:00029f41       ??$extract_argument_from_va_list@E_J@?$positional_parameter_base@_WV?$stream_output_adapter@_W@__crt_stdio_output@@@__crt_stdio_output@@IAE_NAA_J@Z 1002af41 f i libucrt:output.obj
 0001:00029fd8       ??$extract_argument_from_va_list@E_J@?$positional_parameter_base@_WV?$string_output_adapter@_W@__crt_stdio_output@@@__crt_stdio_output@@IAE_NAA_J@Z 1002afd8 f i libucrt:output.obj
 0001:0002a06f       ??$extract_argument_from_va_list@E_J@?$standard_base@DV?$stream_output_adapter@D@__crt_stdio_output@@@__crt_stdio_output@@IAE_NAA_J@Z 1002b06f f i libucrt:output.obj
 0001:0002a095       ??$extract_argument_from_va_list@E_J@?$standard_base@DV?$string_output_adapter@D@__crt_stdio_output@@@__crt_stdio_output@@IAE_NAA_J@Z 1002b095 f i libucrt:output.obj
 0001:0002a0bb       ??$extract_argument_from_va_list@E_J@?$standard_base@_WV?$stream_output_adapter@_W@__crt_stdio_output@@@__crt_stdio_output@@IAE_NAA_J@Z 1002b0bb f i libucrt:output.obj
 0001:0002a0e1       ??$extract_argument_from_va_list@E_J@?$standard_base@_WV?$string_output_adapter@_W@__crt_stdio_output@@@__crt_stdio_output@@IAE_NAA_J@Z 1002b0e1 f i libucrt:output.obj
 0001:0002a107       ??$extract_argument_from_va_list@F_J@?$positional_parameter_base@DV?$stream_output_adapter@D@__crt_stdio_output@@@__crt_stdio_output@@IAE_NAA_J@Z 1002b107 f i libucrt:output.obj
 0001:0002a19e       ??$extract_argument_from_va_list@F_J@?$positional_parameter_base@DV?$string_output_adapter@D@__crt_stdio_output@@@__crt_stdio_output@@IAE_NAA_J@Z 1002b19e f i libucrt:output.obj
 0001:0002a235       ??$extract_argument_from_va_list@F_J@?$positional_parameter_base@_WV?$stream_output_adapter@_W@__crt_stdio_output@@@__crt_stdio_output@@IAE_NAA_J@Z 1002b235 f i libucrt:output.obj
 0001:0002a2cc       ??$extract_argument_from_va_list@F_J@?$positional_parameter_base@_WV?$string_output_adapter@_W@__crt_stdio_output@@@__crt_stdio_output@@IAE_NAA_J@Z 1002b2cc f i libucrt:output.obj
 0001:0002a363       ??$extract_argument_from_va_list@F_J@?$standard_base@DV?$stream_output_adapter@D@__crt_stdio_output@@@__crt_stdio_output@@IAE_NAA_J@Z 1002b363 f i libucrt:output.obj
 0001:0002a389       ??$extract_argument_from_va_list@F_J@?$standard_base@DV?$string_output_adapter@D@__crt_stdio_output@@@__crt_stdio_output@@IAE_NAA_J@Z 1002b389 f i libucrt:output.obj
 0001:0002a3af       ??$extract_argument_from_va_list@F_J@?$standard_base@_WV?$stream_output_adapter@_W@__crt_stdio_output@@@__crt_stdio_output@@IAE_NAA_J@Z 1002b3af f i libucrt:output.obj
 0001:0002a3d5       ??$extract_argument_from_va_list@F_J@?$standard_base@_WV?$string_output_adapter@_W@__crt_stdio_output@@@__crt_stdio_output@@IAE_NAA_J@Z 1002b3d5 f i libucrt:output.obj
 0001:0002a3fb       ??$extract_argument_from_va_list@GD@?$positional_parameter_base@DV?$stream_output_adapter@D@__crt_stdio_output@@@__crt_stdio_output@@IAE_NAAD@Z 1002b3fb f i libucrt:output.obj
 0001:0002a491       ??$extract_argument_from_va_list@GD@?$positional_parameter_base@DV?$string_output_adapter@D@__crt_stdio_output@@@__crt_stdio_output@@IAE_NAAD@Z 1002b491 f i libucrt:output.obj
 0001:0002a527       ??$extract_argument_from_va_list@GD@?$standard_base@DV?$stream_output_adapter@D@__crt_stdio_output@@@__crt_stdio_output@@IAE_NAAD@Z 1002b527 f i libucrt:output.obj
 0001:0002a547       ??$extract_argument_from_va_list@GD@?$standard_base@DV?$string_output_adapter@D@__crt_stdio_output@@@__crt_stdio_output@@IAE_NAAD@Z 1002b547 f i libucrt:output.obj
 0001:0002a567       ??$extract_argument_from_va_list@G_J@?$positional_parameter_base@DV?$stream_output_adapter@D@__crt_stdio_output@@@__crt_stdio_output@@IAE_NAA_J@Z 1002b567 f i libucrt:output.obj
 0001:0002a5fe       ??$extract_argument_from_va_list@G_J@?$positional_parameter_base@DV?$string_output_adapter@D@__crt_stdio_output@@@__crt_stdio_output@@IAE_NAA_J@Z 1002b5fe f i libucrt:output.obj
 0001:0002a695       ??$extract_argument_from_va_list@G_J@?$positional_parameter_base@_WV?$stream_output_adapter@_W@__crt_stdio_output@@@__crt_stdio_output@@IAE_NAA_J@Z 1002b695 f i libucrt:output.obj
 0001:0002a72c       ??$extract_argument_from_va_list@G_J@?$positional_parameter_base@_WV?$string_output_adapter@_W@__crt_stdio_output@@@__crt_stdio_output@@IAE_NAA_J@Z 1002b72c f i libucrt:output.obj
 0001:0002a7c3       ??$extract_argument_from_va_list@G_J@?$standard_base@DV?$stream_output_adapter@D@__crt_stdio_output@@@__crt_stdio_output@@IAE_NAA_J@Z 1002b7c3 f i libucrt:output.obj
 0001:0002a7e9       ??$extract_argument_from_va_list@G_J@?$standard_base@DV?$string_output_adapter@D@__crt_stdio_output@@@__crt_stdio_output@@IAE_NAA_J@Z 1002b7e9 f i libucrt:output.obj
 0001:0002a80f       ??$extract_argument_from_va_list@G_J@?$standard_base@_WV?$stream_output_adapter@_W@__crt_stdio_output@@@__crt_stdio_output@@IAE_NAA_J@Z 1002b80f f i libucrt:output.obj
 0001:0002a835       ??$extract_argument_from_va_list@G_J@?$standard_base@_WV?$string_output_adapter@_W@__crt_stdio_output@@@__crt_stdio_output@@IAE_NAA_J@Z 1002b835 f i libucrt:output.obj
 0001:0002a85b       ??$extract_argument_from_va_list@H_J@?$positional_parameter_base@DV?$stream_output_adapter@D@__crt_stdio_output@@@__crt_stdio_output@@IAE_NAA_J@Z 1002b85b f i libucrt:output.obj
 0001:0002a8ef       ??$extract_argument_from_va_list@H_J@?$positional_parameter_base@DV?$string_output_adapter@D@__crt_stdio_output@@@__crt_stdio_output@@IAE_NAA_J@Z 1002b8ef f i libucrt:output.obj
 0001:0002a983       ??$extract_argument_from_va_list@H_J@?$positional_parameter_base@_WV?$stream_output_adapter@_W@__crt_stdio_output@@@__crt_stdio_output@@IAE_NAA_J@Z 1002b983 f i libucrt:output.obj
 0001:0002aa17       ??$extract_argument_from_va_list@H_J@?$positional_parameter_base@_WV?$string_output_adapter@_W@__crt_stdio_output@@@__crt_stdio_output@@IAE_NAA_J@Z 1002ba17 f i libucrt:output.obj
 0001:0002aaab       ??$extract_argument_from_va_list@H_J@?$standard_base@DV?$stream_output_adapter@D@__crt_stdio_output@@@__crt_stdio_output@@IAE_NAA_J@Z 1002baab f i libucrt:output.obj
 0001:0002aad0       ??$extract_argument_from_va_list@H_J@?$standard_base@DV?$string_output_adapter@D@__crt_stdio_output@@@__crt_stdio_output@@IAE_NAA_J@Z 1002bad0 f i libucrt:output.obj
 0001:0002aaf5       ??$extract_argument_from_va_list@H_J@?$standard_base@_WV?$stream_output_adapter@_W@__crt_stdio_output@@@__crt_stdio_output@@IAE_NAA_J@Z 1002baf5 f i libucrt:output.obj
 0001:0002ab1a       ??$extract_argument_from_va_list@H_J@?$standard_base@_WV?$string_output_adapter@_W@__crt_stdio_output@@@__crt_stdio_output@@IAE_NAA_J@Z 1002bb1a f i libucrt:output.obj
 0001:0002ab3f       ??$extract_argument_from_va_list@I_J@?$positional_parameter_base@DV?$stream_output_adapter@D@__crt_stdio_output@@@__crt_stdio_output@@IAE_NAA_J@Z 1002bb3f f i libucrt:output.obj
 0001:0002abdf       ??$extract_argument_from_va_list@I_J@?$positional_parameter_base@DV?$string_output_adapter@D@__crt_stdio_output@@@__crt_stdio_output@@IAE_NAA_J@Z 1002bbdf f i libucrt:output.obj
 0001:0002ac7f       ??$extract_argument_from_va_list@I_J@?$positional_parameter_base@_WV?$stream_output_adapter@_W@__crt_stdio_output@@@__crt_stdio_output@@IAE_NAA_J@Z 1002bc7f f i libucrt:output.obj
 0001:0002ad1f       ??$extract_argument_from_va_list@I_J@?$positional_parameter_base@_WV?$string_output_adapter@_W@__crt_stdio_output@@@__crt_stdio_output@@IAE_NAA_J@Z 1002bd1f f i libucrt:output.obj
 0001:0002adbf       ??$extract_argument_from_va_list@I_J@?$standard_base@DV?$stream_output_adapter@D@__crt_stdio_output@@@__crt_stdio_output@@IAE_NAA_J@Z 1002bdbf f i libucrt:output.obj
 0001:0002ade4       ??$extract_argument_from_va_list@I_J@?$standard_base@DV?$string_output_adapter@D@__crt_stdio_output@@@__crt_stdio_output@@IAE_NAA_J@Z 1002bde4 f i libucrt:output.obj
 0001:0002ae09       ??$extract_argument_from_va_list@I_J@?$standard_base@_WV?$stream_output_adapter@_W@__crt_stdio_output@@@__crt_stdio_output@@IAE_NAA_J@Z 1002be09 f i libucrt:output.obj
 0001:0002ae2e       ??$extract_argument_from_va_list@I_J@?$standard_base@_WV?$string_output_adapter@_W@__crt_stdio_output@@@__crt_stdio_output@@IAE_NAA_J@Z 1002be2e f i libucrt:output.obj
 0001:0002ae53       ??$extract_argument_from_va_list@PADPAD@?$positional_parameter_base@DV?$stream_output_adapter@D@__crt_stdio_output@@@__crt_stdio_output@@IAE_NAAPAD@Z 1002be53 f i libucrt:output.obj
 0001:0002aee9       ??$extract_argument_from_va_list@PADPAD@?$positional_parameter_base@DV?$string_output_adapter@D@__crt_stdio_output@@@__crt_stdio_output@@IAE_NAAPAD@Z 1002bee9 f i libucrt:output.obj
 0001:0002af7f       ??$extract_argument_from_va_list@PADPAD@?$positional_parameter_base@_WV?$stream_output_adapter@_W@__crt_stdio_output@@@__crt_stdio_output@@IAE_NAAPAD@Z 1002bf7f f i libucrt:output.obj
 0001:0002b015       ??$extract_argument_from_va_list@PADPAD@?$positional_parameter_base@_WV?$string_output_adapter@_W@__crt_stdio_output@@@__crt_stdio_output@@IAE_NAAPAD@Z 1002c015 f i libucrt:output.obj
 0001:0002b0ab       ??$extract_argument_from_va_list@PADPAD@?$standard_base@DV?$stream_output_adapter@D@__crt_stdio_output@@@__crt_stdio_output@@IAE_NAAPAD@Z 1002c0ab f i libucrt:output.obj
 0001:0002b0cb       ??$extract_argument_from_va_list@PADPAD@?$standard_base@DV?$string_output_adapter@D@__crt_stdio_output@@@__crt_stdio_output@@IAE_NAAPAD@Z 1002c0cb f i libucrt:output.obj
 0001:0002b0eb       ??$extract_argument_from_va_list@PADPAD@?$standard_base@_WV?$stream_output_adapter@_W@__crt_stdio_output@@@__crt_stdio_output@@IAE_NAAPAD@Z 1002c0eb f i libucrt:output.obj
 0001:0002b10b       ??$extract_argument_from_va_list@PADPAD@?$standard_base@_WV?$string_output_adapter@_W@__crt_stdio_output@@@__crt_stdio_output@@IAE_NAAPAD@Z 1002c10b f i libucrt:output.obj
 0001:0002b503       ??$extract_argument_from_va_list@PAXPAX@?$positional_parameter_base@DV?$stream_output_adapter@D@__crt_stdio_output@@@__crt_stdio_output@@IAE_NAAPAX@Z 1002c503 f i libucrt:output.obj
 0001:0002b599       ??$extract_argument_from_va_list@PAXPAX@?$positional_parameter_base@DV?$string_output_adapter@D@__crt_stdio_output@@@__crt_stdio_output@@IAE_NAAPAX@Z 1002c599 f i libucrt:output.obj
 0001:0002b62f       ??$extract_argument_from_va_list@PAXPAX@?$positional_parameter_base@_WV?$stream_output_adapter@_W@__crt_stdio_output@@@__crt_stdio_output@@IAE_NAAPAX@Z 1002c62f f i libucrt:output.obj
 0001:0002b6c5       ??$extract_argument_from_va_list@PAXPAX@?$positional_parameter_base@_WV?$string_output_adapter@_W@__crt_stdio_output@@@__crt_stdio_output@@IAE_NAAPAX@Z 1002c6c5 f i libucrt:output.obj
 0001:0002b75b       ??$extract_argument_from_va_list@PAXPAX@?$standard_base@DV?$stream_output_adapter@D@__crt_stdio_output@@@__crt_stdio_output@@IAE_NAAPAX@Z 1002c75b f i libucrt:output.obj
 0001:0002b77b       ??$extract_argument_from_va_list@PAXPAX@?$standard_base@DV?$string_output_adapter@D@__crt_stdio_output@@@__crt_stdio_output@@IAE_NAAPAX@Z 1002c77b f i libucrt:output.obj
 0001:0002b79b       ??$extract_argument_from_va_list@PAXPAX@?$standard_base@_WV?$stream_output_adapter@_W@__crt_stdio_output@@@__crt_stdio_output@@IAE_NAAPAX@Z 1002c79b f i libucrt:output.obj
 0001:0002b7bb       ??$extract_argument_from_va_list@PAXPAX@?$standard_base@_WV?$string_output_adapter@_W@__crt_stdio_output@@@__crt_stdio_output@@IAE_NAAPAX@Z 1002c7bb f i libucrt:output.obj
 0001:0002b7db       ??$extract_argument_from_va_list@U_CRT_DOUBLE@@U1@@?$positional_parameter_base@DV?$stream_output_adapter@D@__crt_stdio_output@@@__crt_stdio_output@@IAE_NAAU_CRT_DOUBLE@@@Z 1002c7db f i libucrt:output.obj
 0001:0002b882       ??$extract_argument_from_va_list@U_CRT_DOUBLE@@U1@@?$positional_parameter_base@DV?$string_output_adapter@D@__crt_stdio_output@@@__crt_stdio_output@@IAE_NAAU_CRT_DOUBLE@@@Z 1002c882 f i libucrt:output.obj
 0001:0002b929       ??$extract_argument_from_va_list@U_CRT_DOUBLE@@U1@@?$positional_parameter_base@_WV?$stream_output_adapter@_W@__crt_stdio_output@@@__crt_stdio_output@@IAE_NAAU_CRT_DOUBLE@@@Z 1002c929 f i libucrt:output.obj
 0001:0002b9d0       ??$extract_argument_from_va_list@U_CRT_DOUBLE@@U1@@?$positional_parameter_base@_WV?$string_output_adapter@_W@__crt_stdio_output@@@__crt_stdio_output@@IAE_NAAU_CRT_DOUBLE@@@Z 1002c9d0 f i libucrt:output.obj
 0001:0002ba77       ??$extract_argument_from_va_list@U_CRT_DOUBLE@@U1@@?$standard_base@DV?$stream_output_adapter@D@__crt_stdio_output@@@__crt_stdio_output@@IAE_NAAU_CRT_DOUBLE@@@Z 1002ca77 f i libucrt:output.obj
 0001:0002ba9f       ??$extract_argument_from_va_list@U_CRT_DOUBLE@@U1@@?$standard_base@DV?$string_output_adapter@D@__crt_stdio_output@@@__crt_stdio_output@@IAE_NAAU_CRT_DOUBLE@@@Z 1002ca9f f i libucrt:output.obj
 0001:0002bac7       ??$extract_argument_from_va_list@U_CRT_DOUBLE@@U1@@?$standard_base@_WV?$stream_output_adapter@_W@__crt_stdio_output@@@__crt_stdio_output@@IAE_NAAU_CRT_DOUBLE@@@Z 1002cac7 f i libucrt:output.obj
 0001:0002baef       ??$extract_argument_from_va_list@U_CRT_DOUBLE@@U1@@?$standard_base@_WV?$string_output_adapter@_W@__crt_stdio_output@@@__crt_stdio_output@@IAE_NAAU_CRT_DOUBLE@@@Z 1002caef f i libucrt:output.obj
 0001:0002bb17       ??$extract_argument_from_va_list@_J_J@?$positional_parameter_base@DV?$stream_output_adapter@D@__crt_stdio_output@@@__crt_stdio_output@@IAE_NAA_J@Z 1002cb17 f i libucrt:output.obj
 0001:0002bbbe       ??$extract_argument_from_va_list@_J_J@?$positional_parameter_base@DV?$string_output_adapter@D@__crt_stdio_output@@@__crt_stdio_output@@IAE_NAA_J@Z 1002cbbe f i libucrt:output.obj
 0001:0002bc65       ??$extract_argument_from_va_list@_J_J@?$positional_parameter_base@_WV?$stream_output_adapter@_W@__crt_stdio_output@@@__crt_stdio_output@@IAE_NAA_J@Z 1002cc65 f i libucrt:output.obj
 0001:0002bd0c       ??$extract_argument_from_va_list@_J_J@?$positional_parameter_base@_WV?$string_output_adapter@_W@__crt_stdio_output@@@__crt_stdio_output@@IAE_NAA_J@Z 1002cd0c f i libucrt:output.obj
 0001:0002bdb3       ??$extract_argument_from_va_list@_J_J@?$standard_base@DV?$stream_output_adapter@D@__crt_stdio_output@@@__crt_stdio_output@@IAE_NAA_J@Z 1002cdb3 f i libucrt:output.obj
 0001:0002bddb       ??$extract_argument_from_va_list@_J_J@?$standard_base@DV?$string_output_adapter@D@__crt_stdio_output@@@__crt_stdio_output@@IAE_NAA_J@Z 1002cddb f i libucrt:output.obj
 0001:0002be03       ??$extract_argument_from_va_list@_J_J@?$standard_base@_WV?$stream_output_adapter@_W@__crt_stdio_output@@@__crt_stdio_output@@IAE_NAA_J@Z 1002ce03 f i libucrt:output.obj
 0001:0002be2b       ??$extract_argument_from_va_list@_J_J@?$standard_base@_WV?$string_output_adapter@_W@__crt_stdio_output@@@__crt_stdio_output@@IAE_NAA_J@Z 1002ce2b f i libucrt:output.obj
 0001:0002be53       ??$extract_argument_from_va_list@_K_J@?$positional_parameter_base@DV?$stream_output_adapter@D@__crt_stdio_output@@@__crt_stdio_output@@IAE_NAA_J@Z 1002ce53 f i libucrt:output.obj
 0001:0002befa       ??$extract_argument_from_va_list@_K_J@?$positional_parameter_base@DV?$string_output_adapter@D@__crt_stdio_output@@@__crt_stdio_output@@IAE_NAA_J@Z 1002cefa f i libucrt:output.obj
 0001:0002bfa1       ??$extract_argument_from_va_list@_K_J@?$positional_parameter_base@_WV?$stream_output_adapter@_W@__crt_stdio_output@@@__crt_stdio_output@@IAE_NAA_J@Z 1002cfa1 f i libucrt:output.obj
 0001:0002c048       ??$extract_argument_from_va_list@_K_J@?$positional_parameter_base@_WV?$string_output_adapter@_W@__crt_stdio_output@@@__crt_stdio_output@@IAE_NAA_J@Z 1002d048 f i libucrt:output.obj
 0001:0002c0ef       ??$extract_argument_from_va_list@_K_J@?$standard_base@DV?$stream_output_adapter@D@__crt_stdio_output@@@__crt_stdio_output@@IAE_NAA_J@Z 1002d0ef f i libucrt:output.obj
 0001:0002c117       ??$extract_argument_from_va_list@_K_J@?$standard_base@DV?$string_output_adapter@D@__crt_stdio_output@@@__crt_stdio_output@@IAE_NAA_J@Z 1002d117 f i libucrt:output.obj
 0001:0002c13f       ??$extract_argument_from_va_list@_K_J@?$standard_base@_WV?$stream_output_adapter@_W@__crt_stdio_output@@@__crt_stdio_output@@IAE_NAA_J@Z 1002d13f f i libucrt:output.obj
 0001:0002c167       ??$extract_argument_from_va_list@_K_J@?$standard_base@_WV?$string_output_adapter@_W@__crt_stdio_output@@@__crt_stdio_output@@IAE_NAA_J@Z 1002d167 f i libucrt:output.obj
 0001:0002c18f       ??$extract_argument_from_va_list@_W_W@?$positional_parameter_base@DV?$stream_output_adapter@D@__crt_stdio_output@@@__crt_stdio_output@@IAE_NAA_W@Z 1002d18f f i libucrt:output.obj
 0001:0002c22a       ??$extract_argument_from_va_list@_W_W@?$positional_parameter_base@DV?$string_output_adapter@D@__crt_stdio_output@@@__crt_stdio_output@@IAE_NAA_W@Z 1002d22a f i libucrt:output.obj
 0001:0002c2c5       ??$extract_argument_from_va_list@_W_W@?$positional_parameter_base@_WV?$stream_output_adapter@_W@__crt_stdio_output@@@__crt_stdio_output@@IAE_NAA_W@Z 1002d2c5 f i libucrt:output.obj
 0001:0002c360       ??$extract_argument_from_va_list@_W_W@?$positional_parameter_base@_WV?$string_output_adapter@_W@__crt_stdio_output@@@__crt_stdio_output@@IAE_NAA_W@Z 1002d360 f i libucrt:output.obj
 0001:0002c3fb       ??$extract_argument_from_va_list@_W_W@?$standard_base@DV?$stream_output_adapter@D@__crt_stdio_output@@@__crt_stdio_output@@IAE_NAA_W@Z 1002d3fb f i libucrt:output.obj
 0001:0002c41e       ??$extract_argument_from_va_list@_W_W@?$standard_base@DV?$string_output_adapter@D@__crt_stdio_output@@@__crt_stdio_output@@IAE_NAA_W@Z 1002d41e f i libucrt:output.obj
 0001:0002c441       ??$extract_argument_from_va_list@_W_W@?$standard_base@_WV?$stream_output_adapter@_W@__crt_stdio_output@@@__crt_stdio_output@@IAE_NAA_W@Z 1002d441 f i libucrt:output.obj
 0001:0002c464       ??$extract_argument_from_va_list@_W_W@?$standard_base@_WV?$string_output_adapter@_W@__crt_stdio_output@@@__crt_stdio_output@@IAE_NAA_W@Z 1002d464 f i libucrt:output.obj
 0001:0002c487       ??$get_parameter_type@D@?$positional_parameter_base@DV?$stream_output_adapter@D@__crt_stdio_output@@@__crt_stdio_output@@CA?AW4parameter_type@01@PAD@Z 1002d487 f i libucrt:output.obj
 0001:0002c48b       ??$get_parameter_type@D@?$positional_parameter_base@DV?$string_output_adapter@D@__crt_stdio_output@@@__crt_stdio_output@@CA?AW4parameter_type@01@PAD@Z 1002d48b f i libucrt:output.obj
 0001:0002c48f       ??$get_parameter_type@D@?$positional_parameter_base@_WV?$stream_output_adapter@_W@__crt_stdio_output@@@__crt_stdio_output@@CA?AW4parameter_type@01@PAD@Z 1002d48f f i libucrt:output.obj
 0001:0002c493       ??$get_parameter_type@D@?$positional_parameter_base@_WV?$string_output_adapter@_W@__crt_stdio_output@@@__crt_stdio_output@@CA?AW4parameter_type@01@PAD@Z 1002d493 f i libucrt:output.obj
 0001:0002c4a7       ??$get_parameter_type@X@?$positional_parameter_base@DV?$stream_output_adapter@D@__crt_stdio_output@@@__crt_stdio_output@@CA?AW4parameter_type@01@PAX@Z 1002d4a7 f i libucrt:output.obj
 0001:0002c4ab       ??$get_parameter_type@X@?$positional_parameter_base@DV?$string_output_adapter@D@__crt_stdio_output@@@__crt_stdio_output@@CA?AW4parameter_type@01@PAX@Z 1002d4ab f i libucrt:output.obj
 0001:0002c4af       ??$get_parameter_type@X@?$positional_parameter_base@_WV?$stream_output_adapter@_W@__crt_stdio_output@@@__crt_stdio_output@@CA?AW4parameter_type@01@PAX@Z 1002d4af f i libucrt:output.obj
 0001:0002c4b3       ??$get_parameter_type@X@?$positional_parameter_base@_WV?$string_output_adapter@_W@__crt_stdio_output@@@__crt_stdio_output@@CA?AW4parameter_type@01@PAX@Z 1002d4b3 f i libucrt:output.obj
 0001:0002c4b7       ??$is_character_specifier@D@?$positional_parameter_base@DV?$stream_output_adapter@D@__crt_stdio_output@@@__crt_stdio_output@@CA_ND@Z 1002d4b7 f i libucrt:output.obj
 0001:0002c4d5       ??$is_character_specifier@D@?$positional_parameter_base@DV?$string_output_adapter@D@__crt_stdio_output@@@__crt_stdio_output@@CA_ND@Z 1002d4d5 f i libucrt:output.obj
 0001:0002c4f3       ??$is_character_specifier@_W@?$positional_parameter_base@_WV?$stream_output_adapter@_W@__crt_stdio_output@@@__crt_stdio_output@@CA_N_W@Z 1002d4f3 f i libucrt:output.obj
 0001:0002c514       ??$is_character_specifier@_W@?$positional_parameter_base@_WV?$string_output_adapter@_W@__crt_stdio_output@@@__crt_stdio_output@@CA_N_W@Z 1002d514 f i libucrt:output.obj
 0001:0002c535       ??$is_integral_specifier@D@?$positional_parameter_base@DV?$stream_output_adapter@D@__crt_stdio_output@@@__crt_stdio_output@@CA_ND@Z 1002d535 f i libucrt:output.obj
 0001:0002c56c       ??$is_integral_specifier@D@?$positional_parameter_base@DV?$string_output_adapter@D@__crt_stdio_output@@@__crt_stdio_output@@CA_ND@Z 1002d56c f i libucrt:output.obj
 0001:0002c5a3       ??$is_integral_specifier@_W@?$positional_parameter_base@_WV?$stream_output_adapter@_W@__crt_stdio_output@@@__crt_stdio_output@@CA_N_W@Z 1002d5a3 f i libucrt:output.obj
 0001:0002c5ec       ??$is_integral_specifier@_W@?$positional_parameter_base@_WV?$string_output_adapter@_W@__crt_stdio_output@@@__crt_stdio_output@@CA_N_W@Z 1002d5ec f i libucrt:output.obj
 0001:0002c635       ??$is_pointer_specifier@D@?$positional_parameter_base@DV?$stream_output_adapter@D@__crt_stdio_output@@@__crt_stdio_output@@CA_ND@Z 1002d635 f i libucrt:output.obj
 0001:0002c646       ??$is_pointer_specifier@D@?$positional_parameter_base@DV?$string_output_adapter@D@__crt_stdio_output@@@__crt_stdio_output@@CA_ND@Z 1002d646 f i libucrt:output.obj
 0001:0002c657       ??$is_pointer_specifier@_W@?$positional_parameter_base@_WV?$stream_output_adapter@_W@__crt_stdio_output@@@__crt_stdio_output@@CA_N_W@Z 1002d657 f i libucrt:output.obj
 0001:0002c669       ??$is_pointer_specifier@_W@?$positional_parameter_base@_WV?$string_output_adapter@_W@__crt_stdio_output@@@__crt_stdio_output@@CA_N_W@Z 1002d669 f i libucrt:output.obj
 0001:0002c67b       ??$is_string_specifier@D@?$positional_parameter_base@DV?$stream_output_adapter@D@__crt_stdio_output@@@__crt_stdio_output@@CA_ND@Z 1002d67b f i libucrt:output.obj
 0001:0002c699       ??$is_string_specifier@D@?$positional_parameter_base@DV?$string_output_adapter@D@__crt_stdio_output@@@__crt_stdio_output@@CA_ND@Z 1002d699 f i libucrt:output.obj
 0001:0002c6b7       ??$is_string_specifier@_W@?$positional_parameter_base@_WV?$stream_output_adapter@_W@__crt_stdio_output@@@__crt_stdio_output@@CA_N_W@Z 1002d6b7 f i libucrt:output.obj
 0001:0002c6d8       ??$is_string_specifier@_W@?$positional_parameter_base@_WV?$string_output_adapter@_W@__crt_stdio_output@@@__crt_stdio_output@@CA_N_W@Z 1002d6d8 f i libucrt:output.obj
 0001:0002c6f9       ??$is_wide_character_specifier@D@__crt_stdio_output@@YA_N_KDW4length_modifier@0@@Z 1002d6f9 f i libucrt:output.obj
 0001:0002c736       ??$is_wide_character_specifier@_W@__crt_stdio_output@@YA_N_K_WW4length_modifier@0@@Z 1002d736 f i libucrt:output.obj
 0001:0002c797       ??$peek_va_arg@C@__crt_stdio_output@@YACPAD@Z 1002d797 f i libucrt:output.obj
 0001:0002c7a6       ??$peek_va_arg@E@__crt_stdio_output@@YAEPAD@Z 1002d7a6 f i libucrt:output.obj
 0001:0002c7b5       ??$peek_va_arg@F@__crt_stdio_output@@YAFPAD@Z 1002d7b5 f i libucrt:output.obj
 0001:0002c7c5       ??$peek_va_arg@G@__crt_stdio_output@@YAGPAD@Z 1002d7c5 f i libucrt:output.obj
 0001:0002c7d5       ??$peek_va_arg@H@__crt_stdio_output@@YAHPAD@Z 1002d7d5 f i libucrt:output.obj
 0001:0002c7e4       ??$peek_va_arg@I@__crt_stdio_output@@YAIPAD@Z 1002d7e4 f i libucrt:output.obj
 0001:0002c7f3       ??$peek_va_arg@PAD@__crt_stdio_output@@YAPADPAD@Z 1002d7f3 f i libucrt:output.obj
 0001:0002c83e       ??$peek_va_arg@PAX@__crt_stdio_output@@YAPAXPAD@Z 1002d83e f i libucrt:output.obj
 0001:0002c84d       ??$peek_va_arg@U_CRT_DOUBLE@@@__crt_stdio_output@@YA?AU_CRT_DOUBLE@@PAD@Z 1002d84d f i libucrt:output.obj
 0001:0002c85f       ??$peek_va_arg@_J@__crt_stdio_output@@YA_JPAD@Z 1002d85f f i libucrt:output.obj
 0001:0002c871       ??$peek_va_arg@_K@__crt_stdio_output@@YA_KPAD@Z 1002d871 f i libucrt:output.obj
 0001:0002c883       ??$peek_va_arg@_W@__crt_stdio_output@@YA_WPAD@Z 1002d883 f i libucrt:output.obj
 0001:0002c893       ??$puttc_nolock@ABDPAU_iobuf@@@?$__crt_char_traits@D@@SAHABD$$QAPAU_iobuf@@@Z 1002d893 f i libucrt:output.obj
 0001:0002c8b3       ??$puttc_nolock@AB_WPAU_iobuf@@@?$__crt_char_traits@_W@@SAGAB_W$$QAPAU_iobuf@@@Z 1002d8b3 f i libucrt:output.obj
 0001:0002c8d3       ??$read_va_arg@C@__crt_stdio_output@@YACAAPAD@Z 1002d8d3 f i libucrt:output.obj
 0001:0002c8e9       ??$read_va_arg@E@__crt_stdio_output@@YAEAAPAD@Z 1002d8e9 f i libucrt:output.obj
 0001:0002c8ff       ??$read_va_arg@F@__crt_stdio_output@@YAFAAPAD@Z 1002d8ff f i libucrt:output.obj
 0001:0002c916       ??$read_va_arg@G@__crt_stdio_output@@YAGAAPAD@Z 1002d916 f i libucrt:output.obj
 0001:0002c92d       ??$read_va_arg@H@__crt_stdio_output@@YAHAAPAD@Z 1002d92d f i libucrt:output.obj
 0001:0002c943       ??$read_va_arg@I@__crt_stdio_output@@YAIAAPAD@Z 1002d943 f i libucrt:output.obj
 0001:0002c959       ??$read_va_arg@PAD@__crt_stdio_output@@YAPADAAPAD@Z 1002d959 f i libucrt:output.obj
 0001:0002ca77       ??$read_va_arg@PAX@__crt_stdio_output@@YAPAXAAPAD@Z 1002da77 f i libucrt:output.obj
 0001:0002ca8d       ??$read_va_arg@U_CRT_DOUBLE@@@__crt_stdio_output@@YA?AU_CRT_DOUBLE@@AAPAD@Z 1002da8d f i libucrt:output.obj
 0001:0002caa8       ??$read_va_arg@_J@__crt_stdio_output@@YA_JAAPAD@Z 1002daa8 f i libucrt:output.obj
 0001:0002cac2       ??$read_va_arg@_K@__crt_stdio_output@@YA_KAAPAD@Z 1002dac2 f i libucrt:output.obj
 0001:0002cadc       ??$read_va_arg@_W@__crt_stdio_output@@YA_WAAPAD@Z 1002dadc f i libucrt:output.obj
 0001:0002caf3       ??$scratch_count@D@formatting_buffer@__crt_stdio_output@@QBEIXZ 1002daf3 f i libucrt:output.obj
 0001:0002caf8       ??$scratch_data@D@formatting_buffer@__crt_stdio_output@@QAEPADXZ 1002daf8 f i libucrt:output.obj
 0001:0002cb1d       ??$tcstol@AAPBDPAPADH@?$__crt_char_traits@D@@SAJAAPBD$$QAPAPAD$$QAH@Z 1002db1d f i libucrt:output.obj
 0001:0002cb42       ??$tcstol@AAPB_WPAPA_WH@?$__crt_char_traits@_W@@SAJAAPB_W$$QAPAPA_W$$QAH@Z 1002db42 f i libucrt:output.obj
 0001:0002cb67       ??$tcstol@PBDPAPADH@?$__crt_char_traits@D@@SAJ$$QAPBD$$QAPAPAD$$QAH@Z 1002db67 f i libucrt:output.obj
 0001:0002cb8c       ??$tcstol@PB_WPAPA_WH@?$__crt_char_traits@_W@@SAJ$$QAPB_W$$QAPAPA_W$$QAH@Z 1002db8c f i libucrt:output.obj
 0001:0002cbb1       ??$type_case_integer_parse_into_buffer@I@?$output_processor@DV?$stream_output_adapter@D@__crt_stdio_output@@V?$format_validation_base@DV?$stream_output_adapter@D@__crt_stdio_output@@@2@@__crt_stdio_output@@AAEXII_N@Z 1002dbb1 f i libucrt:output.obj
 0001:0002cc40       ??$type_case_integer_parse_into_buffer@I@?$output_processor@DV?$stream_output_adapter@D@__crt_stdio_output@@V?$positional_parameter_base@DV?$stream_output_adapter@D@__crt_stdio_output@@@2@@__crt_stdio_output@@AAEXII_N@Z 1002dc40 f i libucrt:output.obj
 0001:0002cccf       ??$type_case_integer_parse_into_buffer@I@?$output_processor@DV?$stream_output_adapter@D@__crt_stdio_output@@V?$standard_base@DV?$stream_output_adapter@D@__crt_stdio_output@@@2@@__crt_stdio_output@@AAEXII_N@Z 1002dccf f i libucrt:output.obj
 0001:0002cd5e       ??$type_case_integer_parse_into_buffer@I@?$output_processor@DV?$string_output_adapter@D@__crt_stdio_output@@V?$format_validation_base@DV?$string_output_adapter@D@__crt_stdio_output@@@2@@__crt_stdio_output@@AAEXII_N@Z 1002dd5e f i libucrt:output.obj
 0001:0002cded       ??$type_case_integer_parse_into_buffer@I@?$output_processor@DV?$string_output_adapter@D@__crt_stdio_output@@V?$positional_parameter_base@DV?$string_output_adapter@D@__crt_stdio_output@@@2@@__crt_stdio_output@@AAEXII_N@Z 1002dded f i libucrt:output.obj
 0001:0002ce7c       ??$type_case_integer_parse_into_buffer@I@?$output_processor@DV?$string_output_adapter@D@__crt_stdio_output@@V?$standard_base@DV?$string_output_adapter@D@__crt_stdio_output@@@2@@__crt_stdio_output@@AAEXII_N@Z 1002de7c f i libucrt:output.obj
 0001:0002cf0b       ??$type_case_integer_parse_into_buffer@I@?$output_processor@_WV?$stream_output_adapter@_W@__crt_stdio_output@@V?$format_validation_base@_WV?$stream_output_adapter@_W@__crt_stdio_output@@@2@@__crt_stdio_output@@AAEXII_N@Z 1002df0b f i libucrt:output.obj
 0001:0002cfab       ??$type_case_integer_parse_into_buffer@I@?$output_processor@_WV?$stream_output_adapter@_W@__crt_stdio_output@@V?$positional_parameter_base@_WV?$stream_output_adapter@_W@__crt_stdio_output@@@2@@__crt_stdio_output@@AAEXII_N@Z 1002dfab f i libucrt:output.obj
 0001:0002d04b       ??$type_case_integer_parse_into_buffer@I@?$output_processor@_WV?$stream_output_adapter@_W@__crt_stdio_output@@V?$standard_base@_WV?$stream_output_adapter@_W@__crt_stdio_output@@@2@@__crt_stdio_output@@AAEXII_N@Z 1002e04b f i libucrt:output.obj
 0001:0002d0eb       ??$type_case_integer_parse_into_buffer@I@?$output_processor@_WV?$string_output_adapter@_W@__crt_stdio_output@@V?$format_validation_base@_WV?$string_output_adapter@_W@__crt_stdio_output@@@2@@__crt_stdio_output@@AAEXII_N@Z 1002e0eb f i libucrt:output.obj
 0001:0002d18b       ??$type_case_integer_parse_into_buffer@I@?$output_processor@_WV?$string_output_adapter@_W@__crt_stdio_output@@V?$positional_parameter_base@_WV?$string_output_adapter@_W@__crt_stdio_output@@@2@@__crt_stdio_output@@AAEXII_N@Z 1002e18b f i libucrt:output.obj
 0001:0002d22b       ??$type_case_integer_parse_into_buffer@I@?$output_processor@_WV?$string_output_adapter@_W@__crt_stdio_output@@V?$standard_base@_WV?$string_output_adapter@_W@__crt_stdio_output@@@2@@__crt_stdio_output@@AAEXII_N@Z 1002e22b f i libucrt:output.obj
 0001:0002d2cb       ??$type_case_integer_parse_into_buffer@_K@?$output_processor@DV?$stream_output_adapter@D@__crt_stdio_output@@V?$format_validation_base@DV?$stream_output_adapter@D@__crt_stdio_output@@@2@@__crt_stdio_output@@AAEX_KI_N@Z 1002e2cb f i libucrt:output.obj
 0001:0002d37d       ??$type_case_integer_parse_into_buffer@_K@?$output_processor@DV?$stream_output_adapter@D@__crt_stdio_output@@V?$positional_parameter_base@DV?$stream_output_adapter@D@__crt_stdio_output@@@2@@__crt_stdio_output@@AAEX_KI_N@Z 1002e37d f i libucrt:output.obj
 0001:0002d42f       ??$type_case_integer_parse_into_buffer@_K@?$output_processor@DV?$stream_output_adapter@D@__crt_stdio_output@@V?$standard_base@DV?$stream_output_adapter@D@__crt_stdio_output@@@2@@__crt_stdio_output@@AAEX_KI_N@Z 1002e42f f i libucrt:output.obj
 0001:0002d4e1       ??$type_case_integer_parse_into_buffer@_K@?$output_processor@DV?$string_output_adapter@D@__crt_stdio_output@@V?$format_validation_base@DV?$string_output_adapter@D@__crt_stdio_output@@@2@@__crt_stdio_output@@AAEX_KI_N@Z 1002e4e1 f i libucrt:output.obj
 0001:0002d593       ??$type_case_integer_parse_into_buffer@_K@?$output_processor@DV?$string_output_adapter@D@__crt_stdio_output@@V?$positional_parameter_base@DV?$string_output_adapter@D@__crt_stdio_output@@@2@@__crt_stdio_output@@AAEX_KI_N@Z 1002e593 f i libucrt:output.obj
 0001:0002d645       ??$type_case_integer_parse_into_buffer@_K@?$output_processor@DV?$string_output_adapter@D@__crt_stdio_output@@V?$standard_base@DV?$string_output_adapter@D@__crt_stdio_output@@@2@@__crt_stdio_output@@AAEX_KI_N@Z 1002e645 f i libucrt:output.obj
 0001:0002d6f7       ??$type_case_integer_parse_into_buffer@_K@?$output_processor@_WV?$stream_output_adapter@_W@__crt_stdio_output@@V?$format_validation_base@_WV?$stream_output_adapter@_W@__crt_stdio_output@@@2@@__crt_stdio_output@@AAEX_KI_N@Z 1002e6f7 f i libucrt:output.obj
 0001:0002d7ba       ??$type_case_integer_parse_into_buffer@_K@?$output_processor@_WV?$stream_output_adapter@_W@__crt_stdio_output@@V?$positional_parameter_base@_WV?$stream_output_adapter@_W@__crt_stdio_output@@@2@@__crt_stdio_output@@AAEX_KI_N@Z 1002e7ba f i libucrt:output.obj
 0001:0002d87d       ??$type_case_integer_parse_into_buffer@_K@?$output_processor@_WV?$stream_output_adapter@_W@__crt_stdio_output@@V?$standard_base@_WV?$stream_output_adapter@_W@__crt_stdio_output@@@2@@__crt_stdio_output@@AAEX_KI_N@Z 1002e87d f i libucrt:output.obj
 0001:0002d940       ??$type_case_integer_parse_into_buffer@_K@?$output_processor@_WV?$string_output_adapter@_W@__crt_stdio_output@@V?$format_validation_base@_WV?$string_output_adapter@_W@__crt_stdio_output@@@2@@__crt_stdio_output@@AAEX_KI_N@Z 1002e940 f i libucrt:output.obj
 0001:0002da03       ??$type_case_integer_parse_into_buffer@_K@?$output_processor@_WV?$string_output_adapter@_W@__crt_stdio_output@@V?$positional_parameter_base@_WV?$string_output_adapter@_W@__crt_stdio_output@@@2@@__crt_stdio_output@@AAEX_KI_N@Z 1002ea03 f i libucrt:output.obj
 0001:0002dac6       ??$type_case_integer_parse_into_buffer@_K@?$output_processor@_WV?$string_output_adapter@_W@__crt_stdio_output@@V?$standard_base@_WV?$string_output_adapter@_W@__crt_stdio_output@@@2@@__crt_stdio_output@@AAEX_KI_N@Z 1002eac6 f i libucrt:output.obj
 0001:0002db89       ??$write_multiple_characters@V?$stream_output_adapter@D@__crt_stdio_output@@D@__crt_stdio_output@@YAXABV?$stream_output_adapter@D@0@DHQAH@Z 1002eb89 f i libucrt:output.obj
 0001:0002dbd2       ??$write_multiple_characters@V?$stream_output_adapter@_W@__crt_stdio_output@@D@__crt_stdio_output@@YAXABV?$stream_output_adapter@_W@0@DHQAH@Z 1002ebd2 f i libucrt:output.obj
 0001:0002dc22       ??$write_multiple_characters@V?$string_output_adapter@D@__crt_stdio_output@@D@__crt_stdio_output@@YAXABV?$string_output_adapter@D@0@DHQAH@Z 1002ec22 f i libucrt:output.obj
 0001:0002dc59       ??$write_multiple_characters@V?$string_output_adapter@_W@__crt_stdio_output@@D@__crt_stdio_output@@YAXABV?$string_output_adapter@_W@0@DHQAH@Z 1002ec59 f i libucrt:output.obj
 0001:0002deca       ??0?$common_data@D@__crt_stdio_output@@IAE@XZ 1002eeca f i libucrt:output.obj
 0001:0002df22       ??0?$common_data@_W@__crt_stdio_output@@IAE@XZ 1002ef22 f i libucrt:output.obj
 0001:0002df81       ??0?$output_adapter_data@DV?$stream_output_adapter@D@__crt_stdio_output@@@__crt_stdio_output@@IAE@ABV?$stream_output_adapter@D@1@_KQBDQAU__crt_locale_pointers@@QAD@Z 1002ef81 f i libucrt:output.obj
 0001:0002dfcc       ??0?$output_adapter_data@DV?$string_output_adapter@D@__crt_stdio_output@@@__crt_stdio_output@@IAE@ABV?$string_output_adapter@D@1@_KQBDQAU__crt_locale_pointers@@QAD@Z 1002efcc f i libucrt:output.obj
 0001:0002e017       ??0?$output_adapter_data@_WV?$stream_output_adapter@_W@__crt_stdio_output@@@__crt_stdio_output@@IAE@ABV?$stream_output_adapter@_W@1@_KQB_WQAU__crt_locale_pointers@@QAD@Z 1002f017 f i libucrt:output.obj
 0001:0002e062       ??0?$output_adapter_data@_WV?$string_output_adapter@_W@__crt_stdio_output@@@__crt_stdio_output@@IAE@ABV?$string_output_adapter@_W@1@_KQB_WQAU__crt_locale_pointers@@QAD@Z 1002f062 f i libucrt:output.obj
 0001:0002e0ad       ??0?$output_processor@DV?$stream_output_adapter@D@__crt_stdio_output@@V?$format_validation_base@DV?$stream_output_adapter@D@__crt_stdio_output@@@2@@__crt_stdio_output@@QAE@ABV?$stream_output_adapter@D@1@_KQBDQAU__crt_locale_pointers@@QAD@Z 1002f0ad f i libucrt:output.obj
 0001:0002e0e5       ??0?$output_processor@DV?$stream_output_adapter@D@__crt_stdio_output@@V?$positional_parameter_base@DV?$stream_output_adapter@D@__crt_stdio_output@@@2@@__crt_stdio_output@@QAE@ABV?$stream_output_adapter@D@1@_KQBDQAU__crt_locale_pointers@@QAD@Z 1002f0e5 f i libucrt:output.obj
 0001:0002e115       ??0?$output_processor@DV?$stream_output_adapter@D@__crt_stdio_output@@V?$standard_base@DV?$stream_output_adapter@D@__crt_stdio_output@@@2@@__crt_stdio_output@@QAE@ABV?$stream_output_adapter@D@1@_KQBDQAU__crt_locale_pointers@@QAD@Z 1002f115 f i libucrt:output.obj
 0001:0002e14d       ??0?$output_processor@DV?$string_output_adapter@D@__crt_stdio_output@@V?$format_validation_base@DV?$string_output_adapter@D@__crt_stdio_output@@@2@@__crt_stdio_output@@QAE@ABV?$string_output_adapter@D@1@_KQBDQAU__crt_locale_pointers@@QAD@Z 1002f14d f i libucrt:output.obj
 0001:0002e185       ??0?$output_processor@DV?$string_output_adapter@D@__crt_stdio_output@@V?$positional_parameter_base@DV?$string_output_adapter@D@__crt_stdio_output@@@2@@__crt_stdio_output@@QAE@ABV?$string_output_adapter@D@1@_KQBDQAU__crt_locale_pointers@@QAD@Z 1002f185 f i libucrt:output.obj
 0001:0002e1b5       ??0?$output_processor@DV?$string_output_adapter@D@__crt_stdio_output@@V?$standard_base@DV?$string_output_adapter@D@__crt_stdio_output@@@2@@__crt_stdio_output@@QAE@ABV?$string_output_adapter@D@1@_KQBDQAU__crt_locale_pointers@@QAD@Z 1002f1b5 f i libucrt:output.obj
 0001:0002e1ed       ??0?$output_processor@_WV?$stream_output_adapter@_W@__crt_stdio_output@@V?$format_validation_base@_WV?$stream_output_adapter@_W@__crt_stdio_output@@@2@@__crt_stdio_output@@QAE@ABV?$stream_output_adapter@_W@1@_KQB_WQAU__crt_locale_pointers@@QAD@Z 1002f1ed f i libucrt:output.obj
 0001:0002e225       ??0?$output_processor@_WV?$stream_output_adapter@_W@__crt_stdio_output@@V?$positional_parameter_base@_WV?$stream_output_adapter@_W@__crt_stdio_output@@@2@@__crt_stdio_output@@QAE@ABV?$stream_output_adapter@_W@1@_KQB_WQAU__crt_locale_pointers@@QAD@Z 1002f225 f i libucrt:output.obj
 0001:0002e255       ??0?$output_processor@_WV?$stream_output_adapter@_W@__crt_stdio_output@@V?$standard_base@_WV?$stream_output_adapter@_W@__crt_stdio_output@@@2@@__crt_stdio_output@@QAE@ABV?$stream_output_adapter@_W@1@_KQB_WQAU__crt_locale_pointers@@QAD@Z 1002f255 f i libucrt:output.obj
 0001:0002e28d       ??0?$output_processor@_WV?$string_output_adapter@_W@__crt_stdio_output@@V?$format_validation_base@_WV?$string_output_adapter@_W@__crt_stdio_output@@@2@@__crt_stdio_output@@QAE@ABV?$string_output_adapter@_W@1@_KQB_WQAU__crt_locale_pointers@@QAD@Z 1002f28d f i libucrt:output.obj
 0001:0002e2c5       ??0?$output_processor@_WV?$string_output_adapter@_W@__crt_stdio_output@@V?$positional_parameter_base@_WV?$string_output_adapter@_W@__crt_stdio_output@@@2@@__crt_stdio_output@@QAE@ABV?$string_output_adapter@_W@1@_KQB_WQAU__crt_locale_pointers@@QAD@Z 1002f2c5 f i libucrt:output.obj
 0001:0002e2f5       ??0?$output_processor@_WV?$string_output_adapter@_W@__crt_stdio_output@@V?$standard_base@_WV?$string_output_adapter@_W@__crt_stdio_output@@@2@@__crt_stdio_output@@QAE@ABV?$string_output_adapter@_W@1@_KQB_WQAU__crt_locale_pointers@@QAD@Z 1002f2f5 f i libucrt:output.obj
 0001:0002e32d       ??0?$stream_output_adapter@D@__crt_stdio_output@@QAE@QAU_iobuf@@@Z 1002f32d f i libucrt:output.obj
 0001:0002e341       ??0?$stream_output_adapter@_W@__crt_stdio_output@@QAE@QAU_iobuf@@@Z 1002f341 f i libucrt:output.obj
 0001:0002e355       ??0?$string_output_adapter@D@__crt_stdio_output@@QAE@QAU?$string_output_adapter_context@D@1@@Z 1002f355 f i libucrt:output.obj
 0001:0002e369       ??0?$string_output_adapter@_W@__crt_stdio_output@@QAE@QAU?$string_output_adapter_context@_W@1@@Z 1002f369 f i libucrt:output.obj
 0001:0002e37d       ??0__crt_deferred_errno_cache@@QAE@XZ 1002f37d f i libucrt:output.obj
 0001:0002e383       ??0__crt_errno_guard@@QAE@QAH@Z 1002f383 f i libucrt:output.obj
 0001:0002e3a1       ??0formatting_buffer@__crt_stdio_output@@QAE@XZ 1002f3a1 f i libucrt:output.obj
 0001:0002e3b6       ??1?$common_data@D@__crt_stdio_output@@QAE@XZ 1002f3b6 f i libucrt:output.obj
 0001:0002e3c0       ??1?$common_data@_W@__crt_stdio_output@@QAE@XZ 1002f3c0 f i libucrt:output.obj
 0001:0002e3ca       ??1?$format_validation_base@DV?$stream_output_adapter@D@__crt_stdio_output@@@__crt_stdio_output@@QAE@XZ 1002f3ca f i libucrt:output.obj
 0001:0002e3d4       ??1?$format_validation_base@DV?$string_output_adapter@D@__crt_stdio_output@@@__crt_stdio_output@@QAE@XZ 1002f3d4 f i libucrt:output.obj
 0001:0002e3de       ??1?$format_validation_base@_WV?$stream_output_adapter@_W@__crt_stdio_output@@@__crt_stdio_output@@QAE@XZ 1002f3de f i libucrt:output.obj
 0001:0002e3e8       ??1?$format_validation_base@_WV?$string_output_adapter@_W@__crt_stdio_output@@@__crt_stdio_output@@QAE@XZ 1002f3e8 f i libucrt:output.obj
 0001:0002e3f2       ??1?$output_adapter_data@DV?$stream_output_adapter@D@__crt_stdio_output@@@__crt_stdio_output@@QAE@XZ 1002f3f2 f i libucrt:output.obj
 0001:0002e3fc       ??1?$output_adapter_data@DV?$string_output_adapter@D@__crt_stdio_output@@@__crt_stdio_output@@QAE@XZ 1002f3fc f i libucrt:output.obj
 0001:0002e406       ??1?$output_adapter_data@_WV?$stream_output_adapter@_W@__crt_stdio_output@@@__crt_stdio_output@@QAE@XZ 1002f406 f i libucrt:output.obj
 0001:0002e410       ??1?$output_adapter_data@_WV?$string_output_adapter@_W@__crt_stdio_output@@@__crt_stdio_output@@QAE@XZ 1002f410 f i libucrt:output.obj
 0001:0002e41a       ??1?$output_processor@DV?$stream_output_adapter@D@__crt_stdio_output@@V?$format_validation_base@DV?$stream_output_adapter@D@__crt_stdio_output@@@2@@__crt_stdio_output@@QAE@XZ 1002f41a f i libucrt:output.obj
 0001:0002e424       ??1?$output_processor@DV?$stream_output_adapter@D@__crt_stdio_output@@V?$positional_parameter_base@DV?$stream_output_adapter@D@__crt_stdio_output@@@2@@__crt_stdio_output@@QAE@XZ 1002f424 f i libucrt:output.obj
 0001:0002e42e       ??1?$output_processor@DV?$stream_output_adapter@D@__crt_stdio_output@@V?$standard_base@DV?$stream_output_adapter@D@__crt_stdio_output@@@2@@__crt_stdio_output@@QAE@XZ 1002f42e f i libucrt:output.obj
 0001:0002e438       ??1?$output_processor@DV?$string_output_adapter@D@__crt_stdio_output@@V?$format_validation_base@DV?$string_output_adapter@D@__crt_stdio_output@@@2@@__crt_stdio_output@@QAE@XZ 1002f438 f i libucrt:output.obj
 0001:0002e442       ??1?$output_processor@DV?$string_output_adapter@D@__crt_stdio_output@@V?$positional_parameter_base@DV?$string_output_adapter@D@__crt_stdio_output@@@2@@__crt_stdio_output@@QAE@XZ 1002f442 f i libucrt:output.obj
 0001:0002e44c       ??1?$output_processor@DV?$string_output_adapter@D@__crt_stdio_output@@V?$standard_base@DV?$string_output_adapter@D@__crt_stdio_output@@@2@@__crt_stdio_output@@QAE@XZ 1002f44c f i libucrt:output.obj
 0001:0002e456       ??1?$output_processor@_WV?$stream_output_adapter@_W@__crt_stdio_output@@V?$format_validation_base@_WV?$stream_output_adapter@_W@__crt_stdio_output@@@2@@__crt_stdio_output@@QAE@XZ 1002f456 f i libucrt:output.obj
 0001:0002e460       ??1?$output_processor@_WV?$stream_output_adapter@_W@__crt_stdio_output@@V?$positional_parameter_base@_WV?$stream_output_adapter@_W@__crt_stdio_output@@@2@@__crt_stdio_output@@QAE@XZ 1002f460 f i libucrt:output.obj
 0001:0002e46a       ??1?$output_processor@_WV?$stream_output_adapter@_W@__crt_stdio_output@@V?$standard_base@_WV?$stream_output_adapter@_W@__crt_stdio_output@@@2@@__crt_stdio_output@@QAE@XZ 1002f46a f i libucrt:output.obj
 0001:0002e474       ??1?$output_processor@_WV?$string_output_adapter@_W@__crt_stdio_output@@V?$format_validation_base@_WV?$string_output_adapter@_W@__crt_stdio_output@@@2@@__crt_stdio_output@@QAE@XZ 1002f474 f i libucrt:output.obj
 0001:0002e47e       ??1?$output_processor@_WV?$string_output_adapter@_W@__crt_stdio_output@@V?$positional_parameter_base@_WV?$string_output_adapter@_W@__crt_stdio_output@@@2@@__crt_stdio_output@@QAE@XZ 1002f47e f i libucrt:output.obj
 0001:0002e488       ??1?$output_processor@_WV?$string_output_adapter@_W@__crt_stdio_output@@V?$standard_base@_WV?$string_output_adapter@_W@__crt_stdio_output@@@2@@__crt_stdio_output@@QAE@XZ 1002f488 f i libucrt:output.obj
 0001:0002e492       ??1?$positional_parameter_base@DV?$stream_output_adapter@D@__crt_stdio_output@@@__crt_stdio_output@@QAE@XZ 1002f492 f i libucrt:output.obj
 0001:0002e49c       ??1?$positional_parameter_base@DV?$string_output_adapter@D@__crt_stdio_output@@@__crt_stdio_output@@QAE@XZ 1002f49c f i libucrt:output.obj
 0001:0002e4a6       ??1?$positional_parameter_base@_WV?$stream_output_adapter@_W@__crt_stdio_output@@@__crt_stdio_output@@QAE@XZ 1002f4a6 f i libucrt:output.obj
 0001:0002e4b0       ??1?$positional_parameter_base@_WV?$string_output_adapter@_W@__crt_stdio_output@@@__crt_stdio_output@@QAE@XZ 1002f4b0 f i libucrt:output.obj
 0001:0002e4ba       ??1?$standard_base@DV?$stream_output_adapter@D@__crt_stdio_output@@@__crt_stdio_output@@QAE@XZ 1002f4ba f i libucrt:output.obj
 0001:0002e4c4       ??1?$standard_base@DV?$string_output_adapter@D@__crt_stdio_output@@@__crt_stdio_output@@QAE@XZ 1002f4c4 f i libucrt:output.obj
 0001:0002e4ce       ??1?$standard_base@_WV?$stream_output_adapter@_W@__crt_stdio_output@@@__crt_stdio_output@@QAE@XZ 1002f4ce f i libucrt:output.obj
 0001:0002e4d8       ??1?$standard_base@_WV?$string_output_adapter@_W@__crt_stdio_output@@@__crt_stdio_output@@QAE@XZ 1002f4d8 f i libucrt:output.obj
 0001:0002e4e2       ??1__crt_errno_guard@@QAE@XZ 1002f4e2 f i libucrt:output.obj
 0001:0002e4f7       ??1formatting_buffer@__crt_stdio_output@@QAE@XZ 1002f4f7 f i libucrt:output.obj
 0001:0002e517       ??4?$__crt_unique_heap_ptr@DU__crt_internal_free_policy@@@@QAEAAV0@$$QAV0@@Z 1002f517 f i libucrt:output.obj
 0001:0002ebf2       ?adjust_hexit@?$output_processor@DV?$stream_output_adapter@D@__crt_stdio_output@@V?$format_validation_base@DV?$stream_output_adapter@D@__crt_stdio_output@@@2@@__crt_stdio_output@@CADH_N@Z 1002fbf2 f i libucrt:output.obj
 0001:0002ec0b       ?adjust_hexit@?$output_processor@DV?$stream_output_adapter@D@__crt_stdio_output@@V?$positional_parameter_base@DV?$stream_output_adapter@D@__crt_stdio_output@@@2@@__crt_stdio_output@@CADH_N@Z 1002fc0b f i libucrt:output.obj
 0001:0002ec24       ?adjust_hexit@?$output_processor@DV?$stream_output_adapter@D@__crt_stdio_output@@V?$standard_base@DV?$stream_output_adapter@D@__crt_stdio_output@@@2@@__crt_stdio_output@@CADH_N@Z 1002fc24 f i libucrt:output.obj
 0001:0002ec3d       ?adjust_hexit@?$output_processor@DV?$string_output_adapter@D@__crt_stdio_output@@V?$format_validation_base@DV?$string_output_adapter@D@__crt_stdio_output@@@2@@__crt_stdio_output@@CADH_N@Z 1002fc3d f i libucrt:output.obj
 0001:0002ec56       ?adjust_hexit@?$output_processor@DV?$string_output_adapter@D@__crt_stdio_output@@V?$positional_parameter_base@DV?$string_output_adapter@D@__crt_stdio_output@@@2@@__crt_stdio_output@@CADH_N@Z 1002fc56 f i libucrt:output.obj
 0001:0002ec6f       ?adjust_hexit@?$output_processor@DV?$string_output_adapter@D@__crt_stdio_output@@V?$standard_base@DV?$string_output_adapter@D@__crt_stdio_output@@@2@@__crt_stdio_output@@CADH_N@Z 1002fc6f f i libucrt:output.obj
 0001:0002ec88       ?adjust_hexit@?$output_processor@_WV?$stream_output_adapter@_W@__crt_stdio_output@@V?$format_validation_base@_WV?$stream_output_adapter@_W@__crt_stdio_output@@@2@@__crt_stdio_output@@CADH_N@Z 1002fc88 f i libucrt:output.obj
 0001:0002eca1       ?adjust_hexit@?$output_processor@_WV?$stream_output_adapter@_W@__crt_stdio_output@@V?$positional_parameter_base@_WV?$stream_output_adapter@_W@__crt_stdio_output@@@2@@__crt_stdio_output@@CADH_N@Z 1002fca1 f i libucrt:output.obj
 0001:0002ecba       ?adjust_hexit@?$output_processor@_WV?$stream_output_adapter@_W@__crt_stdio_output@@V?$standard_base@_WV?$stream_output_adapter@_W@__crt_stdio_output@@@2@@__crt_stdio_output@@CADH_N@Z 1002fcba f i libucrt:output.obj
 0001:0002ecd3       ?adjust_hexit@?$output_processor@_WV?$string_output_adapter@_W@__crt_stdio_output@@V?$format_validation_base@_WV?$string_output_adapter@_W@__crt_stdio_output@@@2@@__crt_stdio_output@@CADH_N@Z 1002fcd3 f i libucrt:output.obj
 0001:0002ecec       ?adjust_hexit@?$output_processor@_WV?$string_output_adapter@_W@__crt_stdio_output@@V?$positional_parameter_base@_WV?$string_output_adapter@_W@__crt_stdio_output@@@2@@__crt_stdio_output@@CADH_N@Z 1002fcec f i libucrt:output.obj
 0001:0002ed05       ?adjust_hexit@?$output_processor@_WV?$string_output_adapter@_W@__crt_stdio_output@@V?$standard_base@_WV?$string_output_adapter@_W@__crt_stdio_output@@@2@@__crt_stdio_output@@CADH_N@Z 1002fd05 f i libucrt:output.obj
 0001:0002ed1e       ?advance_to_next_pass@?$positional_parameter_base@DV?$stream_output_adapter@D@__crt_stdio_output@@@__crt_stdio_output@@IAE_NXZ 1002fd1e f i libucrt:output.obj
 0001:0002ed7d       ?advance_to_next_pass@?$positional_parameter_base@DV?$string_output_adapter@D@__crt_stdio_output@@@__crt_stdio_output@@IAE_NXZ 1002fd7d f i libucrt:output.obj
 0001:0002eddc       ?advance_to_next_pass@?$positional_parameter_base@_WV?$stream_output_adapter@_W@__crt_stdio_output@@@__crt_stdio_output@@IAE_NXZ 1002fddc f i libucrt:output.obj
 0001:0002ee3b       ?advance_to_next_pass@?$positional_parameter_base@_WV?$string_output_adapter@_W@__crt_stdio_output@@@__crt_stdio_output@@IAE_NXZ 1002fe3b f i libucrt:output.obj
 0001:0002ee9a       ?advance_to_next_pass@?$standard_base@DV?$stream_output_adapter@D@__crt_stdio_output@@@__crt_stdio_output@@IAE_NXZ 1002fe9a f i libucrt:output.obj
 0001:0002eeaf       ?advance_to_next_pass@?$standard_base@DV?$string_output_adapter@D@__crt_stdio_output@@@__crt_stdio_output@@IAE_NXZ 1002feaf f i libucrt:output.obj
 0001:0002eec4       ?advance_to_next_pass@?$standard_base@_WV?$stream_output_adapter@_W@__crt_stdio_output@@@__crt_stdio_output@@IAE_NXZ 1002fec4 f i libucrt:output.obj
 0001:0002eed9       ?advance_to_next_pass@?$standard_base@_WV?$string_output_adapter@_W@__crt_stdio_output@@@__crt_stdio_output@@IAE_NXZ 1002fed9 f i libucrt:output.obj
 0001:0002eeee       ?crop_zeroes@__crt_stdio_output@@YAXPADQAU__crt_locale_pointers@@@Z 1002feee f i libucrt:output.obj
 0001:0002ef66       ?find_next_state@?$output_processor@DV?$stream_output_adapter@D@__crt_stdio_output@@V?$format_validation_base@DV?$stream_output_adapter@D@__crt_stdio_output@@@2@@__crt_stdio_output@@ABE?AW4state@2@DW432@@Z 1002ff66 f i libucrt:output.obj
 0001:0002efb8       ?find_next_state@?$output_processor@DV?$stream_output_adapter@D@__crt_stdio_output@@V?$positional_parameter_base@DV?$stream_output_adapter@D@__crt_stdio_output@@@2@@__crt_stdio_output@@ABE?AW4state@2@DW432@@Z 1002ffb8 f i libucrt:output.obj
 0001:0002f00a       ?find_next_state@?$output_processor@DV?$stream_output_adapter@D@__crt_stdio_output@@V?$standard_base@DV?$stream_output_adapter@D@__crt_stdio_output@@@2@@__crt_stdio_output@@ABE?AW4state@2@DW432@@Z 1003000a f i libucrt:output.obj
 0001:0002f058       ?find_next_state@?$output_processor@DV?$string_output_adapter@D@__crt_stdio_output@@V?$format_validation_base@DV?$string_output_adapter@D@__crt_stdio_output@@@2@@__crt_stdio_output@@ABE?AW4state@2@DW432@@Z 10030058 f i libucrt:output.obj
 0001:0002f0aa       ?find_next_state@?$output_processor@DV?$string_output_adapter@D@__crt_stdio_output@@V?$positional_parameter_base@DV?$string_output_adapter@D@__crt_stdio_output@@@2@@__crt_stdio_output@@ABE?AW4state@2@DW432@@Z 100300aa f i libucrt:output.obj
 0001:0002f0fc       ?find_next_state@?$output_processor@DV?$string_output_adapter@D@__crt_stdio_output@@V?$standard_base@DV?$string_output_adapter@D@__crt_stdio_output@@@2@@__crt_stdio_output@@ABE?AW4state@2@DW432@@Z 100300fc f i libucrt:output.obj
 0001:0002f14a       ?find_next_state@?$output_processor@_WV?$stream_output_adapter@_W@__crt_stdio_output@@V?$format_validation_base@_WV?$stream_output_adapter@_W@__crt_stdio_output@@@2@@__crt_stdio_output@@ABE?AW4state@2@_WW432@@Z 1003014a f i libucrt:output.obj
 0001:0002f19f       ?find_next_state@?$output_processor@_WV?$stream_output_adapter@_W@__crt_stdio_output@@V?$positional_parameter_base@_WV?$stream_output_adapter@_W@__crt_stdio_output@@@2@@__crt_stdio_output@@ABE?AW4state@2@_WW432@@Z 1003019f f i libucrt:output.obj
 0001:0002f1f4       ?find_next_state@?$output_processor@_WV?$stream_output_adapter@_W@__crt_stdio_output@@V?$standard_base@_WV?$stream_output_adapter@_W@__crt_stdio_output@@@2@@__crt_stdio_output@@ABE?AW4state@2@_WW432@@Z 100301f4 f i libucrt:output.obj
 0001:0002f245       ?find_next_state@?$output_processor@_WV?$string_output_adapter@_W@__crt_stdio_output@@V?$format_validation_base@_WV?$string_output_adapter@_W@__crt_stdio_output@@@2@@__crt_stdio_output@@ABE?AW4state@2@_WW432@@Z 10030245 f i libucrt:output.obj
 0001:0002f29a       ?find_next_state@?$output_processor@_WV?$string_output_adapter@_W@__crt_stdio_output@@V?$positional_parameter_base@_WV?$string_output_adapter@_W@__crt_stdio_output@@@2@@__crt_stdio_output@@ABE?AW4state@2@_WW432@@Z 1003029a f i libucrt:output.obj
 0001:0002f2ef       ?find_next_state@?$output_processor@_WV?$string_output_adapter@_W@__crt_stdio_output@@V?$standard_base@_WV?$string_output_adapter@_W@__crt_stdio_output@@@2@@__crt_stdio_output@@ABE?AW4state@2@_WW432@@Z 100302ef f i libucrt:output.obj
 0001:0002f340       ?force_decimal_point@__crt_stdio_output@@YAXPADQAU__crt_locale_pointers@@@Z 10030340 f i libucrt:output.obj
 0001:0002f3b3       ?get@__crt_deferred_errno_cache@@QAEAAHXZ 100303b3 f i libucrt:output.obj
 0001:0002f3cc       ?get_parameter_type@?$positional_parameter_base@DV?$stream_output_adapter@D@__crt_stdio_output@@@__crt_stdio_output@@CA?AW4parameter_type@12@F@Z 100303cc f i libucrt:output.obj
 0001:0002f3d0       ?get_parameter_type@?$positional_parameter_base@DV?$stream_output_adapter@D@__crt_stdio_output@@@__crt_stdio_output@@CA?AW4parameter_type@12@G@Z 100303d0 f i libucrt:output.obj
 0001:0002f3d4       ?get_parameter_type@?$positional_parameter_base@DV?$stream_output_adapter@D@__crt_stdio_output@@@__crt_stdio_output@@CA?AW4parameter_type@12@H@Z 100303d4 f i libucrt:output.obj
 0001:0002f3d8       ?get_parameter_type@?$positional_parameter_base@DV?$stream_output_adapter@D@__crt_stdio_output@@@__crt_stdio_output@@CA?AW4parameter_type@12@I@Z 100303d8 f i libucrt:output.obj
 0001:0002f3dc       ?get_parameter_type@?$positional_parameter_base@DV?$stream_output_adapter@D@__crt_stdio_output@@@__crt_stdio_output@@CA?AW4parameter_type@12@U_CRT_DOUBLE@@@Z 100303dc f i libucrt:output.obj
 0001:0002f3e0       ?get_parameter_type@?$positional_parameter_base@DV?$stream_output_adapter@D@__crt_stdio_output@@@__crt_stdio_output@@CA?AW4parameter_type@12@_J@Z 100303e0 f i libucrt:output.obj
 0001:0002f3e4       ?get_parameter_type@?$positional_parameter_base@DV?$stream_output_adapter@D@__crt_stdio_output@@@__crt_stdio_output@@CA?AW4parameter_type@12@_K@Z 100303e4 f i libucrt:output.obj
 0001:0002f3e8       ?get_parameter_type@?$positional_parameter_base@DV?$stream_output_adapter@D@__crt_stdio_output@@@__crt_stdio_output@@CA?AW4parameter_type@12@_W@Z 100303e8 f i libucrt:output.obj
 0001:0002f3ec       ?get_parameter_type@?$positional_parameter_base@DV?$string_output_adapter@D@__crt_stdio_output@@@__crt_stdio_output@@CA?AW4parameter_type@12@F@Z 100303ec f i libucrt:output.obj
 0001:0002f3f0       ?get_parameter_type@?$positional_parameter_base@DV?$string_output_adapter@D@__crt_stdio_output@@@__crt_stdio_output@@CA?AW4parameter_type@12@G@Z 100303f0 f i libucrt:output.obj
 0001:0002f3f4       ?get_parameter_type@?$positional_parameter_base@DV?$string_output_adapter@D@__crt_stdio_output@@@__crt_stdio_output@@CA?AW4parameter_type@12@H@Z 100303f4 f i libucrt:output.obj
 0001:0002f3f8       ?get_parameter_type@?$positional_parameter_base@DV?$string_output_adapter@D@__crt_stdio_output@@@__crt_stdio_output@@CA?AW4parameter_type@12@I@Z 100303f8 f i libucrt:output.obj
 0001:0002f3fc       ?get_parameter_type@?$positional_parameter_base@DV?$string_output_adapter@D@__crt_stdio_output@@@__crt_stdio_output@@CA?AW4parameter_type@12@U_CRT_DOUBLE@@@Z 100303fc f i libucrt:output.obj
 0001:0002f400       ?get_parameter_type@?$positional_parameter_base@DV?$string_output_adapter@D@__crt_stdio_output@@@__crt_stdio_output@@CA?AW4parameter_type@12@_J@Z 10030400 f i libucrt:output.obj
 0001:0002f404       ?get_parameter_type@?$positional_parameter_base@DV?$string_output_adapter@D@__crt_stdio_output@@@__crt_stdio_output@@CA?AW4parameter_type@12@_K@Z 10030404 f i libucrt:output.obj
 0001:0002f408       ?get_parameter_type@?$positional_parameter_base@DV?$string_output_adapter@D@__crt_stdio_output@@@__crt_stdio_output@@CA?AW4parameter_type@12@_W@Z 10030408 f i libucrt:output.obj
 0001:0002f40c       ?get_parameter_type@?$positional_parameter_base@_WV?$stream_output_adapter@_W@__crt_stdio_output@@@__crt_stdio_output@@CA?AW4parameter_type@12@F@Z 1003040c f i libucrt:output.obj
 0001:0002f410       ?get_parameter_type@?$positional_parameter_base@_WV?$stream_output_adapter@_W@__crt_stdio_output@@@__crt_stdio_output@@CA?AW4parameter_type@12@G@Z 10030410 f i libucrt:output.obj
 0001:0002f414       ?get_parameter_type@?$positional_parameter_base@_WV?$stream_output_adapter@_W@__crt_stdio_output@@@__crt_stdio_output@@CA?AW4parameter_type@12@H@Z 10030414 f i libucrt:output.obj
 0001:0002f418       ?get_parameter_type@?$positional_parameter_base@_WV?$stream_output_adapter@_W@__crt_stdio_output@@@__crt_stdio_output@@CA?AW4parameter_type@12@I@Z 10030418 f i libucrt:output.obj
 0001:0002f41c       ?get_parameter_type@?$positional_parameter_base@_WV?$stream_output_adapter@_W@__crt_stdio_output@@@__crt_stdio_output@@CA?AW4parameter_type@12@U_CRT_DOUBLE@@@Z 1003041c f i libucrt:output.obj
 0001:0002f420       ?get_parameter_type@?$positional_parameter_base@_WV?$stream_output_adapter@_W@__crt_stdio_output@@@__crt_stdio_output@@CA?AW4parameter_type@12@_J@Z 10030420 f i libucrt:output.obj
 0001:0002f424       ?get_parameter_type@?$positional_parameter_base@_WV?$stream_output_adapter@_W@__crt_stdio_output@@@__crt_stdio_output@@CA?AW4parameter_type@12@_K@Z 10030424 f i libucrt:output.obj
 0001:0002f428       ?get_parameter_type@?$positional_parameter_base@_WV?$stream_output_adapter@_W@__crt_stdio_output@@@__crt_stdio_output@@CA?AW4parameter_type@12@_W@Z 10030428 f i libucrt:output.obj
 0001:0002f42c       ?get_parameter_type@?$positional_parameter_base@_WV?$string_output_adapter@_W@__crt_stdio_output@@@__crt_stdio_output@@CA?AW4parameter_type@12@F@Z 1003042c f i libucrt:output.obj
 0001:0002f430       ?get_parameter_type@?$positional_parameter_base@_WV?$string_output_adapter@_W@__crt_stdio_output@@@__crt_stdio_output@@CA?AW4parameter_type@12@G@Z 10030430 f i libucrt:output.obj
 0001:0002f434       ?get_parameter_type@?$positional_parameter_base@_WV?$string_output_adapter@_W@__crt_stdio_output@@@__crt_stdio_output@@CA?AW4parameter_type@12@H@Z 10030434 f i libucrt:output.obj
 0001:0002f438       ?get_parameter_type@?$positional_parameter_base@_WV?$string_output_adapter@_W@__crt_stdio_output@@@__crt_stdio_output@@CA?AW4parameter_type@12@I@Z 10030438 f i libucrt:output.obj
 0001:0002f43c       ?get_parameter_type@?$positional_parameter_base@_WV?$string_output_adapter@_W@__crt_stdio_output@@@__crt_stdio_output@@CA?AW4parameter_type@12@U_CRT_DOUBLE@@@Z 1003043c f i libucrt:output.obj
 0001:0002f440       ?get_parameter_type@?$positional_parameter_base@_WV?$string_output_adapter@_W@__crt_stdio_output@@@__crt_stdio_output@@CA?AW4parameter_type@12@_J@Z 10030440 f i libucrt:output.obj
 0001:0002f444       ?get_parameter_type@?$positional_parameter_base@_WV?$string_output_adapter@_W@__crt_stdio_output@@@__crt_stdio_output@@CA?AW4parameter_type@12@_K@Z 10030444 f i libucrt:output.obj
 0001:0002f448       ?get_parameter_type@?$positional_parameter_base@_WV?$string_output_adapter@_W@__crt_stdio_output@@@__crt_stdio_output@@CA?AW4parameter_type@12@_W@Z 10030448 f i libucrt:output.obj
 0001:0002f44c       ?has_flag@?$output_processor@DV?$stream_output_adapter@D@__crt_stdio_output@@V?$format_validation_base@DV?$stream_output_adapter@D@__crt_stdio_output@@@2@@__crt_stdio_output@@ABE_NI@Z 1003044c f i libucrt:output.obj
 0001:0002f462       ?has_flag@?$output_processor@DV?$stream_output_adapter@D@__crt_stdio_output@@V?$positional_parameter_base@DV?$stream_output_adapter@D@__crt_stdio_output@@@2@@__crt_stdio_output@@ABE_NI@Z 10030462 f i libucrt:output.obj
 0001:0002f478       ?has_flag@?$output_processor@DV?$stream_output_adapter@D@__crt_stdio_output@@V?$standard_base@DV?$stream_output_adapter@D@__crt_stdio_output@@@2@@__crt_stdio_output@@ABE_NI@Z 10030478 f i libucrt:output.obj
 0001:0002f48e       ?has_flag@?$output_processor@DV?$string_output_adapter@D@__crt_stdio_output@@V?$format_validation_base@DV?$string_output_adapter@D@__crt_stdio_output@@@2@@__crt_stdio_output@@ABE_NI@Z 1003048e f i libucrt:output.obj
 0001:0002f4a4       ?has_flag@?$output_processor@DV?$string_output_adapter@D@__crt_stdio_output@@V?$positional_parameter_base@DV?$string_output_adapter@D@__crt_stdio_output@@@2@@__crt_stdio_output@@ABE_NI@Z 100304a4 f i libucrt:output.obj
 0001:0002f4ba       ?has_flag@?$output_processor@DV?$string_output_adapter@D@__crt_stdio_output@@V?$standard_base@DV?$string_output_adapter@D@__crt_stdio_output@@@2@@__crt_stdio_output@@ABE_NI@Z 100304ba f i libucrt:output.obj
 0001:0002f4d0       ?has_flag@?$output_processor@_WV?$stream_output_adapter@_W@__crt_stdio_output@@V?$format_validation_base@_WV?$stream_output_adapter@_W@__crt_stdio_output@@@2@@__crt_stdio_output@@ABE_NI@Z 100304d0 f i libucrt:output.obj
 0001:0002f4e6       ?has_flag@?$output_processor@_WV?$stream_output_adapter@_W@__crt_stdio_output@@V?$positional_parameter_base@_WV?$stream_output_adapter@_W@__crt_stdio_output@@@2@@__crt_stdio_output@@ABE_NI@Z 100304e6 f i libucrt:output.obj
 0001:0002f4fc       ?has_flag@?$output_processor@_WV?$stream_output_adapter@_W@__crt_stdio_output@@V?$standard_base@_WV?$stream_output_adapter@_W@__crt_stdio_output@@@2@@__crt_stdio_output@@ABE_NI@Z 100304fc f i libucrt:output.obj
 0001:0002f512       ?has_flag@?$output_processor@_WV?$string_output_adapter@_W@__crt_stdio_output@@V?$format_validation_base@_WV?$string_output_adapter@_W@__crt_stdio_output@@@2@@__crt_stdio_output@@ABE_NI@Z 10030512 f i libucrt:output.obj
 0001:0002f528       ?has_flag@?$output_processor@_WV?$string_output_adapter@_W@__crt_stdio_output@@V?$positional_parameter_base@_WV?$string_output_adapter@_W@__crt_stdio_output@@@2@@__crt_stdio_output@@ABE_NI@Z 10030528 f i libucrt:output.obj
 0001:0002f53e       ?has_flag@?$output_processor@_WV?$string_output_adapter@_W@__crt_stdio_output@@V?$standard_base@_WV?$string_output_adapter@_W@__crt_stdio_output@@@2@@__crt_stdio_output@@ABE_NI@Z 1003053e f i libucrt:output.obj
 0001:0002f554       ?is_positional_parameter_reappearance_consistent@?$positional_parameter_base@DV?$stream_output_adapter@D@__crt_stdio_output@@@__crt_stdio_output@@AAE_NABUparameter_data@12@W4parameter_type@12@DW4length_modifier@2@@Z 10030554 f i libucrt:output.obj
 0001:0002f6b4       ?is_positional_parameter_reappearance_consistent@?$positional_parameter_base@DV?$string_output_adapter@D@__crt_stdio_output@@@__crt_stdio_output@@AAE_NABUparameter_data@12@W4parameter_type@12@DW4length_modifier@2@@Z 100306b4 f i libucrt:output.obj
 0001:0002f814       ?is_positional_parameter_reappearance_consistent@?$positional_parameter_base@_WV?$stream_output_adapter@_W@__crt_stdio_output@@@__crt_stdio_output@@AAE_NABUparameter_data@12@W4parameter_type@12@_WW4length_modifier@2@@Z 10030814 f i libucrt:output.obj
 0001:0002f973       ?is_positional_parameter_reappearance_consistent@?$positional_parameter_base@_WV?$string_output_adapter@_W@__crt_stdio_output@@@__crt_stdio_output@@AAE_NABUparameter_data@12@W4parameter_type@12@_WW4length_modifier@2@@Z 10030973 f i libucrt:output.obj
 0001:0002fad2       ?narrow_null_string@?$output_processor@DV?$stream_output_adapter@D@__crt_stdio_output@@V?$format_validation_base@DV?$stream_output_adapter@D@__crt_stdio_output@@@2@@__crt_stdio_output@@CAPADXZ 10030ad2 f i libucrt:output.obj
 0001:0002fad8       ?narrow_null_string@?$output_processor@DV?$stream_output_adapter@D@__crt_stdio_output@@V?$positional_parameter_base@DV?$stream_output_adapter@D@__crt_stdio_output@@@2@@__crt_stdio_output@@CAPADXZ 10030ad8 f i libucrt:output.obj
 0001:0002fade       ?narrow_null_string@?$output_processor@DV?$stream_output_adapter@D@__crt_stdio_output@@V?$standard_base@DV?$stream_output_adapter@D@__crt_stdio_output@@@2@@__crt_stdio_output@@CAPADXZ 10030ade f i libucrt:output.obj
 0001:0002fae4       ?narrow_null_string@?$output_processor@DV?$string_output_adapter@D@__crt_stdio_output@@V?$format_validation_base@DV?$string_output_adapter@D@__crt_stdio_output@@@2@@__crt_stdio_output@@CAPADXZ 10030ae4 f i libucrt:output.obj
 0001:0002faea       ?narrow_null_string@?$output_processor@DV?$string_output_adapter@D@__crt_stdio_output@@V?$positional_parameter_base@DV?$string_output_adapter@D@__crt_stdio_output@@@2@@__crt_stdio_output@@CAPADXZ 10030aea f i libucrt:output.obj
 0001:0002faf0       ?narrow_null_string@?$output_processor@DV?$string_output_adapter@D@__crt_stdio_output@@V?$standard_base@DV?$string_output_adapter@D@__crt_stdio_output@@@2@@__crt_stdio_output@@CAPADXZ 10030af0 f i libucrt:output.obj
 0001:0002faf6       ?narrow_null_string@?$output_processor@_WV?$stream_output_adapter@_W@__crt_stdio_output@@V?$format_validation_base@_WV?$stream_output_adapter@_W@__crt_stdio_output@@@2@@__crt_stdio_output@@CAPADXZ 10030af6 f i libucrt:output.obj
 0001:0002fafc       ?narrow_null_string@?$output_processor@_WV?$stream_output_adapter@_W@__crt_stdio_output@@V?$positional_parameter_base@_WV?$stream_output_adapter@_W@__crt_stdio_output@@@2@@__crt_stdio_output@@CAPADXZ 10030afc f i libucrt:output.obj
 0001:0002fb02       ?narrow_null_string@?$output_processor@_WV?$stream_output_adapter@_W@__crt_stdio_output@@V?$standard_base@_WV?$stream_output_adapter@_W@__crt_stdio_output@@@2@@__crt_stdio_output@@CAPADXZ 10030b02 f i libucrt:output.obj
 0001:0002fb08       ?narrow_null_string@?$output_processor@_WV?$string_output_adapter@_W@__crt_stdio_output@@V?$format_validation_base@_WV?$string_output_adapter@_W@__crt_stdio_output@@@2@@__crt_stdio_output@@CAPADXZ 10030b08 f i libucrt:output.obj
 0001:0002fb0e       ?narrow_null_string@?$output_processor@_WV?$string_output_adapter@_W@__crt_stdio_output@@V?$positional_parameter_base@_WV?$string_output_adapter@_W@__crt_stdio_output@@@2@@__crt_stdio_output@@CAPADXZ 10030b0e f i libucrt:output.obj
 0001:0002fb14       ?narrow_null_string@?$output_processor@_WV?$string_output_adapter@_W@__crt_stdio_output@@V?$standard_base@_WV?$string_output_adapter@_W@__crt_stdio_output@@@2@@__crt_stdio_output@@CAPADXZ 10030b14 f i libucrt:output.obj
 0001:0002fb1a       ?parse_int_from_format_string@?$output_processor@DV?$stream_output_adapter@D@__crt_stdio_output@@V?$format_validation_base@DV?$stream_output_adapter@D@__crt_stdio_output@@@2@@__crt_stdio_output@@AAE_NQAH@Z 10030b1a f i libucrt:output.obj
 0001:0002fbad       ?parse_int_from_format_string@?$output_processor@DV?$stream_output_adapter@D@__crt_stdio_output@@V?$positional_parameter_base@DV?$stream_output_adapter@D@__crt_stdio_output@@@2@@__crt_stdio_output@@AAE_NQAH@Z 10030bad f i libucrt:output.obj
 0001:0002fc40       ?parse_int_from_format_string@?$output_processor@DV?$stream_output_adapter@D@__crt_stdio_output@@V?$standard_base@DV?$stream_output_adapter@D@__crt_stdio_output@@@2@@__crt_stdio_output@@AAE_NQAH@Z 10030c40 f i libucrt:output.obj
 0001:0002fcd3       ?parse_int_from_format_string@?$output_processor@DV?$string_output_adapter@D@__crt_stdio_output@@V?$format_validation_base@DV?$string_output_adapter@D@__crt_stdio_output@@@2@@__crt_stdio_output@@AAE_NQAH@Z 10030cd3 f i libucrt:output.obj
 0001:0002fd66       ?parse_int_from_format_string@?$output_processor@DV?$string_output_adapter@D@__crt_stdio_output@@V?$positional_parameter_base@DV?$string_output_adapter@D@__crt_stdio_output@@@2@@__crt_stdio_output@@AAE_NQAH@Z 10030d66 f i libucrt:output.obj
 0001:0002fdf9       ?parse_int_from_format_string@?$output_processor@DV?$string_output_adapter@D@__crt_stdio_output@@V?$standard_base@DV?$string_output_adapter@D@__crt_stdio_output@@@2@@__crt_stdio_output@@AAE_NQAH@Z 10030df9 f i libucrt:output.obj
 0001:0002fe8c       ?parse_int_from_format_string@?$output_processor@_WV?$stream_output_adapter@_W@__crt_stdio_output@@V?$format_validation_base@_WV?$stream_output_adapter@_W@__crt_stdio_output@@@2@@__crt_stdio_output@@AAE_NQAH@Z 10030e8c f i libucrt:output.obj
 0001:0002ff22       ?parse_int_from_format_string@?$output_processor@_WV?$stream_output_adapter@_W@__crt_stdio_output@@V?$positional_parameter_base@_WV?$stream_output_adapter@_W@__crt_stdio_output@@@2@@__crt_stdio_output@@AAE_NQAH@Z 10030f22 f i libucrt:output.obj
 0001:0002ffb8       ?parse_int_from_format_string@?$output_processor@_WV?$stream_output_adapter@_W@__crt_stdio_output@@V?$standard_base@_WV?$stream_output_adapter@_W@__crt_stdio_output@@@2@@__crt_stdio_output@@AAE_NQAH@Z 10030fb8 f i libucrt:output.obj
 0001:0003004e       ?parse_int_from_format_string@?$output_processor@_WV?$string_output_adapter@_W@__crt_stdio_output@@V?$format_validation_base@_WV?$string_output_adapter@_W@__crt_stdio_output@@@2@@__crt_stdio_output@@AAE_NQAH@Z 1003104e f i libucrt:output.obj
 0001:000300e4       ?parse_int_from_format_string@?$output_processor@_WV?$string_output_adapter@_W@__crt_stdio_output@@V?$positional_parameter_base@_WV?$string_output_adapter@_W@__crt_stdio_output@@@2@@__crt_stdio_output@@AAE_NQAH@Z 100310e4 f i libucrt:output.obj
 0001:0003017a       ?parse_int_from_format_string@?$output_processor@_WV?$string_output_adapter@_W@__crt_stdio_output@@V?$standard_base@_WV?$string_output_adapter@_W@__crt_stdio_output@@@2@@__crt_stdio_output@@AAE_NQAH@Z 1003117a f i libucrt:output.obj
 0001:00030210       ?process@?$output_processor@DV?$stream_output_adapter@D@__crt_stdio_output@@V?$format_validation_base@DV?$stream_output_adapter@D@__crt_stdio_output@@@2@@__crt_stdio_output@@QAEHXZ 10031210 f i libucrt:output.obj
 0001:00030382       ?process@?$output_processor@DV?$stream_output_adapter@D@__crt_stdio_output@@V?$positional_parameter_base@DV?$stream_output_adapter@D@__crt_stdio_output@@@2@@__crt_stdio_output@@QAEHXZ 10031382 f i libucrt:output.obj
 0001:00030535       ?process@?$output_processor@DV?$stream_output_adapter@D@__crt_stdio_output@@V?$standard_base@DV?$stream_output_adapter@D@__crt_stdio_output@@@2@@__crt_stdio_output@@QAEHXZ 10031535 f i libucrt:output.obj
 0001:00030698       ?process@?$output_processor@DV?$string_output_adapter@D@__crt_stdio_output@@V?$format_validation_base@DV?$string_output_adapter@D@__crt_stdio_output@@@2@@__crt_stdio_output@@QAEHXZ 10031698 f i libucrt:output.obj
 0001:0003080a       ?process@?$output_processor@DV?$string_output_adapter@D@__crt_stdio_output@@V?$positional_parameter_base@DV?$string_output_adapter@D@__crt_stdio_output@@@2@@__crt_stdio_output@@QAEHXZ 1003180a f i libucrt:output.obj
 0001:000309bd       ?process@?$output_processor@DV?$string_output_adapter@D@__crt_stdio_output@@V?$standard_base@DV?$string_output_adapter@D@__crt_stdio_output@@@2@@__crt_stdio_output@@QAEHXZ 100319bd f i libucrt:output.obj
 0001:00030b20       ?process@?$output_processor@_WV?$stream_output_adapter@_W@__crt_stdio_output@@V?$format_validation_base@_WV?$stream_output_adapter@_W@__crt_stdio_output@@@2@@__crt_stdio_output@@QAEHXZ 10031b20 f i libucrt:output.obj
 0001:00030c9c       ?process@?$output_processor@_WV?$stream_output_adapter@_W@__crt_stdio_output@@V?$positional_parameter_base@_WV?$stream_output_adapter@_W@__crt_stdio_output@@@2@@__crt_stdio_output@@QAEHXZ 10031c9c f i libucrt:output.obj
 0001:00030e54       ?process@?$output_processor@_WV?$stream_output_adapter@_W@__crt_stdio_output@@V?$standard_base@_WV?$stream_output_adapter@_W@__crt_stdio_output@@@2@@__crt_stdio_output@@QAEHXZ 10031e54 f i libucrt:output.obj
 0001:00030fbc       ?process@?$output_processor@_WV?$string_output_adapter@_W@__crt_stdio_output@@V?$format_validation_base@_WV?$string_output_adapter@_W@__crt_stdio_output@@@2@@__crt_stdio_output@@QAEHXZ 10031fbc f i libucrt:output.obj
 0001:00031138       ?process@?$output_processor@_WV?$string_output_adapter@_W@__crt_stdio_output@@V?$positional_parameter_base@_WV?$string_output_adapter@_W@__crt_stdio_output@@@2@@__crt_stdio_output@@QAEHXZ 10032138 f i libucrt:output.obj
 0001:000312f0       ?process@?$output_processor@_WV?$string_output_adapter@_W@__crt_stdio_output@@V?$standard_base@_WV?$string_output_adapter@_W@__crt_stdio_output@@@2@@__crt_stdio_output@@QAEHXZ 100322f0 f i libucrt:output.obj
 0001:00031458       ?set_flag@?$output_processor@DV?$stream_output_adapter@D@__crt_stdio_output@@V?$format_validation_base@DV?$stream_output_adapter@D@__crt_stdio_output@@@2@@__crt_stdio_output@@AAEXI@Z 10032458 f i libucrt:output.obj
 0001:0003146a       ?set_flag@?$output_processor@DV?$stream_output_adapter@D@__crt_stdio_output@@V?$positional_parameter_base@DV?$stream_output_adapter@D@__crt_stdio_output@@@2@@__crt_stdio_output@@AAEXI@Z 1003246a f i libucrt:output.obj
 0001:0003147c       ?set_flag@?$output_processor@DV?$stream_output_adapter@D@__crt_stdio_output@@V?$standard_base@DV?$stream_output_adapter@D@__crt_stdio_output@@@2@@__crt_stdio_output@@AAEXI@Z 1003247c f i libucrt:output.obj
 0001:0003148e       ?set_flag@?$output_processor@DV?$string_output_adapter@D@__crt_stdio_output@@V?$format_validation_base@DV?$string_output_adapter@D@__crt_stdio_output@@@2@@__crt_stdio_output@@AAEXI@Z 1003248e f i libucrt:output.obj
 0001:000314a0       ?set_flag@?$output_processor@DV?$string_output_adapter@D@__crt_stdio_output@@V?$positional_parameter_base@DV?$string_output_adapter@D@__crt_stdio_output@@@2@@__crt_stdio_output@@AAEXI@Z 100324a0 f i libucrt:output.obj
 0001:000314b2       ?set_flag@?$output_processor@DV?$string_output_adapter@D@__crt_stdio_output@@V?$standard_base@DV?$string_output_adapter@D@__crt_stdio_output@@@2@@__crt_stdio_output@@AAEXI@Z 100324b2 f i libucrt:output.obj
 0001:000314c4       ?set_flag@?$output_processor@_WV?$stream_output_adapter@_W@__crt_stdio_output@@V?$format_validation_base@_WV?$stream_output_adapter@_W@__crt_stdio_output@@@2@@__crt_stdio_output@@AAEXI@Z 100324c4 f i libucrt:output.obj
 0001:000314d6       ?set_flag@?$output_processor@_WV?$stream_output_adapter@_W@__crt_stdio_output@@V?$positional_parameter_base@_WV?$stream_output_adapter@_W@__crt_stdio_output@@@2@@__crt_stdio_output@@AAEXI@Z 100324d6 f i libucrt:output.obj
 0001:000314e8       ?set_flag@?$output_processor@_WV?$stream_output_adapter@_W@__crt_stdio_output@@V?$standard_base@_WV?$stream_output_adapter@_W@__crt_stdio_output@@@2@@__crt_stdio_output@@AAEXI@Z 100324e8 f i libucrt:output.obj
 0001:000314fa       ?set_flag@?$output_processor@_WV?$string_output_adapter@_W@__crt_stdio_output@@V?$format_validation_base@_WV?$string_output_adapter@_W@__crt_stdio_output@@@2@@__crt_stdio_output@@AAEXI@Z 100324fa f i libucrt:output.obj
 0001:0003150c       ?set_flag@?$output_processor@_WV?$string_output_adapter@_W@__crt_stdio_output@@V?$positional_parameter_base@_WV?$string_output_adapter@_W@__crt_stdio_output@@@2@@__crt_stdio_output@@AAEXI@Z 1003250c f i libucrt:output.obj
 0001:0003151e       ?set_flag@?$output_processor@_WV?$string_output_adapter@_W@__crt_stdio_output@@V?$standard_base@_WV?$string_output_adapter@_W@__crt_stdio_output@@@2@@__crt_stdio_output@@AAEXI@Z 1003251e f i libucrt:output.obj
 0001:00031530       ?should_format@?$positional_parameter_base@DV?$stream_output_adapter@D@__crt_stdio_output@@@__crt_stdio_output@@IAE_NXZ 10032530 f i libucrt:output.obj
 0001:0003154b       ?should_format@?$positional_parameter_base@DV?$string_output_adapter@D@__crt_stdio_output@@@__crt_stdio_output@@IAE_NXZ 1003254b f i libucrt:output.obj
 0001:00031566       ?should_format@?$positional_parameter_base@_WV?$stream_output_adapter@_W@__crt_stdio_output@@@__crt_stdio_output@@IAE_NXZ 10032566 f i libucrt:output.obj
 0001:00031581       ?should_format@?$positional_parameter_base@_WV?$string_output_adapter@_W@__crt_stdio_output@@@__crt_stdio_output@@IAE_NXZ 10032581 f i libucrt:output.obj
 0001:0003159c       ?should_format@?$standard_base@DV?$stream_output_adapter@D@__crt_stdio_output@@@__crt_stdio_output@@IAE_NXZ 1003259c f i libucrt:output.obj
 0001:0003159f       ?should_format@?$standard_base@DV?$string_output_adapter@D@__crt_stdio_output@@@__crt_stdio_output@@IAE_NXZ 1003259f f i libucrt:output.obj
 0001:000315a2       ?should_format@?$standard_base@_WV?$stream_output_adapter@_W@__crt_stdio_output@@@__crt_stdio_output@@IAE_NXZ 100325a2 f i libucrt:output.obj
 0001:000315a5       ?should_format@?$standard_base@_WV?$string_output_adapter@_W@__crt_stdio_output@@@__crt_stdio_output@@IAE_NXZ 100325a5 f i libucrt:output.obj
 0001:000315a8       ?should_skip_normal_state_processing@?$positional_parameter_base@DV?$stream_output_adapter@D@__crt_stdio_output@@@__crt_stdio_output@@IAE_NXZ 100325a8 f i libucrt:output.obj
 0001:000315da       ?should_skip_normal_state_processing@?$positional_parameter_base@DV?$string_output_adapter@D@__crt_stdio_output@@@__crt_stdio_output@@IAE_NXZ 100325da f i libucrt:output.obj
 0001:0003160c       ?should_skip_normal_state_processing@?$positional_parameter_base@_WV?$stream_output_adapter@_W@__crt_stdio_output@@@__crt_stdio_output@@IAE_NXZ 1003260c f i libucrt:output.obj
 0001:0003163e       ?should_skip_normal_state_processing@?$positional_parameter_base@_WV?$string_output_adapter@_W@__crt_stdio_output@@@__crt_stdio_output@@IAE_NXZ 1003263e f i libucrt:output.obj
 0001:00031670       ?should_skip_normal_state_processing@?$standard_base@DV?$stream_output_adapter@D@__crt_stdio_output@@@__crt_stdio_output@@IAE_NXZ 10032670 f i libucrt:output.obj
 0001:00031673       ?should_skip_normal_state_processing@?$standard_base@DV?$string_output_adapter@D@__crt_stdio_output@@@__crt_stdio_output@@IAE_NXZ 10032673 f i libucrt:output.obj
 0001:00031676       ?should_skip_normal_state_processing@?$standard_base@_WV?$stream_output_adapter@_W@__crt_stdio_output@@@__crt_stdio_output@@IAE_NXZ 10032676 f i libucrt:output.obj
 0001:00031679       ?should_skip_normal_state_processing@?$standard_base@_WV?$string_output_adapter@_W@__crt_stdio_output@@@__crt_stdio_output@@IAE_NXZ 10032679 f i libucrt:output.obj
 0001:0003167c       ?should_skip_type_state_output@?$positional_parameter_base@DV?$stream_output_adapter@D@__crt_stdio_output@@@__crt_stdio_output@@IBE_NXZ 1003267c f i libucrt:output.obj
 0001:00031698       ?should_skip_type_state_output@?$positional_parameter_base@DV?$string_output_adapter@D@__crt_stdio_output@@@__crt_stdio_output@@IBE_NXZ 10032698 f i libucrt:output.obj
 0001:000316b4       ?should_skip_type_state_output@?$positional_parameter_base@_WV?$stream_output_adapter@_W@__crt_stdio_output@@@__crt_stdio_output@@IBE_NXZ 100326b4 f i libucrt:output.obj
 0001:000316d0       ?should_skip_type_state_output@?$positional_parameter_base@_WV?$string_output_adapter@_W@__crt_stdio_output@@@__crt_stdio_output@@IBE_NXZ 100326d0 f i libucrt:output.obj
 0001:000316ec       ?should_skip_type_state_output@?$standard_base@DV?$stream_output_adapter@D@__crt_stdio_output@@@__crt_stdio_output@@IBE_NXZ 100326ec f i libucrt:output.obj
 0001:000316ef       ?should_skip_type_state_output@?$standard_base@DV?$string_output_adapter@D@__crt_stdio_output@@@__crt_stdio_output@@IBE_NXZ 100326ef f i libucrt:output.obj
 0001:000316f2       ?should_skip_type_state_output@?$standard_base@_WV?$stream_output_adapter@_W@__crt_stdio_output@@@__crt_stdio_output@@IBE_NXZ 100326f2 f i libucrt:output.obj
 0001:000316f5       ?should_skip_type_state_output@?$standard_base@_WV?$string_output_adapter@_W@__crt_stdio_output@@@__crt_stdio_output@@IBE_NXZ 100326f5 f i libucrt:output.obj
 0001:000316f8       ?state_case_dot@?$output_processor@DV?$stream_output_adapter@D@__crt_stdio_output@@V?$format_validation_base@DV?$stream_output_adapter@D@__crt_stdio_output@@@2@@__crt_stdio_output@@AAE_NXZ 100326f8 f i libucrt:output.obj
 0001:000316ff       ?state_case_dot@?$output_processor@DV?$stream_output_adapter@D@__crt_stdio_output@@V?$positional_parameter_base@DV?$stream_output_adapter@D@__crt_stdio_output@@@2@@__crt_stdio_output@@AAE_NXZ 100326ff f i libucrt:output.obj
 0001:00031706       ?state_case_dot@?$output_processor@DV?$stream_output_adapter@D@__crt_stdio_output@@V?$standard_base@DV?$stream_output_adapter@D@__crt_stdio_output@@@2@@__crt_stdio_output@@AAE_NXZ 10032706 f i libucrt:output.obj
 0001:0003170d       ?state_case_dot@?$output_processor@DV?$string_output_adapter@D@__crt_stdio_output@@V?$format_validation_base@DV?$string_output_adapter@D@__crt_stdio_output@@@2@@__crt_stdio_output@@AAE_NXZ 1003270d f i libucrt:output.obj
 0001:00031714       ?state_case_dot@?$output_processor@DV?$string_output_adapter@D@__crt_stdio_output@@V?$positional_parameter_base@DV?$string_output_adapter@D@__crt_stdio_output@@@2@@__crt_stdio_output@@AAE_NXZ 10032714 f i libucrt:output.obj
 0001:0003171b       ?state_case_dot@?$output_processor@DV?$string_output_adapter@D@__crt_stdio_output@@V?$standard_base@DV?$string_output_adapter@D@__crt_stdio_output@@@2@@__crt_stdio_output@@AAE_NXZ 1003271b f i libucrt:output.obj
 0001:00031722       ?state_case_dot@?$output_processor@_WV?$stream_output_adapter@_W@__crt_stdio_output@@V?$format_validation_base@_WV?$stream_output_adapter@_W@__crt_stdio_output@@@2@@__crt_stdio_output@@AAE_NXZ 10032722 f i libucrt:output.obj
 0001:00031729       ?state_case_dot@?$output_processor@_WV?$stream_output_adapter@_W@__crt_stdio_output@@V?$positional_parameter_base@_WV?$stream_output_adapter@_W@__crt_stdio_output@@@2@@__crt_stdio_output@@AAE_NXZ 10032729 f i libucrt:output.obj
 0001:00031730       ?state_case_dot@?$output_processor@_WV?$stream_output_adapter@_W@__crt_stdio_output@@V?$standard_base@_WV?$stream_output_adapter@_W@__crt_stdio_output@@@2@@__crt_stdio_output@@AAE_NXZ 10032730 f i libucrt:output.obj
 0001:00031737       ?state_case_dot@?$output_processor@_WV?$string_output_adapter@_W@__crt_stdio_output@@V?$format_validation_base@_WV?$string_output_adapter@_W@__crt_stdio_output@@@2@@__crt_stdio_output@@AAE_NXZ 10032737 f i libucrt:output.obj
 0001:0003173e       ?state_case_dot@?$output_processor@_WV?$string_output_adapter@_W@__crt_stdio_output@@V?$positional_parameter_base@_WV?$string_output_adapter@_W@__crt_stdio_output@@@2@@__crt_stdio_output@@AAE_NXZ 1003273e f i libucrt:output.obj
 0001:00031745       ?state_case_dot@?$output_processor@_WV?$string_output_adapter@_W@__crt_stdio_output@@V?$standard_base@_WV?$string_output_adapter@_W@__crt_stdio_output@@@2@@__crt_stdio_output@@AAE_NXZ 10032745 f i libucrt:output.obj
 0001:0003174c       ?state_case_flag@?$output_processor@DV?$stream_output_adapter@D@__crt_stdio_output@@V?$format_validation_base@DV?$stream_output_adapter@D@__crt_stdio_output@@@2@@__crt_stdio_output@@AAE_NXZ 1003274c f i libucrt:output.obj
 0001:00031798       ?state_case_flag@?$output_processor@DV?$stream_output_adapter@D@__crt_stdio_output@@V?$positional_parameter_base@DV?$stream_output_adapter@D@__crt_stdio_output@@@2@@__crt_stdio_output@@AAE_NXZ 10032798 f i libucrt:output.obj
 0001:000317e4       ?state_case_flag@?$output_processor@DV?$stream_output_adapter@D@__crt_stdio_output@@V?$standard_base@DV?$stream_output_adapter@D@__crt_stdio_output@@@2@@__crt_stdio_output@@AAE_NXZ 100327e4 f i libucrt:output.obj
 0001:00031830       ?state_case_flag@?$output_processor@DV?$string_output_adapter@D@__crt_stdio_output@@V?$format_validation_base@DV?$string_output_adapter@D@__crt_stdio_output@@@2@@__crt_stdio_output@@AAE_NXZ 10032830 f i libucrt:output.obj
 0001:0003187c       ?state_case_flag@?$output_processor@DV?$string_output_adapter@D@__crt_stdio_output@@V?$positional_parameter_base@DV?$string_output_adapter@D@__crt_stdio_output@@@2@@__crt_stdio_output@@AAE_NXZ 1003287c f i libucrt:output.obj
 0001:000318c8       ?state_case_flag@?$output_processor@DV?$string_output_adapter@D@__crt_stdio_output@@V?$standard_base@DV?$string_output_adapter@D@__crt_stdio_output@@@2@@__crt_stdio_output@@AAE_NXZ 100328c8 f i libucrt:output.obj
 0001:00031914       ?state_case_flag@?$output_processor@_WV?$stream_output_adapter@_W@__crt_stdio_output@@V?$format_validation_base@_WV?$stream_output_adapter@_W@__crt_stdio_output@@@2@@__crt_stdio_output@@AAE_NXZ 10032914 f i libucrt:output.obj
 0001:00031960       ?state_case_flag@?$output_processor@_WV?$stream_output_adapter@_W@__crt_stdio_output@@V?$positional_parameter_base@_WV?$stream_output_adapter@_W@__crt_stdio_output@@@2@@__crt_stdio_output@@AAE_NXZ 10032960 f i libucrt:output.obj
 0001:000319ac       ?state_case_flag@?$output_processor@_WV?$stream_output_adapter@_W@__crt_stdio_output@@V?$standard_base@_WV?$stream_output_adapter@_W@__crt_stdio_output@@@2@@__crt_stdio_output@@AAE_NXZ 100329ac f i libucrt:output.obj
 0001:000319f8       ?state_case_flag@?$output_processor@_WV?$string_output_adapter@_W@__crt_stdio_output@@V?$format_validation_base@_WV?$string_output_adapter@_W@__crt_stdio_output@@@2@@__crt_stdio_output@@AAE_NXZ 100329f8 f i libucrt:output.obj
 0001:00031a44       ?state_case_flag@?$output_processor@_WV?$string_output_adapter@_W@__crt_stdio_output@@V?$positional_parameter_base@_WV?$string_output_adapter@_W@__crt_stdio_output@@@2@@__crt_stdio_output@@AAE_NXZ 10032a44 f i libucrt:output.obj
 0001:00031a90       ?state_case_flag@?$output_processor@_WV?$string_output_adapter@_W@__crt_stdio_output@@V?$standard_base@_WV?$string_output_adapter@_W@__crt_stdio_output@@@2@@__crt_stdio_output@@AAE_NXZ 10032a90 f i libucrt:output.obj
 0001:00031adc       ?state_case_normal@?$output_processor@DV?$stream_output_adapter@D@__crt_stdio_output@@V?$format_validation_base@DV?$stream_output_adapter@D@__crt_stdio_output@@@2@@__crt_stdio_output@@AAE_NXZ 10032adc f i libucrt:output.obj
 0001:00031b02       ?state_case_normal@?$output_processor@DV?$stream_output_adapter@D@__crt_stdio_output@@V?$positional_parameter_base@DV?$stream_output_adapter@D@__crt_stdio_output@@@2@@__crt_stdio_output@@AAE_NXZ 10032b02 f i libucrt:output.obj
 0001:00031b3f       ?state_case_normal@?$output_processor@DV?$stream_output_adapter@D@__crt_stdio_output@@V?$standard_base@DV?$stream_output_adapter@D@__crt_stdio_output@@@2@@__crt_stdio_output@@AAE_NXZ 10032b3f f i libucrt:output.obj
 0001:00031b65       ?state_case_normal@?$output_processor@DV?$string_output_adapter@D@__crt_stdio_output@@V?$format_validation_base@DV?$string_output_adapter@D@__crt_stdio_output@@@2@@__crt_stdio_output@@AAE_NXZ 10032b65 f i libucrt:output.obj
 0001:00031b8b       ?state_case_normal@?$output_processor@DV?$string_output_adapter@D@__crt_stdio_output@@V?$positional_parameter_base@DV?$string_output_adapter@D@__crt_stdio_output@@@2@@__crt_stdio_output@@AAE_NXZ 10032b8b f i libucrt:output.obj
 0001:00031bc8       ?state_case_normal@?$output_processor@DV?$string_output_adapter@D@__crt_stdio_output@@V?$standard_base@DV?$string_output_adapter@D@__crt_stdio_output@@@2@@__crt_stdio_output@@AAE_NXZ 10032bc8 f i libucrt:output.obj
 0001:00031bee       ?state_case_normal@?$output_processor@_WV?$stream_output_adapter@_W@__crt_stdio_output@@V?$format_validation_base@_WV?$stream_output_adapter@_W@__crt_stdio_output@@@2@@__crt_stdio_output@@AAE_NXZ 10032bee f i libucrt:output.obj
 0001:00031c14       ?state_case_normal@?$output_processor@_WV?$stream_output_adapter@_W@__crt_stdio_output@@V?$positional_parameter_base@_WV?$stream_output_adapter@_W@__crt_stdio_output@@@2@@__crt_stdio_output@@AAE_NXZ 10032c14 f i libucrt:output.obj
 0001:00031c51       ?state_case_normal@?$output_processor@_WV?$stream_output_adapter@_W@__crt_stdio_output@@V?$standard_base@_WV?$stream_output_adapter@_W@__crt_stdio_output@@@2@@__crt_stdio_output@@AAE_NXZ 10032c51 f i libucrt:output.obj
 0001:00031c77       ?state_case_normal@?$output_processor@_WV?$string_output_adapter@_W@__crt_stdio_output@@V?$format_validation_base@_WV?$string_output_adapter@_W@__crt_stdio_output@@@2@@__crt_stdio_output@@AAE_NXZ 10032c77 f i libucrt:output.obj
 0001:00031c9d       ?state_case_normal@?$output_processor@_WV?$string_output_adapter@_W@__crt_stdio_output@@V?$positional_parameter_base@_WV?$string_output_adapter@_W@__crt_stdio_output@@@2@@__crt_stdio_output@@AAE_NXZ 10032c9d f i libucrt:output.obj
 0001:00031cda       ?state_case_normal@?$output_processor@_WV?$string_output_adapter@_W@__crt_stdio_output@@V?$standard_base@_WV?$string_output_adapter@_W@__crt_stdio_output@@@2@@__crt_stdio_output@@AAE_NXZ 10032cda f i libucrt:output.obj
 0001:00031d00       ?state_case_normal_common@?$output_processor@DV?$stream_output_adapter@D@__crt_stdio_output@@V?$format_validation_base@DV?$stream_output_adapter@D@__crt_stdio_output@@@2@@__crt_stdio_output@@AAE_NXZ 10032d00 f i libucrt:output.obj
 0001:00031d4b       ?state_case_normal_common@?$output_processor@DV?$stream_output_adapter@D@__crt_stdio_output@@V?$positional_parameter_base@DV?$stream_output_adapter@D@__crt_stdio_output@@@2@@__crt_stdio_output@@AAE_NXZ 10032d4b f i libucrt:output.obj
 0001:00031d96       ?state_case_normal_common@?$output_processor@DV?$stream_output_adapter@D@__crt_stdio_output@@V?$standard_base@DV?$stream_output_adapter@D@__crt_stdio_output@@@2@@__crt_stdio_output@@AAE_NXZ 10032d96 f i libucrt:output.obj
 0001:00031de1       ?state_case_normal_common@?$output_processor@DV?$string_output_adapter@D@__crt_stdio_output@@V?$format_validation_base@DV?$string_output_adapter@D@__crt_stdio_output@@@2@@__crt_stdio_output@@AAE_NXZ 10032de1 f i libucrt:output.obj
 0001:00031e15       ?state_case_normal_common@?$output_processor@DV?$string_output_adapter@D@__crt_stdio_output@@V?$positional_parameter_base@DV?$string_output_adapter@D@__crt_stdio_output@@@2@@__crt_stdio_output@@AAE_NXZ 10032e15 f i libucrt:output.obj
 0001:00031e49       ?state_case_normal_common@?$output_processor@DV?$string_output_adapter@D@__crt_stdio_output@@V?$standard_base@DV?$string_output_adapter@D@__crt_stdio_output@@@2@@__crt_stdio_output@@AAE_NXZ 10032e49 f i libucrt:output.obj
 0001:00031e7d       ?state_case_normal_common@?$output_processor@_WV?$stream_output_adapter@_W@__crt_stdio_output@@V?$format_validation_base@_WV?$stream_output_adapter@_W@__crt_stdio_output@@@2@@__crt_stdio_output@@AAE_NXZ 10032e7d f i libucrt:output.obj
 0001:00031eb1       ?state_case_normal_common@?$output_processor@_WV?$stream_output_adapter@_W@__crt_stdio_output@@V?$positional_parameter_base@_WV?$stream_output_adapter@_W@__crt_stdio_output@@@2@@__crt_stdio_output@@AAE_NXZ 10032eb1 f i libucrt:output.obj
 0001:00031ee5       ?state_case_normal_common@?$output_processor@_WV?$stream_output_adapter@_W@__crt_stdio_output@@V?$standard_base@_WV?$stream_output_adapter@_W@__crt_stdio_output@@@2@@__crt_stdio_output@@AAE_NXZ 10032ee5 f i libucrt:output.obj
 0001:00031f19       ?state_case_normal_common@?$output_processor@_WV?$string_output_adapter@_W@__crt_stdio_output@@V?$format_validation_base@_WV?$string_output_adapter@_W@__crt_stdio_output@@@2@@__crt_stdio_output@@AAE_NXZ 10032f19 f i libucrt:output.obj
 0001:00031f3a       ?state_case_normal_common@?$output_processor@_WV?$string_output_adapter@_W@__crt_stdio_output@@V?$positional_parameter_base@_WV?$string_output_adapter@_W@__crt_stdio_output@@@2@@__crt_stdio_output@@AAE_NXZ 10032f3a f i libucrt:output.obj
 0001:00031f5b       ?state_case_normal_common@?$output_processor@_WV?$string_output_adapter@_W@__crt_stdio_output@@V?$standard_base@_WV?$string_output_adapter@_W@__crt_stdio_output@@@2@@__crt_stdio_output@@AAE_NXZ 10032f5b f i libucrt:output.obj
 0001:00031f7c       ?state_case_normal_tchar@?$output_processor@DV?$stream_output_adapter@D@__crt_stdio_output@@V?$format_validation_base@DV?$stream_output_adapter@D@__crt_stdio_output@@@2@@__crt_stdio_output@@AAE_ND@Z 10032f7c f i libucrt:output.obj
 0001:00031ff6       ?state_case_normal_tchar@?$output_processor@DV?$stream_output_adapter@D@__crt_stdio_output@@V?$positional_parameter_base@DV?$stream_output_adapter@D@__crt_stdio_output@@@2@@__crt_stdio_output@@AAE_ND@Z 10032ff6 f i libucrt:output.obj
 0001:00032070       ?state_case_normal_tchar@?$output_processor@DV?$stream_output_adapter@D@__crt_stdio_output@@V?$standard_base@DV?$stream_output_adapter@D@__crt_stdio_output@@@2@@__crt_stdio_output@@AAE_ND@Z 10033070 f i libucrt:output.obj
 0001:000320ea       ?state_case_normal_tchar@?$output_processor@DV?$string_output_adapter@D@__crt_stdio_output@@V?$format_validation_base@DV?$string_output_adapter@D@__crt_stdio_output@@@2@@__crt_stdio_output@@AAE_ND@Z 100330ea f i libucrt:output.obj
 0001:00032159       ?state_case_normal_tchar@?$output_processor@DV?$string_output_adapter@D@__crt_stdio_output@@V?$positional_parameter_base@DV?$string_output_adapter@D@__crt_stdio_output@@@2@@__crt_stdio_output@@AAE_ND@Z 10033159 f i libucrt:output.obj
 0001:000321c8       ?state_case_normal_tchar@?$output_processor@DV?$string_output_adapter@D@__crt_stdio_output@@V?$standard_base@DV?$string_output_adapter@D@__crt_stdio_output@@@2@@__crt_stdio_output@@AAE_ND@Z 100331c8 f i libucrt:output.obj
 0001:00032237       ?state_case_normal_tchar@?$output_processor@_WV?$stream_output_adapter@_W@__crt_stdio_output@@V?$format_validation_base@_WV?$stream_output_adapter@_W@__crt_stdio_output@@@2@@__crt_stdio_output@@AAE_N_W@Z 10033237 f i libucrt:output.obj
 0001:00032242       ?state_case_normal_tchar@?$output_processor@_WV?$stream_output_adapter@_W@__crt_stdio_output@@V?$positional_parameter_base@_WV?$stream_output_adapter@_W@__crt_stdio_output@@@2@@__crt_stdio_output@@AAE_N_W@Z 10033242 f i libucrt:output.obj
 0001:0003224d       ?state_case_normal_tchar@?$output_processor@_WV?$stream_output_adapter@_W@__crt_stdio_output@@V?$standard_base@_WV?$stream_output_adapter@_W@__crt_stdio_output@@@2@@__crt_stdio_output@@AAE_N_W@Z 1003324d f i libucrt:output.obj
 0001:00032258       ?state_case_normal_tchar@?$output_processor@_WV?$string_output_adapter@_W@__crt_stdio_output@@V?$format_validation_base@_WV?$string_output_adapter@_W@__crt_stdio_output@@@2@@__crt_stdio_output@@AAE_N_W@Z 10033258 f i libucrt:output.obj
 0001:00032263       ?state_case_normal_tchar@?$output_processor@_WV?$string_output_adapter@_W@__crt_stdio_output@@V?$positional_parameter_base@_WV?$string_output_adapter@_W@__crt_stdio_output@@@2@@__crt_stdio_output@@AAE_N_W@Z 10033263 f i libucrt:output.obj
 0001:0003226e       ?state_case_normal_tchar@?$output_processor@_WV?$string_output_adapter@_W@__crt_stdio_output@@V?$standard_base@_WV?$string_output_adapter@_W@__crt_stdio_output@@@2@@__crt_stdio_output@@AAE_N_W@Z 1003326e f i libucrt:output.obj
 0001:00032279       ?state_case_percent@?$output_processor@DV?$stream_output_adapter@D@__crt_stdio_output@@V?$format_validation_base@DV?$stream_output_adapter@D@__crt_stdio_output@@@2@@__crt_stdio_output@@AAE_NXZ 10033279 f i libucrt:output.obj
 0001:00032297       ?state_case_percent@?$output_processor@DV?$stream_output_adapter@D@__crt_stdio_output@@V?$positional_parameter_base@DV?$stream_output_adapter@D@__crt_stdio_output@@@2@@__crt_stdio_output@@AAE_NXZ 10033297 f i libucrt:output.obj
 0001:000322b5       ?state_case_percent@?$output_processor@DV?$stream_output_adapter@D@__crt_stdio_output@@V?$standard_base@DV?$stream_output_adapter@D@__crt_stdio_output@@@2@@__crt_stdio_output@@AAE_NXZ 100332b5 f i libucrt:output.obj
 0001:000322d3       ?state_case_percent@?$output_processor@DV?$string_output_adapter@D@__crt_stdio_output@@V?$format_validation_base@DV?$string_output_adapter@D@__crt_stdio_output@@@2@@__crt_stdio_output@@AAE_NXZ 100332d3 f i libucrt:output.obj
 0001:000322f1       ?state_case_percent@?$output_processor@DV?$string_output_adapter@D@__crt_stdio_output@@V?$positional_parameter_base@DV?$string_output_adapter@D@__crt_stdio_output@@@2@@__crt_stdio_output@@AAE_NXZ 100332f1 f i libucrt:output.obj
 0001:0003230f       ?state_case_percent@?$output_processor@DV?$string_output_adapter@D@__crt_stdio_output@@V?$standard_base@DV?$string_output_adapter@D@__crt_stdio_output@@@2@@__crt_stdio_output@@AAE_NXZ 1003330f f i libucrt:output.obj
 0001:0003232d       ?state_case_percent@?$output_processor@_WV?$stream_output_adapter@_W@__crt_stdio_output@@V?$format_validation_base@_WV?$stream_output_adapter@_W@__crt_stdio_output@@@2@@__crt_stdio_output@@AAE_NXZ 1003332d f i libucrt:output.obj
 0001:0003234b       ?state_case_percent@?$output_processor@_WV?$stream_output_adapter@_W@__crt_stdio_output@@V?$positional_parameter_base@_WV?$stream_output_adapter@_W@__crt_stdio_output@@@2@@__crt_stdio_output@@AAE_NXZ 1003334b f i libucrt:output.obj
 0001:00032369       ?state_case_percent@?$output_processor@_WV?$stream_output_adapter@_W@__crt_stdio_output@@V?$standard_base@_WV?$stream_output_adapter@_W@__crt_stdio_output@@@2@@__crt_stdio_output@@AAE_NXZ 10033369 f i libucrt:output.obj
 0001:00032387       ?state_case_percent@?$output_processor@_WV?$string_output_adapter@_W@__crt_stdio_output@@V?$format_validation_base@_WV?$string_output_adapter@_W@__crt_stdio_output@@@2@@__crt_stdio_output@@AAE_NXZ 10033387 f i libucrt:output.obj
 0001:000323a5       ?state_case_percent@?$output_processor@_WV?$string_output_adapter@_W@__crt_stdio_output@@V?$positional_parameter_base@_WV?$string_output_adapter@_W@__crt_stdio_output@@@2@@__crt_stdio_output@@AAE_NXZ 100333a5 f i libucrt:output.obj
 0001:000323c3       ?state_case_percent@?$output_processor@_WV?$string_output_adapter@_W@__crt_stdio_output@@V?$standard_base@_WV?$string_output_adapter@_W@__crt_stdio_output@@@2@@__crt_stdio_output@@AAE_NXZ 100333c3 f i libucrt:output.obj
 0001:000323e1       ?state_case_precision@?$output_processor@DV?$stream_output_adapter@D@__crt_stdio_output@@V?$format_validation_base@DV?$stream_output_adapter@D@__crt_stdio_output@@@2@@__crt_stdio_output@@AAE_NXZ 100333e1 f i libucrt:output.obj
 0001:00032410       ?state_case_precision@?$output_processor@DV?$stream_output_adapter@D@__crt_stdio_output@@V?$positional_parameter_base@DV?$stream_output_adapter@D@__crt_stdio_output@@@2@@__crt_stdio_output@@AAE_NXZ 10033410 f i libucrt:output.obj
 0001:00032458       ?state_case_precision@?$output_processor@DV?$stream_output_adapter@D@__crt_stdio_output@@V?$standard_base@DV?$stream_output_adapter@D@__crt_stdio_output@@@2@@__crt_stdio_output@@AAE_NXZ 10033458 f i libucrt:output.obj
 0001:00032487       ?state_case_precision@?$output_processor@DV?$string_output_adapter@D@__crt_stdio_output@@V?$format_validation_base@DV?$string_output_adapter@D@__crt_stdio_output@@@2@@__crt_stdio_output@@AAE_NXZ 10033487 f i libucrt:output.obj
 0001:000324b6       ?state_case_precision@?$output_processor@DV?$string_output_adapter@D@__crt_stdio_output@@V?$positional_parameter_base@DV?$string_output_adapter@D@__crt_stdio_output@@@2@@__crt_stdio_output@@AAE_NXZ 100334b6 f i libucrt:output.obj
 0001:000324fe       ?state_case_precision@?$output_processor@DV?$string_output_adapter@D@__crt_stdio_output@@V?$standard_base@DV?$string_output_adapter@D@__crt_stdio_output@@@2@@__crt_stdio_output@@AAE_NXZ 100334fe f i libucrt:output.obj
 0001:0003252d       ?state_case_precision@?$output_processor@_WV?$stream_output_adapter@_W@__crt_stdio_output@@V?$format_validation_base@_WV?$stream_output_adapter@_W@__crt_stdio_output@@@2@@__crt_stdio_output@@AAE_NXZ 1003352d f i libucrt:output.obj
 0001:0003255d       ?state_case_precision@?$output_processor@_WV?$stream_output_adapter@_W@__crt_stdio_output@@V?$positional_parameter_base@_WV?$stream_output_adapter@_W@__crt_stdio_output@@@2@@__crt_stdio_output@@AAE_NXZ 1003355d f i libucrt:output.obj
 0001:000325a6       ?state_case_precision@?$output_processor@_WV?$stream_output_adapter@_W@__crt_stdio_output@@V?$standard_base@_WV?$stream_output_adapter@_W@__crt_stdio_output@@@2@@__crt_stdio_output@@AAE_NXZ 100335a6 f i libucrt:output.obj
 0001:000325d6       ?state_case_precision@?$output_processor@_WV?$string_output_adapter@_W@__crt_stdio_output@@V?$format_validation_base@_WV?$string_output_adapter@_W@__crt_stdio_output@@@2@@__crt_stdio_output@@AAE_NXZ 100335d6 f i libucrt:output.obj
 0001:00032606       ?state_case_precision@?$output_processor@_WV?$string_output_adapter@_W@__crt_stdio_output@@V?$positional_parameter_base@_WV?$string_output_adapter@_W@__crt_stdio_output@@@2@@__crt_stdio_output@@AAE_NXZ 10033606 f i libucrt:output.obj
 0001:0003264f       ?state_case_precision@?$output_processor@_WV?$string_output_adapter@_W@__crt_stdio_output@@V?$standard_base@_WV?$string_output_adapter@_W@__crt_stdio_output@@@2@@__crt_stdio_output@@AAE_NXZ 1003364f f i libucrt:output.obj
 0001:0003267f       ?state_case_size@?$output_processor@DV?$stream_output_adapter@D@__crt_stdio_output@@V?$format_validation_base@DV?$stream_output_adapter@D@__crt_stdio_output@@@2@@__crt_stdio_output@@AAE_NXZ 1003367f f i libucrt:output.obj
 0001:0003282f       ?state_case_size@?$output_processor@DV?$stream_output_adapter@D@__crt_stdio_output@@V?$positional_parameter_base@DV?$stream_output_adapter@D@__crt_stdio_output@@@2@@__crt_stdio_output@@AAE_NXZ 1003382f f i libucrt:output.obj
 0001:000329df       ?state_case_size@?$output_processor@DV?$stream_output_adapter@D@__crt_stdio_output@@V?$standard_base@DV?$stream_output_adapter@D@__crt_stdio_output@@@2@@__crt_stdio_output@@AAE_NXZ 100339df f i libucrt:output.obj
 0001:00032b8f       ?state_case_size@?$output_processor@DV?$string_output_adapter@D@__crt_stdio_output@@V?$format_validation_base@DV?$string_output_adapter@D@__crt_stdio_output@@@2@@__crt_stdio_output@@AAE_NXZ 10033b8f f i libucrt:output.obj
 0001:00032d3f       ?state_case_size@?$output_processor@DV?$string_output_adapter@D@__crt_stdio_output@@V?$positional_parameter_base@DV?$string_output_adapter@D@__crt_stdio_output@@@2@@__crt_stdio_output@@AAE_NXZ 10033d3f f i libucrt:output.obj
 0001:00032eef       ?state_case_size@?$output_processor@DV?$string_output_adapter@D@__crt_stdio_output@@V?$standard_base@DV?$string_output_adapter@D@__crt_stdio_output@@@2@@__crt_stdio_output@@AAE_NXZ 10033eef f i libucrt:output.obj
 0001:0003309f       ?state_case_size@?$output_processor@_WV?$stream_output_adapter@_W@__crt_stdio_output@@V?$format_validation_base@_WV?$stream_output_adapter@_W@__crt_stdio_output@@@2@@__crt_stdio_output@@AAE_NXZ 1003409f f i libucrt:output.obj
 0001:00033267       ?state_case_size@?$output_processor@_WV?$stream_output_adapter@_W@__crt_stdio_output@@V?$positional_parameter_base@_WV?$stream_output_adapter@_W@__crt_stdio_output@@@2@@__crt_stdio_output@@AAE_NXZ 10034267 f i libucrt:output.obj
 0001:0003342f       ?state_case_size@?$output_processor@_WV?$stream_output_adapter@_W@__crt_stdio_output@@V?$standard_base@_WV?$stream_output_adapter@_W@__crt_stdio_output@@@2@@__crt_stdio_output@@AAE_NXZ 1003442f f i libucrt:output.obj
 0001:000335f7       ?state_case_size@?$output_processor@_WV?$string_output_adapter@_W@__crt_stdio_output@@V?$format_validation_base@_WV?$string_output_adapter@_W@__crt_stdio_output@@@2@@__crt_stdio_output@@AAE_NXZ 100345f7 f i libucrt:output.obj
 0001:000337bf       ?state_case_size@?$output_processor@_WV?$string_output_adapter@_W@__crt_stdio_output@@V?$positional_parameter_base@_WV?$string_output_adapter@_W@__crt_stdio_output@@@2@@__crt_stdio_output@@AAE_NXZ 100347bf f i libucrt:output.obj
 0001:00033987       ?state_case_size@?$output_processor@_WV?$string_output_adapter@_W@__crt_stdio_output@@V?$standard_base@_WV?$string_output_adapter@_W@__crt_stdio_output@@@2@@__crt_stdio_output@@AAE_NXZ 10034987 f i libucrt:output.obj
 0001:00033b4f       ?state_case_type@?$output_processor@DV?$stream_output_adapter@D@__crt_stdio_output@@V?$format_validation_base@DV?$stream_output_adapter@D@__crt_stdio_output@@@2@@__crt_stdio_output@@AAE_NXZ 10034b4f f i libucrt:output.obj
 0001:00033e02       ?state_case_type@?$output_processor@DV?$stream_output_adapter@D@__crt_stdio_output@@V?$positional_parameter_base@DV?$stream_output_adapter@D@__crt_stdio_output@@@2@@__crt_stdio_output@@AAE_NXZ 10034e02 f i libucrt:output.obj
 0001:000340c3       ?state_case_type@?$output_processor@DV?$stream_output_adapter@D@__crt_stdio_output@@V?$standard_base@DV?$stream_output_adapter@D@__crt_stdio_output@@@2@@__crt_stdio_output@@AAE_NXZ 100350c3 f i libucrt:output.obj
 0001:00034376       ?state_case_type@?$output_processor@DV?$string_output_adapter@D@__crt_stdio_output@@V?$format_validation_base@DV?$string_output_adapter@D@__crt_stdio_output@@@2@@__crt_stdio_output@@AAE_NXZ 10035376 f i libucrt:output.obj
 0001:00034629       ?state_case_type@?$output_processor@DV?$string_output_adapter@D@__crt_stdio_output@@V?$positional_parameter_base@DV?$string_output_adapter@D@__crt_stdio_output@@@2@@__crt_stdio_output@@AAE_NXZ 10035629 f i libucrt:output.obj
 0001:000348ea       ?state_case_type@?$output_processor@DV?$string_output_adapter@D@__crt_stdio_output@@V?$standard_base@DV?$string_output_adapter@D@__crt_stdio_output@@@2@@__crt_stdio_output@@AAE_NXZ 100358ea f i libucrt:output.obj
 0001:00034b9d       ?state_case_type@?$output_processor@_WV?$stream_output_adapter@_W@__crt_stdio_output@@V?$format_validation_base@_WV?$stream_output_adapter@_W@__crt_stdio_output@@@2@@__crt_stdio_output@@AAE_NXZ 10035b9d f i libucrt:output.obj
 0001:00034e9d       ?state_case_type@?$output_processor@_WV?$stream_output_adapter@_W@__crt_stdio_output@@V?$positional_parameter_base@_WV?$stream_output_adapter@_W@__crt_stdio_output@@@2@@__crt_stdio_output@@AAE_NXZ 10035e9d f i libucrt:output.obj
 0001:000351b0       ?state_case_type@?$output_processor@_WV?$stream_output_adapter@_W@__crt_stdio_output@@V?$standard_base@_WV?$stream_output_adapter@_W@__crt_stdio_output@@@2@@__crt_stdio_output@@AAE_NXZ 100361b0 f i libucrt:output.obj
 0001:000354b0       ?state_case_type@?$output_processor@_WV?$string_output_adapter@_W@__crt_stdio_output@@V?$format_validation_base@_WV?$string_output_adapter@_W@__crt_stdio_output@@@2@@__crt_stdio_output@@AAE_NXZ 100364b0 f i libucrt:output.obj
 0001:000357b0       ?state_case_type@?$output_processor@_WV?$string_output_adapter@_W@__crt_stdio_output@@V?$positional_parameter_base@_WV?$string_output_adapter@_W@__crt_stdio_output@@@2@@__crt_stdio_output@@AAE_NXZ 100367b0 f i libucrt:output.obj
 0001:00035ac3       ?state_case_type@?$output_processor@_WV?$string_output_adapter@_W@__crt_stdio_output@@V?$standard_base@_WV?$string_output_adapter@_W@__crt_stdio_output@@@2@@__crt_stdio_output@@AAE_NXZ 10036ac3 f i libucrt:output.obj
 0001:00035dc3       ?state_case_width@?$output_processor@DV?$stream_output_adapter@D@__crt_stdio_output@@V?$format_validation_base@DV?$stream_output_adapter@D@__crt_stdio_output@@@2@@__crt_stdio_output@@AAE_NXZ 10036dc3 f i libucrt:output.obj
 0001:00035df8       ?state_case_width@?$output_processor@DV?$stream_output_adapter@D@__crt_stdio_output@@V?$positional_parameter_base@DV?$stream_output_adapter@D@__crt_stdio_output@@@2@@__crt_stdio_output@@AAE_NXZ 10036df8 f i libucrt:output.obj
 0001:00035e48       ?state_case_width@?$output_processor@DV?$stream_output_adapter@D@__crt_stdio_output@@V?$standard_base@DV?$stream_output_adapter@D@__crt_stdio_output@@@2@@__crt_stdio_output@@AAE_NXZ 10036e48 f i libucrt:output.obj
 0001:00035e7d       ?state_case_width@?$output_processor@DV?$string_output_adapter@D@__crt_stdio_output@@V?$format_validation_base@DV?$string_output_adapter@D@__crt_stdio_output@@@2@@__crt_stdio_output@@AAE_NXZ 10036e7d f i libucrt:output.obj
 0001:00035eb2       ?state_case_width@?$output_processor@DV?$string_output_adapter@D@__crt_stdio_output@@V?$positional_parameter_base@DV?$string_output_adapter@D@__crt_stdio_output@@@2@@__crt_stdio_output@@AAE_NXZ 10036eb2 f i libucrt:output.obj
 0001:00035f02       ?state_case_width@?$output_processor@DV?$string_output_adapter@D@__crt_stdio_output@@V?$standard_base@DV?$string_output_adapter@D@__crt_stdio_output@@@2@@__crt_stdio_output@@AAE_NXZ 10036f02 f i libucrt:output.obj
 0001:00035f37       ?state_case_width@?$output_processor@_WV?$stream_output_adapter@_W@__crt_stdio_output@@V?$format_validation_base@_WV?$stream_output_adapter@_W@__crt_stdio_output@@@2@@__crt_stdio_output@@AAE_NXZ 10036f37 f i libucrt:output.obj
 0001:00035f6e       ?state_case_width@?$output_processor@_WV?$stream_output_adapter@_W@__crt_stdio_output@@V?$positional_parameter_base@_WV?$stream_output_adapter@_W@__crt_stdio_output@@@2@@__crt_stdio_output@@AAE_NXZ 10036f6e f i libucrt:output.obj
 0001:00035fbf       ?state_case_width@?$output_processor@_WV?$stream_output_adapter@_W@__crt_stdio_output@@V?$standard_base@_WV?$stream_output_adapter@_W@__crt_stdio_output@@@2@@__crt_stdio_output@@AAE_NXZ 10036fbf f i libucrt:output.obj
 0001:00035ff6       ?state_case_width@?$output_processor@_WV?$string_output_adapter@_W@__crt_stdio_output@@V?$format_validation_base@_WV?$string_output_adapter@_W@__crt_stdio_output@@@2@@__crt_stdio_output@@AAE_NXZ 10036ff6 f i libucrt:output.obj
 0001:0003602d       ?state_case_width@?$output_processor@_WV?$string_output_adapter@_W@__crt_stdio_output@@V?$positional_parameter_base@_WV?$string_output_adapter@_W@__crt_stdio_output@@@2@@__crt_stdio_output@@AAE_NXZ 1003702d f i libucrt:output.obj
 0001:0003607e       ?state_case_width@?$output_processor@_WV?$string_output_adapter@_W@__crt_stdio_output@@V?$standard_base@_WV?$string_output_adapter@_W@__crt_stdio_output@@@2@@__crt_stdio_output@@AAE_NXZ 1003707e f i libucrt:output.obj
 0001:000360b5       ?state_count@?$format_validation_base@DV?$stream_output_adapter@D@__crt_stdio_output@@@__crt_stdio_output@@KAIXZ 100370b5 f i libucrt:output.obj
 0001:000360b9       ?state_count@?$format_validation_base@DV?$string_output_adapter@D@__crt_stdio_output@@@__crt_stdio_output@@KAIXZ 100370b9 f i libucrt:output.obj
 0001:000360bd       ?state_count@?$format_validation_base@_WV?$stream_output_adapter@_W@__crt_stdio_output@@@__crt_stdio_output@@KAIXZ 100370bd f i libucrt:output.obj
 0001:000360c1       ?state_count@?$format_validation_base@_WV?$string_output_adapter@_W@__crt_stdio_output@@@__crt_stdio_output@@KAIXZ 100370c1 f i libucrt:output.obj
 0001:000360c5       ?state_count@?$standard_base@DV?$stream_output_adapter@D@__crt_stdio_output@@@__crt_stdio_output@@KAIXZ 100370c5 f i libucrt:output.obj
 0001:000360c9       ?state_count@?$standard_base@DV?$string_output_adapter@D@__crt_stdio_output@@@__crt_stdio_output@@KAIXZ 100370c9 f i libucrt:output.obj
 0001:000360cd       ?state_count@?$standard_base@_WV?$stream_output_adapter@_W@__crt_stdio_output@@@__crt_stdio_output@@KAIXZ 100370cd f i libucrt:output.obj
 0001:000360d1       ?state_count@?$standard_base@_WV?$string_output_adapter@_W@__crt_stdio_output@@@__crt_stdio_output@@KAIXZ 100370d1 f i libucrt:output.obj
 0001:000360d5       ?state_transition_table@?$format_validation_base@DV?$stream_output_adapter@D@__crt_stdio_output@@@__crt_stdio_output@@KAPBEXZ 100370d5 f i libucrt:output.obj
 0001:000360db       ?state_transition_table@?$format_validation_base@DV?$string_output_adapter@D@__crt_stdio_output@@@__crt_stdio_output@@KAPBEXZ 100370db f i libucrt:output.obj
 0001:000360e1       ?state_transition_table@?$format_validation_base@_WV?$stream_output_adapter@_W@__crt_stdio_output@@@__crt_stdio_output@@KAPBEXZ 100370e1 f i libucrt:output.obj
 0001:000360e7       ?state_transition_table@?$format_validation_base@_WV?$string_output_adapter@_W@__crt_stdio_output@@@__crt_stdio_output@@KAPBEXZ 100370e7 f i libucrt:output.obj
 0001:000360ed       ?state_transition_table@?$standard_base@DV?$stream_output_adapter@D@__crt_stdio_output@@@__crt_stdio_output@@KAPBEXZ 100370ed f i libucrt:output.obj
 0001:000360f3       ?state_transition_table@?$standard_base@DV?$string_output_adapter@D@__crt_stdio_output@@@__crt_stdio_output@@KAPBEXZ 100370f3 f i libucrt:output.obj
 0001:000360f9       ?state_transition_table@?$standard_base@_WV?$stream_output_adapter@_W@__crt_stdio_output@@@__crt_stdio_output@@KAPBEXZ 100370f9 f i libucrt:output.obj
 0001:000360ff       ?state_transition_table@?$standard_base@_WV?$string_output_adapter@_W@__crt_stdio_output@@@__crt_stdio_output@@KAPBEXZ 100370ff f i libucrt:output.obj
 0001:00036105       ?tchar_string@?$common_data@D@__crt_stdio_output@@IAEAAPADD@Z 10037105 f i libucrt:output.obj
 0001:0003610b       ?tchar_string@?$common_data@D@__crt_stdio_output@@IAEAAPADXZ 1003710b f i libucrt:output.obj
 0001:0003610f       ?tchar_string@?$common_data@_W@__crt_stdio_output@@IAEAAPA_WXZ 1003710f f i libucrt:output.obj
 0001:00036113       ?tchar_string@?$common_data@_W@__crt_stdio_output@@IAEAAPA_W_W@Z 10037113 f i libucrt:output.obj
 0001:00036119       ?to_integer_size@__crt_stdio_output@@YAIW4length_modifier@1@@Z 10037119 f i libucrt:output.obj
 0001:0003618c       ?type_case_X@?$output_processor@DV?$stream_output_adapter@D@__crt_stdio_output@@V?$format_validation_base@DV?$stream_output_adapter@D@__crt_stdio_output@@@2@@__crt_stdio_output@@AAE_NXZ 1003718c f i libucrt:output.obj
 0001:00036198       ?type_case_X@?$output_processor@DV?$stream_output_adapter@D@__crt_stdio_output@@V?$positional_parameter_base@DV?$stream_output_adapter@D@__crt_stdio_output@@@2@@__crt_stdio_output@@AAE_NXZ 10037198 f i libucrt:output.obj
 0001:000361a4       ?type_case_X@?$output_processor@DV?$stream_output_adapter@D@__crt_stdio_output@@V?$standard_base@DV?$stream_output_adapter@D@__crt_stdio_output@@@2@@__crt_stdio_output@@AAE_NXZ 100371a4 f i libucrt:output.obj
 0001:000361b0       ?type_case_X@?$output_processor@DV?$string_output_adapter@D@__crt_stdio_output@@V?$format_validation_base@DV?$string_output_adapter@D@__crt_stdio_output@@@2@@__crt_stdio_output@@AAE_NXZ 100371b0 f i libucrt:output.obj
 0001:000361bc       ?type_case_X@?$output_processor@DV?$string_output_adapter@D@__crt_stdio_output@@V?$positional_parameter_base@DV?$string_output_adapter@D@__crt_stdio_output@@@2@@__crt_stdio_output@@AAE_NXZ 100371bc f i libucrt:output.obj
 0001:000361c8       ?type_case_X@?$output_processor@DV?$string_output_adapter@D@__crt_stdio_output@@V?$standard_base@DV?$string_output_adapter@D@__crt_stdio_output@@@2@@__crt_stdio_output@@AAE_NXZ 100371c8 f i libucrt:output.obj
 0001:000361d4       ?type_case_X@?$output_processor@_WV?$stream_output_adapter@_W@__crt_stdio_output@@V?$format_validation_base@_WV?$stream_output_adapter@_W@__crt_stdio_output@@@2@@__crt_stdio_output@@AAE_NXZ 100371d4 f i libucrt:output.obj
 0001:000361e0       ?type_case_X@?$output_processor@_WV?$stream_output_adapter@_W@__crt_stdio_output@@V?$positional_parameter_base@_WV?$stream_output_adapter@_W@__crt_stdio_output@@@2@@__crt_stdio_output@@AAE_NXZ 100371e0 f i libucrt:output.obj
 0001:000361ec       ?type_case_X@?$output_processor@_WV?$stream_output_adapter@_W@__crt_stdio_output@@V?$standard_base@_WV?$stream_output_adapter@_W@__crt_stdio_output@@@2@@__crt_stdio_output@@AAE_NXZ 100371ec f i libucrt:output.obj
 0001:000361f8       ?type_case_X@?$output_processor@_WV?$string_output_adapter@_W@__crt_stdio_output@@V?$format_validation_base@_WV?$string_output_adapter@_W@__crt_stdio_output@@@2@@__crt_stdio_output@@AAE_NXZ 100371f8 f i libucrt:output.obj
 0001:00036204       ?type_case_X@?$output_processor@_WV?$string_output_adapter@_W@__crt_stdio_output@@V?$positional_parameter_base@_WV?$string_output_adapter@_W@__crt_stdio_output@@@2@@__crt_stdio_output@@AAE_NXZ 10037204 f i libucrt:output.obj
 0001:00036210       ?type_case_X@?$output_processor@_WV?$string_output_adapter@_W@__crt_stdio_output@@V?$standard_base@_WV?$string_output_adapter@_W@__crt_stdio_output@@@2@@__crt_stdio_output@@AAE_NXZ 10037210 f i libucrt:output.obj
 0001:0003621c       ?type_case_Z@?$output_processor@DV?$stream_output_adapter@D@__crt_stdio_output@@V?$format_validation_base@DV?$stream_output_adapter@D@__crt_stdio_output@@@2@@__crt_stdio_output@@AAE_NXZ 1003721c f i libucrt:output.obj
 0001:00036295       ?type_case_Z@?$output_processor@DV?$stream_output_adapter@D@__crt_stdio_output@@V?$positional_parameter_base@DV?$stream_output_adapter@D@__crt_stdio_output@@@2@@__crt_stdio_output@@AAE_NXZ 10037295 f i libucrt:output.obj
 0001:000363ab       ?type_case_Z@?$output_processor@DV?$stream_output_adapter@D@__crt_stdio_output@@V?$standard_base@DV?$stream_output_adapter@D@__crt_stdio_output@@@2@@__crt_stdio_output@@AAE_NXZ 100373ab f i libucrt:output.obj
 0001:00036424       ?type_case_Z@?$output_processor@DV?$string_output_adapter@D@__crt_stdio_output@@V?$format_validation_base@DV?$string_output_adapter@D@__crt_stdio_output@@@2@@__crt_stdio_output@@AAE_NXZ 10037424 f i libucrt:output.obj
 0001:0003649d       ?type_case_Z@?$output_processor@DV?$string_output_adapter@D@__crt_stdio_output@@V?$positional_parameter_base@DV?$string_output_adapter@D@__crt_stdio_output@@@2@@__crt_stdio_output@@AAE_NXZ 1003749d f i libucrt:output.obj
 0001:000365b3       ?type_case_Z@?$output_processor@DV?$string_output_adapter@D@__crt_stdio_output@@V?$standard_base@DV?$string_output_adapter@D@__crt_stdio_output@@@2@@__crt_stdio_output@@AAE_NXZ 100375b3 f i libucrt:output.obj
 0001:0003662c       ?type_case_Z@?$output_processor@_WV?$stream_output_adapter@_W@__crt_stdio_output@@V?$format_validation_base@_WV?$stream_output_adapter@_W@__crt_stdio_output@@@2@@__crt_stdio_output@@AAE_NXZ 1003762c f i libucrt:output.obj
 0001:000366a5       ?type_case_Z@?$output_processor@_WV?$stream_output_adapter@_W@__crt_stdio_output@@V?$positional_parameter_base@_WV?$stream_output_adapter@_W@__crt_stdio_output@@@2@@__crt_stdio_output@@AAE_NXZ 100376a5 f i libucrt:output.obj
 0001:000367bb       ?type_case_Z@?$output_processor@_WV?$stream_output_adapter@_W@__crt_stdio_output@@V?$standard_base@_WV?$stream_output_adapter@_W@__crt_stdio_output@@@2@@__crt_stdio_output@@AAE_NXZ 100377bb f i libucrt:output.obj
 0001:00036834       ?type_case_Z@?$output_processor@_WV?$string_output_adapter@_W@__crt_stdio_output@@V?$format_validation_base@_WV?$string_output_adapter@_W@__crt_stdio_output@@@2@@__crt_stdio_output@@AAE_NXZ 10037834 f i libucrt:output.obj
 0001:000368ad       ?type_case_Z@?$output_processor@_WV?$string_output_adapter@_W@__crt_stdio_output@@V?$positional_parameter_base@_WV?$string_output_adapter@_W@__crt_stdio_output@@@2@@__crt_stdio_output@@AAE_NXZ 100378ad f i libucrt:output.obj
 0001:000369c3       ?type_case_Z@?$output_processor@_WV?$string_output_adapter@_W@__crt_stdio_output@@V?$standard_base@_WV?$string_output_adapter@_W@__crt_stdio_output@@@2@@__crt_stdio_output@@AAE_NXZ 100379c3 f i libucrt:output.obj
 0001:00036a3c       ?type_case_a@?$output_processor@DV?$stream_output_adapter@D@__crt_stdio_output@@V?$format_validation_base@DV?$stream_output_adapter@D@__crt_stdio_output@@@2@@__crt_stdio_output@@AAE_NXZ 10037a3c f i libucrt:output.obj
 0001:00036beb       ?type_case_a@?$output_processor@DV?$stream_output_adapter@D@__crt_stdio_output@@V?$positional_parameter_base@DV?$stream_output_adapter@D@__crt_stdio_output@@@2@@__crt_stdio_output@@AAE_NXZ 10037beb f i libucrt:output.obj
 0001:00036dc1       ?type_case_a@?$output_processor@DV?$stream_output_adapter@D@__crt_stdio_output@@V?$standard_base@DV?$stream_output_adapter@D@__crt_stdio_output@@@2@@__crt_stdio_output@@AAE_NXZ 10037dc1 f i libucrt:output.obj
 0001:00036f70       ?type_case_a@?$output_processor@DV?$string_output_adapter@D@__crt_stdio_output@@V?$format_validation_base@DV?$string_output_adapter@D@__crt_stdio_output@@@2@@__crt_stdio_output@@AAE_NXZ 10037f70 f i libucrt:output.obj
 0001:0003711f       ?type_case_a@?$output_processor@DV?$string_output_adapter@D@__crt_stdio_output@@V?$positional_parameter_base@DV?$string_output_adapter@D@__crt_stdio_output@@@2@@__crt_stdio_output@@AAE_NXZ 1003811f f i libucrt:output.obj
 0001:000372f5       ?type_case_a@?$output_processor@DV?$string_output_adapter@D@__crt_stdio_output@@V?$standard_base@DV?$string_output_adapter@D@__crt_stdio_output@@@2@@__crt_stdio_output@@AAE_NXZ 100382f5 f i libucrt:output.obj
 0001:000374a4       ?type_case_a@?$output_processor@_WV?$stream_output_adapter@_W@__crt_stdio_output@@V?$format_validation_base@_WV?$stream_output_adapter@_W@__crt_stdio_output@@@2@@__crt_stdio_output@@AAE_NXZ 100384a4 f i libucrt:output.obj
 0001:0003766e       ?type_case_a@?$output_processor@_WV?$stream_output_adapter@_W@__crt_stdio_output@@V?$positional_parameter_base@_WV?$stream_output_adapter@_W@__crt_stdio_output@@@2@@__crt_stdio_output@@AAE_NXZ 1003866e f i libucrt:output.obj
 0001:0003785f       ?type_case_a@?$output_processor@_WV?$stream_output_adapter@_W@__crt_stdio_output@@V?$standard_base@_WV?$stream_output_adapter@_W@__crt_stdio_output@@@2@@__crt_stdio_output@@AAE_NXZ 1003885f f i libucrt:output.obj
 0001:00037a29       ?type_case_a@?$output_processor@_WV?$string_output_adapter@_W@__crt_stdio_output@@V?$format_validation_base@_WV?$string_output_adapter@_W@__crt_stdio_output@@@2@@__crt_stdio_output@@AAE_NXZ 10038a29 f i libucrt:output.obj
 0001:00037bf3       ?type_case_a@?$output_processor@_WV?$string_output_adapter@_W@__crt_stdio_output@@V?$positional_parameter_base@_WV?$string_output_adapter@_W@__crt_stdio_output@@@2@@__crt_stdio_output@@AAE_NXZ 10038bf3 f i libucrt:output.obj
 0001:00037de4       ?type_case_a@?$output_processor@_WV?$string_output_adapter@_W@__crt_stdio_output@@V?$standard_base@_WV?$string_output_adapter@_W@__crt_stdio_output@@@2@@__crt_stdio_output@@AAE_NXZ 10038de4 f i libucrt:output.obj
 0001:00037fae       ?type_case_c@?$output_processor@DV?$stream_output_adapter@D@__crt_stdio_output@@V?$format_validation_base@DV?$stream_output_adapter@D@__crt_stdio_output@@@2@@__crt_stdio_output@@AAE_NXZ 10038fae f i libucrt:output.obj
 0001:00037fb8       ?type_case_c@?$output_processor@DV?$stream_output_adapter@D@__crt_stdio_output@@V?$positional_parameter_base@DV?$stream_output_adapter@D@__crt_stdio_output@@@2@@__crt_stdio_output@@AAE_NXZ 10038fb8 f i libucrt:output.obj
 0001:00037fc2       ?type_case_c@?$output_processor@DV?$stream_output_adapter@D@__crt_stdio_output@@V?$standard_base@DV?$stream_output_adapter@D@__crt_stdio_output@@@2@@__crt_stdio_output@@AAE_NXZ 10038fc2 f i libucrt:output.obj
 0001:00037fcc       ?type_case_c@?$output_processor@DV?$string_output_adapter@D@__crt_stdio_output@@V?$format_validation_base@DV?$string_output_adapter@D@__crt_stdio_output@@@2@@__crt_stdio_output@@AAE_NXZ 10038fcc f i libucrt:output.obj
 0001:00037fd6       ?type_case_c@?$output_processor@DV?$string_output_adapter@D@__crt_stdio_output@@V?$positional_parameter_base@DV?$string_output_adapter@D@__crt_stdio_output@@@2@@__crt_stdio_output@@AAE_NXZ 10038fd6 f i libucrt:output.obj
 0001:00037fe0       ?type_case_c@?$output_processor@DV?$string_output_adapter@D@__crt_stdio_output@@V?$standard_base@DV?$string_output_adapter@D@__crt_stdio_output@@@2@@__crt_stdio_output@@AAE_NXZ 10038fe0 f i libucrt:output.obj
 0001:00037fea       ?type_case_c@?$output_processor@_WV?$stream_output_adapter@_W@__crt_stdio_output@@V?$format_validation_base@_WV?$stream_output_adapter@_W@__crt_stdio_output@@@2@@__crt_stdio_output@@AAE_NXZ 10038fea f i libucrt:output.obj
 0001:00037ff4       ?type_case_c@?$output_processor@_WV?$stream_output_adapter@_W@__crt_stdio_output@@V?$positional_parameter_base@_WV?$stream_output_adapter@_W@__crt_stdio_output@@@2@@__crt_stdio_output@@AAE_NXZ 10038ff4 f i libucrt:output.obj
 0001:00037ffe       ?type_case_c@?$output_processor@_WV?$stream_output_adapter@_W@__crt_stdio_output@@V?$standard_base@_WV?$stream_output_adapter@_W@__crt_stdio_output@@@2@@__crt_stdio_output@@AAE_NXZ 10038ffe f i libucrt:output.obj
 0001:00038008       ?type_case_c@?$output_processor@_WV?$string_output_adapter@_W@__crt_stdio_output@@V?$format_validation_base@_WV?$string_output_adapter@_W@__crt_stdio_output@@@2@@__crt_stdio_output@@AAE_NXZ 10039008 f i libucrt:output.obj
 0001:00038012       ?type_case_c@?$output_processor@_WV?$string_output_adapter@_W@__crt_stdio_output@@V?$positional_parameter_base@_WV?$string_output_adapter@_W@__crt_stdio_output@@@2@@__crt_stdio_output@@AAE_NXZ 10039012 f i libucrt:output.obj
 0001:0003801c       ?type_case_c@?$output_processor@_WV?$string_output_adapter@_W@__crt_stdio_output@@V?$standard_base@_WV?$string_output_adapter@_W@__crt_stdio_output@@@2@@__crt_stdio_output@@AAE_NXZ 1003901c f i libucrt:output.obj
 0001:00038026       ?type_case_c_tchar@?$output_processor@DV?$stream_output_adapter@D@__crt_stdio_output@@V?$format_validation_base@DV?$stream_output_adapter@D@__crt_stdio_output@@@2@@__crt_stdio_output@@AAE_ND@Z 10039026 f i libucrt:output.obj
 0001:000380da       ?type_case_c_tchar@?$output_processor@DV?$stream_output_adapter@D@__crt_stdio_output@@V?$positional_parameter_base@DV?$stream_output_adapter@D@__crt_stdio_output@@@2@@__crt_stdio_output@@AAE_ND@Z 100390da f i libucrt:output.obj
 0001:000381ca       ?type_case_c_tchar@?$output_processor@DV?$stream_output_adapter@D@__crt_stdio_output@@V?$standard_base@DV?$stream_output_adapter@D@__crt_stdio_output@@@2@@__crt_stdio_output@@AAE_ND@Z 100391ca f i libucrt:output.obj
 0001:0003827e       ?type_case_c_tchar@?$output_processor@DV?$string_output_adapter@D@__crt_stdio_output@@V?$format_validation_base@DV?$string_output_adapter@D@__crt_stdio_output@@@2@@__crt_stdio_output@@AAE_ND@Z 1003927e f i libucrt:output.obj
 0001:00038332       ?type_case_c_tchar@?$output_processor@DV?$string_output_adapter@D@__crt_stdio_output@@V?$positional_parameter_base@DV?$string_output_adapter@D@__crt_stdio_output@@@2@@__crt_stdio_output@@AAE_ND@Z 10039332 f i libucrt:output.obj
 0001:00038422       ?type_case_c_tchar@?$output_processor@DV?$string_output_adapter@D@__crt_stdio_output@@V?$standard_base@DV?$string_output_adapter@D@__crt_stdio_output@@@2@@__crt_stdio_output@@AAE_ND@Z 10039422 f i libucrt:output.obj
 0001:000384d6       ?type_case_c_tchar@?$output_processor@_WV?$stream_output_adapter@_W@__crt_stdio_output@@V?$format_validation_base@_WV?$stream_output_adapter@_W@__crt_stdio_output@@@2@@__crt_stdio_output@@AAE_N_W@Z 100394d6 f i libucrt:output.obj
 0001:00038594       ?type_case_c_tchar@?$output_processor@_WV?$stream_output_adapter@_W@__crt_stdio_output@@V?$positional_parameter_base@_WV?$stream_output_adapter@_W@__crt_stdio_output@@@2@@__crt_stdio_output@@AAE_N_W@Z 10039594 f i libucrt:output.obj
 0001:0003866e       ?type_case_c_tchar@?$output_processor@_WV?$stream_output_adapter@_W@__crt_stdio_output@@V?$standard_base@_WV?$stream_output_adapter@_W@__crt_stdio_output@@@2@@__crt_stdio_output@@AAE_N_W@Z 1003966e f i libucrt:output.obj
 0001:0003872c       ?type_case_c_tchar@?$output_processor@_WV?$string_output_adapter@_W@__crt_stdio_output@@V?$format_validation_base@_WV?$string_output_adapter@_W@__crt_stdio_output@@@2@@__crt_stdio_output@@AAE_N_W@Z 1003972c f i libucrt:output.obj
 0001:000387ea       ?type_case_c_tchar@?$output_processor@_WV?$string_output_adapter@_W@__crt_stdio_output@@V?$positional_parameter_base@_WV?$string_output_adapter@_W@__crt_stdio_output@@@2@@__crt_stdio_output@@AAE_N_W@Z 100397ea f i libucrt:output.obj
 0001:000388c4       ?type_case_c_tchar@?$output_processor@_WV?$string_output_adapter@_W@__crt_stdio_output@@V?$standard_base@_WV?$string_output_adapter@_W@__crt_stdio_output@@@2@@__crt_stdio_output@@AAE_N_W@Z 100398c4 f i libucrt:output.obj
 0001:00038982       ?type_case_d@?$output_processor@DV?$stream_output_adapter@D@__crt_stdio_output@@V?$format_validation_base@DV?$stream_output_adapter@D@__crt_stdio_output@@@2@@__crt_stdio_output@@AAE_NXZ 10039982 f i libucrt:output.obj
 0001:00038993       ?type_case_d@?$output_processor@DV?$stream_output_adapter@D@__crt_stdio_output@@V?$positional_parameter_base@DV?$stream_output_adapter@D@__crt_stdio_output@@@2@@__crt_stdio_output@@AAE_NXZ 10039993 f i libucrt:output.obj
 0001:000389a4       ?type_case_d@?$output_processor@DV?$stream_output_adapter@D@__crt_stdio_output@@V?$standard_base@DV?$stream_output_adapter@D@__crt_stdio_output@@@2@@__crt_stdio_output@@AAE_NXZ 100399a4 f i libucrt:output.obj
 0001:000389b5       ?type_case_d@?$output_processor@DV?$string_output_adapter@D@__crt_stdio_output@@V?$format_validation_base@DV?$string_output_adapter@D@__crt_stdio_output@@@2@@__crt_stdio_output@@AAE_NXZ 100399b5 f i libucrt:output.obj
 0001:000389c6       ?type_case_d@?$output_processor@DV?$string_output_adapter@D@__crt_stdio_output@@V?$positional_parameter_base@DV?$string_output_adapter@D@__crt_stdio_output@@@2@@__crt_stdio_output@@AAE_NXZ 100399c6 f i libucrt:output.obj
 0001:000389d7       ?type_case_d@?$output_processor@DV?$string_output_adapter@D@__crt_stdio_output@@V?$standard_base@DV?$string_output_adapter@D@__crt_stdio_output@@@2@@__crt_stdio_output@@AAE_NXZ 100399d7 f i libucrt:output.obj
 0001:000389e8       ?type_case_d@?$output_processor@_WV?$stream_output_adapter@_W@__crt_stdio_output@@V?$format_validation_base@_WV?$stream_output_adapter@_W@__crt_stdio_output@@@2@@__crt_stdio_output@@AAE_NXZ 100399e8 f i libucrt:output.obj
 0001:000389f9       ?type_case_d@?$output_processor@_WV?$stream_output_adapter@_W@__crt_stdio_output@@V?$positional_parameter_base@_WV?$stream_output_adapter@_W@__crt_stdio_output@@@2@@__crt_stdio_output@@AAE_NXZ 100399f9 f i libucrt:output.obj
 0001:00038a0a       ?type_case_d@?$output_processor@_WV?$stream_output_adapter@_W@__crt_stdio_output@@V?$standard_base@_WV?$stream_output_adapter@_W@__crt_stdio_output@@@2@@__crt_stdio_output@@AAE_NXZ 10039a0a f i libucrt:output.obj
 0001:00038a1b       ?type_case_d@?$output_processor@_WV?$string_output_adapter@_W@__crt_stdio_output@@V?$format_validation_base@_WV?$string_output_adapter@_W@__crt_stdio_output@@@2@@__crt_stdio_output@@AAE_NXZ 10039a1b f i libucrt:output.obj
 0001:00038a2c       ?type_case_d@?$output_processor@_WV?$string_output_adapter@_W@__crt_stdio_output@@V?$positional_parameter_base@_WV?$string_output_adapter@_W@__crt_stdio_output@@@2@@__crt_stdio_output@@AAE_NXZ 10039a2c f i libucrt:output.obj
 0001:00038a3d       ?type_case_d@?$output_processor@_WV?$string_output_adapter@_W@__crt_stdio_output@@V?$standard_base@_WV?$string_output_adapter@_W@__crt_stdio_output@@@2@@__crt_stdio_output@@AAE_NXZ 10039a3d f i libucrt:output.obj
 0001:00038a4e       ?type_case_integer@?$output_processor@DV?$stream_output_adapter@D@__crt_stdio_output@@V?$format_validation_base@DV?$stream_output_adapter@D@__crt_stdio_output@@@2@@__crt_stdio_output@@AAE_NI_N@Z 10039a4e f i libucrt:output.obj
 0001:00038bf5       ?type_case_integer@?$output_processor@DV?$stream_output_adapter@D@__crt_stdio_output@@V?$positional_parameter_base@DV?$stream_output_adapter@D@__crt_stdio_output@@@2@@__crt_stdio_output@@AAE_NI_N@Z 10039bf5 f i libucrt:output.obj
 0001:00038dd8       ?type_case_integer@?$output_processor@DV?$stream_output_adapter@D@__crt_stdio_output@@V?$standard_base@DV?$stream_output_adapter@D@__crt_stdio_output@@@2@@__crt_stdio_output@@AAE_NI_N@Z 10039dd8 f i libucrt:output.obj
 0001:00038f7f       ?type_case_integer@?$output_processor@DV?$string_output_adapter@D@__crt_stdio_output@@V?$format_validation_base@DV?$string_output_adapter@D@__crt_stdio_output@@@2@@__crt_stdio_output@@AAE_NI_N@Z 10039f7f f i libucrt:output.obj
 0001:00039126       ?type_case_integer@?$output_processor@DV?$string_output_adapter@D@__crt_stdio_output@@V?$positional_parameter_base@DV?$string_output_adapter@D@__crt_stdio_output@@@2@@__crt_stdio_output@@AAE_NI_N@Z 1003a126 f i libucrt:output.obj
 0001:00039309       ?type_case_integer@?$output_processor@DV?$string_output_adapter@D@__crt_stdio_output@@V?$standard_base@DV?$string_output_adapter@D@__crt_stdio_output@@@2@@__crt_stdio_output@@AAE_NI_N@Z 1003a309 f i libucrt:output.obj
 0001:000394b0       ?type_case_integer@?$output_processor@_WV?$stream_output_adapter@_W@__crt_stdio_output@@V?$format_validation_base@_WV?$stream_output_adapter@_W@__crt_stdio_output@@@2@@__crt_stdio_output@@AAE_NI_N@Z 1003a4b0 f i libucrt:output.obj
 0001:0003965c       ?type_case_integer@?$output_processor@_WV?$stream_output_adapter@_W@__crt_stdio_output@@V?$positional_parameter_base@_WV?$stream_output_adapter@_W@__crt_stdio_output@@@2@@__crt_stdio_output@@AAE_NI_N@Z 1003a65c f i libucrt:output.obj
 0001:00039844       ?type_case_integer@?$output_processor@_WV?$stream_output_adapter@_W@__crt_stdio_output@@V?$standard_base@_WV?$stream_output_adapter@_W@__crt_stdio_output@@@2@@__crt_stdio_output@@AAE_NI_N@Z 1003a844 f i libucrt:output.obj
 0001:000399f0       ?type_case_integer@?$output_processor@_WV?$string_output_adapter@_W@__crt_stdio_output@@V?$format_validation_base@_WV?$string_output_adapter@_W@__crt_stdio_output@@@2@@__crt_stdio_output@@AAE_NI_N@Z 1003a9f0 f i libucrt:output.obj
 0001:00039b9c       ?type_case_integer@?$output_processor@_WV?$string_output_adapter@_W@__crt_stdio_output@@V?$positional_parameter_base@_WV?$string_output_adapter@_W@__crt_stdio_output@@@2@@__crt_stdio_output@@AAE_NI_N@Z 1003ab9c f i libucrt:output.obj
 0001:00039d84       ?type_case_integer@?$output_processor@_WV?$string_output_adapter@_W@__crt_stdio_output@@V?$standard_base@_WV?$string_output_adapter@_W@__crt_stdio_output@@@2@@__crt_stdio_output@@AAE_NI_N@Z 1003ad84 f i libucrt:output.obj
 0001:00039f30       ?type_case_n@?$output_processor@DV?$stream_output_adapter@D@__crt_stdio_output@@V?$format_validation_base@DV?$stream_output_adapter@D@__crt_stdio_output@@@2@@__crt_stdio_output@@AAE_NXZ 1003af30 f i libucrt:output.obj
 0001:00039fc1       ?type_case_n@?$output_processor@DV?$stream_output_adapter@D@__crt_stdio_output@@V?$positional_parameter_base@DV?$stream_output_adapter@D@__crt_stdio_output@@@2@@__crt_stdio_output@@AAE_NXZ 1003afc1 f i libucrt:output.obj
 0001:0003a080       ?type_case_n@?$output_processor@DV?$stream_output_adapter@D@__crt_stdio_output@@V?$standard_base@DV?$stream_output_adapter@D@__crt_stdio_output@@@2@@__crt_stdio_output@@AAE_NXZ 1003b080 f i libucrt:output.obj
 0001:0003a111       ?type_case_n@?$output_processor@DV?$string_output_adapter@D@__crt_stdio_output@@V?$format_validation_base@DV?$string_output_adapter@D@__crt_stdio_output@@@2@@__crt_stdio_output@@AAE_NXZ 1003b111 f i libucrt:output.obj
 0001:0003a1a2       ?type_case_n@?$output_processor@DV?$string_output_adapter@D@__crt_stdio_output@@V?$positional_parameter_base@DV?$string_output_adapter@D@__crt_stdio_output@@@2@@__crt_stdio_output@@AAE_NXZ 1003b1a2 f i libucrt:output.obj
 0001:0003a261       ?type_case_n@?$output_processor@DV?$string_output_adapter@D@__crt_stdio_output@@V?$standard_base@DV?$string_output_adapter@D@__crt_stdio_output@@@2@@__crt_stdio_output@@AAE_NXZ 1003b261 f i libucrt:output.obj
 0001:0003a2f2       ?type_case_n@?$output_processor@_WV?$stream_output_adapter@_W@__crt_stdio_output@@V?$format_validation_base@_WV?$stream_output_adapter@_W@__crt_stdio_output@@@2@@__crt_stdio_output@@AAE_NXZ 1003b2f2 f i libucrt:output.obj
 0001:0003a383       ?type_case_n@?$output_processor@_WV?$stream_output_adapter@_W@__crt_stdio_output@@V?$positional_parameter_base@_WV?$stream_output_adapter@_W@__crt_stdio_output@@@2@@__crt_stdio_output@@AAE_NXZ 1003b383 f i libucrt:output.obj
 0001:0003a442       ?type_case_n@?$output_processor@_WV?$stream_output_adapter@_W@__crt_stdio_output@@V?$standard_base@_WV?$stream_output_adapter@_W@__crt_stdio_output@@@2@@__crt_stdio_output@@AAE_NXZ 1003b442 f i libucrt:output.obj
 0001:0003a4d3       ?type_case_n@?$output_processor@_WV?$string_output_adapter@_W@__crt_stdio_output@@V?$format_validation_base@_WV?$string_output_adapter@_W@__crt_stdio_output@@@2@@__crt_stdio_output@@AAE_NXZ 1003b4d3 f i libucrt:output.obj
 0001:0003a564       ?type_case_n@?$output_processor@_WV?$string_output_adapter@_W@__crt_stdio_output@@V?$positional_parameter_base@_WV?$string_output_adapter@_W@__crt_stdio_output@@@2@@__crt_stdio_output@@AAE_NXZ 1003b564 f i libucrt:output.obj
 0001:0003a623       ?type_case_n@?$output_processor@_WV?$string_output_adapter@_W@__crt_stdio_output@@V?$standard_base@_WV?$string_output_adapter@_W@__crt_stdio_output@@@2@@__crt_stdio_output@@AAE_NXZ 1003b623 f i libucrt:output.obj
 0001:0003a6b4       ?type_case_o@?$output_processor@DV?$stream_output_adapter@D@__crt_stdio_output@@V?$format_validation_base@DV?$stream_output_adapter@D@__crt_stdio_output@@@2@@__crt_stdio_output@@AAE_NXZ 1003b6b4 f i libucrt:output.obj
 0001:0003a6da       ?type_case_o@?$output_processor@DV?$stream_output_adapter@D@__crt_stdio_output@@V?$positional_parameter_base@DV?$stream_output_adapter@D@__crt_stdio_output@@@2@@__crt_stdio_output@@AAE_NXZ 1003b6da f i libucrt:output.obj
 0001:0003a700       ?type_case_o@?$output_processor@DV?$stream_output_adapter@D@__crt_stdio_output@@V?$standard_base@DV?$stream_output_adapter@D@__crt_stdio_output@@@2@@__crt_stdio_output@@AAE_NXZ 1003b700 f i libucrt:output.obj
 0001:0003a726       ?type_case_o@?$output_processor@DV?$string_output_adapter@D@__crt_stdio_output@@V?$format_validation_base@DV?$string_output_adapter@D@__crt_stdio_output@@@2@@__crt_stdio_output@@AAE_NXZ 1003b726 f i libucrt:output.obj
 0001:0003a74c       ?type_case_o@?$output_processor@DV?$string_output_adapter@D@__crt_stdio_output@@V?$positional_parameter_base@DV?$string_output_adapter@D@__crt_stdio_output@@@2@@__crt_stdio_output@@AAE_NXZ 1003b74c f i libucrt:output.obj
 0001:0003a772       ?type_case_o@?$output_processor@DV?$string_output_adapter@D@__crt_stdio_output@@V?$standard_base@DV?$string_output_adapter@D@__crt_stdio_output@@@2@@__crt_stdio_output@@AAE_NXZ 1003b772 f i libucrt:output.obj
 0001:0003a798       ?type_case_o@?$output_processor@_WV?$stream_output_adapter@_W@__crt_stdio_output@@V?$format_validation_base@_WV?$stream_output_adapter@_W@__crt_stdio_output@@@2@@__crt_stdio_output@@AAE_NXZ 1003b798 f i libucrt:output.obj
 0001:0003a7be       ?type_case_o@?$output_processor@_WV?$stream_output_adapter@_W@__crt_stdio_output@@V?$positional_parameter_base@_WV?$stream_output_adapter@_W@__crt_stdio_output@@@2@@__crt_stdio_output@@AAE_NXZ 1003b7be f i libucrt:output.obj
 0001:0003a7e4       ?type_case_o@?$output_processor@_WV?$stream_output_adapter@_W@__crt_stdio_output@@V?$standard_base@_WV?$stream_output_adapter@_W@__crt_stdio_output@@@2@@__crt_stdio_output@@AAE_NXZ 1003b7e4 f i libucrt:output.obj
 0001:0003a80a       ?type_case_o@?$output_processor@_WV?$string_output_adapter@_W@__crt_stdio_output@@V?$format_validation_base@_WV?$string_output_adapter@_W@__crt_stdio_output@@@2@@__crt_stdio_output@@AAE_NXZ 1003b80a f i libucrt:output.obj
 0001:0003a830       ?type_case_o@?$output_processor@_WV?$string_output_adapter@_W@__crt_stdio_output@@V?$positional_parameter_base@_WV?$string_output_adapter@_W@__crt_stdio_output@@@2@@__crt_stdio_output@@AAE_NXZ 1003b830 f i libucrt:output.obj
 0001:0003a856       ?type_case_o@?$output_processor@_WV?$string_output_adapter@_W@__crt_stdio_output@@V?$standard_base@_WV?$string_output_adapter@_W@__crt_stdio_output@@@2@@__crt_stdio_output@@AAE_NXZ 1003b856 f i libucrt:output.obj
 0001:0003a87c       ?type_case_p@?$output_processor@DV?$stream_output_adapter@D@__crt_stdio_output@@V?$format_validation_base@DV?$stream_output_adapter@D@__crt_stdio_output@@@2@@__crt_stdio_output@@AAE_NXZ 1003b87c f i libucrt:output.obj
 0001:0003a89a       ?type_case_p@?$output_processor@DV?$stream_output_adapter@D@__crt_stdio_output@@V?$positional_parameter_base@DV?$stream_output_adapter@D@__crt_stdio_output@@@2@@__crt_stdio_output@@AAE_NXZ 1003b89a f i libucrt:output.obj
 0001:0003a8b8       ?type_case_p@?$output_processor@DV?$stream_output_adapter@D@__crt_stdio_output@@V?$standard_base@DV?$stream_output_adapter@D@__crt_stdio_output@@@2@@__crt_stdio_output@@AAE_NXZ 1003b8b8 f i libucrt:output.obj
 0001:0003a8d6       ?type_case_p@?$output_processor@DV?$string_output_adapter@D@__crt_stdio_output@@V?$format_validation_base@DV?$string_output_adapter@D@__crt_stdio_output@@@2@@__crt_stdio_output@@AAE_NXZ 1003b8d6 f i libucrt:output.obj
 0001:0003a8f4       ?type_case_p@?$output_processor@DV?$string_output_adapter@D@__crt_stdio_output@@V?$positional_parameter_base@DV?$string_output_adapter@D@__crt_stdio_output@@@2@@__crt_stdio_output@@AAE_NXZ 1003b8f4 f i libucrt:output.obj
 0001:0003a912       ?type_case_p@?$output_processor@DV?$string_output_adapter@D@__crt_stdio_output@@V?$standard_base@DV?$string_output_adapter@D@__crt_stdio_output@@@2@@__crt_stdio_output@@AAE_NXZ 1003b912 f i libucrt:output.obj
 0001:0003a930       ?type_case_p@?$output_processor@_WV?$stream_output_adapter@_W@__crt_stdio_output@@V?$format_validation_base@_WV?$stream_output_adapter@_W@__crt_stdio_output@@@2@@__crt_stdio_output@@AAE_NXZ 1003b930 f i libucrt:output.obj
 0001:0003a94e       ?type_case_p@?$output_processor@_WV?$stream_output_adapter@_W@__crt_stdio_output@@V?$positional_parameter_base@_WV?$stream_output_adapter@_W@__crt_stdio_output@@@2@@__crt_stdio_output@@AAE_NXZ 1003b94e f i libucrt:output.obj
 0001:0003a96c       ?type_case_p@?$output_processor@_WV?$stream_output_adapter@_W@__crt_stdio_output@@V?$standard_base@_WV?$stream_output_adapter@_W@__crt_stdio_output@@@2@@__crt_stdio_output@@AAE_NXZ 1003b96c f i libucrt:output.obj
 0001:0003a98a       ?type_case_p@?$output_processor@_WV?$string_output_adapter@_W@__crt_stdio_output@@V?$format_validation_base@_WV?$string_output_adapter@_W@__crt_stdio_output@@@2@@__crt_stdio_output@@AAE_NXZ 1003b98a f i libucrt:output.obj
 0001:0003a9a8       ?type_case_p@?$output_processor@_WV?$string_output_adapter@_W@__crt_stdio_output@@V?$positional_parameter_base@_WV?$string_output_adapter@_W@__crt_stdio_output@@@2@@__crt_stdio_output@@AAE_NXZ 1003b9a8 f i libucrt:output.obj
 0001:0003a9c6       ?type_case_p@?$output_processor@_WV?$string_output_adapter@_W@__crt_stdio_output@@V?$standard_base@_WV?$string_output_adapter@_W@__crt_stdio_output@@@2@@__crt_stdio_output@@AAE_NXZ 1003b9c6 f i libucrt:output.obj
 0001:0003a9e4       ?type_case_s@?$output_processor@DV?$stream_output_adapter@D@__crt_stdio_output@@V?$format_validation_base@DV?$stream_output_adapter@D@__crt_stdio_output@@@2@@__crt_stdio_output@@AAE_NXZ 1003b9e4 f i libucrt:output.obj
 0001:0003aa71       ?type_case_s@?$output_processor@DV?$stream_output_adapter@D@__crt_stdio_output@@V?$positional_parameter_base@DV?$stream_output_adapter@D@__crt_stdio_output@@@2@@__crt_stdio_output@@AAE_NXZ 1003ba71 f i libucrt:output.obj
 0001:0003ab0e       ?type_case_s@?$output_processor@DV?$stream_output_adapter@D@__crt_stdio_output@@V?$standard_base@DV?$stream_output_adapter@D@__crt_stdio_output@@@2@@__crt_stdio_output@@AAE_NXZ 1003bb0e f i libucrt:output.obj
 0001:0003ab9b       ?type_case_s@?$output_processor@DV?$string_output_adapter@D@__crt_stdio_output@@V?$format_validation_base@DV?$string_output_adapter@D@__crt_stdio_output@@@2@@__crt_stdio_output@@AAE_NXZ 1003bb9b f i libucrt:output.obj
 0001:0003ac28       ?type_case_s@?$output_processor@DV?$string_output_adapter@D@__crt_stdio_output@@V?$positional_parameter_base@DV?$string_output_adapter@D@__crt_stdio_output@@@2@@__crt_stdio_output@@AAE_NXZ 1003bc28 f i libucrt:output.obj
 0001:0003acc5       ?type_case_s@?$output_processor@DV?$string_output_adapter@D@__crt_stdio_output@@V?$standard_base@DV?$string_output_adapter@D@__crt_stdio_output@@@2@@__crt_stdio_output@@AAE_NXZ 1003bcc5 f i libucrt:output.obj
 0001:0003ad52       ?type_case_s@?$output_processor@_WV?$stream_output_adapter@_W@__crt_stdio_output@@V?$format_validation_base@_WV?$stream_output_adapter@_W@__crt_stdio_output@@@2@@__crt_stdio_output@@AAE_NXZ 1003bd52 f i libucrt:output.obj
 0001:0003ade1       ?type_case_s@?$output_processor@_WV?$stream_output_adapter@_W@__crt_stdio_output@@V?$positional_parameter_base@_WV?$stream_output_adapter@_W@__crt_stdio_output@@@2@@__crt_stdio_output@@AAE_NXZ 1003bde1 f i libucrt:output.obj
 0001:0003ae81       ?type_case_s@?$output_processor@_WV?$stream_output_adapter@_W@__crt_stdio_output@@V?$standard_base@_WV?$stream_output_adapter@_W@__crt_stdio_output@@@2@@__crt_stdio_output@@AAE_NXZ 1003be81 f i libucrt:output.obj
 0001:0003af10       ?type_case_s@?$output_processor@_WV?$string_output_adapter@_W@__crt_stdio_output@@V?$format_validation_base@_WV?$string_output_adapter@_W@__crt_stdio_output@@@2@@__crt_stdio_output@@AAE_NXZ 1003bf10 f i libucrt:output.obj
 0001:0003af9f       ?type_case_s@?$output_processor@_WV?$string_output_adapter@_W@__crt_stdio_output@@V?$positional_parameter_base@_WV?$string_output_adapter@_W@__crt_stdio_output@@@2@@__crt_stdio_output@@AAE_NXZ 1003bf9f f i libucrt:output.obj
 0001:0003b03f       ?type_case_s@?$output_processor@_WV?$string_output_adapter@_W@__crt_stdio_output@@V?$standard_base@_WV?$string_output_adapter@_W@__crt_stdio_output@@@2@@__crt_stdio_output@@AAE_NXZ 1003c03f f i libucrt:output.obj
 0001:0003b0ce       ?type_case_s_compute_narrow_string_length@?$output_processor@DV?$stream_output_adapter@D@__crt_stdio_output@@V?$format_validation_base@DV?$stream_output_adapter@D@__crt_stdio_output@@@2@@__crt_stdio_output@@ABEHHD@Z 1003c0ce f i libucrt:output.obj
 0001:0003b0e9       ?type_case_s_compute_narrow_string_length@?$output_processor@DV?$stream_output_adapter@D@__crt_stdio_output@@V?$positional_parameter_base@DV?$stream_output_adapter@D@__crt_stdio_output@@@2@@__crt_stdio_output@@ABEHHD@Z 1003c0e9 f i libucrt:output.obj
 0001:0003b104       ?type_case_s_compute_narrow_string_length@?$output_processor@DV?$stream_output_adapter@D@__crt_stdio_output@@V?$standard_base@DV?$stream_output_adapter@D@__crt_stdio_output@@@2@@__crt_stdio_output@@ABEHHD@Z 1003c104 f i libucrt:output.obj
 0001:0003b11f       ?type_case_s_compute_narrow_string_length@?$output_processor@DV?$string_output_adapter@D@__crt_stdio_output@@V?$format_validation_base@DV?$string_output_adapter@D@__crt_stdio_output@@@2@@__crt_stdio_output@@ABEHHD@Z 1003c11f f i libucrt:output.obj
 0001:0003b13a       ?type_case_s_compute_narrow_string_length@?$output_processor@DV?$string_output_adapter@D@__crt_stdio_output@@V?$positional_parameter_base@DV?$string_output_adapter@D@__crt_stdio_output@@@2@@__crt_stdio_output@@ABEHHD@Z 1003c13a f i libucrt:output.obj
 0001:0003b155       ?type_case_s_compute_narrow_string_length@?$output_processor@DV?$string_output_adapter@D@__crt_stdio_output@@V?$standard_base@DV?$string_output_adapter@D@__crt_stdio_output@@@2@@__crt_stdio_output@@ABEHHD@Z 1003c155 f i libucrt:output.obj
 0001:0003b170       ?type_case_s_compute_narrow_string_length@?$output_processor@_WV?$stream_output_adapter@_W@__crt_stdio_output@@V?$format_validation_base@_WV?$stream_output_adapter@_W@__crt_stdio_output@@@2@@__crt_stdio_output@@ABEHH_W@Z 1003c170 f i libucrt:output.obj
 0001:0003b1bc       ?type_case_s_compute_narrow_string_length@?$output_processor@_WV?$stream_output_adapter@_W@__crt_stdio_output@@V?$positional_parameter_base@_WV?$stream_output_adapter@_W@__crt_stdio_output@@@2@@__crt_stdio_output@@ABEHH_W@Z 1003c1bc f i libucrt:output.obj
 0001:0003b208       ?type_case_s_compute_narrow_string_length@?$output_processor@_WV?$stream_output_adapter@_W@__crt_stdio_output@@V?$standard_base@_WV?$stream_output_adapter@_W@__crt_stdio_output@@@2@@__crt_stdio_output@@ABEHH_W@Z 1003c208 f i libucrt:output.obj
 0001:0003b254       ?type_case_s_compute_narrow_string_length@?$output_processor@_WV?$string_output_adapter@_W@__crt_stdio_output@@V?$format_validation_base@_WV?$string_output_adapter@_W@__crt_stdio_output@@@2@@__crt_stdio_output@@ABEHH_W@Z 1003c254 f i libucrt:output.obj
 0001:0003b2a0       ?type_case_s_compute_narrow_string_length@?$output_processor@_WV?$string_output_adapter@_W@__crt_stdio_output@@V?$positional_parameter_base@_WV?$string_output_adapter@_W@__crt_stdio_output@@@2@@__crt_stdio_output@@ABEHH_W@Z 1003c2a0 f i libucrt:output.obj
 0001:0003b2ec       ?type_case_s_compute_narrow_string_length@?$output_processor@_WV?$string_output_adapter@_W@__crt_stdio_output@@V?$standard_base@_WV?$string_output_adapter@_W@__crt_stdio_output@@@2@@__crt_stdio_output@@ABEHH_W@Z 1003c2ec f i libucrt:output.obj
 0001:0003b338       ?type_case_u@?$output_processor@DV?$stream_output_adapter@D@__crt_stdio_output@@V?$format_validation_base@DV?$stream_output_adapter@D@__crt_stdio_output@@@2@@__crt_stdio_output@@AAE_NXZ 1003c338 f i libucrt:output.obj
 0001:0003b344       ?type_case_u@?$output_processor@DV?$stream_output_adapter@D@__crt_stdio_output@@V?$positional_parameter_base@DV?$stream_output_adapter@D@__crt_stdio_output@@@2@@__crt_stdio_output@@AAE_NXZ 1003c344 f i libucrt:output.obj
 0001:0003b350       ?type_case_u@?$output_processor@DV?$stream_output_adapter@D@__crt_stdio_output@@V?$standard_base@DV?$stream_output_adapter@D@__crt_stdio_output@@@2@@__crt_stdio_output@@AAE_NXZ 1003c350 f i libucrt:output.obj
 0001:0003b35c       ?type_case_u@?$output_processor@DV?$string_output_adapter@D@__crt_stdio_output@@V?$format_validation_base@DV?$string_output_adapter@D@__crt_stdio_output@@@2@@__crt_stdio_output@@AAE_NXZ 1003c35c f i libucrt:output.obj
 0001:0003b368       ?type_case_u@?$output_processor@DV?$string_output_adapter@D@__crt_stdio_output@@V?$positional_parameter_base@DV?$string_output_adapter@D@__crt_stdio_output@@@2@@__crt_stdio_output@@AAE_NXZ 1003c368 f i libucrt:output.obj
 0001:0003b374       ?type_case_u@?$output_processor@DV?$string_output_adapter@D@__crt_stdio_output@@V?$standard_base@DV?$string_output_adapter@D@__crt_stdio_output@@@2@@__crt_stdio_output@@AAE_NXZ 1003c374 f i libucrt:output.obj
 0001:0003b380       ?type_case_u@?$output_processor@_WV?$stream_output_adapter@_W@__crt_stdio_output@@V?$format_validation_base@_WV?$stream_output_adapter@_W@__crt_stdio_output@@@2@@__crt_stdio_output@@AAE_NXZ 1003c380 f i libucrt:output.obj
 0001:0003b38c       ?type_case_u@?$output_processor@_WV?$stream_output_adapter@_W@__crt_stdio_output@@V?$positional_parameter_base@_WV?$stream_output_adapter@_W@__crt_stdio_output@@@2@@__crt_stdio_output@@AAE_NXZ 1003c38c f i libucrt:output.obj
 0001:0003b398       ?type_case_u@?$output_processor@_WV?$stream_output_adapter@_W@__crt_stdio_output@@V?$standard_base@_WV?$stream_output_adapter@_W@__crt_stdio_output@@@2@@__crt_stdio_output@@AAE_NXZ 1003c398 f i libucrt:output.obj
 0001:0003b3a4       ?type_case_u@?$output_processor@_WV?$string_output_adapter@_W@__crt_stdio_output@@V?$format_validation_base@_WV?$string_output_adapter@_W@__crt_stdio_output@@@2@@__crt_stdio_output@@AAE_NXZ 1003c3a4 f i libucrt:output.obj
 0001:0003b3b0       ?type_case_u@?$output_processor@_WV?$string_output_adapter@_W@__crt_stdio_output@@V?$positional_parameter_base@_WV?$string_output_adapter@_W@__crt_stdio_output@@@2@@__crt_stdio_output@@AAE_NXZ 1003c3b0 f i libucrt:output.obj
 0001:0003b3bc       ?type_case_u@?$output_processor@_WV?$string_output_adapter@_W@__crt_stdio_output@@V?$standard_base@_WV?$string_output_adapter@_W@__crt_stdio_output@@@2@@__crt_stdio_output@@AAE_NXZ 1003c3bc f i libucrt:output.obj
 0001:0003b3c8       ?type_case_x@?$output_processor@DV?$stream_output_adapter@D@__crt_stdio_output@@V?$format_validation_base@DV?$stream_output_adapter@D@__crt_stdio_output@@@2@@__crt_stdio_output@@AAE_NXZ 1003c3c8 f i libucrt:output.obj
 0001:0003b3d4       ?type_case_x@?$output_processor@DV?$stream_output_adapter@D@__crt_stdio_output@@V?$positional_parameter_base@DV?$stream_output_adapter@D@__crt_stdio_output@@@2@@__crt_stdio_output@@AAE_NXZ 1003c3d4 f i libucrt:output.obj
 0001:0003b3e0       ?type_case_x@?$output_processor@DV?$stream_output_adapter@D@__crt_stdio_output@@V?$standard_base@DV?$stream_output_adapter@D@__crt_stdio_output@@@2@@__crt_stdio_output@@AAE_NXZ 1003c3e0 f i libucrt:output.obj
 0001:0003b3ec       ?type_case_x@?$output_processor@DV?$string_output_adapter@D@__crt_stdio_output@@V?$format_validation_base@DV?$string_output_adapter@D@__crt_stdio_output@@@2@@__crt_stdio_output@@AAE_NXZ 1003c3ec f i libucrt:output.obj
 0001:0003b3f8       ?type_case_x@?$output_processor@DV?$string_output_adapter@D@__crt_stdio_output@@V?$positional_parameter_base@DV?$string_output_adapter@D@__crt_stdio_output@@@2@@__crt_stdio_output@@AAE_NXZ 1003c3f8 f i libucrt:output.obj
 0001:0003b404       ?type_case_x@?$output_processor@DV?$string_output_adapter@D@__crt_stdio_output@@V?$standard_base@DV?$string_output_adapter@D@__crt_stdio_output@@@2@@__crt_stdio_output@@AAE_NXZ 1003c404 f i libucrt:output.obj
 0001:0003b410       ?type_case_x@?$output_processor@_WV?$stream_output_adapter@_W@__crt_stdio_output@@V?$format_validation_base@_WV?$stream_output_adapter@_W@__crt_stdio_output@@@2@@__crt_stdio_output@@AAE_NXZ 1003c410 f i libucrt:output.obj
 0001:0003b41c       ?type_case_x@?$output_processor@_WV?$stream_output_adapter@_W@__crt_stdio_output@@V?$positional_parameter_base@_WV?$stream_output_adapter@_W@__crt_stdio_output@@@2@@__crt_stdio_output@@AAE_NXZ 1003c41c f i libucrt:output.obj
 0001:0003b428       ?type_case_x@?$output_processor@_WV?$stream_output_adapter@_W@__crt_stdio_output@@V?$standard_base@_WV?$stream_output_adapter@_W@__crt_stdio_output@@@2@@__crt_stdio_output@@AAE_NXZ 1003c428 f i libucrt:output.obj
 0001:0003b434       ?type_case_x@?$output_processor@_WV?$string_output_adapter@_W@__crt_stdio_output@@V?$format_validation_base@_WV?$string_output_adapter@_W@__crt_stdio_output@@@2@@__crt_stdio_output@@AAE_NXZ 1003c434 f i libucrt:output.obj
 0001:0003b440       ?type_case_x@?$output_processor@_WV?$string_output_adapter@_W@__crt_stdio_output@@V?$positional_parameter_base@_WV?$string_output_adapter@_W@__crt_stdio_output@@@2@@__crt_stdio_output@@AAE_NXZ 1003c440 f i libucrt:output.obj
 0001:0003b44c       ?type_case_x@?$output_processor@_WV?$string_output_adapter@_W@__crt_stdio_output@@V?$standard_base@_WV?$string_output_adapter@_W@__crt_stdio_output@@@2@@__crt_stdio_output@@AAE_NXZ 1003c44c f i libucrt:output.obj
 0001:0003b458       ?unset_flag@?$output_processor@DV?$stream_output_adapter@D@__crt_stdio_output@@V?$format_validation_base@DV?$stream_output_adapter@D@__crt_stdio_output@@@2@@__crt_stdio_output@@AAEXI@Z 1003c458 f i libucrt:output.obj
 0001:0003b46d       ?unset_flag@?$output_processor@DV?$stream_output_adapter@D@__crt_stdio_output@@V?$positional_parameter_base@DV?$stream_output_adapter@D@__crt_stdio_output@@@2@@__crt_stdio_output@@AAEXI@Z 1003c46d f i libucrt:output.obj
 0001:0003b482       ?unset_flag@?$output_processor@DV?$stream_output_adapter@D@__crt_stdio_output@@V?$standard_base@DV?$stream_output_adapter@D@__crt_stdio_output@@@2@@__crt_stdio_output@@AAEXI@Z 1003c482 f i libucrt:output.obj
 0001:0003b497       ?unset_flag@?$output_processor@DV?$string_output_adapter@D@__crt_stdio_output@@V?$format_validation_base@DV?$string_output_adapter@D@__crt_stdio_output@@@2@@__crt_stdio_output@@AAEXI@Z 1003c497 f i libucrt:output.obj
 0001:0003b4ac       ?unset_flag@?$output_processor@DV?$string_output_adapter@D@__crt_stdio_output@@V?$positional_parameter_base@DV?$string_output_adapter@D@__crt_stdio_output@@@2@@__crt_stdio_output@@AAEXI@Z 1003c4ac f i libucrt:output.obj
 0001:0003b4c1       ?unset_flag@?$output_processor@DV?$string_output_adapter@D@__crt_stdio_output@@V?$standard_base@DV?$string_output_adapter@D@__crt_stdio_output@@@2@@__crt_stdio_output@@AAEXI@Z 1003c4c1 f i libucrt:output.obj
 0001:0003b4d6       ?unset_flag@?$output_processor@_WV?$stream_output_adapter@_W@__crt_stdio_output@@V?$format_validation_base@_WV?$stream_output_adapter@_W@__crt_stdio_output@@@2@@__crt_stdio_output@@AAEXI@Z 1003c4d6 f i libucrt:output.obj
 0001:0003b4eb       ?unset_flag@?$output_processor@_WV?$stream_output_adapter@_W@__crt_stdio_output@@V?$positional_parameter_base@_WV?$stream_output_adapter@_W@__crt_stdio_output@@@2@@__crt_stdio_output@@AAEXI@Z 1003c4eb f i libucrt:output.obj
 0001:0003b500       ?unset_flag@?$output_processor@_WV?$stream_output_adapter@_W@__crt_stdio_output@@V?$standard_base@_WV?$stream_output_adapter@_W@__crt_stdio_output@@@2@@__crt_stdio_output@@AAEXI@Z 1003c500 f i libucrt:output.obj
 0001:0003b515       ?unset_flag@?$output_processor@_WV?$string_output_adapter@_W@__crt_stdio_output@@V?$format_validation_base@_WV?$string_output_adapter@_W@__crt_stdio_output@@@2@@__crt_stdio_output@@AAEXI@Z 1003c515 f i libucrt:output.obj
 0001:0003b52a       ?unset_flag@?$output_processor@_WV?$string_output_adapter@_W@__crt_stdio_output@@V?$positional_parameter_base@_WV?$string_output_adapter@_W@__crt_stdio_output@@@2@@__crt_stdio_output@@AAEXI@Z 1003c52a f i libucrt:output.obj
 0001:0003b53f       ?unset_flag@?$output_processor@_WV?$string_output_adapter@_W@__crt_stdio_output@@V?$standard_base@_WV?$string_output_adapter@_W@__crt_stdio_output@@@2@@__crt_stdio_output@@AAEXI@Z 1003c53f f i libucrt:output.obj
 0001:0003b554       ?update_field_width@?$positional_parameter_base@DV?$stream_output_adapter@D@__crt_stdio_output@@@__crt_stdio_output@@IAE_NXZ 1003c554 f i libucrt:output.obj
 0001:0003b637       ?update_field_width@?$positional_parameter_base@DV?$string_output_adapter@D@__crt_stdio_output@@@__crt_stdio_output@@IAE_NXZ 1003c637 f i libucrt:output.obj
 0001:0003b71a       ?update_field_width@?$positional_parameter_base@_WV?$stream_output_adapter@_W@__crt_stdio_output@@@__crt_stdio_output@@IAE_NXZ 1003c71a f i libucrt:output.obj
 0001:0003b7fe       ?update_field_width@?$positional_parameter_base@_WV?$string_output_adapter@_W@__crt_stdio_output@@@__crt_stdio_output@@IAE_NXZ 1003c7fe f i libucrt:output.obj
 0001:0003b8e2       ?update_field_width@?$standard_base@DV?$stream_output_adapter@D@__crt_stdio_output@@@__crt_stdio_output@@IAE_NXZ 1003c8e2 f i libucrt:output.obj
 0001:0003b8f6       ?update_field_width@?$standard_base@DV?$string_output_adapter@D@__crt_stdio_output@@@__crt_stdio_output@@IAE_NXZ 1003c8f6 f i libucrt:output.obj
 0001:0003b90a       ?update_field_width@?$standard_base@_WV?$stream_output_adapter@_W@__crt_stdio_output@@@__crt_stdio_output@@IAE_NXZ 1003c90a f i libucrt:output.obj
 0001:0003b91e       ?update_field_width@?$standard_base@_WV?$string_output_adapter@_W@__crt_stdio_output@@@__crt_stdio_output@@IAE_NXZ 1003c91e f i libucrt:output.obj
 0001:0003b932       ?update_precision@?$positional_parameter_base@DV?$stream_output_adapter@D@__crt_stdio_output@@@__crt_stdio_output@@IAE_NXZ 1003c932 f i libucrt:output.obj
 0001:0003ba15       ?update_precision@?$positional_parameter_base@DV?$string_output_adapter@D@__crt_stdio_output@@@__crt_stdio_output@@IAE_NXZ 1003ca15 f i libucrt:output.obj
 0001:0003baf8       ?update_precision@?$positional_parameter_base@_WV?$stream_output_adapter@_W@__crt_stdio_output@@@__crt_stdio_output@@IAE_NXZ 1003caf8 f i libucrt:output.obj
 0001:0003bbdc       ?update_precision@?$positional_parameter_base@_WV?$string_output_adapter@_W@__crt_stdio_output@@@__crt_stdio_output@@IAE_NXZ 1003cbdc f i libucrt:output.obj
 0001:0003bcc0       ?update_precision@?$standard_base@DV?$stream_output_adapter@D@__crt_stdio_output@@@__crt_stdio_output@@IAE_NXZ 1003ccc0 f i libucrt:output.obj
 0001:0003bcd4       ?update_precision@?$standard_base@DV?$string_output_adapter@D@__crt_stdio_output@@@__crt_stdio_output@@IAE_NXZ 1003ccd4 f i libucrt:output.obj
 0001:0003bce8       ?update_precision@?$standard_base@_WV?$stream_output_adapter@_W@__crt_stdio_output@@@__crt_stdio_output@@IAE_NXZ 1003cce8 f i libucrt:output.obj
 0001:0003bcfc       ?update_precision@?$standard_base@_WV?$string_output_adapter@_W@__crt_stdio_output@@@__crt_stdio_output@@IAE_NXZ 1003ccfc f i libucrt:output.obj
 0001:0003bd10       ?validate@?$stream_output_adapter@D@__crt_stdio_output@@QBE_NXZ 1003cd10 f i libucrt:output.obj
 0001:0003bd39       ?validate@?$stream_output_adapter@_W@__crt_stdio_output@@QBE_NXZ 1003cd39 f i libucrt:output.obj
 0001:0003bd5a       ?validate@?$string_output_adapter@D@__crt_stdio_output@@QBE_NXZ 1003cd5a f i libucrt:output.obj
 0001:0003bd7b       ?validate@?$string_output_adapter@_W@__crt_stdio_output@@QBE_NXZ 1003cd7b f i libucrt:output.obj
 0001:0003bd9c       ?validate_and_store_parameter_data@?$positional_parameter_base@DV?$stream_output_adapter@D@__crt_stdio_output@@@__crt_stdio_output@@AAE_NAAUparameter_data@12@W4parameter_type@12@DW4length_modifier@2@@Z 1003cd9c f i libucrt:output.obj
 0001:0003bdf9       ?validate_and_store_parameter_data@?$positional_parameter_base@DV?$string_output_adapter@D@__crt_stdio_output@@@__crt_stdio_output@@AAE_NAAUparameter_data@12@W4parameter_type@12@DW4length_modifier@2@@Z 1003cdf9 f i libucrt:output.obj
 0001:0003be56       ?validate_and_store_parameter_data@?$positional_parameter_base@_WV?$stream_output_adapter@_W@__crt_stdio_output@@@__crt_stdio_output@@AAE_NAAUparameter_data@12@W4parameter_type@12@_WW4length_modifier@2@@Z 1003ce56 f i libucrt:output.obj
 0001:0003beb6       ?validate_and_store_parameter_data@?$positional_parameter_base@_WV?$string_output_adapter@_W@__crt_stdio_output@@@__crt_stdio_output@@AAE_NAAUparameter_data@12@W4parameter_type@12@_WW4length_modifier@2@@Z 1003ceb6 f i libucrt:output.obj
 0001:0003bf16       ?validate_and_update_state_at_beginning_of_format_character@?$positional_parameter_base@DV?$stream_output_adapter@D@__crt_stdio_output@@@__crt_stdio_output@@IAE_NXZ 1003cf16 f i libucrt:output.obj
 0001:0003c04e       ?validate_and_update_state_at_beginning_of_format_character@?$positional_parameter_base@DV?$string_output_adapter@D@__crt_stdio_output@@@__crt_stdio_output@@IAE_NXZ 1003d04e f i libucrt:output.obj
 0001:0003c186       ?validate_and_update_state_at_beginning_of_format_character@?$positional_parameter_base@_WV?$stream_output_adapter@_W@__crt_stdio_output@@@__crt_stdio_output@@IAE_NXZ 1003d186 f i libucrt:output.obj
 0001:0003c2c9       ?validate_and_update_state_at_beginning_of_format_character@?$positional_parameter_base@_WV?$string_output_adapter@_W@__crt_stdio_output@@@__crt_stdio_output@@IAE_NXZ 1003d2c9 f i libucrt:output.obj
 0001:0003c40c       ?validate_and_update_state_at_beginning_of_format_character@?$standard_base@DV?$stream_output_adapter@D@__crt_stdio_output@@@__crt_stdio_output@@IAE_NXZ 1003d40c f i libucrt:output.obj
 0001:0003c40f       ?validate_and_update_state_at_beginning_of_format_character@?$standard_base@DV?$string_output_adapter@D@__crt_stdio_output@@@__crt_stdio_output@@IAE_NXZ 1003d40f f i libucrt:output.obj
 0001:0003c412       ?validate_and_update_state_at_beginning_of_format_character@?$standard_base@_WV?$stream_output_adapter@_W@__crt_stdio_output@@@__crt_stdio_output@@IAE_NXZ 1003d412 f i libucrt:output.obj
 0001:0003c415       ?validate_and_update_state_at_beginning_of_format_character@?$standard_base@_WV?$string_output_adapter@_W@__crt_stdio_output@@@__crt_stdio_output@@IAE_NXZ 1003d415 f i libucrt:output.obj
 0001:0003c418       ?validate_and_update_state_at_end_of_format_string@?$format_validation_base@DV?$stream_output_adapter@D@__crt_stdio_output@@@__crt_stdio_output@@IBE_NXZ 1003d418 f i libucrt:output.obj
 0001:0003c442       ?validate_and_update_state_at_end_of_format_string@?$format_validation_base@DV?$string_output_adapter@D@__crt_stdio_output@@@__crt_stdio_output@@IBE_NXZ 1003d442 f i libucrt:output.obj
 0001:0003c46c       ?validate_and_update_state_at_end_of_format_string@?$format_validation_base@_WV?$stream_output_adapter@_W@__crt_stdio_output@@@__crt_stdio_output@@IBE_NXZ 1003d46c f i libucrt:output.obj
 0001:0003c496       ?validate_and_update_state_at_end_of_format_string@?$format_validation_base@_WV?$string_output_adapter@_W@__crt_stdio_output@@@__crt_stdio_output@@IBE_NXZ 1003d496 f i libucrt:output.obj
 0001:0003c4c0       ?validate_and_update_state_at_end_of_format_string@?$positional_parameter_base@DV?$stream_output_adapter@D@__crt_stdio_output@@@__crt_stdio_output@@IAE_NXZ 1003d4c0 f i libucrt:output.obj
 0001:0003c566       ?validate_and_update_state_at_end_of_format_string@?$positional_parameter_base@DV?$string_output_adapter@D@__crt_stdio_output@@@__crt_stdio_output@@IAE_NXZ 1003d566 f i libucrt:output.obj
 0001:0003c60c       ?validate_and_update_state_at_end_of_format_string@?$positional_parameter_base@_WV?$stream_output_adapter@_W@__crt_stdio_output@@@__crt_stdio_output@@IAE_NXZ 1003d60c f i libucrt:output.obj
 0001:0003c6b2       ?validate_and_update_state_at_end_of_format_string@?$positional_parameter_base@_WV?$string_output_adapter@_W@__crt_stdio_output@@@__crt_stdio_output@@IAE_NXZ 1003d6b2 f i libucrt:output.obj
 0001:0003c758       ?validate_and_update_state_at_end_of_format_string@?$standard_base@DV?$stream_output_adapter@D@__crt_stdio_output@@@__crt_stdio_output@@IBE_NXZ 1003d758 f i libucrt:output.obj
 0001:0003c75b       ?validate_and_update_state_at_end_of_format_string@?$standard_base@DV?$string_output_adapter@D@__crt_stdio_output@@@__crt_stdio_output@@IBE_NXZ 1003d75b f i libucrt:output.obj
 0001:0003c75e       ?validate_and_update_state_at_end_of_format_string@?$standard_base@_WV?$stream_output_adapter@_W@__crt_stdio_output@@@__crt_stdio_output@@IBE_NXZ 1003d75e f i libucrt:output.obj
 0001:0003c761       ?validate_and_update_state_at_end_of_format_string@?$standard_base@_WV?$string_output_adapter@_W@__crt_stdio_output@@@__crt_stdio_output@@IBE_NXZ 1003d761 f i libucrt:output.obj
 0001:0003c764       ?validate_state_for_type_case_a@?$positional_parameter_base@DV?$stream_output_adapter@D@__crt_stdio_output@@@__crt_stdio_output@@IAE_NXZ 1003d764 f i libucrt:output.obj
 0001:0003c7c6       ?validate_state_for_type_case_a@?$positional_parameter_base@DV?$string_output_adapter@D@__crt_stdio_output@@@__crt_stdio_output@@IAE_NXZ 1003d7c6 f i libucrt:output.obj
 0001:0003c828       ?validate_state_for_type_case_a@?$positional_parameter_base@_WV?$stream_output_adapter@_W@__crt_stdio_output@@@__crt_stdio_output@@IAE_NXZ 1003d828 f i libucrt:output.obj
 0001:0003c88a       ?validate_state_for_type_case_a@?$positional_parameter_base@_WV?$string_output_adapter@_W@__crt_stdio_output@@@__crt_stdio_output@@IAE_NXZ 1003d88a f i libucrt:output.obj
 0001:0003c8ec       ?validate_state_for_type_case_a@?$standard_base@DV?$stream_output_adapter@D@__crt_stdio_output@@@__crt_stdio_output@@IBE_NXZ 1003d8ec f i libucrt:output.obj
 0001:0003c8ef       ?validate_state_for_type_case_a@?$standard_base@DV?$string_output_adapter@D@__crt_stdio_output@@@__crt_stdio_output@@IBE_NXZ 1003d8ef f i libucrt:output.obj
 0001:0003c8f2       ?validate_state_for_type_case_a@?$standard_base@_WV?$stream_output_adapter@_W@__crt_stdio_output@@@__crt_stdio_output@@IBE_NXZ 1003d8f2 f i libucrt:output.obj
 0001:0003c8f5       ?validate_state_for_type_case_a@?$standard_base@_WV?$string_output_adapter@_W@__crt_stdio_output@@@__crt_stdio_output@@IBE_NXZ 1003d8f5 f i libucrt:output.obj
 0001:0003c8f8       ?validate_stream_is_ansi_if_required@?$__acrt_stdio_char_traits@D@@SA_NQAU_iobuf@@@Z 1003d8f8 f i libucrt:output.obj
 0001:0003c99f       ?validate_stream_is_ansi_if_required@?$__acrt_stdio_char_traits@_W@@SA_NQAU_iobuf@@@Z 1003d99f f i libucrt:output.obj
 0001:0003c9a2       ?wide_null_string@?$output_processor@DV?$stream_output_adapter@D@__crt_stdio_output@@V?$format_validation_base@DV?$stream_output_adapter@D@__crt_stdio_output@@@2@@__crt_stdio_output@@CAPA_WXZ 1003d9a2 f i libucrt:output.obj
 0001:0003c9a8       ?wide_null_string@?$output_processor@DV?$stream_output_adapter@D@__crt_stdio_output@@V?$positional_parameter_base@DV?$stream_output_adapter@D@__crt_stdio_output@@@2@@__crt_stdio_output@@CAPA_WXZ 1003d9a8 f i libucrt:output.obj
 0001:0003c9ae       ?wide_null_string@?$output_processor@DV?$stream_output_adapter@D@__crt_stdio_output@@V?$standard_base@DV?$stream_output_adapter@D@__crt_stdio_output@@@2@@__crt_stdio_output@@CAPA_WXZ 1003d9ae f i libucrt:output.obj
 0001:0003c9b4       ?wide_null_string@?$output_processor@DV?$string_output_adapter@D@__crt_stdio_output@@V?$format_validation_base@DV?$string_output_adapter@D@__crt_stdio_output@@@2@@__crt_stdio_output@@CAPA_WXZ 1003d9b4 f i libucrt:output.obj
 0001:0003c9ba       ?wide_null_string@?$output_processor@DV?$string_output_adapter@D@__crt_stdio_output@@V?$positional_parameter_base@DV?$string_output_adapter@D@__crt_stdio_output@@@2@@__crt_stdio_output@@CAPA_WXZ 1003d9ba f i libucrt:output.obj
 0001:0003c9c0       ?wide_null_string@?$output_processor@DV?$string_output_adapter@D@__crt_stdio_output@@V?$standard_base@DV?$string_output_adapter@D@__crt_stdio_output@@@2@@__crt_stdio_output@@CAPA_WXZ 1003d9c0 f i libucrt:output.obj
 0001:0003c9c6       ?wide_null_string@?$output_processor@_WV?$stream_output_adapter@_W@__crt_stdio_output@@V?$format_validation_base@_WV?$stream_output_adapter@_W@__crt_stdio_output@@@2@@__crt_stdio_output@@CAPA_WXZ 1003d9c6 f i libucrt:output.obj
 0001:0003c9cc       ?wide_null_string@?$output_processor@_WV?$stream_output_adapter@_W@__crt_stdio_output@@V?$positional_parameter_base@_WV?$stream_output_adapter@_W@__crt_stdio_output@@@2@@__crt_stdio_output@@CAPA_WXZ 1003d9cc f i libucrt:output.obj
 0001:0003c9d2       ?wide_null_string@?$output_processor@_WV?$stream_output_adapter@_W@__crt_stdio_output@@V?$standard_base@_WV?$stream_output_adapter@_W@__crt_stdio_output@@@2@@__crt_stdio_output@@CAPA_WXZ 1003d9d2 f i libucrt:output.obj
 0001:0003c9d8       ?wide_null_string@?$output_processor@_WV?$string_output_adapter@_W@__crt_stdio_output@@V?$format_validation_base@_WV?$string_output_adapter@_W@__crt_stdio_output@@@2@@__crt_stdio_output@@CAPA_WXZ 1003d9d8 f i libucrt:output.obj
 0001:0003c9de       ?wide_null_string@?$output_processor@_WV?$string_output_adapter@_W@__crt_stdio_output@@V?$positional_parameter_base@_WV?$string_output_adapter@_W@__crt_stdio_output@@@2@@__crt_stdio_output@@CAPA_WXZ 1003d9de f i libucrt:output.obj
 0001:0003c9e4       ?wide_null_string@?$output_processor@_WV?$string_output_adapter@_W@__crt_stdio_output@@V?$standard_base@_WV?$string_output_adapter@_W@__crt_stdio_output@@@2@@__crt_stdio_output@@CAPA_WXZ 1003d9e4 f i libucrt:output.obj
 0001:0003c9ea       ?write_character@?$output_adapter_common@DV?$stream_output_adapter@D@__crt_stdio_output@@@__crt_stdio_output@@QBEXDQAH@Z 1003d9ea f i libucrt:output.obj
 0001:0003ca10       ?write_character@?$output_adapter_common@_WV?$stream_output_adapter@_W@__crt_stdio_output@@@__crt_stdio_output@@QBEX_WQAH@Z 1003da10 f i libucrt:output.obj
 0001:0003ca36       ?write_character@?$string_output_adapter@D@__crt_stdio_output@@QBE_NDQAH@Z 1003da36 f i libucrt:output.obj
 0001:0003ca88       ?write_character@?$string_output_adapter@_W@__crt_stdio_output@@QBE_N_WQAH@Z 1003da88 f i libucrt:output.obj
 0001:0003cade       ?write_character_without_count_update@?$stream_output_adapter@D@__crt_stdio_output@@QBE_ND@Z 1003dade f i libucrt:output.obj
 0001:0003cb20       ?write_character_without_count_update@?$stream_output_adapter@_W@__crt_stdio_output@@QBE_N_W@Z 1003db20 f i libucrt:output.obj
 0001:0003cb66       ?write_stored_string_tchar@?$output_processor@DV?$stream_output_adapter@D@__crt_stdio_output@@V?$format_validation_base@DV?$stream_output_adapter@D@__crt_stdio_output@@@2@@__crt_stdio_output@@AAE_ND@Z 1003db66 f i libucrt:output.obj
 0001:0003cc39       ?write_stored_string_tchar@?$output_processor@DV?$stream_output_adapter@D@__crt_stdio_output@@V?$positional_parameter_base@DV?$stream_output_adapter@D@__crt_stdio_output@@@2@@__crt_stdio_output@@AAE_ND@Z 1003dc39 f i libucrt:output.obj
 0001:0003cd0c       ?write_stored_string_tchar@?$output_processor@DV?$stream_output_adapter@D@__crt_stdio_output@@V?$standard_base@DV?$stream_output_adapter@D@__crt_stdio_output@@@2@@__crt_stdio_output@@AAE_ND@Z 1003dd0c f i libucrt:output.obj
 0001:0003cddf       ?write_stored_string_tchar@?$output_processor@DV?$string_output_adapter@D@__crt_stdio_output@@V?$format_validation_base@DV?$string_output_adapter@D@__crt_stdio_output@@@2@@__crt_stdio_output@@AAE_ND@Z 1003dddf f i libucrt:output.obj
 0001:0003ceb2       ?write_stored_string_tchar@?$output_processor@DV?$string_output_adapter@D@__crt_stdio_output@@V?$positional_parameter_base@DV?$string_output_adapter@D@__crt_stdio_output@@@2@@__crt_stdio_output@@AAE_ND@Z 1003deb2 f i libucrt:output.obj
 0001:0003cf85       ?write_stored_string_tchar@?$output_processor@DV?$string_output_adapter@D@__crt_stdio_output@@V?$standard_base@DV?$string_output_adapter@D@__crt_stdio_output@@@2@@__crt_stdio_output@@AAE_ND@Z 1003df85 f i libucrt:output.obj
 0001:0003d058       ?write_stored_string_tchar@?$output_processor@_WV?$stream_output_adapter@_W@__crt_stdio_output@@V?$format_validation_base@_WV?$stream_output_adapter@_W@__crt_stdio_output@@@2@@__crt_stdio_output@@AAE_N_W@Z 1003e058 f i libucrt:output.obj
 0001:0003d112       ?write_stored_string_tchar@?$output_processor@_WV?$stream_output_adapter@_W@__crt_stdio_output@@V?$positional_parameter_base@_WV?$stream_output_adapter@_W@__crt_stdio_output@@@2@@__crt_stdio_output@@AAE_N_W@Z 1003e112 f i libucrt:output.obj
 0001:0003d1cc       ?write_stored_string_tchar@?$output_processor@_WV?$stream_output_adapter@_W@__crt_stdio_output@@V?$standard_base@_WV?$stream_output_adapter@_W@__crt_stdio_output@@@2@@__crt_stdio_output@@AAE_N_W@Z 1003e1cc f i libucrt:output.obj
 0001:0003d286       ?write_stored_string_tchar@?$output_processor@_WV?$string_output_adapter@_W@__crt_stdio_output@@V?$format_validation_base@_WV?$string_output_adapter@_W@__crt_stdio_output@@@2@@__crt_stdio_output@@AAE_N_W@Z 1003e286 f i libucrt:output.obj
 0001:0003d340       ?write_stored_string_tchar@?$output_processor@_WV?$string_output_adapter@_W@__crt_stdio_output@@V?$positional_parameter_base@_WV?$string_output_adapter@_W@__crt_stdio_output@@@2@@__crt_stdio_output@@AAE_N_W@Z 1003e340 f i libucrt:output.obj
 0001:0003d3fa       ?write_stored_string_tchar@?$output_processor@_WV?$string_output_adapter@_W@__crt_stdio_output@@V?$standard_base@_WV?$string_output_adapter@_W@__crt_stdio_output@@@2@@__crt_stdio_output@@AAE_N_W@Z 1003e3fa f i libucrt:output.obj
 0001:0003d4b4       ?write_string@?$stream_output_adapter@D@__crt_stdio_output@@QBEXQBDHQAHAAV__crt_deferred_errno_cache@@@Z 1003e4b4 f i libucrt:output.obj
 0001:0003d4e9       ?write_string@?$stream_output_adapter@_W@__crt_stdio_output@@QBEXQB_WHQAHAAV__crt_deferred_errno_cache@@@Z 1003e4e9 f i libucrt:output.obj
 0001:0003d51e       ?write_string@?$string_output_adapter@D@__crt_stdio_output@@QBEXQBDHQAHAAV__crt_deferred_errno_cache@@@Z 1003e51e f i libucrt:output.obj
 0001:0003d59e       ?write_string@?$string_output_adapter@_W@__crt_stdio_output@@QBEXQB_WHQAHAAV__crt_deferred_errno_cache@@@Z 1003e59e f i libucrt:output.obj
 0001:0003d62d       ?write_string_impl@?$output_adapter_common@DV?$stream_output_adapter@D@__crt_stdio_output@@@__crt_stdio_output@@IBEXQBDHQAHAAV__crt_deferred_errno_cache@@@Z 1003e62d f i libucrt:output.obj
 0001:0003d6f5       ?write_string_impl@?$output_adapter_common@_WV?$stream_output_adapter@_W@__crt_stdio_output@@@__crt_stdio_output@@IBEXQB_WHQAHAAV__crt_deferred_errno_cache@@@Z 1003e6f5 f i libucrt:output.obj
 0001:0003d7c0       ___acrt_isleadbyte_l_noupdate 1003e7c0 f i libucrt:output.obj
 0001:0003d7e1       ___stdio_common_vfprintf   1003e7e1 f   libucrt:output.obj
 0001:0003d887       ___stdio_common_vfprintf_p 1003e887 f   libucrt:output.obj
 0001:0003d92d       ___stdio_common_vfprintf_s 1003e92d f   libucrt:output.obj
 0001:0003d9d3       ___stdio_common_vfwprintf  1003e9d3 f   libucrt:output.obj
 0001:0003da79       ___stdio_common_vfwprintf_p 1003ea79 f   libucrt:output.obj
 0001:0003db1f       ___stdio_common_vfwprintf_s 1003eb1f f   libucrt:output.obj
 0001:0003dbc5       ___stdio_common_vsnprintf_s 1003ebc5 f   libucrt:output.obj
 0001:0003dbf5       ___stdio_common_vsnwprintf_s 1003ebf5 f   libucrt:output.obj
 0001:0003dc25       ___stdio_common_vsprintf   1003ec25 f   libucrt:output.obj
 0001:0003dc52       ___stdio_common_vsprintf_p 1003ec52 f   libucrt:output.obj
 0001:0003dc7f       ___stdio_common_vsprintf_s 1003ec7f f   libucrt:output.obj
 0001:0003dcac       ___stdio_common_vswprintf  1003ecac f   libucrt:output.obj
 0001:0003dcd9       ___stdio_common_vswprintf_p 1003ecd9 f   libucrt:output.obj
 0001:0003dd06       ___stdio_common_vswprintf_s 1003ed06 f   libucrt:output.obj
 0001:0003dd33       _ldexp                     1003ed33 f   libucrt:ldexp.obj
 0001:0003dfac       __errcode                  1003efac f   libucrt:fpexcept.obj
 0001:0003dfed       __except1                  1003efed f   libucrt:fpexcept.obj
 0001:0003e0ee       __except2                  1003f0ee f   libucrt:fpexcept.obj
 0001:0003e237       __handle_exc               1003f237 f   libucrt:fpexcept.obj
 0001:0003e49f       __handle_qnan2             1003f49f f   libucrt:fpexcept.obj
 0001:0003e4af       __raise_exc                1003f4af f   libucrt:fpexcept.obj
 0001:0003e4da       __raise_exc_ex             1003f4da f   libucrt:fpexcept.obj
 0001:0003e88d       __raise_excf               1003f88d f   libucrt:fpexcept.obj
 0001:0003e8b8       __set_errno_from_matherr   1003f8b8 f   libucrt:fpexcept.obj
 0001:0003e8f2       __umatherr                 1003f8f2 f   libucrt:fpexcept.obj
 0001:0003e9bc       __initterm                 1003f9bc f   libucrt:initterm.obj
 0001:0003ea2f       __initterm_e               1003fa2f f   libucrt:initterm.obj
 0001:0003eab2       __seh_filter_dll           1003fab2 f   libucrt:exception_filter.obj
 0001:0003eada       __seh_filter_exe           1003fada f   libucrt:exception_filter.obj
 0001:0003ec99       ??$?RE@__crt_internal_free_policy@@QBEXQBE@Z 1003fc99 f i libucrt:argv_parsing.obj
 0001:0003ecaf       ??$?RPAD@__crt_internal_free_policy@@QBEXQBQAD@Z 1003fcaf f i libucrt:argv_parsing.obj
 0001:0003ecc5       ??$?RPA_W@__crt_internal_free_policy@@QBEXQBQA_W@Z 1003fcc5 f i libucrt:argv_parsing.obj
 0001:0003efde       ??$get_module_file_name@$$TAAY0BAF@DH@?$__crt_char_traits@D@@SAK$$QA$$TAAY0BAF@D$$QAH@Z 1003ffde f i libucrt:argv_parsing.obj
 0001:0003f001       ??$get_module_file_name@$$TAAY0BAF@_WH@?$__crt_char_traits@_W@@SAK$$QA$$TAAY0BAF@_W$$QAH@Z 10040001 f i libucrt:argv_parsing.obj
 0001:0003f3f4       ??$set_program_name@PAD@?$__crt_char_traits@D@@SAX$$QAPAD@Z 100403f4 f i libucrt:argv_parsing.obj
 0001:0003f409       ??$set_program_name@PA_W@?$__crt_char_traits@_W@@SAX$$QAPA_W@Z 10040409 f i libucrt:argv_parsing.obj
 0001:0003f446       ??0?$__crt_unique_heap_ptr@EU__crt_internal_free_policy@@@@QAE@QAE@Z 10040446 f i libucrt:argv_parsing.obj
 0001:0003f45a       ??0?$__crt_unique_heap_ptr@PADU__crt_internal_free_policy@@@@QAE@QAPAD@Z 1004045a f i libucrt:argv_parsing.obj
 0001:0003f46e       ??0?$__crt_unique_heap_ptr@PA_WU__crt_internal_free_policy@@@@QAE@QAPA_W@Z 1004046e f i libucrt:argv_parsing.obj
 0001:0003f482       ??1?$__crt_unique_heap_ptr@EU__crt_internal_free_policy@@@@QAE@XZ 10040482 f i libucrt:argv_parsing.obj
 0001:0003f498       ??1?$__crt_unique_heap_ptr@PADU__crt_internal_free_policy@@@@QAE@XZ 10040498 f i libucrt:argv_parsing.obj
 0001:0003f4ae       ??1?$__crt_unique_heap_ptr@PA_WU__crt_internal_free_policy@@@@QAE@XZ 100404ae f i libucrt:argv_parsing.obj
 0001:0003f4c4       ??B?$__crt_unique_heap_ptr@EU__crt_internal_free_policy@@@@QBE_NXZ 100404c4 f i libucrt:argv_parsing.obj
 0001:0003f501       ?detach@?$__crt_unique_heap_ptr@EU__crt_internal_free_policy@@@@QAEPAEXZ 10040501 f i libucrt:argv_parsing.obj
 0001:0003f507       ?detach@?$__crt_unique_heap_ptr@PADU__crt_internal_free_policy@@@@QAEPAPADXZ 10040507 f i libucrt:argv_parsing.obj
 0001:0003f50d       ?detach@?$__crt_unique_heap_ptr@PA_WU__crt_internal_free_policy@@@@QAEPAPA_WXZ 1004050d f i libucrt:argv_parsing.obj
 0001:0003f533       ?get@?$__crt_unique_heap_ptr@EU__crt_internal_free_policy@@@@QBEPAEXZ 10040533 f i libucrt:argv_parsing.obj
 0001:0003f536       ?get@?$__crt_unique_heap_ptr@PADU__crt_internal_free_policy@@@@QBEPAPADXZ 10040536 f i libucrt:argv_parsing.obj
 0001:0003f539       ?get@?$__crt_unique_heap_ptr@PA_WU__crt_internal_free_policy@@@@QBEPAPA_WXZ 10040539 f i libucrt:argv_parsing.obj
 0001:0003f53c       ?get_address_of@?$__crt_unique_heap_ptr@PADU__crt_internal_free_policy@@@@QAEPAPAPADXZ 1004053c f i libucrt:argv_parsing.obj
 0001:0003f53f       ?get_address_of@?$__crt_unique_heap_ptr@PA_WU__crt_internal_free_policy@@@@QAEPAPAPA_WXZ 1004053f f i libucrt:argv_parsing.obj
 0001:0003f55a       ?is_valid@?$__crt_unique_heap_ptr@EU__crt_internal_free_policy@@@@QBE_NXZ 1004055a f i libucrt:argv_parsing.obj
 0001:0003f561       ?release@?$__crt_unique_heap_ptr@EU__crt_internal_free_policy@@@@QAEXXZ 10040561 f i libucrt:argv_parsing.obj
 0001:0003f577       ?release@?$__crt_unique_heap_ptr@PADU__crt_internal_free_policy@@@@QAEXXZ 10040577 f i libucrt:argv_parsing.obj
 0001:0003f58d       ?release@?$__crt_unique_heap_ptr@PA_WU__crt_internal_free_policy@@@@QAEXXZ 1004058d f i libucrt:argv_parsing.obj
 0001:0003f5c2       ___acrt_allocate_buffer_for_argv 100405c2 f   libucrt:argv_parsing.obj
 0001:0003f624       __configure_narrow_argv    10040624 f   libucrt:argv_parsing.obj
 0001:0003f631       __configure_wide_argv      10040631 f   libucrt:argv_parsing.obj
 0001:0003f63e       __set_pgmptr               1004063e f i libucrt:argv_parsing.obj
 0001:0003f650       __set_wpgmptr              10040650 f i libucrt:argv_parsing.obj
 0001:0003f662       ??$?R_W@__crt_internal_free_policy@@QBEXQB_W@Z 10040662 f i libucrt:environment_initialization.obj
 0001:0003fb48       ??$get_environment_from_os@$$V@?$__crt_char_traits@D@@SAPADXZ 10040b48 f i libucrt:environment_initialization.obj
 0001:0003fb4d       ??$get_environment_from_os@$$V@?$__crt_char_traits@_W@@SAPA_WXZ 10040b4d f i libucrt:environment_initialization.obj
 0001:0003fc9e       ??$set_variable_in_environment_nolock@PADH@?$__crt_char_traits@D@@SAH$$QAPAD$$QAH@Z 10040c9e f i libucrt:environment_initialization.obj
 0001:0003fcbc       ??$set_variable_in_environment_nolock@PA_WH@?$__crt_char_traits@_W@@SAH$$QAPA_W$$QAH@Z 10040cbc f i libucrt:environment_initialization.obj
 0001:0003fcda       ??$tcscpy_s@PADABIAAPAD@?$__crt_char_traits@D@@SAH$$QAPADABIAAPAD@Z 10040cda f i libucrt:environment_initialization.obj
 0001:0003fcff       ??$tcscpy_s@PA_WABIAAPA_W@?$__crt_char_traits@_W@@SAH$$QAPA_WABIAAPA_W@Z 10040cff f i libucrt:environment_initialization.obj
 0001:0003fd24       ??$tcslen@AAPAD@?$__crt_char_traits@D@@SAIAAPAD@Z 10040d24 f i libucrt:environment_initialization.obj
 0001:0003fd42       ??$tcslen@AAPA_W@?$__crt_char_traits@_W@@SAIAAPA_W@Z 10040d42 f i libucrt:environment_initialization.obj
 0001:0003fd67       ??$uninitialize@A6AXAAPAPAD@Z@?$dual_state_global@PAPAD@__crt_state_management@@QAEXA6AXAAPAPAD@Z@Z 10040d67 f i libucrt:environment_initialization.obj
 0001:0003fdb7       ??$uninitialize@A6AXAAPAPA_W@Z@?$dual_state_global@PAPA_W@__crt_state_management@@QAEXA6AXAAPAPA_W@Z@Z 10040db7 f i libucrt:environment_initialization.obj
 0001:0003fe49       ??0?$__crt_unique_heap_ptr@_WU__crt_internal_free_policy@@@@QAE@QA_W@Z 10040e49 f i libucrt:environment_initialization.obj
 0001:0003fe5d       ??1?$__crt_unique_heap_ptr@_WU__crt_internal_free_policy@@@@QAE@XZ 10040e5d f i libucrt:environment_initialization.obj
 0001:0003fe73       ??B?$__crt_unique_heap_ptr@PADU__crt_internal_free_policy@@@@QBE_NXZ 10040e73 f i libucrt:environment_initialization.obj
 0001:0003fe7a       ??B?$__crt_unique_heap_ptr@PA_WU__crt_internal_free_policy@@@@QBE_NXZ 10040e7a f i libucrt:environment_initialization.obj
 0001:0003fe81       ??B?$__crt_unique_heap_ptr@_WU__crt_internal_free_policy@@@@QBE_NXZ 10040e81 f i libucrt:environment_initialization.obj
 0001:0003fe88       ?__crt_compute_required_transform_buffer_count@@YAIIQBD@Z 10040e88 f i libucrt:environment_initialization.obj
 0001:0003feab       ?__crt_compute_required_transform_buffer_count@@YAIIQB_W@Z 10040eab f i libucrt:environment_initialization.obj
 0001:0003fed0       ?__crt_transform_string@@YAIIQBDQA_WI@Z 10040ed0 f i libucrt:environment_initialization.obj
 0001:0003fef6       ?__crt_transform_string@@YAIIQB_WQADI@Z 10040ef6 f i libucrt:environment_initialization.obj
 0001:0003ff20       ?detach@?$__crt_unique_heap_ptr@DU__crt_internal_free_policy@@@@QAEPADXZ 10040f20 f i libucrt:environment_initialization.obj
 0001:0003ff26       ?detach@?$__crt_unique_heap_ptr@_WU__crt_internal_free_policy@@@@QAEPA_WXZ 10040f26 f i libucrt:environment_initialization.obj
 0001:0003ff2c       ?get@?$__crt_unique_heap_ptr@_WU__crt_internal_free_policy@@@@QBEPA_WXZ 10040f2c f i libucrt:environment_initialization.obj
 0001:0003ff2f       ?get_current_state_index@__crt_state_management@@YAIXZ 10040f2f f i libucrt:environment_initialization.obj
 0001:0003ff56       ?initialize@?$dual_state_global@PAPAD@__crt_state_management@@QAEXQAPAD@Z 10040f56 f i libucrt:environment_initialization.obj
 0001:0003ff85       ?initialize@?$dual_state_global@PAPA_W@__crt_state_management@@QAEXQAPA_W@Z 10040f85 f i libucrt:environment_initialization.obj
 0001:0003ffb4       ?is_valid@?$__crt_unique_heap_ptr@PADU__crt_internal_free_policy@@@@QBE_NXZ 10040fb4 f i libucrt:environment_initialization.obj
 0001:0003ffbb       ?is_valid@?$__crt_unique_heap_ptr@PA_WU__crt_internal_free_policy@@@@QBE_NXZ 10040fbb f i libucrt:environment_initialization.obj
 0001:0003ffc2       ?is_valid@?$__crt_unique_heap_ptr@_WU__crt_internal_free_policy@@@@QBE_NXZ 10040fc2 f i libucrt:environment_initialization.obj
 0001:0003ffcf       ?release@?$__crt_unique_heap_ptr@_WU__crt_internal_free_policy@@@@QAEXXZ 10040fcf f i libucrt:environment_initialization.obj
 0001:0003ffe5       ?value@?$dual_state_global@PAPAD@__crt_state_management@@QAEAAPAPADXZ 10040fe5 f i libucrt:environment_initialization.obj
 0001:0003ffe8       ?value@?$dual_state_global@PAPA_W@__crt_state_management@@QAEAAPAPA_WXZ 10040fe8 f i libucrt:environment_initialization.obj
 0001:0003ffeb       ___dcrt_get_or_create_narrow_environment_nolock 10040feb f   libucrt:environment_initialization.obj
 0001:0003fff0       ___dcrt_get_or_create_wide_environment_nolock 10040ff0 f   libucrt:environment_initialization.obj
 0001:0003fff5       ___dcrt_uninitialize_environments_nolock 10040ff5 f   libucrt:environment_initialization.obj
 0001:00040039       ___p__environ              10041039 f   libucrt:environment_initialization.obj
 0001:0004003f       ___p__wenviron             1004103f f   libucrt:environment_initialization.obj
 0001:00040045       __get_initial_narrow_environment 10041045 f   libucrt:environment_initialization.obj
 0001:0004005e       __get_initial_wide_environment 1004105e f   libucrt:environment_initialization.obj
 0001:00040077       __initialize_narrow_environment 10041077 f   libucrt:environment_initialization.obj
 0001:0004007c       __initialize_wide_environment 1004107c f   libucrt:environment_initialization.obj
 0001:00040081       ??$?BP6AXXZ@__crt_fast_encoded_nullptr_t@@QBEPAP6AXXZXZ 10041081 f i libucrt:onexit.obj
 0001:0004009f       ??$?RP6AXXZ@__crt_internal_free_policy@@QBEXQBQ6AXXZ@Z 1004109f f i libucrt:onexit.obj
 0001:000401e3       ??$__crt_fast_encode_pointer@P6AHXZ@@YAP6AHXZQ6AHXZ@Z 100411e3 f i libucrt:onexit.obj
 0001:00040290       ??0?$__crt_unique_heap_ptr@P6AXXZU__crt_internal_free_policy@@@@QAE@QAP6AXXZ@Z 10041290 f i libucrt:onexit.obj
 0001:000402a4       ??1?$__crt_unique_heap_ptr@P6AXXZU__crt_internal_free_policy@@@@QAE@XZ 100412a4 f i libucrt:onexit.obj
 0001:000402ba       ??1scoped_global_state_reset@__crt_state_management@@QAE@XZ 100412ba f i libucrt:onexit.obj
 0001:000405e5       ?detach@?$__crt_unique_heap_ptr@P6AXXZU__crt_internal_free_policy@@@@QAEPAP6AXXZXZ 100415e5 f i libucrt:onexit.obj
 0001:000405eb       ?release@?$__crt_unique_heap_ptr@P6AXXZU__crt_internal_free_policy@@@@QAEXXZ 100415eb f i libucrt:onexit.obj
 0001:00040601       __crt_at_quick_exit        10041601 f   libucrt:onexit.obj
 0001:0004061c       __crt_atexit               1004161c f   libucrt:onexit.obj
 0001:00040637       __execute_onexit_table     10041637 f   libucrt:onexit.obj
 0001:00040671       __initialize_onexit_table  10041671 f   libucrt:onexit.obj
 0001:000406bd       __register_onexit_function 100416bd f   libucrt:onexit.obj
 0001:00040888       ?__acrt_stdio_is_initialized@@YA_NXZ 10041888 f i libucrt:initialization.obj
 0001:00040895       ?initialize@?$dual_state_global@PAU__crt_locale_data@@@__crt_state_management@@QAEXQAU__crt_locale_data@@@Z 10041895 f i libucrt:initialization.obj
 0001:000408c4       ___acrt_initialize         100418c4 f   libucrt:initialization.obj
 0001:000408da       ___acrt_thread_attach      100418da f   libucrt:initialization.obj
 0001:000408e7       ___acrt_thread_detach      100418e7 f   libucrt:initialization.obj
 0001:000408f1       ___acrt_uninitialize       100418f1 f   libucrt:initialization.obj
 0001:0004092d       ___acrt_uninitialize_critical 1004192d f   libucrt:initialization.obj
 0001:0004095e       __get_terminate            1004195e f   libucrt:terminate.obj
 0001:00040974       _set_terminate             10041974 f   libucrt:terminate.obj
 0001:0004099c       _terminate                 1004199c f   libucrt:terminate.obj
 0001:00040a57       _strcpy_s                  10041a57 f   libucrt:strcpy_s.obj
 0001:00040ac7       ??$is_overflow_condition@K@__crt_strtox@@YA_NIK@Z 10041ac7 f i libucrt:atox.obj
 0001:00040b04       ??$is_overflow_condition@_K@__crt_strtox@@YA_NI_K@Z 10041b04 f i libucrt:atox.obj
 0001:00040b55       ??$make_c_string_character_source@D$$T@__crt_strtox@@YA?AV?$c_string_character_source@D@0@QBD$$T@Z 10041b55 f i libucrt:atox.obj
 0001:00040b76       ??$make_c_string_character_source@_W$$T@__crt_strtox@@YA?AV?$c_string_character_source@_W@0@QB_W$$T@Z 10041b76 f i libucrt:atox.obj
 0001:00040b97       ??$parse_integer@KV?$c_string_character_source@D@__crt_strtox@@@__crt_strtox@@YAKQAU__crt_locale_pointers@@V?$c_string_character_source@D@0@H_N@Z 10041b97 f i libucrt:atox.obj
 0001:00040e4a       ??$parse_integer@KV?$c_string_character_source@_W@__crt_strtox@@@__crt_strtox@@YAKQAU__crt_locale_pointers@@V?$c_string_character_source@_W@0@H_N@Z 10041e4a f i libucrt:atox.obj
 0001:0004161b       ??$parse_integer@_KV?$c_string_character_source@D@__crt_strtox@@@__crt_strtox@@YA_KQAU__crt_locale_pointers@@V?$c_string_character_source@D@0@H_N@Z 1004261b f i libucrt:atox.obj
 0001:0004196b       ??$parse_integer@_KV?$c_string_character_source@_W@__crt_strtox@@@__crt_strtox@@YA_KQAU__crt_locale_pointers@@V?$c_string_character_source@_W@0@H_N@Z 1004296b f i libucrt:atox.obj
 0001:00042238       ??$parse_integer_from_string@JD$$T@__crt_strtox@@YAJQBD$$THQAU__crt_locale_pointers@@@Z 10043238 f i libucrt:atox.obj
 0001:00042270       ??$parse_integer_from_string@J_W$$T@__crt_strtox@@YAJQB_W$$THQAU__crt_locale_pointers@@@Z 10043270 f i libucrt:atox.obj
 0001:000422a8       ??$parse_integer_from_string@_JD$$T@__crt_strtox@@YA_JQBD$$THQAU__crt_locale_pointers@@@Z 100432a8 f i libucrt:atox.obj
 0001:000422e0       ??$parse_integer_from_string@_J_W$$T@__crt_strtox@@YA_JQB_W$$THQAU__crt_locale_pointers@@@Z 100432e0 f i libucrt:atox.obj
 0001:00042318       ??0?$c_string_character_source@D@__crt_strtox@@QAE@QBDQAPBD@Z 10043318 f i libucrt:atox.obj
 0001:0004233b       ??0?$c_string_character_source@_W@__crt_strtox@@QAE@QB_WQAPB_W@Z 1004333b f i libucrt:atox.obj
 0001:0004235e       ??1?$c_string_character_source@D@__crt_strtox@@QAE@XZ 1004335e f i libucrt:atox.obj
 0001:0004236d       ??1?$c_string_character_source@_W@__crt_strtox@@QAE@XZ 1004336d f i libucrt:atox.obj
 0001:0004237c       ?get@?$c_string_character_source@D@__crt_strtox@@QAEDXZ 1004337c f i libucrt:atox.obj
 0001:00042386       ?get@?$c_string_character_source@_W@__crt_strtox@@QAE_WXZ 10043386 f i libucrt:atox.obj
 0001:00042393       ?is_space@__crt_strtox@@YA_NDQAU__crt_locale_pointers@@@Z 10043393 f i libucrt:atox.obj
 0001:000423b8       ?is_space@__crt_strtox@@YA_N_WPAU__crt_locale_pointers@@@Z 100433b8 f i libucrt:atox.obj
 0001:000423d6       ?maximum_signed_value@__crt_strtox@@YAJK@Z 100433d6 f i libucrt:atox.obj
 0001:000423dc       ?maximum_signed_value@__crt_strtox@@YA_J_K@Z 100433dc f i libucrt:atox.obj
 0001:000423e7       ?minimum_signed_value@__crt_strtox@@YAJK@Z 100433e7 f i libucrt:atox.obj
 0001:000423ed       ?minimum_signed_value@__crt_strtox@@YA_J_K@Z 100433ed f i libucrt:atox.obj
 0001:000423f7       ?parse_digit@__crt_strtox@@YAID@Z 100433f7 f i libucrt:atox.obj
 0001:0004243f       ?parse_digit@__crt_strtox@@YAI_W@Z 1004343f f i libucrt:atox.obj
 0001:000426b0       ?restore_state@?$c_string_character_source@D@__crt_strtox@@QAE_NQBD@Z 100436b0 f i libucrt:atox.obj
 0001:000426c4       ?restore_state@?$c_string_character_source@_W@__crt_strtox@@QAE_NQB_W@Z 100436c4 f i libucrt:atox.obj
 0001:000426d8       ?save_state@?$c_string_character_source@D@__crt_strtox@@QBEPBDXZ 100436d8 f i libucrt:atox.obj
 0001:000426db       ?save_state@?$c_string_character_source@_W@__crt_strtox@@QBEPB_WXZ 100436db f i libucrt:atox.obj
 0001:000426de       ?unget@?$c_string_character_source@D@__crt_strtox@@QAEXD@Z 100436de f i libucrt:atox.obj
 0001:00042711       ?unget@?$c_string_character_source@_W@__crt_strtox@@QAEX_W@Z 10043711 f i libucrt:atox.obj
 0001:0004274a       ?validate@?$c_string_character_source@D@__crt_strtox@@QBE_NXZ 1004374a f i libucrt:atox.obj
 0001:0004276b       ?validate@?$c_string_character_source@_W@__crt_strtox@@QBE_NXZ 1004376b f i libucrt:atox.obj
 0001:0004278c       ?wide_character_to_digit@__crt_strtox@@YAH_W@Z 1004378c f i libucrt:atox.obj
 0001:00042995       ___acrt_get_locale_data_prefix 10043995 f i libucrt:atox.obj
 0001:000429a4       __atoi64                   100439a4 f   libucrt:atox.obj
 0001:000429d2       __atoi64_l                 100439d2 f   libucrt:atox.obj
 0001:00042a01       __atoi_l                   10043a01 f   libucrt:atox.obj
 0001:00042a30       __atol_l                   10043a30 f   libucrt:atox.obj
 0001:00042a5f       __atoll_l                  10043a5f f   libucrt:atox.obj
 0001:00042a8e       __chvalidchk_l             10043a8e f i libucrt:atox.obj
 0001:00042abd       __ischartype_l             10043abd f i libucrt:atox.obj
 0001:00042afc       __wtoi                     10043afc f   libucrt:atox.obj
 0001:00042b2a       __wtoi64                   10043b2a f   libucrt:atox.obj
 0001:00042b58       __wtoi64_l                 10043b58 f   libucrt:atox.obj
 0001:00042b87       __wtoi_l                   10043b87 f   libucrt:atox.obj
 0001:00042bb6       __wtol                     10043bb6 f   libucrt:atox.obj
 0001:00042be4       __wtol_l                   10043be4 f   libucrt:atox.obj
 0001:00042c13       __wtoll                    10043c13 f   libucrt:atox.obj
 0001:00042c41       __wtoll_l                  10043c41 f   libucrt:atox.obj
 0001:00042c70       _atoi                      10043c70 f   libucrt:atox.obj
 0001:00042c9e       _atol                      10043c9e f   libucrt:atox.obj
 0001:00042ccc       _atoll                     10043ccc f   libucrt:atox.obj
 0001:00042d00       _strncmp                   10043d00 f   libucrt:strncmp.obj
 0001:00042d96       __set_abort_behavior       10043d96 f   libucrt:abort.obj
 0001:00042dbf       _abort                     10043dbf f   libucrt:abort.obj
 0001:00042e14       _wcsncmp                   10043e14 f   libucrt:wcsncmp.obj
 0001:00042e5c       __malloc_base              10043e5c f   libucrt:malloc_base.obj
 0001:00042ebd       __calloc_base              10043ebd f   libucrt:calloc_base.obj
 0001:00042f37       __free_base                10043f37 f   libucrt:free_base.obj
 0001:00042f7f       ??$__crt_fast_decode_pointer@P6AXPB_W00II@Z@@YAP6AXPB_W00II@ZQ6AX000II@Z@Z 10043f7f f i libucrt:invalid_parameter.obj
 0001:00042f9a       ??$__crt_fast_encode_pointer@P6AXPB_W00II@Z@@YAP6AXPB_W00II@ZQ6AX000II@Z@Z 10043f9a f i libucrt:invalid_parameter.obj
 0001:00042fc0       ??$initialize_from_array@$$BY00Q6AXPB_W00II@Z@?$dual_state_global@P6AXPB_W00II@Z@__crt_state_management@@QAAXAAY00Q6AXPB_W00II@Z@Z 10043fc0 f i libucrt:invalid_parameter.obj
 0001:00042fd5       ?dangerous_get_state_array@?$dual_state_global@P6AXPB_W00II@Z@__crt_state_management@@QAEPAP6AXPB_W00II@ZXZ 10043fd5 f i libucrt:invalid_parameter.obj
 0001:00042fd8       ?value@?$dual_state_global@P6AXPB_W00II@Z@__crt_state_management@@QAEAAP6AXPB_W00II@ZXZ 10043fd8 f i libucrt:invalid_parameter.obj
 0001:00042fdb       ___acrt_call_reportfault   10043fdb f   libucrt:invalid_parameter.obj
 0001:00043164       ___acrt_initialize_invalid_parameter_handler 10044164 f   libucrt:invalid_parameter.obj
 0001:00043176       __get_invalid_parameter_handler 10044176 f   libucrt:invalid_parameter.obj
 0001:0004318d       __get_thread_local_invalid_parameter_handler 1004418d f   libucrt:invalid_parameter.obj
 0001:000431a2       __invalid_parameter        100441a2 f   libucrt:invalid_parameter.obj
 0001:0004323b       __invalid_parameter_noinfo 1004423b f   libucrt:invalid_parameter.obj
 0001:0004324f       __invalid_parameter_noinfo_noreturn 1004424f f   libucrt:invalid_parameter.obj
 0001:00043273       __invoke_watson            10044273 f   libucrt:invalid_parameter.obj
 0001:000432b4       __set_invalid_parameter_handler 100442b4 f   libucrt:invalid_parameter.obj
 0001:000432f0       __set_thread_local_invalid_parameter_handler 100442f0 f   libucrt:invalid_parameter.obj
 0001:000433db       ___acrt_report_runtime_error 100443db f   libucrt:report_runtime_error.obj
 0001:00043535       __query_app_type           10044535 f   libucrt:report_runtime_error.obj
 0001:0004353b       __set_app_type             1004453b f   libucrt:report_runtime_error.obj
 0001:0004354d       ___acrt_errno_from_os_error 1004454d f   libucrt:errno.obj
 0001:000435a0       ___acrt_errno_map_os_error 100445a0 f   libucrt:errno.obj
 0001:000435cb       ___doserrno                100445cb f   libucrt:errno.obj
 0001:000435e2       __errno                    100445e2 f   libucrt:errno.obj
 0001:000435f9       __get_doserrno             100445f9 f   libucrt:errno.obj
 0001:00043627       __get_errno                10044627 f   libucrt:errno.obj
 0001:00043655       __set_doserrno             10044655 f   libucrt:errno.obj
 0001:0004367e       __set_errno                1004467e f   libucrt:errno.obj
 0001:00043cac       __i64toa                   10044cac f   libucrt:xtoa.obj
 0001:00043cff       __i64toa_s                 10044cff f   libucrt:xtoa.obj
 0001:00043d50       __i64tow                   10044d50 f   libucrt:xtoa.obj
 0001:00043da3       __i64tow_s                 10044da3 f   libucrt:xtoa.obj
 0001:00043df4       __itoa                     10044df4 f   libucrt:xtoa.obj
 0001:00043e38       __itoa_s                   10044e38 f   libucrt:xtoa.obj
 0001:00043e7a       __itow                     10044e7a f   libucrt:xtoa.obj
 0001:00043ebe       __itow_s                   10044ebe f   libucrt:xtoa.obj
 0001:00043f00       __ltoa                     10044f00 f   libucrt:xtoa.obj
 0001:00043f44       __ltoa_s                   10044f44 f   libucrt:xtoa.obj
 0001:00043f86       __ltow                     10044f86 f   libucrt:xtoa.obj
 0001:00043fca       __ltow_s                   10044fca f   libucrt:xtoa.obj
 0001:0004400c       __ui64toa                  1004500c f   libucrt:xtoa.obj
 0001:00044036       __ui64toa_s                10045036 f   libucrt:xtoa.obj
 0001:0004405e       __ui64tow                  1004505e f   libucrt:xtoa.obj
 0001:00044088       __ui64tow_s                10045088 f   libucrt:xtoa.obj
 0001:000440b0       __ultoa                    100450b0 f   libucrt:xtoa.obj
 0001:000440d6       __ultoa_s                  100450d6 f   libucrt:xtoa.obj
 0001:000440fa       __ultow                    100450fa f   libucrt:xtoa.obj
 0001:00044120       __ultow_s                  10045120 f   libucrt:xtoa.obj
 0001:00044144       __set_error_mode           10045144 f   libucrt:set_error_mode.obj
 0001:00044220       _wcscat_s                  10045220 f   libucrt:wcscat_s.obj
 0001:0004432a       _wcscpy_s                  1004532a f   libucrt:wcscpy_s.obj
 0001:000444ca       _wcsncat_s                 100454ca f   libucrt:wcsncat_s.obj
 0001:0004455a       _strcat_s                  1004555a f   libucrt:strcat_s.obj
 0001:000446e1       _strncat_s                 100456e1 f   libucrt:strncat_s.obj
 0001:000446ee       ___acrt_GetModuleFileNameA 100456ee f   libucrt:getmodulefilenamea.obj
 0001:000448a6       ??$message_box@$$TABQBDABQBDK@?$__crt_char_traits@D@@SAH$$QA$$TABQBD1$$QAK@Z 100458a6 f i libucrt:crtmbox.obj
 0001:000448ce       ??$message_box@$$TABQB_WABQB_WK@?$__crt_char_traits@_W@@SAH$$QA$$TABQB_W1$$QAK@Z 100458ce f i libucrt:crtmbox.obj
 0001:000448f6       ??$message_box@PAUHWND__@@ABQBDABQBDABI@?$__crt_char_traits@D@@SAH$$QAPAUHWND__@@ABQBD1ABI@Z 100458f6 f i libucrt:crtmbox.obj
 0001:0004491e       ??$message_box@PAUHWND__@@ABQB_WABQB_WABI@?$__crt_char_traits@_W@@SAH$$QAPAUHWND__@@ABQB_W1ABI@Z 1004591e f i libucrt:crtmbox.obj
 0001:00044946       ??$output_debug_string@ABQBD@?$__crt_char_traits@D@@SAXABQBD@Z 10045946 f i libucrt:crtmbox.obj
 0001:0004495b       ??$output_debug_string@ABQB_W@?$__crt_char_traits@_W@@SAXABQB_W@Z 1004595b f i libucrt:crtmbox.obj
 0001:00044971       ___acrt_show_narrow_message_box 10045971 f   libucrt:crtmbox.obj
 0001:0004497e       ___acrt_show_wide_message_box 1004597e f   libucrt:crtmbox.obj
 0001:00044cdc       ??0__crt_stdio_stream@@QAE@QAU__crt_stdio_stream_data@@@Z 10045cdc f i libucrt:fflush.obj
 0001:00044f45       ___acrt_stdio_flush_nolock 10045f45 f   libucrt:fflush.obj
 0001:00044fc0       __fflush_nolock            10045fc0 f   libucrt:fflush.obj
 0001:00045018       __flushall                 10046018 f   libucrt:fflush.obj
 0001:00045023       _fflush                    10046023 f   libucrt:fflush.obj
 0001:0004528e       _setvbuf                   1004628e f   libucrt:setvbuf.obj
 0001:00045333       ??$?B$$A6AXH@Z@__crt_fast_encoded_nullptr_t@@QBEP6AXH@ZXZ 10046333 f i libucrt:signal.obj
 0001:000453f3       ??$__crt_fast_decode_pointer@P6AXH@Z@@YAP6AXH@ZQ6AXH@Z@Z 100463f3 f i libucrt:signal.obj
 0001:0004540e       ??$__crt_fast_encode_pointer@P6AXH@Z@@YAP6AXH@ZQ6AXH@Z@Z 1004640e f i libucrt:signal.obj
 0001:000455b8       ?initialize@?$dual_state_global@P6AXH@Z@__crt_state_management@@QAEXQ6AXH@Z@Z 100465b8 f i libucrt:signal.obj
 0001:00045696       ?value@?$dual_state_global@P6AXH@Z@__crt_state_management@@QAEAAP6AXH@ZXZ 10046696 f i libucrt:signal.obj
 0001:00045699       ___acrt_get_sigabrt_handler 10046699 f   libucrt:signal.obj
 0001:000456cc       ___acrt_initialize_signal_handlers 100466cc f   libucrt:signal.obj
 0001:000456f1       ___fpecode                 100466f1 f   libucrt:signal.obj
 0001:000456fc       ___pxcptinfoptrs           100466fc f   libucrt:signal.obj
 0001:00045707       _raise                     10046707 f   libucrt:signal.obj
 0001:00045989       _signal                    10046989 f   libucrt:signal.obj
 0001:00045ba6       __realloc_base             10046ba6 f   libucrt:realloc_base.obj
 0001:00045c29       ___acrt_initialize_locks   10046c29 f   libucrt:locks.obj
 0001:00045c7a       ___acrt_lock               10046c7a f   libucrt:locks.obj
 0001:00045c96       ___acrt_uninitialize_locks 10046c96 f   libucrt:locks.obj
 0001:00045cd3       ___acrt_unlock             10046cd3 f   libucrt:locks.obj
 0001:00045cef       __lock_locales             10046cef f   libucrt:locks.obj
 0001:00045d00       __unlock_locales           10046d00 f   libucrt:locks.obj
 0001:00045f1e       ___acrt_get_begin_thread_init_policy 10046f1e f   libucrt:win_policies.obj
 0001:00045f74       ___acrt_get_developer_information_policy 10046f74 f   libucrt:win_policies.obj
 0001:00045fca       ___acrt_get_process_end_policy 10046fca f   libucrt:win_policies.obj
 0001:00046009       ___acrt_get_windowing_model_policy 10047009 f   libucrt:win_policies.obj
 0001:0004608d       ??$?B$$A6GHPA_WKJ@Z@__crt_fast_encoded_nullptr_t@@QBEP6GHPA_WKJ@ZXZ 1004708d f i libucrt:winapi_thunks.obj
 0001:00046187       ??$__crt_fast_decode_pointer@P6GHPA_WKJ@Z@@YAP6GHPA_WKJ@ZQ6GH0KJ@Z@Z 10047187 f i libucrt:winapi_thunks.obj
 0001:000461a2       ??$__crt_fast_encode_pointer@P6GHPA_WKJ@Z@@YAP6GHPA_WKJ@ZQ6GH0KJ@Z@Z 100471a2 f i libucrt:winapi_thunks.obj
 0001:00046a01       _GetCurrentThreadEffectiveToken 10047a01 f i libucrt:winapi_thunks.obj
 0001:00046a05       ___acrt_AppPolicyGetProcessTerminationMethodInternal@4 10047a05 f   libucrt:winapi_thunks.obj
 0001:00046a71       ___acrt_AppPolicyGetShowDeveloperDiagnosticInternal@4 10047a71 f   libucrt:winapi_thunks.obj
 0001:00046add       ___acrt_AppPolicyGetThreadInitializationTypeInternal@4 10047add f   libucrt:winapi_thunks.obj
 0001:00046b49       ___acrt_AppPolicyGetWindowingModelInternal@4 10047b49 f   libucrt:winapi_thunks.obj
 0001:00046bb5       ___acrt_AreFileApisANSI@0  10047bb5 f   libucrt:winapi_thunks.obj
 0001:00046bfd       ___acrt_CompareStringEx@36 10047bfd f   libucrt:winapi_thunks.obj
 0001:00046c8e       ___acrt_EnumSystemLocalesEx@16 10047c8e f   libucrt:winapi_thunks.obj
 0001:00046d12       ___acrt_FlsAlloc@4         10047d12 f   libucrt:winapi_thunks.obj
 0001:00046d7d       ___acrt_FlsFree@4          10047d7d f   libucrt:winapi_thunks.obj
 0001:00046de8       ___acrt_FlsGetValue@4      10047de8 f   libucrt:winapi_thunks.obj
 0001:00046e53       ___acrt_FlsSetValue@8      10047e53 f   libucrt:winapi_thunks.obj
 0001:00046ec2       ___acrt_GetDateFormatEx@28 10047ec2 f   libucrt:winapi_thunks.obj
 0001:00046f4b       ___acrt_GetEnabledXStateFeatures@0 10047f4b f   libucrt:winapi_thunks.obj
 0001:00046fad       ___acrt_GetLocaleInfoEx@16 10047fad f   libucrt:winapi_thunks.obj
 0001:00047018       ___acrt_GetSystemTimePreciseAsFileTime@4 10048018 f   libucrt:winapi_thunks.obj
 0001:00047083       ___acrt_GetTimeFormatEx@24 10048083 f   libucrt:winapi_thunks.obj
 0001:000470f6       ___acrt_GetUserDefaultLocaleName@8 100480f6 f   libucrt:winapi_thunks.obj
 0001:0004715d       ___acrt_GetXStateFeaturesMask@8 1004815d f   libucrt:winapi_thunks.obj
 0001:000471c9       ___acrt_InitializeCriticalSectionEx@12 100481c9 f   libucrt:winapi_thunks.obj
 0001:00047243       ___acrt_IsValidLocaleName@4 10048243 f   libucrt:winapi_thunks.obj
 0001:000472a5       ___acrt_LCIDToLocaleName@16 100482a5 f   libucrt:winapi_thunks.obj
 0001:00047310       ___acrt_LCMapStringEx@36   10048310 f   libucrt:winapi_thunks.obj
 0001:000473a1       ___acrt_LocaleNameToLCID@8 100483a1 f   libucrt:winapi_thunks.obj
 0001:000473fb       ___acrt_LocateXStateFeature@12 100483fb f   libucrt:winapi_thunks.obj
 0001:00047452       ___acrt_MessageBoxA@16     10048452 f   libucrt:winapi_thunks.obj
 0001:000474ad       ___acrt_MessageBoxW@16     100484ad f   libucrt:winapi_thunks.obj
 0001:00047508       ___acrt_RoInitialize@4     10048508 f   libucrt:winapi_thunks.obj
 0001:0004756e       ___acrt_RoUninitialize@0   1004856e f   libucrt:winapi_thunks.obj
 0001:000475c9       ___acrt_RtlGenRandom@8     100485c9 f   libucrt:winapi_thunks.obj
 0001:00047635       ___acrt_SetThreadStackGuarantee@4 10048635 f   libucrt:winapi_thunks.obj
 0001:0004769b       ___acrt_can_show_message_box 1004869b f   libucrt:winapi_thunks.obj
 0001:000476cb       ___acrt_can_use_vista_locale_apis 100486cb f   libucrt:winapi_thunks.obj
 0001:000476d8       ___acrt_can_use_xstate_apis 100486d8 f   libucrt:winapi_thunks.obj
 0001:000476e5       ___acrt_eagerly_load_locale_apis 100486e5 f   libucrt:winapi_thunks.obj
 0001:00047729       ___acrt_get_parent_window  10048729 f   libucrt:winapi_thunks.obj
 0001:000477c7       ___acrt_initialize_winapi_thunks 100487c7 f   libucrt:winapi_thunks.obj
 0001:00047812       ___acrt_is_interactive     10048812 f   libucrt:winapi_thunks.obj
 0001:000478e1       ___acrt_uninitialize_winapi_thunks 100488e1 f   libucrt:winapi_thunks.obj
 0001:00047924       __fcloseall                10048924 f   libucrt:closeall.obj
 0001:000479ec       ?has_crt_buffer@__crt_stdio_stream@@QBE_NXZ 100489ec f i libucrt:_freebuf.obj
 0001:000479f9       ___acrt_stdio_free_buffer_nolock 100489f9 f   libucrt:_freebuf.obj
 0001:00047c37       ___acrt_initialize_lowio   10048c37 f   libucrt:ioinit.obj
 0001:00047ca2       ___acrt_uninitialize_lowio 10048ca2 f   libucrt:ioinit.obj
 0001:00047ece       __close                    10048ece f   libucrt:close.obj
 0001:00047f80       __close_nolock             10048f80 f   libucrt:close.obj
 0001:00048043       ?lowio_handle@__crt_stdio_stream@@QBEHXZ 10049043 f i libucrt:fileno.obj
 0001:00048049       __fileno                   10049049 f   libucrt:fileno.obj
 0001:00048078       ??$?RU__crt_stdio_stream_data@@@__crt_internal_free_policy@@QBEXQBU__crt_stdio_stream_data@@@Z 10049078 f i libucrt:stream.obj
 0001:0004808e       ??0?$__crt_unique_heap_ptr@U__crt_stdio_stream_data@@U__crt_internal_free_policy@@@@QAE@QAU__crt_stdio_stream_data@@@Z 1004908e f i libucrt:stream.obj
 0001:000480a2       ??0__crt_stdio_stream@@QAE@XZ 100490a2 f i libucrt:stream.obj
 0001:000480a8       ??1?$__crt_unique_heap_ptr@U__crt_stdio_stream_data@@U__crt_internal_free_policy@@@@QAE@XZ 100490a8 f i libucrt:stream.obj
 0001:000480be       ?__acrt_stdio_allocate_stream@@YA?AV__crt_stdio_stream@@XZ 100490be f   libucrt:stream.obj
 0001:00048134       ?__acrt_stdio_free_stream@@YAXV__crt_stdio_stream@@@Z 10049134 f   libucrt:stream.obj
 0001:0004817d       ?deallocate@__crt_stdio_stream@@QAEXXZ 1004917d f i libucrt:stream.obj
 0001:00048189       ?detach@?$__crt_unique_heap_ptr@U__crt_stdio_stream_data@@U__crt_internal_free_policy@@@@QAEPAU__crt_stdio_stream_data@@XZ 10049189 f i libucrt:stream.obj
 0001:00048282       ?lock@__crt_stdio_stream@@QBEXXZ 10049282 f i libucrt:stream.obj
 0001:0004828d       ?release@?$__crt_unique_heap_ptr@U__crt_stdio_stream_data@@U__crt_internal_free_policy@@@@QAEXXZ 1004928d f i libucrt:stream.obj
 0001:000482a3       ?try_allocate@__crt_stdio_stream@@QAE_NXZ 100492a3 f i libucrt:stream.obj
 0001:000482cb       ??$__acrt_stdio_parse_mode@D@@YA?AU__acrt_stdio_stream_mode@@QBD@Z 100492cb f i libucrt:openfile.obj
 0001:00048585       ??$__acrt_stdio_parse_mode@_W@@YA?AU__acrt_stdio_stream_mode@@QB_W@Z 10049585 f i libucrt:openfile.obj
 0001:000489da       ??$tcsncmp@AAPBDAAY02$$CBDI@?$__crt_char_traits@D@@SAHAAPBDAAY02$$CBD$$QAI@Z 100499da f i libucrt:openfile.obj
 0001:000489fd       ??$tcsncmp@AAPB_WAAY02$$CB_WI@?$__crt_char_traits@_W@@SAHAAPB_WAAY02$$CB_W$$QAI@Z 100499fd f i libucrt:openfile.obj
 0001:00048a20       ??$tcsnicmp@AAPBDAAY04$$CBDI@?$__crt_char_traits@D@@SAHAAPBDAAY04$$CBD$$QAI@Z 10049a20 f i libucrt:openfile.obj
 0001:00048a43       ??$tcsnicmp@AAPBDAAY06$$CBDI@?$__crt_char_traits@D@@SAHAAPBDAAY06$$CBD$$QAI@Z 10049a43 f i libucrt:openfile.obj
 0001:00048a66       ??$tcsnicmp@AAPBDAAY07$$CBDI@?$__crt_char_traits@D@@SAHAAPBDAAY07$$CBD$$QAI@Z 10049a66 f i libucrt:openfile.obj
 0001:00048a89       ??$tcsnicmp@AAPB_WAAY04$$CB_WI@?$__crt_char_traits@_W@@SAHAAPB_WAAY04$$CB_W$$QAI@Z 10049a89 f i libucrt:openfile.obj
 0001:00048aac       ??$tcsnicmp@AAPB_WAAY06$$CB_WI@?$__crt_char_traits@_W@@SAHAAPB_WAAY06$$CB_W$$QAI@Z 10049aac f i libucrt:openfile.obj
 0001:00048acf       ??$tcsnicmp@AAPB_WAAY07$$CB_WI@?$__crt_char_traits@_W@@SAHAAPB_WAAY07$$CB_W$$QAI@Z 10049acf f i libucrt:openfile.obj
 0001:00048af2       ??$tsopen_s@PAHABQBDABHABHH@?$__crt_char_traits@D@@SAH$$QAPAHABQBDABH2$$QAH@Z 10049af2 f i libucrt:openfile.obj
 0001:00048b24       ??$tsopen_s@PAHABQB_WABHABHH@?$__crt_char_traits@_W@@SAH$$QAPAHABQB_WABH2$$QAH@Z 10049b24 f i libucrt:openfile.obj
 0001:00048b56       ?__acrt_stdio_parse_mode_D@@YA_NAAU__acrt_stdio_stream_mode@@@Z 10049b56 f i libucrt:openfile.obj
 0001:00048b77       ?__acrt_stdio_parse_mode_N@@YA_NAAU__acrt_stdio_stream_mode@@@Z 10049b77 f i libucrt:openfile.obj
 0001:00048b8d       ?__acrt_stdio_parse_mode_R@@YA_NAAU__acrt_stdio_stream_mode@@AA_N@Z 10049b8d f i libucrt:openfile.obj
 0001:00048bb2       ?__acrt_stdio_parse_mode_S@@YA_NAAU__acrt_stdio_stream_mode@@AA_N@Z 10049bb2 f i libucrt:openfile.obj
 0001:00048bd7       ?__acrt_stdio_parse_mode_T@@YA_NAAU__acrt_stdio_stream_mode@@@Z 10049bd7 f i libucrt:openfile.obj
 0001:00048bfd       ?__acrt_stdio_parse_mode_b@@YA_NAAU__acrt_stdio_stream_mode@@@Z 10049bfd f i libucrt:openfile.obj
 0001:00048c25       ?__acrt_stdio_parse_mode_c@@YA_NAAU__acrt_stdio_stream_mode@@AA_N@Z 10049c25 f i libucrt:openfile.obj
 0001:00048c4f       ?__acrt_stdio_parse_mode_n@@YA_NAAU__acrt_stdio_stream_mode@@AA_N@Z 10049c4f f i libucrt:openfile.obj
 0001:00048c79       ?__acrt_stdio_parse_mode_plus@@YA_NAAU__acrt_stdio_stream_mode@@AA_N@Z 10049c79 f i libucrt:openfile.obj
 0001:00048cbb       ?__acrt_stdio_parse_mode_t@@YA_NAAU__acrt_stdio_stream_mode@@@Z 10049cbb f i libucrt:openfile.obj
 0001:00048ce3       ?__acrt_stdio_parse_mode_x@@YA_NAAU__acrt_stdio_stream_mode@@@Z 10049ce3 f i libucrt:openfile.obj
 0001:00048d0b       __openfile                 10049d0b f   libucrt:openfile.obj
 0001:00048d18       __wopenfile                10049d18 f   libucrt:openfile.obj
 0001:000493eb       __read                     1004a3eb f   libucrt:read.obj
 0001:00049537       __read_nolock              1004a537 f   libucrt:read.obj
 0001:000499d5       __utf8_no_of_trailbytes    1004a9d5 f i libucrt:read.obj
 0001:00049ef4       ___acrt_stdio_refill_and_read_narrow_nolock 1004aef4 f   libucrt:_filbuf.obj
 0001:00049f01       ___acrt_stdio_refill_and_read_wide_nolock 1004af01 f   libucrt:_filbuf.obj
 0001:0004a683       __write                    1004b683 f   libucrt:write.obj
 0001:0004a7a5       __write_nolock             1004b7a5 f   libucrt:write.obj
 0001:0004aee7       ___acrt_stdio_flush_and_write_narrow_nolock 1004bee7 f   libucrt:_flsbuf.obj
 0001:0004aef4       ___acrt_stdio_flush_and_write_wide_nolock 1004bef4 f   libucrt:_flsbuf.obj
 0001:0004af01       ?has_temporary_buffer@__crt_stdio_stream@@QBE_NXZ 1004bf01 f i libucrt:_sftbuf.obj
 0001:0004af0e       ___acrt_stdio_begin_temporary_buffering_nolock 1004bf0e f   libucrt:_sftbuf.obj
 0001:0004aff0       ___acrt_stdio_end_temporary_buffering_nolock 1004bff0 f   libucrt:_sftbuf.obj
 0001:0004b0b9       ___acrt_MultiByteToWideChar 1004c0b9 f   libucrt:multibytetowidechar.obj
 0001:0004b154       ??$?RU__acrt_ptd@@@__crt_internal_free_policy@@QBEXQBU__acrt_ptd@@@Z 1004c154 f i libucrt:per_thread_data.obj
 0001:0004b4cd       ??0?$__crt_unique_heap_ptr@U__acrt_ptd@@U__crt_internal_free_policy@@@@QAE@QAU__acrt_ptd@@@Z 1004c4cd f i libucrt:per_thread_data.obj
 0001:0004b4e1       ??0__crt_scoped_get_last_error_reset@@QAE@XZ 1004c4e1 f i libucrt:per_thread_data.obj
 0001:0004b4f6       ??1?$__crt_unique_heap_ptr@U__acrt_ptd@@U__crt_internal_free_policy@@@@QAE@XZ 1004c4f6 f i libucrt:per_thread_data.obj
 0001:0004b50c       ??1__crt_scoped_get_last_error_reset@@QAE@XZ 1004c50c f i libucrt:per_thread_data.obj
 0001:0004b517       ??B?$__crt_unique_heap_ptr@U__acrt_ptd@@U__crt_internal_free_policy@@@@QBE_NXZ 1004c517 f i libucrt:per_thread_data.obj
 0001:0004b6b4       ?dangerous_get_state_array@?$dual_state_global@PAU__crt_locale_data@@@__crt_state_management@@QAEPAPAU__crt_locale_data@@XZ 1004c6b4 f i libucrt:per_thread_data.obj
 0001:0004b7e7       ?detach@?$__crt_unique_heap_ptr@U__acrt_ptd@@U__crt_internal_free_policy@@@@QAEPAU__acrt_ptd@@XZ 1004c7e7 f i libucrt:per_thread_data.obj
 0001:0004b7ed       ?get@?$__crt_unique_heap_ptr@U__acrt_ptd@@U__crt_internal_free_policy@@@@QBEPAU__acrt_ptd@@XZ 1004c7ed f i libucrt:per_thread_data.obj
 0001:0004b7f0       ?get_current_state_index@__crt_state_management@@YAIABV__crt_scoped_get_last_error_reset@@@Z 1004c7f0 f i libucrt:per_thread_data.obj
 0001:0004b976       ?is_valid@?$__crt_unique_heap_ptr@U__acrt_ptd@@U__crt_internal_free_policy@@@@QBE_NXZ 1004c976 f i libucrt:per_thread_data.obj
 0001:0004b97d       ?release@?$__crt_unique_heap_ptr@U__acrt_ptd@@U__crt_internal_free_policy@@@@QAEXXZ 1004c97d f i libucrt:per_thread_data.obj
 0001:0004ba09       ?value@?$dual_state_global@PAU__crt_locale_data@@@__crt_state_management@@QAEAAPAU__crt_locale_data@@XZ 1004ca09 f i libucrt:per_thread_data.obj
 0001:0004ba0c       ___acrt_freeptd            1004ca0c f   libucrt:per_thread_data.obj
 0001:0004ba43       ___acrt_getptd             1004ca43 f   libucrt:per_thread_data.obj
 0001:0004bb27       ___acrt_getptd_head        1004cb27 f   libucrt:per_thread_data.obj
 0001:0004bbe7       ___acrt_getptd_noexit      1004cbe7 f   libucrt:per_thread_data.obj
 0001:0004bcbf       ___acrt_initialize_ptd     1004ccbf f   libucrt:per_thread_data.obj
 0001:0004bcf6       ___acrt_uninitialize_ptd   1004ccf6 f   libucrt:per_thread_data.obj
 0001:0004bd16       ___threadhandle            1004cd16 f   libucrt:per_thread_data.obj
 0001:0004bd1c       ___threadid                1004cd1c f   libucrt:per_thread_data.obj
 0001:0004bd22       ?value@?$dual_state_global@PAU__crt_multibyte_data@@@__crt_state_management@@QAEAAPAU__crt_multibyte_data@@XZ 1004cd22 f i libucrt:locale_update.obj
 0001:0004bd25       ___acrt_update_locale_info 1004cd25 f   libucrt:locale_update.obj
 0001:0004bd5d       ___acrt_update_multibyte_info 1004cd5d f   libucrt:locale_update.obj
 0001:0004bd95       __wremove                  1004cd95 f   libucrt:wunlink.obj
 0001:0004bdc7       __wunlink                  1004cdc7 f   libucrt:wunlink.obj
 0001:0004bdd7       ??$?RU__crt_locale_data@@@__crt_internal_free_policy@@QBEXQBU__crt_locale_data@@@Z 1004cdd7 f i libucrt:wsetlocale.obj
 0001:0004bded       ??$?RU__crt_locale_pointers@@@__crt_internal_free_policy@@QBEXQBU__crt_locale_pointers@@@Z 1004cded f i libucrt:wsetlocale.obj
 0001:0004be03       ??$?RU__crt_multibyte_data@@@__crt_internal_free_policy@@QBEXQBU__crt_multibyte_data@@@Z 1004ce03 f i libucrt:wsetlocale.obj
 0001:0004c0d3       ??$__vcrt_va_start_verify_argument_type@H@@YAXXZ 1004d0d3 f i libucrt:wsetlocale.obj
 0001:0004c25e       ??0?$__crt_unique_heap_ptr@U__crt_locale_data@@U__crt_internal_free_policy@@@@QAE@QAU__crt_locale_data@@@Z 1004d25e f i libucrt:wsetlocale.obj
 0001:0004c272       ??0?$__crt_unique_heap_ptr@U__crt_locale_pointers@@U__crt_internal_free_policy@@@@QAE@QAU__crt_locale_pointers@@@Z 1004d272 f i libucrt:wsetlocale.obj
 0001:0004c286       ??0?$__crt_unique_heap_ptr@U__crt_multibyte_data@@U__crt_internal_free_policy@@@@QAE@QAU__crt_multibyte_data@@@Z 1004d286 f i libucrt:wsetlocale.obj
 0001:0004c29a       ??1?$__crt_unique_heap_ptr@U__crt_locale_data@@U__crt_internal_free_policy@@@@QAE@XZ 1004d29a f i libucrt:wsetlocale.obj
 0001:0004c2b0       ??1?$__crt_unique_heap_ptr@U__crt_locale_pointers@@U__crt_internal_free_policy@@@@QAE@XZ 1004d2b0 f i libucrt:wsetlocale.obj
 0001:0004c2c6       ??1?$__crt_unique_heap_ptr@U__crt_multibyte_data@@U__crt_internal_free_policy@@@@QAE@XZ 1004d2c6 f i libucrt:wsetlocale.obj
 0001:0004c2dc       ??B?$__crt_unique_heap_ptr@U__crt_locale_data@@U__crt_internal_free_policy@@@@QBE_NXZ 1004d2dc f i libucrt:wsetlocale.obj
 0001:0004c2e3       ??B?$__crt_unique_heap_ptr@U__crt_locale_pointers@@U__crt_internal_free_policy@@@@QBE_NXZ 1004d2e3 f i libucrt:wsetlocale.obj
 0001:0004c2ea       ??B?$__crt_unique_heap_ptr@U__crt_multibyte_data@@U__crt_internal_free_policy@@@@QBE_NXZ 1004d2ea f i libucrt:wsetlocale.obj
 0001:0004c58c       ?detach@?$__crt_unique_heap_ptr@U__crt_locale_data@@U__crt_internal_free_policy@@@@QAEPAU__crt_locale_data@@XZ 1004d58c f i libucrt:wsetlocale.obj
 0001:0004c592       ?detach@?$__crt_unique_heap_ptr@U__crt_locale_pointers@@U__crt_internal_free_policy@@@@QAEPAU__crt_locale_pointers@@XZ 1004d592 f i libucrt:wsetlocale.obj
 0001:0004c598       ?detach@?$__crt_unique_heap_ptr@U__crt_multibyte_data@@U__crt_internal_free_policy@@@@QAEPAU__crt_multibyte_data@@XZ 1004d598 f i libucrt:wsetlocale.obj
 0001:0004c59e       ?get@?$__crt_unique_heap_ptr@U__crt_locale_data@@U__crt_internal_free_policy@@@@QBEPAU__crt_locale_data@@XZ 1004d59e f i libucrt:wsetlocale.obj
 0001:0004c5a1       ?get@?$__crt_unique_heap_ptr@U__crt_locale_pointers@@U__crt_internal_free_policy@@@@QBEPAU__crt_locale_pointers@@XZ 1004d5a1 f i libucrt:wsetlocale.obj
 0001:0004c5a4       ?get@?$__crt_unique_heap_ptr@U__crt_multibyte_data@@U__crt_internal_free_policy@@@@QBEPAU__crt_multibyte_data@@XZ 1004d5a4 f i libucrt:wsetlocale.obj
 0001:0004c5a7       ?is_valid@?$__crt_unique_heap_ptr@U__crt_locale_data@@U__crt_internal_free_policy@@@@QBE_NXZ 1004d5a7 f i libucrt:wsetlocale.obj
 0001:0004c5ae       ?is_valid@?$__crt_unique_heap_ptr@U__crt_locale_pointers@@U__crt_internal_free_policy@@@@QBE_NXZ 1004d5ae f i libucrt:wsetlocale.obj
 0001:0004c5b5       ?is_valid@?$__crt_unique_heap_ptr@U__crt_multibyte_data@@U__crt_internal_free_policy@@@@QBE_NXZ 1004d5b5 f i libucrt:wsetlocale.obj
 0001:0004c5bc       ?release@?$__crt_unique_heap_ptr@U__crt_locale_data@@U__crt_internal_free_policy@@@@QAEXXZ 1004d5bc f i libucrt:wsetlocale.obj
 0001:0004c5d2       ?release@?$__crt_unique_heap_ptr@U__crt_locale_pointers@@U__crt_internal_free_policy@@@@QAEXXZ 1004d5d2 f i libucrt:wsetlocale.obj
 0001:0004c5e8       ?release@?$__crt_unique_heap_ptr@U__crt_multibyte_data@@U__crt_internal_free_policy@@@@QAEXXZ 1004d5e8 f i libucrt:wsetlocale.obj
 0001:0004c5fe       ___acrt_copy_locale_name   1004d5fe f   libucrt:wsetlocale.obj
 0001:0004c67d       ___acrt_set_locale_changed 1004d67d f   libucrt:wsetlocale.obj
 0001:0004c68a       ___acrt_uninitialize_locale 1004d68a f   libucrt:wsetlocale.obj
 0001:0004c6bd       ___lc_lctowcs              1004d6bd f   libucrt:wsetlocale.obj
 0001:0004c749       ___lc_wcstolc              1004d749 f   libucrt:wsetlocale.obj
 0001:0004c8e9       __configthreadlocale       1004d8e9 f   libucrt:wsetlocale.obj
 0001:0004c99d       __create_locale            1004d99d f   libucrt:wsetlocale.obj
 0001:0004ca1c       __expandlocale             1004da1c f   libucrt:wsetlocale.obj
 0001:0004cef0       __free_locale              1004def0 f   libucrt:wsetlocale.obj
 0001:0004cfd6       __get_current_locale       1004dfd6 f   libucrt:wsetlocale.obj
 0001:0004d09a       __wcreate_locale           1004e09a f   libucrt:wsetlocale.obj
 0001:0004d1e5       __wcscats                  1004e1e5 f   libucrt:wsetlocale.obj
 0001:0004d236       __wsetlocale               1004e236 f   libucrt:wsetlocale.obj
 0001:0004dd6d       ___p___mb_cur_max          1004ed6d f   libucrt:nlsdata.obj
 0001:0004e1fd       __lseek                    1004f1fd f   libucrt:lseek.obj
 0001:0004e20a       __lseek_nolock             1004f20a f   libucrt:lseek.obj
 0001:0004e217       __lseeki64                 1004f217 f   libucrt:lseek.obj
 0001:0004e238       __lseeki64_nolock          1004f238 f   libucrt:lseek.obj
 0001:0004e275       ___isascii                 1004f275 f i libucrt:_ctype.obj
 0001:0004e28b       ___iscsym                  1004f28b f i libucrt:_ctype.obj
 0001:0004e2b5       ___iscsymf                 1004f2b5 f i libucrt:_ctype.obj
 0001:0004e2db       ___toascii                 1004f2db f i libucrt:_ctype.obj
 0001:0004e2eb       __isalnum_l                1004f2eb f i libucrt:_ctype.obj
 0001:0004e334       __isalpha_l                1004f334 f i libucrt:_ctype.obj
 0001:0004e37d       __isblank_l                1004f37d f i libucrt:_ctype.obj
 0001:0004e3d0       __iscntrl_l                1004f3d0 f i libucrt:_ctype.obj
 0001:0004e416       __iscsym_l                 1004f416 f i libucrt:_ctype.obj
 0001:0004e441       __iscsymf_l                1004f441 f i libucrt:_ctype.obj
 0001:0004e46c       __isdigit_l                1004f46c f i libucrt:_ctype.obj
 0001:0004e4b2       __isgraph_l                1004f4b2 f i libucrt:_ctype.obj
 0001:0004e4fb       __islower_l                1004f4fb f i libucrt:_ctype.obj
 0001:0004e541       __isprint_l                1004f541 f i libucrt:_ctype.obj
 0001:0004e58a       __ispunct_l                1004f58a f i libucrt:_ctype.obj
 0001:0004e5d0       __isspace_l                1004f5d0 f i libucrt:_ctype.obj
 0001:0004e616       __isupper_l                1004f616 f i libucrt:_ctype.obj
 0001:0004e65c       __isxdigit_l               1004f65c f i libucrt:_ctype.obj
 0001:0004e6a5       _isalnum                   1004f6a5 f i libucrt:_ctype.obj
 0001:0004e6e1       _isalpha                   1004f6e1 f i libucrt:_ctype.obj
 0001:0004e71d       _isblank                   1004f71d f i libucrt:_ctype.obj
 0001:0004e765       _iscntrl                   1004f765 f i libucrt:_ctype.obj
 0001:0004e79e       _isdigit                   1004f79e f i libucrt:_ctype.obj
 0001:0004e7d7       _isgraph                   1004f7d7 f i libucrt:_ctype.obj
 0001:0004e813       _islower                   1004f813 f i libucrt:_ctype.obj
 0001:0004e84c       _isprint                   1004f84c f i libucrt:_ctype.obj
 0001:0004e888       _ispunct                   1004f888 f i libucrt:_ctype.obj
 0001:0004e8c1       _isspace                   1004f8c1 f i libucrt:_ctype.obj
 0001:0004e8fa       _isupper                   1004f8fa f i libucrt:_ctype.obj
 0001:0004e933       _isxdigit                  1004f933 f i libucrt:_ctype.obj
 0001:0004ed2b       __tolower                  1004fd2b f   libucrt:tolower_toupper.obj
 0001:0004ed3b       __tolower_l                1004fd3b f   libucrt:tolower_toupper.obj
 0001:0004ed5b       __toupper                  1004fd5b f   libucrt:tolower_toupper.obj
 0001:0004ed6b       __toupper_l                1004fd6b f   libucrt:tolower_toupper.obj
 0001:0004ed8b       _tolower                   1004fd8b f   libucrt:tolower_toupper.obj
 0001:0004edc7       _toupper                   1004fdc7 f   libucrt:tolower_toupper.obj
 0001:0004ee03       ??$make_c_string_character_source@DPAPAD@__crt_strtox@@YA?AV?$c_string_character_source@D@0@QBDQAPAD@Z 1004fe03 f i libucrt:strtox.obj
 0001:0004ee24       ??$make_c_string_character_source@_WPAPA_W@__crt_strtox@@YA?AV?$c_string_character_source@_W@0@QB_WQAPA_W@Z 1004fe24 f i libucrt:strtox.obj
 0001:0004ee45       ??$parse_integer_from_string@JDPAPAD@__crt_strtox@@YAJQBDQAPADHQAU__crt_locale_pointers@@@Z 1004fe45 f i libucrt:strtox.obj
 0001:0004ee7d       ??$parse_integer_from_string@J_WPAPA_W@__crt_strtox@@YAJQB_WQAPA_WHQAU__crt_locale_pointers@@@Z 1004fe7d f i libucrt:strtox.obj
 0001:0004eeb5       ??$parse_integer_from_string@KDPAPAD@__crt_strtox@@YAKQBDQAPADHQAU__crt_locale_pointers@@@Z 1004feb5 f i libucrt:strtox.obj
 0001:0004eeed       ??$parse_integer_from_string@K_WPAPA_W@__crt_strtox@@YAKQB_WQAPA_WHQAU__crt_locale_pointers@@@Z 1004feed f i libucrt:strtox.obj
 0001:0004ef25       ??$parse_integer_from_string@_JDPAPAD@__crt_strtox@@YA_JQBDQAPADHQAU__crt_locale_pointers@@@Z 1004ff25 f i libucrt:strtox.obj
 0001:0004ef5d       ??$parse_integer_from_string@_J_WPAPA_W@__crt_strtox@@YA_JQB_WQAPA_WHQAU__crt_locale_pointers@@@Z 1004ff5d f i libucrt:strtox.obj
 0001:0004ef95       ??$parse_integer_from_string@_KDPAPAD@__crt_strtox@@YA_KQBDQAPADHQAU__crt_locale_pointers@@@Z 1004ff95 f i libucrt:strtox.obj
 0001:0004efcd       ??$parse_integer_from_string@_K_WPAPA_W@__crt_strtox@@YA_KQB_WQAPA_WHQAU__crt_locale_pointers@@@Z 1004ffcd f i libucrt:strtox.obj
 0001:0004f005       __strtoi64                 10050005 f   libucrt:strtox.obj
 0001:0004f03c       __strtoi64_l               1005003c f   libucrt:strtox.obj
 0001:0004f074       __strtoimax_l              10050074 f   libucrt:strtox.obj
 0001:0004f0ac       __strtol_l                 100500ac f   libucrt:strtox.obj
 0001:0004f0e4       __strtoll_l                100500e4 f   libucrt:strtox.obj
 0001:0004f11c       __strtoui64                1005011c f   libucrt:strtox.obj
 0001:0004f153       __strtoui64_l              10050153 f   libucrt:strtox.obj
 0001:0004f18b       __strtoul_l                1005018b f   libucrt:strtox.obj
 0001:0004f1c3       __strtoull_l               100501c3 f   libucrt:strtox.obj
 0001:0004f1fb       __strtoumax_l              100501fb f   libucrt:strtox.obj
 0001:0004f233       __wcstoi64                 10050233 f   libucrt:strtox.obj
 0001:0004f26a       __wcstoi64_l               1005026a f   libucrt:strtox.obj
 0001:0004f2a2       __wcstoimax_l              100502a2 f   libucrt:strtox.obj
 0001:0004f2da       __wcstol_l                 100502da f   libucrt:strtox.obj
 0001:0004f312       __wcstoll_l                10050312 f   libucrt:strtox.obj
 0001:0004f34a       __wcstoui64                1005034a f   libucrt:strtox.obj
 0001:0004f381       __wcstoui64_l              10050381 f   libucrt:strtox.obj
 0001:0004f3b9       __wcstoul_l                100503b9 f   libucrt:strtox.obj
 0001:0004f3f1       __wcstoull_l               100503f1 f   libucrt:strtox.obj
 0001:0004f429       __wcstoumax_l              10050429 f   libucrt:strtox.obj
 0001:0004f461       _strtoimax                 10050461 f   libucrt:strtox.obj
 0001:0004f498       _strtol                    10050498 f   libucrt:strtox.obj
 0001:0004f4cf       _strtoll                   100504cf f   libucrt:strtox.obj
 0001:0004f506       _strtoul                   10050506 f   libucrt:strtox.obj
 0001:0004f53d       _strtoull                  1005053d f   libucrt:strtox.obj
 0001:0004f574       _strtoumax                 10050574 f   libucrt:strtox.obj
 0001:0004f5ab       _wcstoimax                 100505ab f   libucrt:strtox.obj
 0001:0004f5e2       _wcstol                    100505e2 f   libucrt:strtox.obj
 0001:0004f619       _wcstoll                   10050619 f   libucrt:strtox.obj
 0001:0004f650       _wcstoul                   10050650 f   libucrt:strtox.obj
 0001:0004f687       _wcstoull                  10050687 f   libucrt:strtox.obj
 0001:0004f6be       _wcstoumax                 100506be f   libucrt:strtox.obj
 0001:0004f6f5       __mbtowc_l                 100506f5 f   libucrt:mbtowc.obj
 0001:0004f88a       _mbtowc                    1005088a f   libucrt:mbtowc.obj
 0001:0004f8aa       __wctomb_l                 100508aa f   libucrt:wctomb.obj
 0001:0004f911       __wctomb_s_l               10050911 f   libucrt:wctomb.obj
 0001:0004fa7c       _wctomb                    10050a7c f   libucrt:wctomb.obj
 0001:0004fabd       _wctomb_s                  10050abd f   libucrt:wctomb.obj
 0001:000504da       ??1?$__crt_simd_cleanup_guard@$00@@QAE@XZ 100514da f i libucrt:strnlen.obj
 0001:000504de       ??1?$__crt_simd_cleanup_guard@$0A@@@QAE@XZ 100514de f i libucrt:strnlen.obj
 0001:000504df       ?compare_equals@?$__crt_simd_traits@$00E@@SA?AT__m256i@@T2@0@Z 100514df f i libucrt:strnlen.obj
 0001:000504e4       ?compare_equals@?$__crt_simd_traits@$00G@@SA?AT__m256i@@T2@0@Z 100514e4 f i libucrt:strnlen.obj
 0001:000504e9       ?compare_equals@?$__crt_simd_traits@$0A@E@@SA?AT__m128i@@T2@0@Z 100514e9 f i libucrt:strnlen.obj
 0001:000504ee       ?compare_equals@?$__crt_simd_traits@$0A@G@@SA?AT__m128i@@T2@0@Z 100514ee f i libucrt:strnlen.obj
 0001:000504f3       ?compute_byte_mask@?$__crt_simd_pack_traits@$00@@SAHT__m256i@@@Z 100514f3 f i libucrt:strnlen.obj
 0001:000504f8       ?compute_byte_mask@?$__crt_simd_pack_traits@$0A@@@SAHT__m128i@@@Z 100514f8 f i libucrt:strnlen.obj
 0001:000504fd       ?get_zero_pack@?$__crt_simd_pack_traits@$00@@SA?AT__m256i@@XZ 100514fd f i libucrt:strnlen.obj
 0001:00050502       ?get_zero_pack@?$__crt_simd_pack_traits@$0A@@@SA?AT__m128i@@XZ 10051502 f i libucrt:strnlen.obj
 0001:00050506       _strnlen                   10051506 f   libucrt:strnlen.obj
 0001:00050670       _wcslen                    10051670 f   libucrt:strnlen.obj
 0001:000507e2       _wcsnlen                   100517e2 f   libucrt:strnlen.obj
 0001:000509fe       ?__acrt_fp_classify@@YA?AW4__acrt_fp_class@@ABN@Z 100519fe f i libucrt:cvt.obj
 0001:00050a78       ?__acrt_fp_is_negative@@YA_NABN@Z 10051a78 f i libucrt:cvt.obj
 0001:000514fd       ?strrchr@@YAPADQADH@Z      100524fd f i libucrt:cvt.obj
 0001:0005150a       ___acrt_fp_format          1005250a f   libucrt:cvt.obj
 0001:000516d2       __fputwc_nolock            100526d2 f   libucrt:fputwc.obj
 0001:00051846       __fputwchar                10052846 f   libucrt:fputwc.obj
 0001:00051866       __putwc_nolock             10052866 f   libucrt:fputwc.obj
 0001:00051873       _fputwc                    10052873 f   libucrt:fputwc.obj
 0001:00051904       _putwc                     10052904 f   libucrt:fputwc.obj
 0001:00051911       _putwchar                  10052911 f   libucrt:fputwc.obj
 0001:0005191e       __fputc_nolock             1005291e f   libucrt:fputc.obj
 0001:00051951       __fputchar                 10052951 f   libucrt:fputc.obj
 0001:00051971       __putc_nolock              10052971 f   libucrt:fputc.obj
 0001:0005197e       _fputc                     1005297e f   libucrt:fputc.obj
 0001:00051abc       _putc                      10052abc f   libucrt:fputc.obj
 0001:00051ac9       _putchar                   10052ac9 f   libucrt:fputc.obj
 0001:00051ad6       __get_printf_count_output  10052ad6 f   libucrt:printf_count_output.obj
 0001:00051af0       __set_printf_count_output  10052af0 f   libucrt:printf_count_output.obj
 0001:00051b24       __chgsign                  10052b24 f   libucrt:ieeemisc.obj
 0001:00051b5e       __chgsignf                 10052b5e f   libucrt:ieeemisc.obj
 0001:00051b89       __copysign                 10052b89 f   libucrt:ieeemisc.obj
 0001:00051bbd       __copysignf                10052bbd f   libucrt:ieeemisc.obj
 0001:00051be2       __finite                   10052be2 f   libucrt:ieeemisc.obj
 0001:00051c02       __fpclass                  10052c02 f   libucrt:ieeemisc.obj
 0001:00051ccf       __isnan                    10052ccf f   libucrt:ieeemisc.obj
 0001:00051d12       __logb                     10052d12 f   libucrt:ieeemisc.obj
 0001:00051e17       __nextafter                10052e17 f   libucrt:ieeemisc.obj
 0001:00051e3d       __scalb                    10052e3d f   libucrt:ieeemisc.obj
 0001:00051e5d       __add_exp                  10052e5d f   libucrt:util.obj
 0001:00051e97       __decomp                   10052e97 f   libucrt:util.obj
 0001:00051fac       __get_exp                  10052fac f   libucrt:util.obj
 0001:00051fca       __set_bexp                 10052fca f   libucrt:util.obj
 0001:00051ffd       __set_exp                  10052ffd f   libucrt:util.obj
 0001:00052037       __sptype                   10053037 f   libucrt:util.obj
 0001:000520ac       ___clrfp_sse2              100530ac f   libucrt:fpctrl.obj
 0001:000520d5       ___ctrlfp_sse2             100530d5 f   libucrt:fpctrl.obj
 0001:0005211e       ___fclrf_sse2              1005311e f   libucrt:fpctrl.obj
 0001:00052144       ___get_fpsr_sse2           10053144 f   libucrt:fpctrl.obj
 0001:00052169       ___set_fpsr_sse2           10053169 f   libucrt:fpctrl.obj
 0001:000521fc       ___set_statfp_sse2         100531fc f   libucrt:fpctrl.obj
 0001:0005221d       ___statfp_sse2             1005321d f   libucrt:fpctrl.obj
 0001:00052237       __clrfp                    10053237 f   libucrt:fpctrl.obj
 0001:0005224e       __ctrlfp                   1005324e f   libucrt:fpctrl.obj
 0001:00052285       __set_statfp               10053285 f   libucrt:fpctrl.obj
 0001:000522f6       __statfp                   100532f6 f   libucrt:fpctrl.obj
 0001:0005230c       ??$__crt_fast_decode_pointer@P6AHPAU_exception@@@Z@@YAP6AHPAU_exception@@@ZQ6AH0@Z@Z 1005330c f i libucrt:matherr.obj
 0001:00052327       ??$__crt_fast_encode_pointer@P6AHPAU_exception@@@Z@@YAP6AHPAU_exception@@@ZQ6AH0@Z@Z 10053327 f i libucrt:matherr.obj
 0001:0005234d       ?initialize@?$dual_state_global@P6AHPAU_exception@@@Z@__crt_state_management@@QAEXQ6AHPAU_exception@@@Z@Z 1005334d f i libucrt:matherr.obj
 0001:0005237c       ?value@?$dual_state_global@P6AHPAU_exception@@@Z@__crt_state_management@@QAEAAP6AHPAU_exception@@@ZXZ 1005337c f i libucrt:matherr.obj
 0001:0005237f       ___acrt_has_user_matherr   1005337f f   libucrt:matherr.obj
 0001:0005239d       ___acrt_initialize_user_matherr 1005339d f   libucrt:matherr.obj
 0001:000523af       ___acrt_invoke_user_matherr 100533af f   libucrt:matherr.obj
 0001:0005240a       ___setusermatherr          1005340a f   libucrt:matherr.obj
 0001:00052f15       ??$find_first_file_ex@ABQADW4_FINDEX_INFO_LEVELS@@PAU_WIN32_FIND_DATAA@@W4_FINDEX_SEARCH_OPS@@$$TH@?$__crt_char_traits@D@@SAPAXABQAD$$QAW4_FINDEX_INFO_LEVELS@@$$QAPAU_WIN32_FIND_DATAA@@$$QAW4_FINDEX_SEARCH_OPS@@$$QA$$T$$QAH@Z 10053f15 f i libucrt:argv_wildcards.obj
 0001:00052f4d       ??$find_first_file_ex@ABQA_WW4_FINDEX_INFO_LEVELS@@PAU_WIN32_FIND_DATAW@@W4_FINDEX_SEARCH_OPS@@$$TH@?$__crt_char_traits@_W@@SAPAXABQA_W$$QAW4_FINDEX_INFO_LEVELS@@$$QAPAU_WIN32_FIND_DATAW@@$$QAW4_FINDEX_SEARCH_OPS@@$$QA$$T$$QAH@Z 10053f4d f i libucrt:argv_wildcards.obj
 0001:00052f82       ??$find_next_file@PAXPAU_WIN32_FIND_DATAA@@@?$__crt_char_traits@D@@SAH$$QAPAX$$QAPAU_WIN32_FIND_DATAA@@@Z 10053f82 f i libucrt:argv_wildcards.obj
 0001:00052fa0       ??$find_next_file@PAXPAU_WIN32_FIND_DATAW@@@?$__crt_char_traits@_W@@SAH$$QAPAX$$QAPAU_WIN32_FIND_DATAW@@@Z 10053fa0 f i libucrt:argv_wildcards.obj
 0001:00052fbc       ??$tcsncpy_s@AAPADIAAPADABI@?$__crt_char_traits@D@@SAHAAPAD$$QAI0ABI@Z 10053fbc f i libucrt:argv_wildcards.obj
 0001:00052fe7       ??$tcsncpy_s@AAPA_WIAAPA_WABI@?$__crt_char_traits@_W@@SAHAAPA_W$$QAI0ABI@Z 10053fe7 f i libucrt:argv_wildcards.obj
 0001:00053012       ??$tcsncpy_s@PADABIABQBDABI@?$__crt_char_traits@D@@SAH$$QAPADABIABQBD1@Z 10054012 f i libucrt:argv_wildcards.obj
 0001:0005303d       ??$tcsncpy_s@PADIABQBDABI@?$__crt_char_traits@D@@SAH$$QAPAD$$QAIABQBDABI@Z 1005403d f i libucrt:argv_wildcards.obj
 0001:00053068       ??$tcsncpy_s@PA_WABIABQB_WABI@?$__crt_char_traits@_W@@SAH$$QAPA_WABIABQB_W1@Z 10054068 f i libucrt:argv_wildcards.obj
 0001:00053093       ??$tcsncpy_s@PA_WIABQB_WABI@?$__crt_char_traits@_W@@SAH$$QAPA_W$$QAIABQB_WABI@Z 10054093 f i libucrt:argv_wildcards.obj
 0001:000530be       ??$tcspbrk@AAPADAAY02$$CBD@?$__crt_char_traits@D@@SAPADAAPADAAY02$$CBD@Z 100540be f i libucrt:argv_wildcards.obj
 0001:000530d9       ??$tcspbrk@AAPA_WAAY02$$CB_W@?$__crt_char_traits@_W@@SAPA_WAAPA_WAAY02$$CB_W@Z 100540d9 f i libucrt:argv_wildcards.obj
 0001:000530f4       ??0?$__crt_unique_handle_t@U__crt_findfile_traits@@@@QAE@QAX@Z 100540f4 f i libucrt:argv_wildcards.obj
 0001:00053128       ??1?$__crt_unique_handle_t@U__crt_findfile_traits@@@@QAE@XZ 10054128 f i libucrt:argv_wildcards.obj
 0001:000532d2       ?close@?$__crt_unique_handle_t@U__crt_findfile_traits@@@@QAEXXZ 100542d2 f i libucrt:argv_wildcards.obj
 0001:000532ee       ?close@__crt_findfile_traits@@SA_NPAX@Z 100542ee f i libucrt:argv_wildcards.obj
 0001:00053460       ?get@?$__crt_unique_handle_t@U__crt_findfile_traits@@@@QBEPAXXZ 10054460 f i libucrt:argv_wildcards.obj
 0001:00053463       ?get_invalid_value@__crt_findfile_traits@@SAPAXXZ 10054463 f i libucrt:argv_wildcards.obj
 0001:0005349a       ?strpbrk@@YAPADQADQBD@Z    1005449a f i libucrt:argv_wildcards.obj
 0001:000534a7       ?wcspbrk@@YAPA_WPA_WPB_W@Z 100544a7 f i libucrt:argv_wildcards.obj
 0001:000534b4       ___acrt_expand_narrow_argv_wildcards 100544b4 f   libucrt:argv_wildcards.obj
 0001:000534c1       ___acrt_expand_wide_argv_wildcards 100544c1 f   libucrt:argv_wildcards.obj
 0001:00053553       ??$initialize_from_array@$$BY10BAA@E@?$dual_state_global@PAE@__crt_state_management@@QAAXAAY10BAA@E@Z 10054553 f i libucrt:mbctype.obj
 0001:00053565       ??$initialize_from_array@$$BY10BAB@E@?$dual_state_global@PAE@__crt_state_management@@QAAXAAY10BAB@E@Z 10054565 f i libucrt:mbctype.obj
 0001:000536c4       ?dangerous_get_state_array@?$dual_state_global@PAE@__crt_state_management@@QAEPAPAEXZ 100546c4 f i libucrt:mbctype.obj
 0001:000536c7       ?dangerous_get_state_array@?$dual_state_global@PAU__crt_multibyte_data@@@__crt_state_management@@QAEPAPAU__crt_multibyte_data@@XZ 100546c7 f i libucrt:mbctype.obj
 0001:00053759       ?initialize@?$dual_state_global@PAU__crt_multibyte_data@@@__crt_state_management@@QAEXQAU__crt_multibyte_data@@@Z 10054759 f i libucrt:mbctype.obj
 0001:00053c48       ?value@?$dual_state_global@PAE@__crt_state_management@@QAEAAPAEXZ 10054c48 f i libucrt:mbctype.obj
 0001:00053c4b       ___acrt_initialize_multibyte 10054c4b f   libucrt:mbctype.obj
 0001:00053ca5       ___acrt_update_thread_multibyte_data 10054ca5 f   libucrt:mbctype.obj
 0001:00053cbc       ___p__mbcasemap            10054cbc f   libucrt:mbctype.obj
 0001:00053cc2       ___p__mbctype              10054cc2 f   libucrt:mbctype.obj
 0001:00053cc8       __getmbcp                  10054cc8 f   libucrt:mbctype.obj
 0001:00053d0b       __setmbcp                  10054d0b f   libucrt:mbctype.obj
 0001:00053d31       __setmbcp_nolock           10054d31 f   libucrt:mbctype.obj
 0001:000540ba       __ismbbalnum               100550ba f   libucrt:ismbbyte.obj
 0001:000540db       __ismbbalnum_l             100550db f   libucrt:ismbbyte.obj
 0001:000540fe       __ismbbalpha               100550fe f   libucrt:ismbbyte.obj
 0001:0005411f       __ismbbalpha_l             1005511f f   libucrt:ismbbyte.obj
 0001:00054142       __ismbbblank               10055142 f   libucrt:ismbbyte.obj
 0001:0005416d       __ismbbblank_l             1005516d f   libucrt:ismbbyte.obj
 0001:0005419a       __ismbbgraph               1005519a f   libucrt:ismbbyte.obj
 0001:000541bb       __ismbbgraph_l             100551bb f   libucrt:ismbbyte.obj
 0001:000541de       __ismbbkalnum              100551de f   libucrt:ismbbyte.obj
 0001:000541fc       __ismbbkalnum_l            100551fc f   libucrt:ismbbyte.obj
 0001:0005421b       __ismbbkana                1005521b f   libucrt:ismbbyte.obj
 0001:00054232       __ismbbkana_l              10055232 f   libucrt:ismbbyte.obj
 0001:00054297       __ismbbkprint              10055297 f   libucrt:ismbbyte.obj
 0001:000542b5       __ismbbkprint_l            100552b5 f   libucrt:ismbbyte.obj
 0001:000542d4       __ismbbkpunct              100552d4 f   libucrt:ismbbyte.obj
 0001:000542f2       __ismbbkpunct_l            100552f2 f   libucrt:ismbbyte.obj
 0001:00054311       __ismbblead                10055311 f   libucrt:ismbbyte.obj
 0001:0005432f       __ismbblead_l              1005532f f   libucrt:ismbbyte.obj
 0001:0005434e       __ismbbprint               1005534e f   libucrt:ismbbyte.obj
 0001:0005436f       __ismbbprint_l             1005536f f   libucrt:ismbbyte.obj
 0001:00054392       __ismbbpunct               10055392 f   libucrt:ismbbyte.obj
 0001:000543b0       __ismbbpunct_l             100553b0 f   libucrt:ismbbyte.obj
 0001:000543cf       __ismbbtrail               100553cf f   libucrt:ismbbyte.obj
 0001:000543ed       __ismbbtrail_l             100553ed f   libucrt:ismbbyte.obj
 0001:0005440c       ___acrt_initialize_command_line 1005540c f   libucrt:argv_data.obj
 0001:0005442b       ___acrt_uninitialize_command_line 1005542b f   libucrt:argv_data.obj
 0001:0005442e       ___p___argc                1005542e f   libucrt:argv_data.obj
 0001:00054434       ___p___argv                10055434 f   libucrt:argv_data.obj
 0001:0005443a       ___p___wargv               1005543a f   libucrt:argv_data.obj
 0001:00054440       ___p__acmdln               10055440 f   libucrt:argv_data.obj
 0001:00054446       ___p__pgmptr               10055446 f   libucrt:argv_data.obj
 0001:0005444c       ___p__wcmdln               1005544c f   libucrt:argv_data.obj
 0001:00054452       ___p__wpgmptr              10055452 f   libucrt:argv_data.obj
 0001:00054458       __get_pgmptr               10055458 f   libucrt:argv_data.obj
 0001:00054495       __get_wpgmptr              10055495 f   libucrt:argv_data.obj
 0001:00054550       ___acrt_WideCharToMultiByte 10055550 f   libucrt:widechartomultibyte.obj
 0001:000546e2       ___dcrt_get_narrow_environment_from_os 100556e2 f   libucrt:get_environment_from_os.obj
 0001:00054789       ___dcrt_get_wide_environment_from_os 10055789 f   libucrt:get_environment_from_os.obj
 0001:0005508d       ??$get_or_create_environment_nolock@$$V@?$__crt_char_traits@D@@SAPAPADXZ 1005608d f i libucrt:setenv.obj
 0001:00055092       ??$get_or_create_environment_nolock@$$V@?$__crt_char_traits@_W@@SAPAPA_WXZ 10056092 f i libucrt:setenv.obj
 0001:00055097       ??$set_environment_variable@ABQADQAD@?$__crt_char_traits@D@@SAHABQAD$$QBQAD@Z 10056097 f i libucrt:setenv.obj
 0001:000550b5       ??$set_environment_variable@ABQA_WQA_W@?$__crt_char_traits@_W@@SAHABQA_W$$QBQA_W@Z 100560b5 f i libucrt:setenv.obj
 0001:000550d1       ??$tcschr@ABQADD@?$__crt_char_traits@D@@SAPADABQAD$$QAD@Z 100560d1 f i libucrt:setenv.obj
 0001:000550f1       ??$tcschr@ABQA_WD@?$__crt_char_traits@_W@@SAPA_WABQA_W$$QAD@Z 100560f1 f i libucrt:setenv.obj
 0001:00055116       ??$tcscpy_s@AAPADABIAAPAD@?$__crt_char_traits@D@@SAHAAPADABI0@Z 10056116 f i libucrt:setenv.obj
 0001:0005513b       ??$tcscpy_s@AAPA_WABIAAPA_W@?$__crt_char_traits@_W@@SAHAAPA_WABI0@Z 1005613b f i libucrt:setenv.obj
 0001:00055160       ??$tcscpy_s@ABQADABIABQAD@?$__crt_char_traits@D@@SAHABQADABI0@Z 10056160 f i libucrt:setenv.obj
 0001:00055185       ??$tcscpy_s@ABQA_WABIABQA_W@?$__crt_char_traits@_W@@SAHABQA_WABI0@Z 10056185 f i libucrt:setenv.obj
 0001:000551aa       ??$tcsnicoll@ABQBDAAPADABI@?$__crt_char_traits@D@@SAHABQBDAAPADABI@Z 100561aa f i libucrt:setenv.obj
 0001:000551cf       ??$tcsnicoll@ABQB_WAAPA_WABI@?$__crt_char_traits@_W@@SAHABQB_WAAPA_WABI@Z 100561cf f i libucrt:setenv.obj
 0001:00055218       ?strchr@@YAPADQADH@Z       10056218 f i libucrt:setenv.obj
 0001:00055225       ?wcschr@@YAPA_WPA_W_W@Z    10056225 f i libucrt:setenv.obj
 0001:00055232       ___dcrt_set_variable_in_narrow_environment_nolock 10056232 f   libucrt:setenv.obj
 0001:0005523f       ___dcrt_set_variable_in_wide_environment_nolock 1005623f f   libucrt:setenv.obj
 0001:0005524c       __recalloc                 1005624c f   libucrt:recalloc.obj
 0001:00055259       __recalloc_base            10056259 f   libucrt:recalloc.obj
 0001:000552e1       ___acrt_getheap            100562e1 f   libucrt:heap_handle.obj
 0001:000552e7       ___acrt_initialize_heap    100562e7 f   libucrt:heap_handle.obj
 0001:000552fc       ___acrt_uninitialize_heap  100562fc f   libucrt:heap_handle.obj
 0001:00055308       __get_heap_handle          10056308 f   libucrt:heap_handle.obj
 0001:0005530e       ___acrt_execute_initializers 1005630e f   libucrt:shared_initialization.obj
 0001:000553b1       ___acrt_execute_uninitializers 100563b1 f   libucrt:shared_initialization.obj
 0001:0005540b       ??$?B$$A6AHI@Z@__crt_fast_encoded_nullptr_t@@QBEP6AHI@ZXZ 1005640b f i libucrt:new_handler.obj
 0001:00055429       ??$__crt_fast_decode_pointer@P6AHI@Z@@YAP6AHI@ZQ6AHI@Z@Z 10056429 f i libucrt:new_handler.obj
 0001:00055444       ??$__crt_fast_encode_pointer@P6AHI@Z@@YAP6AHI@ZQ6AHI@Z@Z 10056444 f i libucrt:new_handler.obj
 0001:0005546a       ?_set_new_handler@@YAP6AHI@ZH@Z 1005646a f   libucrt:new_handler.obj
 0001:00055490       ?initialize@?$dual_state_global@P6AHI@Z@__crt_state_management@@QAEXQ6AHI@Z@Z 10056490 f i libucrt:new_handler.obj
 0001:000554bf       ?value@?$dual_state_global@P6AHI@Z@__crt_state_management@@QAEAAP6AHI@ZXZ 100564bf f i libucrt:new_handler.obj
 0001:000554c2       ___acrt_initialize_new_handler 100564c2 f   libucrt:new_handler.obj
 0001:000554d4       __callnewh                 100564d4 f   libucrt:new_handler.obj
 0001:00055529       __query_new_handler        10056529 f   libucrt:new_handler.obj
 0001:0005558f       __set_new_handler          1005658f f   libucrt:new_handler.obj
 0001:00055607       ___pctype_func             10056607 f   libucrt:ctype.obj
 0001:00055636       ___pwctype_func            10056636 f   libucrt:ctype.obj
 0001:0005563c       __iswctype_l               1005663c f   libucrt:iswctype.obj
 0001:00055655       _iswctype                  10056655 f   libucrt:iswctype.obj
 0001:000556da       __isctype                  100566da f   libucrt:isctype.obj
 0001:00055718       __isctype_l                10056718 f   libucrt:isctype.obj
 0001:00055826       ?value@?$dual_state_global@J@__crt_state_management@@QAEAAJXZ 10056826 f i libucrt:new_mode.obj
 0001:00055829       __query_new_mode           10056829 f   libucrt:new_mode.obj
 0001:0005582f       __set_new_mode             1005682f f   libucrt:new_mode.obj
 0001:00055968       _wcsncpy_s                 10056968 f   libucrt:wcsncpy_s.obj
 0001:00055b83       __mbstowcs_l               10056b83 f   libucrt:mbstowcs.obj
 0001:00055b90       __mbstowcs_s_l             10056b90 f   libucrt:mbstowcs.obj
 0001:00055caa       _mbstowcs                  10056caa f   libucrt:mbstowcs.obj
 0001:00055cde       _mbstowcs_s                10056cde f   libucrt:mbstowcs.obj
 0001:00055d06       ___acrt_OutputDebugStringA@4 10056d06 f   libucrt:outputdebugstringa.obj
 0001:00055f43       __commit                   10056f43 f   libucrt:commit.obj
 0001:0005618d       ___acrt_DownlevelLCIDToLocaleName 1005718d f   libucrt:lcidtoname_downlevel.obj
 0001:00056261       ___acrt_DownlevelLocaleNameToLCID 10057261 f   libucrt:lcidtoname_downlevel.obj
 0001:00056298       ??$?RU__crt_lowio_handle_data@@@__crt_internal_free_policy@@QBEXQBU__crt_lowio_handle_data@@@Z 10057298 f i libucrt:osfinfo.obj
 0001:000562ae       ??0?$__crt_unique_heap_ptr@U__crt_lowio_handle_data@@U__crt_internal_free_policy@@@@QAE@QAU__crt_lowio_handle_data@@@Z 100572ae f i libucrt:osfinfo.obj
 0001:000562c2       ??1?$__crt_unique_heap_ptr@U__crt_lowio_handle_data@@U__crt_internal_free_policy@@@@QAE@XZ 100572c2 f i libucrt:osfinfo.obj
 0001:000562d8       ??B?$__crt_unique_heap_ptr@U__crt_lowio_handle_data@@U__crt_internal_free_policy@@@@QBE_NXZ 100572d8 f i libucrt:osfinfo.obj
 0001:000562df       ?detach@?$__crt_unique_heap_ptr@U__crt_lowio_handle_data@@U__crt_internal_free_policy@@@@QAEPAU__crt_lowio_handle_data@@XZ 100572df f i libucrt:osfinfo.obj
 0001:000562e5       ?get@?$__crt_unique_heap_ptr@U__crt_lowio_handle_data@@U__crt_internal_free_policy@@@@QBEPAU__crt_lowio_handle_data@@XZ 100572e5 f i libucrt:osfinfo.obj
 0001:000562e8       ?is_valid@?$__crt_unique_heap_ptr@U__crt_lowio_handle_data@@U__crt_internal_free_policy@@@@QBE_NXZ 100572e8 f i libucrt:osfinfo.obj
 0001:000562ef       ?release@?$__crt_unique_heap_ptr@U__crt_lowio_handle_data@@U__crt_internal_free_policy@@@@QAEXXZ 100572ef f i libucrt:osfinfo.obj
 0001:00056305       ___acrt_lowio_create_handle_array 10057305 f   libucrt:osfinfo.obj
 0001:0005639d       ___acrt_lowio_destroy_handle_array 1005739d f   libucrt:osfinfo.obj
 0001:000563df       ___acrt_lowio_ensure_fh_exists 100573df f   libucrt:osfinfo.obj
 0001:00056498       ___acrt_lowio_lock_fh      10057498 f   libucrt:osfinfo.obj
 0001:000564c3       ___acrt_lowio_set_os_handle 100574c3 f   libucrt:osfinfo.obj
 0001:0005657c       ___acrt_lowio_unlock_fh    1005757c f   libucrt:osfinfo.obj
 0001:000565a7       __alloc_osfhnd             100575a7 f   libucrt:osfinfo.obj
 0001:000566f2       __free_osfhnd              100576f2 f   libucrt:osfinfo.obj
 0001:000567a7       __get_osfhandle            100577a7 f   libucrt:osfinfo.obj
 0001:0005682b       __open_osfhandle           1005782b f   libucrt:osfinfo.obj
 0001:0005697a       __wcsnicmp                 1005797a f   libucrt:wcsnicmp.obj
 0001:00056a57       __wcsnicmp_l               10057a57 f   libucrt:wcsnicmp.obj
 0001:00056b93       __strnicmp                 10057b93 f   libucrt:strnicmp.obj
 0001:00056c1b       __strnicmp_l               10057c1b f   libucrt:strnicmp.obj
 0001:00056da4       ??$__vcrt_va_start_verify_argument_type@$$CBH@@YAXXZ 10057da4 f i libucrt:open.obj
 0001:00057115       ??$tsopen_nolock@PAHABQAHABQBDABHABHABHABH@?$__crt_char_traits@D@@SAH$$QAPAHABQAHABQBDABH333@Z 10058115 f i libucrt:open.obj
 0001:00057153       ??$tsopen_nolock@PAHABQAHABQB_WABHABHABHABH@?$__crt_char_traits@_W@@SAH$$QAPAHABQAHABQB_WABH333@Z 10058153 f i libucrt:open.obj
 0001:00057191       ??$tsopen_nolock@PAHPAHABQBDABHHABHH@?$__crt_char_traits@D@@SAH$$QAPAH0ABQBDABH$$QAH23@Z 10058191 f i libucrt:open.obj
 0001:000571cf       ??$tsopen_nolock@PAHPAHABQB_WABHHABHH@?$__crt_char_traits@_W@@SAH$$QAPAH0ABQB_WABH$$QAH23@Z 100581cf f i libucrt:open.obj
 0001:000579c1       __open                     100589c1 f   libucrt:open.obj
 0001:000579df       __sopen                    100589df f   libucrt:open.obj
 0001:00057a21       __sopen_dispatch           10058a21 f   libucrt:open.obj
 0001:00057a2e       __sopen_nolock             10058a2e f   libucrt:open.obj
 0001:00057aba       __sopen_s                  10058aba f   libucrt:open.obj
 0001:00057ae2       __wopen                    10058ae2 f   libucrt:open.obj
 0001:00057b00       __wsopen                   10058b00 f   libucrt:open.obj
 0001:00057b42       __wsopen_dispatch          10058b42 f   libucrt:open.obj
 0001:00057b4f       __wsopen_nolock            10058b4f f   libucrt:open.obj
 0001:00057f46       __wsopen_s                 10058f46 f   libucrt:open.obj
 0001:00057f6e       ___p__commode              10058f6e f   libucrt:ncommode.obj
 0001:00057f74       __isatty                   10058f74 f   libucrt:isatty.obj
 0001:00057fdf       ___acrt_stdio_allocate_buffer_nolock 10058fdf f   libucrt:_getbuf.obj
 0001:0005815b       __putwch                   1005915b f   libucrt:putwch.obj
 0001:00058195       __putwch_nolock            10059195 f   libucrt:putwch.obj
 0001:000581d6       ___acrt_add_locale_ref     100591d6 f   libucrt:locale_refcounting.obj
 0001:00058272       ___acrt_free_locale        10059272 f   libucrt:locale_refcounting.obj
 0001:0005840e       ___acrt_locale_add_lc_time_reference 1005940e f   libucrt:locale_refcounting.obj
 0001:00058441       ___acrt_locale_free_lc_time_if_unreferenced 10059441 f   libucrt:locale_refcounting.obj
 0001:0005847d       ___acrt_locale_release_lc_time_reference 1005947d f   libucrt:locale_refcounting.obj
 0001:000584b0       ___acrt_release_locale_ref 100594b0 f   libucrt:locale_refcounting.obj
 0001:00058551       ___acrt_update_thread_locale_data 10059551 f   libucrt:locale_refcounting.obj
 0001:000585e5       __updatetlocinfoEx_nolock  100595e5 f   libucrt:locale_refcounting.obj
 0001:00058649       ??$?RG@__crt_internal_free_policy@@QBEXQBG@Z 10059649 f i libucrt:initctype.obj
 0001:0005865f       ??$?RJ@__crt_internal_free_policy@@QBEXQBJ@Z 1005965f f i libucrt:initctype.obj
 0001:00058675       ??0?$__crt_unique_heap_ptr@GU__crt_internal_free_policy@@@@QAE@QAG@Z 10059675 f i libucrt:initctype.obj
 0001:00058689       ??0?$__crt_unique_heap_ptr@JU__crt_internal_free_policy@@@@QAE@QAJ@Z 10059689 f i libucrt:initctype.obj
 0001:0005869d       ??1?$__crt_unique_heap_ptr@GU__crt_internal_free_policy@@@@QAE@XZ 1005969d f i libucrt:initctype.obj
 0001:000586b3       ??1?$__crt_unique_heap_ptr@JU__crt_internal_free_policy@@@@QAE@XZ 100596b3 f i libucrt:initctype.obj
 0001:000586c9       ?detach@?$__crt_unique_heap_ptr@GU__crt_internal_free_policy@@@@QAEPAGXZ 100596c9 f i libucrt:initctype.obj
 0001:000586cf       ?detach@?$__crt_unique_heap_ptr@JU__crt_internal_free_policy@@@@QAEPAJXZ 100596cf f i libucrt:initctype.obj
 0001:000586d5       ?release@?$__crt_unique_heap_ptr@GU__crt_internal_free_policy@@@@QAEXXZ 100596d5 f i libucrt:initctype.obj
 0001:000586eb       ?release@?$__crt_unique_heap_ptr@JU__crt_internal_free_policy@@@@QAEXXZ 100596eb f i libucrt:initctype.obj
 0001:00058701       ____lc_codepage_func       10059701 f   libucrt:initctype.obj
 0001:00058731       ____lc_collate_cp_func     10059731 f   libucrt:initctype.obj
 0001:00058761       ____lc_locale_name_func    10059761 f   libucrt:initctype.obj
 0001:00058794       ____mb_cur_max_func        10059794 f   libucrt:initctype.obj
 0001:000587c4       ____mb_cur_max_l_func      100597c4 f   libucrt:initctype.obj
 0001:000587e3       ___acrt_locale_initialize_ctype 100597e3 f   libucrt:initctype.obj
 0001:00058d24       ??$?RUlconv@@@__crt_internal_free_policy@@QBEXQBUlconv@@@Z 10059d24 f i libucrt:initmon.obj
 0001:00058d3a       ??0?$__crt_unique_heap_ptr@Ulconv@@U__crt_internal_free_policy@@@@QAE@QAUlconv@@@Z 10059d3a f i libucrt:initmon.obj
 0001:00058d4e       ??1?$__crt_unique_heap_ptr@Ulconv@@U__crt_internal_free_policy@@@@QAE@XZ 10059d4e f i libucrt:initmon.obj
 0001:00058d64       ?detach@?$__crt_unique_heap_ptr@Ulconv@@U__crt_internal_free_policy@@@@QAEPAUlconv@@XZ 10059d64 f i libucrt:initmon.obj
 0001:00058d6a       ?release@?$__crt_unique_heap_ptr@Ulconv@@U__crt_internal_free_policy@@@@QAEXXZ 10059d6a f i libucrt:initmon.obj
 0001:00058d80       ___acrt_locale_free_monetary 10059d80 f   libucrt:initmon.obj
 0001:00058ebd       ___acrt_locale_initialize_monetary 10059ebd f   libucrt:initmon.obj
 0001:000593aa       ___acrt_locale_free_numeric 1005a3aa f   libucrt:initnum.obj
 0001:0005942d       ___acrt_locale_initialize_numeric 1005a42d f   libucrt:initnum.obj
 0001:00059708       ??$?RU__crt_lc_time_data@@@__crt_internal_free_policy@@QBEXQBU__crt_lc_time_data@@@Z 1005a708 f i libucrt:inittime.obj
 0001:000597a8       ??0?$__crt_unique_heap_ptr@U__crt_lc_time_data@@U__crt_internal_free_policy@@@@QAE@QAU__crt_lc_time_data@@@Z 1005a7a8 f i libucrt:inittime.obj
 0001:000597bc       ??1?$__crt_unique_heap_ptr@U__crt_lc_time_data@@U__crt_internal_free_policy@@@@QAE@XZ 1005a7bc f i libucrt:inittime.obj
 0001:000597d2       ??B?$__crt_unique_heap_ptr@U__crt_lc_time_data@@U__crt_internal_free_policy@@@@QBE_NXZ 1005a7d2 f i libucrt:inittime.obj
 0001:000597d9       ?detach@?$__crt_unique_heap_ptr@U__crt_lc_time_data@@U__crt_internal_free_policy@@@@QAEPAU__crt_lc_time_data@@XZ 1005a7d9 f i libucrt:inittime.obj
 0001:00059825       ?get@?$__crt_unique_heap_ptr@U__crt_lc_time_data@@U__crt_internal_free_policy@@@@QBEPAU__crt_lc_time_data@@XZ 1005a825 f i libucrt:inittime.obj
 0001:00059bbe       ?is_valid@?$__crt_unique_heap_ptr@U__crt_lc_time_data@@U__crt_internal_free_policy@@@@QBE_NXZ 1005abbe f i libucrt:inittime.obj
 0001:00059bc5       ?release@?$__crt_unique_heap_ptr@U__crt_lc_time_data@@U__crt_internal_free_policy@@@@QAEXXZ 1005abc5 f i libucrt:inittime.obj
 0001:00059bdb       ___acrt_locale_free_time   1005abdb f   libucrt:inittime.obj
 0001:00059cf8       ___acrt_locale_initialize_time 1005acf8 f   libucrt:inittime.obj
 0001:00059d91       _wcscspn                   1005ad91 f   libucrt:wcscspn.obj
 0001:00059e02       _wcspbrk                   1005ae02 f   libucrt:wcspbrk.obj
 0001:00059e63       __wcsicmp                  1005ae63 f   libucrt:wcsicmp.obj
 0001:00059f14       __wcsicmp_l                1005af14 f   libucrt:wcsicmp.obj
 0001:0005a028       ??0?$__crt_scoped_stack_ptr@_W@@QAE@U?$__crt_scoped_stack_ptr_tag@_W@@@Z 1005b028 f i libucrt:getstringtypea.obj
 0001:0005a03c       ??0?$__crt_scoped_stack_ptr_tag@_W@@QAE@QA_W@Z 1005b03c f i libucrt:getstringtypea.obj
 0001:0005a050       ??1?$__crt_scoped_stack_ptr@_W@@QAE@XZ 1005b050 f i libucrt:getstringtypea.obj
 0001:0005a05b       ?get@?$__crt_scoped_stack_ptr@_W@@QBEPA_WXZ 1005b05b f i libucrt:getstringtypea.obj
 0001:0005a05e       __MallocaComputeSize       1005b05e f i libucrt:getstringtypea.obj
 0001:0005a075       __MarkAllocaS              1005b075 f i libucrt:getstringtypea.obj
 0001:0005a090       ___acrt_GetStringTypeA     1005b090 f   libucrt:getstringtypea.obj
 0001:0005a1d6       __freea_crt                1005b1d6 f i libucrt:getstringtypea.obj
 0001:0005ab2d       ___acrt_get_qualified_locale 1005bb2d f   libucrt:get_qualified_locale.obj
 0001:0005b71b       ___acrt_get_qualified_locale_downlevel 1005c71b f   libucrt:getqloc_downlevel.obj
 0001:0005b98f       _localeconv                1005c98f f   libucrt:localeconv.obj
 0001:0005b9c3       ___iswcsym                 1005c9c3 f i libucrt:_wctype.obj
 0001:0005b9f2       ___iswcsymf                1005c9f2 f i libucrt:_wctype.obj
 0001:0005ba21       __isleadbyte_l             1005ca21 f i libucrt:_wctype.obj
 0001:0005ba68       __iswalnum_l               1005ca68 f i libucrt:_wctype.obj
 0001:0005ba83       __iswalpha_l               1005ca83 f i libucrt:_wctype.obj
 0001:0005ba9e       __iswblank_l               1005ca9e f i libucrt:_wctype.obj
 0001:0005bac2       __iswcntrl_l               1005cac2 f i libucrt:_wctype.obj
 0001:0005bad9       __iswcsym_l                1005cad9 f i libucrt:_wctype.obj
 0001:0005bb08       __iswcsymf_l               1005cb08 f i libucrt:_wctype.obj
 0001:0005bb37       __iswdigit_l               1005cb37 f i libucrt:_wctype.obj
 0001:0005bb4e       __iswgraph_l               1005cb4e f i libucrt:_wctype.obj
 0001:0005bb69       __iswlower_l               1005cb69 f i libucrt:_wctype.obj
 0001:0005bb80       __iswprint_l               1005cb80 f i libucrt:_wctype.obj
 0001:0005bb9b       __iswpunct_l               1005cb9b f i libucrt:_wctype.obj
 0001:0005bbb2       __iswspace_l               1005cbb2 f i libucrt:_wctype.obj
 0001:0005bbc9       __iswupper_l               1005cbc9 f i libucrt:_wctype.obj
 0001:0005bbe0       __iswxdigit_l              1005cbe0 f i libucrt:_wctype.obj
 0001:0005bbfb       _isleadbyte                1005cbfb f i libucrt:_wctype.obj
 0001:0005bc12       _iswalnum                  1005cc12 f i libucrt:_wctype.obj
 0001:0005bc2d       _iswalpha                  1005cc2d f i libucrt:_wctype.obj
 0001:0005bc48       _iswascii                  1005cc48 f i libucrt:_wctype.obj
 0001:0005bc61       _iswblank                  1005cc61 f i libucrt:_wctype.obj
 0001:0005bc85       _iswcntrl                  1005cc85 f i libucrt:_wctype.obj
 0001:0005bc9c       _iswdigit                  1005cc9c f i libucrt:_wctype.obj
 0001:0005bcb3       _iswgraph                  1005ccb3 f i libucrt:_wctype.obj
 0001:0005bcce       _iswlower                  1005ccce f i libucrt:_wctype.obj
 0001:0005bce5       _iswprint                  1005cce5 f i libucrt:_wctype.obj
 0001:0005bd00       _iswpunct                  1005cd00 f i libucrt:_wctype.obj
 0001:0005bd17       _iswspace                  1005cd17 f i libucrt:_wctype.obj
 0001:0005bd2e       _iswupper                  1005cd2e f i libucrt:_wctype.obj
 0001:0005bd45       _iswxdigit                 1005cd45 f i libucrt:_wctype.obj
 0001:0005bd60       ??B?$__crt_scoped_stack_ptr@_W@@QBE_NXZ 1005cd60 f i libucrt:lcmapstringa.obj
 0001:0005bfce       ___acrt_LCMapStringA       1005cfce f   libucrt:lcmapstringa.obj
 0001:0005c062       ?__mbrtowc_utf8@__crt_mbstring@@YAIPA_WPBDIPAU_Mbstatet@@@Z 1005d062 f   libucrt:mbrtowc.obj
 0001:0005c0b4       ?__mbsrtowcs_utf8@__crt_mbstring@@YAIPA_WPAPBDIPAU_Mbstatet@@@Z 1005d0b4 f   libucrt:mbrtowc.obj
 0001:0005c5d1       _btowc                     1005d5d1 f   libucrt:mbrtowc.obj
 0001:0005c641       _mbrlen                    1005d641 f   libucrt:mbrtowc.obj
 0001:0005c682       _mbrtowc                   1005d682 f   libucrt:mbrtowc.obj
 0001:0005c6e9       _mbsrtowcs                 1005d6e9 f   libucrt:mbrtowc.obj
 0001:0005c6f6       _mbsrtowcs_s               1005d6f6 f   libucrt:mbrtowc.obj
 0001:0005c7c1       ___acrt_fp_strflt_to_string 1005d7c1 f   libucrt:_fptostr.obj
 0001:0005e0e0       ??0big_integer@__crt_strtox@@QAE@ABU01@@Z 1005f0e0 f i libucrt:cfout.obj
 0001:0005e120       ??0big_integer@__crt_strtox@@QAE@XZ 1005f120 f i libucrt:cfout.obj
 0001:0005e180       ??4big_integer@__crt_strtox@@QAEAAU01@ABU01@@Z 1005f180 f i libucrt:cfout.obj
 0001:0005e1c0       ??8__crt_strtox@@YA_NABUbig_integer@0@0@Z 1005f1c0 f i libucrt:cfout.obj
 0001:0005e210       ??9__crt_strtox@@YA_NABUbig_integer@0@0@Z 1005f210 f i libucrt:cfout.obj
 0001:0005e260       ?add_carry@__crt_strtox@@YAIAAIII@Z 1005f260 f i libucrt:cfout.obj
 0001:0005e290       ?add_multiply_carry@__crt_strtox@@YAIAAIIII@Z 1005f290 f i libucrt:cfout.obj
 0001:0005e2c0       ?bit_scan_reverse@__crt_strtox@@YAII@Z 1005f2c0 f i libucrt:cfout.obj
 0001:0005e2f0       ?count_sequential_high_zeroes@__crt_strtox@@YAII@Z 1005f2f0 f i libucrt:cfout.obj
 0001:0005e320       ?divide@__crt_strtox@@YA_KAAUbig_integer@1@ABU21@@Z 1005f320 f i libucrt:cfout.obj
 0001:0005e8d0       ?is_zero@__crt_strtox@@YA_NABUbig_integer@1@@Z 1005f8d0 f i libucrt:cfout.obj
 0001:0005e8f0       ?make_big_integer@__crt_strtox@@YA?AUbig_integer@1@_K@Z 1005f8f0 f i libucrt:cfout.obj
 0001:0005e920       ?make_big_integer_power_of_two@__crt_strtox@@YA?AUbig_integer@1@I@Z 1005f920 f i libucrt:cfout.obj
 0001:0005e980       ?multiply@__crt_strtox@@YA_NAAUbig_integer@1@ABU21@@Z 1005f980 f i libucrt:cfout.obj
 0001:0005ed90       ?multiply@__crt_strtox@@YA_NAAUbig_integer@1@I@Z 1005fd90 f i libucrt:cfout.obj
 0001:0005ee90       ?multiply_64_32@__crt_strtox@@YA_K_KI@Z 1005fe90 f i libucrt:cfout.obj
 0001:0005eeb0       ?multiply_by_power_of_ten@__crt_strtox@@YA_NAAUbig_integer@1@I@Z 1005feb0 f i libucrt:cfout.obj
 0001:0005f520       ?multiply_core@__crt_strtox@@YAIQAIII@Z 10060520 f i libucrt:cfout.obj
 0001:0005f570       ?shift_left@__crt_strtox@@YA_NAAUbig_integer@1@I@Z 10060570 f i libucrt:cfout.obj
 0001:0005f71b       ___acrt_fltout             1006071b f   libucrt:cfout.obj
 0001:00061006       _nextafter                 10062006 f   libucrt:nextafter.obj
 0001:00061140       _qsort                     10062140 f   libucrt:qsort.obj
 0001:00061771       _strncpy_s                 10062771 f   libucrt:strncpy_s.obj
 0001:00061780       _strpbrk                   10062780 f   libucrt:strpbrk.obj
 0001:000617d0       ??$__acrt_convert_wcs_mbs@D_W$$A6AIPA_WPBDIPAU__crt_locale_pointers@@@ZU__crt_win32_buffer_internal_dynamic_resizing@@@@YAHQBDAAV?$__crt_win32_buffer@_WU__crt_win32_buffer_internal_dynamic_resizing@@@@A6AIPA_WPBDIPAU__crt_locale_pointers@@@Z4@Z 100627d0 f i libucrt:findfirstfileexa.obj
 0001:00061899       ??$__acrt_mbs_to_wcs@U__crt_win32_buffer_internal_dynamic_resizing@@@@YAHQBDAAV?$__crt_win32_buffer@_WU__crt_win32_buffer_internal_dynamic_resizing@@@@PAU__crt_locale_pointers@@@Z 10062899 f i libucrt:findfirstfileexa.obj
 0001:000618bd       ?set_to_nullptr@?$__crt_win32_buffer@_WU__crt_win32_buffer_internal_dynamic_resizing@@@@QAEXXZ 100628bd f i libucrt:findfirstfileexa.obj
 0001:000618d9       ___acrt_FindFirstFileExA   100628d9 f   libucrt:findfirstfileexa.obj
 0001:00061958       ??$?0$0BAE@@?$__crt_win32_buffer@DU__crt_win32_buffer_no_resizing@@@@QAE@AAY0BAE@D@Z 10062958 f i libucrt:findnextfilea.obj
 0001:00061987       ??$?0$0O@@?$__crt_win32_buffer@DU__crt_win32_buffer_no_resizing@@@@QAE@AAY0O@D@Z 10062987 f i libucrt:findnextfilea.obj
 0001:000619b4       ??$__acrt_convert_wcs_mbs@_WD$$A6AIPADPB_WIPAU__crt_locale_pointers@@@ZU__crt_win32_buffer_no_resizing@@@@YAHQB_WAAV?$__crt_win32_buffer@DU__crt_win32_buffer_no_resizing@@@@A6AIPADPB_WIPAU__crt_locale_pointers@@@Z4@Z 100629b4 f i libucrt:findnextfilea.obj
 0001:00061a7e       ??$__acrt_wcs_to_mbs@U__crt_win32_buffer_no_resizing@@@@YAHQB_WAAV?$__crt_win32_buffer@DU__crt_win32_buffer_no_resizing@@@@PAU__crt_locale_pointers@@@Z 10062a7e f i libucrt:findnextfilea.obj
 0001:00061aa2       ??1?$__crt_win32_buffer@DU__crt_win32_buffer_no_resizing@@@@QAE@XZ 10062aa2 f i libucrt:findnextfilea.obj
 0001:00061aaf       ?_deallocate@?$__crt_win32_buffer@DU__crt_win32_buffer_no_resizing@@@@AAEXXZ 10062aaf f i libucrt:findnextfilea.obj
 0001:00061abc       ?allocate@?$__crt_win32_buffer@DU__crt_win32_buffer_no_resizing@@@@QAEHI@Z 10062abc f i libucrt:findnextfilea.obj
 0001:00061aec       ?allocate@__crt_win32_buffer_no_resizing@@SAHQAPAXIABV__crt_win32_buffer_empty_debug_info@@@Z 10062aec f i libucrt:findnextfilea.obj
 0001:00061afc       ?capacity@?$__crt_win32_buffer@DU__crt_win32_buffer_no_resizing@@@@QBEIXZ 10062afc f i libucrt:findnextfilea.obj
 0001:00061b00       ?data@?$__crt_win32_buffer@DU__crt_win32_buffer_no_resizing@@@@QAEPADXZ 10062b00 f i libucrt:findnextfilea.obj
 0001:00061b04       ?deallocate@__crt_win32_buffer_no_resizing@@SAXQAXABV__crt_win32_buffer_empty_debug_info@@@Z 10062b04 f i libucrt:findnextfilea.obj
 0001:00061b05       ?debug_info@?$__crt_win32_buffer@DU__crt_win32_buffer_no_resizing@@@@QBEABV__crt_win32_buffer_empty_debug_info@@XZ 10062b05 f i libucrt:findnextfilea.obj
 0001:00061b08       ?set_to_nullptr@?$__crt_win32_buffer@DU__crt_win32_buffer_no_resizing@@@@QAEXXZ 10062b08 f i libucrt:findnextfilea.obj
 0001:00061b21       ?size@?$__crt_win32_buffer@DU__crt_win32_buffer_no_resizing@@@@QAEXI@Z 10062b21 f i libucrt:findnextfilea.obj
 0001:00061b33       ___acrt_FindNextFileA      10062b33 f   libucrt:findnextfilea.obj
 0001:00061cc4       __mbsdec                   10062cc4 f   libucrt:mbsdec.obj
 0001:00061ce0       __mbsdec_l                 10062ce0 f   libucrt:mbsdec.obj
 0001:00061da4       __wcsnicoll                10062da4 f   libucrt:wcsnicol.obj
 0001:00061e9c       __wcsnicoll_l              10062e9c f   libucrt:wcsnicol.obj
 0001:00062001       __strnicoll                10063001 f   libucrt:strnicol.obj
 0001:00062034       __strnicoll_l              10063034 f   libucrt:strnicol.obj
 0001:00062130       ___acrt_SetEnvironmentVariableA 10063130 f   libucrt:setenvironmentvariablea.obj
 0001:000621ff       __msize                    100631ff f   libucrt:msize.obj
 0001:0006220c       __msize_base               1006320c f   libucrt:msize.obj
 0001:0006224b       ___acrt_GetStringTypeW     1006324b f   libucrt:getstringtypew.obj
 0001:0006226a       __towlower_l               1006326a f   libucrt:towlower.obj
 0001:00062365       _towlower                  10063365 f   libucrt:towlower.obj
 0001:00062380       ___ascii_strnicmp          10063380 f   libucrt:_strnicm.obj
 0001:000623f9       ??$__crt_interlocked_read@H@@YAHPDH@Z 100633f9 f i libucrt:setmode.obj
 0001:00062408       ?value@?$dual_state_global@H@__crt_state_management@@QAEAAHXZ 10063408 f i libucrt:setmode.obj
 0001:0006240b       __get_fmode                1006340b f   libucrt:setmode.obj
 0001:00062442       __set_fmode                10063442 f   libucrt:setmode.obj
 0001:0006248e       __setmode                  1006348e f   libucrt:setmode.obj
 0001:000625d6       __setmode_nolock           100635d6 f   libucrt:setmode.obj
 0001:00062867       __chsize                   10063867 f   libucrt:chsize.obj
 0001:0006288a       __chsize_nolock            1006388a f   libucrt:chsize.obj
 0001:00062a7f       __chsize_s                 10063a7f f   libucrt:chsize.obj
 0001:00062b57       __umask                    10063b57 f   libucrt:umask.obj
 0001:00062b85       __umask_s                  10063b85 f   libucrt:umask.obj
 0001:00062ca8       ___dcrt_lowio_ensure_console_output_initialized 10063ca8 f   libucrt:initcon.obj
 0001:00062cce       ___dcrt_terminate_console_output 10063cce f   libucrt:initcon.obj
 0001:00062cea       ___dcrt_write_console      10063cea f   libucrt:initcon.obj
 0001:00062e6d       ___acrt_GetLocaleInfoA     10063e6d f   libucrt:getlocaleinfoa.obj
 0001:0006308b       ___strncnt                 1006408b f   libucrt:strncnt.obj
 0001:000630ae       ?__mbrtoc32_utf8@__crt_mbstring@@YAIPA_UPBDIPAU_Mbstatet@@@Z 100640ae f   libucrt:mbrtoc32.obj
 0001:000632cf       ?reset_and_return@__crt_mbstring@@YAIIPAU_Mbstatet@@@Z 100642cf f i libucrt:mbrtoc32.obj
 0001:000632e8       ?return_illegal_sequence@__crt_mbstring@@YAIPAU_Mbstatet@@@Z 100642e8 f i libucrt:mbrtoc32.obj
 0001:0006330e       _mbrtoc32                  1006430e f   libucrt:mbrtoc32.obj
 0001:0006331b       _fegetenv                  1006431b f   libucrt:fegetenv.obj
 0001:0006333f       _fesetenv                  1006433f f   libucrt:fesetenv.obj
 0001:0006339f       _feholdexcept              1006439f f   libucrt:feholdexcept.obj
 0001:00063410       __CIlog10                  10064410 f   libucrt:log10_impl.obj
 0001:0006344b       __CIlog10_default          1006444b f   libucrt:log10_impl.obj
 0001:0006345f       __log10_default            1006445f     libucrt:log10_impl.obj
 0001:00063570       _ceil                      10064570 f   libucrt:ceil_pentium4.obj
 0001:000635b0       __ceil_pentium4            100645b0 f   libucrt:ceil_pentium4.obj
 0001:000636d4       _nexttoward                100646d4 f   libucrt:nexttoward.obj
 0001:00063c1c       __wcstombs_l               10064c1c f   libucrt:wcstombs.obj
 0001:00063c29       __wcstombs_s_l             10064c29 f   libucrt:wcstombs.obj
 0001:00063d29       _wcstombs                  10064d29 f   libucrt:wcstombs.obj
 0001:00063d49       _wcstombs_s                10064d49 f   libucrt:wcstombs.obj
 0001:00063d71       ___acrt_CompareStringW     10064d71 f   libucrt:comparestringw.obj
 0001:00064108       ___acrt_CompareStringA     10065108 f   libucrt:comparestringa.obj
 0001:00064162       ___acrt_LCMapStringW       10065162 f   libucrt:lcmapstringw.obj
 0001:000641af       ___p__fmode                100651af f   libucrt:txtmode.obj
 0001:000641b5       ??$__acrt_fenv_shift_bits@W4__acrt_fenv_abstract_control@@@@YA?AW4__acrt_fenv_abstract_control@@W40@0I@Z 100651b5 f i libucrt:_fenvutils.obj
 0001:000641cb       ??$__acrt_fenv_shift_bits@W4__acrt_fenv_abstract_status@@@@YA?AW4__acrt_fenv_abstract_status@@W40@0I@Z 100651cb f i libucrt:_fenvutils.obj
 0001:000641e1       ??$__acrt_fenv_translate_bit@W4__acrt_fenv_abstract_control@@W4__acrt_fenv_machine_sse_control@@@@YA?AW4__acrt_fenv_abstract_control@@W4__acrt_fenv_machine_sse_control@@0W40@1@Z 100651e1 f i libucrt:_fenvutils.obj
 0001:000641ff       ??$__acrt_fenv_translate_bit@W4__acrt_fenv_abstract_control@@W4__acrt_fenv_machine_x87_control@@@@YA?AW4__acrt_fenv_abstract_control@@W4__acrt_fenv_machine_x87_control@@0W40@1@Z 100651ff f i libucrt:_fenvutils.obj
 0001:0006421d       ??$__acrt_fenv_translate_bit@W4__acrt_fenv_abstract_status@@W4__acrt_fenv_machine_sse_status@@@@YA?AW4__acrt_fenv_abstract_status@@W4__acrt_fenv_machine_sse_status@@0W40@1@Z 1006521d f i libucrt:_fenvutils.obj
 0001:00064237       ??$__acrt_fenv_translate_bit@W4__acrt_fenv_abstract_status@@W4__acrt_fenv_machine_x87_status@@@@YA?AW4__acrt_fenv_abstract_status@@W4__acrt_fenv_machine_x87_status@@0W40@1@Z 10065237 f i libucrt:_fenvutils.obj
 0001:00064251       ??$__acrt_fenv_translate_bit@W4__acrt_fenv_machine_sse_control@@W4__acrt_fenv_abstract_control@@@@YA?AW4__acrt_fenv_machine_sse_control@@W4__acrt_fenv_abstract_control@@0W40@1@Z 10065251 f i libucrt:_fenvutils.obj
 0001:0006426d       ??$__acrt_fenv_translate_bit@W4__acrt_fenv_machine_sse_status@@W4__acrt_fenv_abstract_status@@@@YA?AW4__acrt_fenv_machine_sse_status@@W4__acrt_fenv_abstract_status@@0W40@1@Z 1006526d f i libucrt:_fenvutils.obj
 0001:00064287       ??$__acrt_fenv_translate_bit@W4__acrt_fenv_machine_x87_control@@W4__acrt_fenv_abstract_control@@@@YA?AW4__acrt_fenv_machine_x87_control@@W4__acrt_fenv_abstract_control@@0W40@1@Z 10065287 f i libucrt:_fenvutils.obj
 0001:000642a3       ??$__acrt_fenv_translate_bit@W4__acrt_fenv_machine_x87_status@@W4__acrt_fenv_abstract_status@@@@YA?AW4__acrt_fenv_machine_x87_status@@W4__acrt_fenv_abstract_status@@0W40@1@Z 100652a3 f i libucrt:_fenvutils.obj
 0001:000642bd       ??$__acrt_fenv_unshift_bits@W4__acrt_fenv_abstract_control@@@@YA?AW4__acrt_fenv_abstract_control@@W40@0I@Z 100652bd f i libucrt:_fenvutils.obj
 0001:000642d3       ??$__acrt_fenv_unshift_bits@W4__acrt_fenv_abstract_status@@@@YA?AW4__acrt_fenv_abstract_status@@W40@0I@Z 100652d3 f i libucrt:_fenvutils.obj
 0001:000648fe       ??I@YA?AW4__acrt_fenv_abstract_control@@W40@0@Z 100658fe f i libucrt:_fenvutils.obj
 0001:0006490e       ??I@YA?AW4__acrt_fenv_abstract_status@@W40@0@Z 1006590e f i libucrt:_fenvutils.obj
 0001:0006491e       ??I@YA?AW4__acrt_fenv_machine_sse_control@@W40@0@Z 1006591e f i libucrt:_fenvutils.obj
 0001:0006492e       ??I@YA?AW4__acrt_fenv_machine_sse_status@@W40@0@Z 1006592e f i libucrt:_fenvutils.obj
 0001:0006493e       ??I@YA?AW4__acrt_fenv_machine_x87_control@@W40@0@Z 1006593e f i libucrt:_fenvutils.obj
 0001:0006494e       ??I@YA?AW4__acrt_fenv_machine_x87_status@@W40@0@Z 1006594e f i libucrt:_fenvutils.obj
 0001:0006495e       ??U@YA?AW4__acrt_fenv_abstract_control@@W40@0@Z 1006595e f i libucrt:_fenvutils.obj
 0001:0006496e       ??U@YA?AW4__acrt_fenv_abstract_status@@W40@0@Z 1006596e f i libucrt:_fenvutils.obj
 0001:0006497e       ??U@YA?AW4__acrt_fenv_machine_sse_control@@W40@0@Z 1006597e f i libucrt:_fenvutils.obj
 0001:0006498e       ??U@YA?AW4__acrt_fenv_machine_x87_control@@W40@0@Z 1006598e f i libucrt:_fenvutils.obj
 0001:0006499e       ??_5@YAAAW4__acrt_fenv_abstract_control@@AAW40@W40@@Z 1006599e f i libucrt:_fenvutils.obj
 0001:000649b0       ??_5@YAAAW4__acrt_fenv_abstract_status@@AAW40@W40@@Z 100659b0 f i libucrt:_fenvutils.obj
 0001:000649c2       ??_5@YAAAW4__acrt_fenv_machine_sse_control@@AAW40@W40@@Z 100659c2 f i libucrt:_fenvutils.obj
 0001:000649d7       ??_5@YAAAW4__acrt_fenv_machine_sse_status@@AAW40@W40@@Z 100659d7 f i libucrt:_fenvutils.obj
 0001:000649e9       ??_5@YAAAW4__acrt_fenv_machine_x87_control@@AAW40@W40@@Z 100659e9 f i libucrt:_fenvutils.obj
 0001:000649fe       ??_5@YAAAW4__acrt_fenv_machine_x87_status@@AAW40@W40@@Z 100659fe f i libucrt:_fenvutils.obj
 0001:00064a10       ?__acrt_fenv_shift_abstract_sse_control@@YA?AW4__acrt_fenv_abstract_control@@W41@@Z 10065a10 f i libucrt:_fenvutils.obj
 0001:00064a34       ?__acrt_fenv_shift_abstract_sse_status@@YA?AW4__acrt_fenv_abstract_status@@W41@@Z 10065a34 f i libucrt:_fenvutils.obj
 0001:00064a48       ?__acrt_fenv_shift_abstract_x87_control@@YA?AW4__acrt_fenv_abstract_control@@W41@@Z 10065a48 f i libucrt:_fenvutils.obj
 0001:00064a6c       ?__acrt_fenv_shift_abstract_x87_status@@YA?AW4__acrt_fenv_abstract_status@@W41@@Z 10065a6c f i libucrt:_fenvutils.obj
 0001:00064a80       ?__acrt_fenv_unshift_abstract_sse_control@@YA?AW4__acrt_fenv_abstract_control@@W41@@Z 10065a80 f i libucrt:_fenvutils.obj
 0001:00064aa6       ?__acrt_fenv_unshift_abstract_sse_status@@YA?AW4__acrt_fenv_abstract_status@@W41@@Z 10065aa6 f i libucrt:_fenvutils.obj
 0001:00064aba       ?__acrt_fenv_unshift_abstract_x87_control@@YA?AW4__acrt_fenv_abstract_control@@W41@@Z 10065aba f i libucrt:_fenvutils.obj
 0001:00064ae0       ?__acrt_fenv_unshift_abstract_x87_status@@YA?AW4__acrt_fenv_abstract_status@@W41@@Z 10065ae0 f i libucrt:_fenvutils.obj
 0001:00065197       ___acrt_fenv_expand_round_control 10066197 f   libucrt:_fenvutils.obj
 0001:000651da       ___acrt_fenv_get_common_round_control 100661da f   libucrt:_fenvutils.obj
 0001:00065204       ___acrt_fenv_get_control   10066204 f   libucrt:_fenvutils.obj
 0001:000652a6       ___acrt_fenv_get_fp_status_word_from_exception_mask 100662a6 f   libucrt:_fenvutils.obj
 0001:000652c6       ___acrt_fenv_get_status    100662c6 f   libucrt:_fenvutils.obj
 0001:000653b8       ___acrt_fenv_set_control   100663b8 f   libucrt:_fenvutils.obj
 0001:0006543c       ___acrt_fenv_set_status    1006643c f   libucrt:_fenvutils.obj
 0001:00065708       ___control87_2             10066708 f   libucrt:ieee87.obj
 0001:00065cd4       ___fpreset_sse2            10066cd4 f   libucrt:ieee87.obj
 0001:00065f1d       __clearfp                  10066f1d f   libucrt:ieee87.obj
 0001:00066035       __control87                10067035 f   libucrt:ieee87.obj
 0001:000663f3       __controlfp                100673f3 f   libucrt:ieee87.obj
 0001:00066413       __fpreset                  10067413 f   libucrt:ieee87.obj
 0001:00066516       __set_controlfp            10067516 f   libucrt:ieee87.obj
 0001:000665ac       __statusfp                 100675ac f   libucrt:ieee87.obj
 0001:00066670       __statusfp2                10067670 f   libucrt:ieee87.obj
 0001:000666ee       ___acrt_initialize_sse2    100676ee f   libucrt:mathfcns.obj
 0001:00066702       __set_SSE2_enable          10067702 f   libucrt:mathfcns.obj
 0001:00066730       __CIlog10_pentium4         10067730 f   libucrt:log10_pentium4.obj
 0001:00066748       __log10_pentium4           10067748     libucrt:log10_pentium4.obj
 0001:00066a90       __fFEXP                    10067a90 f   libucrt:87tran.obj
 0001:00066ae7       __rtinfpopse               10067ae7     libucrt:87tran.obj
 0001:00066ae9       __rtinfnpopse              10067ae9     libucrt:87tran.obj
 0001:00066af9       __fFLN                     10067af9     libucrt:87tran.obj
 0001:00066bae       __rtinfpop                 10067bae     libucrt:87tran.obj
 0001:00066bb0       __rtinfnpop                10067bb0     libucrt:87tran.obj
 0001:00066bc0       __rtforexpinf              10067bc0 f   libucrt:87tran.obj
 0001:00066bcd       __ffexpm1                  10067bcd     libucrt:87tran.obj
 0001:00066d00       __trandisp1                10067d00 f   libucrt:87disp.obj
 0001:00066d75       __trandisp2                10067d75 f   libucrt:87disp.obj
 0001:00066e0f       __rttospopde               10067e0f     libucrt:87disp.obj
 0001:00066e14       __rttospop                 10067e14     libucrt:87disp.obj
 0001:00066e20       __rtnospop                 10067e20 f   libucrt:87disp.obj
 0001:00066e30       __rttosnpop                10067e30 f   libucrt:87disp.obj
 0001:00066e31       __rtnospopde               10067e31     libucrt:87disp.obj
 0001:00066e38       __rtzeropop                10067e38     libucrt:87disp.obj
 0001:00066e3a       __rtzeronpop               10067e3a     libucrt:87disp.obj
 0001:00066e40       __rtzerospop               10067e40 f   libucrt:87disp.obj
 0001:00066e4d       __rtonepop                 10067e4d     libucrt:87disp.obj
 0001:00066e50       __rtonenpop                10067e50 f   libucrt:87disp.obj
 0001:00066e60       __tosnan1                  10067e60 f   libucrt:87disp.obj
 0001:00066e90       __nosnan2                  10067e90 f   libucrt:87disp.obj
 0001:00066ea0       __tosnan2                  10067ea0 f   libucrt:87disp.obj
 0001:00066ed0       __nan2                     10067ed0 f   libucrt:87disp.obj
 0001:00066f10       __rtindfpop                10067f10 f   libucrt:87disp.obj
 0001:00066f12       __rtindfnpop               10067f12     libucrt:87disp.obj
 0001:00066f23       __rttosnpopde              10067f23     libucrt:87disp.obj
 0001:00066f30       __rtatan2inf               10067f30 f   libucrt:87disp.obj
 0001:00066f4d       __rtchsifneg               10067f4d     libucrt:87disp.obj
 0001:00066fe9       ___setfflag                10067fe9 f   libucrt:fp_flags.obj
 0001:00067010       __twoToTOS                 10068010 f   libucrt:common.obj
 0001:00067025       __load_CW                  10068025 f   libucrt:common.obj
 0001:0006703c       __convertTOStoQNaN         1006803c f   libucrt:common.obj
 0001:00067055       __fload_withFB             10068055 f   libucrt:common.obj
 0001:00067098       __checkTOS_withFB          10068098 f   libucrt:common.obj
 0001:000670ae       __fast_exit                100680ae f   libucrt:common.obj
 0001:000670bb       __math_exit                100680bb f   libucrt:common.obj
 0001:000670e5       __check_overflow_exit      100680e5 f   libucrt:common.obj
 0001:000670f9       __check_range_exit         100680f9 f   libucrt:common.obj
 0001:00067200       __startTwoArgErrorHandling 10068200 f   libucrt:genexcep.obj
 0001:00067217       __startOneArgErrorHandling 10068217 f   libucrt:genexcep.obj
 0001:00067267       ___libm_error_support      10068267 f   libucrt:libm_error.obj
 0001:00067505       ___libm_setusermatherr     10068505 f   libucrt:libm_error.obj
 0001:00067535       __ceil_default             10068535 f   libucrt:ceil.obj
 0001:000676b2       __d_int                    100686b2 f   libucrt:_test.obj
 0001:000677fc       __dtest                    100687fc f   libucrt:_test.obj
 0001:00067879       __fd_int                   10068879 f   libucrt:_test.obj
 0001:0006797b       __fdtest                   1006897b f   libucrt:_test.obj
 0001:000679dc       __fperrraise               100689dc f   libucrt:_test.obj
 0001:00067a07       __ld_int                   10068a07 f   libucrt:_test.obj
 0001:00067a14       __ldtest                   10068a14 f   libucrt:_test.obj
 0001:00067a21       ?__wcsrtombs_utf8@__crt_mbstring@@YAIPADPAPB_WIPAU_Mbstatet@@@Z 10068a21 f   libucrt:wcrtomb.obj
 0001:00067ecb       _wcrtomb                   10068ecb f   libucrt:wcrtomb.obj
 0001:00067f08       _wcrtomb_s                 10068f08 f   libucrt:wcrtomb.obj
 0001:00067f9f       _wcsrtombs                 10068f9f f   libucrt:wcrtomb.obj
 0001:00067fac       _wcsrtombs_s               10068fac f   libucrt:wcrtomb.obj
 0001:0006806b       _wctob                     1006906b f   libucrt:wcrtomb.obj
 0001:000680df       __controlfp_s              100690df f   libucrt:contrlfp.obj
 0001:00068155       __d_inttype                10069155 f   libucrt:powhlp.obj
 0001:000681d9       __powhlp                   100691d9 f   libucrt:powhlp.obj
 0001:0006834e       __87except                 1006934e f   libucrt:87except.obj
 0001:0006849a       __frnd                     1006949a f   libucrt:frnd.obj
 0001:000684b5       ??_4@YAAAW4__acrt_fenv_abstract_status@@AAW40@W40@@Z 100694b5 f i libucrt:fegetexceptflag.obj
 0001:000684c7       _fegetexceptflag           100694c7 f   libucrt:fegetexceptflag.obj
 0001:00068504       ??S@YA?AW4__acrt_fenv_abstract_status@@W40@@Z 10069504 f i libucrt:fesetexceptflag.obj
 0001:00068513       _fesetexceptflag           10069513 f   libucrt:fesetexceptflag.obj
 0001:00068582       ?__c16rtomb_utf8@__crt_mbstring@@YAIPAD_SPAU_Mbstatet@@@Z 10069582 f   libucrt:c16rtomb.obj
 0001:000686da       _c16rtomb                  100696da f   libucrt:c16rtomb.obj
 0001:000686e7       _fetestexcept              100696e7 f   libucrt:fetestexcept.obj
 0001:00068711       ?__c32rtomb_utf8@__crt_mbstring@@YAIPAD_UPAU_Mbstatet@@@Z 10069711 f   libucrt:c32rtomb.obj
 0001:000687eb       _c32rtomb                  100697eb f   libucrt:c32rtomb.obj
 0001:00068800       __FindPESection            10069800 f   LIBCMT:pesect.obj
 0001:00068860       __IsNonwritableInCurrentImage 10069860 f   LIBCMT:pesect.obj
 0001:00068950       __ValidateImageBase        10069950 f   LIBCMT:pesect.obj
 0001:0006898f       __EH_epilog3               1006998f f   LIBCMT:ehprolg3.obj
 0001:000689a9       __EH_epilog3_GS            100699a9 f   LIBCMT:ehprolg3.obj
 0001:000689be       __EH_epilog3_catch_GS      100699be f   LIBCMT:ehprolg3.obj
 0001:000689d3       __EH_prolog3               100699d3 f   LIBCMT:ehprolg3.obj
 0001:00068a14       __EH_prolog3_GS            10069a14 f   LIBCMT:ehprolg3.obj
 0001:00068a58       __EH_prolog3_catch         10069a58 f   LIBCMT:ehprolg3.obj
 0001:00068a9c       __EH_prolog3_catch_GS      10069a9c f   LIBCMT:ehprolg3.obj
 0001:00068af0       __aulldvrm                 10069af0 f   LIBCMT:ulldvrm.obj
 0001:00068baa       ??1type_info@@UAE@XZ       10069baa f   LIBCMT:std_type_info_static.obj
 0001:00068bb1       ??_Etype_info@@UAEPAXI@Z   10069bb1 f i LIBCMT:std_type_info_static.obj
 0001:00068bb1       ??_Gtype_info@@UAEPAXI@Z   10069bb1 f i LIBCMT:std_type_info_static.obj
 0001:00068bdc       ??3@YAXPAXI@Z              10069bdc f   LIBCMT:delete_scalar_size.obj
 0001:00068bf0       __SEH_prolog4_GS           10069bf0 f   LIBCMT:sehprolg4gs.obj
 0001:00068c39       __SEH_epilog4_GS           10069c39 f   LIBCMT:sehprolg4gs.obj
 0001:00068c60       __allmul                   10069c60 f   LIBCMT:llmul.obj
 0001:00068cb0       __alloca_probe             10069cb0 f   LIBCMT:chkstk.obj
 0001:00068cb0       __chkstk                   10069cb0 f   LIBCMT:chkstk.obj
 0001:00068cf0       __alldvrm                  10069cf0 f   LIBCMT:lldvrm.obj
 0001:00068e10       __aullshr                  10069e10 f   LIBCMT:ullshr.obj
 0001:00068e40       __alloca_probe_16          10069e40 f   LIBCMT:alloca16.obj
 0001:00068e56       __alloca_probe_8           10069e56     LIBCMT:alloca16.obj
 0001:00068e80       __allshl                   10069e80 f   LIBCMT:llshl.obj
 0001:00068eb0       __ftol2_sse                10069eb0 f   LIBCMT:ftol2.obj
 0001:00068eb9       __ftol2_pentium4           10069eb9 f   LIBCMT:ftol2.obj
 0001:00068ecc       __ftol2_sse_excpt          10069ecc f   LIBCMT:ftol2.obj
 0001:00068ef0       __ftol2                    10069ef0 f   LIBCMT:ftol2.obj
 0001:00068f92       __initialize_default_precision 10069f92 f   LIBCMT:default_precision.obj
 0001:00068fbb       ??3@YAXPAX@Z               10069fbb f   LIBCMT:delete_scalar.obj
 0001:00068fc0       _InterlockedPushEntrySList@8 10069fc0 f   kernel32:KERNEL32.dll
 0001:00068fc6       _InterlockedFlushSList@4   10069fc6 f   kernel32:KERNEL32.dll
 0001:00068fcc       _RtlUnwind@16              10069fcc f   kernel32:KERNEL32.dll
 0001:00068fd2       _GetLastError@0            10069fd2 f   kernel32:KERNEL32.dll
 0001:00068fd8       _SetLastError@4            10069fd8 f   kernel32:KERNEL32.dll
 0001:00068fde       _EnterCriticalSection@4    10069fde f   kernel32:KERNEL32.dll
 0001:00068fe4       _LeaveCriticalSection@4    10069fe4 f   kernel32:KERNEL32.dll
 0001:00068fea       _DeleteCriticalSection@4   10069fea f   kernel32:KERNEL32.dll
 0001:00068ff0       _InitializeCriticalSectionAndSpinCount@8 10069ff0 f   kernel32:KERNEL32.dll
 0001:00068ff6       _TlsAlloc@0                10069ff6 f   kernel32:KERNEL32.dll
 0001:00068ffc       _TlsGetValue@4             10069ffc f   kernel32:KERNEL32.dll
 0001:00069002       _TlsSetValue@8             1006a002 f   kernel32:KERNEL32.dll
 0001:00069008       _TlsFree@4                 1006a008 f   kernel32:KERNEL32.dll
 0001:0006900e       _FreeLibrary@4             1006a00e f   kernel32:KERNEL32.dll
 0001:00069014       _LoadLibraryExW@12         1006a014 f   kernel32:KERNEL32.dll
 0001:0006901a       _EncodePointer@4           1006a01a f   kernel32:KERNEL32.dll
 0001:00069020       _RaiseException@16         1006a020 f   kernel32:KERNEL32.dll
 0001:00069026       _GetStdHandle@4            1006a026 f   kernel32:KERNEL32.dll
 0001:0006902c       _GetFileType@4             1006a02c f   kernel32:KERNEL32.dll
 0001:00069032       _GetModuleFileNameW@12     1006a032 f   kernel32:KERNEL32.dll
 0001:00069038       _GetModuleHandleExW@12     1006a038 f   kernel32:KERNEL32.dll
 0001:0006903e       _WriteConsoleW@20          1006a03e f   kernel32:KERNEL32.dll
 0001:00069044       _ExitProcess@4             1006a044 f   kernel32:KERNEL32.dll
 0001:0006904a       _HeapAlloc@12              1006a04a f   kernel32:KERNEL32.dll
 0001:00069050       _HeapFree@12               1006a050 f   kernel32:KERNEL32.dll
 0001:00069056       _WriteFile@20              1006a056 f   kernel32:KERNEL32.dll
 0001:0006905c       _OutputDebugStringW@4      1006a05c f   kernel32:KERNEL32.dll
 0001:00069062       _SetConsoleCtrlHandler@8   1006a062 f   kernel32:KERNEL32.dll
 0001:00069068       _HeapReAlloc@16            1006a068 f   kernel32:KERNEL32.dll
 0001:0006906e       _GetDateFormatW@24         1006a06e f   kernel32:KERNEL32.dll
 0001:00069074       _GetTimeFormatW@24         1006a074 f   kernel32:KERNEL32.dll
 0001:0006907a       _CompareStringW@24         1006a07a f   kernel32:KERNEL32.dll
 0001:00069080       _LCMapStringW@24           1006a080 f   kernel32:KERNEL32.dll
 0001:00069086       _GetLocaleInfoW@16         1006a086 f   kernel32:KERNEL32.dll
 0001:0006908c       _IsValidLocale@8           1006a08c f   kernel32:KERNEL32.dll
 0001:00069092       _GetUserDefaultLCID@0      1006a092 f   kernel32:KERNEL32.dll
 0001:00069098       _EnumSystemLocalesW@8      1006a098 f   kernel32:KERNEL32.dll
 0001:0006909e       _CloseHandle@4             1006a09e f   kernel32:KERNEL32.dll
 0001:000690a4       _ReadFile@20               1006a0a4 f   kernel32:KERNEL32.dll
 0001:000690aa       _GetConsoleMode@8          1006a0aa f   kernel32:KERNEL32.dll
 0001:000690b0       _ReadConsoleW@20           1006a0b0 f   kernel32:KERNEL32.dll
 0001:000690b6       _GetConsoleCP@0            1006a0b6 f   kernel32:KERNEL32.dll
 0001:000690bc       _MultiByteToWideChar@24    1006a0bc f   kernel32:KERNEL32.dll
 0001:000690c2       _GetCurrentThread@0        1006a0c2 f   kernel32:KERNEL32.dll
 0001:000690c8       _DeleteFileW@4             1006a0c8 f   kernel32:KERNEL32.dll
 0001:000690ce       _SetFilePointerEx@20       1006a0ce f   kernel32:KERNEL32.dll
 0001:000690d4       _FindClose@4               1006a0d4 f   kernel32:KERNEL32.dll
 0001:000690da       _FindFirstFileExW@24       1006a0da f   kernel32:KERNEL32.dll
 0001:000690e0       _FindNextFileW@8           1006a0e0 f   kernel32:KERNEL32.dll
 0001:000690e6       _IsValidCodePage@4         1006a0e6 f   kernel32:KERNEL32.dll
 0001:000690ec       _GetACP@0                  1006a0ec f   kernel32:KERNEL32.dll
 0001:000690f2       _GetOEMCP@0                1006a0f2 f   kernel32:KERNEL32.dll
 0001:000690f8       _GetCPInfo@8               1006a0f8 f   kernel32:KERNEL32.dll
 0001:000690fe       _GetCommandLineA@0         1006a0fe f   kernel32:KERNEL32.dll
 0001:00069104       _GetCommandLineW@0         1006a104 f   kernel32:KERNEL32.dll
 0001:0006910a       _WideCharToMultiByte@32    1006a10a f   kernel32:KERNEL32.dll
 0001:00069110       _GetEnvironmentStringsW@0  1006a110 f   kernel32:KERNEL32.dll
 0001:00069116       _FreeEnvironmentStringsW@4 1006a116 f   kernel32:KERNEL32.dll
 0001:0006911c       _SetEnvironmentVariableW@8 1006a11c f   kernel32:KERNEL32.dll
 0001:00069122       _GetProcessHeap@0          1006a122 f   kernel32:KERNEL32.dll
 0001:00069128       _FlushFileBuffers@4        1006a128 f   kernel32:KERNEL32.dll
 0001:0006912e       _SetStdHandle@8            1006a12e f   kernel32:KERNEL32.dll
 0001:00069134       _CreateFileW@28            1006a134 f   kernel32:KERNEL32.dll
 0001:0006913a       _GetStringTypeW@16         1006a13a f   kernel32:KERNEL32.dll
 0001:00069140       _HeapSize@12               1006a140 f   kernel32:KERNEL32.dll
 0001:00069146       _SetEndOfFile@4            1006a146 f   kernel32:KERNEL32.dll
 0001:0006914c       _DecodePointer@4           1006a14c f   kernel32:KERNEL32.dll
 0001:00069283       _memcmp                    1006a283 f   libvcruntime:memcmp.obj
 0001:0006b770       _strrchr                   1006c770 f   libvcruntime:strrchr.obj
 0001:0006b8f4       _wcschr                    1006c8f4 f   libvcruntime:wcschr.obj
 0002:00000000       ___xc_a                    10071000     LIBCMT:initializers.obj
 0002:00000104       ___xc_z                    10071104     LIBCMT:initializers.obj
 0002:00000208       ___xi_a                    10071208     LIBCMT:initializers.obj
 0002:0000030c       ___acrt_stdio_initializer  1007130c     libucrt:stdio_initializer.obj
 0002:00000310       ___acrt_multibyte_initializer 10071310     libucrt:multibyte_initializer.obj
 0002:00000314       ___acrt_tran_sse2_initializer 10071314     libucrt:sse2_initializer.obj
 0002:0000041c       ___xi_z                    1007141c     LIBCMT:initializers.obj
 0002:00000520       ___xp_a                    10071520     LIBCMT:initializers.obj
 0002:00000624       ___acrt_locale_terminator  10071624     libucrt:locale_initializer.obj
 0002:00000628       ___dcrt_console_output_terminator 10071628     libucrt:console_output_initializer.obj
 0002:00000730       ___acrt_stdio_terminator   10071730     libucrt:stdio_initializer.obj
 0002:00000834       ___xp_z                    10071834     LIBCMT:initializers.obj
 0002:00000938       ___xt_a                    10071938     LIBCMT:initializers.obj
 0002:00000a3c       ___xt_z                    10071a3c     LIBCMT:initializers.obj
 0002:00000b40       _homing_ldm_aggiornat_M    10071b40     homing_ldm_aggiornat.obj
 0002:00000b44       ??_C@_0BC@OJJPBDHH@FixedStepDiscrete@ 10071b44     homing_ldm_aggiornat.obj
 0002:00000b5c       ??_C@_04EPKDLPPB@tout@     10071b5c     homing_ldm_aggiornat.obj
 0002:00000b62       ??_C@_00CNPNBAHC@@         10071b62     homing_ldm_aggiornat.obj
 0002:00000b64       ??_C@_03HBFGMJOD@rt_@      10071b64     homing_ldm_aggiornat.obj
 0002:00000b68       ??_C@_0M@IJCNLJFC@PCI?96229?5DI@ 10071b68     homing_ldm_aggiornat.obj
 0002:00000b78       ??_C@_0CB@IGLIAGCP@homing_ldm_aggiornat?1PCI?96229?5D@ 10071b78     homing_ldm_aggiornat.obj
 0002:00000ba0       ??_C@_0P@NJNIKMIP@PCI?56229?5ENC?57@ 10071ba0     homing_ldm_aggiornat.obj
 0002:00000bb4       ??_C@_0CE@GGMJICDP@homing_ldm_aggiornat?1PCI?56229?5E@ 10071bb4     homing_ldm_aggiornat.obj
 0002:00000be0       ??_C@_0P@MAMDJNMO@PCI?56229?5ENC?56@ 10071be0     homing_ldm_aggiornat.obj
 0002:00000bf4       ??_C@_0CE@HPNCLDHO@homing_ldm_aggiornat?1PCI?56229?5E@ 10071bf4     homing_ldm_aggiornat.obj
 0002:00000c20       ??_C@_0N@ENKCELGL@PCI?96229?5DA1@ 10071c20     homing_ldm_aggiornat.obj
 0002:00000c30       ??_C@_0CC@GDBJNDFF@homing_ldm_aggiornat?1PCI?96229?5D@ 10071c30     homing_ldm_aggiornat.obj
 0002:00000c58       ??_C@_0N@GGIPBIKI@PCI?96229?5DA2@ 10071c58     homing_ldm_aggiornat.obj
 0002:00000c68       ??_C@_0CC@EIDEIAJG@homing_ldm_aggiornat?1PCI?96229?5D@ 10071c68     homing_ldm_aggiornat.obj
 0002:00000c90       ??_C@_0N@GMBBDFKC@PCI?96229?5DO2@ 10071c90     homing_ldm_aggiornat.obj
 0002:00000ca0       ??_C@_0CC@ECKKKNJM@homing_ldm_aggiornat?1PCI?96229?5D@ 10071ca0     homing_ldm_aggiornat.obj
 0002:00000cc8       ??_C@_0P@PCPFPPEM@PCI?56229?5ENC?54@ 10071cc8     homing_ldm_aggiornat.obj
 0002:00000cdc       ??_C@_0CE@ENOENBPM@homing_ldm_aggiornat?1PCI?56229?5E@ 10071cdc     homing_ldm_aggiornat.obj
 0002:00000d08       ??_C@_0P@OLOOMOAN@PCI?56229?5ENC?55@ 10071d08     homing_ldm_aggiornat.obj
 0002:00000d1c       ??_C@_0CE@FEPPOALN@homing_ldm_aggiornat?1PCI?56229?5E@ 10071d1c     homing_ldm_aggiornat.obj
 0002:00000d48       __real@0000000000000000    10071d48     homing_ldm_aggiornat.obj
 0002:00000d58       __real@3f50624dd2f1a9fc    10071d58     homing_ldm_aggiornat.obj
 0002:00000d68       __real@3f947ae147ae147b    10071d68     homing_ldm_aggiornat.obj
 0002:00000d78       __real@3fa1111111111111    10071d78     homing_ldm_aggiornat.obj
 0002:00000d88       __real@3fd999999999999a    10071d88     homing_ldm_aggiornat.obj
 0002:00000d98       __real@3fe3333333333333    10071d98     homing_ldm_aggiornat.obj
 0002:00000da8       __real@3ff0000000000000    10071da8     homing_ldm_aggiornat.obj
 0002:00000db8       __real@3ff6666666666666    10071db8     homing_ldm_aggiornat.obj
 0002:00000dc8       __real@400199999999999a    10071dc8     homing_ldm_aggiornat.obj
 0002:00000dd8       __real@4024000000000000    10071dd8     homing_ldm_aggiornat.obj
 0002:00000de8       __real@41f0000000000000    10071de8     homing_ldm_aggiornat.obj
 0002:00000df8       __real@bff0000000000000    10071df8     homing_ldm_aggiornat.obj
 0002:00000e08       __real@bff6666666666666    10071e08     homing_ldm_aggiornat.obj
 0002:00000e18       __real@c00199999999999a    10071e18     homing_ldm_aggiornat.obj
 0002:00000e30       __xmm@00000000000000003ff0000000000000 10071e30     homing_ldm_aggiornat.obj
 0002:00000e50       __xmm@000041be000000390000005e00000002 10071e50     homing_ldm_aggiornat.obj
 0002:00000e70       __xmm@3f50624dd2f1a9fc0000000000000000 10071e70     homing_ldm_aggiornat.obj
 0002:00000e90       __xmm@3ff00000000000003ff0000000000000 10071e90     homing_ldm_aggiornat.obj
 0002:00000eb0       __xmm@3ff3333333333333c000cccccccccccd 10071eb0     homing_ldm_aggiornat.obj
 0002:00000ed0       __xmm@41f00000000000000000000000000000 10071ed0     homing_ldm_aggiornat.obj
 0002:00000ef0       __xmm@7fffffffffffffff7fffffffffffffff 10071ef0     homing_ldm_aggiornat.obj
 0002:00000f10       __xmm@80000000000000008000000000000000 10071f10     homing_ldm_aggiornat.obj
 0002:00000f30       __xmm@bff33333333333334000cccccccccccd 10071f30     homing_ldm_aggiornat.obj
 0002:00000f48       __real@3cb0000000000000    10071f48     rt_matrx.obj
 0002:00000f58       __real@3fe0000000000000    10071f58     rt_matrx.obj
 0002:00000f64       ??_C@_02KNOADLBB@Jm@       10071f64     homing_ldm_aggiornat_capi.obj
 0002:00000f68       ??_C@_01EFFIKLCJ@n@        10071f68     homing_ldm_aggiornat_capi.obj
 0002:00000f6c       ??_C@_02KCDBAAJO@Cm@       10071f6c     homing_ldm_aggiornat_capi.obj
 0002:00000f70       ??_C@_03LILOPHFI@Jp1@      10071f70     homing_ldm_aggiornat_capi.obj
 0002:00000f74       ??_C@_03JDJDKEJL@Jp2@      10071f74     homing_ldm_aggiornat_capi.obj
 0002:00000f78       ??_C@_03IKIIJFNK@Jp3@      10071f78     homing_ldm_aggiornat_capi.obj
 0002:00000f7c       ??_C@_01GOHFPIOK@m@        10071f7c     homing_ldm_aggiornat_capi.obj
 0002:00000f80       ??_C@_02IJDNECKD@d1@       10071f80     homing_ldm_aggiornat_capi.obj
 0002:00000f84       ??_C@_02KCBABBGA@d2@       10071f84     homing_ldm_aggiornat_capi.obj
 0002:00000f88       ??_C@_02LLALCACB@d3@       10071f88     homing_ldm_aggiornat_capi.obj
 0002:00000f8c       ??_C@_02JBJGJNGB@r1@       10071f8c     homing_ldm_aggiornat_capi.obj
 0002:00000f90       ??_C@_02LKLLMOKC@r2@       10071f90     homing_ldm_aggiornat_capi.obj
 0002:00000f94       ??_C@_02KDKAPPOD@r3@       10071f94     homing_ldm_aggiornat_capi.obj
 0002:00000f98       ??_C@_02IPPGIAEI@a1@       10071f98     homing_ldm_aggiornat_capi.obj
 0002:00000f9c       ??_C@_02KENLNDIL@a2@       10071f9c     homing_ldm_aggiornat_capi.obj
 0002:00000fa0       ??_C@_02LPGDFFPL@L1@       10071fa0     homing_ldm_aggiornat_capi.obj
 0002:00000fa4       ??_C@_02JEEOAGDI@L2@       10071fa4     homing_ldm_aggiornat_capi.obj
 0002:00000fa8       ??_C@_04GOEGMHOI@kcs1@     10071fa8     homing_ldm_aggiornat_capi.obj
 0002:00000fb0       ??_C@_04EFGLJECL@kcs2@     10071fb0     homing_ldm_aggiornat_capi.obj
 0002:00000fb8       ??_C@_02KPBABJGK@W1@       10071fb8     homing_ldm_aggiornat_capi.obj
 0002:00000fbc       ??_C@_02IEDNEKKJ@W2@       10071fbc     homing_ldm_aggiornat_capi.obj
 0002:00000fc0       ??_C@_02ICGBAFJO@k1@       10071fc0     homing_ldm_aggiornat_capi.obj
 0002:00000fc4       ??_C@_02KJEMFGFN@k2@       10071fc4     homing_ldm_aggiornat_capi.obj
 0002:00000fc8       ??_C@_02LAFHGHBM@k3@       10071fc8     homing_ldm_aggiornat_capi.obj
 0002:00000fcc       ??_C@_02PPBGPBNL@k4@       10071fcc     homing_ldm_aggiornat_capi.obj
 0002:00000fd0       ??_C@_01PLPBNMEI@M@        10071fd0     homing_ldm_aggiornat_capi.obj
 0002:00000fd4       ??_C@_01KNKLHLMO@K@        10071fd4     homing_ldm_aggiornat_capi.obj
 0002:00000fd8       ??_C@_01GLPGHMHM@z@        10071fd8     homing_ldm_aggiornat_capi.obj
 0002:00000fdc       ??_C@_03CBLLDLIM@tau@      10071fdc     homing_ldm_aggiornat_capi.obj
 0002:00000fe0       ??_C@_01FCMHBHNC@V@        10071fe0     homing_ldm_aggiornat_capi.obj
 0002:00000fe4       ??_C@_01CKDDGHAB@D@        10071fe4     homing_ldm_aggiornat_capi.obj
 0002:00000fe8       ??_C@_01KBJDNOO@i@         10071fe8     homing_ldm_aggiornat_capi.obj
 0002:00000fec       ??_C@_02JPBKMLIA@Mx@       10071fec     homing_ldm_aggiornat_capi.obj
 0002:00000ff0       ??_C@_02IGABPKMB@My@       10071ff0     homing_ldm_aggiornat_capi.obj
 0002:00000ff4       ??_C@_02ICIMIGHD@Ky@       10071ff4     homing_ldm_aggiornat_capi.obj
 0002:00000ff8       ??_C@_02JGHCLGFA@Vy@       10071ff8     homing_ldm_aggiornat_capi.obj
 0002:00000ffc       ??_C@_02IJNAMBEO@Dy@       10071ffc     homing_ldm_aggiornat_capi.obj
 0002:00001000       ??_C@_02ILHLPMPK@g1@       10072000     homing_ldm_aggiornat_capi.obj
 0002:00001004       ??_C@_02KAFGKPDJ@g2@       10072004     homing_ldm_aggiornat_capi.obj
 0002:00001008       ??_C@_02IOEGGOML@w0@       10072008     homing_ldm_aggiornat_capi.obj
 0002:0000100c       ??_C@_03BFKAHOOJ@csi@      1007200c     homing_ldm_aggiornat_capi.obj
 0002:00001010       ??_C@_04FGLIONNC@poli@     10072010     homing_ldm_aggiornat_capi.obj
 0002:00001018       ??_C@_01BBODEMC@G@         10072018     homing_ldm_aggiornat_capi.obj
 0002:0000101c       ??_C@_01FHEEJDEE@A@        1007201c     homing_ldm_aggiornat_capi.obj
 0002:00001020       ??_C@_01HMGJMAIH@B@        10072020     homing_ldm_aggiornat_capi.obj
 0002:00001024       ??_C@_02DPDGPJHO@Ac@       10072024     homing_ldm_aggiornat_capi.obj
 0002:00001028       ??_C@_05IEAKJACC@Astar@    10072028     homing_ldm_aggiornat_capi.obj
 0002:00001030       ??_C@_07OKHJJPEM@G_place@  10072030     homing_ldm_aggiornat_capi.obj
 0002:0000103c       ??_C@_08NNIHCPGD@Ac_place@ 1007203c     homing_ldm_aggiornat_capi.obj
 0002:00001048       ??_C@_0M@EBBPKEDL@Astar_place@ 10072048     homing_ldm_aggiornat_capi.obj
 0002:000027c0       ??_C@_05KNFBNCOH@float@    100737c0     homing_ldm_aggiornat_capi.obj
 0002:000027c8       ??_C@_08PAGDBCID@Chart?1p1@ 100737c8     homing_ldm_aggiornat_capi.obj
 0002:000027d4       ??_C@_08NLEOEBEA@Chart?1p2@ 100737d4     homing_ldm_aggiornat_capi.obj
 0002:000027e0       ??_C@_08MCFFHAAB@Chart?1p3@ 100737e0     homing_ldm_aggiornat_capi.obj
 0002:000027ec       ??_C@_08INBEOGMG@Chart?1p4@ 100737ec     homing_ldm_aggiornat_capi.obj
 0002:000027f8       ??_C@_08JEAPNHIH@Chart?1p5@ 100737f8     homing_ldm_aggiornat_capi.obj
 0002:00002804       ??_C@_08LPCCIEEE@Chart?1p6@ 10073804     homing_ldm_aggiornat_capi.obj
 0002:00002810       ??_C@_08KGDJLFAF@Chart?1p7@ 10073810     homing_ldm_aggiornat_capi.obj
 0002:0000281c       ??_C@_08CBKBKJMK@Chart?1p8@ 1007381c     homing_ldm_aggiornat_capi.obj
 0002:00002828       ??_C@_08DILKJIIL@Chart?1p9@ 10073828     homing_ldm_aggiornat_capi.obj
 0002:00002834       ??_C@_09KLAHIHHL@Chart?1p10@ 10073834     homing_ldm_aggiornat_capi.obj
 0002:00002840       ??_C@_05DEOOJMJC@Clock@    10073840     homing_ldm_aggiornat_capi.obj
 0002:00002848       ??_C@_0L@LHGEPMHA@Constant11@ 10073848     homing_ldm_aggiornat_capi.obj
 0002:00002858       ??_C@_0L@JMEJKPLD@Constant12@ 10073858     homing_ldm_aggiornat_capi.obj
 0002:00002868       ??_C@_0L@IFFCJOPC@Constant13@ 10073868     homing_ldm_aggiornat_capi.obj
 0002:00002878       ??_C@_0L@MKBDAIDF@Constant14@ 10073878     homing_ldm_aggiornat_capi.obj
 0002:00002888       ??_C@_0L@NDAIDJHE@Constant15@ 10073888     homing_ldm_aggiornat_capi.obj
 0002:00002898       ??_C@_0L@PICFGKLH@Constant16@ 10073898     homing_ldm_aggiornat_capi.obj
 0002:000028a8       ??_C@_09MHDPNNID@Constant6@ 100738a8     homing_ldm_aggiornat_capi.obj
 0002:000028b4       ??_C@_05DKAIGDGE@Gain1@    100738b4     homing_ldm_aggiornat_capi.obj
 0002:000028bc       ??_C@_06JFKDJLNB@Gain10@   100738bc     homing_ldm_aggiornat_capi.obj
 0002:000028c4       ??_C@_0BD@EPFMCPOH@posizione?5motore?5x@ 100738c4     homing_ldm_aggiornat_capi.obj
 0002:000028dc       ??_C@_06IMLIKKJA@Gain11@   100738dc     homing_ldm_aggiornat_capi.obj
 0002:000028e4       ??_C@_0BF@HBPOPMFC@posizione?5carrello?5y@ 100738e4     homing_ldm_aggiornat_capi.obj
 0002:00002900       ??_C@_06KHJFPJFD@Gain12@   10073900     homing_ldm_aggiornat_capi.obj
 0002:00002908       ??_C@_0BD@FGEHBOKG@posizione?5motore?5y@ 10073908     homing_ldm_aggiornat_capi.obj
 0002:00002920       ??_C@_06LOIOMIBC@Gain13@   10073920     homing_ldm_aggiornat_capi.obj
 0002:00002928       ??_C@_0BF@GIOFMNBD@posizione?5carrello?5x@ 10073928     homing_ldm_aggiornat_capi.obj
 0002:00002944       ??_C@_05BBCFDAKH@Gain2@    10073944     homing_ldm_aggiornat_capi.obj
 0002:0000294c       ??_C@_05IDOABOG@Gain3@     1007394c     homing_ldm_aggiornat_capi.obj
 0002:00002954       ??_C@_05FOGEKGGA@Gain5@    10073954     homing_ldm_aggiornat_capi.obj
 0002:0000295c       ??_C@_0BB@CMNBNJBK@pozione?5motore?5y@ 1007395c     homing_ldm_aggiornat_capi.obj
 0002:00002970       ??_C@_0P@HFBNGDFJ@PCI?96229?5DI?1p1@ 10073970     homing_ldm_aggiornat_capi.obj
 0002:00002984       ??_C@_07OJGKPLCD@fc?5x?5sx@ 10073984     homing_ldm_aggiornat_capi.obj
 0002:00002990       ??_C@_0P@FODADAJK@PCI?96229?5DI?1p2@ 10073990     homing_ldm_aggiornat_capi.obj
 0002:000029a4       ??_C@_07PAADEONG@fc?5x?5dx@ 100739a4     homing_ldm_aggiornat_capi.obj
 0002:000029b0       ??_C@_0P@EHCLABNL@PCI?96229?5DI?1p3@ 100739b0     homing_ldm_aggiornat_capi.obj
 0002:000029c4       ??_C@_09CNJIBEEI@fc?5y?5high@ 100739c4     homing_ldm_aggiornat_capi.obj
 0002:000029d0       ??_C@_0P@IGKJHBM@PCI?96229?5DI?1p4@ 100739d0     homing_ldm_aggiornat_capi.obj
 0002:000029e4       ??_C@_09IHHPKCGD@fc?5y?5down@ 100739e4     homing_ldm_aggiornat_capi.obj
 0002:000029f0       ??_C@_04JMNNLCJG@Sum1@     100739f0     homing_ldm_aggiornat_capi.obj
 0002:000029f8       ??_C@_06EAKMJJHD@sommax@   100739f8     homing_ldm_aggiornat_capi.obj
 0002:00002a00       ??_C@_04NDJMCEFB@Sum6@     10073a00     homing_ldm_aggiornat_capi.obj
 0002:00002a08       ??_C@_06FJLHKIDC@sommay@   10073a08     homing_ldm_aggiornat_capi.obj
 0002:00002a10       ??_C@_0N@CJGHMFCP@Dot?5Product1@ 10073a10     homing_ldm_aggiornat_capi.obj
 0002:00002a20       ??_C@_0N@CEKJGOM@Dot?5Product2@ 10073a20     homing_ldm_aggiornat_capi.obj
 0002:00002a30       ??_C@_0N@BLFBKHKN@Dot?5Product3@ 10073a30     homing_ldm_aggiornat_capi.obj
 0002:00002a40       ??_C@_0N@FEBADBGK@Dot?5Product4@ 10073a40     homing_ldm_aggiornat_capi.obj
 0002:00002a50       ??_C@_0N@HPDNGCKJ@Dot?5Product7@ 10073a50     homing_ldm_aggiornat_capi.obj
 0002:00002a60       ??_C@_0N@PIKFHOGG@Dot?5Product8@ 10073a60     homing_ldm_aggiornat_capi.obj
 0002:00002a70       ??_C@_0BK@BOFEMBGH@Discrete?5Derivative4?1Diff@ 10073a70     homing_ldm_aggiornat_capi.obj
 0002:00002a90       ??_C@_0BL@IFDCKMCI@Discrete?5Derivative4?1TSamp@ 10073a90     homing_ldm_aggiornat_capi.obj
 0002:00002ab0       ??_C@_0BI@KPDGOKBE@Discrete?5Derivative4?1UD@ 10073ab0     homing_ldm_aggiornat_capi.obj
 0002:00002acc       ??_C@_06CFNEEADJ@U?$CIk?91?$CJ@ 10073acc     homing_ldm_aggiornat_capi.obj
 0002:00002ad4       ??_C@_0BK@LICDMKND@Discrete?5Derivative5?1Diff@ 10073ad4     homing_ldm_aggiornat_capi.obj
 0002:00002af4       ??_C@_0BL@EJJIKMLG@Discrete?5Derivative5?1TSamp@ 10073af4     homing_ldm_aggiornat_capi.obj
 0002:00002b14       ??_C@_0BI@JCFGMDKE@Discrete?5Derivative5?1UD@ 10073b14     homing_ldm_aggiornat_capi.obj
 0002:00002b30       ??_C@_0BK@IJMLNAEO@Discrete?5Derivative6?1Diff@ 10073b30     homing_ldm_aggiornat_capi.obj
 0002:00002b50       ??_C@_0BL@MHBHKLFF@Discrete?5Derivative6?1TSamp@ 10073b50     homing_ldm_aggiornat_capi.obj
 0002:00002b70       ??_C@_0BI@NFPGLJHE@Discrete?5Derivative6?1UD@ 10073b70     homing_ldm_aggiornat_capi.obj
 0002:00002b8c       ??_C@_0BK@CPLMNLPK@Discrete?5Derivative7?1Diff@ 10073b8c     homing_ldm_aggiornat_capi.obj
 0002:00002bac       ??_C@_0BL@LLNKLML@Discrete?5Derivative7?1TSamp@ 10073bac     homing_ldm_aggiornat_capi.obj
 0002:00002bcc       ??_C@_0BI@OIJGJAME@Discrete?5Derivative7?1UD@ 10073bcc     homing_ldm_aggiornat_capi.obj
 0002:00002be8       ??_C@_0BF@HFKJBDFP@Discrete?5Derivative4@ 10073be8     homing_ldm_aggiornat_capi.obj
 0002:00002c04       ??_C@_0BC@DNAKAAEE@ICPrevScaledInput@ 10073c04     homing_ldm_aggiornat_capi.obj
 0002:00002c1c       ??_C@_0BF@GMLCCCBO@Discrete?5Derivative5@ 10073c1c     homing_ldm_aggiornat_capi.obj
 0002:00002c38       ??_C@_0BF@EHJPHBNN@Discrete?5Derivative6@ 10073c38     homing_ldm_aggiornat_capi.obj
 0002:00002c54       ??_C@_0BF@FOIEEAJM@Discrete?5Derivative7@ 10073c54     homing_ldm_aggiornat_capi.obj
 0002:00002c70       ??_C@_05LPIJGKJ@Value@     10073c70     homing_ldm_aggiornat_capi.obj
 0002:00002c78       ??_C@_04OMOMKKFL@Gain@     10073c78     homing_ldm_aggiornat_capi.obj
 0002:00002c80       ??_C@_02KKFPAPOP@P1@       10073c80     homing_ldm_aggiornat_capi.obj
 0002:00002c84       ??_C@_02IBHCFMCM@P2@       10073c84     homing_ldm_aggiornat_capi.obj
 0002:00002c88       ??_C@_02JIGJGNGN@P3@       10073c88     homing_ldm_aggiornat_capi.obj
 0002:00002c8c       ??_C@_02NHCIPLKK@P4@       10073c8c     homing_ldm_aggiornat_capi.obj
 0002:00002c90       ??_C@_02MODDMKOL@P5@       10073c90     homing_ldm_aggiornat_capi.obj
 0002:00002c94       ??_C@_02OFBOJJCI@P6@       10073c94     homing_ldm_aggiornat_capi.obj
 0002:00002c98       ??_C@_02PMAFKIGJ@P7@       10073c98     homing_ldm_aggiornat_capi.obj
 0002:00002c9c       ??_C@_02HLJNLEKG@P8@       10073c9c     homing_ldm_aggiornat_capi.obj
 0002:00002ca0       ??_C@_02GCIGIFOH@P9@       10073ca0     homing_ldm_aggiornat_capi.obj
 0002:00002ca4       ??_C@_03OPFJJGBF@P10@      10073ca4     homing_ldm_aggiornat_capi.obj
 0002:00002ca8       ??_C@_04GKLBNPCL@WtEt@     10073ca8     homing_ldm_aggiornat_capi.obj
 0002:00002cb0       ??_C@_04PDAGDHIL@parx@     10073cb0     homing_ldm_aggiornat_capi.obj
 0002:00002cb8       ??_C@_04OKBNAGMK@pary@     10073cb8     homing_ldm_aggiornat_capi.obj
 0002:00002cc0       ??_C@_05DLHGGKMI@ppx_c@    10073cc0     homing_ldm_aggiornat_capi.obj
 0002:00002cc8       ??_C@_05IDMKANKN@ppy_c@    10073cc8     homing_ldm_aggiornat_capi.obj
 0002:00002cd0       ??_C@_0L@JHBHDKPJ@Vel_asse_x@ 10073cd0     homing_ldm_aggiornat_capi.obj
 0002:00002ce0       ??_C@_0L@IOAMALLI@Vel_asse_y@ 10073ce0     homing_ldm_aggiornat_capi.obj
 0002:00002cf0       ??_C@_04CLCEDBPF@time@     10073cf0     homing_ldm_aggiornat_capi.obj
 0002:00002cf8       ??_C@_01FJMABOPO@x@        10073cf8     homing_ldm_aggiornat_capi.obj
 0002:00002cfc       ??_C@_01EANLCPLP@y@        10073cfc     homing_ldm_aggiornat_capi.obj
 0002:00002d00       ??_C@_06BNJCAIGJ@double@   10073d00     homing_ldm_aggiornat_capi.obj
 0002:00002d08       ??_C@_06CNMIJIPB@real_T@   10073d08     homing_ldm_aggiornat_capi.obj
 0002:00002d10       ??_C@_06PBJBIPGK@struct@   10073d10     homing_ldm_aggiornat_capi.obj
 0002:00002d18       ??_C@_0BO@EJCLEKPL@struct_p4a3fbOfYyoF57AQ0TsR2D@ 10073d18     homing_ldm_aggiornat_capi.obj
 0002:00002d3c       ??_C@_0BN@BJDPBEFI@struct_MxqrZmnGbOcHrCh1hlquB@ 10073d3c     homing_ldm_aggiornat_capi.obj
 0002:00002d60       ??_C@_07ILOCDPLO@creal_T@  10073d60     homing_ldm_aggiornat_capi.obj
 0002:00002d6c       ??_C@_0BO@POFKJCKI@struct_0cTP9OGKNIwjZ53OR7EfCC@ 10073d6c     homing_ldm_aggiornat_capi.obj
 0002:00002d90       _serialfifoground          10073d90     xpc_datatype_ground.obj
 0002:00002d9c       _bcmsg1553ground           10073d9c     xpc_datatype_ground.obj
 0002:00002dac       _bcstatground              10073dac     xpc_datatype_ground.obj
 0002:00002dc4       _bmmsg1553ground           10073dc4     xpc_datatype_ground.obj
 0002:00002e00       ??_C@_0BI@INNPNFJN@Memory?5Allocation?5Error@ 10073e00     rtw_modelmap_utils.obj
 0002:00002e20       ??_C@_1FG@HMJFKDEC@?$AAD?$AA?3?$AA?2?$AAM?$AAA?$AAT?$AAL?$AAA?$AAB?$AA?$HO?$AA1?$AA?2?$AAr?$AAt?$AAw@ 10073e20     rtw_modelmap_utils.obj
 0002:00002e88       ??_C@_1CI@OEAJCJND@?$AAj?$AA?5?$AA?$DN?$AA?$DN?$AA?5?$AAe?$AAn?$AAc?$AAo?$AAd?$AAe?$AAd?$AAP?$AAa?$AAt@ 10073e88     rtw_modelmap_utils.obj
 0002:00002eb8       ??_C@_1DC@NFAOIFKB@?$AAe?$AAn?$AAc?$AAo?$AAd?$AAe?$AAd?$AAP?$AAa?$AAt?$AAh?$AA?$FL?$AAj?$AA?9?$AA1@ 10073eb8     rtw_modelmap_utils.obj
 0002:00002ef4       ??_C@_1DI@FLNJGPEE@?$AAs?$AAi?$AAg?$AAC?$AAo?$AAm?$AAp?$AAl?$AAe?$AAx?$AAi?$AAt?$AAy?$AA?$FL?$AA?$CK@ 10073ef4     rtw_modelmap_utils.obj
 0002:00002f38       ??_C@_1KI@OFELMGBG@?$AA?$CI?$AA?$CI?$AA?$CI?$AAd?$AAa?$AAt?$AAa?$AAT?$AAy?$AAp?$AAe?$AAM?$AAa?$AAp?$AA?$CJ@ 10073f38     rtw_modelmap_utils.obj
 0002:00003004       ??_C@_1DA@ILCMPHNE@?$AAf?$AAu?$AAl?$AAl?$AAP?$AAa?$AAt?$AAh?$AA?5?$AA?$CB?$AA?$DN?$AA?5?$AA?$CI?$AA?$CI?$AAv@ 10074004     rtw_modelmap_utils.obj
 0002:00003040       ??_C@_1CI@OEPPFCCA@?$AAp?$AAa?$AAt?$AAh?$AA?5?$AA?$CB?$AA?$DN?$AA?5?$AA?$CI?$AA?$CI?$AAv?$AAo?$AAi?$AAd?$AA?5@ 10074040     rtw_modelmap_utils.obj
 0002:00003070       ??_C@_1FK@GLJIMFHB@?$AA?$CI?$AA?$CI?$AAm?$AAm?$AAi?$AA?$CJ?$AA?9?$AA?$DO?$AAI?$AAn?$AAs?$AAt?$AAa?$AAn?$AAc@ 10074070     rtw_modelmap_utils.obj
 0002:000030dc       ??_C@_1DG@HPCJGNCE@?$AAm?$AAm?$AAi?$AAP?$AAa?$AAt?$AAh?$AA?$FL?$AAp?$AAa?$AAt?$AAh?$AAL?$AAe?$AAn@ 100740dc     rtw_modelmap_utils.obj
 0002:0000311c       ??_C@_1DM@DBAOGGOO@?$AAm?$AAm?$AAi?$AAP?$AAa?$AAt?$AAh?$AA?$FL?$AAm?$AAm?$AAi?$AAP?$AAa?$AAt?$AAh@ 1007411c     rtw_modelmap_utils.obj
 0002:00003164       ??_C@_1DC@LHIAKAFE@?$AAb?$AAl?$AAo?$AAc?$AAk?$AAP?$AAa?$AAt?$AAh?$AA?5?$AA?$CB?$AA?$DN?$AA?5?$AA?$CI?$AA?$CI@ 10074164     rtw_modelmap_utils.obj
 0002:000031a0       ??_C@_1GI@KIEJKPGC@?$AAf?$AAu?$AAl?$AAl?$AAS?$AAt?$AAa?$AAt?$AAe?$AAB?$AAl?$AAo?$AAc?$AAk?$AAP@ 100741a0     rtw_modelmap_utils.obj
 0002:00003220       ??_C@_1EE@DNPIBJHC@?$AA?$CI?$AA?$CI?$AAd?$AAi?$AAm?$AAM?$AAa?$AAp?$AA?$CJ?$AA?$FL?$AA?$CI?$AAm?$AAa?$AAp?$AAI@ 10074220     rtw_modelmap_utils.obj
 0002:00003274       ??_C@_06JFOKFOED@CSTATE@   10074274     rtw_modelmap_utils.obj
 0002:0000327c       ??_C@_06FAENGAMN@DSTATE@   1007427c     rtw_modelmap_utils.obj
 0002:00003284       ??_C@_1BI@LEBJNOGG@?$AAc?$AAs?$AAv?$AAI?$AAd?$AAx?$AA?5?$AA?$DO?$AA?$DN?$AA?5?$AA0@ 10074284     rtw_modelmap_utils.obj
 0002:000032a0       ??_C@_1BA@KDMGHCHP@?$AAT?$AAI?$AAD?$AA?$DN?$AA?$DN?$AA?9?$AA1@ 100742a0     rtw_modelmap_utils.obj
 0002:000032b4       ??_C@_1DM@DHGKBPCE@?$AAs?$AAi?$AAg?$AAP?$AAa?$AAt?$AAh?$AA?$FL?$AAs?$AAi?$AAg?$AAP?$AAa?$AAt?$AAh@ 100742b4     rtw_modelmap_utils.obj
 0002:00003b60       ??_C@_0DJ@FHKINPLE@Unexpected?5itemKind?5?$DN?5DATA_ITEM@ 10074b60     rt_logging.obj
 0002:00003ba4       ??_C@_0DA@IEHFPFCJ@Unexpected?5itemKind?$DN?$CFd?5in?5rt_Pr@ 10074ba4     rt_logging.obj
 0002:00003be0       ??_C@_0DA@IFLHJPBO@Unexpected?5itemKind?$DN?$CFd?5in?5rt_Pr@ 10074be0     rt_logging.obj
 0002:00003c1c       ??_C@_0DA@IAPIIJJL@Unexpected?5itemKind?$DN?$CFd?5in?5rt_Pr@ 10074c1c     rt_logging.obj
 0002:00003c58       ??_C@_0BE@LCIGPJIG@MATLAB?55?40?5MAT?9file@ 10074c58     rt_logging.obj
 0002:00003c70       ??_C@_0FB@PCJEAJIB@?$CK?$CK?$CK?5Log?5variable?5?$CFs?5has?5wrapped@ 10074c70     rt_logging.obj
 0002:00003cd8       ??_C@_0MG@NKMLMOGF@?$CK?$CK?$CK?5To?5avoid?5wrapping?0?5explicit@ 10074cd8     rt_logging.obj
 0002:00003dc8       ??_C@_0N@IPAEOLLP@_rtw_tmw?4tmw@ 10074dc8     rt_logging.obj
 0002:00003dd8       ??_C@_04HDOCAJNK@?$CFs?$CFs@ 10074dd8     rt_logging.obj
 0002:00003de0       ??_C@_03ELIABIOC@w?$CLb@   10074de0     rt_logging.obj
 0002:00003de4       ??_C@_0BF@JPILDDFA@?$CK?$CK?$CK?5Error?5opening?5?$CFs@ 10074de4     rt_logging.obj
 0002:00003e00       ??_C@_0BK@EEMDELA@unable?5to?5open?5data?5file?6@ 10074e00     rt_logging.obj
 0002:00003e20       ??_C@_04CGFJFPFD@none@     10074e20     rt_logging.obj
 0002:00003e28       ??_C@_0EE@LCGFPNON@?$CK?$CK?$CK?5Error?5creating?5signals?5stru@ 10074e28     rt_logging.obj
 0002:00003e7c       ??_C@_0CE@NHECEDMK@?$CK?$CK?$CK?5Error?5creating?5log?5variable@ 10074e7c     rt_logging.obj
 0002:00003ea8       ??_C@_0DB@IOCGKAGH@?$CK?$CK?$CK?5Errors?5occurred?5when?5starti@ 10074ea8     rt_logging.obj
 0002:00003ee4       ??_C@_0BO@BBLOGEBK@?$CK?$CK?$CK?5Memory?5allocation?5error?4?6@ 10074ee4     rt_logging.obj
 0002:00003f08       ??_C@_0N@LGFBAGEL@?5?$CIreal?5part?$CJ@ 10074f08     rt_logging.obj
 0002:00003f18       ??_C@_0KH@CGNMHNFE@?5?5?5?5varName?5?5?5?5?5?5?5?5?5?5?$DN?5?$CFs?$CFs?6?5?5?5@ 10074f18     rt_logging.obj
 0002:00003fe0       ??_C@_0LE@OALKKEFM@?5?5?5?5varName?5?5?5?5?5?5?5?5?5?5?$DN?5?$CFs?5?$CIcomp@ 10074fe0     rt_logging.obj
 0002:000040b8       ??_C@_0KF@JDDLEOKO@?5?5?5?5varName?5?5?5?5?5?5?5?5?5?5?$DN?5?$CFs?6?5?5?5?5n@ 100750b8     rt_logging.obj
 0002:00004180       ??_C@_0DP@HPDMIOFM@?$CK?$CK?$CK?5Using?5a?5default?5buffer?5of?5s@ 10075180     rt_logging.obj
 0002:000041d0       ??_C@_0KE@JEFOLKNF@?6?$CK?$CK?$CK?5Memory?5required?5to?5log?5var@ 100751d0     rt_logging.obj
 0002:00004298       ??_C@_0JP@DKLMHCBI@?$CK?$CK?$CK?5Details?3?6?5?5?5?5?5?5?5varName?5?5?5?5@ 10075298     rt_logging.obj
 0002:00004358       ??_C@_0CM@CAMILBED@?$CK?$CK?$CK?5Error?5allocating?5memory?5for@ 10075358     rt_logging.obj
 0002:0000438c       ??_C@_0DF@BBCNMOPM@?$CK?$CK?$CK?5Error?5allocating?5memory?5for@ 1007538c     rt_logging.obj
 0002:000043d0       ??_C@_0JP@DBCLPCCI@?$CK?$CK?$CK?5Details?3?6?5?5?5?5?5?5?5varName?5?5?5?5@ 100753d0     rt_logging.obj
 0002:00004490       ??_C@_0FK@DPGAOBGA@?$CK?$CK?$CK?5Error?5allocating?5memory?5for@ 10075490     rt_logging.obj
 0002:000044fc       ??_C@_0BI@GGDNPHLJ@?$CK?$CK?$CK?5Error?5writing?5to?5?$CFs@ 100754fc     rt_logging.obj
 0002:00004518       ??_C@_0CB@IBGJGELG@?$CK?$CK?$CK?5Error?5writing?5?$CFs?5due?5to?3?5?$CFs@ 10075518     rt_logging.obj
 0002:00004540       ??_C@_0CN@FLMCHCPB@?$CK?$CK?$CK?5Error?5writing?5log?5variable?5@ 10075540     rt_logging.obj
 0002:00004578       ??_C@_0DH@GAJCNOJP@?$CK?$CK?$CK?5Error?5writing?5structure?5log@ 10075578     rt_logging.obj
 0002:000045bc       ??_C@_0BD@POEALECL@?$CK?$CK?5created?5?$CFs?5?$CK?$CK?6?6@ 100755bc     rt_logging.obj
 0002:000045d8       __real@4020000000000000    100755d8     rt_logging.obj
 0002:000045e8       __real@41dfffffffc00000    100755e8     rt_logging.obj
 0002:000045f8       __real@41efffffffe00000    100755f8     rt_logging.obj
 0002:00004608       __real@4330000000000000    10075608     rt_logging.obj
 0002:00004618       __real@8000000000000000    10075618     rt_logging.obj
 0002:00004628       __real@bfbf9add3afd2773    10075628     rt_logging.obj
 0002:00004638       __real@c000000000000000    10075638     rt_logging.obj
 0002:00004650       __xmm@20202020202020202020202020202020 10075650     rt_logging.obj
 0002:00004664       _ptsetfilename             10075664     xpctarget.obj
 0002:00004668       _xmlfile                   10075668     xpctarget.obj
 0002:00004670       ??_C@_0BF@JAENKGOG@homing_ldm_aggiornat@ 10075670     xpctarget.obj
 0002:0000468c       ??_C@_0L@CHBJKKFC@xpceSetVar@ 1007568c     xpctarget.obj
 0002:0000469c       ??_C@_03LADEHNAB@6?46@     1007569c     xpctarget.obj
 0002:000046a0       __real@3fb999999999999a    100756a0     xpctarget.obj
 0002:000046b0       __real@408f400000000000    100756b0     xpctarget.obj
 0002:000046c0       _homing_ldm_aggiornat_BIOMAP 100756c0     appmappingData.obj
 0002:00004954       _homing_ldm_aggiornat_dtmap 10075954     appmappingData.obj
 0002:00004990       _homing_ldm_aggiornat_LBLMAP 10075990     appmappingData.obj
 0002:00004c28       _homing_ldm_aggiornat_SIDMAP 10075c28     appmappingData.obj
 0002:00004ec0       _homing_ldm_aggiornat_SBIO 10075ec0     appmappingData.obj
 0002:00004fa0       _homing_ldm_aggiornat_SLBL 10075fa0     appmappingData.obj
 0002:00005080       _homing_ldm_aggiornat_PTIDSMAP 10076080     appmappingData.obj
 0002:00005348       _homing_ldm_aggiornat_PTNAMESMAP 10076348     appmappingData.obj
 0002:00005610       _homing_ldm_aggiornat_SPTMAP 10076610     appmappingData.obj
 0002:00005788       _appInfo                   10076788     appmappingData.obj
 0002:00005b40       ??_C@_0ED@LKHIFFLC@Wrong?5number?5of?5input?5arguments@ 10076b40     danipcim.obj
 0002:00005b90       ??_C@_0DB@HFHLNKLE@Channel?5?$CFd?5exceeds?5the?5max?5DA?5c@ 10076b90     danipcim.obj
 0002:00005bcc       ??_C@_0CL@GCJHHCMG@Output?5range?5?$CFd?5is?5not?5supporte@ 10076bcc     danipcim.obj
 0002:00005c00       ??_C@_0CC@FIFFDAB@?$CFd?5input?5args?5expected?0?5?$CFd?5pass@ 10076c00     encnipcim.obj
 0002:00005c28       ??_C@_0BN@JIEFLHEB@?$CFs?3?5Too?5many?5M?5series?5boards@ 10076c28     encnipcim.obj
 0002:00005c4c       ??_C@_0M@IMCLKBPP@NI?5PCI?96220@ 10076c4c     xpcionim.obj
 0002:00005c5c       ??_C@_0M@JFDAJALO@NI?5PCI?96221@ 10076c5c     xpcionim.obj
 0002:00005c6c       ??_C@_0P@NGCDCNKM@NI?5PCI?96221?137@ 10076c6c     xpcionim.obj
 0002:00005c80       ??_C@_0M@OIEHGEPL@NI?5PCI?96224@ 10076c80     xpcionim.obj
 0002:00005c90       ??_C@_0M@PBFMFFLK@NI?5PCI?96225@ 10076c90     xpcionim.obj
 0002:00005ca0       ??_C@_0M@FNOJBKLG@NI?5PCI?96229@ 10076ca0     xpcionim.obj
 0002:00005cb0       ??_C@_0M@INOJMLMI@NI?5PCI?96230@ 10076cb0     xpcionim.obj
 0002:00005cc0       ??_C@_0M@LPNPKJEK@NI?5PCI?96232@ 10076cc0     xpcionim.obj
 0002:00005cd0       ??_C@_0M@KGMEJIAL@NI?5PCI?96233@ 10076cd0     xpcionim.obj
 0002:00005ce0       ??_C@_0M@NLLDGMEO@NI?5PCI?96236@ 10076ce0     xpcionim.obj
 0002:00005cf0       ??_C@_0M@EFDAEBMA@NI?5PCI?96238@ 10076cf0     xpcionim.obj
 0002:00005d00       ??_C@_0M@FMCLHAIB@NI?5PCI?96239@ 10076d00     xpcionim.obj
 0002:00005d10       ??_C@_0M@IJGELHHK@NI?5PCI?96250@ 10076d10     xpcionim.obj
 0002:00005d20       ??_C@_0M@JAHPIGDL@NI?5PCI?96251@ 10076d20     xpcionim.obj
 0002:00005d30       ??_C@_0M@ONAIHCHO@NI?5PCI?96254@ 10076d30     xpcionim.obj
 0002:00005d40       ??_C@_0M@PEBDEDDP@NI?5PCI?96255@ 10076d40     xpcionim.obj
 0002:00005d50       ??_C@_0M@FIKGAMDD@NI?5PCI?96259@ 10076d50     xpcionim.obj
 0002:00005d60       ??_C@_0M@IBLMCECJ@NI?5PCI?96280@ 10076d60     xpcionim.obj
 0002:00005d70       ??_C@_0M@JIKHBFGI@NI?5PCI?96281@ 10076d70     xpcionim.obj
 0002:00005d80       ??_C@_0M@OFNAOBCN@NI?5PCI?96284@ 10076d80     xpcionim.obj
 0002:00005d90       ??_C@_0M@FAHOJPGA@NI?5PCI?96289@ 10076d90     xpcionim.obj
 0002:00005da0       ??_C@_0CI@NFFNBHJA@?$CFs?5?$CIbus?5?$CFd?0?5slot?5?$CFd?$CJ?3?5board?5not@ 10076da0     xpcionim.obj
 0002:00005dd0       ??_C@_0CD@MBDNCLAI@NI?5M?5series?3?5Unknown?5board?5type@ 10076dd0     xpcionim.obj
 0002:00005dfc       ??_C@_0CC@DMFKNLL@VendorId?5?$DN?50x?$CFx?0?5DeviceId?5?$DN?50x?$CF@ 10076dfc     xpcruntime:xpcimports.obj
 0002:00005e24       ??_C@_0DH@OHCBLNMG@Subsystem?5Device?5ID?5?$DN?50x?$CFx?6Subs@ 10076e24     xpcruntime:xpcimports.obj
 0002:00005e68       ??_C@_0BD@MMMMEFCM@Class?5Code?5?$DN?50x?$CFx?6@ 10076e68     xpcruntime:xpcimports.obj
 0002:00005e80       ??_C@_0BE@OLDDDNHM@InterruptLine?5?$DN?5?$CFd?6@ 10076e80     xpcruntime:xpcimports.obj
 0002:00005e98       ??_C@_0BF@OLKLEKBD@bus?5?$DN?5?$CFd?0?5slot?5?$DN?5?$CFd?6@ 10076e98     xpcruntime:xpcimports.obj
 0002:00005eb4       ??_C@_0CE@DGLLGDFH@?5?5?5?5Phys?5?5?5Virtual?5?5?5Length?5IO?1@ 10076eb4     xpcruntime:xpcimports.obj
 0002:00005ee0       ??_C@_0BI@FEOPLEMG@?$CF08x?5?$CF08x?5?$CF08x?5?5?5?5?5?5?$CFc?6@ 10076ee0     xpcruntime:xpcimports.obj
 0002:00005efc       ??_C@_0BB@BNNCEDPC@rl32eScopeExists@ 10076efc     xpcruntime:xpcimports.obj
 0002:00005f10       ??_C@_0BM@FJBFEGFG@rl32eScopeExists?5not?5found?6@ 10076f10     xpcruntime:xpcimports.obj
 0002:00005f34       ??_C@_0O@BNNGKJEA@rl32eDefScope@ 10076f34     xpcruntime:xpcimports.obj
 0002:00005f44       ??_C@_0BJ@CDNOENKA@rl32eDefScope?5not?5found?6@ 10076f44     xpcruntime:xpcimports.obj
 0002:00005f64       ??_C@_0P@CKNKILDP@rl32eAddSignal@ 10076f64     xpcruntime:xpcimports.obj
 0002:00005f78       ??_C@_0BK@GMJAJBAI@rl32eAddSignal?5not?5found?6@ 10076f78     xpcruntime:xpcimports.obj
 0002:00005f98       ??_C@_0BB@LDMIHGCE@rl32eGetSignalNo@ 10076f98     xpcruntime:xpcimports.obj
 0002:00005fac       ??_C@_0BM@LGAMBAID@rl32eGetSignalNo?5not?5found?6@ 10076fac     xpcruntime:xpcimports.obj
 0002:00005fd0       ??_C@_0O@CFDGALBP@rl32eSetScope@ 10076fd0     xpcruntime:xpcimports.obj
 0002:00005fe0       ??_C@_0BJ@JCLHHIN@rl32eSetScope?5not?5found?6@ 10076fe0     xpcruntime:xpcimports.obj
 0002:00006000       ??_C@_0P@IKMCBMHH@xpceFSScopeSet@ 10077000     xpcruntime:xpcimports.obj
 0002:00006014       ??_C@_0BK@JODJPNNH@xpceFSScopeSet?5not?5found?6@ 10077014     xpcruntime:xpcimports.obj
 0002:00006034       ??_C@_0BE@DLACEEJM@rl32eSetTargetScope@ 10077034     xpcruntime:xpcimports.obj
 0002:0000604c       ??_C@_0BP@JCHFMKPJ@rl32eSetTargetScope?5not?5found?6@ 1007704c     xpcruntime:xpcimports.obj
 0002:00006074       ??_C@_0BJ@LIDLNDHC@rl32eSetTargetScopeSigFt@ 10077074     xpcruntime:xpcimports.obj
 0002:00006094       ??_C@_0CE@JLGHCFHI@rl32eSetTargetScopeSigFt?5not?5fo@ 10077094     xpcruntime:xpcimports.obj
 0002:000060c0       ??_C@_0BI@JAPOIDNG@rl32eRestartAcquisition@ 100770c0     xpcruntime:xpcimports.obj
 0002:000060dc       ??_C@_0CD@LLBEFFBO@rl32eRestartAcquisition?5not?5fou@ 100770dc     xpcruntime:xpcimports.obj
 0002:00006108       ??_C@_0P@IEIIADJB@xpceScopeAcqOK@ 10077108     xpcruntime:xpcimports.obj
 0002:0000611c       ??_C@_0BK@NJCKNFPN@xpceScopeAcqOK?5not?5found?6@ 1007711c     xpcruntime:xpcimports.obj
 0002:0000613c       ??_C@_0BA@IJINKAHF@xpceRegisterISR@ 1007713c     xpcruntime:xpcimports.obj
 0002:00006150       ??_C@_0BL@NNDLOEJE@xpceRegisterISR?5not?5found?6@ 10077150     xpcruntime:xpcimports.obj
 0002:00006170       ??_C@_0BC@NLBADGKF@xpceDeRegisterISR@ 10077170     xpcruntime:xpcimports.obj
 0002:00006188       ??_C@_0BN@DCAIKFFD@xpceDeRegisterISR?5not?5found?6@ 10077188     xpcruntime:xpcimports.obj
 0002:000061ac       ??_C@_07JPMEPILD@xpcInpB@  100771ac     xpcruntime:xpcimports.obj
 0002:000061b8       ??_C@_0BD@PGABEJOL@xpcInpB?5not?5found?6@ 100771b8     xpcruntime:xpcimports.obj
 0002:000061d0       ??_C@_07KIHBBOKH@xpcInpW@  100771d0     xpcruntime:xpcimports.obj
 0002:000061dc       ??_C@_0BD@FPCJFMCC@xpcInpW?5not?5found?6@ 100771dc     xpcruntime:xpcimports.obj
 0002:000061f4       ??_C@_08KDIAJBOP@xpcInpDW@ 100771f4     xpcruntime:xpcimports.obj
 0002:00006200       ??_C@_0BE@PIELDNIL@xpcInpDW?5not?5found?6@ 10077200     xpcruntime:xpcimports.obj
 0002:00006218       ??_C@_08PJFMOIGO@xpcOutpB@ 10077218     xpcruntime:xpcimports.obj
 0002:00006224       ??_C@_0BE@HCKNCEKF@xpcOutpB?5not?5found?6@ 10077224     xpcruntime:xpcimports.obj
 0002:0000623c       ??_C@_08MOOJAOHK@xpcOutpW@ 1007723c     xpcruntime:xpcimports.obj
 0002:00006248       ??_C@_0BE@NLIFDBGM@xpcOutpW?5not?5found?6@ 10077248     xpcruntime:xpcimports.obj
 0002:00006260       ??_C@_09FLIEKHJG@xpcOutpDW@ 10077260     xpcruntime:xpcimports.obj
 0002:0000626c       ??_C@_0BF@GJKLPNHB@xpcOutpDW?5not?5found?6@ 1007726c     xpcruntime:xpcimports.obj
 0002:00006288       ??_C@_0BH@EHOLELHH@xpcReserveMemoryRegion@ 10077288     xpcruntime:xpcimports.obj
 0002:000062a4       ??_C@_0CC@KAAAGPI@xpcReserveMemoryRegion?5not?5foun@ 100772a4     xpcruntime:xpcimports.obj
 0002:000062cc       ??_C@_0BA@JGPMHGAF@rl32eShowPCIDev@ 100772cc     xpcruntime:xpcimports.obj
 0002:000062e0       ??_C@_0BL@DDFFLNHI@rl32eShowPCIDev?5not?5found?6@ 100772e0     xpcruntime:xpcimports.obj
 0002:00006300       ??_C@_0BB@KBCOJPFB@rl32eShowPCIInfo@ 10077300     xpcruntime:xpcimports.obj
 0002:00006314       ??_C@_0BM@IFDMAGLO@rl32eShowPCIInfo?5not?5found?6@ 10077314     xpcruntime:xpcimports.obj
 0002:00006338       ??_C@_0BA@BGPAADB@rl32eGetPCIInfo@ 10077338     xpcruntime:xpcimports.obj
 0002:0000634c       ??_C@_0BL@IGOMLDCK@rl32eGetPCIInfo?5not?5found?6@ 1007734c     xpcruntime:xpcimports.obj
 0002:0000636c       ??_C@_0BG@NJPFKFDP@rl32eGetPCIInfoAtSlot@ 1007736c     xpcruntime:xpcimports.obj
 0002:00006388       ??_C@_0CB@BBKIPMLA@rl32eGetPCIInfoAtSlot?5not?5found@ 10077388     xpcruntime:xpcimports.obj
 0002:000063b0       ??_C@_0BH@OKBOPNFG@xpceAssignPCIInterrupt@ 100773b0     xpcruntime:xpcimports.obj
 0002:000063cc       ??_C@_0CC@CDNDNJBJ@xpceAssignPCIInterrupt?5not?5foun@ 100773cc     xpcruntime:xpcimports.obj
 0002:000063f4       ??_C@_0BD@PCKOKHO@xpceGetSignalValue@ 100773f4     xpcruntime:xpcimports.obj
 0002:0000640c       ??_C@_0BO@GCBDJHMB@xpceGetSignalValue?5not?5found?6@ 1007740c     xpcruntime:xpcimports.obj
 0002:00006430       ??_C@_0BB@BJONJAGA@xpceSetParameter@ 10077430     xpcruntime:xpcimports.obj
 0002:00006444       ??_C@_0BM@BJIKDLHA@xpceSetParameter?5not?5found?6@ 10077444     xpcruntime:xpcimports.obj
 0002:00006468       ??_C@_0BB@GNFDFMCM@xpceGetParameter@ 10077468     xpcruntime:xpcimports.obj
 0002:0000647c       ??_C@_0BM@POHNKBC@xpceGetParameter?5not?5found?6@ 1007747c     xpcruntime:xpcimports.obj
 0002:000064a0       ??_C@_0BB@CEIJLFCD@xpceGetParamDims@ 100774a0     xpcruntime:xpcimports.obj
 0002:000064b4       ??_C@_0BM@OABDBKAO@xpceGetParamDims?5not?5found?6@ 100774b4     xpcruntime:xpcimports.obj
 0002:000064d8       ??_C@_0L@OCBLLHBM@xpceGetTET@ 100774d8     xpcruntime:xpcimports.obj
 0002:000064e8       ??_C@_0BG@HNOFBOB@xpceGetTET?5not?5found?6@ 100774e8     xpcruntime:xpcimports.obj
 0002:00006504       ??_C@_0P@OKGNGAGH@xpcIsModelInit@ 10077504     xpcruntime:xpcimports.obj
 0002:00006518       ??_C@_0BK@DHEMLBIM@xpcIsModelInit?5not?5found?6@ 10077518     xpcruntime:xpcimports.obj
 0002:00006538       ??_C@_0BH@KJJLCAOJ@xpcAllocPhysicalMemory@ 10077538     xpcruntime:xpcimports.obj
 0002:00006554       ??_C@_0CC@MOJPNHKL@xpcAllocPhysicalMemory?5not?5foun@ 10077554     xpcruntime:xpcimports.obj
 0002:0000657c       ??_C@_0BG@CBNPGAEL@xpcFreePhysicalMemory@ 1007757c     xpcruntime:xpcimports.obj
 0002:00006598       ??_C@_0CB@PKJEBPOG@xpcFreePhysicalMemory?5not?5found@ 10077598     xpcruntime:xpcimports.obj
 0002:000065c0       ??_C@_0BC@JGKNLICL@xpcGetElapsedTime@ 100775c0     xpcruntime:xpcimports.obj
 0002:000065d8       ??_C@_0BN@OEOAHCIO@xpcGetElapsedTime?5not?5found?6@ 100775d8     xpcruntime:xpcimports.obj
 0002:000065fc       ??_C@_0M@ICBLMODA@xpcBusyWait@ 100775fc     xpcruntime:xpcimports.obj
 0002:0000660c       ??_C@_0BH@FBOPECBI@xpcBusyWait?5not?5found?6@ 1007760c     xpcruntime:xpcimports.obj
 0002:00006628       ??_C@_0N@LKKJEKKA@TBCreateSpin@ 10077628     xpcruntime:xpcimports.obj
 0002:00006638       ??_C@_0BI@FHKMLKOE@TBCreateSpin?5not?5found?6@ 10077638     xpcruntime:xpcimports.obj
 0002:00006654       ??_C@_0N@HOAJHNBD@TBDeleteSpin@ 10077654     xpcruntime:xpcimports.obj
 0002:00006664       ??_C@_0BI@BKCPAAG@TBDeleteSpin?5not?5found?6@ 10077664     xpcruntime:xpcimports.obj
 0002:00006680       ??_C@_0P@DAHDDBJG@TBTakeSpinFast@ 10077680     xpcruntime:xpcimports.obj
 0002:00006694       ??_C@_0BK@NKAIBHGB@TBTakeSpinFast?5not?5found?6@ 10077694     xpcruntime:xpcimports.obj
 0002:000066b4       ??_C@_0P@FKNAAELA@TBGiveSpinFast@ 100776b4     xpcruntime:xpcimports.obj
 0002:000066c8       ??_C@_0BK@KGPJBJND@TBGiveSpinFast?5not?5found?6@ 100776c8     xpcruntime:xpcimports.obj
 0002:000066e8       ??_C@_0BE@IIGBFDHK@xpceCreateSemaphore@ 100776e8     xpcruntime:xpcimports.obj
 0002:00006700       ??_C@_0BP@KFBAFFKJ@xpceCreateSemaphore?5not?5found?6@ 10077700     xpcruntime:xpcimports.obj
 0002:00006728       ??_C@_0BC@IFNIONKJ@xpceWaitSemaphore@ 10077728     xpcruntime:xpcimports.obj
 0002:00006740       ??_C@_0BN@NMFAADIO@xpceWaitSemaphore?5not?5found?6@ 10077740     xpcruntime:xpcimports.obj
 0002:00006764       ??_C@_0BE@NNDIOBKE@xpceSignalSemaphore@ 10077764     xpcruntime:xpcimports.obj
 0002:0000677c       ??_C@_0BP@LBANMHJP@xpceSignalSemaphore?5not?5found?6@ 1007777c     xpcruntime:xpcimports.obj
 0002:000067a4       ??_C@_0BE@MEBEKOIM@xpceDeleteSemaphore@ 100777a4     xpcruntime:xpcimports.obj
 0002:000067bc       ??_C@_0BP@OFNCKOJH@xpceDeleteSemaphore?5not?5found?6@ 100777bc     xpcruntime:xpcimports.obj
 0002:000067e4       ??_C@_0BD@MFNDMBOF@FindUsbVideoDevice@ 100777e4     xpcruntime:xpcimports.obj
 0002:000067fc       ??_C@_0BO@POKLDHMI@FindUsbVideoDevice?5not?5found?6@ 100777fc     xpcruntime:xpcimports.obj
 0002:00006820       ??_C@_0BA@PLPAPNAB@GetVideoConfigs@ 10077820     xpcruntime:xpcimports.obj
 0002:00006834       ??_C@_0BL@DALDHKHC@GetVideoConfigs?5not?5found?6@ 10077834     xpcruntime:xpcimports.obj
 0002:00006854       ??_C@_0L@GBAEMHMH@StartVideo@ 10077854     xpcruntime:xpcimports.obj
 0002:00006864       ??_C@_0BG@HDCELEBP@StartVideo?5not?5found?6@ 10077864     xpcruntime:xpcimports.obj
 0002:00006880       ??_C@_0BA@FDNPOCLN@ReadFrameBuffer@ 10077880     xpcruntime:xpcimports.obj
 0002:00006894       ??_C@_0BL@JHGHPNBI@ReadFrameBuffer?5not?5found?6@ 10077894     xpcruntime:xpcimports.obj
 0002:000068b4       ??_C@_09FAHCLKAG@StopVideo@ 100778b4     xpcruntime:xpcimports.obj
 0002:000068c0       ??_C@_0BF@NKGKKADL@StopVideo?5not?5found?6@ 100778c0     xpcruntime:xpcimports.obj
 0002:000068dc       ??_C@_0O@MCPKDLLL@ConvertUImage@ 100778dc     xpcruntime:xpcimports.obj
 0002:000068ec       ??_C@_0BJ@PHJKOAFL@ConvertUImage?5not?5found?6@ 100778ec     xpcruntime:xpcimports.obj
 0002:0000690c       ??_C@_0BD@NKCBPBJJ@CreateVideoDisplay@ 1007790c     xpcruntime:xpcimports.obj
 0002:00006924       ??_C@_0BO@HPPLLNFP@CreateVideoDisplay?5not?5found?6@ 10077924     xpcruntime:xpcimports.obj
 0002:00006948       ??_C@_0BE@KJCKGPHA@DestroyVideoDisplay@ 10077948     xpcruntime:xpcimports.obj
 0002:00006960       ??_C@_0BP@FMGLJAIJ@DestroyVideoDisplay?5not?5found?6@ 10077960     xpcruntime:xpcimports.obj
 0002:00006988       ??_C@_0BC@HCMIMIDN@StartVideoDisplay@ 10077988     xpcruntime:xpcimports.obj
 0002:000069a0       ??_C@_0BN@EFIEBGOO@StartVideoDisplay?5not?5found?6@ 100779a0     xpcruntime:xpcimports.obj
 0002:000069c4       ??_C@_0BB@JBBLMILG@StopVideoDisplay@ 100779c4     xpcruntime:xpcimports.obj
 0002:000069d8       ??_C@_0BM@DBJBPLEL@StopVideoDisplay?5not?5found?6@ 100779d8     xpcruntime:xpcimports.obj
 0002:000069fc       ??_C@_0M@MFJEGMHC@StreamVideo@ 100779fc     xpcruntime:xpcimports.obj
 0002:00006a0c       ??_C@_0BH@OINCDMLA@StreamVideo?5not?5found?6@ 10077a0c     xpcruntime:xpcimports.obj
 0002:00006a28       ??_C@_0N@IGGLCIGE@xpceaddEvent@ 10077a28     xpcruntime:xpcimports.obj
 0002:00006a38       ??_C@_0BI@NHJNFMKH@xpceaddEvent?5not?5found?6@ 10077a38     xpcruntime:xpcimports.obj
 0002:00006a54       ??_C@_0BB@HDPOIJAB@xpceDAQPostEvent@ 10077a54     xpcruntime:xpcimports.obj
 0002:00006a68       ??_C@_0BM@IHANBKGN@xpceDAQPostEvent?5not?5found?6@ 10077a68     xpcruntime:xpcimports.obj
 0002:00006a8c       ??_C@_0BH@MBACMOD@xpceDAQUpdateTimeStamp@ 10077a8c     xpcruntime:xpcimports.obj
 0002:00006aa8       ??_C@_0CC@DAKBBINL@xpceDAQUpdateTimeStamp?5not?5foun@ 10077aa8     xpcruntime:xpcimports.obj
 0002:00006ad0       ??_C@_0BN@HJOHIFOM@xpceGetIntTimerGranularityNS@ 10077ad0     xpcruntime:xpcimports.obj
 0002:00006af4       ??_C@_0CI@OADDPMKB@xpceGetIntTimerGranularityNS?5no@ 10077af4     xpcruntime:xpcimports.obj
 0002:00006b24       ??_C@_0BG@CCHICKPN@slrteSetStepSizeDelta@ 10077b24     xpcruntime:xpcimports.obj
 0002:00006b40       ??_C@_0CB@MKHINEIJ@slrteSetStepSizeDelta?5not?5found@ 10077b40     xpcruntime:xpcimports.obj
 0002:00006b68       ??_C@_0BI@CLNBLDKJ@slrteGetCurrentStepSize@ 10077b68     xpcruntime:xpcimports.obj
 0002:00006b84       ??_C@_0CD@GIOJPGJA@slrteGetCurrentStepSize?5not?5fou@ 10077b84     xpcruntime:xpcimports.obj
 0002:00006bb0       ??_C@_0BE@FCLCBOC@registerPTPTimeRead@ 10077bb0     xpcruntime:xpcimports.obj
 0002:00006bc8       ??_C@_0BP@LHPKAJIP@registerPTPTimeRead?5not?5found?6@ 10077bc8     xpcruntime:xpcimports.obj
 0002:00006bf0       ??_C@_0BG@KIGCDDJI@unRegisterPTPTimeRead@ 10077bf0     xpcruntime:xpcimports.obj
 0002:00006c0c       ??_C@_0CB@MLFFBFCM@unRegisterPTPTimeRead?5not?5found@ 10077c0c     xpcruntime:xpcimports.obj
 0002:00006c34       ??_C@_0BB@IPMDDBHK@slTestInitialize@ 10077c34     xpcruntime:xpcimports.obj
 0002:00006c48       ??_C@_0BM@LAJFCCJH@slTestInitialize?5not?5found?6@ 10077c48     xpcruntime:xpcimports.obj
 0002:00006c6c       ??_C@_0BF@OOMPMEBC@slTestLogAssessments@ 10077c6c     xpcruntime:xpcimports.obj
 0002:00006c88       ??_C@_0CA@FGJCEBAG@slTestLogAssessments?5not?5found?6@ 10077c88     xpcruntime:xpcimports.obj
 0002:00006cb0       ??_C@_0BB@HJHKONHO@slTestEvalOnFail@ 10077cb0     xpcruntime:xpcimports.obj
 0002:00006cc4       ??_C@_0BM@JIKCFFNJ@slTestEvalOnFail?5not?5found?6@ 10077cc4     xpcruntime:xpcimports.obj
 0002:00006ce8       ??_C@_0BA@LBHLABFP@slTestTerminate@ 10077ce8     xpcruntime:xpcimports.obj
 0002:00006cfc       ??_C@_0BL@EMFGKAPA@slTestTerminate?5not?5found?6@ 10077cfc     xpcruntime:xpcimports.obj
 0002:00006d1c       ??_C@_0BE@JPNPBBEO@slTestRegAssessment@ 10077d1c     xpcruntime:xpcimports.obj
 0002:00006d34       ??_C@_0BP@FBDEJJJH@slTestRegAssessment?5not?5found?6@ 10077d34     xpcruntime:xpcimports.obj
 0002:00006d5c       ??_C@_0O@NCLGDNIB@slrteSetupMSI@ 10077d5c     xpcruntime:xpcimports.obj
 0002:00006d6c       ??_C@_0BJ@HEFMECLM@slrteSetupMSI?5not?5found?6@ 10077d6c     xpcruntime:xpcimports.obj
 0002:00006d8c       ??_C@_0BH@BPOLALHD@slrtGetCRBScratchSpace@ 10077d8c     xpcruntime:xpcimports.obj
 0002:00006da8       ??_C@_0CC@KCKAJKKJ@slrtGetCRBScratchSpace?5not?5foun@ 10077da8     xpcruntime:xpcimports.obj
 0002:00006dd0       ??_C@_0BC@MKFDAKOL@slrtGetSgCRBSpace@ 10077dd0     xpcruntime:xpcimports.obj
 0002:00006de8       ??_C@_0BN@JDPHPLHL@slrtGetSgCRBSpace?5not?5found?6@ 10077de8     xpcruntime:xpcimports.obj
 0002:00006e0c       ??_C@_0P@EPAPKLIF@slrtfsOpenFile@ 10077e0c     xpcruntime:xpcimports.obj
 0002:00006e20       ??_C@_0BK@FIHCBOHG@slrtfsOpenFile?5not?5found?6@ 10077e20     xpcruntime:xpcimports.obj
 0002:00006e40       ??_C@_0BA@LILAFDDL@slrtfsCloseFile@ 10077e40     xpcruntime:xpcimports.obj
 0002:00006e54       ??_C@_0BL@DEGHJFIB@slrtfsCloseFile?5not?5found?6@ 10077e54     xpcruntime:xpcimports.obj
 0002:00006e74       ??_C@_0BC@OKMJDIEH@slrtfsWriteToFile@ 10077e74     xpcruntime:xpcimports.obj
 0002:00006e8c       ??_C@_0BN@KCFLCLAH@slrtfsWriteToFile?5not?5found?6@ 10077e8c     xpcruntime:xpcimports.obj
 0002:00006eb0       ??_C@_0BK@GIPNFFFF@slrtfsGetFileErrorMessage@ 10077eb0     xpcruntime:xpcimports.obj
 0002:00006ed0       ??_C@_0CF@BCBLMKLE@slrtfsGetFileErrorMessage?5not?5f@ 10077ed0     xpcruntime:xpcimports.obj
 0002:00006efc       ??_C@_0BD@ICBOKMK@slrtfsGetFileError@ 10077efc     xpcruntime:xpcimports.obj
 0002:00006f14       ??_C@_0BO@FNBANAE@slrtfsGetFileError?5not?5found?6@ 10077f14     xpcruntime:xpcimports.obj
 0002:00006f38       ??_C@_0BE@PPAJMHJP@slrtfsOpenFileAsync@ 10077f38     xpcruntime:xpcimports.obj
 0002:00006f50       ??_C@_0BP@HKBMMJOK@slrtfsOpenFileAsync?5not?5found?6@ 10077f50     xpcruntime:xpcimports.obj
 0002:00006f78       ??_C@_0BF@IGNDIBPF@slrtfsCloseFileAsync@ 10077f78     xpcruntime:xpcimports.obj
 0002:00006f94       ??_C@_0CA@GJPFDBKN@slrtfsCloseFileAsync?5not?5found?6@ 10077f94     xpcruntime:xpcimports.obj
 0002:00006fbc       ??_C@_0BE@IOLEBNB@slrtfsGetFileStatus@ 10077fbc     xpcruntime:xpcimports.obj
 0002:00006fd4       ??_C@_0BP@PEFHDGHL@slrtfsGetFileStatus?5not?5found?6@ 10077fd4     xpcruntime:xpcimports.obj
 0002:00006ffc       ??_C@_0M@HKIJIMG@slrtfsFread@ 10077ffc     xpcruntime:xpcimports.obj
 0002:0000700c       ??_C@_0BH@OOKBGONO@slrtfsFread?5not?5found?6@ 1007800c     xpcruntime:xpcimports.obj
 0002:00007028       ??_C@_0BE@OGCMPLAP@slrtGetDefaultDrive@ 10078028     xpcruntime:xpcimports.obj
 0002:00007040       ??_C@_0BP@HKFGLHOE@slrtGetDefaultDrive?5not?5found?6@ 10078040     xpcruntime:xpcimports.obj
 0002:00007068       ??_C@_0N@NAJIKFFI@slrtLogEvent@ 10078068     xpcruntime:xpcimports.obj
 0002:00007078       ??_C@_0BI@NKCEACND@slrtLogEvent?5not?5found?6@ 10078078     xpcruntime:xpcimports.obj
 0002:00007094       ??_C@_0N@IDKFJOHI@getlasterror@ 10078094     xpcruntime:xpcimports.obj
 0002:000070a4       ??_C@_0BI@MIHMCHGL@getlasterror?5not?5found?6@ 100780a4     xpcruntime:xpcimports.obj
 0002:000070c0       ??_C@_0P@OKHGKJKN@geterrorstring@ 100780c0     xpcruntime:xpcimports.obj
 0002:000070d4       ??_C@_0BK@NOHFDMLP@geterrorstring?5not?5found?6@ 100780d4     xpcruntime:xpcimports.obj
 0002:000070f4       ??_C@_0BD@HNFFKMGJ@slrtGetCPUTCelsius@ 100780f4     xpcruntime:xpcimports.obj
 0002:0000710c       ??_C@_0BO@LHBFKLIH@slrtGetCPUTCelsius?5not?5found?6@ 1007810c     xpcruntime:xpcimports.obj
 0002:00007130       ??_C@_0M@OONCNCLM@slrtWarning@ 10078130     xpcruntime:xpcimports.obj
 0002:00007140       ??_C@_0BH@ICKGIEMB@slrtWarning?5not?5found?6@ 10078140     xpcruntime:xpcimports.obj
 0002:0000715c       ??_C@_0N@EAAOMIIE@isUsedByRTIP@ 1007815c     xpcruntime:xpcimports.obj
 0002:0000716c       ??_C@_0BI@GNHHHICK@isUsedByRTIP?5not?5found?6@ 1007816c     xpcruntime:xpcimports.obj
 0002:00007188       ??_C@_0BC@HLDKJAG@SetIPTASKPriority@ 10078188     xpcruntime:xpcimports.obj
 0002:000071a0       ??_C@_0BN@OGKMHHAE@SetIPTASKPriority?5not?5found?6@ 100781a0     xpcruntime:xpcimports.obj
 0002:000071c4       ??_C@_0O@LHENMBDD@OpenInterface@ 100781c4     xpcruntime:xpcimports.obj
 0002:000071d4       ??_C@_0BJ@PFGDBKHB@OpenInterface?5not?5found?6@ 100781d4     xpcruntime:xpcimports.obj
 0002:000071f4       ??_C@_0P@IINFELKD@CloseInterface@ 100781f4     xpcruntime:xpcimports.obj
 0002:00007208       ??_C@_0BK@PAPDNDBK@CloseInterface?5not?5found?6@ 10078208     xpcruntime:xpcimports.obj
 0002:00007228       ??_C@_05LEFIAAOI@SetIP@    10078228     xpcruntime:xpcimports.obj
 0002:00007230       ??_C@_0BB@CGLIBAMM@SetIP?5not?5found?6@ 10078230     xpcruntime:xpcimports.obj
 0002:00007244       ??_C@_0BA@HIJJHHMD@AddGatewayRoute@ 10078244     xpcruntime:xpcimports.obj
 0002:00007258       ??_C@_0BL@BFCFMDMN@AddGatewayRoute?5not?5found?6@ 10078258     xpcruntime:xpcimports.obj
 0002:00007278       ??_C@_0M@PHMABFPI@DeleteRoute@ 10078278     xpcruntime:xpcimports.obj
 0002:00007288       ??_C@_0BH@JPJGLLID@DeleteRoute?5not?5found?6@ 10078288     xpcruntime:xpcimports.obj
 0002:000072a4       ??_C@_0BA@FCDIMKIJ@GetHostTarIPAdd@ 100782a4     xpcruntime:xpcimports.obj
 0002:000072b8       ??_C@_0BL@MBKDGKBO@GetHostTarIPAdd?5not?5found?6@ 100782b8     xpcruntime:xpcimports.obj
 0002:000072d8       ??_C@_0M@HPMIPIBI@GetDCUUsage@ 100782d8     xpcruntime:xpcimports.obj
 0002:000072e8       ??_C@_0BH@EBLJKCJC@GetDCUUsage?5not?5found?6@ 100782e8     xpcruntime:xpcimports.obj
 0002:00007304       ??_C@_06MPKMECK@accept@    10078304     xpcruntime:xpcimports.obj
 0002:0000730c       ??_C@_0BC@GBGIEMNO@accept?5not?5found?6@ 1007830c     xpcruntime:xpcimports.obj
 0002:00007324       ??_C@_04NPNJNMMP@bind@     10078324     xpcruntime:xpcimports.obj
 0002:0000732c       ??_C@_0BA@DAJNENLO@bind?5not?5found?6@ 1007832c     xpcruntime:xpcimports.obj
 0002:00007340       ??_C@_0L@CKHNIFCM@setsockopt@ 10078340     xpcruntime:xpcimports.obj
 0002:00007350       ??_C@_0BG@MFIIOMFE@setsockopt?5not?5found?6@ 10078350     xpcruntime:xpcimports.obj
 0002:0000736c       ??_C@_0M@ODDJDCDK@closesocket@ 1007836c     xpcruntime:xpcimports.obj
 0002:0000737c       ??_C@_0BH@JHGHMIL@closesocket?5not?5found?6@ 1007837c     xpcruntime:xpcimports.obj
 0002:00007398       ??_C@_07KAIBNCHO@connect@  10078398     xpcruntime:xpcimports.obj
 0002:000073a4       ??_C@_0BD@MKLLMBM@connect?5not?5found?6@ 100783a4     xpcruntime:xpcimports.obj
 0002:000073bc       ??_C@_0M@PBPOCKDG@ioctlsocket@ 100783bc     xpcruntime:xpcimports.obj
 0002:000073cc       ??_C@_0BH@NFCNHHIH@ioctlsocket?5not?5found?6@ 100783cc     xpcruntime:xpcimports.obj
 0002:000073e8       ??_C@_06OODDLKLE@listen@   100783e8     xpcruntime:xpcimports.obj
 0002:000073f0       ??_C@_0BC@NHBILEKI@listen?5not?5found?6@ 100783f0     xpcruntime:xpcimports.obj
 0002:00007408       ??_C@_08HMBBGFHE@recvfrom@ 10078408     xpcruntime:xpcimports.obj
 0002:00007414       ??_C@_0BE@BJAJFFLF@recvfrom?5not?5found?6@ 10078414     xpcruntime:xpcimports.obj
 0002:0000742c       ??_C@_06MEPBGKEC@sendto@   1007842c     xpcruntime:xpcimports.obj
 0002:00007434       ??_C@_0BC@BHPIMDJO@sendto?5not?5found?6@ 10078434     xpcruntime:xpcimports.obj
 0002:0000744c       ??_C@_09JKBDEEOB@inet_addr@ 1007844c     xpcruntime:xpcimports.obj
 0002:00007458       ??_C@_0BF@HKJPGECN@inet_addr?5not?5found?6@ 10078458     xpcruntime:xpcimports.obj
 0002:00007474       ??_C@_06HBELJPBO@socket@   10078474     xpcruntime:xpcimports.obj
 0002:0000747c       ??_C@_0BC@NAGFFJGA@socket?5not?5found?6@ 1007847c     xpcruntime:xpcimports.obj
 0002:00007494       ??_C@_09ICJIFGNC@GetSocket@ 10078494     xpcruntime:xpcimports.obj
 0002:000074a0       ??_C@_0BF@KDBCKMOJ@GetSocket?5not?5found?6@ 100784a0     xpcruntime:xpcimports.obj
 0002:000074bc       ??_C@_0P@KJEGJMJI@GetSocketState@ 100784bc     xpcruntime:xpcimports.obj
 0002:000074d0       ??_C@_0BK@IALBJHEB@GetSocketState?5not?5found?6@ 100784d0     xpcruntime:xpcimports.obj
 0002:000074f0       ??_C@_0L@MEAJHNHB@SocketSend@ 100784f0     xpcruntime:xpcimports.obj
 0002:00007500       ??_C@_0BG@EOCMBFJA@SocketSend?5not?5found?6@ 10078500     xpcruntime:xpcimports.obj
 0002:0000751c       ??_C@_0O@PFPCLEMF@SocketReceive@ 1007851c     xpcruntime:xpcimports.obj
 0002:0000752c       ??_C@_0BJ@HIBADDFO@SocketReceive?5not?5found?6@ 1007852c     xpcruntime:xpcimports.obj
 0002:0000754c       ??_C@_0BD@OOGFNAIK@CreateServerSocket@ 1007854c     xpcruntime:xpcimports.obj
 0002:00007564       ??_C@_0BO@GKIJHIPH@CreateServerSocket?5not?5found?6@ 10078564     xpcruntime:xpcimports.obj
 0002:00007588       ??_C@_0BB@KGHJGFFO@OpenServerListen@ 10078588     xpcruntime:xpcimports.obj
 0002:0000759c       ??_C@_0BM@NFMMLIO@OpenServerListen?5not?5found?6@ 1007859c     xpcruntime:xpcimports.obj
 0002:000075c0       ??_C@_0BE@BAJLDJAH@ConnectServerSocket@ 100785c0     xpcruntime:xpcimports.obj
 0002:000075d8       ??_C@_0BP@KJNODIKE@ConnectServerSocket?5not?5found?6@ 100785d8     xpcruntime:xpcimports.obj
 0002:00007600       ??_C@_0BC@PLKKJDIM@CloseServerSocket@ 10078600     xpcruntime:xpcimports.obj
 0002:00007618       ??_C@_0BN@KEJEPNMB@CloseServerSocket?5not?5found?6@ 10078618     xpcruntime:xpcimports.obj
 0002:0000763c       ??_C@_0BD@MCLPKCPP@CreateClientSocket@ 1007863c     xpcruntime:xpcimports.obj
 0002:00007654       ??_C@_0BO@DILAGPFN@CreateClientSocket?5not?5found?6@ 10078654     xpcruntime:xpcimports.obj
 0002:00007678       ??_C@_0BB@DAPKNNLG@BindClientSocket@ 10078678     xpcruntime:xpcimports.obj
 0002:0000768c       ??_C@_0BM@LLLMMDFN@BindClientSocket?5not?5found?6@ 1007868c     xpcruntime:xpcimports.obj
 0002:000076b0       ??_C@_0BE@DMEBELHC@ConnectClientSocket@ 100786b0     xpcruntime:xpcimports.obj
 0002:000076c8       ??_C@_0BP@PLOHCPAO@ConnectClientSocket?5not?5found?6@ 100786c8     xpcruntime:xpcimports.obj
 0002:000076f0       ??_C@_0BC@NHHAOBPJ@CloseClientSocket@ 100786f0     xpcruntime:xpcimports.obj
 0002:00007708       ??_C@_0BN@PGKNOKGL@CloseClientSocket?5not?5found?6@ 10078708     xpcruntime:xpcimports.obj
 0002:000077d8       __pRawDllMain              100787d8     LIBCMT:dll_dllmain.obj
 0002:000077d8       __pDefaultRawDllMain       100787d8     LIBCMT:dll_dllmain.obj
 0002:000079d0       ??_C@_08EHJDFFNH@__based?$CI@ 100789d0     libvcruntime:undname.obj
 0002:000079dc       ??_C@_07KOLFKCDI@__cdecl@  100789dc     libvcruntime:undname.obj
 0002:000079e8       ??_C@_08GHMPAG@__pascal@   100789e8     libvcruntime:undname.obj
 0002:000079f4       ??_C@_09IFJBGAPI@__stdcall@ 100789f4     libvcruntime:undname.obj
 0002:00007a00       ??_C@_0L@NPHFGOKO@__thiscall@ 10078a00     libvcruntime:undname.obj
 0002:00007a10       ??_C@_0L@JMKHOMEK@__fastcall@ 10078a10     libvcruntime:undname.obj
 0002:00007a20       ??_C@_0N@BCKKPABJ@__vectorcall@ 10078a20     libvcruntime:undname.obj
 0002:00007a30       ??_C@_09HIJEGCPM@__clrcall@ 10078a30     libvcruntime:undname.obj
 0002:00007a3c       ??_C@_06GHPCKEAG@__eabi@   10078a3c     libvcruntime:undname.obj
 0002:00007a44       ??_C@_09IOPIDJLG@__swift_1@ 10078a44     libvcruntime:undname.obj
 0002:00007a50       ??_C@_09KFNFGKHF@__swift_2@ 10078a50     libvcruntime:undname.obj
 0002:00007a5c       ??_C@_07JOMMBBKO@__ptr64@  10078a5c     libvcruntime:undname.obj
 0002:00007a68       ??_C@_0L@PILCLIHE@__restrict@ 10078a68     libvcruntime:undname.obj
 0002:00007a78       ??_C@_0M@GFIIJFMG@__unaligned@ 10078a78     libvcruntime:undname.obj
 0002:00007a88       ??_C@_09DHDLOLLB@restrict?$CI@ 10078a88     libvcruntime:undname.obj
 0002:00007a94       ??_C@_04NIHEBCM@?5new@     10078a94     libvcruntime:undname.obj
 0002:00007a9c       ??_C@_07FPCDHGMM@?5delete@ 10078a9c     libvcruntime:undname.obj
 0002:00007aa8       ??_C@_01NEMOKFLO@?$DN@     10078aa8     libvcruntime:undname.obj
 0002:00007aac       ??_C@_02GPIOPFAK@?$DO?$DO@ 10078aac     libvcruntime:undname.obj
 0002:00007ab0       ??_C@_02FODMEDOG@?$DM?$DM@ 10078ab0     libvcruntime:undname.obj
 0002:00007ab4       ??_C@_01DCLJPIOD@?$CB@     10078ab4     libvcruntime:undname.obj
 0002:00007ab8       ??_C@_02EGOFBIJA@?$DN?$DN@ 10078ab8     libvcruntime:undname.obj
 0002:00007abc       ??_C@_02FDNJECIE@?$CB?$DN@ 10078abc     libvcruntime:undname.obj
 0002:00007ac0       ??_C@_02GPECMEKF@?$FL?$FN@ 10078ac0     libvcruntime:undname.obj
 0002:00007ac4       ??_C@_08LHJFAFGD@operator@ 10078ac4     libvcruntime:undname.obj
 0002:00007ad0       ??_C@_02HBOOOICD@?9?$DO@   10078ad0     libvcruntime:undname.obj
 0002:00007ad4       ??_C@_01NBENCBCI@?$CK@     10078ad4     libvcruntime:undname.obj
 0002:00007ad8       ??_C@_02ECNGHCIF@?$CL?$CL@ 10078ad8     libvcruntime:undname.obj
 0002:00007adc       ??_C@_02BAABKJLB@?9?9@     10078adc     libvcruntime:undname.obj
 0002:00007ae0       ??_C@_01JOAMLHOP@?9@       10078ae0     libvcruntime:undname.obj
 0002:00007ae4       ??_C@_01MIFGBAGJ@?$CL@     10078ae4     libvcruntime:undname.obj
 0002:00007ae8       ??_C@_01HNPIGOCE@?$CG@     10078ae8     libvcruntime:undname.obj
 0002:00007aec       ??_C@_03MNHNFDLC@?9?$DO?$CK@ 10078aec     libvcruntime:undname.obj
 0002:00007af0       ??_C@_01KMDKNFGN@?1@       10078af0     libvcruntime:undname.obj
 0002:00007af4       ??_C@_01FGNFDNOH@?$CF@     10078af4     libvcruntime:undname.obj
 0002:00007af8       ??_C@_01MNNFJEPP@?$DM@     10078af8     libvcruntime:undname.obj
 0002:00007afc       ??_C@_02EHCHHCKH@?$DM?$DN@ 10078afc     libvcruntime:undname.obj
 0002:00007b00       ??_C@_01PPODPGHN@?$DO@     10078b00     libvcruntime:undname.obj
 0002:00007b04       ??_C@_02EEKDKGMJ@?$DO?$DN@ 10078b04     libvcruntime:undname.obj
 0002:00007b08       ??_C@_01IHBHIGKO@?0@       10078b08     libvcruntime:undname.obj
 0002:00007b0c       ??_C@_02HCKGKOFO@?$CI?$CJ@ 10078b0c     libvcruntime:undname.obj
 0002:00007b10       ??_C@_01PJKLJHI@?$HO@      10078b10     libvcruntime:undname.obj
 0002:00007b14       ??_C@_01JKBOJNNK@?$FO@     10078b14     libvcruntime:undname.obj
 0002:00007b18       ??_C@_01DNKMNLPK@?$HM@     10078b18     libvcruntime:undname.obj
 0002:00007b1c       ??_C@_02PPKAJPJL@?$CG?$CG@ 10078b1c     libvcruntime:undname.obj
 0002:00007b20       ??_C@_02NONPIBCD@?$HM?$HM@ 10078b20     libvcruntime:undname.obj
 0002:00007b24       ??_C@_02FPIMKNGF@?$CK?$DN@ 10078b24     libvcruntime:undname.obj
 0002:00007b28       ??_C@_02FOEOMHFC@?$CL?$DN@ 10078b28     libvcruntime:undname.obj
 0002:00007b2c       ??_C@_02FKMDLLOA@?9?$DN@   10078b2c     libvcruntime:undname.obj
 0002:00007b30       ??_C@_02FJEHGPIO@?1?$DN@   10078b30     libvcruntime:undname.obj
 0002:00007b34       ??_C@_02FENAOKFI@?$CF?$DN@ 10078b34     libvcruntime:undname.obj
 0002:00007b38       ??_C@_03IKFCCPFF@?$DO?$DO?$DN@ 10078b38     libvcruntime:undname.obj
 0002:00007b3c       ??_C@_03CDNPDDLA@?$DM?$DM?$DN@ 10078b3c     libvcruntime:undname.obj
 0002:00007b40       ??_C@_02FGJGFEAB@?$CG?$DN@ 10078b40     libvcruntime:undname.obj
 0002:00007b44       ??_C@_02DHLNPPGH@?$HM?$DN@ 10078b44     libvcruntime:undname.obj
 0002:00007b48       ??_C@_02MHEGNOJ@?$FO?$DN@  10078b48     libvcruntime:undname.obj
 0002:00007b4c       ??_C@_09IFPLHPGF@?$GAvftable?8@ 10078b4c     libvcruntime:undname.obj
 0002:00007b58       ??_C@_09BLBHBJP@?$GAvbtable?8@ 10078b58     libvcruntime:undname.obj
 0002:00007b64       ??_C@_07FEEIOKP@?$GAvcall?8@ 10078b64     libvcruntime:undname.obj
 0002:00007b70       ??_C@_08LLFFHHDJ@?$GAtypeof?8@ 10078b70     libvcruntime:undname.obj
 0002:00007b7c       ??_C@_0BF@KDPPACIK@?$GAlocal?5static?5guard?8@ 10078b7c     libvcruntime:undname.obj
 0002:00007b98       ??_C@_08OBABFOLI@?$GAstring?8@ 10078b98     libvcruntime:undname.obj
 0002:00007ba4       ??_C@_0BD@JDLKDPAB@?$GAvbase?5destructor?8@ 10078ba4     libvcruntime:undname.obj
 0002:00007bbc       ??_C@_0BN@DEGPLNFK@?$GAvector?5deleting?5destructor?8@ 10078bbc     libvcruntime:undname.obj
 0002:00007be0       ??_C@_0BO@OBMKPJIG@?$GAdefault?5constructor?5closure?8@ 10078be0     libvcruntime:undname.obj
 0002:00007c04       ??_C@_0BN@IMDCHIKM@?$GAscalar?5deleting?5destructor?8@ 10078c04     libvcruntime:undname.obj
 0002:00007c28       ??_C@_0BO@PFGOCPJJ@?$GAvector?5constructor?5iterator?8@ 10078c28     libvcruntime:undname.obj
 0002:00007c4c       ??_C@_0BN@LFPFMEDL@?$GAvector?5destructor?5iterator?8@ 10078c4c     libvcruntime:undname.obj
 0002:00007c70       ??_C@_0CE@IKBNEHA@?$GAvector?5vbase?5constructor?5itera@ 10078c70     libvcruntime:undname.obj
 0002:00007c9c       ??_C@_0BL@NILFHHPC@?$GAvirtual?5displacement?5map?8@ 10078c9c     libvcruntime:undname.obj
 0002:00007cbc       ??_C@_0CB@JONCMFFK@?$GAeh?5vector?5constructor?5iterator@ 10078cbc     libvcruntime:undname.obj
 0002:00007ce4       ??_C@_0CA@GCEOPDGL@?$GAeh?5vector?5destructor?5iterator?8@ 10078ce4     libvcruntime:undname.obj
 0002:00007d0c       ??_C@_0CH@OOJPLCPH@?$GAeh?5vector?5vbase?5constructor?5it@ 10078d0c     libvcruntime:undname.obj
 0002:00007d3c       ??_C@_0BL@LLKPOHJI@?$GAcopy?5constructor?5closure?8@ 10078d3c     libvcruntime:undname.obj
 0002:00007d5c       ??_C@_0BA@KBCDOMBN@?$GAudt?5returning?8@ 10078d5c     libvcruntime:undname.obj
 0002:00007d70       ??_C@_03KLGMFNMG@?$GAEH@   10078d70     libvcruntime:undname.obj
 0002:00007d74       ??_C@_05KHLCHHI@?$GARTTI@  10078d74     libvcruntime:undname.obj
 0002:00007d7c       ??_C@_0BA@KKLDJDLB@?$GAlocal?5vftable?8@ 10078d7c     libvcruntime:undname.obj
 0002:00007d90       ??_C@_0CE@IIHCMGGL@?$GAlocal?5vftable?5constructor?5clos@ 10078d90     libvcruntime:undname.obj
 0002:00007dbc       ??_C@_06FHBGPFGH@?5new?$FL?$FN@ 10078dbc     libvcruntime:undname.obj
 0002:00007dc4       ??_C@_09LBNFPBCA@?5delete?$FL?$FN@ 10078dc4     libvcruntime:undname.obj
 0002:00007dd0       ??_C@_0P@HJKNJFNN@?$GAomni?5callsig?8@ 10078dd0     libvcruntime:undname.obj
 0002:00007de4       ??_C@_0BL@CNOONJFP@?$GAplacement?5delete?5closure?8@ 10078de4     libvcruntime:undname.obj
 0002:00007e04       ??_C@_0BN@CKNJLHMB@?$GAplacement?5delete?$FL?$FN?5closure?8@ 10078e04     libvcruntime:undname.obj
 0002:00007e28       ??_C@_0CG@CFDHKGGD@?$GAmanaged?5vector?5constructor?5ite@ 10078e28     libvcruntime:undname.obj
 0002:00007e58       ??_C@_0CF@IMGKMJNO@?$GAmanaged?5vector?5destructor?5iter@ 10078e58     libvcruntime:undname.obj
 0002:00007e84       ??_C@_0CG@HLDDJMAG@?$GAeh?5vector?5copy?5constructor?5ite@ 10078e84     libvcruntime:undname.obj
 0002:00007eb4       ??_C@_0CM@FCBBDIGB@?$GAeh?5vector?5vbase?5copy?5construct@ 10078eb4     libvcruntime:undname.obj
 0002:00007ee8       ??_C@_0BL@CLIPGLGB@?$GAdynamic?5initializer?5for?5?8@ 10078ee8     libvcruntime:undname.obj
 0002:00007f08       ??_C@_0CB@PDBIFEP@?$GAdynamic?5atexit?5destructor?5for?5@ 10078f08     libvcruntime:undname.obj
 0002:00007f30       ??_C@_0CD@CGAJBKEJ@?$GAvector?5copy?5constructor?5iterat@ 10078f30     libvcruntime:undname.obj
 0002:00007f5c       ??_C@_0CJ@GJELGAMM@?$GAvector?5vbase?5copy?5constructor?5@ 10078f5c     libvcruntime:undname.obj
 0002:00007f90       ??_C@_0CL@FGIJHLCE@?$GAmanaged?5vector?5copy?5constructo@ 10078f90     libvcruntime:undname.obj
 0002:00007fc4       ??_C@_0BM@PMGGMLDN@?$GAlocal?5static?5thread?5guard?8@ 10078fc4     libvcruntime:undname.obj
 0002:00007fe8       ??_C@_0N@BDNMDMOL@operator?5?$CC?$CC?5@ 10078fe8     libvcruntime:undname.obj
 0002:00007ff8       ??_C@_0BC@GGEBGALA@operator?5co_await@ 10078ff8     libvcruntime:undname.obj
 0002:00008010       ??_C@_0BC@DAFEJGAK@?5Type?5Descriptor?8@ 10079010     libvcruntime:undname.obj
 0002:00008028       ??_C@_0BM@LDKODKLH@?5Base?5Class?5Descriptor?5at?5?$CI@ 10079028     libvcruntime:undname.obj
 0002:0000804c       ??_C@_0BD@LGICGFMM@?5Base?5Class?5Array?8@ 1007904c     libvcruntime:undname.obj
 0002:00008064       ??_C@_0BN@MECKDCOJ@?5Class?5Hierarchy?5Descriptor?8@ 10079064     libvcruntime:undname.obj
 0002:00008088       ??_C@_0BK@CFCOFLF@?5Complete?5Object?5Locator?8@ 10079088     libvcruntime:undname.obj
 0002:000080a8       ??_C@_04HEJADOOB@CV?3?5@   100790a8     libvcruntime:undname.obj
 0002:000080b0       ??_C@_02MOLJINC@?3?3@      100790b0     libvcruntime:undname.obj
 0002:000080b4       ??_C@_0BE@JAEOCHPE@template?9parameter?9@ 100790b4     libvcruntime:undname.obj
 0002:000080cc       ??_C@_0O@KHGCOMHP@generic?9type?9@ 100790cc     libvcruntime:undname.obj
 0002:000080dc       ??_C@_01NLNLIGKH@?$GA@     100790dc     libvcruntime:undname.obj
 0002:000080e0       ??_C@_01GEODFPGF@?8@       100790e0     libvcruntime:undname.obj
 0002:000080e4       ??_C@_0BG@JNJLAMPM@?$GAanonymous?5namespace?8@ 100790e4     libvcruntime:undname.obj
 0002:00008100       ??_C@_02OHHJMEON@?8?8@     10079100     libvcruntime:undname.obj
 0002:00008104       ??_C@_0BN@IBLMMFAP@?$GAnon?9type?9template?9parameter@ 10079104     libvcruntime:undname.obj
 0002:00008128       ??_C@_04GKJNKENE@void@     10079128     libvcruntime:undname.obj
 0002:00008130       ??_C@_0BE@EODMJLIF@?$GAtemplate?9parameter@ 10079130     libvcruntime:undname.obj
 0002:00008148       ??_C@_03KHICJKCI@?4?4?4@   10079148     libvcruntime:undname.obj
 0002:0000814c       ??_C@_04HIBGFPH@NULL@      1007914c     libvcruntime:undname.obj
 0002:00008154       ??_C@_02DPKJAMEF@?$CFd@    10079154     libvcruntime:undname.obj
 0002:00008158       ??_C@_0BK@IHCCFNEL@?$GAtemplate?9type?9parameter?9@ 10079158     libvcruntime:undname.obj
 0002:00008178       ??_C@_0BK@OFCNNNKO@?$GAgeneric?9class?9parameter?9@ 10079178     libvcruntime:undname.obj
 0002:00008198       ??_C@_0BL@NGJBLFIL@?$GAgeneric?9method?9parameter?9@ 10079198     libvcruntime:undname.obj
 0002:000081b8       ??_C@_03OPGICMGF@?$HN?8?5@ 100791b8     libvcruntime:undname.obj
 0002:000081bc       ??_C@_02IGFCGPIL@?$HN?8@   100791bc     libvcruntime:undname.obj
 0002:000081c0       ??_C@_01CLKCMJKC@?5@       100791c0     libvcruntime:undname.obj
 0002:000081c4       ??_C@_0N@CBHHHENL@?$GAvtordispex?$HL@ 100791c4     libvcruntime:undname.obj
 0002:000081d4       ??_C@_0L@GHPFDFH@?$GAvtordisp?$HL@ 100791d4     libvcruntime:undname.obj
 0002:000081e4       ??_C@_0L@HNGCOGAE@?$GAadjustor?$HL@ 100791e4     libvcruntime:undname.obj
 0002:000081f4       ??_C@_0CB@KJDOOODE@?$GAlocal?5static?5destructor?5helper@ 100791f4     libvcruntime:undname.obj
 0002:0000821c       ??_C@_0DB@ILEFOCIJ@?$GAtemplate?5static?5data?5member?5co@ 1007921c     libvcruntime:undname.obj
 0002:00008258       ??_C@_0DA@HGFJFBBE@?$GAtemplate?5static?5data?5member?5de@ 10079258     libvcruntime:undname.obj
 0002:00008294       ??_C@_07PGOEDBHP@static?5@ 10079294     libvcruntime:undname.obj
 0002:000082a0       ??_C@_08NIEOINHE@virtual?5@ 100792a0     libvcruntime:undname.obj
 0002:000082ac       ??_C@_09LAPHOOG@private?3?5@ 100792ac     libvcruntime:undname.obj
 0002:000082b8       ??_C@_0M@GAIFPFIP@protected?3?5@ 100792b8     libvcruntime:undname.obj
 0002:000082c8       ??_C@_08GPDDCMKI@public?3?5@ 100792c8     libvcruntime:undname.obj
 0002:000082d4       ??_C@_08KJLFOPNE@?$FLthunk?$FN?3@ 100792d4     libvcruntime:undname.obj
 0002:000082e0       ??_C@_0M@DHNBOJMP@extern?5?$CCC?$CC?5@ 100792e0     libvcruntime:undname.obj
 0002:000082f0       ??_C@_02KCKGHPCA@?$CJ?5@   100792f0     libvcruntime:undname.obj
 0002:000082f4       ??_C@_05CIHEBHNO@char?5@   100792f4     libvcruntime:undname.obj
 0002:000082fc       ??_C@_06EHJMALKF@short?5@  100792fc     libvcruntime:undname.obj
 0002:00008304       ??_C@_04LAHKHJMA@int?5@    10079304     libvcruntime:undname.obj
 0002:0000830c       ??_C@_05CJIMAING@long?5@   1007930c     libvcruntime:undname.obj
 0002:00008314       ??_C@_09EBBEKKIH@unsigned?5@ 10079314     libvcruntime:undname.obj
 0002:00008320       ??_C@_05BEFAKPML@void?5@   10079320     libvcruntime:undname.obj
 0002:00008328       ??_C@_08PABEKFH@volatile@  10079328     libvcruntime:undname.obj
 0002:00008334       ??_C@_0BA@LKIJLKPP@std?3?3nullptr_t?5@ 10079334     libvcruntime:undname.obj
 0002:00008348       ??_C@_0P@GCOCNKDM@std?3?3nullptr_t@ 10079348     libvcruntime:undname.obj
 0002:0000835c       ??_C@_0L@EGPHHEKN@?$DMellipsis?$DO@ 1007935c     libvcruntime:undname.obj
 0002:0000836c       ??_C@_04EENFHACM@?0?4?4?4@ 1007936c     libvcruntime:undname.obj
 0002:00008374       ??_C@_0M@ELJOJFFH@?0?$DMellipsis?$DO@ 10079374     libvcruntime:undname.obj
 0002:00008384       ??_C@_09DNHFEOJI@?5noexcept@ 10079384     libvcruntime:undname.obj
 0002:00008390       ??_C@_03PBJBJNON@cpu@      10079390     libvcruntime:undname.obj
 0002:00008394       ??_C@_03DCBBJBAA@amp@      10079394     libvcruntime:undname.obj
 0002:00008398       ??_C@_02KEGNLNML@?0?5@     10079398     libvcruntime:undname.obj
 0002:0000839c       ??_C@_04ENMBGAPA@char@     1007939c     libvcruntime:undname.obj
 0002:000083a4       ??_C@_05BFKKPKCG@short@    100793a4     libvcruntime:undname.obj
 0002:000083ac       ??_C@_03JBIPMCLC@int@      100793ac     libvcruntime:undname.obj
 0002:000083b0       ??_C@_04GOKPGOLB@long@     100793b0     libvcruntime:undname.obj
 0002:000083b8       ??_C@_04DDKJGDCM@bool@     100793b8     libvcruntime:undname.obj
 0002:000083c0       ??_C@_06EBGKOKIG@__int8@   100793c0     libvcruntime:undname.obj
 0002:000083c8       ??_C@_07ICFHOGAF@__int16@  100793c8     libvcruntime:undname.obj
 0002:000083d4       ??_C@_07OFLPPHGP@__int32@  100793d4     libvcruntime:undname.obj
 0002:000083e0       ??_C@_07LFCOJCAC@__int64@  100793e0     libvcruntime:undname.obj
 0002:000083ec       ??_C@_08GAHOLHEO@__int128@ 100793ec     libvcruntime:undname.obj
 0002:000083f8       ??_C@_09EEKGDCPH@?$DMunknown?$DO@ 100793f8     libvcruntime:undname.obj
 0002:00008404       ??_C@_08HBIPOFJB@char16_t@ 10079404     libvcruntime:undname.obj
 0002:00008410       ??_C@_08IECNCBKG@char32_t@ 10079410     libvcruntime:undname.obj
 0002:0000841c       ??_C@_07CLGGIAMF@wchar_t@  1007941c     libvcruntime:undname.obj
 0002:00008428       ??_C@_06GCICPBLB@__w64?5@  10079428     libvcruntime:undname.obj
 0002:00008430       ??_C@_07NFANNNEC@UNKNOWN@  10079430     libvcruntime:undname.obj
 0002:0000843c       ??_C@_07EDHNAJHC@signed?5@ 1007943c     libvcruntime:undname.obj
 0002:00008448       ??_C@_05BNCCCJPP@const@    10079448     libvcruntime:undname.obj
 0002:00008450       ??_C@_09EFNPDFFP@?5volatile@ 10079450     libvcruntime:undname.obj
 0002:0000845c       ??_C@_0P@GCIFDJCJ@?$GAunknown?5ecsu?8@ 1007945c     libvcruntime:undname.obj
 0002:00008470       ??_C@_06MOJHIBMG@union?5@  10079470     libvcruntime:undname.obj
 0002:00008478       ??_C@_07DIBCDNGL@struct?5@ 10079478     libvcruntime:undname.obj
 0002:00008484       ??_C@_06LJBABKPM@class?5@  10079484     libvcruntime:undname.obj
 0002:0000848c       ??_C@_08KOFANOFK@coclass?5@ 1007948c     libvcruntime:undname.obj
 0002:00008498       ??_C@_0N@DLIEFKNA@cointerface?5@ 10079498     libvcruntime:undname.obj
 0002:000084a8       ??_C@_05LJGMCFOG@enum?5@   100794a8     libvcruntime:undname.obj
 0002:000084b0       ??_C@_09GAIEOBLP@volatile?5@ 100794b0     libvcruntime:undname.obj
 0002:000084bc       ??_C@_06LIJLOJAG@const?5@  100794bc     libvcruntime:undname.obj
 0002:000084c4       ??_C@_02KJPKDIBN@?$CG?5@   100794c4     libvcruntime:undname.obj
 0002:000084c8       ??_C@_03PCKGMOPB@?$CG?$CG?5@ 100794c8     libvcruntime:undname.obj
 0002:000084cc       ??_C@_0M@EALIELKG@cli?3?3array?$DM@ 100794cc     libvcruntime:undname.obj
 0002:000084dc       ??_C@_0O@GKABPPIF@cli?3?3pin_ptr?$DM@ 100794dc     libvcruntime:undname.obj
 0002:000084ec       ??_C@_02GOGNNPBN@?$CJ?$FL@ 100794ec     libvcruntime:undname.obj
 0002:000084f0       ??_C@_06EEGAIFAK@?$HLflat?$HN@ 100794f0     libvcruntime:undname.obj
 0002:000084f8       ??_C@_05JIBOFOHK@?$HLfor?5@ 100794f8     libvcruntime:undname.obj
 0002:00008500       ??_C@_02MDINNEEG@s?5@      10079500     libvcruntime:undname.obj
 0002:00008508       ??_7DNameNode@@6B@         10079508     libvcruntime:undname.obj
 0002:0000851c       ??_7charNode@@6B@          1007951c     libvcruntime:undname.obj
 0002:00008530       ??_7pcharNode@@6B@         10079530     libvcruntime:undname.obj
 0002:00008544       ??_7pDNameNode@@6B@        10079544     libvcruntime:undname.obj
 0002:00008558       ??_7DNameStatusNode@@6B@   10079558     libvcruntime:undname.obj
 0002:0000856c       ??_7pairNode@@6B@          1007956c     libvcruntime:undname.obj
 0002:0000857c       ??_C@_04OKOHEJBO@?5?$DP?$DP?5@ 1007957c     libvcruntime:undname.obj
 0002:00008584       ?nodes@?1??make@DNameStatusNode@@SAPBV2@W4DNameStatus@@@Z@4QBV2@B 10079584     libvcruntime:undname.obj
 0002:000085d0       ??_C@_1DM@KHCHBNEB@?$AAa?$AAp?$AAi?$AA?9?$AAm?$AAs?$AA?9?$AAw?$AAi?$AAn?$AA?9?$AAc?$AAo?$AAr?$AAe@ 100795d0     libvcruntime:winapi_downlevel.obj
 0002:00008618       ??_C@_1DK@LPPGFMPP@?$AAa?$AAp?$AAi?$AA?9?$AAm?$AAs?$AA?9?$AAw?$AAi?$AAn?$AA?9?$AAc?$AAo?$AAr?$AAe@ 10079618     libvcruntime:winapi_downlevel.obj
 0002:00008660       ??_C@_1BC@GDMECMAK@?$AAk?$AAe?$AAr?$AAn?$AAe?$AAl?$AA3?$AA2@ 10079660     libvcruntime:winapi_downlevel.obj
 0002:00008678       ??_C@_1BA@PFFKHIOG@?$AAa?$AAp?$AAi?$AA?9?$AAm?$AAs?$AA?9@ 10079678     libvcruntime:winapi_downlevel.obj
 0002:0000868c       ??_C@_1BA@IAIFMGEF@?$AAe?$AAx?$AAt?$AA?9?$AAm?$AAs?$AA?9@ 1007968c     libvcruntime:winapi_downlevel.obj
 0002:000086ac       ??_C@_08KNHFBNJ@FlsAlloc@  100796ac     libvcruntime:winapi_downlevel.obj
 0002:000086c4       ??_C@_07PEJMOBNF@FlsFree@  100796c4     libvcruntime:winapi_downlevel.obj
 0002:000086dc       ??_C@_0M@GDNOONDI@FlsGetValue@ 100796dc     libvcruntime:winapi_downlevel.obj
 0002:000086f8       ??_C@_0M@JCPCPOEF@FlsSetValue@ 100796f8     libvcruntime:winapi_downlevel.obj
 0002:00008714       ??_C@_0BM@HCFOFFN@InitializeCriticalSectionEx@ 10079714     libvcruntime:winapi_downlevel.obj
 0002:0000873c       ??_7exception@std@@6B@     1007973c     libvcruntime:frame.obj
 0002:00008748       ??_C@_0BC@EOODALEL@Unknown?5exception@ 10079748     libvcruntime:frame.obj
 0002:00008764       ??_7bad_exception@std@@6B@ 10079764     libvcruntime:frame.obj
 0002:00008770       ??_C@_0O@DPKOEFFH@bad?5exception@ 10079770     libvcruntime:frame.obj
 0002:00008780       __pDestructExceptionObject 10079780     libvcruntime:ehhelpers.obj
 0002:000087ac       ??_C@_0CK@CFPGFGGO@Assertion?5failed?3?5?$CFTs?0?5file?5?$CFTs?0@ 100797ac     libucrt:assert.obj
 0002:000087e0       ??_C@_1FE@LHBLIKM@?$AAA?$AAs?$AAs?$AAe?$AAr?$AAt?$AAi?$AAo?$AAn?$AA?5?$AAf?$AAa?$AAi?$AAl?$AAe?$AAd?$AA?3?$AA?5?$AA?$CF?$AAT?$AAs?$AA?0?$AA?5?$AAf?$AAi?$AAl?$AAe?$AA?5?$AA?$CF?$AAT?$AAs?$AA?0@ 100797e0     libucrt:assert.obj
 0002:00008844       ??_C@_0CF@GOGNBNAK@Microsoft?5Visual?5C?$CL?$CL?5Runtime?5Lib@ 10079844     libucrt:assert.obj
 0002:00008870       ??_C@_1EK@MBDPDCGA@?$AAM?$AAi?$AAc?$AAr?$AAo?$AAs?$AAo?$AAf?$AAt?$AA?5?$AAV?$AAi?$AAs?$AAu?$AAa?$AAl?$AA?5?$AAC?$AA?$CL?$AA?$CL?$AA?5?$AAR?$AAu?$AAn?$AAt?$AAi?$AAm?$AAe?$AA?5?$AAL?$AAi?$AAb@ 10079870     libucrt:assert.obj
 0002:000088c8       ??_C@_0BC@LAIDCHCH@Assertion?5failed?$CB?$AA@ 100798c8     libucrt:assert.obj
 0002:000088e0       ??_C@_1CE@OJBNHDMO@?$AAA?$AAs?$AAs?$AAe?$AAr?$AAt?$AAi?$AAo?$AAn?$AA?5?$AAf?$AAa?$AAi?$AAl?$AAe?$AAd?$AA?$CB?$AA?$AA@ 100798e0     libucrt:assert.obj
 0002:0000890c       ??_C@_09KLGCKDOD@Program?3?5?$AA@ 1007990c     libucrt:assert.obj
 0002:00008918       ??_C@_1BE@PHKBBGE@?$AAP?$AAr?$AAo?$AAg?$AAr?$AAa?$AAm?$AA?3?$AA?5?$AA?$AA@ 10079918     libucrt:assert.obj
 0002:00008930       ??_C@_06IGPBOHMJ@File?3?5?$AA@ 10079930     libucrt:assert.obj
 0002:00008938       ??_C@_1O@HEMHKNDC@?$AAF?$AAi?$AAl?$AAe?$AA?3?$AA?5?$AA?$AA@ 10079938     libucrt:assert.obj
 0002:00008948       ??_C@_06FIEBOLOH@Line?3?5?$AA@ 10079948     libucrt:assert.obj
 0002:00008950       ??_C@_1O@KCAFKHJE@?$AAL?$AAi?$AAn?$AAe?$AA?3?$AA?5?$AA?$AA@ 10079950     libucrt:assert.obj
 0002:00008960       ??_C@_0N@MEECIJGN@Expression?3?5?$AA@ 10079960     libucrt:assert.obj
 0002:00008970       ??_C@_1BK@PEDCIPMA@?$AAE?$AAx?$AAp?$AAr?$AAe?$AAs?$AAs?$AAi?$AAo?$AAn?$AA?3?$AA?5?$AA?$AA@ 10079970     libucrt:assert.obj
 0002:00008990       ??_C@_0HA@OJHAGA@For?5information?5on?5how?5your?5prog@ 10079990     libucrt:assert.obj
 0002:00008a18       ??_C@_1OA@EGMLFBHJ@?$AAF?$AAo?$AAr?$AA?5?$AAi?$AAn?$AAf?$AAo?$AAr?$AAm?$AAa?$AAt?$AAi?$AAo?$AAn?$AA?5?$AAo?$AAn?$AA?5?$AAh?$AAo?$AAw?$AA?5?$AAy?$AAo?$AAu?$AAr?$AA?5?$AAp?$AAr?$AAo?$AAg@ 10079a18     libucrt:assert.obj
 0002:00008b24       ??_C@_0DN@EBBNMLME@?$CIPress?5Retry?5to?5debug?5the?5applic@ 10079b24     libucrt:assert.obj
 0002:00008b70       ??_C@_1HK@POCJMFGK@?$AA?$CI?$AAP?$AAr?$AAe?$AAs?$AAs?$AA?5?$AAR?$AAe?$AAt?$AAr?$AAy?$AA?5?$AAt?$AAo?$AA?5?$AAd?$AAe?$AAb?$AAu?$AAg?$AA?5?$AAt?$AAh?$AAe?$AA?5?$AAa?$AAp?$AAp?$AAl?$AAi?$AAc@ 10079b70     libucrt:assert.obj
 0002:00008c04       ??_C@_03KHICJKCI@?4?4?4?$AA@ 10079c04     libucrt:assert.obj
 0002:00008c08       ??_C@_17LGKOMLJ@?$AA?4?$AA?4?$AA?4?$AA?$AA@ 10079c08     libucrt:assert.obj
 0002:00008c14       ??_C@_01EEMJAFIK@?6?$AA@   10079c14     libucrt:assert.obj
 0002:00008c18       ??_C@_13LBAGMAIH@?$AA?6?$AA?$AA@ 10079c18     libucrt:assert.obj
 0002:00008c1c       ??_C@_02PHMGELLB@?6?6?$AA@ 10079c1c     libucrt:assert.obj
 0002:00008c20       ??_C@_15IABLJNFO@?$AA?6?$AA?6?$AA?$AA@ 10079c20     libucrt:assert.obj
 0002:00008c28       ??_C@_0BH@DNAGHKFM@?$DMprogram?5name?5unknown?$DO?$AA@ 10079c28     libucrt:assert.obj
 0002:00008c44       ??_C@_1CO@EAEJAADC@?$AA?$DM?$AAp?$AAr?$AAo?$AAg?$AAr?$AAa?$AAm?$AA?5?$AAn?$AAa?$AAm?$AAe?$AA?5?$AAu?$AAn?$AAk?$AAn?$AAo?$AAw?$AAn?$AA?$DO?$AA?$AA@ 10079c44     libucrt:assert.obj
 0002:00008c7c       _RtlNtPathSeperatorString  10079c7c     libucrt:exit.obj
 0002:00008c88       ??_C@_13FPGAJAPJ@?$AA?2?$AA?$AA@ 10079c88     libucrt:exit.obj
 0002:00008c8c       _RtlDosPathSeperatorsString 10079c8c     libucrt:exit.obj
 0002:00008c98       ??_C@_15MNCACJLI@?$AA?2?$AA?1?$AA?$AA@ 10079c98     libucrt:exit.obj
 0002:00008ca0       _RtlAlternateDosPathSeperatorString 10079ca0     libucrt:exit.obj
 0002:00008cac       ??_C@_13CGOKJPIL@?$AA?1?$AA?$AA@ 10079cac     libucrt:exit.obj
 0002:00008cb0       ??_C@_1BI@BGOHAHKC@?$AAm?$AAs?$AAc?$AAo?$AAr?$AAe?$AAe?$AA?4?$AAd?$AAl?$AAl?$AA?$AA@ 10079cb0     libucrt:exit.obj
 0002:00008ccc       ??_C@_0P@MIGLKIOC@CorExitProcess?$AA@ 10079ccc     libucrt:exit.obj
 0002:00008ce0       _standard_lookup_table     10079ce0     libucrt:output.obj
 0002:00008d50       _format_validation_lookup_table 10079d50     libucrt:output.obj
 0002:00008dc0       ??_C@_1O@CEDCILHN@?$AA?$CI?$AAn?$AAu?$AAl?$AAl?$AA?$CJ?$AA?$AA@ 10079dc0     libucrt:output.obj
 0002:00008dd0       ??_C@_06OJHGLDPL@?$CInull?$CJ?$AA@ 10079dd0     libucrt:output.obj
 0002:00008ef0       ??_C@_03KHJOGHMM@exp?$AA@  10079ef0     libucrt:fpexcept.obj
 0002:00008ef4       ??_C@_03JGHBODFD@pow?$AA@  10079ef4     libucrt:fpexcept.obj
 0002:00008ef8       ??_C@_03MGHMBJCF@log?$AA@  10079ef8     libucrt:fpexcept.obj
 0002:00008efc       ??_C@_05HGHHAHAP@log10?$AA@ 10079efc     libucrt:fpexcept.obj
 0002:00008f04       ??_C@_04COOMCNPB@sinh?$AA@ 10079f04     libucrt:fpexcept.obj
 0002:00008f0c       ??_C@_04HPJJNFIM@cosh?$AA@ 10079f0c     libucrt:fpexcept.obj
 0002:00008f14       ??_C@_04FJHINJAO@tanh?$AA@ 10079f14     libucrt:fpexcept.obj
 0002:00008f1c       ??_C@_04FIHNOPOL@asin?$AA@ 10079f1c     libucrt:fpexcept.obj
 0002:00008f24       ??_C@_04PDIFKINK@acos?$AA@ 10079f24     libucrt:fpexcept.obj
 0002:00008f2c       ??_C@_04MLLJIGOK@atan?$AA@ 10079f2c     libucrt:fpexcept.obj
 0002:00008f34       ??_C@_05KNGEOGJB@atan2?$AA@ 10079f34     libucrt:fpexcept.obj
 0002:00008f3c       ??_C@_04EIAKFFMI@sqrt?$AA@ 10079f3c     libucrt:fpexcept.obj
 0002:00008f44       ??_C@_03BLEJJJBH@sin?$AA@  10079f44     libucrt:fpexcept.obj
 0002:00008f48       ??_C@_03LALBNOCG@cos?$AA@  10079f48     libucrt:fpexcept.obj
 0002:00008f4c       ??_C@_03IIINPABG@tan?$AA@  10079f4c     libucrt:fpexcept.obj
 0002:00008f50       ??_C@_04GFPJNGEK@ceil?$AA@ 10079f50     libucrt:fpexcept.obj
 0002:00008f58       ??_C@_05PBJFFIGL@floor?$AA@ 10079f58     libucrt:fpexcept.obj
 0002:00008f60       ??_C@_04ODHECPBC@fabs?$AA@ 10079f60     libucrt:fpexcept.obj
 0002:00008f68       ??_C@_04EHEDPDJG@modf?$AA@ 10079f68     libucrt:fpexcept.obj
 0002:00008f70       ??_C@_05CEJMAHNP@ldexp?$AA@ 10079f70     libucrt:fpexcept.obj
 0002:00008f78       ??_C@_05KBKMEMPO@_cabs?$AA@ 10079f78     libucrt:fpexcept.obj
 0002:00008f80       ??_C@_06MEIMCGCF@_hypot?$AA@ 10079f80     libucrt:fpexcept.obj
 0002:00008f88       ??_C@_04KEPJIHGP@fmod?$AA@ 10079f88     libucrt:fpexcept.obj
 0002:00008f90       ??_C@_05GKKHEGJL@frexp?$AA@ 10079f90     libucrt:fpexcept.obj
 0002:00008f98       ??_C@_03MJLDFKDL@_y0?$AA@  10079f98     libucrt:fpexcept.obj
 0002:00008f9c       ??_C@_03NAKIGLHK@_y1?$AA@  10079f9c     libucrt:fpexcept.obj
 0002:00008fa0       ??_C@_03ONILCKOB@_yn?$AA@  10079fa0     libucrt:fpexcept.obj
 0002:00008fa4       ??_C@_05JGDBENOH@_logb?$AA@ 10079fa4     libucrt:fpexcept.obj
 0002:00008fac       ??_C@_0L@KDOEJCKC@_nextafter?$AA@ 10079fac     libucrt:fpexcept.obj
 0002:00008fc0       ___acrt_exception_action_table 10079fc0     libucrt:exception_filter.obj
 0002:0000906c       ___acrt_signal_action_table_count 1007a06c     libucrt:exception_filter.obj
 0002:00009070       ___acrt_signal_action_table_size 1007a070     libucrt:exception_filter.obj
 0002:00009074       ___acrt_signal_action_first_fpe_index 1007a074     libucrt:exception_filter.obj
 0002:00009078       ___acrt_signal_action_fpe_count 1007a078     libucrt:exception_filter.obj
 0002:0000911c       __Fenv1                    1007a11c     libucrt:atox.obj
 0002:00009128       ??_C@_1DE@JNGNBFGO@?$AAR?$AAu?$AAn?$AAt?$AAi?$AAm?$AAe?$AA?5?$AAE?$AAr?$AAr?$AAo?$AAr?$AA?$CB?$AA?6?$AA?6?$AAP?$AAr?$AAo?$AAg?$AAr?$AAa?$AAm?$AA?3?$AA?5?$AA?$AA@ 1007a128     libucrt:report_runtime_error.obj
 0002:00009370       ??_C@_1EA@JGEFHKEI@?$AAa?$AAp?$AAi?$AA?9?$AAm?$AAs?$AA?9?$AAw?$AAi?$AAn?$AA?9?$AAc?$AAo?$AAr?$AAe?$AA?9?$AAd?$AAa?$AAt?$AAe?$AAt?$AAi?$AAm?$AAe?$AA?9?$AAl?$AA1?$AA?9?$AA1?$AA?9?$AA1?$AA?$AA@ 1007a370     libucrt:winapi_thunks.obj
 0002:000093bc       ??_C@_1DM@KHCHBNEB@?$AAa?$AAp?$AAi?$AA?9?$AAm?$AAs?$AA?9?$AAw?$AAi?$AAn?$AA?9?$AAc?$AAo?$AAr?$AAe?$AA?9?$AAf?$AAi?$AAb?$AAe?$AAr?$AAs?$AA?9?$AAl?$AA1?$AA?9?$AA1?$AA?9?$AA1?$AA?$AA@ 1007a3bc     libucrt:winapi_thunks.obj
 0002:00009404       ??_C@_1DI@IJCEHOCB@?$AAa?$AAp?$AAi?$AA?9?$AAm?$AAs?$AA?9?$AAw?$AAi?$AAn?$AA?9?$AAc?$AAo?$AAr?$AAe?$AA?9?$AAf?$AAi?$AAl?$AAe?$AA?9?$AAl?$AA1?$AA?9?$AA2?$AA?9?$AA2?$AA?$AA@ 1007a404     libucrt:winapi_thunks.obj
 0002:00009448       ??_C@_1EI@MPIAOHOC@?$AAa?$AAp?$AAi?$AA?9?$AAm?$AAs?$AA?9?$AAw?$AAi?$AAn?$AA?9?$AAc?$AAo?$AAr?$AAe?$AA?9?$AAl?$AAo?$AAc?$AAa?$AAl?$AAi?$AAz?$AAa?$AAt?$AAi?$AAo?$AAn?$AA?9?$AAl?$AA1?$AA?9@ 1007a448     libucrt:winapi_thunks.obj
 0002:000094a0       ??_C@_1FK@FPHCKFIE@?$AAa?$AAp?$AAi?$AA?9?$AAm?$AAs?$AA?9?$AAw?$AAi?$AAn?$AA?9?$AAc?$AAo?$AAr?$AAe?$AA?9?$AAl?$AAo?$AAc?$AAa?$AAl?$AAi?$AAz?$AAa?$AAt?$AAi?$AAo?$AAn?$AA?9?$AAo?$AAb?$AAs@ 1007a4a0     libucrt:winapi_thunks.obj
 0002:00009510       ??_C@_1EM@DILCGIIO@?$AAa?$AAp?$AAi?$AA?9?$AAm?$AAs?$AA?9?$AAw?$AAi?$AAn?$AA?9?$AAc?$AAo?$AAr?$AAe?$AA?9?$AAp?$AAr?$AAo?$AAc?$AAe?$AAs?$AAs?$AAt?$AAh?$AAr?$AAe?$AAa?$AAd?$AAs?$AA?9?$AAl@ 1007a510     libucrt:winapi_thunks.obj
 0002:0000956c       ??_C@_1DM@LNCGDDPN@?$AAa?$AAp?$AAi?$AA?9?$AAm?$AAs?$AA?9?$AAw?$AAi?$AAn?$AA?9?$AAc?$AAo?$AAr?$AAe?$AA?9?$AAs?$AAt?$AAr?$AAi?$AAn?$AAg?$AA?9?$AAl?$AA1?$AA?9?$AA1?$AA?9?$AA0?$AA?$AA@ 1007a56c     libucrt:winapi_thunks.obj
 0002:000095b4       ??_C@_1DK@LPPGFMPP@?$AAa?$AAp?$AAi?$AA?9?$AAm?$AAs?$AA?9?$AAw?$AAi?$AAn?$AA?9?$AAc?$AAo?$AAr?$AAe?$AA?9?$AAs?$AAy?$AAn?$AAc?$AAh?$AA?9?$AAl?$AA1?$AA?9?$AA2?$AA?9?$AA0?$AA?$AA@ 1007a5b4     libucrt:winapi_thunks.obj
 0002:000095fc       ??_C@_1DO@FPAPJEMD@?$AAa?$AAp?$AAi?$AA?9?$AAm?$AAs?$AA?9?$AAw?$AAi?$AAn?$AA?9?$AAc?$AAo?$AAr?$AAe?$AA?9?$AAs?$AAy?$AAs?$AAi?$AAn?$AAf?$AAo?$AA?9?$AAl?$AA1?$AA?9?$AA2?$AA?9?$AA1?$AA?$AA@ 1007a5fc     libucrt:winapi_thunks.obj
 0002:00009648       ??_C@_1DK@NDHNAHIO@?$AAa?$AAp?$AAi?$AA?9?$AAm?$AAs?$AA?9?$AAw?$AAi?$AAn?$AA?9?$AAc?$AAo?$AAr?$AAe?$AA?9?$AAw?$AAi?$AAn?$AAr?$AAt?$AA?9?$AAl?$AA1?$AA?9?$AA1?$AA?9?$AA0?$AA?$AA@ 1007a648     libucrt:winapi_thunks.obj
 0002:00009690       ??_C@_1DM@KGHDGBCM@?$AAa?$AAp?$AAi?$AA?9?$AAm?$AAs?$AA?9?$AAw?$AAi?$AAn?$AA?9?$AAc?$AAo?$AAr?$AAe?$AA?9?$AAx?$AAs?$AAt?$AAa?$AAt?$AAe?$AA?9?$AAl?$AA2?$AA?9?$AA1?$AA?9?$AA0?$AA?$AA@ 1007a690     libucrt:winapi_thunks.obj
 0002:000096d8       ??_C@_1EO@IJIOEFOH@?$AAa?$AAp?$AAi?$AA?9?$AAm?$AAs?$AA?9?$AAw?$AAi?$AAn?$AA?9?$AAr?$AAt?$AAc?$AAo?$AAr?$AAe?$AA?9?$AAn?$AAt?$AAu?$AAs?$AAe?$AAr?$AA?9?$AAw?$AAi?$AAn?$AAd?$AAo?$AAw?$AA?9@ 1007a6d8     libucrt:winapi_thunks.obj
 0002:00009738       ??_C@_1FG@HHGEKANL@?$AAa?$AAp?$AAi?$AA?9?$AAm?$AAs?$AA?9?$AAw?$AAi?$AAn?$AA?9?$AAs?$AAe?$AAc?$AAu?$AAr?$AAi?$AAt?$AAy?$AA?9?$AAs?$AAy?$AAs?$AAt?$AAe?$AAm?$AAf?$AAu?$AAn?$AAc?$AAt?$AAi@ 1007a738     libucrt:winapi_thunks.obj
 0002:000097a0       ??_C@_1EG@DBIOJECG@?$AAe?$AAx?$AAt?$AA?9?$AAm?$AAs?$AA?9?$AAw?$AAi?$AAn?$AA?9?$AAn?$AAt?$AAu?$AAs?$AAe?$AAr?$AA?9?$AAd?$AAi?$AAa?$AAl?$AAo?$AAg?$AAb?$AAo?$AAx?$AA?9?$AAl?$AA1?$AA?9?$AA1@ 1007a7a0     libucrt:winapi_thunks.obj
 0002:000097f8       ??_C@_1EO@FIHMJCLF@?$AAe?$AAx?$AAt?$AA?9?$AAm?$AAs?$AA?9?$AAw?$AAi?$AAn?$AA?9?$AAn?$AAt?$AAu?$AAs?$AAe?$AAr?$AA?9?$AAw?$AAi?$AAn?$AAd?$AAo?$AAw?$AAs?$AAt?$AAa?$AAt?$AAi?$AAo?$AAn?$AA?9@ 1007a7f8     libucrt:winapi_thunks.obj
 0002:00009858       ??_C@_1BC@DNHGCMLG@?$AAa?$AAd?$AAv?$AAa?$AAp?$AAi?$AA3?$AA2?$AA?$AA@ 1007a858     libucrt:winapi_thunks.obj
 0002:00009870       ??_C@_1BC@GDMECMAK@?$AAk?$AAe?$AAr?$AAn?$AAe?$AAl?$AA3?$AA2?$AA?$AA@ 1007a870     libucrt:winapi_thunks.obj
 0002:00009888       ??_C@_1M@OAIMIKLP@?$AAn?$AAt?$AAd?$AAl?$AAl?$AA?$AA@ 1007a888     libucrt:winapi_thunks.obj
 0002:00009898       ??_C@_1EG@DPGNFKGC@?$AAa?$AAp?$AAi?$AA?9?$AAm?$AAs?$AA?9?$AAw?$AAi?$AAn?$AA?9?$AAa?$AAp?$AAp?$AAm?$AAo?$AAd?$AAe?$AAl?$AA?9?$AAr?$AAu?$AAn?$AAt?$AAi?$AAm?$AAe?$AA?9?$AAl?$AA1?$AA?9?$AA1@ 1007a898     libucrt:winapi_thunks.obj
 0002:000098ec       ??_C@_1O@BCCLBEOE@?$AAu?$AAs?$AAe?$AAr?$AA3?$AA2?$AA?$AA@ 1007a8ec     libucrt:winapi_thunks.obj
 0002:000098fc       ??_C@_1BA@PFFKHIOG@?$AAa?$AAp?$AAi?$AA?9?$AAm?$AAs?$AA?9?$AA?$AA@ 1007a8fc     libucrt:winapi_thunks.obj
 0002:00009910       ??_C@_1BA@IAIFMGEF@?$AAe?$AAx?$AAt?$AA?9?$AAm?$AAs?$AA?9?$AA?$AA@ 1007a910     libucrt:winapi_thunks.obj
 0002:00009928       ??_C@_0BA@FHFNEAED@AreFileApisANSI?$AA@ 1007a928     libucrt:winapi_thunks.obj
 0002:00009948       ??_C@_0BA@IHGNDAEB@CompareStringEx?$AA@ 1007a948     libucrt:winapi_thunks.obj
 0002:00009968       ??_C@_0BE@LJANKFHF@EnumSystemLocalesEx?$AA@ 1007a968     libucrt:winapi_thunks.obj
 0002:0000998c       ??_C@_08KNHFBNJ@FlsAlloc?$AA@ 1007a98c     libucrt:winapi_thunks.obj
 0002:000099a4       ??_C@_07PEJMOBNF@FlsFree?$AA@ 1007a9a4     libucrt:winapi_thunks.obj
 0002:000099bc       ??_C@_0M@GDNOONDI@FlsGetValue?$AA@ 1007a9bc     libucrt:winapi_thunks.obj
 0002:000099d8       ??_C@_0M@JCPCPOEF@FlsSetValue?$AA@ 1007a9d8     libucrt:winapi_thunks.obj
 0002:000099f4       ??_C@_0BA@HNOPNCHB@GetActiveWindow?$AA@ 1007a9f4     libucrt:winapi_thunks.obj
 0002:00009a14       ??_C@_0BA@EPCJIIPD@GetDateFormatEx?$AA@ 1007aa14     libucrt:winapi_thunks.obj
 0002:00009a34       ??_C@_0BJ@DIBIJBHA@GetEnabledXStateFeatures?$AA@ 1007aa34     libucrt:winapi_thunks.obj
 0002:00009a60       ??_C@_0BD@HHGDFDBJ@GetLastActivePopup?$AA@ 1007aa60     libucrt:winapi_thunks.obj
 0002:00009a84       ??_C@_0BA@ONOKGCMP@GetLocaleInfoEx?$AA@ 1007aa84     libucrt:winapi_thunks.obj
 0002:00009aa4       ??_C@_0BI@DFKBFLJE@GetProcessWindowStation?$AA@ 1007aaa4     libucrt:winapi_thunks.obj
 0002:00009ac4       ??_C@_0BP@FPNJPEJC@GetSystemTimePreciseAsFileTime?$AA@ 1007aac4     libucrt:winapi_thunks.obj
 0002:00009af8       ??_C@_0BA@CIJJKCJJ@GetTimeFormatEx?$AA@ 1007aaf8     libucrt:winapi_thunks.obj
 0002:00009b18       ??_C@_0BJ@PBCCBIPI@GetUserDefaultLocaleName?$AA@ 1007ab18     libucrt:winapi_thunks.obj
 0002:00009b44       ??_C@_0BK@DEKFELLI@GetUserObjectInformationW?$AA@ 1007ab44     libucrt:winapi_thunks.obj
 0002:00009b70       ??_C@_0BG@IKLDMBLM@GetXStateFeaturesMask?$AA@ 1007ab70     libucrt:winapi_thunks.obj
 0002:00009b98       ??_C@_0BM@HCFOFFN@InitializeCriticalSectionEx?$AA@ 1007ab98     libucrt:winapi_thunks.obj
 0002:00009bc8       ??_C@_0BC@CELBKLLA@IsValidLocaleName?$AA@ 1007abc8     libucrt:winapi_thunks.obj
 0002:00009bec       ??_C@_0O@KKBNKAPF@LCMapStringEx?$AA@ 1007abec     libucrt:winapi_thunks.obj
 0002:00009c08       ??_C@_0BB@CDHDDLLP@LCIDToLocaleName?$AA@ 1007ac08     libucrt:winapi_thunks.obj
 0002:00009c28       ??_C@_0BB@HBDEELFH@LocaleNameToLCID?$AA@ 1007ac28     libucrt:winapi_thunks.obj
 0002:00009c48       ??_C@_0BE@KINNKFDA@LocateXStateFeature?$AA@ 1007ac48     libucrt:winapi_thunks.obj
 0002:00009c6c       ??_C@_0M@CHKKJDAI@MessageBoxA?$AA@ 1007ac6c     libucrt:winapi_thunks.obj
 0002:00009c88       ??_C@_0M@DLDCCGNP@MessageBoxW?$AA@ 1007ac88     libucrt:winapi_thunks.obj
 0002:00009c9c       ??_C@_0N@PPOMPGGK@RoInitialize?$AA@ 1007ac9c     libucrt:winapi_thunks.obj
 0002:00009cb0       ??_C@_0P@LLFHBIJD@RoUninitialize?$AA@ 1007acb0     libucrt:winapi_thunks.obj
 0002:00009cc8       ??_C@_0CF@OJOFEIGO@AppPolicyGetProcessTerminationMe@ 1007acc8     libucrt:winapi_thunks.obj
 0002:00009cf8       ??_C@_0CF@NNDFDCOC@AppPolicyGetThreadInitialization@ 1007acf8     libucrt:winapi_thunks.obj
 0002:00009d28       ??_C@_0CE@OICFMIKE@AppPolicyGetShowDeveloperDiagnos@ 1007ad28     libucrt:winapi_thunks.obj
 0002:00009d58       ??_C@_0BL@ODDJNEDA@AppPolicyGetWindowingModel?$AA@ 1007ad58     libucrt:winapi_thunks.obj
 0002:00009d84       ??_C@_0BI@BKLFFAPO@SetThreadStackGuarantee?$AA@ 1007ad84     libucrt:winapi_thunks.obj
 0002:00009dac       ??_C@_0BC@JEAENNKH@SystemFunction036?$AA@ 1007adac     libucrt:winapi_thunks.obj
 0002:00009dc4       ?ccs@?1???$__acrt_stdio_parse_mode@D@@YA?AU__acrt_stdio_stream_mode@@QBD@Z@4QBDB 1007adc4     libucrt:openfile.obj
 0002:00009dc8       ?utf8_encoding@?1???$__acrt_stdio_parse_mode@D@@YA?AU__acrt_stdio_stream_mode@@QBD@Z@4QBDB 1007adc8     libucrt:openfile.obj
 0002:00009dd0       ?utf16_encoding@?1???$__acrt_stdio_parse_mode@D@@YA?AU__acrt_stdio_stream_mode@@QBD@Z@4QBDB 1007add0     libucrt:openfile.obj
 0002:00009ddc       ?unicode_encoding@?1???$__acrt_stdio_parse_mode@D@@YA?AU__acrt_stdio_stream_mode@@QBD@Z@4QBDB 1007addc     libucrt:openfile.obj
 0002:00009de4       ?ccs@?1???$__acrt_stdio_parse_mode@_W@@YA?AU__acrt_stdio_stream_mode@@QB_W@Z@4QB_WB 1007ade4     libucrt:openfile.obj
 0002:00009dec       ?utf8_encoding@?1???$__acrt_stdio_parse_mode@_W@@YA?AU__acrt_stdio_stream_mode@@QB_W@Z@4QB_WB 1007adec     libucrt:openfile.obj
 0002:00009df8       ?utf16_encoding@?1???$__acrt_stdio_parse_mode@_W@@YA?AU__acrt_stdio_stream_mode@@QB_W@Z@4QB_WB 1007adf8     libucrt:openfile.obj
 0002:00009e0c       ?unicode_encoding@?1???$__acrt_stdio_parse_mode@_W@@YA?AU__acrt_stdio_stream_mode@@QB_W@Z@4QB_WB 1007ae0c     libucrt:openfile.obj
 0002:00009eb8       ___lc_category             1007aeb8     libucrt:wsetlocale.obj
 0002:00009f10       ??_C@_1O@GIFLHMA@?$AAL?$AAC?$AA_?$AAA?$AAL?$AAL?$AA?$AA@ 1007af10     libucrt:wsetlocale.obj
 0002:00009f20       ??_C@_1BG@PPOMIBNJ@?$AAL?$AAC?$AA_?$AAC?$AAO?$AAL?$AAL?$AAA?$AAT?$AAE?$AA?$AA@ 1007af20     libucrt:wsetlocale.obj
 0002:00009f3c       ??_C@_1BC@FFJGAPJM@?$AAL?$AAC?$AA_?$AAC?$AAT?$AAY?$AAP?$AAE?$AA?$AA@ 1007af3c     libucrt:wsetlocale.obj
 0002:00009f54       ??_C@_1BI@PCKFNJFB@?$AAL?$AAC?$AA_?$AAM?$AAO?$AAN?$AAE?$AAT?$AAA?$AAR?$AAY?$AA?$AA@ 1007af54     libucrt:wsetlocale.obj
 0002:00009f70       ??_C@_1BG@ENIEDKID@?$AAL?$AAC?$AA_?$AAN?$AAU?$AAM?$AAE?$AAR?$AAI?$AAC?$AA?$AA@ 1007af70     libucrt:wsetlocale.obj
 0002:00009f8c       ??_C@_1BA@HAAOMIIG@?$AAL?$AAC?$AA_?$AAT?$AAI?$AAM?$AAE?$AA?$AA@ 1007af8c     libucrt:wsetlocale.obj
 0002:00009fa0       ??_C@_15NBPDDFIP@?$AA?$DN?$AA?$DL?$AA?$AA@ 1007afa0     libucrt:wsetlocale.obj
 0002:00009fa8       ??_C@_13PJJBFPED@?$AA?$DL?$AA?$AA@ 1007afa8     libucrt:wsetlocale.obj
 0002:00009fac       ??_C@_13NMPKAAJP@?$AA?$DN?$AA?$AA@ 1007afac     libucrt:wsetlocale.obj
 0002:00009fb0       ??_C@_13FHBKNHDA@?$AAC?$AA?$AA@ 1007afb0     libucrt:wsetlocale.obj
 0002:00009fb4       ??_C@_19MPDNHKDG@?$AAu?$AAt?$AAf?$AA8?$AA?$AA@ 1007afb4     libucrt:wsetlocale.obj
 0002:00009fc0       ??_C@_1M@FPEIIFAM@?$AAu?$AAt?$AAf?$AA?9?$AA8?$AA?$AA@ 1007afc0     libucrt:wsetlocale.obj
 0002:00009fd0       ??_C@_17MBJJLFDM@?$AA_?$AA?4?$AA?0?$AA?$AA@ 1007afd0     libucrt:wsetlocale.obj
 0002:00009fdc       ??_C@_13ENNFDPBH@?$AA_?$AA?$AA@ 1007afdc     libucrt:wsetlocale.obj
 0002:00009fe0       ??_C@_13JOFGPIOO@?$AA?4?$AA?$AA@ 1007afe0     libucrt:wsetlocale.obj
 0002:00009fe8       ___lc_time_c               1007afe8     libucrt:nlsdata.obj
 0002:0000a194       ??_C@_03KOEHGMDN@Sun?$AA@  1007b194     libucrt:nlsdata.obj
 0002:0000a198       ??_C@_03PDAGKDH@Mon?$AA@   1007b198     libucrt:nlsdata.obj
 0002:0000a19c       ??_C@_03NAGEINEP@Tue?$AA@  1007b19c     libucrt:nlsdata.obj
 0002:0000a1a0       ??_C@_03MHOMLAJA@Wed?$AA@  1007b1a0     libucrt:nlsdata.obj
 0002:0000a1a4       ??_C@_03IOFIKPDN@Thu?$AA@  1007b1a4     libucrt:nlsdata.obj
 0002:0000a1a8       ??_C@_03IDIOELNC@Fri?$AA@  1007b1a8     libucrt:nlsdata.obj
 0002:0000a1ac       ??_C@_03FEFJNEK@Sat?$AA@   1007b1ac     libucrt:nlsdata.obj
 0002:0000a1b0       ??_C@_06OOPIFAJ@Sunday?$AA@ 1007b1b0     libucrt:nlsdata.obj
 0002:0000a1b8       ??_C@_06JLEDEDGH@Monday?$AA@ 1007b1b8     libucrt:nlsdata.obj
 0002:0000a1c0       ??_C@_07BAAGCFCM@Tuesday?$AA@ 1007b1c0     libucrt:nlsdata.obj
 0002:0000a1cc       ??_C@_09DLIGFAKA@Wednesday?$AA@ 1007b1cc     libucrt:nlsdata.obj
 0002:0000a1d8       ??_C@_08HACCIKIA@Thursday?$AA@ 1007b1d8     libucrt:nlsdata.obj
 0002:0000a1e4       ??_C@_06JECMNKMI@Friday?$AA@ 1007b1e4     libucrt:nlsdata.obj
 0002:0000a1ec       ??_C@_08INBOOONO@Saturday?$AA@ 1007b1ec     libucrt:nlsdata.obj
 0002:0000a1f8       ??_C@_03JIHJHPIE@Jan?$AA@  1007b1f8     libucrt:nlsdata.obj
 0002:0000a1fc       ??_C@_03HJBDCHOM@Feb?$AA@  1007b1fc     libucrt:nlsdata.obj
 0002:0000a200       ??_C@_03ODNJBKGA@Mar?$AA@  1007b200     libucrt:nlsdata.obj
 0002:0000a204       ??_C@_03LEOLGMJP@Apr?$AA@  1007b204     libucrt:nlsdata.obj
 0002:0000a208       ??_C@_03CNMDKL@May?$AA@    1007b208     libucrt:nlsdata.obj
 0002:0000a20c       ??_C@_03IDFGHECI@Jun?$AA@  1007b20c     libucrt:nlsdata.obj
 0002:0000a210       ??_C@_03LBGABGKK@Jul?$AA@  1007b210     libucrt:nlsdata.obj
 0002:0000a214       ??_C@_03IFJFEIGA@Aug?$AA@  1007b214     libucrt:nlsdata.obj
 0002:0000a218       ??_C@_03GGCAPAJC@Sep?$AA@  1007b218     libucrt:nlsdata.obj
 0002:0000a21c       ??_C@_03BMAOKBAD@Oct?$AA@  1007b21c     libucrt:nlsdata.obj
 0002:0000a220       ??_C@_03JPJOFNIA@Nov?$AA@  1007b220     libucrt:nlsdata.obj
 0002:0000a224       ??_C@_03MKABNOCG@Dec?$AA@  1007b224     libucrt:nlsdata.obj
 0002:0000a228       ??_C@_07CGJPFGJA@January?$AA@ 1007b228     libucrt:nlsdata.obj
 0002:0000a234       ??_C@_08GNJGEPFN@February?$AA@ 1007b234     libucrt:nlsdata.obj
 0002:0000a240       ??_C@_05HPCKOFNC@March?$AA@ 1007b240     libucrt:nlsdata.obj
 0002:0000a248       ??_C@_05DMJDNLEJ@April?$AA@ 1007b248     libucrt:nlsdata.obj
 0002:0000a250       ??_C@_04CNLMGBGM@June?$AA@ 1007b250     libucrt:nlsdata.obj
 0002:0000a258       ??_C@_04MIEPOIFP@July?$AA@ 1007b258     libucrt:nlsdata.obj
 0002:0000a260       ??_C@_06LBBHFDDG@August?$AA@ 1007b260     libucrt:nlsdata.obj
 0002:0000a268       ??_C@_09BHHEALKD@September?$AA@ 1007b268     libucrt:nlsdata.obj
 0002:0000a274       ??_C@_07JJNFCEND@October?$AA@ 1007b274     libucrt:nlsdata.obj
 0002:0000a280       ??_C@_08HCHEGEOA@November?$AA@ 1007b280     libucrt:nlsdata.obj
 0002:0000a28c       ??_C@_08EDHMEBNP@December?$AA@ 1007b28c     libucrt:nlsdata.obj
 0002:0000a298       ??_C@_02DEDBPAFC@AM?$AA@   1007b298     libucrt:nlsdata.obj
 0002:0000a29c       ??_C@_02CJNFDJBF@PM?$AA@   1007b29c     libucrt:nlsdata.obj
 0002:0000a2a0       ??_C@_08BPBNCDIB@MM?1dd?1yy?$AA@ 1007b2a0     libucrt:nlsdata.obj
 0002:0000a2ac       ??_C@_0BE@CKGJFCPC@dddd?0?5MMMM?5dd?0?5yyyy?$AA@ 1007b2ac     libucrt:nlsdata.obj
 0002:0000a2c4       ??_C@_08JCCMCCIL@HH?3mm?3ss?$AA@ 1007b2c4     libucrt:nlsdata.obj
 0002:0000a2d0       ??_C@_17MBGCMIPB@?$AAS?$AAu?$AAn?$AA?$AA@ 1007b2d0     libucrt:nlsdata.obj
 0002:0000a2dc       ??_C@_17KBOMKBF@?$AAM?$AAo?$AAn?$AA?$AA@ 1007b2dc     libucrt:nlsdata.obj
 0002:0000a2e8       ??_C@_17BMKGEGOJ@?$AAT?$AAu?$AAe?$AA?$AA@ 1007b2e8     libucrt:nlsdata.obj
 0002:0000a2f4       ??_C@_17CJEDCEPE@?$AAW?$AAe?$AAd?$AA?$AA@ 1007b2f4     libucrt:nlsdata.obj
 0002:0000a300       ??_C@_17PDPHAADD@?$AAT?$AAh?$AAu?$AA?$AA@ 1007b300     libucrt:nlsdata.obj
 0002:0000a30c       ??_C@_17HFOLPPLP@?$AAF?$AAr?$AAi?$AA?$AA@ 1007b30c     libucrt:nlsdata.obj
 0002:0000a318       ??_C@_17GGIBDPIH@?$AAS?$AAa?$AAt?$AA?$AA@ 1007b318     libucrt:nlsdata.obj
 0002:0000a324       ??_C@_1O@IHNHDHPB@?$AAS?$AAu?$AAn?$AAd?$AAa?$AAy?$AA?$AA@ 1007b324     libucrt:nlsdata.obj
 0002:0000a334       ??_C@_1O@MMNBFLIA@?$AAM?$AAo?$AAn?$AAd?$AAa?$AAy?$AA?$AA@ 1007b334     libucrt:nlsdata.obj
 0002:0000a344       ??_C@_1BA@ENFBFFEK@?$AAT?$AAu?$AAe?$AAs?$AAd?$AAa?$AAy?$AA?$AA@ 1007b344     libucrt:nlsdata.obj
 0002:0000a358       ??_C@_1BE@EBOGMDOH@?$AAW?$AAe?$AAd?$AAn?$AAe?$AAs?$AAd?$AAa?$AAy?$AA?$AA@ 1007b358     libucrt:nlsdata.obj
 0002:0000a370       ??_C@_1BC@HHMNLIHE@?$AAT?$AAh?$AAu?$AAr?$AAs?$AAd?$AAa?$AAy?$AA?$AA@ 1007b370     libucrt:nlsdata.obj
 0002:0000a388       ??_C@_1O@PDICJHAG@?$AAF?$AAr?$AAi?$AAd?$AAa?$AAy?$AA?$AA@ 1007b388     libucrt:nlsdata.obj
 0002:0000a398       ??_C@_1BC@ENMNNPAJ@?$AAS?$AAa?$AAt?$AAu?$AAr?$AAd?$AAa?$AAy?$AA?$AA@ 1007b398     libucrt:nlsdata.obj
 0002:0000a3b0       ??_C@_17DKNBKCHM@?$AAJ?$AAa?$AAn?$AA?$AA@ 1007b3b0     libucrt:nlsdata.obj
 0002:0000a3bc       ??_C@_17LMDJEKJN@?$AAF?$AAe?$AAb?$AA?$AA@ 1007b3bc     libucrt:nlsdata.obj
 0002:0000a3c8       ??_C@_17CKNLEDEC@?$AAM?$AAa?$AAr?$AA?$AA@ 1007b3c8     libucrt:nlsdata.obj
 0002:0000a3d4       ??_C@_17LFPOIHDD@?$AAA?$AAp?$AAr?$AA?$AA@ 1007b3d4     libucrt:nlsdata.obj
 0002:0000a3e0       ??_C@_17PNNKMEED@?$AAM?$AAa?$AAy?$AA?$AA@ 1007b3e0     libucrt:nlsdata.obj
 0002:0000a3ec       ??_C@_17KCJGOCPB@?$AAJ?$AAu?$AAn?$AA?$AA@ 1007b3ec     libucrt:nlsdata.obj
 0002:0000a3f8       ??_C@_17IJPCKHK@?$AAJ?$AAu?$AAl?$AA?$AA@ 1007b3f8     libucrt:nlsdata.obj
 0002:0000a404       ??_C@_17ICPELBCN@?$AAA?$AAu?$AAg?$AA?$AA@ 1007b404     libucrt:nlsdata.obj
 0002:0000a410       ??_C@_17HCHCOKMG@?$AAS?$AAe?$AAp?$AA?$AA@ 1007b410     libucrt:nlsdata.obj
 0002:0000a41c       ??_C@_17FNLKOI@?$AAO?$AAc?$AAt?$AA?$AA@ 1007b41c     libucrt:nlsdata.obj
 0002:0000a428       ??_C@_17BBDMLCIG@?$AAN?$AAo?$AAv?$AA?$AA@ 1007b428     libucrt:nlsdata.obj
 0002:0000a434       ??_C@_17EGKACKIF@?$AAD?$AAe?$AAc?$AA?$AA@ 1007b434     libucrt:nlsdata.obj
 0002:0000a440       ??_C@_1BA@EFMEIEBA@?$AAJ?$AAa?$AAn?$AAu?$AAa?$AAr?$AAy?$AA?$AA@ 1007b440     libucrt:nlsdata.obj
 0002:0000a454       ??_C@_1BC@JGDDFFAM@?$AAF?$AAe?$AAb?$AAr?$AAu?$AAa?$AAr?$AAy?$AA?$AA@ 1007b454     libucrt:nlsdata.obj
 0002:0000a46c       ??_C@_1M@IKEENEDF@?$AAM?$AAa?$AAr?$AAc?$AAh?$AA?$AA@ 1007b46c     libucrt:nlsdata.obj
 0002:0000a47c       ??_C@_1M@GJNLMHFD@?$AAA?$AAp?$AAr?$AAi?$AAl?$AA?$AA@ 1007b47c     libucrt:nlsdata.obj
 0002:0000a48c       ??_C@_19EPFLPGAP@?$AAJ?$AAu?$AAn?$AAe?$AA?$AA@ 1007b48c     libucrt:nlsdata.obj
 0002:0000a498       ??_C@_19BIFMLPCD@?$AAJ?$AAu?$AAl?$AAy?$AA?$AA@ 1007b498     libucrt:nlsdata.obj
 0002:0000a4a4       ??_C@_1O@PAHLKOAC@?$AAA?$AAu?$AAg?$AAu?$AAs?$AAt?$AA?$AA@ 1007b4a4     libucrt:nlsdata.obj
 0002:0000a4b4       ??_C@_1BE@DKAAMBJL@?$AAS?$AAe?$AAp?$AAt?$AAe?$AAm?$AAb?$AAe?$AAr?$AA?$AA@ 1007b4b4     libucrt:nlsdata.obj
 0002:0000a4cc       ??_C@_1BA@EPANDLNG@?$AAO?$AAc?$AAt?$AAo?$AAb?$AAe?$AAr?$AA?$AA@ 1007b4cc     libucrt:nlsdata.obj
 0002:0000a4e0       ??_C@_1BC@BGLIFPF@?$AAN?$AAo?$AAv?$AAe?$AAm?$AAb?$AAe?$AAr?$AA?$AA@ 1007b4e0     libucrt:nlsdata.obj
 0002:0000a4f8       ??_C@_1BC@FEMKIFH@?$AAD?$AAe?$AAc?$AAe?$AAm?$AAb?$AAe?$AAr?$AA?$AA@ 1007b4f8     libucrt:nlsdata.obj
 0002:0000a510       ??_C@_15ODEHAHHF@?$AAA?$AAM?$AA?$AA@ 1007b510     libucrt:nlsdata.obj
 0002:0000a518       ??_C@_15CLMNNGEL@?$AAP?$AAM?$AA?$AA@ 1007b518     libucrt:nlsdata.obj
 0002:0000a520       ??_C@_1BC@IEBCMHCM@?$AAM?$AAM?$AA?1?$AAd?$AAd?$AA?1?$AAy?$AAy?$AA?$AA@ 1007b520     libucrt:nlsdata.obj
 0002:0000a538       ??_C@_1CI@KNAKOEBC@?$AAd?$AAd?$AAd?$AAd?$AA?0?$AA?5?$AAM?$AAM?$AAM?$AAM?$AA?5?$AAd?$AAd?$AA?0?$AA?5?$AAy?$AAy?$AAy?$AAy?$AA?$AA@ 1007b538     libucrt:nlsdata.obj
 0002:0000a568       ??_C@_1BC@GDGBMEMK@?$AAH?$AAH?$AA?3?$AAm?$AAm?$AA?3?$AAs?$AAs?$AA?$AA@ 1007b568     libucrt:nlsdata.obj
 0002:0000a580       ??_C@_1M@BMHNFIME@?$AAe?$AAn?$AA?9?$AAU?$AAS?$AA?$AA@ 1007b580     libucrt:nlsdata.obj
 0002:0000a590       ??_C@_03OEIAHPBN@INF?$AA@  1007b590     libucrt:cvt.obj
 0002:0000a594       ??_C@_03OJHLLCGB@inf?$AA@  1007b594     libucrt:cvt.obj
 0002:0000a598       ??_C@_03LKNCIKJB@NAN?$AA@  1007b598     libucrt:cvt.obj
 0002:0000a59c       ??_C@_03LHCJEHON@nan?$AA@  1007b59c     libucrt:cvt.obj
 0002:0000a5a0       ??_C@_09OFJJIMPC@NAN?$CISNAN?$CJ?$AA@ 1007b5a0     libucrt:cvt.obj
 0002:0000a5ac       ??_C@_09IPFBKMDL@nan?$CIsnan?$CJ?$AA@ 1007b5ac     libucrt:cvt.obj
 0002:0000a5b8       ??_C@_08IKHNHAJ@NAN?$CIIND?$CJ?$AA@ 1007b5b8     libucrt:cvt.obj
 0002:0000a5c4       ??_C@_08OFCDMILK@nan?$CIind?$CJ?$AA@ 1007b5c4     libucrt:cvt.obj
 0002:0000a5d0       ??_C@_05KLBDPFGC@e?$CL000?$AA@ 1007b5d0     libucrt:cvt.obj
 0002:0000a5d8       __d_inf                    1007b5d8     libucrt:util.obj
 0002:0000a5e8       __d_ind                    1007b5e8     libucrt:util.obj
 0002:0000a5f8       __d_max                    1007b5f8     libucrt:util.obj
 0002:0000a608       __d_min                    1007b608     libucrt:util.obj
 0002:0000a618       __d_mzero                  1007b618     libucrt:util.obj
 0002:0000a658       ??_C@_1M@HPNHIDJI@?$AAj?$AAa?$AA?9?$AAJ?$AAP?$AA?$AA@ 1007b658     libucrt:mbctype.obj
 0002:0000a668       ??_C@_1M@BIBDDEMK@?$AAz?$AAh?$AA?9?$AAC?$AAN?$AA?$AA@ 1007b668     libucrt:mbctype.obj
 0002:0000a678       ??_C@_1M@JLOOOEGK@?$AAk?$AAo?$AA?9?$AAK?$AAR?$AA?$AA@ 1007b678     libucrt:mbctype.obj
 0002:0000a688       ??_C@_1M@CLNBBOPM@?$AAz?$AAh?$AA?9?$AAT?$AAW?$AA?$AA@ 1007b688     libucrt:mbctype.obj
 0002:0000a698       ___newctype                1007b698     libucrt:ctype.obj
 0002:0000aa38       ___newclmap                1007ba38     libucrt:ctype.obj
 0002:0000ac08       ___newcumap                1007bc08     libucrt:ctype.obj
 0002:0000add8       __wctype                   1007bdd8     libucrt:ctype.obj
 0002:0000b8d4       ??_C@_15EMKDOKLE@?$AAa?$AAr?$AA?$AA@ 1007c8d4     libucrt:lcidtoname_downlevel.obj
 0002:0000b8dc       ??_C@_15KNPADPLH@?$AAb?$AAg?$AA?$AA@ 1007c8dc     libucrt:lcidtoname_downlevel.obj
 0002:0000b8e4       ??_C@_15EDMHLDMO@?$AAc?$AAa?$AA?$AA@ 1007c8e4     libucrt:lcidtoname_downlevel.obj
 0002:0000b8ec       ??_C@_1O@BPEAJADD@?$AAz?$AAh?$AA?9?$AAC?$AAH?$AAS?$AA?$AA@ 1007c8ec     libucrt:lcidtoname_downlevel.obj
 0002:0000b8fc       ??_C@_15LJNHCMNK@?$AAc?$AAs?$AA?$AA@ 1007c8fc     libucrt:lcidtoname_downlevel.obj
 0002:0000b904       ??_C@_15FOMCIDHG@?$AAd?$AAa?$AA?$AA@ 1007c904     libucrt:lcidtoname_downlevel.obj
 0002:0000b90c       ??_C@_15NBKABECB@?$AAd?$AAe?$AA?$AA@ 1007c90c     libucrt:lcidtoname_downlevel.obj
 0002:0000b914       ??_C@_15GHPEIIAO@?$AAe?$AAl?$AA?$AA@ 1007c914     libucrt:lcidtoname_downlevel.obj
 0002:0000b91c       ??_C@_15MNPNEAIF@?$AAe?$AAn?$AA?$AA@ 1007c91c     libucrt:lcidtoname_downlevel.obj
 0002:0000b924       ??_C@_15GPIOMPMH@?$AAe?$AAs?$AA?$AA@ 1007c924     libucrt:lcidtoname_downlevel.obj
 0002:0000b92c       ??_C@_15NGLOAKJC@?$AAf?$AAi?$AA?$AA@ 1007c92c     libucrt:lcidtoname_downlevel.obj
 0002:0000b934       ??_C@_15FBKGNKAM@?$AAf?$AAr?$AA?$AA@ 1007c934     libucrt:lcidtoname_downlevel.obj
 0002:0000b93c       ??_C@_15KGGCNEFK@?$AAh?$AAe?$AA?$AA@ 1007c93c     libucrt:lcidtoname_downlevel.obj
 0002:0000b944       ??_C@_15PGHLIDMF@?$AAh?$AAu?$AA?$AA@ 1007c944     libucrt:lcidtoname_downlevel.obj
 0002:0000b94c       ??_C@_15BIEMAPLM@?$AAi?$AAs?$AA?$AA@ 1007c94c     libucrt:lcidtoname_downlevel.obj
 0002:0000b954       ??_C@_15IFJLDHAF@?$AAi?$AAt?$AA?$AA@ 1007c954     libucrt:lcidtoname_downlevel.obj
 0002:0000b95c       ??_C@_15GEMIOCAG@?$AAj?$AAa?$AA?$AA@ 1007c95c     libucrt:lcidtoname_downlevel.obj
 0002:0000b964       ??_C@_15EPELEGJA@?$AAk?$AAo?$AA?$AA@ 1007c964     libucrt:lcidtoname_downlevel.obj
 0002:0000b96c       ??_C@_15NDDHIMN@?$AAn?$AAl?$AA?$AA@ 1007c96c     libucrt:lcidtoname_downlevel.obj
 0002:0000b974       ??_C@_15BPIGNHCD@?$AAn?$AAo?$AA?$AA@ 1007c974     libucrt:lcidtoname_downlevel.obj
 0002:0000b97c       ??_C@_15DEOPBLCG@?$AAp?$AAl?$AA?$AA@ 1007c97c     libucrt:lcidtoname_downlevel.obj
 0002:0000b984       ??_C@_15KBECGEFG@?$AAp?$AAt?$AA?$AA@ 1007c984     libucrt:lcidtoname_downlevel.obj
 0002:0000b98c       ??_C@_15GLJCBFMD@?$AAr?$AAo?$AA?$AA@ 1007c98c     libucrt:lcidtoname_downlevel.obj
 0002:0000b994       ??_C@_15FEDGKCDI@?$AAr?$AAu?$AA?$AA@ 1007c994     libucrt:lcidtoname_downlevel.obj
 0002:0000b99c       ??_C@_15GLKMLLHM@?$AAh?$AAr?$AA?$AA@ 1007c99c     libucrt:lcidtoname_downlevel.obj
 0002:0000b9a4       ??_C@_15CPKMFBDB@?$AAs?$AAk?$AA?$AA@ 1007c9a4     libucrt:lcidtoname_downlevel.obj
 0002:0000b9ac       ??_C@_15BAAIOGMK@?$AAs?$AAq?$AA?$AA@ 1007c9ac     libucrt:lcidtoname_downlevel.obj
 0002:0000b9b4       ??_C@_15INNPNOHD@?$AAs?$AAv?$AA?$AA@ 1007c9b4     libucrt:lcidtoname_downlevel.obj
 0002:0000b9bc       ??_C@_15CABMMOGH@?$AAt?$AAh?$AA?$AA@ 1007c9bc     libucrt:lcidtoname_downlevel.obj
 0002:0000b9c4       ??_C@_15BPLIHJJM@?$AAt?$AAr?$AA?$AA@ 1007c9c4     libucrt:lcidtoname_downlevel.obj
 0002:0000b9cc       ??_C@_15NEOEKKDJ@?$AAu?$AAr?$AA?$AA@ 1007c9cc     libucrt:lcidtoname_downlevel.obj
 0002:0000b9d4       ??_C@_15NFICGAJK@?$AAi?$AAd?$AA?$AA@ 1007c9d4     libucrt:lcidtoname_downlevel.obj
 0002:0000b9dc       ??_C@_15PJPFLCCM@?$AAu?$AAk?$AA?$AA@ 1007c9dc     libucrt:lcidtoname_downlevel.obj
 0002:0000b9e4       ??_C@_15HPJPHDM@?$AAb?$AAe?$AA?$AA@ 1007c9e4     libucrt:lcidtoname_downlevel.obj
 0002:0000b9ec       ??_C@_15LCHLGJII@?$AAs?$AAl?$AA?$AA@ 1007c9ec     libucrt:lcidtoname_downlevel.obj
 0002:0000b9f4       ??_C@_15PCFJPHHO@?$AAe?$AAt?$AA?$AA@ 1007c9f4     libucrt:lcidtoname_downlevel.obj
 0002:0000b9fc       ??_C@_15HPFPGODN@?$AAl?$AAv?$AA?$AA@ 1007c9fc     libucrt:lcidtoname_downlevel.obj
 0002:0000ba04       ??_C@_15NFFGKGLG@?$AAl?$AAt?$AA?$AA@ 1007ca04     libucrt:lcidtoname_downlevel.obj
 0002:0000ba0c       ??_C@_15BDAKCCHN@?$AAf?$AAa?$AA?$AA@ 1007ca0c     libucrt:lcidtoname_downlevel.obj
 0002:0000ba14       ??_C@_15NFGIAIAJ@?$AAv?$AAi?$AA?$AA@ 1007ca14     libucrt:lcidtoname_downlevel.obj
 0002:0000ba1c       ??_C@_15LMKNDMHN@?$AAh?$AAy?$AA?$AA@ 1007ca1c     libucrt:lcidtoname_downlevel.obj
 0002:0000ba24       ??_C@_15IJBHMCFL@?$AAa?$AAz?$AA?$AA@ 1007ca24     libucrt:lcidtoname_downlevel.obj
 0002:0000ba2c       ??_C@_15EKOFJABL@?$AAe?$AAu?$AA?$AA@ 1007ca2c     libucrt:lcidtoname_downlevel.obj
 0002:0000ba34       ??_C@_15BGHADCNK@?$AAm?$AAk?$AA?$AA@ 1007ca34     libucrt:lcidtoname_downlevel.obj
 0002:0000ba3c       ??_C@_15JDNICKHM@?$AAa?$AAf?$AA?$AA@ 1007ca3c     libucrt:lcidtoname_downlevel.obj
 0002:0000ba44       ??_C@_15KPJEDBKD@?$AAk?$AAa?$AA?$AA@ 1007ca44     libucrt:lcidtoname_downlevel.obj
 0002:0000ba4c       ??_C@_15PDNFFFEO@?$AAf?$AAo?$AA?$AA@ 1007ca4c     libucrt:lcidtoname_downlevel.obj
 0002:0000ba54       ??_C@_15OMLEGLOC@?$AAh?$AAi?$AA?$AA@ 1007ca54     libucrt:lcidtoname_downlevel.obj
 0002:0000ba5c       ??_C@_15IDNNENKK@?$AAm?$AAs?$AA?$AA@ 1007ca5c     libucrt:lcidtoname_downlevel.obj
 0002:0000ba64       ??_C@_15MACJNBMH@?$AAk?$AAk?$AA?$AA@ 1007ca64     libucrt:lcidtoname_downlevel.obj
 0002:0000ba6c       ??_C@_15DKDJEOND@?$AAk?$AAy?$AA?$AA@ 1007ca6c     libucrt:lcidtoname_downlevel.obj
 0002:0000ba74       ??_C@_15DFGDLJBG@?$AAs?$AAw?$AA?$AA@ 1007ca74     libucrt:lcidtoname_downlevel.obj
 0002:0000ba7c       ??_C@_15BBFAICNG@?$AAu?$AAz?$AA?$AA@ 1007ca7c     libucrt:lcidtoname_downlevel.obj
 0002:0000ba84       ??_C@_15DKNDCGEA@?$AAt?$AAt?$AA?$AA@ 1007ca84     libucrt:lcidtoname_downlevel.obj
 0002:0000ba8c       ??_C@_15MGIFMDPL@?$AAp?$AAa?$AA?$AA@ 1007ca8c     libucrt:lcidtoname_downlevel.obj
 0002:0000ba94       ??_C@_15HCNDBBA@?$AAg?$AAu?$AA?$AA@ 1007ca94     libucrt:lcidtoname_downlevel.obj
 0002:0000ba9c       ??_C@_15FNBEIBON@?$AAt?$AAa?$AA?$AA@ 1007ca9c     libucrt:lcidtoname_downlevel.obj
 0002:0000baa4       ??_C@_15NCHGBGLK@?$AAt?$AAe?$AA?$AA@ 1007caa4     libucrt:lcidtoname_downlevel.obj
 0002:0000baac       ??_C@_15PHPHCBPF@?$AAk?$AAn?$AA?$AA@ 1007caac     libucrt:lcidtoname_downlevel.obj
 0002:0000bab4       ??_C@_15DLGBCKMP@?$AAm?$AAr?$AA?$AA@ 1007cab4     libucrt:lcidtoname_downlevel.obj
 0002:0000babc       ??_C@_15EABBLBFF@?$AAs?$AAa?$AA?$AA@ 1007cabc     libucrt:lcidtoname_downlevel.obj
 0002:0000bac4       ??_C@_15CBKOMCOI@?$AAm?$AAn?$AA?$AA@ 1007cac4     libucrt:lcidtoname_downlevel.obj
 0002:0000bacc       ??_C@_15CKDMCJAF@?$AAg?$AAl?$AA?$AA@ 1007cacc     libucrt:lcidtoname_downlevel.obj
 0002:0000bad4       ??_C@_17CNJFBPG@?$AAk?$AAo?$AAk?$AA?$AA@ 1007cad4     libucrt:lcidtoname_downlevel.obj
 0002:0000bae0       ??_C@_17FFBJICPL@?$AAs?$AAy?$AAr?$AA?$AA@ 1007cae0     libucrt:lcidtoname_downlevel.obj
 0002:0000baec       ??_C@_17KPNDCPAF@?$AAd?$AAi?$AAv?$AA?$AA@ 1007caec     libucrt:lcidtoname_downlevel.obj
 0002:0000baf8       ??_C@_11LOCGONAA@?$AA?$AA@ 1007caf8     libucrt:lcidtoname_downlevel.obj
 0002:0000bafc       ??_C@_1M@OKAHONE@?$AAa?$AAr?$AA?9?$AAS?$AAA?$AA?$AA@ 1007cafc     libucrt:lcidtoname_downlevel.obj
 0002:0000bb0c       ??_C@_1M@FFFIGIGK@?$AAb?$AAg?$AA?9?$AAB?$AAG?$AA?$AA@ 1007cb0c     libucrt:lcidtoname_downlevel.obj
 0002:0000bb1c       ??_C@_1M@BJNKEDC@?$AAc?$AAa?$AA?9?$AAE?$AAS?$AA?$AA@ 1007cb1c     libucrt:lcidtoname_downlevel.obj
 0002:0000bb2c       ??_C@_1M@IJJHFJHA@?$AAc?$AAs?$AA?9?$AAC?$AAZ?$AA?$AA@ 1007cb2c     libucrt:lcidtoname_downlevel.obj
 0002:0000bb3c       ??_C@_1M@CLPEOBGI@?$AAd?$AAa?$AA?9?$AAD?$AAK?$AA?$AA@ 1007cb3c     libucrt:lcidtoname_downlevel.obj
 0002:0000bb4c       ??_C@_1M@MCMADGCB@?$AAd?$AAe?$AA?9?$AAD?$AAE?$AA?$AA@ 1007cb4c     libucrt:lcidtoname_downlevel.obj
 0002:0000bb5c       ??_C@_1M@OOCKEMAM@?$AAe?$AAl?$AA?9?$AAG?$AAR?$AA?$AA@ 1007cb5c     libucrt:lcidtoname_downlevel.obj
 0002:0000bb6c       ??_C@_1M@DDNJFGID@?$AAf?$AAi?$AA?9?$AAF?$AAI?$AA?$AA@ 1007cb6c     libucrt:lcidtoname_downlevel.obj
 0002:0000bb7c       ??_C@_1M@GLIPPMAC@?$AAf?$AAr?$AA?9?$AAF?$AAR?$AA?$AA@ 1007cb7c     libucrt:lcidtoname_downlevel.obj
 0002:0000bb8c       ??_C@_1M@GFMCHPE@?$AAh?$AAe?$AA?9?$AAI?$AAL?$AA?$AA@ 1007cb8c     libucrt:lcidtoname_downlevel.obj
 0002:0000bb9c       ??_C@_1M@MHLPGNKM@?$AAh?$AAu?$AA?9?$AAH?$AAU?$AA?$AA@ 1007cb9c     libucrt:lcidtoname_downlevel.obj
 0002:0000bbac       ??_C@_1M@LPDDNNPN@?$AAi?$AAs?$AA?9?$AAI?$AAS?$AA?$AA@ 1007cbac     libucrt:lcidtoname_downlevel.obj
 0002:0000bbbc       ??_C@_1M@MADIPODN@?$AAi?$AAt?$AA?9?$AAI?$AAT?$AA?$AA@ 1007cbbc     libucrt:lcidtoname_downlevel.obj
 0002:0000bbcc       ??_C@_1M@IHBJJGG@?$AAn?$AAl?$AA?9?$AAN?$AAL?$AA?$AA@ 1007cbcc     libucrt:lcidtoname_downlevel.obj
 0002:0000bbdc       ??_C@_1M@EANAGDL@?$AAn?$AAb?$AA?9?$AAN?$AAO?$AA?$AA@ 1007cbdc     libucrt:lcidtoname_downlevel.obj
 0002:0000bbec       ??_C@_1M@NEIEMEGP@?$AAp?$AAl?$AA?9?$AAP?$AAL?$AA?$AA@ 1007cbec     libucrt:lcidtoname_downlevel.obj
 0002:0000bbfc       ??_C@_1M@BOCFIGEP@?$AAp?$AAt?$AA?9?$AAB?$AAR?$AA?$AA@ 1007cbfc     libucrt:lcidtoname_downlevel.obj
 0002:0000bc0c       ??_C@_1M@IMPFOPBG@?$AAr?$AAo?$AA?9?$AAR?$AAO?$AA?$AA@ 1007cc0c     libucrt:lcidtoname_downlevel.obj
 0002:0000bc1c       ??_C@_1M@IDNNEJMM@?$AAr?$AAu?$AA?9?$AAR?$AAU?$AA?$AA@ 1007cc1c     libucrt:lcidtoname_downlevel.obj
 0002:0000bc2c       ??_C@_1M@LILEEOGM@?$AAh?$AAr?$AA?9?$AAH?$AAR?$AA?$AA@ 1007cc2c     libucrt:lcidtoname_downlevel.obj
 0002:0000bc3c       ??_C@_1M@FKIFEHPB@?$AAs?$AAk?$AA?9?$AAS?$AAK?$AA?$AA@ 1007cc3c     libucrt:lcidtoname_downlevel.obj
 0002:0000bc4c       ??_C@_1M@LJMAMNPJ@?$AAs?$AAq?$AA?9?$AAA?$AAL?$AA?$AA@ 1007cc4c     libucrt:lcidtoname_downlevel.obj
 0002:0000bc5c       ??_C@_1M@GIAKDKJK@?$AAs?$AAv?$AA?9?$AAS?$AAE?$AA?$AA@ 1007cc5c     libucrt:lcidtoname_downlevel.obj
 0002:0000bc6c       ??_C@_1M@MKJKIKCL@?$AAt?$AAh?$AA?9?$AAT?$AAH?$AA?$AA@ 1007cc6c     libucrt:lcidtoname_downlevel.obj
 0002:0000bc7c       ??_C@_1M@MFLCCMPB@?$AAt?$AAr?$AA?9?$AAT?$AAR?$AA?$AA@ 1007cc7c     libucrt:lcidtoname_downlevel.obj
 0002:0000bc8c       ??_C@_1M@OIJHDKJN@?$AAu?$AAr?$AA?9?$AAP?$AAK?$AA?$AA@ 1007cc8c     libucrt:lcidtoname_downlevel.obj
 0002:0000bc9c       ??_C@_1M@LHIPCIEK@?$AAi?$AAd?$AA?9?$AAI?$AAD?$AA?$AA@ 1007cc9c     libucrt:lcidtoname_downlevel.obj
 0002:0000bcac       ??_C@_1M@MFMOBGI@?$AAu?$AAk?$AA?9?$AAU?$AAA?$AA?$AA@ 1007ccac     libucrt:lcidtoname_downlevel.obj
 0002:0000bcbc       ??_C@_1M@OBGLJIPL@?$AAb?$AAe?$AA?9?$AAB?$AAY?$AA?$AA@ 1007ccbc     libucrt:lcidtoname_downlevel.obj
 0002:0000bccc       ??_C@_1M@BCFAJEAD@?$AAs?$AAl?$AA?9?$AAS?$AAI?$AA?$AA@ 1007cccc     libucrt:lcidtoname_downlevel.obj
 0002:0000bcdc       ??_C@_1M@FKFFEDDN@?$AAe?$AAt?$AA?9?$AAE?$AAE?$AA?$AA@ 1007ccdc     libucrt:lcidtoname_downlevel.obj
 0002:0000bcec       ??_C@_1M@KGKKAACI@?$AAl?$AAv?$AA?9?$AAL?$AAV?$AA?$AA@ 1007ccec     libucrt:lcidtoname_downlevel.obj
 0002:0000bcfc       ??_C@_1M@IFGBIJO@?$AAl?$AAt?$AA?9?$AAL?$AAT?$AA?$AA@ 1007ccfc     libucrt:lcidtoname_downlevel.obj
 0002:0000bd0c       ??_C@_1M@FGEAHEDM@?$AAf?$AAa?$AA?9?$AAI?$AAR?$AA?$AA@ 1007cd0c     libucrt:lcidtoname_downlevel.obj
 0002:0000bd1c       ??_C@_1M@KBMAIBFN@?$AAv?$AAi?$AA?9?$AAV?$AAN?$AA?$AA@ 1007cd1c     libucrt:lcidtoname_downlevel.obj
 0002:0000bd2c       ??_C@_1M@GPCBKDJK@?$AAh?$AAy?$AA?9?$AAA?$AAM?$AA?$AA@ 1007cd2c     libucrt:lcidtoname_downlevel.obj
 0002:0000bd3c       ??_C@_1BG@BECMDDJB@?$AAa?$AAz?$AA?9?$AAA?$AAZ?$AA?9?$AAL?$AAa?$AAt?$AAn?$AA?$AA@ 1007cd3c     libucrt:lcidtoname_downlevel.obj
 0002:0000bd58       ??_C@_1M@MAOFCAEA@?$AAe?$AAu?$AA?9?$AAE?$AAS?$AA?$AA@ 1007cd58     libucrt:lcidtoname_downlevel.obj
 0002:0000bd68       ??_C@_1M@IGHABKPI@?$AAm?$AAk?$AA?9?$AAM?$AAK?$AA?$AA@ 1007cd68     libucrt:lcidtoname_downlevel.obj
 0002:0000bd78       ??_C@_1M@IAIGNEJG@?$AAt?$AAn?$AA?9?$AAZ?$AAA?$AA?$AA@ 1007cd78     libucrt:lcidtoname_downlevel.obj
 0002:0000bd88       ??_C@_1M@IIJCOJFA@?$AAx?$AAh?$AA?9?$AAZ?$AAA?$AA?$AA@ 1007cd88     libucrt:lcidtoname_downlevel.obj
 0002:0000bd98       ??_C@_1M@LGPJHNJH@?$AAz?$AAu?$AA?9?$AAZ?$AAA?$AA?$AA@ 1007cd98     libucrt:lcidtoname_downlevel.obj
 0002:0000bda8       ??_C@_1M@HOKAOIO@?$AAa?$AAf?$AA?9?$AAZ?$AAA?$AA?$AA@ 1007cda8     libucrt:lcidtoname_downlevel.obj
 0002:0000bdb8       ??_C@_1M@DPCLHLIE@?$AAk?$AAa?$AA?9?$AAG?$AAE?$AA?$AA@ 1007cdb8     libucrt:lcidtoname_downlevel.obj
 0002:0000bdc8       ??_C@_1M@BLKMHJBI@?$AAf?$AAo?$AA?9?$AAF?$AAO?$AA?$AA@ 1007cdc8     libucrt:lcidtoname_downlevel.obj
 0002:0000bdd8       ??_C@_1M@LGGJAPPB@?$AAh?$AAi?$AA?9?$AAI?$AAN?$AA?$AA@ 1007cdd8     libucrt:lcidtoname_downlevel.obj
 0002:0000bde8       ??_C@_1M@FIKPIHFE@?$AAm?$AAt?$AA?9?$AAM?$AAT?$AA?$AA@ 1007cde8     libucrt:lcidtoname_downlevel.obj
 0002:0000bdf8       ??_C@_1M@HEGGPBFA@?$AAs?$AAe?$AA?9?$AAN?$AAO?$AA?$AA@ 1007cdf8     libucrt:lcidtoname_downlevel.obj
 0002:0000be08       ??_C@_1M@EIBJEEPA@?$AAm?$AAs?$AA?9?$AAM?$AAY?$AA?$AA@ 1007ce08     libucrt:lcidtoname_downlevel.obj
 0002:0000be18       ??_C@_1M@FHLBGMPP@?$AAk?$AAk?$AA?9?$AAK?$AAZ?$AA?$AA@ 1007ce18     libucrt:lcidtoname_downlevel.obj
 0002:0000be28       ??_C@_1M@NGJJLCGI@?$AAk?$AAy?$AA?9?$AAK?$AAG?$AA?$AA@ 1007ce28     libucrt:lcidtoname_downlevel.obj
 0002:0000be38       ??_C@_1M@GIENNBFC@?$AAs?$AAw?$AA?9?$AAK?$AAE?$AA?$AA@ 1007ce38     libucrt:lcidtoname_downlevel.obj
 0002:0000be48       ??_C@_1BG@NDGMJIMJ@?$AAu?$AAz?$AA?9?$AAU?$AAZ?$AA?9?$AAL?$AAa?$AAt?$AAn?$AA?$AA@ 1007ce48     libucrt:lcidtoname_downlevel.obj
 0002:0000be64       ??_C@_1M@IDCCIHBC@?$AAt?$AAt?$AA?9?$AAR?$AAU?$AA?$AA@ 1007ce64     libucrt:lcidtoname_downlevel.obj
 0002:0000be74       ??_C@_1M@LOICPMOJ@?$AAb?$AAn?$AA?9?$AAI?$AAN?$AA?$AA@ 1007ce74     libucrt:lcidtoname_downlevel.obj
 0002:0000be84       ??_C@_1M@KPKKNEAH@?$AAp?$AAa?$AA?9?$AAI?$AAN?$AA?$AA@ 1007ce84     libucrt:lcidtoname_downlevel.obj
 0002:0000be94       ??_C@_1M@PJGPPBOG@?$AAg?$AAu?$AA?9?$AAI?$AAN?$AA?$AA@ 1007ce94     libucrt:lcidtoname_downlevel.obj
 0002:0000bea4       ??_C@_1M@KMKMOPHI@?$AAt?$AAa?$AA?9?$AAI?$AAN?$AA?$AA@ 1007cea4     libucrt:lcidtoname_downlevel.obj
 0002:0000beb4       ??_C@_1M@KFEHEPAC@?$AAt?$AAe?$AA?9?$AAI?$AAN?$AA?$AA@ 1007ceb4     libucrt:lcidtoname_downlevel.obj
 0002:0000bec4       ??_C@_1M@CDCLMGHI@?$AAk?$AAn?$AA?9?$AAI?$AAN?$AA?$AA@ 1007cec4     libucrt:lcidtoname_downlevel.obj
 0002:0000bed4       ??_C@_1M@MIODLDKF@?$AAm?$AAl?$AA?9?$AAI?$AAN?$AA?$AA@ 1007ced4     libucrt:lcidtoname_downlevel.obj
 0002:0000bee4       ??_C@_1M@PBIEACPO@?$AAm?$AAr?$AA?9?$AAI?$AAN?$AA?$AA@ 1007cee4     libucrt:lcidtoname_downlevel.obj
 0002:0000bef4       ??_C@_1M@NIDEAGPH@?$AAs?$AAa?$AA?9?$AAI?$AAN?$AA?$AA@ 1007cef4     libucrt:lcidtoname_downlevel.obj
 0002:0000bf04       ??_C@_1M@FHIHCBIO@?$AAm?$AAn?$AA?9?$AAM?$AAN?$AA?$AA@ 1007cf04     libucrt:lcidtoname_downlevel.obj
 0002:0000bf14       ??_C@_1M@JAIJPENP@?$AAc?$AAy?$AA?9?$AAG?$AAB?$AA?$AA@ 1007cf14     libucrt:lcidtoname_downlevel.obj
 0002:0000bf24       ??_C@_1M@PHGFBEPN@?$AAg?$AAl?$AA?9?$AAE?$AAS?$AA?$AA@ 1007cf24     libucrt:lcidtoname_downlevel.obj
 0002:0000bf34       ??_C@_1O@KPIPDNCP@?$AAk?$AAo?$AAk?$AA?9?$AAI?$AAN?$AA?$AA@ 1007cf34     libucrt:lcidtoname_downlevel.obj
 0002:0000bf44       ??_C@_1O@KNHJLDJA@?$AAs?$AAy?$AAr?$AA?9?$AAS?$AAY?$AA?$AA@ 1007cf44     libucrt:lcidtoname_downlevel.obj
 0002:0000bf54       ??_C@_1O@MKEKBLAH@?$AAd?$AAi?$AAv?$AA?9?$AAM?$AAV?$AA?$AA@ 1007cf54     libucrt:lcidtoname_downlevel.obj
 0002:0000bf64       ??_C@_1O@OHDCKDDF@?$AAq?$AAu?$AAz?$AA?9?$AAB?$AAO?$AA?$AA@ 1007cf64     libucrt:lcidtoname_downlevel.obj
 0002:0000bf74       ??_C@_1M@LEPJNLFD@?$AAn?$AAs?$AA?9?$AAZ?$AAA?$AA?$AA@ 1007cf74     libucrt:lcidtoname_downlevel.obj
 0002:0000bf84       ??_C@_1M@OMLEIIJB@?$AAm?$AAi?$AA?9?$AAN?$AAZ?$AA?$AA@ 1007cf84     libucrt:lcidtoname_downlevel.obj
 0002:0000bf94       ??_C@_1M@PMPEAILG@?$AAa?$AAr?$AA?9?$AAI?$AAQ?$AA?$AA@ 1007cf94     libucrt:lcidtoname_downlevel.obj
 0002:0000bfa4       ??_C@_1M@CNKPNOEE@?$AAd?$AAe?$AA?9?$AAC?$AAH?$AA?$AA@ 1007cfa4     libucrt:lcidtoname_downlevel.obj
 0002:0000bfb4       ??_C@_1M@LKMGMLKO@?$AAe?$AAn?$AA?9?$AAG?$AAB?$AA?$AA@ 1007cfb4     libucrt:lcidtoname_downlevel.obj
 0002:0000bfc4       ??_C@_1M@PGKJFFGL@?$AAe?$AAs?$AA?9?$AAM?$AAX?$AA?$AA@ 1007cfc4     libucrt:lcidtoname_downlevel.obj
 0002:0000bfd4       ??_C@_1M@DNNANBDC@?$AAf?$AAr?$AA?9?$AAB?$AAE?$AA?$AA@ 1007cfd4     libucrt:lcidtoname_downlevel.obj
 0002:0000bfe4       ??_C@_1M@HLGMDFHM@?$AAi?$AAt?$AA?9?$AAC?$AAH?$AA?$AA@ 1007cfe4     libucrt:lcidtoname_downlevel.obj
 0002:0000bff4       ??_C@_1M@CLLBGJH@?$AAn?$AAl?$AA?9?$AAB?$AAE?$AA?$AA@ 1007cff4     libucrt:lcidtoname_downlevel.obj
 0002:0000c004       ??_C@_1M@BODBOGLF@?$AAn?$AAn?$AA?9?$AAN?$AAO?$AA?$AA@ 1007d004     libucrt:lcidtoname_downlevel.obj
 0002:0000c014       ??_C@_1M@HFFAHKAD@?$AAp?$AAt?$AA?9?$AAP?$AAT?$AA?$AA@ 1007d014     libucrt:lcidtoname_downlevel.obj
 0002:0000c024       ??_C@_1BG@LNOAKHIE@?$AAs?$AAr?$AA?9?$AAS?$AAP?$AA?9?$AAL?$AAa?$AAt?$AAn?$AA?$AA@ 1007d024     libucrt:lcidtoname_downlevel.obj
 0002:0000c040       ??_C@_1M@HBMHBGAK@?$AAs?$AAv?$AA?9?$AAF?$AAI?$AA?$AA@ 1007d040     libucrt:lcidtoname_downlevel.obj
 0002:0000c050       ??_C@_1BG@DGCJGJBE@?$AAa?$AAz?$AA?9?$AAA?$AAZ?$AA?9?$AAC?$AAy?$AAr?$AAl?$AA?$AA@ 1007d050     libucrt:lcidtoname_downlevel.obj
 0002:0000c06c       ??_C@_1M@KEJDAAHB@?$AAs?$AAe?$AA?9?$AAS?$AAE?$AA?$AA@ 1007d06c     libucrt:lcidtoname_downlevel.obj
 0002:0000c07c       ??_C@_1M@HEIBJJAD@?$AAm?$AAs?$AA?9?$AAB?$AAN?$AA?$AA@ 1007d07c     libucrt:lcidtoname_downlevel.obj
 0002:0000c08c       ??_C@_1BG@PBGJMCEM@?$AAu?$AAz?$AA?9?$AAU?$AAZ?$AA?9?$AAC?$AAy?$AAr?$AAl?$AA?$AA@ 1007d08c     libucrt:lcidtoname_downlevel.obj
 0002:0000c0a8       ??_C@_1O@LAOBCMDF@?$AAq?$AAu?$AAz?$AA?9?$AAE?$AAC?$AA?$AA@ 1007d0a8     libucrt:lcidtoname_downlevel.obj
 0002:0000c0b8       ??_C@_1M@POEEMAIO@?$AAa?$AAr?$AA?9?$AAE?$AAG?$AA?$AA@ 1007d0b8     libucrt:lcidtoname_downlevel.obj
 0002:0000c0c8       ??_C@_1M@EFAKDEDL@?$AAz?$AAh?$AA?9?$AAH?$AAK?$AA?$AA@ 1007d0c8     libucrt:lcidtoname_downlevel.obj
 0002:0000c0d8       ??_C@_1M@HKKIJHGI@?$AAd?$AAe?$AA?9?$AAA?$AAT?$AA?$AA@ 1007d0d8     libucrt:lcidtoname_downlevel.obj
 0002:0000c0e8       ??_C@_1M@KBFBEHJF@?$AAe?$AAn?$AA?9?$AAA?$AAU?$AA?$AA@ 1007d0e8     libucrt:lcidtoname_downlevel.obj
 0002:0000c0f8       ??_C@_1M@MNPLFAAH@?$AAe?$AAs?$AA?9?$AAE?$AAS?$AA?$AA@ 1007d0f8     libucrt:lcidtoname_downlevel.obj
 0002:0000c108       ??_C@_1M@HJOOJFMA@?$AAf?$AAr?$AA?9?$AAC?$AAA?$AA?$AA@ 1007d108     libucrt:lcidtoname_downlevel.obj
 0002:0000c118       ??_C@_1BG@JPOFPNAB@?$AAs?$AAr?$AA?9?$AAS?$AAP?$AA?9?$AAC?$AAy?$AAr?$AAl?$AA?$AA@ 1007d118     libucrt:lcidtoname_downlevel.obj
 0002:0000c134       ??_C@_1M@LNFOCMOB@?$AAs?$AAe?$AA?9?$AAF?$AAI?$AA?$AA@ 1007d134     libucrt:lcidtoname_downlevel.obj
 0002:0000c144       ??_C@_1O@MGJBOAMB@?$AAq?$AAu?$AAz?$AA?9?$AAP?$AAE?$AA?$AA@ 1007d144     libucrt:lcidtoname_downlevel.obj
 0002:0000c154       ??_C@_1M@GJINLBOK@?$AAa?$AAr?$AA?9?$AAL?$AAY?$AA?$AA@ 1007d154     libucrt:lcidtoname_downlevel.obj
 0002:0000c164       ??_C@_1M@GGMNHJNL@?$AAz?$AAh?$AA?9?$AAS?$AAG?$AA?$AA@ 1007d164     libucrt:lcidtoname_downlevel.obj
 0002:0000c174       ??_C@_1M@HOIKODND@?$AAd?$AAe?$AA?9?$AAL?$AAU?$AA?$AA@ 1007d174     libucrt:lcidtoname_downlevel.obj
 0002:0000c184       ??_C@_1M@DDOCCGFG@?$AAe?$AAn?$AA?9?$AAC?$AAA?$AA?$AA@ 1007d184     libucrt:lcidtoname_downlevel.obj
 0002:0000c194       ??_C@_1M@BNOEMJLF@?$AAe?$AAs?$AA?9?$AAG?$AAT?$AA?$AA@ 1007d194     libucrt:lcidtoname_downlevel.obj
 0002:0000c1a4       ??_C@_1M@EOGNKEK@?$AAf?$AAr?$AA?9?$AAC?$AAH?$AA?$AA@ 1007d1a4     libucrt:lcidtoname_downlevel.obj
 0002:0000c1b4       ??_C@_1M@FLIDJFHL@?$AAh?$AAr?$AA?9?$AAB?$AAA?$AA?$AA@ 1007d1b4     libucrt:lcidtoname_downlevel.obj
 0002:0000c1c4       ??_C@_1O@FMCELNAJ@?$AAs?$AAm?$AAj?$AA?9?$AAN?$AAO?$AA?$AA@ 1007d1c4     libucrt:lcidtoname_downlevel.obj
 0002:0000c1d4       ??_C@_1M@JHGLJMGJ@?$AAa?$AAr?$AA?9?$AAD?$AAZ?$AA?$AA@ 1007d1d4     libucrt:lcidtoname_downlevel.obj
 0002:0000c1e4       ??_C@_1M@JKKFDCNP@?$AAz?$AAh?$AA?9?$AAM?$AAO?$AA?$AA@ 1007d1e4     libucrt:lcidtoname_downlevel.obj
 0002:0000c1f4       ??_C@_1M@GEEFALPE@?$AAd?$AAe?$AA?9?$AAL?$AAI?$AA?$AA@ 1007d1f4     libucrt:lcidtoname_downlevel.obj
 0002:0000c204       ??_C@_1M@IGEOFBG@?$AAe?$AAn?$AA?9?$AAN?$AAZ?$AA?$AA@ 1007d204     libucrt:lcidtoname_downlevel.obj
 0002:0000c214       ??_C@_1M@KDBONEHP@?$AAe?$AAs?$AA?9?$AAC?$AAR?$AA?$AA@ 1007d214     libucrt:lcidtoname_downlevel.obj
 0002:0000c224       ??_C@_1M@FHMDOHNN@?$AAf?$AAr?$AA?9?$AAL?$AAU?$AA?$AA@ 1007d224     libucrt:lcidtoname_downlevel.obj
 0002:0000c234       ??_C@_1BG@NFKKMAFG@?$AAb?$AAs?$AA?9?$AAB?$AAA?$AA?9?$AAL?$AAa?$AAt?$AAn?$AA?$AA@ 1007d234     libucrt:lcidtoname_downlevel.obj
 0002:0000c250       ??_C@_1O@IMNBEMCI@?$AAs?$AAm?$AAj?$AA?9?$AAS?$AAE?$AA?$AA@ 1007d250     libucrt:lcidtoname_downlevel.obj
 0002:0000c260       ??_C@_1M@DHHMBNDP@?$AAa?$AAr?$AA?9?$AAM?$AAA?$AA?$AA@ 1007d260     libucrt:lcidtoname_downlevel.obj
 0002:0000c270       ??_C@_1M@BNBLJCGH@?$AAe?$AAn?$AA?9?$AAI?$AAE?$AA?$AA@ 1007d270     libucrt:lcidtoname_downlevel.obj
 0002:0000c280       ??_C@_1M@GEPAFMDL@?$AAe?$AAs?$AA?9?$AAP?$AAA?$AA?$AA@ 1007d280     libucrt:lcidtoname_downlevel.obj
 0002:0000c290       ??_C@_1M@OJONDMDL@?$AAf?$AAr?$AA?9?$AAM?$AAC?$AA?$AA@ 1007d290     libucrt:lcidtoname_downlevel.obj
 0002:0000c2a0       ??_C@_1BG@OBCNFJB@?$AAs?$AAr?$AA?9?$AAB?$AAA?$AA?9?$AAL?$AAa?$AAt?$AAn?$AA?$AA@ 1007d2a0     libucrt:lcidtoname_downlevel.obj
 0002:0000c2bc       ??_C@_1O@KEMEEGPO@?$AAs?$AAm?$AAa?$AA?9?$AAN?$AAO?$AA?$AA@ 1007d2bc     libucrt:lcidtoname_downlevel.obj
 0002:0000c2cc       ??_C@_1M@ELMGFODK@?$AAa?$AAr?$AA?9?$AAT?$AAN?$AA?$AA@ 1007d2cc     libucrt:lcidtoname_downlevel.obj
 0002:0000c2dc       ??_C@_1M@BHDLHFAF@?$AAe?$AAn?$AA?9?$AAZ?$AAA?$AA?$AA@ 1007d2dc     libucrt:lcidtoname_downlevel.obj
 0002:0000c2ec       ??_C@_1M@BMGIGLIF@?$AAe?$AAs?$AA?9?$AAD?$AAO?$AA?$AA@ 1007d2ec     libucrt:lcidtoname_downlevel.obj
 0002:0000c2fc       ??_C@_1BG@CMBHIPBE@?$AAs?$AAr?$AA?9?$AAB?$AAA?$AA?9?$AAC?$AAy?$AAr?$AAl?$AA?$AA@ 1007d2fc     libucrt:lcidtoname_downlevel.obj
 0002:0000c318       ??_C@_1O@HEDBLHNP@?$AAs?$AAm?$AAa?$AA?9?$AAS?$AAE?$AA?$AA@ 1007d318     libucrt:lcidtoname_downlevel.obj
 0002:0000c328       ??_C@_1M@DAGCADIM@?$AAa?$AAr?$AA?9?$AAO?$AAM?$AA?$AA@ 1007d328     libucrt:lcidtoname_downlevel.obj
 0002:0000c338       ??_C@_1M@FODLMICG@?$AAe?$AAn?$AA?9?$AAJ?$AAM?$AA?$AA@ 1007d338     libucrt:lcidtoname_downlevel.obj
 0002:0000c348       ??_C@_1M@DNMLCIHB@?$AAe?$AAs?$AA?9?$AAV?$AAE?$AA?$AA@ 1007d348     libucrt:lcidtoname_downlevel.obj
 0002:0000c358       ??_C@_1O@EOKHMKJK@?$AAs?$AAm?$AAs?$AA?9?$AAF?$AAI?$AA?$AA@ 1007d358     libucrt:lcidtoname_downlevel.obj
 0002:0000c368       ??_C@_1M@CAFJMKOF@?$AAa?$AAr?$AA?9?$AAY?$AAE?$AA?$AA@ 1007d368     libucrt:lcidtoname_downlevel.obj
 0002:0000c378       ??_C@_1M@CBFHIJLI@?$AAe?$AAn?$AA?9?$AAC?$AAB?$AA?$AA@ 1007d378     libucrt:lcidtoname_downlevel.obj
 0002:0000c388       ??_C@_1M@BGNFLDN@?$AAe?$AAs?$AA?9?$AAC?$AAO?$AA?$AA@ 1007d388     libucrt:lcidtoname_downlevel.obj
 0002:0000c398       ??_C@_1O@JMPHMAMC@?$AAs?$AAm?$AAn?$AA?9?$AAF?$AAI?$AA?$AA@ 1007d398     libucrt:lcidtoname_downlevel.obj
 0002:0000c3a8       ??_C@_1M@JLANABKE@?$AAa?$AAr?$AA?9?$AAS?$AAY?$AA?$AA@ 1007d3a8     libucrt:lcidtoname_downlevel.obj
 0002:0000c3b8       ??_C@_1M@HPKGCFGN@?$AAe?$AAn?$AA?9?$AAB?$AAZ?$AA?$AA@ 1007d3b8     libucrt:lcidtoname_downlevel.obj
 0002:0000c3c8       ??_C@_1M@OLJCMLGM@?$AAe?$AAs?$AA?9?$AAP?$AAE?$AA?$AA@ 1007d3c8     libucrt:lcidtoname_downlevel.obj
 0002:0000c3d8       ??_C@_1M@MKKGFKLE@?$AAa?$AAr?$AA?9?$AAJ?$AAO?$AA?$AA@ 1007d3d8     libucrt:lcidtoname_downlevel.obj
 0002:0000c3e8       ??_C@_1M@EKPGLDNI@?$AAe?$AAn?$AA?9?$AAT?$AAT?$AA?$AA@ 1007d3e8     libucrt:lcidtoname_downlevel.obj
 0002:0000c3f8       ??_C@_1M@OONGHFHE@?$AAe?$AAs?$AA?9?$AAA?$AAR?$AA?$AA@ 1007d3f8     libucrt:lcidtoname_downlevel.obj
 0002:0000c408       ??_C@_1M@OOJFGBHE@?$AAa?$AAr?$AA?9?$AAL?$AAB?$AA?$AA@ 1007d408     libucrt:lcidtoname_downlevel.obj
 0002:0000c418       ??_C@_1M@GCEJHNEG@?$AAe?$AAn?$AA?9?$AAZ?$AAW?$AA?$AA@ 1007d418     libucrt:lcidtoname_downlevel.obj
 0002:0000c428       ??_C@_1M@JNOCAHJI@?$AAe?$AAs?$AA?9?$AAE?$AAC?$AA?$AA@ 1007d428     libucrt:lcidtoname_downlevel.obj
 0002:0000c438       ??_C@_1M@JEFHPGGB@?$AAa?$AAr?$AA?9?$AAK?$AAW?$AA?$AA@ 1007d438     libucrt:lcidtoname_downlevel.obj
 0002:0000c448       ??_C@_1M@MLKIBJOJ@?$AAe?$AAn?$AA?9?$AAP?$AAH?$AA?$AA@ 1007d448     libucrt:lcidtoname_downlevel.obj
 0002:0000c458       ??_C@_1M@BDNIPEND@?$AAe?$AAs?$AA?9?$AAC?$AAL?$AA?$AA@ 1007d458     libucrt:lcidtoname_downlevel.obj
 0002:0000c468       ??_C@_1M@MPNMEKBD@?$AAa?$AAr?$AA?9?$AAA?$AAE?$AA?$AA@ 1007d468     libucrt:lcidtoname_downlevel.obj
 0002:0000c478       ??_C@_1M@KBJALCPI@?$AAe?$AAs?$AA?9?$AAU?$AAY?$AA?$AA@ 1007d478     libucrt:lcidtoname_downlevel.obj
 0002:0000c488       ??_C@_1M@LLCCOAGA@?$AAa?$AAr?$AA?9?$AAB?$AAH?$AA?$AA@ 1007d488     libucrt:lcidtoname_downlevel.obj
 0002:0000c498       ??_C@_1M@PBFNCDEL@?$AAe?$AAs?$AA?9?$AAP?$AAY?$AA?$AA@ 1007d498     libucrt:lcidtoname_downlevel.obj
 0002:0000c4a8       ??_C@_1M@EDGINPNP@?$AAa?$AAr?$AA?9?$AAQ?$AAA?$AA?$AA@ 1007d4a8     libucrt:lcidtoname_downlevel.obj
 0002:0000c4b8       ??_C@_1M@MKDBIIJI@?$AAe?$AAs?$AA?9?$AAB?$AAO?$AA?$AA@ 1007d4b8     libucrt:lcidtoname_downlevel.obj
 0002:0000c4c8       ??_C@_1M@CPKKEBLD@?$AAe?$AAs?$AA?9?$AAS?$AAV?$AA?$AA@ 1007d4c8     libucrt:lcidtoname_downlevel.obj
 0002:0000c4d8       ??_C@_1M@NDBGMMJL@?$AAe?$AAs?$AA?9?$AAH?$AAN?$AA?$AA@ 1007d4d8     libucrt:lcidtoname_downlevel.obj
 0002:0000c4e8       ??_C@_1M@JIJIBHDP@?$AAe?$AAs?$AA?9?$AAN?$AAI?$AA?$AA@ 1007d4e8     libucrt:lcidtoname_downlevel.obj
 0002:0000c4f8       ??_C@_1M@CGFMKEEK@?$AAe?$AAs?$AA?9?$AAP?$AAR?$AA?$AA@ 1007d4f8     libucrt:lcidtoname_downlevel.obj
 0002:0000c508       ??_C@_1O@ICJHKIIK@?$AAz?$AAh?$AA?9?$AAC?$AAH?$AAT?$AA?$AA@ 1007d508     libucrt:lcidtoname_downlevel.obj
 0002:0000c518       ??_C@_15CLNEJCE@?$AAs?$AAr?$AA?$AA@ 1007d518     libucrt:lcidtoname_downlevel.obj
 0002:0000cdac       ??_C@_1M@KAHEKEIG@?$AAa?$AAf?$AA?9?$AAz?$AAa?$AA?$AA@ 1007ddac     libucrt:lcidtoname_downlevel.obj
 0002:0000cdbc       ??_C@_1M@GIECOABL@?$AAa?$AAr?$AA?9?$AAa?$AAe?$AA?$AA@ 1007ddbc     libucrt:lcidtoname_downlevel.obj
 0002:0000cdcc       ??_C@_1M@BMLMEKGI@?$AAa?$AAr?$AA?9?$AAb?$AAh?$AA?$AA@ 1007ddcc     libucrt:lcidtoname_downlevel.obj
 0002:0000cddc       ??_C@_1M@DAPFDGGB@?$AAa?$AAr?$AA?9?$AAd?$AAz?$AA?$AA@ 1007dddc     libucrt:lcidtoname_downlevel.obj
 0002:0000cdec       ??_C@_1M@FJNKGKIG@?$AAa?$AAr?$AA?9?$AAe?$AAg?$AA?$AA@ 1007ddec     libucrt:lcidtoname_downlevel.obj
 0002:0000cdfc       ??_C@_1M@FLGKKCLO@?$AAa?$AAr?$AA?9?$AAi?$AAq?$AA?$AA@ 1007ddfc     libucrt:lcidtoname_downlevel.obj
 0002:0000ce0c       ??_C@_1M@GNDIPALM@?$AAa?$AAr?$AA?9?$AAj?$AAo?$AA?$AA@ 1007de0c     libucrt:lcidtoname_downlevel.obj
 0002:0000ce1c       ??_C@_1M@DDMJFMGJ@?$AAa?$AAr?$AA?9?$AAk?$AAw?$AA?$AA@ 1007de1c     libucrt:lcidtoname_downlevel.obj
